ARM GAS  /var/folders/3j/4xdnk5197cv_b7cw3n33qk7r0000gn/T//ccZnsgjt.s 			page 1


   1              		.cpu arm1176jz-s
   2              		.eabi_attribute 20, 1
   3              		.eabi_attribute 21, 1
   4              		.eabi_attribute 23, 3
   5              		.eabi_attribute 24, 1
   6              		.eabi_attribute 25, 1
   7              		.eabi_attribute 26, 1
   8              		.eabi_attribute 30, 2
   9              		.eabi_attribute 34, 1
  10              		.eabi_attribute 18, 4
  11              		.file	"A2DAddress.c"
  12              		.text
  13              	.Ltext0:
  14              		.cfi_sections	.debug_frame
  15              		.section	.text.ValidateAddress,"ax",%progbits
  16              		.align	2
  17              		.global	ValidateAddress
  18              		.syntax unified
  19              		.arm
  20              		.fpu softvfp
  21              		.type	ValidateAddress, %function
  22              	ValidateAddress:
  23              	.LFB19:
  24              		.file 1 "..//A2D_PIC_RPI/src/A2DAddress.c"
  25              		.loc 1 47 0
  26              		.cfi_startproc
  27              		@ args = 0, pretend = 0, frame = 0
  28              		@ frame_needed = 0, uses_anonymous_args = 0
  29              		@ link register save eliminated.
  30              	.LVL0:
  31              		.loc 1 49 0
  32 0000 030040E2 		sub	r0, r0, #3
  33              	.LVL1:
  34              		.loc 1 51 0
  35 0004 740050E3 		cmp	r0, #116
  36 0008 0000A083 		movhi	r0, #0
  37              	.LVL2:
  38 000c 0100A093 		movls	r0, #1
  39 0010 1EFF2FE1 		bx	lr
  40              		.cfi_endproc
  41              	.LFE19:
  42              		.size	ValidateAddress, .-ValidateAddress
  43              		.section	.text.ValidateDevice,"ax",%progbits
  44              		.align	2
  45              		.global	ValidateDevice
  46              		.syntax unified
  47              		.arm
  48              		.fpu softvfp
  49              		.type	ValidateDevice, %function
  50              	ValidateDevice:
  51              	.LFB20:
  52              		.loc 1 55 0
  53              		.cfi_startproc
  54              		@ args = 0, pretend = 0, frame = 0
  55              		@ frame_needed = 0, uses_anonymous_args = 0
  56              	.LVL3:
  57 0000 10402DE9 		push	{r4, lr}
ARM GAS  /var/folders/3j/4xdnk5197cv_b7cw3n33qk7r0000gn/T//ccZnsgjt.s 			page 2


  58              		.cfi_def_cfa_offset 8
  59              		.cfi_offset 4, -8
  60              		.cfi_offset 14, -4
  61              		.loc 1 58 0
  62 0004 0710A0E3 		mov	r1, #7
  63 0008 FEFFFFEB 		bl	I2CWrapperReadByte
  64              	.LVL4:
  65              		.loc 1 60 0
  66 000c E70040E2 		sub	r0, r0, #231
  67 0010 100F6FE1 		clz	r0, r0
  68 0014 A002A0E1 		lsr	r0, r0, #5
  69 0018 1080BDE8 		pop	{r4, pc}
  70              		.cfi_endproc
  71              	.LFE20:
  72              		.size	ValidateDevice, .-ValidateDevice
  73              		.section	.text.startup.main,"ax",%progbits
  74              		.align	2
  75              		.global	main
  76              		.syntax unified
  77              		.arm
  78              		.fpu softvfp
  79              		.type	main, %function
  80              	main:
  81              	.LFB21:
  82              		.loc 1 64 0
  83              		.cfi_startproc
  84              		@ args = 0, pretend = 0, frame = 0
  85              		@ frame_needed = 0, uses_anonymous_args = 0
  86              	.LVL5:
  87              		.loc 1 73 0
  88 0000 030050E3 		cmp	r0, #3
  89              		.loc 1 64 0
  90 0004 70402DE9 		push	{r4, r5, r6, lr}
  91              		.cfi_def_cfa_offset 16
  92              		.cfi_offset 4, -16
  93              		.cfi_offset 5, -12
  94              		.cfi_offset 6, -8
  95              		.cfi_offset 14, -4
  96              		.loc 1 73 0
  97 0008 5700001A 		bne	.L17
  98              		.loc 1 81 0
  99 000c 045091E5 		ldr	r5, [r1, #4]
 100 0010 0140A0E1 		mov	r4, r1
 101 0014 0500A0E1 		mov	r0, r5
 102              	.LVL6:
 103 0018 80119FE5 		ldr	r1, .L24
 104              	.LVL7:
 105 001c FEFFFFEB 		bl	strstr
 106              	.LVL8:
 107 0020 000050E3 		cmp	r0, #0
 108              	.LBB14:
 109              		.loc 1 82 0
 110 0024 0500A0E1 		mov	r0, r5
 111              	.LBE14:
 112              		.loc 1 81 0
 113 0028 3100000A 		beq	.L18
 114              	.LBB15:
ARM GAS  /var/folders/3j/4xdnk5197cv_b7cw3n33qk7r0000gn/T//ccZnsgjt.s 			page 3


 115              		.loc 1 84 0
 116 002c 1020A0E3 		mov	r2, #16
 117 0030 0010A0E3 		mov	r1, #0
 118 0034 FEFFFFEB 		bl	strtoul
 119              	.LVL9:
 120 0038 0050A0E1 		mov	r5, r0
 121              	.LVL10:
 122              	.L9:
 123              	.LBE15:
 124              		.loc 1 86 0
 125 003c 5C119FE5 		ldr	r1, .L24
 126 0040 040094E5 		ldr	r0, [r4, #4]
 127              	.LVL11:
 128 0044 FEFFFFEB 		bl	strstr
 129              	.LVL12:
 130 0048 000050E3 		cmp	r0, #0
 131 004c 080094E5 		ldr	r0, [r4, #8]
 132 0050 2A00000A 		beq	.L19
 133              	.LBB16:
 134              		.loc 1 89 0
 135 0054 1020A0E3 		mov	r2, #16
 136 0058 0010A0E3 		mov	r1, #0
 137 005c FEFFFFEB 		bl	strtoul
 138              	.LVL13:
 139 0060 0060A0E1 		mov	r6, r0
 140              	.LVL14:
 141              	.L11:
 142              	.LBE16:
 143              	.LBB17:
 144              	.LBB18:
 145              		.loc 1 49 0
 146 0064 033045E2 		sub	r3, r5, #3
 147 0068 740053E3 		cmp	r3, #116
 148 006c 3600008A 		bhi	.L20
 149              	.LVL15:
 150              	.LBE18:
 151              	.LBE17:
 152              		.loc 1 106 0
 153 0070 0510A0E1 		mov	r1, r5
 154 0074 0100A0E3 		mov	r0, #1
 155              	.LVL16:
 156 0078 FEFFFFEB 		bl	I2CWrapperOpen
 157              	.LVL17:
 158              		.loc 1 108 0
 159 007c 004050E2 		subs	r4, r0, #0
 160              	.LVL18:
 161 0080 3D0000BA 		blt	.L21
 162              	.LVL19:
 163              	.LBB19:
 164              	.LBB20:
 165              		.loc 1 58 0
 166 0084 0710A0E3 		mov	r1, #7
 167 0088 FEFFFFEB 		bl	I2CWrapperReadByte
 168              	.LVL20:
 169 008c E70050E3 		cmp	r0, #231
 170 0090 1D00001A 		bne	.L22
 171              	.LVL21:
ARM GAS  /var/folders/3j/4xdnk5197cv_b7cw3n33qk7r0000gn/T//ccZnsgjt.s 			page 4


 172              	.LBE20:
 173              	.LBE19:
 174              		.loc 1 122 0
 175 0094 7620EFE6 		uxtb	r2, r6
 176 0098 0510A0E3 		mov	r1, #5
 177 009c 0400A0E1 		mov	r0, r4
 178 00a0 FEFFFFEB 		bl	I2CWrapperWriteByte
 179              	.LVL22:
 180 00a4 F8209FE5 		ldr	r2, .L24+4
 181 00a8 0910A0E3 		mov	r1, #9
 182 00ac 0400A0E1 		mov	r0, r4
 183 00b0 FEFFFFEB 		bl	I2CWrapperWriteWord
 184              	.LVL23:
 185              		.loc 1 124 0
 186 00b4 0100A0E3 		mov	r0, #1
 187 00b8 FEFFFFEB 		bl	sleep
 188              	.LVL24:
 189              		.loc 1 126 0
 190 00bc 0610A0E1 		mov	r1, r6
 191 00c0 0400A0E1 		mov	r0, r4
 192 00c4 FEFFFFEB 		bl	I2CWrapperSlaveAddress
 193              	.LVL25:
 194              	.LBB21:
 195              	.LBB22:
 196              		.loc 1 58 0
 197 00c8 0400A0E1 		mov	r0, r4
 198 00cc 0710A0E3 		mov	r1, #7
 199 00d0 FEFFFFEB 		bl	I2CWrapperReadByte
 200              	.LVL26:
 201 00d4 E70050E3 		cmp	r0, #231
 202 00d8 1300001A 		bne	.L23
 203              	.LVL27:
 204              	.LBE22:
 205              	.LBE21:
 206              		.loc 1 134 0
 207 00dc 0620A0E1 		mov	r2, r6
 208 00e0 0510A0E1 		mov	r1, r5
 209 00e4 BC009FE5 		ldr	r0, .L24+8
 210 00e8 FEFFFFEB 		bl	printf
 211              	.LVL28:
 212              		.loc 1 136 0
 213 00ec 0000A0E3 		mov	r0, #0
 214              		.loc 1 137 0
 215 00f0 7080BDE8 		pop	{r4, r5, r6, pc}
 216              	.LVL29:
 217              	.L18:
 218              	.LBB23:
 219              		.loc 1 82 0
 220 00f4 FEFFFFEB 		bl	atoi
 221              	.LVL30:
 222 00f8 0050A0E1 		mov	r5, r0
 223              	.LVL31:
 224              	.LBE23:
 225 00fc CEFFFFEA 		b	.L9
 226              	.LVL32:
 227              	.L19:
 228              	.LBB24:
ARM GAS  /var/folders/3j/4xdnk5197cv_b7cw3n33qk7r0000gn/T//ccZnsgjt.s 			page 5


 229              		.loc 1 87 0
 230 0100 FEFFFFEB 		bl	atoi
 231              	.LVL33:
 232 0104 0060A0E1 		mov	r6, r0
 233              	.LVL34:
 234              	.LBE24:
 235 0108 D5FFFFEA 		b	.L11
 236              	.LVL35:
 237              	.L22:
 238              		.loc 1 117 0
 239 010c 98309FE5 		ldr	r3, .L24+12
 240 0110 0520A0E1 		mov	r2, r5
 241 0114 003093E5 		ldr	r3, [r3]
 242 0118 90109FE5 		ldr	r1, .L24+16
 243 011c 0C0093E5 		ldr	r0, [r3, #12]
 244 0120 FEFFFFEB 		bl	fprintf
 245              	.LVL36:
 246              		.loc 1 118 0
 247 0124 0000E0E3 		mvn	r0, #0
 248 0128 7080BDE8 		pop	{r4, r5, r6, pc}
 249              	.LVL37:
 250              	.L23:
 251              		.loc 1 130 0
 252 012c 78309FE5 		ldr	r3, .L24+12
 253 0130 0620A0E1 		mov	r2, r6
 254 0134 003093E5 		ldr	r3, [r3]
 255 0138 74109FE5 		ldr	r1, .L24+20
 256 013c 0C0093E5 		ldr	r0, [r3, #12]
 257 0140 FEFFFFEB 		bl	fprintf
 258              	.LVL38:
 259              		.loc 1 131 0
 260 0144 0000E0E3 		mvn	r0, #0
 261 0148 7080BDE8 		pop	{r4, r5, r6, pc}
 262              	.LVL39:
 263              	.L20:
 264              		.loc 1 94 0
 265 014c 58309FE5 		ldr	r3, .L24+12
 266 0150 0520A0E1 		mov	r2, r5
 267 0154 003093E5 		ldr	r3, [r3]
 268 0158 58109FE5 		ldr	r1, .L24+24
 269 015c 0C0093E5 		ldr	r0, [r3, #12]
 270              	.LVL40:
 271 0160 FEFFFFEB 		bl	fprintf
 272              	.LVL41:
 273              		.loc 1 95 0
 274 0164 0000E0E3 		mvn	r0, #0
 275 0168 7080BDE8 		pop	{r4, r5, r6, pc}
 276              	.LVL42:
 277              	.L17:
 278              		.loc 1 76 0
 279 016c 48009FE5 		ldr	r0, .L24+28
 280              	.LVL43:
 281 0170 FEFFFFEB 		bl	puts
 282              	.LVL44:
 283              		.loc 1 77 0
 284 0174 0000E0E3 		mvn	r0, #0
 285 0178 7080BDE8 		pop	{r4, r5, r6, pc}
ARM GAS  /var/folders/3j/4xdnk5197cv_b7cw3n33qk7r0000gn/T//ccZnsgjt.s 			page 6


 286              	.LVL45:
 287              	.L21:
 288              		.loc 1 110 0
 289 017c 28309FE5 		ldr	r3, .L24+12
 290 0180 1920A0E3 		mov	r2, #25
 291 0184 003093E5 		ldr	r3, [r3]
 292 0188 0110A0E3 		mov	r1, #1
 293 018c 0C3093E5 		ldr	r3, [r3, #12]
 294 0190 28009FE5 		ldr	r0, .L24+32
 295              	.LVL46:
 296 0194 FEFFFFEB 		bl	fwrite
 297              	.LVL47:
 298              		.loc 1 111 0
 299 0198 0000E0E3 		mvn	r0, #0
 300 019c 7080BDE8 		pop	{r4, r5, r6, pc}
 301              	.L25:
 302              		.align	2
 303              	.L24:
 304 01a0 3C000000 		.word	.LC1
 305 01a4 55AA0000 		.word	43605
 306 01a8 DC000000 		.word	.LC6
 307 01ac 00000000 		.word	_impure_ptr
 308 01b0 84000000 		.word	.LC4
 309 01b4 B0000000 		.word	.LC5
 310 01b8 40000000 		.word	.LC2
 311 01bc 00000000 		.word	.LC0
 312 01c0 68000000 		.word	.LC3
 313              		.cfi_endproc
 314              	.LFE21:
 315              		.size	main, .-main
 316              		.section	.rodata.main.str1.4,"aMS",%progbits,1
 317              		.align	2
 318              	.LC0:
 319 0000 55736167 		.ascii	"Usage:\012         A2DAdress  [Current Address]  [N"
 319      653A0A20 
 319      20202020 
 319      20202020 
 319      41324441 
 320 0030 65772041 		.ascii	"ew Address]\000"
 320      64647265 
 320      73735D00 
 321              	.LC1:
 322 003c 307800   		.ascii	"0x\000"
 323 003f 00       		.space	1
 324              	.LC2:
 325 0040 43757272 		.ascii	"Current I2C Address=%X is  invalid!\012\000"
 325      656E7420 
 325      49324320 
 325      41646472 
 325      6573733D 
 326 0065 000000   		.space	3
 327              	.LC3:
 328 0068 556E6162 		.ascii	"Unable to open I2C smbus\012\000"
 328      6C652074 
 328      6F206F70 
 328      656E2049 
 328      32432073 
ARM GAS  /var/folders/3j/4xdnk5197cv_b7cw3n33qk7r0000gn/T//ccZnsgjt.s 			page 7


 329 0082 0000     		.space	2
 330              	.LC4:
 331 0084 536C6176 		.ascii	"Slave device bot found at  %02X is invalid\000"
 331      65206465 
 331      76696365 
 331      20626F74 
 331      20666F75 
 332 00af 00       		.space	1
 333              	.LC5:
 334 00b0 556E6162 		.ascii	"Unable to find new slave Address at %02X\000"
 334      6C652074 
 334      6F206669 
 334      6E64206E 
 334      65772073 
 335 00d9 000000   		.space	3
 336              	.LC6:
 337 00dc 20446576 		.ascii	" Device at %X is now at %X\012\000"
 337      69636520 
 337      61742025 
 337      58206973 
 337      206E6F77 
 338              		.text
 339              	.Letext0:
 340              		.file 2 "/usr/local/Cellar/gcc-arm-none-eabi/20180627/arm-none-eabi/include/sys/lock.h"
 341              		.file 3 "/usr/local/Cellar/gcc-arm-none-eabi/20180627/arm-none-eabi/include/sys/_types.h"
 342              		.file 4 "/usr/local/Cellar/gcc-arm-none-eabi/20180627/lib/gcc/arm-none-eabi/7.3.1/include/stddef.h
 343              		.file 5 "/usr/local/Cellar/gcc-arm-none-eabi/20180627/arm-none-eabi/include/sys/reent.h"
 344              		.file 6 "/usr/local/Cellar/gcc-arm-none-eabi/20180627/arm-none-eabi/include/sys/unistd.h"
 345              		.file 7 "/usr/local/Cellar/gcc-arm-none-eabi/20180627/arm-none-eabi/include/time.h"
 346              		.file 8 "/usr/local/Cellar/gcc-arm-none-eabi/20180627/arm-none-eabi/include/math.h"
 347              		.file 9 "..//A2D_PIC_RPI/inc/I2CWrapper.h"
 348              		.file 10 "/usr/local/Cellar/gcc-arm-none-eabi/20180627/arm-none-eabi/include/string.h"
 349              		.file 11 "/usr/local/Cellar/gcc-arm-none-eabi/20180627/arm-none-eabi/include/stdio.h"
 350              		.file 12 "<built-in>"