ARM GAS  /var/folders/3j/4xdnk5197cv_b7cw3n33qk7r0000gn/T//ccZnsgjt.s 			page 1


   1              		.cpu arm1176jz-s
   2              		.eabi_attribute 20, 1
   3              		.eabi_attribute 21, 1
   4              		.eabi_attribute 23, 3
   5              		.eabi_attribute 24, 1
   6              		.eabi_attribute 25, 1
   7              		.eabi_attribute 26, 1
   8              		.eabi_attribute 30, 2
   9              		.eabi_attribute 34, 1
  10              		.eabi_attribute 18, 4
  11              		.file	"A2DAddress.c"
  12              		.text
  13              	.Ltext0:
  14              		.cfi_sections	.debug_frame
  15              		.section	.text.ValidateAddress,"ax",%progbits
  16              		.align	2
  17              		.global	ValidateAddress
  18              		.syntax unified
  19              		.arm
  20              		.fpu softvfp
  21              		.type	ValidateAddress, %function
  22              	ValidateAddress:
  23              	.LFB19:
  24              		.file 1 "..//A2D_PIC_RPI/src/A2DAddress.c"
  25              		.loc 1 47 0
  26              		.cfi_startproc
  27              		@ args = 0, pretend = 0, frame = 0
  28              		@ frame_needed = 0, uses_anonymous_args = 0
  29              		@ link register save eliminated.
  30              	.LVL0:
  31              		.loc 1 49 0
  32 0000 030040E2 		sub	r0, r0, #3
  33              	.LVL1:
  34              		.loc 1 51 0
  35 0004 740050E3 		cmp	r0, #116
  36 0008 0000A083 		movhi	r0, #0
  37              	.LVL2:
  38 000c 0100A093 		movls	r0, #1
  39 0010 1EFF2FE1 		bx	lr
  40              		.cfi_endproc
  41              	.LFE19:
  42              		.size	ValidateAddress, .-ValidateAddress
  43              		.section	.text.ValidateDevice,"ax",%progbits
  44              		.align	2
  45              		.global	ValidateDevice
  46              		.syntax unified
  47              		.arm
  48              		.fpu softvfp
  49              		.type	ValidateDevice, %function
  50              	ValidateDevice:
  51              	.LFB20:
  52              		.loc 1 55 0
  53              		.cfi_startproc
  54              		@ args = 0, pretend = 0, frame = 0
  55              		@ frame_needed = 0, uses_anonymous_args = 0
  56              	.LVL3:
  57 0000 10402DE9 		push	{r4, lr}
ARM GAS  /var/folders/3j/4xdnk5197cv_b7cw3n33qk7r0000gn/T//ccZnsgjt.s 			page 2


  58              		.cfi_def_cfa_offset 8
  59              		.cfi_offset 4, -8
  60              		.cfi_offset 14, -4
  61              		.loc 1 58 0
  62 0004 0710A0E3 		mov	r1, #7
  63 0008 FEFFFFEB 		bl	I2CWrapperReadByte
  64              	.LVL4:
  65              		.loc 1 60 0
  66 000c E70040E2 		sub	r0, r0, #231
  67 0010 100F6FE1 		clz	r0, r0
  68 0014 A002A0E1 		lsr	r0, r0, #5
  69 0018 1080BDE8 		pop	{r4, pc}
  70              		.cfi_endproc
  71              	.LFE20:
  72              		.size	ValidateDevice, .-ValidateDevice
  73              		.section	.text.startup.main,"ax",%progbits
  74              		.align	2
  75              		.global	main
  76              		.syntax unified
  77              		.arm
  78              		.fpu softvfp
  79              		.type	main, %function
  80              	main:
  81              	.LFB21:
  82              		.loc 1 64 0
  83              		.cfi_startproc
  84              		@ args = 0, pretend = 0, frame = 0
  85              		@ frame_needed = 0, uses_anonymous_args = 0
  86              	.LVL5:
  87              		.loc 1 73 0
  88 0000 030050E3 		cmp	r0, #3
  89              		.loc 1 64 0
  90 0004 70402DE9 		push	{r4, r5, r6, lr}
  91              		.cfi_def_cfa_offset 16
  92              		.cfi_offset 4, -16
  93              		.cfi_offset 5, -12
  94              		.cfi_offset 6, -8
  95              		.cfi_offset 14, -4
  96              		.loc 1 73 0
  97 0008 5700001A 		bne	.L17
  98              		.loc 1 81 0
  99 000c 045091E5 		ldr	r5, [r1, #4]
 100 0010 0140A0E1 		mov	r4, r1
 101 0014 0500A0E1 		mov	r0, r5
 102              	.LVL6:
 103 0018 80119FE5 		ldr	r1, .L24
 104              	.LVL7:
 105 001c FEFFFFEB 		bl	strstr
 106              	.LVL8:
 107 0020 000050E3 		cmp	r0, #0
 108              	.LBB14:
 109              		.loc 1 82 0
 110 0024 0500A0E1 		mov	r0, r5
 111              	.LBE14:
 112              		.loc 1 81 0
 113 0028 3100000A 		beq	.L18
 114              	.LBB15:
ARM GAS  /var/folders/3j/4xdnk5197cv_b7cw3n33qk7r0000gn/T//ccZnsgjt.s 			page 3


 115              		.loc 1 84 0
 116 002c 1020A0E3 		mov	r2, #16
 117 0030 0010A0E3 		mov	r1, #0
 118 0034 FEFFFFEB 		bl	strtoul
 119              	.LVL9:
 120 0038 0050A0E1 		mov	r5, r0
 121              	.LVL10:
 122              	.L9:
 123              	.LBE15:
 124              		.loc 1 86 0
 125 003c 5C119FE5 		ldr	r1, .L24
 126 0040 040094E5 		ldr	r0, [r4, #4]
 127              	.LVL11:
 128 0044 FEFFFFEB 		bl	strstr
 129              	.LVL12:
 130 0048 000050E3 		cmp	r0, #0
 131 004c 080094E5 		ldr	r0, [r4, #8]
 132 0050 2A00000A 		beq	.L19
 133              	.LBB16:
 134              		.loc 1 89 0
 135 0054 1020A0E3 		mov	r2, #16
 136 0058 0010A0E3 		mov	r1, #0
 137 005c FEFFFFEB 		bl	strtoul
 138              	.LVL13:
 139 0060 0060A0E1 		mov	r6, r0
 140              	.LVL14:
 141              	.L11:
 142              	.LBE16:
 143              	.LBB17:
 144              	.LBB18:
 145              		.loc 1 49 0
 146 0064 033045E2 		sub	r3, r5, #3
 147 0068 740053E3 		cmp	r3, #116
 148 006c 3600008A 		bhi	.L20
 149              	.LVL15:
 150              	.LBE18:
 151              	.LBE17:
 152              		.loc 1 106 0
 153 0070 0510A0E1 		mov	r1, r5
 154 0074 0100A0E3 		mov	r0, #1
 155              	.LVL16:
 156 0078 FEFFFFEB 		bl	I2CWrapperOpen
 157              	.LVL17:
 158              		.loc 1 108 0
 159 007c 004050E2 		subs	r4, r0, #0
 160              	.LVL18:
 161 0080 3D0000BA 		blt	.L21
 162              	.LVL19:
 163              	.LBB19:
 164              	.LBB20:
 165              		.loc 1 58 0
 166 0084 0710A0E3 		mov	r1, #7
 167 0088 FEFFFFEB 		bl	I2CWrapperReadByte
 168              	.LVL20:
 169 008c E70050E3 		cmp	r0, #231
 170 0090 1D00001A 		bne	.L22
 171              	.LVL21:
ARM GAS  /var/folders/3j/4xdnk5197cv_b7cw3n33qk7r0000gn/T//ccZnsgjt.s 			page 4


 172              	.LBE20:
 173              	.LBE19:
 174              		.loc 1 122 0
 175 0094 7620EFE6 		uxtb	r2, r6
 176 0098 0510A0E3 		mov	r1, #5
 177 009c 0400A0E1 		mov	r0, r4
 178 00a0 FEFFFFEB 		bl	I2CWrapperWriteByte
 179              	.LVL22:
 180 00a4 F8209FE5 		ldr	r2, .L24+4
 181 00a8 0910A0E3 		mov	r1, #9
 182 00ac 0400A0E1 		mov	r0, r4
 183 00b0 FEFFFFEB 		bl	I2CWrapperWriteWord
 184              	.LVL23:
 185              		.loc 1 124 0
 186 00b4 0100A0E3 		mov	r0, #1
 187 00b8 FEFFFFEB 		bl	sleep
 188              	.LVL24:
 189              		.loc 1 126 0
 190 00bc 0610A0E1 		mov	r1, r6
 191 00c0 0400A0E1 		mov	r0, r4
 192 00c4 FEFFFFEB 		bl	I2CWrapperSlaveAddress
 193              	.LVL25:
 194              	.LBB21:
 195              	.LBB22:
 196              		.loc 1 58 0
 197 00c8 0400A0E1 		mov	r0, r4
 198 00cc 0710A0E3 		mov	r1, #7
 199 00d0 FEFFFFEB 		bl	I2CWrapperReadByte
 200              	.LVL26:
 201 00d4 E70050E3 		cmp	r0, #231
 202 00d8 1300001A 		bne	.L23
 203              	.LVL27:
 204              	.LBE22:
 205              	.LBE21:
 206              		.loc 1 134 0
 207 00dc 0620A0E1 		mov	r2, r6
 208 00e0 0510A0E1 		mov	r1, r5
 209 00e4 BC009FE5 		ldr	r0, .L24+8
 210 00e8 FEFFFFEB 		bl	printf
 211              	.LVL28:
 212              		.loc 1 136 0
 213 00ec 0000A0E3 		mov	r0, #0
 214              		.loc 1 137 0
 215 00f0 7080BDE8 		pop	{r4, r5, r6, pc}
 216              	.LVL29:
 217              	.L18:
 218              	.LBB23:
 219              		.loc 1 82 0
 220 00f4 FEFFFFEB 		bl	atoi
 221              	.LVL30:
 222 00f8 0050A0E1 		mov	r5, r0
 223              	.LVL31:
 224              	.LBE23:
 225 00fc CEFFFFEA 		b	.L9
 226              	.LVL32:
 227              	.L19:
 228              	.LBB24:
ARM GAS  /var/folders/3j/4xdnk5197cv_b7cw3n33qk7r0000gn/T//ccZnsgjt.s 			page 5


 229              		.loc 1 87 0
 230 0100 FEFFFFEB 		bl	atoi
 231              	.LVL33:
 232 0104 0060A0E1 		mov	r6, r0
 233              	.LVL34:
 234              	.LBE24:
 235 0108 D5FFFFEA 		b	.L11
 236              	.LVL35:
 237              	.L22:
 238              		.loc 1 117 0
 239 010c 98309FE5 		ldr	r3, .L24+12
 240 0110 0520A0E1 		mov	r2, r5
 241 0114 003093E5 		ldr	r3, [r3]
 242 0118 90109FE5 		ldr	r1, .L24+16
 243 011c 0C0093E5 		ldr	r0, [r3, #12]
 244 0120 FEFFFFEB 		bl	fprintf
 245              	.LVL36:
 246              		.loc 1 118 0
 247 0124 0000E0E3 		mvn	r0, #0
 248 0128 7080BDE8 		pop	{r4, r5, r6, pc}
 249              	.LVL37:
 250              	.L23:
 251              		.loc 1 130 0
 252 012c 78309FE5 		ldr	r3, .L24+12
 253 0130 0620A0E1 		mov	r2, r6
 254 0134 003093E5 		ldr	r3, [r3]
 255 0138 74109FE5 		ldr	r1, .L24+20
 256 013c 0C0093E5 		ldr	r0, [r3, #12]
 257 0140 FEFFFFEB 		bl	fprintf
 258              	.LVL38:
 259              		.loc 1 131 0
 260 0144 0000E0E3 		mvn	r0, #0
 261 0148 7080BDE8 		pop	{r4, r5, r6, pc}
 262              	.LVL39:
 263              	.L20:
 264              		.loc 1 94 0
 265 014c 58309FE5 		ldr	r3, .L24+12
 266 0150 0520A0E1 		mov	r2, r5
 267 0154 003093E5 		ldr	r3, [r3]
 268 0158 58109FE5 		ldr	r1, .L24+24
 269 015c 0C0093E5 		ldr	r0, [r3, #12]
 270              	.LVL40:
 271 0160 FEFFFFEB 		bl	fprintf
 272              	.LVL41:
 273              		.loc 1 95 0
 274 0164 0000E0E3 		mvn	r0, #0
 275 0168 7080BDE8 		pop	{r4, r5, r6, pc}
 276              	.LVL42:
 277              	.L17:
 278              		.loc 1 76 0
 279 016c 48009FE5 		ldr	r0, .L24+28
 280              	.LVL43:
 281 0170 FEFFFFEB 		bl	puts
 282              	.LVL44:
 283              		.loc 1 77 0
 284 0174 0000E0E3 		mvn	r0, #0
 285 0178 7080BDE8 		pop	{r4, r5, r6, pc}
ARM GAS  /var/folders/3j/4xdnk5197cv_b7cw3n33qk7r0000gn/T//ccZnsgjt.s 			page 6


 286              	.LVL45:
 287              	.L21:
 288              		.loc 1 110 0
 289 017c 28309FE5 		ldr	r3, .L24+12
 290 0180 1920A0E3 		mov	r2, #25
 291 0184 003093E5 		ldr	r3, [r3]
 292 0188 0110A0E3 		mov	r1, #1
 293 018c 0C3093E5 		ldr	r3, [r3, #12]
 294 0190 28009FE5 		ldr	r0, .L24+32
 295              	.LVL46:
 296 0194 FEFFFFEB 		bl	fwrite
 297              	.LVL47:
 298              		.loc 1 111 0
 299 0198 0000E0E3 		mvn	r0, #0
 300 019c 7080BDE8 		pop	{r4, r5, r6, pc}
 301              	.L25:
 302              		.align	2
 303              	.L24:
 304 01a0 3C000000 		.word	.LC1
 305 01a4 55AA0000 		.word	43605
 306 01a8 DC000000 		.word	.LC6
 307 01ac 00000000 		.word	_impure_ptr
 308 01b0 84000000 		.word	.LC4
 309 01b4 B0000000 		.word	.LC5
 310 01b8 40000000 		.word	.LC2
 311 01bc 00000000 		.word	.LC0
 312 01c0 68000000 		.word	.LC3
 313              		.cfi_endproc
 314              	.LFE21:
 315              		.size	main, .-main
 316              		.section	.rodata.main.str1.4,"aMS",%progbits,1
 317              		.align	2
 318              	.LC0:
 319 0000 55736167 		.ascii	"Usage:\012         A2DAdress  [Current Address]  [N"
 319      653A0A20 
 319      20202020 
 319      20202020 
 319      41324441 
 320 0030 65772041 		.ascii	"ew Address]\000"
 320      64647265 
 320      73735D00 
 321              	.LC1:
 322 003c 307800   		.ascii	"0x\000"
 323 003f 00       		.space	1
 324              	.LC2:
 325 0040 43757272 		.ascii	"Current I2C Address=%X is  invalid!\012\000"
 325      656E7420 
 325      49324320 
 325      41646472 
 325      6573733D 
 326 0065 000000   		.space	3
 327              	.LC3:
 328 0068 556E6162 		.ascii	"Unable to open I2C smbus\012\000"
 328      6C652074 
 328      6F206F70 
 328      656E2049 
 328      32432073 
ARM GAS  /var/folders/3j/4xdnk5197cv_b7cw3n33qk7r0000gn/T//ccZnsgjt.s 			page 7


 329 0082 0000     		.space	2
 330              	.LC4:
 331 0084 536C6176 		.ascii	"Slave device bot found at  %02X is invalid\000"
 331      65206465 
 331      76696365 
 331      20626F74 
 331      20666F75 
 332 00af 00       		.space	1
 333              	.LC5:
 334 00b0 556E6162 		.ascii	"Unable to find new slave Address at %02X\000"
 334      6C652074 
 334      6F206669 
 334      6E64206E 
 334      65772073 
 335 00d9 000000   		.space	3
 336              	.LC6:
 337 00dc 20446576 		.ascii	" Device at %X is now at %X\012\000"
 337      69636520 
 337      61742025 
 337      58206973 
 337      206E6F77 
 338              		.text
 339              	.Letext0:
 340              		.file 2 "/usr/local/Cellar/gcc-arm-none-eabi/20180627/arm-none-eabi/include/sys/lock.h"
 341              		.file 3 "/usr/local/Cellar/gcc-arm-none-eabi/20180627/arm-none-eabi/include/sys/_types.h"
 342              		.file 4 "/usr/local/Cellar/gcc-arm-none-eabi/20180627/lib/gcc/arm-none-eabi/7.3.1/include/stddef.h
 343              		.file 5 "/usr/local/Cellar/gcc-arm-none-eabi/20180627/arm-none-eabi/include/sys/reent.h"
 344              		.file 6 "/usr/local/Cellar/gcc-arm-none-eabi/20180627/arm-none-eabi/include/sys/unistd.h"
 345              		.file 7 "/usr/local/Cellar/gcc-arm-none-eabi/20180627/arm-none-eabi/include/time.h"
 346              		.file 8 "/usr/local/Cellar/gcc-arm-none-eabi/20180627/arm-none-eabi/include/math.h"
 347              		.file 9 "..//A2D_PIC_RPI/inc/I2CWrapper.h"
 348              		.file 10 "/usr/local/Cellar/gcc-arm-none-eabi/20180627/arm-none-eabi/include/string.h"
 349              		.file 11 "/usr/local/Cellar/gcc-arm-none-eabi/20180627/arm-none-eabi/include/stdio.h"
 350              		.file 12 "<built-in>"
 351              		.section	.debug_info,"",%progbits
 352              	.Ldebug_info0:
 353 0000 8F0D0000 		.4byte	0xd8f
 354 0004 0400     		.2byte	0x4
 355 0006 00000000 		.4byte	.Ldebug_abbrev0
 356 000a 04       		.byte	0x4
 357 000b 01       		.uleb128 0x1
 358 000c 5D010000 		.4byte	.LASF161
 359 0010 0C       		.byte	0xc
 360 0011 4A000000 		.4byte	.LASF162
 361 0015 72040000 		.4byte	.LASF163
 362 0019 18000000 		.4byte	.Ldebug_ranges0+0x18
 363 001d 00000000 		.4byte	0
 364 0021 00000000 		.4byte	.Ldebug_line0
 365 0025 02       		.uleb128 0x2
 366 0026 01       		.byte	0x1
 367 0027 06       		.byte	0x6
 368 0028 0F010000 		.4byte	.LASF0
 369 002c 02       		.uleb128 0x2
 370 002d 01       		.byte	0x1
 371 002e 08       		.byte	0x8
 372 002f 5F040000 		.4byte	.LASF1
 373 0033 02       		.uleb128 0x2
ARM GAS  /var/folders/3j/4xdnk5197cv_b7cw3n33qk7r0000gn/T//ccZnsgjt.s 			page 8


 374 0034 02       		.byte	0x2
 375 0035 05       		.byte	0x5
 376 0036 C8040000 		.4byte	.LASF2
 377 003a 02       		.uleb128 0x2
 378 003b 02       		.byte	0x2
 379 003c 07       		.byte	0x7
 380 003d 59030000 		.4byte	.LASF3
 381 0041 02       		.uleb128 0x2
 382 0042 04       		.byte	0x4
 383 0043 05       		.byte	0x5
 384 0044 20020000 		.4byte	.LASF4
 385 0048 02       		.uleb128 0x2
 386 0049 04       		.byte	0x4
 387 004a 07       		.byte	0x7
 388 004b 3A030000 		.4byte	.LASF5
 389 004f 02       		.uleb128 0x2
 390 0050 08       		.byte	0x8
 391 0051 05       		.byte	0x5
 392 0052 01010000 		.4byte	.LASF6
 393 0056 02       		.uleb128 0x2
 394 0057 08       		.byte	0x8
 395 0058 07       		.byte	0x7
 396 0059 98000000 		.4byte	.LASF7
 397 005d 03       		.uleb128 0x3
 398 005e 04       		.byte	0x4
 399 005f 05       		.byte	0x5
 400 0060 696E7400 		.ascii	"int\000"
 401 0064 04       		.uleb128 0x4
 402 0065 5D000000 		.4byte	0x5d
 403 0069 02       		.uleb128 0x2
 404 006a 04       		.byte	0x4
 405 006b 07       		.byte	0x7
 406 006c 16030000 		.4byte	.LASF8
 407 0070 02       		.uleb128 0x2
 408 0071 08       		.byte	0x8
 409 0072 04       		.byte	0x4
 410 0073 F5030000 		.4byte	.LASF9
 411 0077 05       		.uleb128 0x5
 412 0078 04       		.byte	0x4
 413 0079 06       		.uleb128 0x6
 414 007a A2030000 		.4byte	.LASF10
 415 007e 02       		.byte	0x2
 416 007f 22       		.byte	0x22
 417 0080 84000000 		.4byte	0x84
 418 0084 07       		.uleb128 0x7
 419 0085 04       		.byte	0x4
 420 0086 8A000000 		.4byte	0x8a
 421 008a 08       		.uleb128 0x8
 422 008b 76050000 		.4byte	.LASF117
 423 008f 06       		.uleb128 0x6
 424 0090 2B040000 		.4byte	.LASF11
 425 0094 03       		.byte	0x3
 426 0095 2C       		.byte	0x2c
 427 0096 41000000 		.4byte	0x41
 428 009a 06       		.uleb128 0x6
 429 009b 97050000 		.4byte	.LASF12
 430 009f 03       		.byte	0x3
ARM GAS  /var/folders/3j/4xdnk5197cv_b7cw3n33qk7r0000gn/T//ccZnsgjt.s 			page 9


 431 00a0 72       		.byte	0x72
 432 00a1 41000000 		.4byte	0x41
 433 00a5 09       		.uleb128 0x9
 434 00a6 B2030000 		.4byte	.LASF13
 435 00aa 04       		.byte	0x4
 436 00ab 6501     		.2byte	0x165
 437 00ad 69000000 		.4byte	0x69
 438 00b1 0A       		.uleb128 0xa
 439 00b2 04       		.byte	0x4
 440 00b3 03       		.byte	0x3
 441 00b4 A6       		.byte	0xa6
 442 00b5 D0000000 		.4byte	0xd0
 443 00b9 0B       		.uleb128 0xb
 444 00ba 9C030000 		.4byte	.LASF14
 445 00be 03       		.byte	0x3
 446 00bf A8       		.byte	0xa8
 447 00c0 A5000000 		.4byte	0xa5
 448 00c4 0B       		.uleb128 0xb
 449 00c5 23030000 		.4byte	.LASF15
 450 00c9 03       		.byte	0x3
 451 00ca A9       		.byte	0xa9
 452 00cb D0000000 		.4byte	0xd0
 453 00cf 00       		.byte	0
 454 00d0 0C       		.uleb128 0xc
 455 00d1 2C000000 		.4byte	0x2c
 456 00d5 E0000000 		.4byte	0xe0
 457 00d9 0D       		.uleb128 0xd
 458 00da 69000000 		.4byte	0x69
 459 00de 03       		.byte	0x3
 460 00df 00       		.byte	0
 461 00e0 0E       		.uleb128 0xe
 462 00e1 08       		.byte	0x8
 463 00e2 03       		.byte	0x3
 464 00e3 A3       		.byte	0xa3
 465 00e4 01010000 		.4byte	0x101
 466 00e8 0F       		.uleb128 0xf
 467 00e9 6E050000 		.4byte	.LASF16
 468 00ed 03       		.byte	0x3
 469 00ee A5       		.byte	0xa5
 470 00ef 5D000000 		.4byte	0x5d
 471 00f3 00       		.byte	0
 472 00f4 0F       		.uleb128 0xf
 473 00f5 7D050000 		.4byte	.LASF17
 474 00f9 03       		.byte	0x3
 475 00fa AA       		.byte	0xaa
 476 00fb B1000000 		.4byte	0xb1
 477 00ff 04       		.byte	0x4
 478 0100 00       		.byte	0
 479 0101 06       		.uleb128 0x6
 480 0102 F0040000 		.4byte	.LASF18
 481 0106 03       		.byte	0x3
 482 0107 AB       		.byte	0xab
 483 0108 E0000000 		.4byte	0xe0
 484 010c 06       		.uleb128 0x6
 485 010d D9020000 		.4byte	.LASF19
 486 0111 03       		.byte	0x3
 487 0112 AF       		.byte	0xaf
ARM GAS  /var/folders/3j/4xdnk5197cv_b7cw3n33qk7r0000gn/T//ccZnsgjt.s 			page 10


 488 0113 79000000 		.4byte	0x79
 489 0117 06       		.uleb128 0x6
 490 0118 0E060000 		.4byte	.LASF20
 491 011c 05       		.byte	0x5
 492 011d 16       		.byte	0x16
 493 011e 48000000 		.4byte	0x48
 494 0122 10       		.uleb128 0x10
 495 0123 EA020000 		.4byte	.LASF25
 496 0127 18       		.byte	0x18
 497 0128 05       		.byte	0x5
 498 0129 2F       		.byte	0x2f
 499 012a 75010000 		.4byte	0x175
 500 012e 0F       		.uleb128 0xf
 501 012f DE050000 		.4byte	.LASF21
 502 0133 05       		.byte	0x5
 503 0134 31       		.byte	0x31
 504 0135 75010000 		.4byte	0x175
 505 0139 00       		.byte	0
 506 013a 11       		.uleb128 0x11
 507 013b 5F6B00   		.ascii	"_k\000"
 508 013e 05       		.byte	0x5
 509 013f 32       		.byte	0x32
 510 0140 5D000000 		.4byte	0x5d
 511 0144 04       		.byte	0x4
 512 0145 0F       		.uleb128 0xf
 513 0146 59050000 		.4byte	.LASF22
 514 014a 05       		.byte	0x5
 515 014b 32       		.byte	0x32
 516 014c 5D000000 		.4byte	0x5d
 517 0150 08       		.byte	0x8
 518 0151 0F       		.uleb128 0xf
 519 0152 D3020000 		.4byte	.LASF23
 520 0156 05       		.byte	0x5
 521 0157 32       		.byte	0x32
 522 0158 5D000000 		.4byte	0x5d
 523 015c 0C       		.byte	0xc
 524 015d 0F       		.uleb128 0xf
 525 015e 89060000 		.4byte	.LASF24
 526 0162 05       		.byte	0x5
 527 0163 32       		.byte	0x32
 528 0164 5D000000 		.4byte	0x5d
 529 0168 10       		.byte	0x10
 530 0169 11       		.uleb128 0x11
 531 016a 5F7800   		.ascii	"_x\000"
 532 016d 05       		.byte	0x5
 533 016e 33       		.byte	0x33
 534 016f 7B010000 		.4byte	0x17b
 535 0173 14       		.byte	0x14
 536 0174 00       		.byte	0
 537 0175 07       		.uleb128 0x7
 538 0176 04       		.byte	0x4
 539 0177 22010000 		.4byte	0x122
 540 017b 0C       		.uleb128 0xc
 541 017c 17010000 		.4byte	0x117
 542 0180 8B010000 		.4byte	0x18b
 543 0184 0D       		.uleb128 0xd
 544 0185 69000000 		.4byte	0x69
ARM GAS  /var/folders/3j/4xdnk5197cv_b7cw3n33qk7r0000gn/T//ccZnsgjt.s 			page 11


 545 0189 00       		.byte	0
 546 018a 00       		.byte	0
 547 018b 10       		.uleb128 0x10
 548 018c 11030000 		.4byte	.LASF26
 549 0190 24       		.byte	0x24
 550 0191 05       		.byte	0x5
 551 0192 37       		.byte	0x37
 552 0193 04020000 		.4byte	0x204
 553 0197 0F       		.uleb128 0xf
 554 0198 F8000000 		.4byte	.LASF27
 555 019c 05       		.byte	0x5
 556 019d 39       		.byte	0x39
 557 019e 5D000000 		.4byte	0x5d
 558 01a2 00       		.byte	0
 559 01a3 0F       		.uleb128 0xf
 560 01a4 B2050000 		.4byte	.LASF28
 561 01a8 05       		.byte	0x5
 562 01a9 3A       		.byte	0x3a
 563 01aa 5D000000 		.4byte	0x5d
 564 01ae 04       		.byte	0x4
 565 01af 0F       		.uleb128 0xf
 566 01b0 40010000 		.4byte	.LASF29
 567 01b4 05       		.byte	0x5
 568 01b5 3B       		.byte	0x3b
 569 01b6 5D000000 		.4byte	0x5d
 570 01ba 08       		.byte	0x8
 571 01bb 0F       		.uleb128 0xf
 572 01bc 57070000 		.4byte	.LASF30
 573 01c0 05       		.byte	0x5
 574 01c1 3C       		.byte	0x3c
 575 01c2 5D000000 		.4byte	0x5d
 576 01c6 0C       		.byte	0xc
 577 01c7 0F       		.uleb128 0xf
 578 01c8 0F040000 		.4byte	.LASF31
 579 01cc 05       		.byte	0x5
 580 01cd 3D       		.byte	0x3d
 581 01ce 5D000000 		.4byte	0x5d
 582 01d2 10       		.byte	0x10
 583 01d3 0F       		.uleb128 0xf
 584 01d4 DF030000 		.4byte	.LASF32
 585 01d8 05       		.byte	0x5
 586 01d9 3E       		.byte	0x3e
 587 01da 5D000000 		.4byte	0x5d
 588 01de 14       		.byte	0x14
 589 01df 0F       		.uleb128 0xf
 590 01e0 8E060000 		.4byte	.LASF33
 591 01e4 05       		.byte	0x5
 592 01e5 3F       		.byte	0x3f
 593 01e6 5D000000 		.4byte	0x5d
 594 01ea 18       		.byte	0x18
 595 01eb 0F       		.uleb128 0xf
 596 01ec D2040000 		.4byte	.LASF34
 597 01f0 05       		.byte	0x5
 598 01f1 40       		.byte	0x40
 599 01f2 5D000000 		.4byte	0x5d
 600 01f6 1C       		.byte	0x1c
 601 01f7 0F       		.uleb128 0xf
ARM GAS  /var/folders/3j/4xdnk5197cv_b7cw3n33qk7r0000gn/T//ccZnsgjt.s 			page 12


 602 01f8 03070000 		.4byte	.LASF35
 603 01fc 05       		.byte	0x5
 604 01fd 41       		.byte	0x41
 605 01fe 5D000000 		.4byte	0x5d
 606 0202 20       		.byte	0x20
 607 0203 00       		.byte	0
 608 0204 12       		.uleb128 0x12
 609 0205 4F010000 		.4byte	.LASF36
 610 0209 0801     		.2byte	0x108
 611 020b 05       		.byte	0x5
 612 020c 4A       		.byte	0x4a
 613 020d 44020000 		.4byte	0x244
 614 0211 0F       		.uleb128 0xf
 615 0212 C6020000 		.4byte	.LASF37
 616 0216 05       		.byte	0x5
 617 0217 4B       		.byte	0x4b
 618 0218 44020000 		.4byte	0x244
 619 021c 00       		.byte	0
 620 021d 0F       		.uleb128 0xf
 621 021e 00000000 		.4byte	.LASF38
 622 0222 05       		.byte	0x5
 623 0223 4C       		.byte	0x4c
 624 0224 44020000 		.4byte	0x244
 625 0228 80       		.byte	0x80
 626 0229 13       		.uleb128 0x13
 627 022a F1050000 		.4byte	.LASF39
 628 022e 05       		.byte	0x5
 629 022f 4E       		.byte	0x4e
 630 0230 17010000 		.4byte	0x117
 631 0234 0001     		.2byte	0x100
 632 0236 13       		.uleb128 0x13
 633 0237 30020000 		.4byte	.LASF40
 634 023b 05       		.byte	0x5
 635 023c 51       		.byte	0x51
 636 023d 17010000 		.4byte	0x117
 637 0241 0401     		.2byte	0x104
 638 0243 00       		.byte	0
 639 0244 0C       		.uleb128 0xc
 640 0245 77000000 		.4byte	0x77
 641 0249 54020000 		.4byte	0x254
 642 024d 0D       		.uleb128 0xd
 643 024e 69000000 		.4byte	0x69
 644 0252 1F       		.byte	0x1f
 645 0253 00       		.byte	0
 646 0254 12       		.uleb128 0x12
 647 0255 18040000 		.4byte	.LASF41
 648 0259 9001     		.2byte	0x190
 649 025b 05       		.byte	0x5
 650 025c 5D       		.byte	0x5d
 651 025d 92020000 		.4byte	0x292
 652 0261 0F       		.uleb128 0xf
 653 0262 DE050000 		.4byte	.LASF21
 654 0266 05       		.byte	0x5
 655 0267 5E       		.byte	0x5e
 656 0268 92020000 		.4byte	0x292
 657 026c 00       		.byte	0
 658 026d 0F       		.uleb128 0xf
ARM GAS  /var/folders/3j/4xdnk5197cv_b7cw3n33qk7r0000gn/T//ccZnsgjt.s 			page 13


 659 026e 29050000 		.4byte	.LASF42
 660 0272 05       		.byte	0x5
 661 0273 5F       		.byte	0x5f
 662 0274 5D000000 		.4byte	0x5d
 663 0278 04       		.byte	0x4
 664 0279 0F       		.uleb128 0xf
 665 027a CE020000 		.4byte	.LASF43
 666 027e 05       		.byte	0x5
 667 027f 61       		.byte	0x61
 668 0280 98020000 		.4byte	0x298
 669 0284 08       		.byte	0x8
 670 0285 0F       		.uleb128 0xf
 671 0286 4F010000 		.4byte	.LASF36
 672 028a 05       		.byte	0x5
 673 028b 62       		.byte	0x62
 674 028c 04020000 		.4byte	0x204
 675 0290 88       		.byte	0x88
 676 0291 00       		.byte	0
 677 0292 07       		.uleb128 0x7
 678 0293 04       		.byte	0x4
 679 0294 54020000 		.4byte	0x254
 680 0298 0C       		.uleb128 0xc
 681 0299 A8020000 		.4byte	0x2a8
 682 029d A8020000 		.4byte	0x2a8
 683 02a1 0D       		.uleb128 0xd
 684 02a2 69000000 		.4byte	0x69
 685 02a6 1F       		.byte	0x1f
 686 02a7 00       		.byte	0
 687 02a8 07       		.uleb128 0x7
 688 02a9 04       		.byte	0x4
 689 02aa AE020000 		.4byte	0x2ae
 690 02ae 14       		.uleb128 0x14
 691 02af 10       		.uleb128 0x10
 692 02b0 DC040000 		.4byte	.LASF44
 693 02b4 08       		.byte	0x8
 694 02b5 05       		.byte	0x5
 695 02b6 75       		.byte	0x75
 696 02b7 D4020000 		.4byte	0x2d4
 697 02bb 0F       		.uleb128 0xf
 698 02bc 3A010000 		.4byte	.LASF45
 699 02c0 05       		.byte	0x5
 700 02c1 76       		.byte	0x76
 701 02c2 D4020000 		.4byte	0x2d4
 702 02c6 00       		.byte	0
 703 02c7 0F       		.uleb128 0xf
 704 02c8 0C000000 		.4byte	.LASF46
 705 02cc 05       		.byte	0x5
 706 02cd 77       		.byte	0x77
 707 02ce 5D000000 		.4byte	0x5d
 708 02d2 04       		.byte	0x4
 709 02d3 00       		.byte	0
 710 02d4 07       		.uleb128 0x7
 711 02d5 04       		.byte	0x4
 712 02d6 2C000000 		.4byte	0x2c
 713 02da 10       		.uleb128 0x10
 714 02db FB040000 		.4byte	.LASF47
 715 02df 68       		.byte	0x68
ARM GAS  /var/folders/3j/4xdnk5197cv_b7cw3n33qk7r0000gn/T//ccZnsgjt.s 			page 14


 716 02e0 05       		.byte	0x5
 717 02e1 B5       		.byte	0xb5
 718 02e2 04040000 		.4byte	0x404
 719 02e6 11       		.uleb128 0x11
 720 02e7 5F7000   		.ascii	"_p\000"
 721 02ea 05       		.byte	0x5
 722 02eb B6       		.byte	0xb6
 723 02ec D4020000 		.4byte	0x2d4
 724 02f0 00       		.byte	0
 725 02f1 11       		.uleb128 0x11
 726 02f2 5F7200   		.ascii	"_r\000"
 727 02f5 05       		.byte	0x5
 728 02f6 B7       		.byte	0xb7
 729 02f7 5D000000 		.4byte	0x5d
 730 02fb 04       		.byte	0x4
 731 02fc 11       		.uleb128 0x11
 732 02fd 5F7700   		.ascii	"_w\000"
 733 0300 05       		.byte	0x5
 734 0301 B8       		.byte	0xb8
 735 0302 5D000000 		.4byte	0x5d
 736 0306 08       		.byte	0x8
 737 0307 0F       		.uleb128 0xf
 738 0308 29020000 		.4byte	.LASF48
 739 030c 05       		.byte	0x5
 740 030d B9       		.byte	0xb9
 741 030e 33000000 		.4byte	0x33
 742 0312 0C       		.byte	0xc
 743 0313 0F       		.uleb128 0xf
 744 0314 4C030000 		.4byte	.LASF49
 745 0318 05       		.byte	0x5
 746 0319 BA       		.byte	0xba
 747 031a 33000000 		.4byte	0x33
 748 031e 0E       		.byte	0xe
 749 031f 11       		.uleb128 0x11
 750 0320 5F626600 		.ascii	"_bf\000"
 751 0324 05       		.byte	0x5
 752 0325 BB       		.byte	0xbb
 753 0326 AF020000 		.4byte	0x2af
 754 032a 10       		.byte	0x10
 755 032b 0F       		.uleb128 0xf
 756 032c BE000000 		.4byte	.LASF50
 757 0330 05       		.byte	0x5
 758 0331 BC       		.byte	0xbc
 759 0332 5D000000 		.4byte	0x5d
 760 0336 18       		.byte	0x18
 761 0337 0F       		.uleb128 0xf
 762 0338 10020000 		.4byte	.LASF51
 763 033c 05       		.byte	0x5
 764 033d C3       		.byte	0xc3
 765 033e 77000000 		.4byte	0x77
 766 0342 1C       		.byte	0x1c
 767 0343 0F       		.uleb128 0xf
 768 0344 01030000 		.4byte	.LASF52
 769 0348 05       		.byte	0x5
 770 0349 C5       		.byte	0xc5
 771 034a 71050000 		.4byte	0x571
 772 034e 20       		.byte	0x20
ARM GAS  /var/folders/3j/4xdnk5197cv_b7cw3n33qk7r0000gn/T//ccZnsgjt.s 			page 15


 773 034f 0F       		.uleb128 0xf
 774 0350 D8030000 		.4byte	.LASF53
 775 0354 05       		.byte	0x5
 776 0355 C7       		.byte	0xc7
 777 0356 9B050000 		.4byte	0x59b
 778 035a 24       		.byte	0x24
 779 035b 0F       		.uleb128 0xf
 780 035c 85050000 		.4byte	.LASF54
 781 0360 05       		.byte	0x5
 782 0361 CA       		.byte	0xca
 783 0362 BF050000 		.4byte	0x5bf
 784 0366 28       		.byte	0x28
 785 0367 0F       		.uleb128 0xf
 786 0368 1D070000 		.4byte	.LASF55
 787 036c 05       		.byte	0x5
 788 036d CB       		.byte	0xcb
 789 036e D9050000 		.4byte	0x5d9
 790 0372 2C       		.byte	0x2c
 791 0373 11       		.uleb128 0x11
 792 0374 5F756200 		.ascii	"_ub\000"
 793 0378 05       		.byte	0x5
 794 0379 CE       		.byte	0xce
 795 037a AF020000 		.4byte	0x2af
 796 037e 30       		.byte	0x30
 797 037f 11       		.uleb128 0x11
 798 0380 5F757000 		.ascii	"_up\000"
 799 0384 05       		.byte	0x5
 800 0385 CF       		.byte	0xcf
 801 0386 D4020000 		.4byte	0x2d4
 802 038a 38       		.byte	0x38
 803 038b 11       		.uleb128 0x11
 804 038c 5F757200 		.ascii	"_ur\000"
 805 0390 05       		.byte	0x5
 806 0391 D0       		.byte	0xd0
 807 0392 5D000000 		.4byte	0x5d
 808 0396 3C       		.byte	0x3c
 809 0397 0F       		.uleb128 0xf
 810 0398 2C010000 		.4byte	.LASF56
 811 039c 05       		.byte	0x5
 812 039d D3       		.byte	0xd3
 813 039e DF050000 		.4byte	0x5df
 814 03a2 40       		.byte	0x40
 815 03a3 0F       		.uleb128 0xf
 816 03a4 E9060000 		.4byte	.LASF57
 817 03a8 05       		.byte	0x5
 818 03a9 D4       		.byte	0xd4
 819 03aa EF050000 		.4byte	0x5ef
 820 03ae 43       		.byte	0x43
 821 03af 11       		.uleb128 0x11
 822 03b0 5F6C6200 		.ascii	"_lb\000"
 823 03b4 05       		.byte	0x5
 824 03b5 D7       		.byte	0xd7
 825 03b6 AF020000 		.4byte	0x2af
 826 03ba 44       		.byte	0x44
 827 03bb 0F       		.uleb128 0xf
 828 03bc 5C020000 		.4byte	.LASF58
 829 03c0 05       		.byte	0x5
ARM GAS  /var/folders/3j/4xdnk5197cv_b7cw3n33qk7r0000gn/T//ccZnsgjt.s 			page 16


 830 03c1 DA       		.byte	0xda
 831 03c2 5D000000 		.4byte	0x5d
 832 03c6 4C       		.byte	0x4c
 833 03c7 0F       		.uleb128 0xf
 834 03c8 8B020000 		.4byte	.LASF59
 835 03cc 05       		.byte	0x5
 836 03cd DB       		.byte	0xdb
 837 03ce 8F000000 		.4byte	0x8f
 838 03d2 50       		.byte	0x50
 839 03d3 0F       		.uleb128 0xf
 840 03d4 6B000000 		.4byte	.LASF60
 841 03d8 05       		.byte	0x5
 842 03d9 DE       		.byte	0xde
 843 03da 22040000 		.4byte	0x422
 844 03de 54       		.byte	0x54
 845 03df 0F       		.uleb128 0xf
 846 03e0 B9030000 		.4byte	.LASF61
 847 03e4 05       		.byte	0x5
 848 03e5 E2       		.byte	0xe2
 849 03e6 0C010000 		.4byte	0x10c
 850 03ea 58       		.byte	0x58
 851 03eb 0F       		.uleb128 0xf
 852 03ec 03050000 		.4byte	.LASF62
 853 03f0 05       		.byte	0x5
 854 03f1 E4       		.byte	0xe4
 855 03f2 01010000 		.4byte	0x101
 856 03f6 5C       		.byte	0x5c
 857 03f7 0F       		.uleb128 0xf
 858 03f8 C7030000 		.4byte	.LASF63
 859 03fc 05       		.byte	0x5
 860 03fd E5       		.byte	0xe5
 861 03fe 5D000000 		.4byte	0x5d
 862 0402 64       		.byte	0x64
 863 0403 00       		.byte	0
 864 0404 15       		.uleb128 0x15
 865 0405 5D000000 		.4byte	0x5d
 866 0409 22040000 		.4byte	0x422
 867 040d 16       		.uleb128 0x16
 868 040e 22040000 		.4byte	0x422
 869 0412 16       		.uleb128 0x16
 870 0413 77000000 		.4byte	0x77
 871 0417 16       		.uleb128 0x16
 872 0418 5F050000 		.4byte	0x55f
 873 041c 16       		.uleb128 0x16
 874 041d 5D000000 		.4byte	0x5d
 875 0421 00       		.byte	0
 876 0422 07       		.uleb128 0x7
 877 0423 04       		.byte	0x4
 878 0424 2D040000 		.4byte	0x42d
 879 0428 04       		.uleb128 0x4
 880 0429 22040000 		.4byte	0x422
 881 042d 17       		.uleb128 0x17
 882 042e 61050000 		.4byte	.LASF64
 883 0432 2804     		.2byte	0x428
 884 0434 05       		.byte	0x5
 885 0435 6002     		.2byte	0x260
 886 0437 5F050000 		.4byte	0x55f
ARM GAS  /var/folders/3j/4xdnk5197cv_b7cw3n33qk7r0000gn/T//ccZnsgjt.s 			page 17


 887 043b 18       		.uleb128 0x18
 888 043c A6050000 		.4byte	.LASF65
 889 0440 05       		.byte	0x5
 890 0441 6202     		.2byte	0x262
 891 0443 5D000000 		.4byte	0x5d
 892 0447 00       		.byte	0
 893 0448 18       		.uleb128 0x18
 894 0449 38020000 		.4byte	.LASF66
 895 044d 05       		.byte	0x5
 896 044e 6702     		.2byte	0x267
 897 0450 46060000 		.4byte	0x646
 898 0454 04       		.byte	0x4
 899 0455 18       		.uleb128 0x18
 900 0456 2A030000 		.4byte	.LASF67
 901 045a 05       		.byte	0x5
 902 045b 6702     		.2byte	0x267
 903 045d 46060000 		.4byte	0x646
 904 0461 08       		.byte	0x8
 905 0462 18       		.uleb128 0x18
 906 0463 E2020000 		.4byte	.LASF68
 907 0467 05       		.byte	0x5
 908 0468 6702     		.2byte	0x267
 909 046a 46060000 		.4byte	0x646
 910 046e 0C       		.byte	0xc
 911 046f 18       		.uleb128 0x18
 912 0470 24050000 		.4byte	.LASF69
 913 0474 05       		.byte	0x5
 914 0475 6902     		.2byte	0x269
 915 0477 5D000000 		.4byte	0x5d
 916 047b 10       		.byte	0x10
 917 047c 18       		.uleb128 0x18
 918 047d 2E000000 		.4byte	.LASF70
 919 0481 05       		.byte	0x5
 920 0482 6A02     		.2byte	0x26a
 921 0484 28080000 		.4byte	0x828
 922 0488 14       		.byte	0x14
 923 0489 18       		.uleb128 0x18
 924 048a 40050000 		.4byte	.LASF71
 925 048e 05       		.byte	0x5
 926 048f 6D02     		.2byte	0x26d
 927 0491 5D000000 		.4byte	0x5d
 928 0495 30       		.byte	0x30
 929 0496 18       		.uleb128 0x18
 930 0497 2E050000 		.4byte	.LASF72
 931 049b 05       		.byte	0x5
 932 049c 6E02     		.2byte	0x26e
 933 049e 3D080000 		.4byte	0x83d
 934 04a2 34       		.byte	0x34
 935 04a3 18       		.uleb128 0x18
 936 04a4 20040000 		.4byte	.LASF73
 937 04a8 05       		.byte	0x5
 938 04a9 7002     		.2byte	0x270
 939 04ab 5D000000 		.4byte	0x5d
 940 04af 38       		.byte	0x38
 941 04b0 18       		.uleb128 0x18
 942 04b1 36050000 		.4byte	.LASF74
 943 04b5 05       		.byte	0x5
ARM GAS  /var/folders/3j/4xdnk5197cv_b7cw3n33qk7r0000gn/T//ccZnsgjt.s 			page 18


 944 04b6 7202     		.2byte	0x272
 945 04b8 4E080000 		.4byte	0x84e
 946 04bc 3C       		.byte	0x3c
 947 04bd 18       		.uleb128 0x18
 948 04be 94030000 		.4byte	.LASF75
 949 04c2 05       		.byte	0x5
 950 04c3 7502     		.2byte	0x275
 951 04c5 75010000 		.4byte	0x175
 952 04c9 40       		.byte	0x40
 953 04ca 18       		.uleb128 0x18
 954 04cb 07030000 		.4byte	.LASF76
 955 04cf 05       		.byte	0x5
 956 04d0 7602     		.2byte	0x276
 957 04d2 5D000000 		.4byte	0x5d
 958 04d6 44       		.byte	0x44
 959 04d7 18       		.uleb128 0x18
 960 04d8 3E070000 		.4byte	.LASF77
 961 04dc 05       		.byte	0x5
 962 04dd 7702     		.2byte	0x277
 963 04df 75010000 		.4byte	0x175
 964 04e3 48       		.byte	0x48
 965 04e4 18       		.uleb128 0x18
 966 04e5 38040000 		.4byte	.LASF78
 967 04e9 05       		.byte	0x5
 968 04ea 7802     		.2byte	0x278
 969 04ec 54080000 		.4byte	0x854
 970 04f0 4C       		.byte	0x4c
 971 04f1 18       		.uleb128 0x18
 972 04f2 32030000 		.4byte	.LASF79
 973 04f6 05       		.byte	0x5
 974 04f7 7B02     		.2byte	0x27b
 975 04f9 5D000000 		.4byte	0x5d
 976 04fd 50       		.byte	0x50
 977 04fe 18       		.uleb128 0x18
 978 04ff 83020000 		.4byte	.LASF80
 979 0503 05       		.byte	0x5
 980 0504 7C02     		.2byte	0x27c
 981 0506 5F050000 		.4byte	0x55f
 982 050a 54       		.byte	0x54
 983 050b 18       		.uleb128 0x18
 984 050c 6D040000 		.4byte	.LASF81
 985 0510 05       		.byte	0x5
 986 0511 9F02     		.2byte	0x29f
 987 0513 06080000 		.4byte	0x806
 988 0517 58       		.byte	0x58
 989 0518 19       		.uleb128 0x19
 990 0519 18040000 		.4byte	.LASF41
 991 051d 05       		.byte	0x5
 992 051e A302     		.2byte	0x2a3
 993 0520 92020000 		.4byte	0x292
 994 0524 4801     		.2byte	0x148
 995 0526 19       		.uleb128 0x19
 996 0527 72030000 		.4byte	.LASF82
 997 052b 05       		.byte	0x5
 998 052c A402     		.2byte	0x2a4
 999 052e 54020000 		.4byte	0x254
 1000 0532 4C01     		.2byte	0x14c
ARM GAS  /var/folders/3j/4xdnk5197cv_b7cw3n33qk7r0000gn/T//ccZnsgjt.s 			page 19


 1001 0534 19       		.uleb128 0x19
 1002 0535 CC060000 		.4byte	.LASF83
 1003 0539 05       		.byte	0x5
 1004 053a A802     		.2byte	0x2a8
 1005 053c 65080000 		.4byte	0x865
 1006 0540 DC02     		.2byte	0x2dc
 1007 0542 19       		.uleb128 0x19
 1008 0543 18020000 		.4byte	.LASF84
 1009 0547 05       		.byte	0x5
 1010 0548 AD02     		.2byte	0x2ad
 1011 054a 0B060000 		.4byte	0x60b
 1012 054e E002     		.2byte	0x2e0
 1013 0550 19       		.uleb128 0x19
 1014 0551 4A010000 		.4byte	.LASF85
 1015 0555 05       		.byte	0x5
 1016 0556 AF02     		.2byte	0x2af
 1017 0558 71080000 		.4byte	0x871
 1018 055c EC02     		.2byte	0x2ec
 1019 055e 00       		.byte	0
 1020 055f 07       		.uleb128 0x7
 1021 0560 04       		.byte	0x4
 1022 0561 65050000 		.4byte	0x565
 1023 0565 02       		.uleb128 0x2
 1024 0566 01       		.byte	0x1
 1025 0567 08       		.byte	0x8
 1026 0568 AD050000 		.4byte	.LASF86
 1027 056c 04       		.uleb128 0x4
 1028 056d 65050000 		.4byte	0x565
 1029 0571 07       		.uleb128 0x7
 1030 0572 04       		.byte	0x4
 1031 0573 04040000 		.4byte	0x404
 1032 0577 15       		.uleb128 0x15
 1033 0578 5D000000 		.4byte	0x5d
 1034 057c 95050000 		.4byte	0x595
 1035 0580 16       		.uleb128 0x16
 1036 0581 22040000 		.4byte	0x422
 1037 0585 16       		.uleb128 0x16
 1038 0586 77000000 		.4byte	0x77
 1039 058a 16       		.uleb128 0x16
 1040 058b 95050000 		.4byte	0x595
 1041 058f 16       		.uleb128 0x16
 1042 0590 5D000000 		.4byte	0x5d
 1043 0594 00       		.byte	0
 1044 0595 07       		.uleb128 0x7
 1045 0596 04       		.byte	0x4
 1046 0597 6C050000 		.4byte	0x56c
 1047 059b 07       		.uleb128 0x7
 1048 059c 04       		.byte	0x4
 1049 059d 77050000 		.4byte	0x577
 1050 05a1 15       		.uleb128 0x15
 1051 05a2 9A000000 		.4byte	0x9a
 1052 05a6 BF050000 		.4byte	0x5bf
 1053 05aa 16       		.uleb128 0x16
 1054 05ab 22040000 		.4byte	0x422
 1055 05af 16       		.uleb128 0x16
 1056 05b0 77000000 		.4byte	0x77
 1057 05b4 16       		.uleb128 0x16
ARM GAS  /var/folders/3j/4xdnk5197cv_b7cw3n33qk7r0000gn/T//ccZnsgjt.s 			page 20


 1058 05b5 9A000000 		.4byte	0x9a
 1059 05b9 16       		.uleb128 0x16
 1060 05ba 5D000000 		.4byte	0x5d
 1061 05be 00       		.byte	0
 1062 05bf 07       		.uleb128 0x7
 1063 05c0 04       		.byte	0x4
 1064 05c1 A1050000 		.4byte	0x5a1
 1065 05c5 15       		.uleb128 0x15
 1066 05c6 5D000000 		.4byte	0x5d
 1067 05ca D9050000 		.4byte	0x5d9
 1068 05ce 16       		.uleb128 0x16
 1069 05cf 22040000 		.4byte	0x422
 1070 05d3 16       		.uleb128 0x16
 1071 05d4 77000000 		.4byte	0x77
 1072 05d8 00       		.byte	0
 1073 05d9 07       		.uleb128 0x7
 1074 05da 04       		.byte	0x4
 1075 05db C5050000 		.4byte	0x5c5
 1076 05df 0C       		.uleb128 0xc
 1077 05e0 2C000000 		.4byte	0x2c
 1078 05e4 EF050000 		.4byte	0x5ef
 1079 05e8 0D       		.uleb128 0xd
 1080 05e9 69000000 		.4byte	0x69
 1081 05ed 02       		.byte	0x2
 1082 05ee 00       		.byte	0
 1083 05ef 0C       		.uleb128 0xc
 1084 05f0 2C000000 		.4byte	0x2c
 1085 05f4 FF050000 		.4byte	0x5ff
 1086 05f8 0D       		.uleb128 0xd
 1087 05f9 69000000 		.4byte	0x69
 1088 05fd 00       		.byte	0
 1089 05fe 00       		.byte	0
 1090 05ff 09       		.uleb128 0x9
 1091 0600 E9040000 		.4byte	.LASF87
 1092 0604 05       		.byte	0x5
 1093 0605 1F01     		.2byte	0x11f
 1094 0607 DA020000 		.4byte	0x2da
 1095 060b 1A       		.uleb128 0x1a
 1096 060c 98060000 		.4byte	.LASF88
 1097 0610 0C       		.byte	0xc
 1098 0611 05       		.byte	0x5
 1099 0612 2301     		.2byte	0x123
 1100 0614 40060000 		.4byte	0x640
 1101 0618 18       		.uleb128 0x18
 1102 0619 DE050000 		.4byte	.LASF21
 1103 061d 05       		.byte	0x5
 1104 061e 2501     		.2byte	0x125
 1105 0620 40060000 		.4byte	0x640
 1106 0624 00       		.byte	0
 1107 0625 18       		.uleb128 0x18
 1108 0626 52030000 		.4byte	.LASF89
 1109 062a 05       		.byte	0x5
 1110 062b 2601     		.2byte	0x126
 1111 062d 5D000000 		.4byte	0x5d
 1112 0631 04       		.byte	0x4
 1113 0632 18       		.uleb128 0x18
 1114 0633 E3040000 		.4byte	.LASF90
ARM GAS  /var/folders/3j/4xdnk5197cv_b7cw3n33qk7r0000gn/T//ccZnsgjt.s 			page 21


 1115 0637 05       		.byte	0x5
 1116 0638 2701     		.2byte	0x127
 1117 063a 46060000 		.4byte	0x646
 1118 063e 08       		.byte	0x8
 1119 063f 00       		.byte	0
 1120 0640 07       		.uleb128 0x7
 1121 0641 04       		.byte	0x4
 1122 0642 0B060000 		.4byte	0x60b
 1123 0646 07       		.uleb128 0x7
 1124 0647 04       		.byte	0x4
 1125 0648 FF050000 		.4byte	0x5ff
 1126 064c 1A       		.uleb128 0x1a
 1127 064d 26000000 		.4byte	.LASF91
 1128 0651 0E       		.byte	0xe
 1129 0652 05       		.byte	0x5
 1130 0653 3F01     		.2byte	0x13f
 1131 0655 81060000 		.4byte	0x681
 1132 0659 18       		.uleb128 0x18
 1133 065a 68050000 		.4byte	.LASF92
 1134 065e 05       		.byte	0x5
 1135 065f 4001     		.2byte	0x140
 1136 0661 81060000 		.4byte	0x681
 1137 0665 00       		.byte	0
 1138 0666 18       		.uleb128 0x18
 1139 0667 D8050000 		.4byte	.LASF93
 1140 066b 05       		.byte	0x5
 1141 066c 4101     		.2byte	0x141
 1142 066e 81060000 		.4byte	0x681
 1143 0672 06       		.byte	0x6
 1144 0673 18       		.uleb128 0x18
 1145 0674 09060000 		.4byte	.LASF94
 1146 0678 05       		.byte	0x5
 1147 0679 4201     		.2byte	0x142
 1148 067b 3A000000 		.4byte	0x3a
 1149 067f 0C       		.byte	0xc
 1150 0680 00       		.byte	0
 1151 0681 0C       		.uleb128 0xc
 1152 0682 3A000000 		.4byte	0x3a
 1153 0686 91060000 		.4byte	0x691
 1154 068a 0D       		.uleb128 0xd
 1155 068b 69000000 		.4byte	0x69
 1156 068f 02       		.byte	0x2
 1157 0690 00       		.byte	0
 1158 0691 1B       		.uleb128 0x1b
 1159 0692 D0       		.byte	0xd0
 1160 0693 05       		.byte	0x5
 1161 0694 8002     		.2byte	0x280
 1162 0696 92070000 		.4byte	0x792
 1163 069a 18       		.uleb128 0x18
 1164 069b 74060000 		.4byte	.LASF95
 1165 069f 05       		.byte	0x5
 1166 06a0 8202     		.2byte	0x282
 1167 06a2 69000000 		.4byte	0x69
 1168 06a6 00       		.byte	0
 1169 06a7 18       		.uleb128 0x18
 1170 06a8 E4050000 		.4byte	.LASF96
 1171 06ac 05       		.byte	0x5
ARM GAS  /var/folders/3j/4xdnk5197cv_b7cw3n33qk7r0000gn/T//ccZnsgjt.s 			page 22


 1172 06ad 8302     		.2byte	0x283
 1173 06af 5F050000 		.4byte	0x55f
 1174 06b3 04       		.byte	0x4
 1175 06b4 18       		.uleb128 0x18
 1176 06b5 87030000 		.4byte	.LASF97
 1177 06b9 05       		.byte	0x5
 1178 06ba 8402     		.2byte	0x284
 1179 06bc 92070000 		.4byte	0x792
 1180 06c0 08       		.byte	0x8
 1181 06c1 18       		.uleb128 0x18
 1182 06c2 0E070000 		.4byte	.LASF98
 1183 06c6 05       		.byte	0x5
 1184 06c7 8502     		.2byte	0x285
 1185 06c9 8B010000 		.4byte	0x18b
 1186 06cd 24       		.byte	0x24
 1187 06ce 18       		.uleb128 0x18
 1188 06cf F2020000 		.4byte	.LASF99
 1189 06d3 05       		.byte	0x5
 1190 06d4 8602     		.2byte	0x286
 1191 06d6 5D000000 		.4byte	0x5d
 1192 06da 48       		.byte	0x48
 1193 06db 18       		.uleb128 0x18
 1194 06dc 0C050000 		.4byte	.LASF100
 1195 06e0 05       		.byte	0x5
 1196 06e1 8702     		.2byte	0x287
 1197 06e3 56000000 		.4byte	0x56
 1198 06e7 50       		.byte	0x50
 1199 06e8 18       		.uleb128 0x18
 1200 06e9 24070000 		.4byte	.LASF101
 1201 06ed 05       		.byte	0x5
 1202 06ee 8802     		.2byte	0x288
 1203 06f0 4C060000 		.4byte	0x64c
 1204 06f4 58       		.byte	0x58
 1205 06f5 18       		.uleb128 0x18
 1206 06f6 17050000 		.4byte	.LASF102
 1207 06fa 05       		.byte	0x5
 1208 06fb 8902     		.2byte	0x289
 1209 06fd 01010000 		.4byte	0x101
 1210 0701 68       		.byte	0x68
 1211 0702 18       		.uleb128 0x18
 1212 0703 30070000 		.4byte	.LASF103
 1213 0707 05       		.byte	0x5
 1214 0708 8A02     		.2byte	0x28a
 1215 070a 01010000 		.4byte	0x101
 1216 070e 70       		.byte	0x70
 1217 070f 18       		.uleb128 0x18
 1218 0710 4C040000 		.4byte	.LASF104
 1219 0714 05       		.byte	0x5
 1220 0715 8B02     		.2byte	0x28b
 1221 0717 01010000 		.4byte	0x101
 1222 071b 78       		.byte	0x78
 1223 071c 18       		.uleb128 0x18
 1224 071d B7060000 		.4byte	.LASF105
 1225 0721 05       		.byte	0x5
 1226 0722 8C02     		.2byte	0x28c
 1227 0724 A2070000 		.4byte	0x7a2
 1228 0728 80       		.byte	0x80
ARM GAS  /var/folders/3j/4xdnk5197cv_b7cw3n33qk7r0000gn/T//ccZnsgjt.s 			page 23


 1229 0729 18       		.uleb128 0x18
 1230 072a 7B030000 		.4byte	.LASF106
 1231 072e 05       		.byte	0x5
 1232 072f 8D02     		.2byte	0x28d
 1233 0731 B2070000 		.4byte	0x7b2
 1234 0735 88       		.byte	0x88
 1235 0736 18       		.uleb128 0x18
 1236 0737 25060000 		.4byte	.LASF107
 1237 073b 05       		.byte	0x5
 1238 073c 8E02     		.2byte	0x28e
 1239 073e 5D000000 		.4byte	0x5d
 1240 0742 A0       		.byte	0xa0
 1241 0743 18       		.uleb128 0x18
 1242 0744 B8020000 		.4byte	.LASF108
 1243 0748 05       		.byte	0x5
 1244 0749 8F02     		.2byte	0x28f
 1245 074b 01010000 		.4byte	0x101
 1246 074f A4       		.byte	0xa4
 1247 0750 18       		.uleb128 0x18
 1248 0751 E1000000 		.4byte	.LASF109
 1249 0755 05       		.byte	0x5
 1250 0756 9002     		.2byte	0x290
 1251 0758 01010000 		.4byte	0x101
 1252 075c AC       		.byte	0xac
 1253 075d 18       		.uleb128 0x18
 1254 075e A7020000 		.4byte	.LASF110
 1255 0762 05       		.byte	0x5
 1256 0763 9102     		.2byte	0x291
 1257 0765 01010000 		.4byte	0x101
 1258 0769 B4       		.byte	0xb4
 1259 076a 18       		.uleb128 0x18
 1260 076b 71000000 		.4byte	.LASF111
 1261 076f 05       		.byte	0x5
 1262 0770 9202     		.2byte	0x292
 1263 0772 01010000 		.4byte	0x101
 1264 0776 BC       		.byte	0xbc
 1265 0777 18       		.uleb128 0x18
 1266 0778 80000000 		.4byte	.LASF112
 1267 077c 05       		.byte	0x5
 1268 077d 9302     		.2byte	0x293
 1269 077f 01010000 		.4byte	0x101
 1270 0783 C4       		.byte	0xc4
 1271 0784 18       		.uleb128 0x18
 1272 0785 BF040000 		.4byte	.LASF113
 1273 0789 05       		.byte	0x5
 1274 078a 9402     		.2byte	0x294
 1275 078c 5D000000 		.4byte	0x5d
 1276 0790 CC       		.byte	0xcc
 1277 0791 00       		.byte	0
 1278 0792 0C       		.uleb128 0xc
 1279 0793 65050000 		.4byte	0x565
 1280 0797 A2070000 		.4byte	0x7a2
 1281 079b 0D       		.uleb128 0xd
 1282 079c 69000000 		.4byte	0x69
 1283 07a0 19       		.byte	0x19
 1284 07a1 00       		.byte	0
 1285 07a2 0C       		.uleb128 0xc
ARM GAS  /var/folders/3j/4xdnk5197cv_b7cw3n33qk7r0000gn/T//ccZnsgjt.s 			page 24


 1286 07a3 65050000 		.4byte	0x565
 1287 07a7 B2070000 		.4byte	0x7b2
 1288 07ab 0D       		.uleb128 0xd
 1289 07ac 69000000 		.4byte	0x69
 1290 07b0 07       		.byte	0x7
 1291 07b1 00       		.byte	0
 1292 07b2 0C       		.uleb128 0xc
 1293 07b3 65050000 		.4byte	0x565
 1294 07b7 C2070000 		.4byte	0x7c2
 1295 07bb 0D       		.uleb128 0xd
 1296 07bc 69000000 		.4byte	0x69
 1297 07c0 17       		.byte	0x17
 1298 07c1 00       		.byte	0
 1299 07c2 1B       		.uleb128 0x1b
 1300 07c3 F0       		.byte	0xf0
 1301 07c4 05       		.byte	0x5
 1302 07c5 9902     		.2byte	0x299
 1303 07c7 E6070000 		.4byte	0x7e6
 1304 07cb 18       		.uleb128 0x18
 1305 07cc 08040000 		.4byte	.LASF114
 1306 07d0 05       		.byte	0x5
 1307 07d1 9C02     		.2byte	0x29c
 1308 07d3 E6070000 		.4byte	0x7e6
 1309 07d7 00       		.byte	0
 1310 07d8 18       		.uleb128 0x18
 1311 07d9 AE060000 		.4byte	.LASF115
 1312 07dd 05       		.byte	0x5
 1313 07de 9D02     		.2byte	0x29d
 1314 07e0 F6070000 		.4byte	0x7f6
 1315 07e4 78       		.byte	0x78
 1316 07e5 00       		.byte	0
 1317 07e6 0C       		.uleb128 0xc
 1318 07e7 D4020000 		.4byte	0x2d4
 1319 07eb F6070000 		.4byte	0x7f6
 1320 07ef 0D       		.uleb128 0xd
 1321 07f0 69000000 		.4byte	0x69
 1322 07f4 1D       		.byte	0x1d
 1323 07f5 00       		.byte	0
 1324 07f6 0C       		.uleb128 0xc
 1325 07f7 69000000 		.4byte	0x69
 1326 07fb 06080000 		.4byte	0x806
 1327 07ff 0D       		.uleb128 0xd
 1328 0800 69000000 		.4byte	0x69
 1329 0804 1D       		.byte	0x1d
 1330 0805 00       		.byte	0
 1331 0806 1C       		.uleb128 0x1c
 1332 0807 F0       		.byte	0xf0
 1333 0808 05       		.byte	0x5
 1334 0809 7E02     		.2byte	0x27e
 1335 080b 28080000 		.4byte	0x828
 1336 080f 1D       		.uleb128 0x1d
 1337 0810 61050000 		.4byte	.LASF64
 1338 0814 05       		.byte	0x5
 1339 0815 9502     		.2byte	0x295
 1340 0817 91060000 		.4byte	0x691
 1341 081b 1D       		.uleb128 0x1d
 1342 081c EF060000 		.4byte	.LASF116
ARM GAS  /var/folders/3j/4xdnk5197cv_b7cw3n33qk7r0000gn/T//ccZnsgjt.s 			page 25


 1343 0820 05       		.byte	0x5
 1344 0821 9E02     		.2byte	0x29e
 1345 0823 C2070000 		.4byte	0x7c2
 1346 0827 00       		.byte	0
 1347 0828 0C       		.uleb128 0xc
 1348 0829 65050000 		.4byte	0x565
 1349 082d 38080000 		.4byte	0x838
 1350 0831 0D       		.uleb128 0xd
 1351 0832 69000000 		.4byte	0x69
 1352 0836 18       		.byte	0x18
 1353 0837 00       		.byte	0
 1354 0838 08       		.uleb128 0x8
 1355 0839 C7000000 		.4byte	.LASF118
 1356 083d 07       		.uleb128 0x7
 1357 083e 04       		.byte	0x4
 1358 083f 38080000 		.4byte	0x838
 1359 0843 1E       		.uleb128 0x1e
 1360 0844 4E080000 		.4byte	0x84e
 1361 0848 16       		.uleb128 0x16
 1362 0849 22040000 		.4byte	0x422
 1363 084d 00       		.byte	0
 1364 084e 07       		.uleb128 0x7
 1365 084f 04       		.byte	0x4
 1366 0850 43080000 		.4byte	0x843
 1367 0854 07       		.uleb128 0x7
 1368 0855 04       		.byte	0x4
 1369 0856 75010000 		.4byte	0x175
 1370 085a 1E       		.uleb128 0x1e
 1371 085b 65080000 		.4byte	0x865
 1372 085f 16       		.uleb128 0x16
 1373 0860 5D000000 		.4byte	0x5d
 1374 0864 00       		.byte	0
 1375 0865 07       		.uleb128 0x7
 1376 0866 04       		.byte	0x4
 1377 0867 6B080000 		.4byte	0x86b
 1378 086b 07       		.uleb128 0x7
 1379 086c 04       		.byte	0x4
 1380 086d 5A080000 		.4byte	0x85a
 1381 0871 0C       		.uleb128 0xc
 1382 0872 FF050000 		.4byte	0x5ff
 1383 0876 81080000 		.4byte	0x881
 1384 087a 0D       		.uleb128 0xd
 1385 087b 69000000 		.4byte	0x69
 1386 087f 02       		.byte	0x2
 1387 0880 00       		.byte	0
 1388 0881 1F       		.uleb128 0x1f
 1389 0882 8B050000 		.4byte	.LASF119
 1390 0886 05       		.byte	0x5
 1391 0887 2E03     		.2byte	0x32e
 1392 0889 22040000 		.4byte	0x422
 1393 088d 1F       		.uleb128 0x1f
 1394 088e 43060000 		.4byte	.LASF120
 1395 0892 05       		.byte	0x5
 1396 0893 2F03     		.2byte	0x32f
 1397 0895 28040000 		.4byte	0x428
 1398 0899 20       		.uleb128 0x20
 1399 089a AA030000 		.4byte	.LASF121
ARM GAS  /var/folders/3j/4xdnk5197cv_b7cw3n33qk7r0000gn/T//ccZnsgjt.s 			page 26


 1400 089e 06       		.byte	0x6
 1401 089f 10       		.byte	0x10
 1402 08a0 A4080000 		.4byte	0x8a4
 1403 08a4 07       		.uleb128 0x7
 1404 08a5 04       		.byte	0x4
 1405 08a6 5F050000 		.4byte	0x55f
 1406 08aa 20       		.uleb128 0x20
 1407 08ab EE030000 		.4byte	.LASF122
 1408 08af 06       		.byte	0x6
 1409 08b0 FC       		.byte	0xfc
 1410 08b1 5F050000 		.4byte	0x55f
 1411 08b5 20       		.uleb128 0x20
 1412 08b6 01040000 		.4byte	.LASF123
 1413 08ba 06       		.byte	0x6
 1414 08bb FD       		.byte	0xfd
 1415 08bc 5D000000 		.4byte	0x5d
 1416 08c0 20       		.uleb128 0x20
 1417 08c1 D1050000 		.4byte	.LASF124
 1418 08c5 06       		.byte	0x6
 1419 08c6 FD       		.byte	0xfd
 1420 08c7 5D000000 		.4byte	0x5d
 1421 08cb 20       		.uleb128 0x20
 1422 08cc 29070000 		.4byte	.LASF125
 1423 08d0 06       		.byte	0x6
 1424 08d1 FD       		.byte	0xfd
 1425 08d2 5D000000 		.4byte	0x5d
 1426 08d6 20       		.uleb128 0x20
 1427 08d7 CF030000 		.4byte	.LASF126
 1428 08db 06       		.byte	0x6
 1429 08dc FF       		.byte	0xff
 1430 08dd 5D000000 		.4byte	0x5d
 1431 08e1 20       		.uleb128 0x20
 1432 08e2 42040000 		.4byte	.LASF127
 1433 08e6 07       		.byte	0x7
 1434 08e7 9A       		.byte	0x9a
 1435 08e8 41000000 		.4byte	0x41
 1436 08ec 20       		.uleb128 0x20
 1437 08ed 39000000 		.4byte	.LASF128
 1438 08f1 07       		.byte	0x7
 1439 08f2 9B       		.byte	0x9b
 1440 08f3 5D000000 		.4byte	0x5d
 1441 08f7 0C       		.uleb128 0xc
 1442 08f8 5F050000 		.4byte	0x55f
 1443 08fc 07090000 		.4byte	0x907
 1444 0900 0D       		.uleb128 0xd
 1445 0901 69000000 		.4byte	0x69
 1446 0905 01       		.byte	0x1
 1447 0906 00       		.byte	0
 1448 0907 20       		.uleb128 0x20
 1449 0908 F0000000 		.4byte	.LASF129
 1450 090c 07       		.byte	0x7
 1451 090d 9E       		.byte	0x9e
 1452 090e F7080000 		.4byte	0x8f7
 1453 0912 02       		.uleb128 0x2
 1454 0913 04       		.byte	0x4
 1455 0914 04       		.byte	0x4
 1456 0915 32040000 		.4byte	.LASF130
ARM GAS  /var/folders/3j/4xdnk5197cv_b7cw3n33qk7r0000gn/T//ccZnsgjt.s 			page 27


 1457 0919 02       		.uleb128 0x2
 1458 091a 08       		.byte	0x8
 1459 091b 04       		.byte	0x4
 1460 091c 7C020000 		.4byte	.LASF131
 1461 0920 21       		.uleb128 0x21
 1462 0921 32060000 		.4byte	.LASF164
 1463 0925 05       		.byte	0x5
 1464 0926 01       		.byte	0x1
 1465 0927 25000000 		.4byte	0x25
 1466 092b 08       		.byte	0x8
 1467 092c 8202     		.2byte	0x282
 1468 092e 4B090000 		.4byte	0x94b
 1469 0932 22       		.uleb128 0x22
 1470 0933 56060000 		.4byte	.LASF132
 1471 0937 7F       		.sleb128 -1
 1472 0938 23       		.uleb128 0x23
 1473 0939 3F020000 		.4byte	.LASF133
 1474 093d 00       		.byte	0
 1475 093e 23       		.uleb128 0x23
 1476 093f D2000000 		.4byte	.LASF134
 1477 0943 01       		.byte	0x1
 1478 0944 23       		.uleb128 0x23
 1479 0945 AF000000 		.4byte	.LASF135
 1480 0949 02       		.byte	0x2
 1481 094a 00       		.byte	0
 1482 094b 1F       		.uleb128 0x1f
 1483 094c 9E060000 		.4byte	.LASF136
 1484 0950 08       		.byte	0x8
 1485 0951 8D02     		.2byte	0x28d
 1486 0953 20090000 		.4byte	0x920
 1487 0957 24       		.uleb128 0x24
 1488 0958 43070000 		.4byte	.LASF165
 1489 095c 01       		.byte	0x1
 1490 095d 3F       		.byte	0x3f
 1491 095e 5D000000 		.4byte	0x5d
 1492 0962 00000000 		.4byte	.LFB21
 1493 0966 C4010000 		.4byte	.LFE21-.LFB21
 1494 096a 01       		.uleb128 0x1
 1495 096b 9C       		.byte	0x9c
 1496 096c 730C0000 		.4byte	0xc73
 1497 0970 25       		.uleb128 0x25
 1498 0971 F7060000 		.4byte	.LASF137
 1499 0975 01       		.byte	0x1
 1500 0976 3F       		.byte	0x3f
 1501 0977 5D000000 		.4byte	0x5d
 1502 097b 00000000 		.4byte	.LLST2
 1503 097f 25       		.uleb128 0x25
 1504 0980 6F060000 		.4byte	.LASF138
 1505 0984 01       		.byte	0x1
 1506 0985 3F       		.byte	0x3f
 1507 0986 A4080000 		.4byte	0x8a4
 1508 098a 3A000000 		.4byte	.LLST3
 1509 098e 26       		.uleb128 0x26
 1510 098f 64060000 		.4byte	.LASF139
 1511 0993 01       		.byte	0x1
 1512 0994 41       		.byte	0x41
 1513 0995 5D000000 		.4byte	0x5d
ARM GAS  /var/folders/3j/4xdnk5197cv_b7cw3n33qk7r0000gn/T//ccZnsgjt.s 			page 28


 1514 0999 A3000000 		.4byte	.LLST4
 1515 099d 26       		.uleb128 0x26
 1516 099e FA050000 		.4byte	.LASF140
 1517 09a2 01       		.byte	0x1
 1518 09a3 43       		.byte	0x43
 1519 09a4 5D000000 		.4byte	0x5d
 1520 09a8 E2000000 		.4byte	.LLST5
 1521 09ac 26       		.uleb128 0x26
 1522 09ad C1060000 		.4byte	.LASF141
 1523 09b1 01       		.byte	0x1
 1524 09b2 44       		.byte	0x44
 1525 09b3 5D000000 		.4byte	0x5d
 1526 09b7 21010000 		.4byte	.LLST6
 1527 09bb 27       		.uleb128 0x27
 1528 09bc CB050000 		.4byte	.LASF166
 1529 09c0 01       		.byte	0x1
 1530 09c1 45       		.byte	0x45
 1531 09c2 5D000000 		.4byte	0x5d
 1532 09c6 28       		.uleb128 0x28
 1533 09c7 42555300 		.ascii	"BUS\000"
 1534 09cb 01       		.byte	0x1
 1535 09cc 47       		.byte	0x47
 1536 09cd 64000000 		.4byte	0x64
 1537 09d1 01       		.byte	0x1
 1538 09d2 29       		.uleb128 0x29
 1539 09d3 00000000 		.4byte	.Ldebug_ranges0+0
 1540 09d7 F6090000 		.4byte	0x9f6
 1541 09db 2A       		.uleb128 0x2a
 1542 09dc 5A040000 		.4byte	.LASF142
 1543 09e0 01       		.byte	0x1
 1544 09e1 52       		.byte	0x52
 1545 09e2 5D000000 		.4byte	0x5d
 1546 09e6 EC090000 		.4byte	0x9ec
 1547 09ea 2B       		.uleb128 0x2b
 1548 09eb 00       		.byte	0
 1549 09ec 2C       		.uleb128 0x2c
 1550 09ed F8000000 		.4byte	.LVL30
 1551 09f1 FB0C0000 		.4byte	0xcfb
 1552 09f5 00       		.byte	0
 1553 09f6 2D       		.uleb128 0x2d
 1554 09f7 2C000000 		.4byte	.LBB15
 1555 09fb 10000000 		.4byte	.LBE15-.LBB15
 1556 09ff 2F0A0000 		.4byte	0xa2f
 1557 0a03 2A       		.uleb128 0x2a
 1558 0a04 81060000 		.4byte	.LASF143
 1559 0a08 01       		.byte	0x1
 1560 0a09 54       		.byte	0x54
 1561 0a0a 5D000000 		.4byte	0x5d
 1562 0a0e 140A0000 		.4byte	0xa14
 1563 0a12 2B       		.uleb128 0x2b
 1564 0a13 00       		.byte	0
 1565 0a14 2E       		.uleb128 0x2e
 1566 0a15 38000000 		.4byte	.LVL9
 1567 0a19 060D0000 		.4byte	0xd06
 1568 0a1d 2F       		.uleb128 0x2f
 1569 0a1e 01       		.uleb128 0x1
 1570 0a1f 50       		.byte	0x50
ARM GAS  /var/folders/3j/4xdnk5197cv_b7cw3n33qk7r0000gn/T//ccZnsgjt.s 			page 29


 1571 0a20 02       		.uleb128 0x2
 1572 0a21 75       		.byte	0x75
 1573 0a22 00       		.sleb128 0
 1574 0a23 2F       		.uleb128 0x2f
 1575 0a24 01       		.uleb128 0x1
 1576 0a25 51       		.byte	0x51
 1577 0a26 01       		.uleb128 0x1
 1578 0a27 30       		.byte	0x30
 1579 0a28 2F       		.uleb128 0x2f
 1580 0a29 01       		.uleb128 0x1
 1581 0a2a 52       		.byte	0x52
 1582 0a2b 01       		.uleb128 0x1
 1583 0a2c 40       		.byte	0x40
 1584 0a2d 00       		.byte	0
 1585 0a2e 00       		.byte	0
 1586 0a2f 2D       		.uleb128 0x2d
 1587 0a30 00010000 		.4byte	.LBB24
 1588 0a34 08000000 		.4byte	.LBE24-.LBB24
 1589 0a38 570A0000 		.4byte	0xa57
 1590 0a3c 2A       		.uleb128 0x2a
 1591 0a3d 5A040000 		.4byte	.LASF142
 1592 0a41 01       		.byte	0x1
 1593 0a42 52       		.byte	0x52
 1594 0a43 5D000000 		.4byte	0x5d
 1595 0a47 4D0A0000 		.4byte	0xa4d
 1596 0a4b 2B       		.uleb128 0x2b
 1597 0a4c 00       		.byte	0
 1598 0a4d 2C       		.uleb128 0x2c
 1599 0a4e 04010000 		.4byte	.LVL33
 1600 0a52 FB0C0000 		.4byte	0xcfb
 1601 0a56 00       		.byte	0
 1602 0a57 2D       		.uleb128 0x2d
 1603 0a58 54000000 		.4byte	.LBB16
 1604 0a5c 10000000 		.4byte	.LBE16-.LBB16
 1605 0a60 8A0A0000 		.4byte	0xa8a
 1606 0a64 2A       		.uleb128 0x2a
 1607 0a65 81060000 		.4byte	.LASF143
 1608 0a69 01       		.byte	0x1
 1609 0a6a 54       		.byte	0x54
 1610 0a6b 5D000000 		.4byte	0x5d
 1611 0a6f 750A0000 		.4byte	0xa75
 1612 0a73 2B       		.uleb128 0x2b
 1613 0a74 00       		.byte	0
 1614 0a75 2E       		.uleb128 0x2e
 1615 0a76 60000000 		.4byte	.LVL13
 1616 0a7a 060D0000 		.4byte	0xd06
 1617 0a7e 2F       		.uleb128 0x2f
 1618 0a7f 01       		.uleb128 0x1
 1619 0a80 51       		.byte	0x51
 1620 0a81 01       		.uleb128 0x1
 1621 0a82 30       		.byte	0x30
 1622 0a83 2F       		.uleb128 0x2f
 1623 0a84 01       		.uleb128 0x1
 1624 0a85 52       		.byte	0x52
 1625 0a86 01       		.uleb128 0x1
 1626 0a87 40       		.byte	0x40
 1627 0a88 00       		.byte	0
ARM GAS  /var/folders/3j/4xdnk5197cv_b7cw3n33qk7r0000gn/T//ccZnsgjt.s 			page 30


 1628 0a89 00       		.byte	0
 1629 0a8a 30       		.uleb128 0x30
 1630 0a8b 8F0C0000 		.4byte	0xc8f
 1631 0a8f 64000000 		.4byte	.LBB17
 1632 0a93 0C000000 		.4byte	.LBE17-.LBB17
 1633 0a97 01       		.byte	0x1
 1634 0a98 5C       		.byte	0x5c
 1635 0a99 A70A0000 		.4byte	0xaa7
 1636 0a9d 31       		.uleb128 0x31
 1637 0a9e 9F0C0000 		.4byte	0xc9f
 1638 0aa2 76010000 		.4byte	.LLST7
 1639 0aa6 00       		.byte	0
 1640 0aa7 30       		.uleb128 0x30
 1641 0aa8 730C0000 		.4byte	0xc73
 1642 0aac 84000000 		.4byte	.LBB19
 1643 0ab0 10000000 		.4byte	.LBE19-.LBB19
 1644 0ab4 01       		.byte	0x1
 1645 0ab5 73       		.byte	0x73
 1646 0ab6 D90A0000 		.4byte	0xad9
 1647 0aba 31       		.uleb128 0x31
 1648 0abb 830C0000 		.4byte	0xc83
 1649 0abf 89010000 		.4byte	.LLST8
 1650 0ac3 2E       		.uleb128 0x2e
 1651 0ac4 8C000000 		.4byte	.LVL20
 1652 0ac8 110D0000 		.4byte	0xd11
 1653 0acc 2F       		.uleb128 0x2f
 1654 0acd 01       		.uleb128 0x1
 1655 0ace 50       		.byte	0x50
 1656 0acf 02       		.uleb128 0x2
 1657 0ad0 74       		.byte	0x74
 1658 0ad1 00       		.sleb128 0
 1659 0ad2 2F       		.uleb128 0x2f
 1660 0ad3 01       		.uleb128 0x1
 1661 0ad4 51       		.byte	0x51
 1662 0ad5 01       		.uleb128 0x1
 1663 0ad6 37       		.byte	0x37
 1664 0ad7 00       		.byte	0
 1665 0ad8 00       		.byte	0
 1666 0ad9 30       		.uleb128 0x30
 1667 0ada 730C0000 		.4byte	0xc73
 1668 0ade C8000000 		.4byte	.LBB21
 1669 0ae2 14000000 		.4byte	.LBE21-.LBB21
 1670 0ae6 01       		.byte	0x1
 1671 0ae7 80       		.byte	0x80
 1672 0ae8 0B0B0000 		.4byte	0xb0b
 1673 0aec 31       		.uleb128 0x31
 1674 0aed 830C0000 		.4byte	0xc83
 1675 0af1 A7010000 		.4byte	.LLST9
 1676 0af5 2E       		.uleb128 0x2e
 1677 0af6 D4000000 		.4byte	.LVL26
 1678 0afa 110D0000 		.4byte	0xd11
 1679 0afe 2F       		.uleb128 0x2f
 1680 0aff 01       		.uleb128 0x1
 1681 0b00 50       		.byte	0x50
 1682 0b01 02       		.uleb128 0x2
 1683 0b02 74       		.byte	0x74
 1684 0b03 00       		.sleb128 0
ARM GAS  /var/folders/3j/4xdnk5197cv_b7cw3n33qk7r0000gn/T//ccZnsgjt.s 			page 31


 1685 0b04 2F       		.uleb128 0x2f
 1686 0b05 01       		.uleb128 0x1
 1687 0b06 51       		.byte	0x51
 1688 0b07 01       		.uleb128 0x1
 1689 0b08 37       		.byte	0x37
 1690 0b09 00       		.byte	0
 1691 0b0a 00       		.byte	0
 1692 0b0b 32       		.uleb128 0x32
 1693 0b0c 20000000 		.4byte	.LVL8
 1694 0b10 1C0D0000 		.4byte	0xd1c
 1695 0b14 280B0000 		.4byte	0xb28
 1696 0b18 2F       		.uleb128 0x2f
 1697 0b19 01       		.uleb128 0x1
 1698 0b1a 50       		.byte	0x50
 1699 0b1b 02       		.uleb128 0x2
 1700 0b1c 75       		.byte	0x75
 1701 0b1d 00       		.sleb128 0
 1702 0b1e 2F       		.uleb128 0x2f
 1703 0b1f 01       		.uleb128 0x1
 1704 0b20 51       		.byte	0x51
 1705 0b21 05       		.uleb128 0x5
 1706 0b22 03       		.byte	0x3
 1707 0b23 3C000000 		.4byte	.LC1
 1708 0b27 00       		.byte	0
 1709 0b28 32       		.uleb128 0x32
 1710 0b29 48000000 		.4byte	.LVL12
 1711 0b2d 1C0D0000 		.4byte	0xd1c
 1712 0b31 3F0B0000 		.4byte	0xb3f
 1713 0b35 2F       		.uleb128 0x2f
 1714 0b36 01       		.uleb128 0x1
 1715 0b37 51       		.byte	0x51
 1716 0b38 05       		.uleb128 0x5
 1717 0b39 03       		.byte	0x3
 1718 0b3a 3C000000 		.4byte	.LC1
 1719 0b3e 00       		.byte	0
 1720 0b3f 32       		.uleb128 0x32
 1721 0b40 7C000000 		.4byte	.LVL17
 1722 0b44 270D0000 		.4byte	0xd27
 1723 0b48 580B0000 		.4byte	0xb58
 1724 0b4c 2F       		.uleb128 0x2f
 1725 0b4d 01       		.uleb128 0x1
 1726 0b4e 50       		.byte	0x50
 1727 0b4f 01       		.uleb128 0x1
 1728 0b50 31       		.byte	0x31
 1729 0b51 2F       		.uleb128 0x2f
 1730 0b52 01       		.uleb128 0x1
 1731 0b53 51       		.byte	0x51
 1732 0b54 02       		.uleb128 0x2
 1733 0b55 75       		.byte	0x75
 1734 0b56 00       		.sleb128 0
 1735 0b57 00       		.byte	0
 1736 0b58 32       		.uleb128 0x32
 1737 0b59 A4000000 		.4byte	.LVL22
 1738 0b5d 320D0000 		.4byte	0xd32
 1739 0b61 770B0000 		.4byte	0xb77
 1740 0b65 2F       		.uleb128 0x2f
 1741 0b66 01       		.uleb128 0x1
ARM GAS  /var/folders/3j/4xdnk5197cv_b7cw3n33qk7r0000gn/T//ccZnsgjt.s 			page 32


 1742 0b67 50       		.byte	0x50
 1743 0b68 02       		.uleb128 0x2
 1744 0b69 74       		.byte	0x74
 1745 0b6a 00       		.sleb128 0
 1746 0b6b 2F       		.uleb128 0x2f
 1747 0b6c 01       		.uleb128 0x1
 1748 0b6d 51       		.byte	0x51
 1749 0b6e 01       		.uleb128 0x1
 1750 0b6f 35       		.byte	0x35
 1751 0b70 2F       		.uleb128 0x2f
 1752 0b71 01       		.uleb128 0x1
 1753 0b72 52       		.byte	0x52
 1754 0b73 02       		.uleb128 0x2
 1755 0b74 76       		.byte	0x76
 1756 0b75 00       		.sleb128 0
 1757 0b76 00       		.byte	0
 1758 0b77 32       		.uleb128 0x32
 1759 0b78 B4000000 		.4byte	.LVL23
 1760 0b7c 3D0D0000 		.4byte	0xd3d
 1761 0b80 970B0000 		.4byte	0xb97
 1762 0b84 2F       		.uleb128 0x2f
 1763 0b85 01       		.uleb128 0x1
 1764 0b86 50       		.byte	0x50
 1765 0b87 02       		.uleb128 0x2
 1766 0b88 74       		.byte	0x74
 1767 0b89 00       		.sleb128 0
 1768 0b8a 2F       		.uleb128 0x2f
 1769 0b8b 01       		.uleb128 0x1
 1770 0b8c 51       		.byte	0x51
 1771 0b8d 01       		.uleb128 0x1
 1772 0b8e 39       		.byte	0x39
 1773 0b8f 2F       		.uleb128 0x2f
 1774 0b90 01       		.uleb128 0x1
 1775 0b91 52       		.byte	0x52
 1776 0b92 03       		.uleb128 0x3
 1777 0b93 0B       		.byte	0xb
 1778 0b94 55AA     		.2byte	0xaa55
 1779 0b96 00       		.byte	0
 1780 0b97 32       		.uleb128 0x32
 1781 0b98 BC000000 		.4byte	.LVL24
 1782 0b9c 480D0000 		.4byte	0xd48
 1783 0ba0 AA0B0000 		.4byte	0xbaa
 1784 0ba4 2F       		.uleb128 0x2f
 1785 0ba5 01       		.uleb128 0x1
 1786 0ba6 50       		.byte	0x50
 1787 0ba7 01       		.uleb128 0x1
 1788 0ba8 31       		.byte	0x31
 1789 0ba9 00       		.byte	0
 1790 0baa 32       		.uleb128 0x32
 1791 0bab C8000000 		.4byte	.LVL25
 1792 0baf 530D0000 		.4byte	0xd53
 1793 0bb3 C40B0000 		.4byte	0xbc4
 1794 0bb7 2F       		.uleb128 0x2f
 1795 0bb8 01       		.uleb128 0x1
 1796 0bb9 50       		.byte	0x50
 1797 0bba 02       		.uleb128 0x2
 1798 0bbb 74       		.byte	0x74
ARM GAS  /var/folders/3j/4xdnk5197cv_b7cw3n33qk7r0000gn/T//ccZnsgjt.s 			page 33


 1799 0bbc 00       		.sleb128 0
 1800 0bbd 2F       		.uleb128 0x2f
 1801 0bbe 01       		.uleb128 0x1
 1802 0bbf 51       		.byte	0x51
 1803 0bc0 02       		.uleb128 0x2
 1804 0bc1 76       		.byte	0x76
 1805 0bc2 00       		.sleb128 0
 1806 0bc3 00       		.byte	0
 1807 0bc4 32       		.uleb128 0x32
 1808 0bc5 EC000000 		.4byte	.LVL28
 1809 0bc9 5E0D0000 		.4byte	0xd5e
 1810 0bcd E70B0000 		.4byte	0xbe7
 1811 0bd1 2F       		.uleb128 0x2f
 1812 0bd2 01       		.uleb128 0x1
 1813 0bd3 50       		.byte	0x50
 1814 0bd4 05       		.uleb128 0x5
 1815 0bd5 03       		.byte	0x3
 1816 0bd6 DC000000 		.4byte	.LC6
 1817 0bda 2F       		.uleb128 0x2f
 1818 0bdb 01       		.uleb128 0x1
 1819 0bdc 51       		.byte	0x51
 1820 0bdd 02       		.uleb128 0x2
 1821 0bde 75       		.byte	0x75
 1822 0bdf 00       		.sleb128 0
 1823 0be0 2F       		.uleb128 0x2f
 1824 0be1 01       		.uleb128 0x1
 1825 0be2 52       		.byte	0x52
 1826 0be3 02       		.uleb128 0x2
 1827 0be4 76       		.byte	0x76
 1828 0be5 00       		.sleb128 0
 1829 0be6 00       		.byte	0
 1830 0be7 32       		.uleb128 0x32
 1831 0be8 24010000 		.4byte	.LVL36
 1832 0bec 690D0000 		.4byte	0xd69
 1833 0bf0 040C0000 		.4byte	0xc04
 1834 0bf4 2F       		.uleb128 0x2f
 1835 0bf5 01       		.uleb128 0x1
 1836 0bf6 51       		.byte	0x51
 1837 0bf7 05       		.uleb128 0x5
 1838 0bf8 03       		.byte	0x3
 1839 0bf9 84000000 		.4byte	.LC4
 1840 0bfd 2F       		.uleb128 0x2f
 1841 0bfe 01       		.uleb128 0x1
 1842 0bff 52       		.byte	0x52
 1843 0c00 02       		.uleb128 0x2
 1844 0c01 75       		.byte	0x75
 1845 0c02 00       		.sleb128 0
 1846 0c03 00       		.byte	0
 1847 0c04 32       		.uleb128 0x32
 1848 0c05 44010000 		.4byte	.LVL38
 1849 0c09 690D0000 		.4byte	0xd69
 1850 0c0d 210C0000 		.4byte	0xc21
 1851 0c11 2F       		.uleb128 0x2f
 1852 0c12 01       		.uleb128 0x1
 1853 0c13 51       		.byte	0x51
 1854 0c14 05       		.uleb128 0x5
 1855 0c15 03       		.byte	0x3
ARM GAS  /var/folders/3j/4xdnk5197cv_b7cw3n33qk7r0000gn/T//ccZnsgjt.s 			page 34


 1856 0c16 B0000000 		.4byte	.LC5
 1857 0c1a 2F       		.uleb128 0x2f
 1858 0c1b 01       		.uleb128 0x1
 1859 0c1c 52       		.byte	0x52
 1860 0c1d 02       		.uleb128 0x2
 1861 0c1e 76       		.byte	0x76
 1862 0c1f 00       		.sleb128 0
 1863 0c20 00       		.byte	0
 1864 0c21 32       		.uleb128 0x32
 1865 0c22 64010000 		.4byte	.LVL41
 1866 0c26 690D0000 		.4byte	0xd69
 1867 0c2a 3E0C0000 		.4byte	0xc3e
 1868 0c2e 2F       		.uleb128 0x2f
 1869 0c2f 01       		.uleb128 0x1
 1870 0c30 51       		.byte	0x51
 1871 0c31 05       		.uleb128 0x5
 1872 0c32 03       		.byte	0x3
 1873 0c33 40000000 		.4byte	.LC2
 1874 0c37 2F       		.uleb128 0x2f
 1875 0c38 01       		.uleb128 0x1
 1876 0c39 52       		.byte	0x52
 1877 0c3a 02       		.uleb128 0x2
 1878 0c3b 75       		.byte	0x75
 1879 0c3c 00       		.sleb128 0
 1880 0c3d 00       		.byte	0
 1881 0c3e 32       		.uleb128 0x32
 1882 0c3f 74010000 		.4byte	.LVL44
 1883 0c43 740D0000 		.4byte	0xd74
 1884 0c47 550C0000 		.4byte	0xc55
 1885 0c4b 2F       		.uleb128 0x2f
 1886 0c4c 01       		.uleb128 0x1
 1887 0c4d 50       		.byte	0x50
 1888 0c4e 05       		.uleb128 0x5
 1889 0c4f 03       		.byte	0x3
 1890 0c50 00000000 		.4byte	.LC0
 1891 0c54 00       		.byte	0
 1892 0c55 2E       		.uleb128 0x2e
 1893 0c56 98010000 		.4byte	.LVL47
 1894 0c5a 830D0000 		.4byte	0xd83
 1895 0c5e 2F       		.uleb128 0x2f
 1896 0c5f 01       		.uleb128 0x1
 1897 0c60 50       		.byte	0x50
 1898 0c61 05       		.uleb128 0x5
 1899 0c62 03       		.byte	0x3
 1900 0c63 68000000 		.4byte	.LC3
 1901 0c67 2F       		.uleb128 0x2f
 1902 0c68 01       		.uleb128 0x1
 1903 0c69 51       		.byte	0x51
 1904 0c6a 01       		.uleb128 0x1
 1905 0c6b 31       		.byte	0x31
 1906 0c6c 2F       		.uleb128 0x2f
 1907 0c6d 01       		.uleb128 0x1
 1908 0c6e 52       		.byte	0x52
 1909 0c6f 01       		.uleb128 0x1
 1910 0c70 49       		.byte	0x49
 1911 0c71 00       		.byte	0
 1912 0c72 00       		.byte	0
ARM GAS  /var/folders/3j/4xdnk5197cv_b7cw3n33qk7r0000gn/T//ccZnsgjt.s 			page 35


 1913 0c73 33       		.uleb128 0x33
 1914 0c74 48070000 		.4byte	.LASF144
 1915 0c78 01       		.byte	0x1
 1916 0c79 36       		.byte	0x36
 1917 0c7a 5D000000 		.4byte	0x5d
 1918 0c7e 01       		.byte	0x1
 1919 0c7f 8F0C0000 		.4byte	0xc8f
 1920 0c83 34       		.uleb128 0x34
 1921 0c84 FC060000 		.4byte	.LASF146
 1922 0c88 01       		.byte	0x1
 1923 0c89 36       		.byte	0x36
 1924 0c8a 5D000000 		.4byte	0x5d
 1925 0c8e 00       		.byte	0
 1926 0c8f 33       		.uleb128 0x33
 1927 0c90 BB050000 		.4byte	.LASF145
 1928 0c94 01       		.byte	0x1
 1929 0c95 2E       		.byte	0x2e
 1930 0c96 5D000000 		.4byte	0x5d
 1931 0c9a 01       		.byte	0x1
 1932 0c9b AB0C0000 		.4byte	0xcab
 1933 0c9f 34       		.uleb128 0x34
 1934 0ca0 BF030000 		.4byte	.LASF147
 1935 0ca4 01       		.byte	0x1
 1936 0ca5 2E       		.byte	0x2e
 1937 0ca6 5D000000 		.4byte	0x5d
 1938 0caa 00       		.byte	0
 1939 0cab 35       		.uleb128 0x35
 1940 0cac 8F0C0000 		.4byte	0xc8f
 1941 0cb0 00000000 		.4byte	.LFB19
 1942 0cb4 14000000 		.4byte	.LFE19-.LFB19
 1943 0cb8 01       		.uleb128 0x1
 1944 0cb9 9C       		.byte	0x9c
 1945 0cba C80C0000 		.4byte	0xcc8
 1946 0cbe 31       		.uleb128 0x31
 1947 0cbf 9F0C0000 		.4byte	0xc9f
 1948 0cc3 BA010000 		.4byte	.LLST0
 1949 0cc7 00       		.byte	0
 1950 0cc8 35       		.uleb128 0x35
 1951 0cc9 730C0000 		.4byte	0xc73
 1952 0ccd 00000000 		.4byte	.LFB20
 1953 0cd1 1C000000 		.4byte	.LFE20-.LFB20
 1954 0cd5 01       		.uleb128 0x1
 1955 0cd6 9C       		.byte	0x9c
 1956 0cd7 FB0C0000 		.4byte	0xcfb
 1957 0cdb 31       		.uleb128 0x31
 1958 0cdc 830C0000 		.4byte	0xc83
 1959 0ce0 E8010000 		.4byte	.LLST1
 1960 0ce4 2E       		.uleb128 0x2e
 1961 0ce5 0C000000 		.4byte	.LVL4
 1962 0ce9 110D0000 		.4byte	0xd11
 1963 0ced 2F       		.uleb128 0x2f
 1964 0cee 01       		.uleb128 0x1
 1965 0cef 50       		.byte	0x50
 1966 0cf0 03       		.uleb128 0x3
 1967 0cf1 F3       		.byte	0xf3
 1968 0cf2 01       		.uleb128 0x1
 1969 0cf3 50       		.byte	0x50
ARM GAS  /var/folders/3j/4xdnk5197cv_b7cw3n33qk7r0000gn/T//ccZnsgjt.s 			page 36


 1970 0cf4 2F       		.uleb128 0x2f
 1971 0cf5 01       		.uleb128 0x1
 1972 0cf6 51       		.byte	0x51
 1973 0cf7 01       		.uleb128 0x1
 1974 0cf8 37       		.byte	0x37
 1975 0cf9 00       		.byte	0
 1976 0cfa 00       		.byte	0
 1977 0cfb 36       		.uleb128 0x36
 1978 0cfc 5A040000 		.4byte	.LASF142
 1979 0d00 5A040000 		.4byte	.LASF142
 1980 0d04 01       		.byte	0x1
 1981 0d05 52       		.byte	0x52
 1982 0d06 36       		.uleb128 0x36
 1983 0d07 81060000 		.4byte	.LASF143
 1984 0d0b 81060000 		.4byte	.LASF143
 1985 0d0f 01       		.byte	0x1
 1986 0d10 54       		.byte	0x54
 1987 0d11 36       		.uleb128 0x36
 1988 0d12 D6060000 		.4byte	.LASF148
 1989 0d16 D6060000 		.4byte	.LASF148
 1990 0d1a 09       		.byte	0x9
 1991 0d1b 0A       		.byte	0xa
 1992 0d1c 36       		.uleb128 0x36
 1993 0d1d 43000000 		.4byte	.LASF149
 1994 0d21 43000000 		.4byte	.LASF149
 1995 0d25 0A       		.byte	0xa
 1996 0d26 30       		.byte	0x30
 1997 0d27 36       		.uleb128 0x36
 1998 0d28 16060000 		.4byte	.LASF150
 1999 0d2c 16060000 		.4byte	.LASF150
 2000 0d30 09       		.byte	0x9
 2001 0d31 06       		.byte	0x6
 2002 0d32 36       		.uleb128 0x36
 2003 0d33 12000000 		.4byte	.LASF151
 2004 0d37 12000000 		.4byte	.LASF151
 2005 0d3b 09       		.byte	0x9
 2006 0d3c 0C       		.byte	0xc
 2007 0d3d 36       		.uleb128 0x36
 2008 0d3e 93020000 		.4byte	.LASF152
 2009 0d42 93020000 		.4byte	.LASF152
 2010 0d46 09       		.byte	0x9
 2011 0d47 0B       		.byte	0xb
 2012 0d48 36       		.uleb128 0x36
 2013 0d49 6C030000 		.4byte	.LASF153
 2014 0d4d 6C030000 		.4byte	.LASF153
 2015 0d51 06       		.byte	0x6
 2016 0d52 E5       		.byte	0xe5
 2017 0d53 36       		.uleb128 0x36
 2018 0d54 65020000 		.4byte	.LASF154
 2019 0d58 65020000 		.4byte	.LASF154
 2020 0d5c 09       		.byte	0x9
 2021 0d5d 07       		.byte	0x7
 2022 0d5e 36       		.uleb128 0x36
 2023 0d5f 91000000 		.4byte	.LASF155
 2024 0d63 91000000 		.4byte	.LASF155
 2025 0d67 0B       		.byte	0xb
 2026 0d68 C8       		.byte	0xc8
ARM GAS  /var/folders/3j/4xdnk5197cv_b7cw3n33qk7r0000gn/T//ccZnsgjt.s 			page 37


 2027 0d69 36       		.uleb128 0x36
 2028 0d6a 32010000 		.4byte	.LASF156
 2029 0d6e 32010000 		.4byte	.LASF156
 2030 0d72 0B       		.byte	0xb
 2031 0d73 C4       		.byte	0xc4
 2032 0d74 37       		.uleb128 0x37
 2033 0d75 E9030000 		.4byte	.LASF157
 2034 0d79 4D020000 		.4byte	.LASF159
 2035 0d7d 0C       		.byte	0xc
 2036 0d7e 00       		.byte	0
 2037 0d7f E9030000 		.4byte	.LASF157
 2038 0d83 37       		.uleb128 0x37
 2039 0d84 9F050000 		.4byte	.LASF158
 2040 0d88 1B010000 		.4byte	.LASF160
 2041 0d8c 0C       		.byte	0xc
 2042 0d8d 00       		.byte	0
 2043 0d8e 9F050000 		.4byte	.LASF158
 2044 0d92 00       		.byte	0
 2045              		.section	.debug_abbrev,"",%progbits
 2046              	.Ldebug_abbrev0:
 2047 0000 01       		.uleb128 0x1
 2048 0001 11       		.uleb128 0x11
 2049 0002 01       		.byte	0x1
 2050 0003 25       		.uleb128 0x25
 2051 0004 0E       		.uleb128 0xe
 2052 0005 13       		.uleb128 0x13
 2053 0006 0B       		.uleb128 0xb
 2054 0007 03       		.uleb128 0x3
 2055 0008 0E       		.uleb128 0xe
 2056 0009 1B       		.uleb128 0x1b
 2057 000a 0E       		.uleb128 0xe
 2058 000b 55       		.uleb128 0x55
 2059 000c 17       		.uleb128 0x17
 2060 000d 11       		.uleb128 0x11
 2061 000e 01       		.uleb128 0x1
 2062 000f 10       		.uleb128 0x10
 2063 0010 17       		.uleb128 0x17
 2064 0011 00       		.byte	0
 2065 0012 00       		.byte	0
 2066 0013 02       		.uleb128 0x2
 2067 0014 24       		.uleb128 0x24
 2068 0015 00       		.byte	0
 2069 0016 0B       		.uleb128 0xb
 2070 0017 0B       		.uleb128 0xb
 2071 0018 3E       		.uleb128 0x3e
 2072 0019 0B       		.uleb128 0xb
 2073 001a 03       		.uleb128 0x3
 2074 001b 0E       		.uleb128 0xe
 2075 001c 00       		.byte	0
 2076 001d 00       		.byte	0
 2077 001e 03       		.uleb128 0x3
 2078 001f 24       		.uleb128 0x24
 2079 0020 00       		.byte	0
 2080 0021 0B       		.uleb128 0xb
 2081 0022 0B       		.uleb128 0xb
 2082 0023 3E       		.uleb128 0x3e
 2083 0024 0B       		.uleb128 0xb
ARM GAS  /var/folders/3j/4xdnk5197cv_b7cw3n33qk7r0000gn/T//ccZnsgjt.s 			page 38


 2084 0025 03       		.uleb128 0x3
 2085 0026 08       		.uleb128 0x8
 2086 0027 00       		.byte	0
 2087 0028 00       		.byte	0
 2088 0029 04       		.uleb128 0x4
 2089 002a 26       		.uleb128 0x26
 2090 002b 00       		.byte	0
 2091 002c 49       		.uleb128 0x49
 2092 002d 13       		.uleb128 0x13
 2093 002e 00       		.byte	0
 2094 002f 00       		.byte	0
 2095 0030 05       		.uleb128 0x5
 2096 0031 0F       		.uleb128 0xf
 2097 0032 00       		.byte	0
 2098 0033 0B       		.uleb128 0xb
 2099 0034 0B       		.uleb128 0xb
 2100 0035 00       		.byte	0
 2101 0036 00       		.byte	0
 2102 0037 06       		.uleb128 0x6
 2103 0038 16       		.uleb128 0x16
 2104 0039 00       		.byte	0
 2105 003a 03       		.uleb128 0x3
 2106 003b 0E       		.uleb128 0xe
 2107 003c 3A       		.uleb128 0x3a
 2108 003d 0B       		.uleb128 0xb
 2109 003e 3B       		.uleb128 0x3b
 2110 003f 0B       		.uleb128 0xb
 2111 0040 49       		.uleb128 0x49
 2112 0041 13       		.uleb128 0x13
 2113 0042 00       		.byte	0
 2114 0043 00       		.byte	0
 2115 0044 07       		.uleb128 0x7
 2116 0045 0F       		.uleb128 0xf
 2117 0046 00       		.byte	0
 2118 0047 0B       		.uleb128 0xb
 2119 0048 0B       		.uleb128 0xb
 2120 0049 49       		.uleb128 0x49
 2121 004a 13       		.uleb128 0x13
 2122 004b 00       		.byte	0
 2123 004c 00       		.byte	0
 2124 004d 08       		.uleb128 0x8
 2125 004e 13       		.uleb128 0x13
 2126 004f 00       		.byte	0
 2127 0050 03       		.uleb128 0x3
 2128 0051 0E       		.uleb128 0xe
 2129 0052 3C       		.uleb128 0x3c
 2130 0053 19       		.uleb128 0x19
 2131 0054 00       		.byte	0
 2132 0055 00       		.byte	0
 2133 0056 09       		.uleb128 0x9
 2134 0057 16       		.uleb128 0x16
 2135 0058 00       		.byte	0
 2136 0059 03       		.uleb128 0x3
 2137 005a 0E       		.uleb128 0xe
 2138 005b 3A       		.uleb128 0x3a
 2139 005c 0B       		.uleb128 0xb
 2140 005d 3B       		.uleb128 0x3b
ARM GAS  /var/folders/3j/4xdnk5197cv_b7cw3n33qk7r0000gn/T//ccZnsgjt.s 			page 39


 2141 005e 05       		.uleb128 0x5
 2142 005f 49       		.uleb128 0x49
 2143 0060 13       		.uleb128 0x13
 2144 0061 00       		.byte	0
 2145 0062 00       		.byte	0
 2146 0063 0A       		.uleb128 0xa
 2147 0064 17       		.uleb128 0x17
 2148 0065 01       		.byte	0x1
 2149 0066 0B       		.uleb128 0xb
 2150 0067 0B       		.uleb128 0xb
 2151 0068 3A       		.uleb128 0x3a
 2152 0069 0B       		.uleb128 0xb
 2153 006a 3B       		.uleb128 0x3b
 2154 006b 0B       		.uleb128 0xb
 2155 006c 01       		.uleb128 0x1
 2156 006d 13       		.uleb128 0x13
 2157 006e 00       		.byte	0
 2158 006f 00       		.byte	0
 2159 0070 0B       		.uleb128 0xb
 2160 0071 0D       		.uleb128 0xd
 2161 0072 00       		.byte	0
 2162 0073 03       		.uleb128 0x3
 2163 0074 0E       		.uleb128 0xe
 2164 0075 3A       		.uleb128 0x3a
 2165 0076 0B       		.uleb128 0xb
 2166 0077 3B       		.uleb128 0x3b
 2167 0078 0B       		.uleb128 0xb
 2168 0079 49       		.uleb128 0x49
 2169 007a 13       		.uleb128 0x13
 2170 007b 00       		.byte	0
 2171 007c 00       		.byte	0
 2172 007d 0C       		.uleb128 0xc
 2173 007e 01       		.uleb128 0x1
 2174 007f 01       		.byte	0x1
 2175 0080 49       		.uleb128 0x49
 2176 0081 13       		.uleb128 0x13
 2177 0082 01       		.uleb128 0x1
 2178 0083 13       		.uleb128 0x13
 2179 0084 00       		.byte	0
 2180 0085 00       		.byte	0
 2181 0086 0D       		.uleb128 0xd
 2182 0087 21       		.uleb128 0x21
 2183 0088 00       		.byte	0
 2184 0089 49       		.uleb128 0x49
 2185 008a 13       		.uleb128 0x13
 2186 008b 2F       		.uleb128 0x2f
 2187 008c 0B       		.uleb128 0xb
 2188 008d 00       		.byte	0
 2189 008e 00       		.byte	0
 2190 008f 0E       		.uleb128 0xe
 2191 0090 13       		.uleb128 0x13
 2192 0091 01       		.byte	0x1
 2193 0092 0B       		.uleb128 0xb
 2194 0093 0B       		.uleb128 0xb
 2195 0094 3A       		.uleb128 0x3a
 2196 0095 0B       		.uleb128 0xb
 2197 0096 3B       		.uleb128 0x3b
ARM GAS  /var/folders/3j/4xdnk5197cv_b7cw3n33qk7r0000gn/T//ccZnsgjt.s 			page 40


 2198 0097 0B       		.uleb128 0xb
 2199 0098 01       		.uleb128 0x1
 2200 0099 13       		.uleb128 0x13
 2201 009a 00       		.byte	0
 2202 009b 00       		.byte	0
 2203 009c 0F       		.uleb128 0xf
 2204 009d 0D       		.uleb128 0xd
 2205 009e 00       		.byte	0
 2206 009f 03       		.uleb128 0x3
 2207 00a0 0E       		.uleb128 0xe
 2208 00a1 3A       		.uleb128 0x3a
 2209 00a2 0B       		.uleb128 0xb
 2210 00a3 3B       		.uleb128 0x3b
 2211 00a4 0B       		.uleb128 0xb
 2212 00a5 49       		.uleb128 0x49
 2213 00a6 13       		.uleb128 0x13
 2214 00a7 38       		.uleb128 0x38
 2215 00a8 0B       		.uleb128 0xb
 2216 00a9 00       		.byte	0
 2217 00aa 00       		.byte	0
 2218 00ab 10       		.uleb128 0x10
 2219 00ac 13       		.uleb128 0x13
 2220 00ad 01       		.byte	0x1
 2221 00ae 03       		.uleb128 0x3
 2222 00af 0E       		.uleb128 0xe
 2223 00b0 0B       		.uleb128 0xb
 2224 00b1 0B       		.uleb128 0xb
 2225 00b2 3A       		.uleb128 0x3a
 2226 00b3 0B       		.uleb128 0xb
 2227 00b4 3B       		.uleb128 0x3b
 2228 00b5 0B       		.uleb128 0xb
 2229 00b6 01       		.uleb128 0x1
 2230 00b7 13       		.uleb128 0x13
 2231 00b8 00       		.byte	0
 2232 00b9 00       		.byte	0
 2233 00ba 11       		.uleb128 0x11
 2234 00bb 0D       		.uleb128 0xd
 2235 00bc 00       		.byte	0
 2236 00bd 03       		.uleb128 0x3
 2237 00be 08       		.uleb128 0x8
 2238 00bf 3A       		.uleb128 0x3a
 2239 00c0 0B       		.uleb128 0xb
 2240 00c1 3B       		.uleb128 0x3b
 2241 00c2 0B       		.uleb128 0xb
 2242 00c3 49       		.uleb128 0x49
 2243 00c4 13       		.uleb128 0x13
 2244 00c5 38       		.uleb128 0x38
 2245 00c6 0B       		.uleb128 0xb
 2246 00c7 00       		.byte	0
 2247 00c8 00       		.byte	0
 2248 00c9 12       		.uleb128 0x12
 2249 00ca 13       		.uleb128 0x13
 2250 00cb 01       		.byte	0x1
 2251 00cc 03       		.uleb128 0x3
 2252 00cd 0E       		.uleb128 0xe
 2253 00ce 0B       		.uleb128 0xb
 2254 00cf 05       		.uleb128 0x5
ARM GAS  /var/folders/3j/4xdnk5197cv_b7cw3n33qk7r0000gn/T//ccZnsgjt.s 			page 41


 2255 00d0 3A       		.uleb128 0x3a
 2256 00d1 0B       		.uleb128 0xb
 2257 00d2 3B       		.uleb128 0x3b
 2258 00d3 0B       		.uleb128 0xb
 2259 00d4 01       		.uleb128 0x1
 2260 00d5 13       		.uleb128 0x13
 2261 00d6 00       		.byte	0
 2262 00d7 00       		.byte	0
 2263 00d8 13       		.uleb128 0x13
 2264 00d9 0D       		.uleb128 0xd
 2265 00da 00       		.byte	0
 2266 00db 03       		.uleb128 0x3
 2267 00dc 0E       		.uleb128 0xe
 2268 00dd 3A       		.uleb128 0x3a
 2269 00de 0B       		.uleb128 0xb
 2270 00df 3B       		.uleb128 0x3b
 2271 00e0 0B       		.uleb128 0xb
 2272 00e1 49       		.uleb128 0x49
 2273 00e2 13       		.uleb128 0x13
 2274 00e3 38       		.uleb128 0x38
 2275 00e4 05       		.uleb128 0x5
 2276 00e5 00       		.byte	0
 2277 00e6 00       		.byte	0
 2278 00e7 14       		.uleb128 0x14
 2279 00e8 15       		.uleb128 0x15
 2280 00e9 00       		.byte	0
 2281 00ea 27       		.uleb128 0x27
 2282 00eb 19       		.uleb128 0x19
 2283 00ec 00       		.byte	0
 2284 00ed 00       		.byte	0
 2285 00ee 15       		.uleb128 0x15
 2286 00ef 15       		.uleb128 0x15
 2287 00f0 01       		.byte	0x1
 2288 00f1 27       		.uleb128 0x27
 2289 00f2 19       		.uleb128 0x19
 2290 00f3 49       		.uleb128 0x49
 2291 00f4 13       		.uleb128 0x13
 2292 00f5 01       		.uleb128 0x1
 2293 00f6 13       		.uleb128 0x13
 2294 00f7 00       		.byte	0
 2295 00f8 00       		.byte	0
 2296 00f9 16       		.uleb128 0x16
 2297 00fa 05       		.uleb128 0x5
 2298 00fb 00       		.byte	0
 2299 00fc 49       		.uleb128 0x49
 2300 00fd 13       		.uleb128 0x13
 2301 00fe 00       		.byte	0
 2302 00ff 00       		.byte	0
 2303 0100 17       		.uleb128 0x17
 2304 0101 13       		.uleb128 0x13
 2305 0102 01       		.byte	0x1
 2306 0103 03       		.uleb128 0x3
 2307 0104 0E       		.uleb128 0xe
 2308 0105 0B       		.uleb128 0xb
 2309 0106 05       		.uleb128 0x5
 2310 0107 3A       		.uleb128 0x3a
 2311 0108 0B       		.uleb128 0xb
ARM GAS  /var/folders/3j/4xdnk5197cv_b7cw3n33qk7r0000gn/T//ccZnsgjt.s 			page 42


 2312 0109 3B       		.uleb128 0x3b
 2313 010a 05       		.uleb128 0x5
 2314 010b 01       		.uleb128 0x1
 2315 010c 13       		.uleb128 0x13
 2316 010d 00       		.byte	0
 2317 010e 00       		.byte	0
 2318 010f 18       		.uleb128 0x18
 2319 0110 0D       		.uleb128 0xd
 2320 0111 00       		.byte	0
 2321 0112 03       		.uleb128 0x3
 2322 0113 0E       		.uleb128 0xe
 2323 0114 3A       		.uleb128 0x3a
 2324 0115 0B       		.uleb128 0xb
 2325 0116 3B       		.uleb128 0x3b
 2326 0117 05       		.uleb128 0x5
 2327 0118 49       		.uleb128 0x49
 2328 0119 13       		.uleb128 0x13
 2329 011a 38       		.uleb128 0x38
 2330 011b 0B       		.uleb128 0xb
 2331 011c 00       		.byte	0
 2332 011d 00       		.byte	0
 2333 011e 19       		.uleb128 0x19
 2334 011f 0D       		.uleb128 0xd
 2335 0120 00       		.byte	0
 2336 0121 03       		.uleb128 0x3
 2337 0122 0E       		.uleb128 0xe
 2338 0123 3A       		.uleb128 0x3a
 2339 0124 0B       		.uleb128 0xb
 2340 0125 3B       		.uleb128 0x3b
 2341 0126 05       		.uleb128 0x5
 2342 0127 49       		.uleb128 0x49
 2343 0128 13       		.uleb128 0x13
 2344 0129 38       		.uleb128 0x38
 2345 012a 05       		.uleb128 0x5
 2346 012b 00       		.byte	0
 2347 012c 00       		.byte	0
 2348 012d 1A       		.uleb128 0x1a
 2349 012e 13       		.uleb128 0x13
 2350 012f 01       		.byte	0x1
 2351 0130 03       		.uleb128 0x3
 2352 0131 0E       		.uleb128 0xe
 2353 0132 0B       		.uleb128 0xb
 2354 0133 0B       		.uleb128 0xb
 2355 0134 3A       		.uleb128 0x3a
 2356 0135 0B       		.uleb128 0xb
 2357 0136 3B       		.uleb128 0x3b
 2358 0137 05       		.uleb128 0x5
 2359 0138 01       		.uleb128 0x1
 2360 0139 13       		.uleb128 0x13
 2361 013a 00       		.byte	0
 2362 013b 00       		.byte	0
 2363 013c 1B       		.uleb128 0x1b
 2364 013d 13       		.uleb128 0x13
 2365 013e 01       		.byte	0x1
 2366 013f 0B       		.uleb128 0xb
 2367 0140 0B       		.uleb128 0xb
 2368 0141 3A       		.uleb128 0x3a
ARM GAS  /var/folders/3j/4xdnk5197cv_b7cw3n33qk7r0000gn/T//ccZnsgjt.s 			page 43


 2369 0142 0B       		.uleb128 0xb
 2370 0143 3B       		.uleb128 0x3b
 2371 0144 05       		.uleb128 0x5
 2372 0145 01       		.uleb128 0x1
 2373 0146 13       		.uleb128 0x13
 2374 0147 00       		.byte	0
 2375 0148 00       		.byte	0
 2376 0149 1C       		.uleb128 0x1c
 2377 014a 17       		.uleb128 0x17
 2378 014b 01       		.byte	0x1
 2379 014c 0B       		.uleb128 0xb
 2380 014d 0B       		.uleb128 0xb
 2381 014e 3A       		.uleb128 0x3a
 2382 014f 0B       		.uleb128 0xb
 2383 0150 3B       		.uleb128 0x3b
 2384 0151 05       		.uleb128 0x5
 2385 0152 01       		.uleb128 0x1
 2386 0153 13       		.uleb128 0x13
 2387 0154 00       		.byte	0
 2388 0155 00       		.byte	0
 2389 0156 1D       		.uleb128 0x1d
 2390 0157 0D       		.uleb128 0xd
 2391 0158 00       		.byte	0
 2392 0159 03       		.uleb128 0x3
 2393 015a 0E       		.uleb128 0xe
 2394 015b 3A       		.uleb128 0x3a
 2395 015c 0B       		.uleb128 0xb
 2396 015d 3B       		.uleb128 0x3b
 2397 015e 05       		.uleb128 0x5
 2398 015f 49       		.uleb128 0x49
 2399 0160 13       		.uleb128 0x13
 2400 0161 00       		.byte	0
 2401 0162 00       		.byte	0
 2402 0163 1E       		.uleb128 0x1e
 2403 0164 15       		.uleb128 0x15
 2404 0165 01       		.byte	0x1
 2405 0166 27       		.uleb128 0x27
 2406 0167 19       		.uleb128 0x19
 2407 0168 01       		.uleb128 0x1
 2408 0169 13       		.uleb128 0x13
 2409 016a 00       		.byte	0
 2410 016b 00       		.byte	0
 2411 016c 1F       		.uleb128 0x1f
 2412 016d 34       		.uleb128 0x34
 2413 016e 00       		.byte	0
 2414 016f 03       		.uleb128 0x3
 2415 0170 0E       		.uleb128 0xe
 2416 0171 3A       		.uleb128 0x3a
 2417 0172 0B       		.uleb128 0xb
 2418 0173 3B       		.uleb128 0x3b
 2419 0174 05       		.uleb128 0x5
 2420 0175 49       		.uleb128 0x49
 2421 0176 13       		.uleb128 0x13
 2422 0177 3F       		.uleb128 0x3f
 2423 0178 19       		.uleb128 0x19
 2424 0179 3C       		.uleb128 0x3c
 2425 017a 19       		.uleb128 0x19
ARM GAS  /var/folders/3j/4xdnk5197cv_b7cw3n33qk7r0000gn/T//ccZnsgjt.s 			page 44


 2426 017b 00       		.byte	0
 2427 017c 00       		.byte	0
 2428 017d 20       		.uleb128 0x20
 2429 017e 34       		.uleb128 0x34
 2430 017f 00       		.byte	0
 2431 0180 03       		.uleb128 0x3
 2432 0181 0E       		.uleb128 0xe
 2433 0182 3A       		.uleb128 0x3a
 2434 0183 0B       		.uleb128 0xb
 2435 0184 3B       		.uleb128 0x3b
 2436 0185 0B       		.uleb128 0xb
 2437 0186 49       		.uleb128 0x49
 2438 0187 13       		.uleb128 0x13
 2439 0188 3F       		.uleb128 0x3f
 2440 0189 19       		.uleb128 0x19
 2441 018a 3C       		.uleb128 0x3c
 2442 018b 19       		.uleb128 0x19
 2443 018c 00       		.byte	0
 2444 018d 00       		.byte	0
 2445 018e 21       		.uleb128 0x21
 2446 018f 04       		.uleb128 0x4
 2447 0190 01       		.byte	0x1
 2448 0191 03       		.uleb128 0x3
 2449 0192 0E       		.uleb128 0xe
 2450 0193 3E       		.uleb128 0x3e
 2451 0194 0B       		.uleb128 0xb
 2452 0195 0B       		.uleb128 0xb
 2453 0196 0B       		.uleb128 0xb
 2454 0197 49       		.uleb128 0x49
 2455 0198 13       		.uleb128 0x13
 2456 0199 3A       		.uleb128 0x3a
 2457 019a 0B       		.uleb128 0xb
 2458 019b 3B       		.uleb128 0x3b
 2459 019c 05       		.uleb128 0x5
 2460 019d 01       		.uleb128 0x1
 2461 019e 13       		.uleb128 0x13
 2462 019f 00       		.byte	0
 2463 01a0 00       		.byte	0
 2464 01a1 22       		.uleb128 0x22
 2465 01a2 28       		.uleb128 0x28
 2466 01a3 00       		.byte	0
 2467 01a4 03       		.uleb128 0x3
 2468 01a5 0E       		.uleb128 0xe
 2469 01a6 1C       		.uleb128 0x1c
 2470 01a7 0D       		.uleb128 0xd
 2471 01a8 00       		.byte	0
 2472 01a9 00       		.byte	0
 2473 01aa 23       		.uleb128 0x23
 2474 01ab 28       		.uleb128 0x28
 2475 01ac 00       		.byte	0
 2476 01ad 03       		.uleb128 0x3
 2477 01ae 0E       		.uleb128 0xe
 2478 01af 1C       		.uleb128 0x1c
 2479 01b0 0B       		.uleb128 0xb
 2480 01b1 00       		.byte	0
 2481 01b2 00       		.byte	0
 2482 01b3 24       		.uleb128 0x24
ARM GAS  /var/folders/3j/4xdnk5197cv_b7cw3n33qk7r0000gn/T//ccZnsgjt.s 			page 45


 2483 01b4 2E       		.uleb128 0x2e
 2484 01b5 01       		.byte	0x1
 2485 01b6 3F       		.uleb128 0x3f
 2486 01b7 19       		.uleb128 0x19
 2487 01b8 03       		.uleb128 0x3
 2488 01b9 0E       		.uleb128 0xe
 2489 01ba 3A       		.uleb128 0x3a
 2490 01bb 0B       		.uleb128 0xb
 2491 01bc 3B       		.uleb128 0x3b
 2492 01bd 0B       		.uleb128 0xb
 2493 01be 27       		.uleb128 0x27
 2494 01bf 19       		.uleb128 0x19
 2495 01c0 49       		.uleb128 0x49
 2496 01c1 13       		.uleb128 0x13
 2497 01c2 11       		.uleb128 0x11
 2498 01c3 01       		.uleb128 0x1
 2499 01c4 12       		.uleb128 0x12
 2500 01c5 06       		.uleb128 0x6
 2501 01c6 40       		.uleb128 0x40
 2502 01c7 18       		.uleb128 0x18
 2503 01c8 9742     		.uleb128 0x2117
 2504 01ca 19       		.uleb128 0x19
 2505 01cb 01       		.uleb128 0x1
 2506 01cc 13       		.uleb128 0x13
 2507 01cd 00       		.byte	0
 2508 01ce 00       		.byte	0
 2509 01cf 25       		.uleb128 0x25
 2510 01d0 05       		.uleb128 0x5
 2511 01d1 00       		.byte	0
 2512 01d2 03       		.uleb128 0x3
 2513 01d3 0E       		.uleb128 0xe
 2514 01d4 3A       		.uleb128 0x3a
 2515 01d5 0B       		.uleb128 0xb
 2516 01d6 3B       		.uleb128 0x3b
 2517 01d7 0B       		.uleb128 0xb
 2518 01d8 49       		.uleb128 0x49
 2519 01d9 13       		.uleb128 0x13
 2520 01da 02       		.uleb128 0x2
 2521 01db 17       		.uleb128 0x17
 2522 01dc 00       		.byte	0
 2523 01dd 00       		.byte	0
 2524 01de 26       		.uleb128 0x26
 2525 01df 34       		.uleb128 0x34
 2526 01e0 00       		.byte	0
 2527 01e1 03       		.uleb128 0x3
 2528 01e2 0E       		.uleb128 0xe
 2529 01e3 3A       		.uleb128 0x3a
 2530 01e4 0B       		.uleb128 0xb
 2531 01e5 3B       		.uleb128 0x3b
 2532 01e6 0B       		.uleb128 0xb
 2533 01e7 49       		.uleb128 0x49
 2534 01e8 13       		.uleb128 0x13
 2535 01e9 02       		.uleb128 0x2
 2536 01ea 17       		.uleb128 0x17
 2537 01eb 00       		.byte	0
 2538 01ec 00       		.byte	0
 2539 01ed 27       		.uleb128 0x27
ARM GAS  /var/folders/3j/4xdnk5197cv_b7cw3n33qk7r0000gn/T//ccZnsgjt.s 			page 46


 2540 01ee 34       		.uleb128 0x34
 2541 01ef 00       		.byte	0
 2542 01f0 03       		.uleb128 0x3
 2543 01f1 0E       		.uleb128 0xe
 2544 01f2 3A       		.uleb128 0x3a
 2545 01f3 0B       		.uleb128 0xb
 2546 01f4 3B       		.uleb128 0x3b
 2547 01f5 0B       		.uleb128 0xb
 2548 01f6 49       		.uleb128 0x49
 2549 01f7 13       		.uleb128 0x13
 2550 01f8 00       		.byte	0
 2551 01f9 00       		.byte	0
 2552 01fa 28       		.uleb128 0x28
 2553 01fb 34       		.uleb128 0x34
 2554 01fc 00       		.byte	0
 2555 01fd 03       		.uleb128 0x3
 2556 01fe 08       		.uleb128 0x8
 2557 01ff 3A       		.uleb128 0x3a
 2558 0200 0B       		.uleb128 0xb
 2559 0201 3B       		.uleb128 0x3b
 2560 0202 0B       		.uleb128 0xb
 2561 0203 49       		.uleb128 0x49
 2562 0204 13       		.uleb128 0x13
 2563 0205 1C       		.uleb128 0x1c
 2564 0206 0B       		.uleb128 0xb
 2565 0207 00       		.byte	0
 2566 0208 00       		.byte	0
 2567 0209 29       		.uleb128 0x29
 2568 020a 0B       		.uleb128 0xb
 2569 020b 01       		.byte	0x1
 2570 020c 55       		.uleb128 0x55
 2571 020d 17       		.uleb128 0x17
 2572 020e 01       		.uleb128 0x1
 2573 020f 13       		.uleb128 0x13
 2574 0210 00       		.byte	0
 2575 0211 00       		.byte	0
 2576 0212 2A       		.uleb128 0x2a
 2577 0213 2E       		.uleb128 0x2e
 2578 0214 01       		.byte	0x1
 2579 0215 3F       		.uleb128 0x3f
 2580 0216 19       		.uleb128 0x19
 2581 0217 03       		.uleb128 0x3
 2582 0218 0E       		.uleb128 0xe
 2583 0219 3A       		.uleb128 0x3a
 2584 021a 0B       		.uleb128 0xb
 2585 021b 3B       		.uleb128 0x3b
 2586 021c 0B       		.uleb128 0xb
 2587 021d 49       		.uleb128 0x49
 2588 021e 13       		.uleb128 0x13
 2589 021f 3C       		.uleb128 0x3c
 2590 0220 19       		.uleb128 0x19
 2591 0221 01       		.uleb128 0x1
 2592 0222 13       		.uleb128 0x13
 2593 0223 00       		.byte	0
 2594 0224 00       		.byte	0
 2595 0225 2B       		.uleb128 0x2b
 2596 0226 18       		.uleb128 0x18
ARM GAS  /var/folders/3j/4xdnk5197cv_b7cw3n33qk7r0000gn/T//ccZnsgjt.s 			page 47


 2597 0227 00       		.byte	0
 2598 0228 00       		.byte	0
 2599 0229 00       		.byte	0
 2600 022a 2C       		.uleb128 0x2c
 2601 022b 898201   		.uleb128 0x4109
 2602 022e 00       		.byte	0
 2603 022f 11       		.uleb128 0x11
 2604 0230 01       		.uleb128 0x1
 2605 0231 31       		.uleb128 0x31
 2606 0232 13       		.uleb128 0x13
 2607 0233 00       		.byte	0
 2608 0234 00       		.byte	0
 2609 0235 2D       		.uleb128 0x2d
 2610 0236 0B       		.uleb128 0xb
 2611 0237 01       		.byte	0x1
 2612 0238 11       		.uleb128 0x11
 2613 0239 01       		.uleb128 0x1
 2614 023a 12       		.uleb128 0x12
 2615 023b 06       		.uleb128 0x6
 2616 023c 01       		.uleb128 0x1
 2617 023d 13       		.uleb128 0x13
 2618 023e 00       		.byte	0
 2619 023f 00       		.byte	0
 2620 0240 2E       		.uleb128 0x2e
 2621 0241 898201   		.uleb128 0x4109
 2622 0244 01       		.byte	0x1
 2623 0245 11       		.uleb128 0x11
 2624 0246 01       		.uleb128 0x1
 2625 0247 31       		.uleb128 0x31
 2626 0248 13       		.uleb128 0x13
 2627 0249 00       		.byte	0
 2628 024a 00       		.byte	0
 2629 024b 2F       		.uleb128 0x2f
 2630 024c 8A8201   		.uleb128 0x410a
 2631 024f 00       		.byte	0
 2632 0250 02       		.uleb128 0x2
 2633 0251 18       		.uleb128 0x18
 2634 0252 9142     		.uleb128 0x2111
 2635 0254 18       		.uleb128 0x18
 2636 0255 00       		.byte	0
 2637 0256 00       		.byte	0
 2638 0257 30       		.uleb128 0x30
 2639 0258 1D       		.uleb128 0x1d
 2640 0259 01       		.byte	0x1
 2641 025a 31       		.uleb128 0x31
 2642 025b 13       		.uleb128 0x13
 2643 025c 11       		.uleb128 0x11
 2644 025d 01       		.uleb128 0x1
 2645 025e 12       		.uleb128 0x12
 2646 025f 06       		.uleb128 0x6
 2647 0260 58       		.uleb128 0x58
 2648 0261 0B       		.uleb128 0xb
 2649 0262 59       		.uleb128 0x59
 2650 0263 0B       		.uleb128 0xb
 2651 0264 01       		.uleb128 0x1
 2652 0265 13       		.uleb128 0x13
 2653 0266 00       		.byte	0
ARM GAS  /var/folders/3j/4xdnk5197cv_b7cw3n33qk7r0000gn/T//ccZnsgjt.s 			page 48


 2654 0267 00       		.byte	0
 2655 0268 31       		.uleb128 0x31
 2656 0269 05       		.uleb128 0x5
 2657 026a 00       		.byte	0
 2658 026b 31       		.uleb128 0x31
 2659 026c 13       		.uleb128 0x13
 2660 026d 02       		.uleb128 0x2
 2661 026e 17       		.uleb128 0x17
 2662 026f 00       		.byte	0
 2663 0270 00       		.byte	0
 2664 0271 32       		.uleb128 0x32
 2665 0272 898201   		.uleb128 0x4109
 2666 0275 01       		.byte	0x1
 2667 0276 11       		.uleb128 0x11
 2668 0277 01       		.uleb128 0x1
 2669 0278 31       		.uleb128 0x31
 2670 0279 13       		.uleb128 0x13
 2671 027a 01       		.uleb128 0x1
 2672 027b 13       		.uleb128 0x13
 2673 027c 00       		.byte	0
 2674 027d 00       		.byte	0
 2675 027e 33       		.uleb128 0x33
 2676 027f 2E       		.uleb128 0x2e
 2677 0280 01       		.byte	0x1
 2678 0281 3F       		.uleb128 0x3f
 2679 0282 19       		.uleb128 0x19
 2680 0283 03       		.uleb128 0x3
 2681 0284 0E       		.uleb128 0xe
 2682 0285 3A       		.uleb128 0x3a
 2683 0286 0B       		.uleb128 0xb
 2684 0287 3B       		.uleb128 0x3b
 2685 0288 0B       		.uleb128 0xb
 2686 0289 27       		.uleb128 0x27
 2687 028a 19       		.uleb128 0x19
 2688 028b 49       		.uleb128 0x49
 2689 028c 13       		.uleb128 0x13
 2690 028d 20       		.uleb128 0x20
 2691 028e 0B       		.uleb128 0xb
 2692 028f 01       		.uleb128 0x1
 2693 0290 13       		.uleb128 0x13
 2694 0291 00       		.byte	0
 2695 0292 00       		.byte	0
 2696 0293 34       		.uleb128 0x34
 2697 0294 05       		.uleb128 0x5
 2698 0295 00       		.byte	0
 2699 0296 03       		.uleb128 0x3
 2700 0297 0E       		.uleb128 0xe
 2701 0298 3A       		.uleb128 0x3a
 2702 0299 0B       		.uleb128 0xb
 2703 029a 3B       		.uleb128 0x3b
 2704 029b 0B       		.uleb128 0xb
 2705 029c 49       		.uleb128 0x49
 2706 029d 13       		.uleb128 0x13
 2707 029e 00       		.byte	0
 2708 029f 00       		.byte	0
 2709 02a0 35       		.uleb128 0x35
 2710 02a1 2E       		.uleb128 0x2e
ARM GAS  /var/folders/3j/4xdnk5197cv_b7cw3n33qk7r0000gn/T//ccZnsgjt.s 			page 49


 2711 02a2 01       		.byte	0x1
 2712 02a3 31       		.uleb128 0x31
 2713 02a4 13       		.uleb128 0x13
 2714 02a5 11       		.uleb128 0x11
 2715 02a6 01       		.uleb128 0x1
 2716 02a7 12       		.uleb128 0x12
 2717 02a8 06       		.uleb128 0x6
 2718 02a9 40       		.uleb128 0x40
 2719 02aa 18       		.uleb128 0x18
 2720 02ab 9742     		.uleb128 0x2117
 2721 02ad 19       		.uleb128 0x19
 2722 02ae 01       		.uleb128 0x1
 2723 02af 13       		.uleb128 0x13
 2724 02b0 00       		.byte	0
 2725 02b1 00       		.byte	0
 2726 02b2 36       		.uleb128 0x36
 2727 02b3 2E       		.uleb128 0x2e
 2728 02b4 00       		.byte	0
 2729 02b5 3F       		.uleb128 0x3f
 2730 02b6 19       		.uleb128 0x19
 2731 02b7 3C       		.uleb128 0x3c
 2732 02b8 19       		.uleb128 0x19
 2733 02b9 6E       		.uleb128 0x6e
 2734 02ba 0E       		.uleb128 0xe
 2735 02bb 03       		.uleb128 0x3
 2736 02bc 0E       		.uleb128 0xe
 2737 02bd 3A       		.uleb128 0x3a
 2738 02be 0B       		.uleb128 0xb
 2739 02bf 3B       		.uleb128 0x3b
 2740 02c0 0B       		.uleb128 0xb
 2741 02c1 00       		.byte	0
 2742 02c2 00       		.byte	0
 2743 02c3 37       		.uleb128 0x37
 2744 02c4 2E       		.uleb128 0x2e
 2745 02c5 00       		.byte	0
 2746 02c6 3F       		.uleb128 0x3f
 2747 02c7 19       		.uleb128 0x19
 2748 02c8 3C       		.uleb128 0x3c
 2749 02c9 19       		.uleb128 0x19
 2750 02ca 6E       		.uleb128 0x6e
 2751 02cb 0E       		.uleb128 0xe
 2752 02cc 03       		.uleb128 0x3
 2753 02cd 0E       		.uleb128 0xe
 2754 02ce 3A       		.uleb128 0x3a
 2755 02cf 0B       		.uleb128 0xb
 2756 02d0 3B       		.uleb128 0x3b
 2757 02d1 0B       		.uleb128 0xb
 2758 02d2 6E       		.uleb128 0x6e
 2759 02d3 0E       		.uleb128 0xe
 2760 02d4 00       		.byte	0
 2761 02d5 00       		.byte	0
 2762 02d6 00       		.byte	0
 2763              		.section	.debug_loc,"",%progbits
 2764              	.Ldebug_loc0:
 2765              	.LLST2:
 2766 0000 00000000 		.4byte	.LVL5
 2767 0004 18000000 		.4byte	.LVL6
ARM GAS  /var/folders/3j/4xdnk5197cv_b7cw3n33qk7r0000gn/T//ccZnsgjt.s 			page 50


 2768 0008 0100     		.2byte	0x1
 2769 000a 50       		.byte	0x50
 2770 000b 18000000 		.4byte	.LVL6
 2771 000f 6C010000 		.4byte	.LVL42
 2772 0013 0400     		.2byte	0x4
 2773 0015 F3       		.byte	0xf3
 2774 0016 01       		.uleb128 0x1
 2775 0017 50       		.byte	0x50
 2776 0018 9F       		.byte	0x9f
 2777 0019 6C010000 		.4byte	.LVL42
 2778 001d 70010000 		.4byte	.LVL43
 2779 0021 0100     		.2byte	0x1
 2780 0023 50       		.byte	0x50
 2781 0024 70010000 		.4byte	.LVL43
 2782 0028 C4010000 		.4byte	.LFE21
 2783 002c 0400     		.2byte	0x4
 2784 002e F3       		.byte	0xf3
 2785 002f 01       		.uleb128 0x1
 2786 0030 50       		.byte	0x50
 2787 0031 9F       		.byte	0x9f
 2788 0032 00000000 		.4byte	0
 2789 0036 00000000 		.4byte	0
 2790              	.LLST3:
 2791 003a 00000000 		.4byte	.LVL5
 2792 003e 1C000000 		.4byte	.LVL7
 2793 0042 0100     		.2byte	0x1
 2794 0044 51       		.byte	0x51
 2795 0045 1C000000 		.4byte	.LVL7
 2796 0049 80000000 		.4byte	.LVL18
 2797 004d 0100     		.2byte	0x1
 2798 004f 54       		.byte	0x54
 2799 0050 80000000 		.4byte	.LVL18
 2800 0054 F4000000 		.4byte	.LVL29
 2801 0058 0400     		.2byte	0x4
 2802 005a F3       		.byte	0xf3
 2803 005b 01       		.uleb128 0x1
 2804 005c 51       		.byte	0x51
 2805 005d 9F       		.byte	0x9f
 2806 005e F4000000 		.4byte	.LVL29
 2807 0062 0C010000 		.4byte	.LVL35
 2808 0066 0100     		.2byte	0x1
 2809 0068 54       		.byte	0x54
 2810 0069 0C010000 		.4byte	.LVL35
 2811 006d 4C010000 		.4byte	.LVL39
 2812 0071 0400     		.2byte	0x4
 2813 0073 F3       		.byte	0xf3
 2814 0074 01       		.uleb128 0x1
 2815 0075 51       		.byte	0x51
 2816 0076 9F       		.byte	0x9f
 2817 0077 4C010000 		.4byte	.LVL39
 2818 007b 6C010000 		.4byte	.LVL42
 2819 007f 0100     		.2byte	0x1
 2820 0081 54       		.byte	0x54
 2821 0082 6C010000 		.4byte	.LVL42
 2822 0086 73010000 		.4byte	.LVL44-1
 2823 008a 0100     		.2byte	0x1
 2824 008c 51       		.byte	0x51
ARM GAS  /var/folders/3j/4xdnk5197cv_b7cw3n33qk7r0000gn/T//ccZnsgjt.s 			page 51


 2825 008d 73010000 		.4byte	.LVL44-1
 2826 0091 C4010000 		.4byte	.LFE21
 2827 0095 0400     		.2byte	0x4
 2828 0097 F3       		.byte	0xf3
 2829 0098 01       		.uleb128 0x1
 2830 0099 51       		.byte	0x51
 2831 009a 9F       		.byte	0x9f
 2832 009b 00000000 		.4byte	0
 2833 009f 00000000 		.4byte	0
 2834              	.LLST4:
 2835 00a3 7C000000 		.4byte	.LVL17
 2836 00a7 8B000000 		.4byte	.LVL20-1
 2837 00ab 0100     		.2byte	0x1
 2838 00ad 50       		.byte	0x50
 2839 00ae 8B000000 		.4byte	.LVL20-1
 2840 00b2 F4000000 		.4byte	.LVL29
 2841 00b6 0100     		.2byte	0x1
 2842 00b8 54       		.byte	0x54
 2843 00b9 0C010000 		.4byte	.LVL35
 2844 00bd 4C010000 		.4byte	.LVL39
 2845 00c1 0100     		.2byte	0x1
 2846 00c3 54       		.byte	0x54
 2847 00c4 7C010000 		.4byte	.LVL45
 2848 00c8 94010000 		.4byte	.LVL46
 2849 00cc 0100     		.2byte	0x1
 2850 00ce 50       		.byte	0x50
 2851 00cf 94010000 		.4byte	.LVL46
 2852 00d3 C4010000 		.4byte	.LFE21
 2853 00d7 0100     		.2byte	0x1
 2854 00d9 54       		.byte	0x54
 2855 00da 00000000 		.4byte	0
 2856 00de 00000000 		.4byte	0
 2857              	.LLST5:
 2858 00e2 3C000000 		.4byte	.LVL10
 2859 00e6 44000000 		.4byte	.LVL11
 2860 00ea 0100     		.2byte	0x1
 2861 00ec 50       		.byte	0x50
 2862 00ed 44000000 		.4byte	.LVL11
 2863 00f1 F4000000 		.4byte	.LVL29
 2864 00f5 0100     		.2byte	0x1
 2865 00f7 55       		.byte	0x55
 2866 00f8 FC000000 		.4byte	.LVL31
 2867 00fc 00010000 		.4byte	.LVL32
 2868 0100 0100     		.2byte	0x1
 2869 0102 50       		.byte	0x50
 2870 0103 00010000 		.4byte	.LVL32
 2871 0107 6C010000 		.4byte	.LVL42
 2872 010b 0100     		.2byte	0x1
 2873 010d 55       		.byte	0x55
 2874 010e 7C010000 		.4byte	.LVL45
 2875 0112 C4010000 		.4byte	.LFE21
 2876 0116 0100     		.2byte	0x1
 2877 0118 55       		.byte	0x55
 2878 0119 00000000 		.4byte	0
 2879 011d 00000000 		.4byte	0
 2880              	.LLST6:
 2881 0121 64000000 		.4byte	.LVL14
ARM GAS  /var/folders/3j/4xdnk5197cv_b7cw3n33qk7r0000gn/T//ccZnsgjt.s 			page 52


 2882 0125 78000000 		.4byte	.LVL16
 2883 0129 0100     		.2byte	0x1
 2884 012b 50       		.byte	0x50
 2885 012c 78000000 		.4byte	.LVL16
 2886 0130 F4000000 		.4byte	.LVL29
 2887 0134 0100     		.2byte	0x1
 2888 0136 56       		.byte	0x56
 2889 0137 08010000 		.4byte	.LVL34
 2890 013b 0C010000 		.4byte	.LVL35
 2891 013f 0100     		.2byte	0x1
 2892 0141 50       		.byte	0x50
 2893 0142 0C010000 		.4byte	.LVL35
 2894 0146 4C010000 		.4byte	.LVL39
 2895 014a 0100     		.2byte	0x1
 2896 014c 56       		.byte	0x56
 2897 014d 4C010000 		.4byte	.LVL39
 2898 0151 60010000 		.4byte	.LVL40
 2899 0155 0100     		.2byte	0x1
 2900 0157 50       		.byte	0x50
 2901 0158 60010000 		.4byte	.LVL40
 2902 015c 6C010000 		.4byte	.LVL42
 2903 0160 0100     		.2byte	0x1
 2904 0162 56       		.byte	0x56
 2905 0163 7C010000 		.4byte	.LVL45
 2906 0167 C4010000 		.4byte	.LFE21
 2907 016b 0100     		.2byte	0x1
 2908 016d 56       		.byte	0x56
 2909 016e 00000000 		.4byte	0
 2910 0172 00000000 		.4byte	0
 2911              	.LLST7:
 2912 0176 64000000 		.4byte	.LVL14
 2913 017a 70000000 		.4byte	.LVL15
 2914 017e 0100     		.2byte	0x1
 2915 0180 55       		.byte	0x55
 2916 0181 00000000 		.4byte	0
 2917 0185 00000000 		.4byte	0
 2918              	.LLST8:
 2919 0189 84000000 		.4byte	.LVL19
 2920 018d 8B000000 		.4byte	.LVL20-1
 2921 0191 0100     		.2byte	0x1
 2922 0193 50       		.byte	0x50
 2923 0194 8B000000 		.4byte	.LVL20-1
 2924 0198 94000000 		.4byte	.LVL21
 2925 019c 0100     		.2byte	0x1
 2926 019e 54       		.byte	0x54
 2927 019f 00000000 		.4byte	0
 2928 01a3 00000000 		.4byte	0
 2929              	.LLST9:
 2930 01a7 C8000000 		.4byte	.LVL25
 2931 01ab DC000000 		.4byte	.LVL27
 2932 01af 0100     		.2byte	0x1
 2933 01b1 54       		.byte	0x54
 2934 01b2 00000000 		.4byte	0
 2935 01b6 00000000 		.4byte	0
 2936              	.LLST0:
 2937 01ba 00000000 		.4byte	.LVL0
 2938 01be 04000000 		.4byte	.LVL1
ARM GAS  /var/folders/3j/4xdnk5197cv_b7cw3n33qk7r0000gn/T//ccZnsgjt.s 			page 53


 2939 01c2 0100     		.2byte	0x1
 2940 01c4 50       		.byte	0x50
 2941 01c5 04000000 		.4byte	.LVL1
 2942 01c9 0C000000 		.4byte	.LVL2
 2943 01cd 0300     		.2byte	0x3
 2944 01cf 70       		.byte	0x70
 2945 01d0 03       		.sleb128 3
 2946 01d1 9F       		.byte	0x9f
 2947 01d2 0C000000 		.4byte	.LVL2
 2948 01d6 14000000 		.4byte	.LFE19
 2949 01da 0400     		.2byte	0x4
 2950 01dc F3       		.byte	0xf3
 2951 01dd 01       		.uleb128 0x1
 2952 01de 50       		.byte	0x50
 2953 01df 9F       		.byte	0x9f
 2954 01e0 00000000 		.4byte	0
 2955 01e4 00000000 		.4byte	0
 2956              	.LLST1:
 2957 01e8 00000000 		.4byte	.LVL3
 2958 01ec 0B000000 		.4byte	.LVL4-1
 2959 01f0 0100     		.2byte	0x1
 2960 01f2 50       		.byte	0x50
 2961 01f3 0B000000 		.4byte	.LVL4-1
 2962 01f7 1C000000 		.4byte	.LFE20
 2963 01fb 0400     		.2byte	0x4
 2964 01fd F3       		.byte	0xf3
 2965 01fe 01       		.uleb128 0x1
 2966 01ff 50       		.byte	0x50
 2967 0200 9F       		.byte	0x9f
 2968 0201 00000000 		.4byte	0
 2969 0205 00000000 		.4byte	0
 2970              		.section	.debug_aranges,"",%progbits
 2971 0000 2C000000 		.4byte	0x2c
 2972 0004 0200     		.2byte	0x2
 2973 0006 00000000 		.4byte	.Ldebug_info0
 2974 000a 04       		.byte	0x4
 2975 000b 00       		.byte	0
 2976 000c 0000     		.2byte	0
 2977 000e 0000     		.2byte	0
 2978 0010 00000000 		.4byte	.LFB19
 2979 0014 14000000 		.4byte	.LFE19-.LFB19
 2980 0018 00000000 		.4byte	.LFB20
 2981 001c 1C000000 		.4byte	.LFE20-.LFB20
 2982 0020 00000000 		.4byte	.LFB21
 2983 0024 C4010000 		.4byte	.LFE21-.LFB21
 2984 0028 00000000 		.4byte	0
 2985 002c 00000000 		.4byte	0
 2986              		.section	.debug_ranges,"",%progbits
 2987              	.Ldebug_ranges0:
 2988 0000 24000000 		.4byte	.LBB14
 2989 0004 28000000 		.4byte	.LBE14
 2990 0008 F4000000 		.4byte	.LBB23
 2991 000c FC000000 		.4byte	.LBE23
 2992 0010 00000000 		.4byte	0
 2993 0014 00000000 		.4byte	0
 2994 0018 00000000 		.4byte	.LFB19
 2995 001c 14000000 		.4byte	.LFE19
ARM GAS  /var/folders/3j/4xdnk5197cv_b7cw3n33qk7r0000gn/T//ccZnsgjt.s 			page 54


 2996 0020 00000000 		.4byte	.LFB20
 2997 0024 1C000000 		.4byte	.LFE20
 2998 0028 00000000 		.4byte	.LFB21
 2999 002c C4010000 		.4byte	.LFE21
 3000 0030 00000000 		.4byte	0
 3001 0034 00000000 		.4byte	0
 3002              		.section	.debug_line,"",%progbits
 3003              	.Ldebug_line0:
 3004 0000 20020000 		.section	.debug_str,"MS",%progbits,1
 3004      0200A801 
 3004      00000201 
 3004      FB0E0D00 
 3004      01010101 
 3005              	.LASF38:
 3006 0000 5F64736F 		.ascii	"_dso_handle\000"
 3006      5F68616E 
 3006      646C6500 
 3007              	.LASF46:
 3008 000c 5F73697A 		.ascii	"_size\000"
 3008      6500
 3009              	.LASF151:
 3010 0012 49324357 		.ascii	"I2CWrapperWriteByte\000"
 3010      72617070 
 3010      65725772 
 3010      69746542 
 3010      79746500 
 3011              	.LASF91:
 3012 0026 5F72616E 		.ascii	"_rand48\000"
 3012      64343800 
 3013              	.LASF70:
 3014 002e 5F656D65 		.ascii	"_emergency\000"
 3014      7267656E 
 3014      637900
 3015              	.LASF128:
 3016 0039 5F646179 		.ascii	"_daylight\000"
 3016      6C696768 
 3016      7400
 3017              	.LASF149:
 3018 0043 73747273 		.ascii	"strstr\000"
 3018      747200
 3019              	.LASF162:
 3020 004a 2E2E2F2F 		.ascii	"..//A2D_PIC_RPI/src/A2DAddress.c\000"
 3020      4132445F 
 3020      5049435F 
 3020      5250492F 
 3020      7372632F 
 3021              	.LASF60:
 3022 006b 5F646174 		.ascii	"_data\000"
 3022      6100
 3023              	.LASF111:
 3024 0071 5F776372 		.ascii	"_wcrtomb_state\000"
 3024      746F6D62 
 3024      5F737461 
 3024      746500
 3025              	.LASF112:
 3026 0080 5F776373 		.ascii	"_wcsrtombs_state\000"
 3026      72746F6D 
ARM GAS  /var/folders/3j/4xdnk5197cv_b7cw3n33qk7r0000gn/T//ccZnsgjt.s 			page 55


 3026      62735F73 
 3026      74617465 
 3026      00
 3027              	.LASF155:
 3028 0091 7072696E 		.ascii	"printf\000"
 3028      746600
 3029              	.LASF7:
 3030 0098 6C6F6E67 		.ascii	"long long unsigned int\000"
 3030      206C6F6E 
 3030      6720756E 
 3030      7369676E 
 3030      65642069 
 3031              	.LASF135:
 3032 00af 5F5F6664 		.ascii	"__fdlibm_posix\000"
 3032      6C69626D 
 3032      5F706F73 
 3032      697800
 3033              	.LASF50:
 3034 00be 5F6C6266 		.ascii	"_lbfsize\000"
 3034      73697A65 
 3034      00
 3035              	.LASF118:
 3036 00c7 5F5F6C6F 		.ascii	"__locale_t\000"
 3036      63616C65 
 3036      5F7400
 3037              	.LASF134:
 3038 00d2 5F5F6664 		.ascii	"__fdlibm_xopen\000"
 3038      6C69626D 
 3038      5F786F70 
 3038      656E00
 3039              	.LASF109:
 3040 00e1 5F6D6272 		.ascii	"_mbrtowc_state\000"
 3040      746F7763 
 3040      5F737461 
 3040      746500
 3041              	.LASF129:
 3042 00f0 5F747A6E 		.ascii	"_tzname\000"
 3042      616D6500 
 3043              	.LASF27:
 3044 00f8 5F5F746D 		.ascii	"__tm_sec\000"
 3044      5F736563 
 3044      00
 3045              	.LASF6:
 3046 0101 6C6F6E67 		.ascii	"long long int\000"
 3046      206C6F6E 
 3046      6720696E 
 3046      7400
 3047              	.LASF0:
 3048 010f 7369676E 		.ascii	"signed char\000"
 3048      65642063 
 3048      68617200 
 3049              	.LASF160:
 3050 011b 5F5F6275 		.ascii	"__builtin_fwrite\000"
 3050      696C7469 
 3050      6E5F6677 
 3050      72697465 
 3050      00
ARM GAS  /var/folders/3j/4xdnk5197cv_b7cw3n33qk7r0000gn/T//ccZnsgjt.s 			page 56


 3051              	.LASF56:
 3052 012c 5F756275 		.ascii	"_ubuf\000"
 3052      6600
 3053              	.LASF156:
 3054 0132 66707269 		.ascii	"fprintf\000"
 3054      6E746600 
 3055              	.LASF45:
 3056 013a 5F626173 		.ascii	"_base\000"
 3056      6500
 3057              	.LASF29:
 3058 0140 5F5F746D 		.ascii	"__tm_hour\000"
 3058      5F686F75 
 3058      7200
 3059              	.LASF85:
 3060 014a 5F5F7366 		.ascii	"__sf\000"
 3060      00
 3061              	.LASF36:
 3062 014f 5F6F6E5F 		.ascii	"_on_exit_args\000"
 3062      65786974 
 3062      5F617267 
 3062      7300
 3063              	.LASF161:
 3064 015d 474E5520 		.ascii	"GNU C11 7.3.1 20180622 (release) [ARM/embedded-7-br"
 3064      43313120 
 3064      372E332E 
 3064      31203230 
 3064      31383036 
 3065 0190 616E6368 		.ascii	"anch revision 261907] -mcpu=arm1176jz-s -mno-thumb-"
 3065      20726576 
 3065      6973696F 
 3065      6E203236 
 3065      31393037 
 3066 01c3 696E7465 		.ascii	"interwork -ggdb -O2 -fomit-frame-pointer -ffunction"
 3066      72776F72 
 3066      6B202D67 
 3066      67646220 
 3066      2D4F3220 
 3067 01f6 2D736563 		.ascii	"-sections -fdata-sections\000"
 3067      74696F6E 
 3067      73202D66 
 3067      64617461 
 3067      2D736563 
 3068              	.LASF51:
 3069 0210 5F636F6F 		.ascii	"_cookie\000"
 3069      6B696500 
 3070              	.LASF84:
 3071 0218 5F5F7367 		.ascii	"__sglue\000"
 3071      6C756500 
 3072              	.LASF4:
 3073 0220 6C6F6E67 		.ascii	"long int\000"
 3073      20696E74 
 3073      00
 3074              	.LASF48:
 3075 0229 5F666C61 		.ascii	"_flags\000"
 3075      677300
 3076              	.LASF40:
 3077 0230 5F69735F 		.ascii	"_is_cxa\000"
ARM GAS  /var/folders/3j/4xdnk5197cv_b7cw3n33qk7r0000gn/T//ccZnsgjt.s 			page 57


 3077      63786100 
 3078              	.LASF66:
 3079 0238 5F737464 		.ascii	"_stdin\000"
 3079      696E00
 3080              	.LASF133:
 3081 023f 5F5F6664 		.ascii	"__fdlibm_svid\000"
 3081      6C69626D 
 3081      5F737669 
 3081      6400
 3082              	.LASF159:
 3083 024d 5F5F6275 		.ascii	"__builtin_puts\000"
 3083      696C7469 
 3083      6E5F7075 
 3083      747300
 3084              	.LASF58:
 3085 025c 5F626C6B 		.ascii	"_blksize\000"
 3085      73697A65 
 3085      00
 3086              	.LASF154:
 3087 0265 49324357 		.ascii	"I2CWrapperSlaveAddress\000"
 3087      72617070 
 3087      6572536C 
 3087      61766541 
 3087      64647265 
 3088              	.LASF131:
 3089 027c 646F7562 		.ascii	"double\000"
 3089      6C6500
 3090              	.LASF80:
 3091 0283 5F637674 		.ascii	"_cvtbuf\000"
 3091      62756600 
 3092              	.LASF59:
 3093 028b 5F6F6666 		.ascii	"_offset\000"
 3093      73657400 
 3094              	.LASF152:
 3095 0293 49324357 		.ascii	"I2CWrapperWriteWord\000"
 3095      72617070 
 3095      65725772 
 3095      69746557 
 3095      6F726400 
 3096              	.LASF110:
 3097 02a7 5F6D6273 		.ascii	"_mbsrtowcs_state\000"
 3097      72746F77 
 3097      63735F73 
 3097      74617465 
 3097      00
 3098              	.LASF108:
 3099 02b8 5F6D6272 		.ascii	"_mbrlen_state\000"
 3099      6C656E5F 
 3099      73746174 
 3099      6500
 3100              	.LASF37:
 3101 02c6 5F666E61 		.ascii	"_fnargs\000"
 3101      72677300 
 3102              	.LASF43:
 3103 02ce 5F666E73 		.ascii	"_fns\000"
 3103      00
 3104              	.LASF23:
ARM GAS  /var/folders/3j/4xdnk5197cv_b7cw3n33qk7r0000gn/T//ccZnsgjt.s 			page 58


 3105 02d3 5F736967 		.ascii	"_sign\000"
 3105      6E00
 3106              	.LASF19:
 3107 02d9 5F666C6F 		.ascii	"_flock_t\000"
 3107      636B5F74 
 3107      00
 3108              	.LASF68:
 3109 02e2 5F737464 		.ascii	"_stderr\000"
 3109      65727200 
 3110              	.LASF25:
 3111 02ea 5F426967 		.ascii	"_Bigint\000"
 3111      696E7400 
 3112              	.LASF99:
 3113 02f2 5F67616D 		.ascii	"_gamma_signgam\000"
 3113      6D615F73 
 3113      69676E67 
 3113      616D00
 3114              	.LASF52:
 3115 0301 5F726561 		.ascii	"_read\000"
 3115      6400
 3116              	.LASF76:
 3117 0307 5F726573 		.ascii	"_result_k\000"
 3117      756C745F 
 3117      6B00
 3118              	.LASF26:
 3119 0311 5F5F746D 		.ascii	"__tm\000"
 3119      00
 3120              	.LASF8:
 3121 0316 756E7369 		.ascii	"unsigned int\000"
 3121      676E6564 
 3121      20696E74 
 3121      00
 3122              	.LASF15:
 3123 0323 5F5F7763 		.ascii	"__wchb\000"
 3123      686200
 3124              	.LASF67:
 3125 032a 5F737464 		.ascii	"_stdout\000"
 3125      6F757400 
 3126              	.LASF79:
 3127 0332 5F637674 		.ascii	"_cvtlen\000"
 3127      6C656E00 
 3128              	.LASF5:
 3129 033a 6C6F6E67 		.ascii	"long unsigned int\000"
 3129      20756E73 
 3129      69676E65 
 3129      6420696E 
 3129      7400
 3130              	.LASF49:
 3131 034c 5F66696C 		.ascii	"_file\000"
 3131      6500
 3132              	.LASF89:
 3133 0352 5F6E696F 		.ascii	"_niobs\000"
 3133      627300
 3134              	.LASF3:
 3135 0359 73686F72 		.ascii	"short unsigned int\000"
 3135      7420756E 
 3135      7369676E 
ARM GAS  /var/folders/3j/4xdnk5197cv_b7cw3n33qk7r0000gn/T//ccZnsgjt.s 			page 59


 3135      65642069 
 3135      6E7400
 3136              	.LASF153:
 3137 036c 736C6565 		.ascii	"sleep\000"
 3137      7000
 3138              	.LASF82:
 3139 0372 5F617465 		.ascii	"_atexit0\000"
 3139      78697430 
 3139      00
 3140              	.LASF106:
 3141 037b 5F736967 		.ascii	"_signal_buf\000"
 3141      6E616C5F 
 3141      62756600 
 3142              	.LASF97:
 3143 0387 5F617363 		.ascii	"_asctime_buf\000"
 3143      74696D65 
 3143      5F627566 
 3143      00
 3144              	.LASF75:
 3145 0394 5F726573 		.ascii	"_result\000"
 3145      756C7400 
 3146              	.LASF14:
 3147 039c 5F5F7763 		.ascii	"__wch\000"
 3147      6800
 3148              	.LASF10:
 3149 03a2 5F4C4F43 		.ascii	"_LOCK_T\000"
 3149      4B5F5400 
 3150              	.LASF121:
 3151 03aa 656E7669 		.ascii	"environ\000"
 3151      726F6E00 
 3152              	.LASF13:
 3153 03b2 77696E74 		.ascii	"wint_t\000"
 3153      5F7400
 3154              	.LASF61:
 3155 03b9 5F6C6F63 		.ascii	"_lock\000"
 3155      6B00
 3156              	.LASF147:
 3157 03bf 41646472 		.ascii	"Address\000"
 3157      65737300 
 3158              	.LASF63:
 3159 03c7 5F666C61 		.ascii	"_flags2\000"
 3159      67733200 
 3160              	.LASF126:
 3161 03cf 6F707472 		.ascii	"optreset\000"
 3161      65736574 
 3161      00
 3162              	.LASF53:
 3163 03d8 5F777269 		.ascii	"_write\000"
 3163      746500
 3164              	.LASF32:
 3165 03df 5F5F746D 		.ascii	"__tm_year\000"
 3165      5F796561 
 3165      7200
 3166              	.LASF157:
 3167 03e9 70757473 		.ascii	"puts\000"
 3167      00
 3168              	.LASF122:
ARM GAS  /var/folders/3j/4xdnk5197cv_b7cw3n33qk7r0000gn/T//ccZnsgjt.s 			page 60


 3169 03ee 6F707461 		.ascii	"optarg\000"
 3169      726700
 3170              	.LASF9:
 3171 03f5 6C6F6E67 		.ascii	"long double\000"
 3171      20646F75 
 3171      626C6500 
 3172              	.LASF123:
 3173 0401 6F707469 		.ascii	"optind\000"
 3173      6E6400
 3174              	.LASF114:
 3175 0408 5F6E6578 		.ascii	"_nextf\000"
 3175      746600
 3176              	.LASF31:
 3177 040f 5F5F746D 		.ascii	"__tm_mon\000"
 3177      5F6D6F6E 
 3177      00
 3178              	.LASF41:
 3179 0418 5F617465 		.ascii	"_atexit\000"
 3179      78697400 
 3180              	.LASF73:
 3181 0420 5F5F7364 		.ascii	"__sdidinit\000"
 3181      6964696E 
 3181      697400
 3182              	.LASF11:
 3183 042b 5F6F6666 		.ascii	"_off_t\000"
 3183      5F7400
 3184              	.LASF130:
 3185 0432 666C6F61 		.ascii	"float\000"
 3185      7400
 3186              	.LASF78:
 3187 0438 5F667265 		.ascii	"_freelist\000"
 3187      656C6973 
 3187      7400
 3188              	.LASF127:
 3189 0442 5F74696D 		.ascii	"_timezone\000"
 3189      657A6F6E 
 3189      6500
 3190              	.LASF104:
 3191 044c 5F776374 		.ascii	"_wctomb_state\000"
 3191      6F6D625F 
 3191      73746174 
 3191      6500
 3192              	.LASF142:
 3193 045a 61746F69 		.ascii	"atoi\000"
 3193      00
 3194              	.LASF1:
 3195 045f 756E7369 		.ascii	"unsigned char\000"
 3195      676E6564 
 3195      20636861 
 3195      7200
 3196              	.LASF81:
 3197 046d 5F6E6577 		.ascii	"_new\000"
 3197      00
 3198              	.LASF163:
 3199 0472 2F557365 		.ascii	"/Users/kevinmalmsten/development_raspberry_pi/Chibi"
 3199      72732F6B 
 3199      6576696E 
ARM GAS  /var/folders/3j/4xdnk5197cv_b7cw3n33qk7r0000gn/T//ccZnsgjt.s 			page 61


 3199      6D616C6D 
 3199      7374656E 
 3200 04a5 4F532D42 		.ascii	"OS-Backup/__Backup_System\000"
 3200      61636B75 
 3200      702F5F5F 
 3200      4261636B 
 3200      75705F53 
 3201              	.LASF113:
 3202 04bf 5F685F65 		.ascii	"_h_errno\000"
 3202      72726E6F 
 3202      00
 3203              	.LASF2:
 3204 04c8 73686F72 		.ascii	"short int\000"
 3204      7420696E 
 3204      7400
 3205              	.LASF34:
 3206 04d2 5F5F746D 		.ascii	"__tm_yday\000"
 3206      5F796461 
 3206      7900
 3207              	.LASF44:
 3208 04dc 5F5F7362 		.ascii	"__sbuf\000"
 3208      756600
 3209              	.LASF90:
 3210 04e3 5F696F62 		.ascii	"_iobs\000"
 3210      7300
 3211              	.LASF87:
 3212 04e9 5F5F4649 		.ascii	"__FILE\000"
 3212      4C4500
 3213              	.LASF18:
 3214 04f0 5F6D6273 		.ascii	"_mbstate_t\000"
 3214      74617465 
 3214      5F7400
 3215              	.LASF47:
 3216 04fb 5F5F7346 		.ascii	"__sFILE\000"
 3216      494C4500 
 3217              	.LASF62:
 3218 0503 5F6D6273 		.ascii	"_mbstate\000"
 3218      74617465 
 3218      00
 3219              	.LASF100:
 3220 050c 5F72616E 		.ascii	"_rand_next\000"
 3220      645F6E65 
 3220      787400
 3221              	.LASF102:
 3222 0517 5F6D626C 		.ascii	"_mblen_state\000"
 3222      656E5F73 
 3222      74617465 
 3222      00
 3223              	.LASF69:
 3224 0524 5F696E63 		.ascii	"_inc\000"
 3224      00
 3225              	.LASF42:
 3226 0529 5F696E64 		.ascii	"_ind\000"
 3226      00
 3227              	.LASF72:
 3228 052e 5F6C6F63 		.ascii	"_locale\000"
 3228      616C6500 
ARM GAS  /var/folders/3j/4xdnk5197cv_b7cw3n33qk7r0000gn/T//ccZnsgjt.s 			page 62


 3229              	.LASF74:
 3230 0536 5F5F636C 		.ascii	"__cleanup\000"
 3230      65616E75 
 3230      7000
 3231              	.LASF71:
 3232 0540 5F756E73 		.ascii	"_unspecified_locale_info\000"
 3232      70656369 
 3232      66696564 
 3232      5F6C6F63 
 3232      616C655F 
 3233              	.LASF22:
 3234 0559 5F6D6178 		.ascii	"_maxwds\000"
 3234      77647300 
 3235              	.LASF64:
 3236 0561 5F726565 		.ascii	"_reent\000"
 3236      6E7400
 3237              	.LASF92:
 3238 0568 5F736565 		.ascii	"_seed\000"
 3238      6400
 3239              	.LASF16:
 3240 056e 5F5F636F 		.ascii	"__count\000"
 3240      756E7400 
 3241              	.LASF117:
 3242 0576 5F5F6C6F 		.ascii	"__lock\000"
 3242      636B00
 3243              	.LASF17:
 3244 057d 5F5F7661 		.ascii	"__value\000"
 3244      6C756500 
 3245              	.LASF54:
 3246 0585 5F736565 		.ascii	"_seek\000"
 3246      6B00
 3247              	.LASF119:
 3248 058b 5F696D70 		.ascii	"_impure_ptr\000"
 3248      7572655F 
 3248      70747200 
 3249              	.LASF12:
 3250 0597 5F66706F 		.ascii	"_fpos_t\000"
 3250      735F7400 
 3251              	.LASF158:
 3252 059f 66777269 		.ascii	"fwrite\000"
 3252      746500
 3253              	.LASF65:
 3254 05a6 5F657272 		.ascii	"_errno\000"
 3254      6E6F00
 3255              	.LASF86:
 3256 05ad 63686172 		.ascii	"char\000"
 3256      00
 3257              	.LASF28:
 3258 05b2 5F5F746D 		.ascii	"__tm_min\000"
 3258      5F6D696E 
 3258      00
 3259              	.LASF145:
 3260 05bb 56616C69 		.ascii	"ValidateAddress\000"
 3260      64617465 
 3260      41646472 
 3260      65737300 
 3261              	.LASF166:
ARM GAS  /var/folders/3j/4xdnk5197cv_b7cw3n33qk7r0000gn/T//ccZnsgjt.s 			page 63


 3262 05cb 72636F64 		.ascii	"rcode\000"
 3262      6500
 3263              	.LASF124:
 3264 05d1 6F707465 		.ascii	"opterr\000"
 3264      727200
 3265              	.LASF93:
 3266 05d8 5F6D756C 		.ascii	"_mult\000"
 3266      7400
 3267              	.LASF21:
 3268 05de 5F6E6578 		.ascii	"_next\000"
 3268      7400
 3269              	.LASF96:
 3270 05e4 5F737472 		.ascii	"_strtok_last\000"
 3270      746F6B5F 
 3270      6C617374 
 3270      00
 3271              	.LASF39:
 3272 05f1 5F666E74 		.ascii	"_fntypes\000"
 3272      79706573 
 3272      00
 3273              	.LASF140:
 3274 05fa 43757272 		.ascii	"CurrentAddress\000"
 3274      656E7441 
 3274      64647265 
 3274      737300
 3275              	.LASF94:
 3276 0609 5F616464 		.ascii	"_add\000"
 3276      00
 3277              	.LASF20:
 3278 060e 5F5F554C 		.ascii	"__ULong\000"
 3278      6F6E6700 
 3279              	.LASF150:
 3280 0616 49324357 		.ascii	"I2CWrapperOpen\000"
 3280      72617070 
 3280      65724F70 
 3280      656E00
 3281              	.LASF107:
 3282 0625 5F676574 		.ascii	"_getdate_err\000"
 3282      64617465 
 3282      5F657272 
 3282      00
 3283              	.LASF164:
 3284 0632 5F5F6664 		.ascii	"__fdlibm_version\000"
 3284      6C69626D 
 3284      5F766572 
 3284      73696F6E 
 3284      00
 3285              	.LASF120:
 3286 0643 5F676C6F 		.ascii	"_global_impure_ptr\000"
 3286      62616C5F 
 3286      696D7075 
 3286      72655F70 
 3286      747200
 3287              	.LASF132:
 3288 0656 5F5F6664 		.ascii	"__fdlibm_ieee\000"
 3288      6C69626D 
 3288      5F696565 
ARM GAS  /var/folders/3j/4xdnk5197cv_b7cw3n33qk7r0000gn/T//ccZnsgjt.s 			page 64


 3288      6500
 3289              	.LASF139:
 3290 0664 6932635F 		.ascii	"i2c_handle\000"
 3290      68616E64 
 3290      6C6500
 3291              	.LASF138:
 3292 066f 61726776 		.ascii	"argv\000"
 3292      00
 3293              	.LASF95:
 3294 0674 5F756E75 		.ascii	"_unused_rand\000"
 3294      7365645F 
 3294      72616E64 
 3294      00
 3295              	.LASF143:
 3296 0681 73747274 		.ascii	"strtoul\000"
 3296      6F756C00 
 3297              	.LASF24:
 3298 0689 5F776473 		.ascii	"_wds\000"
 3298      00
 3299              	.LASF33:
 3300 068e 5F5F746D 		.ascii	"__tm_wday\000"
 3300      5F776461 
 3300      7900
 3301              	.LASF88:
 3302 0698 5F676C75 		.ascii	"_glue\000"
 3302      6500
 3303              	.LASF136:
 3304 069e 5F5F6664 		.ascii	"__fdlib_version\000"
 3304      6C69625F 
 3304      76657273 
 3304      696F6E00 
 3305              	.LASF115:
 3306 06ae 5F6E6D61 		.ascii	"_nmalloc\000"
 3306      6C6C6F63 
 3306      00
 3307              	.LASF105:
 3308 06b7 5F6C3634 		.ascii	"_l64a_buf\000"
 3308      615F6275 
 3308      6600
 3309              	.LASF141:
 3310 06c1 4E657741 		.ascii	"NewAddress\000"
 3310      64647265 
 3310      737300
 3311              	.LASF83:
 3312 06cc 5F736967 		.ascii	"_sig_func\000"
 3312      5F66756E 
 3312      6300
 3313              	.LASF148:
 3314 06d6 49324357 		.ascii	"I2CWrapperReadByte\000"
 3314      72617070 
 3314      65725265 
 3314      61644279 
 3314      746500
 3315              	.LASF57:
 3316 06e9 5F6E6275 		.ascii	"_nbuf\000"
 3316      6600
 3317              	.LASF116:
ARM GAS  /var/folders/3j/4xdnk5197cv_b7cw3n33qk7r0000gn/T//ccZnsgjt.s 			page 65


 3318 06ef 5F756E75 		.ascii	"_unused\000"
 3318      73656400 
 3319              	.LASF137:
 3320 06f7 61726763 		.ascii	"argc\000"
 3320      00
 3321              	.LASF146:
 3322 06fc 68616E64 		.ascii	"handle\000"
 3322      6C6500
 3323              	.LASF35:
 3324 0703 5F5F746D 		.ascii	"__tm_isdst\000"
 3324      5F697364 
 3324      737400
 3325              	.LASF98:
 3326 070e 5F6C6F63 		.ascii	"_localtime_buf\000"
 3326      616C7469 
 3326      6D655F62 
 3326      756600
 3327              	.LASF55:
 3328 071d 5F636C6F 		.ascii	"_close\000"
 3328      736500
 3329              	.LASF101:
 3330 0724 5F723438 		.ascii	"_r48\000"
 3330      00
 3331              	.LASF125:
 3332 0729 6F70746F 		.ascii	"optopt\000"
 3332      707400
 3333              	.LASF103:
 3334 0730 5F6D6274 		.ascii	"_mbtowc_state\000"
 3334      6F77635F 
 3334      73746174 
 3334      6500
 3335              	.LASF77:
 3336 073e 5F703573 		.ascii	"_p5s\000"
 3336      00
 3337              	.LASF165:
 3338 0743 6D61696E 		.ascii	"main\000"
 3338      00
 3339              	.LASF144:
 3340 0748 56616C69 		.ascii	"ValidateDevice\000"
 3340      64617465 
 3340      44657669 
 3340      636500
 3341              	.LASF30:
 3342 0757 5F5F746D 		.ascii	"__tm_mday\000"
 3342      5F6D6461 
 3342      7900
 3343              		.ident	"GCC: (GNU Tools for Arm Embedded Processors 7-2018-q2-update) 7.3.1 20180622 (release) [AR
ARM GAS  /var/folders/3j/4xdnk5197cv_b7cw3n33qk7r0000gn/T//ccZnsgjt.s 			page 66


DEFINED SYMBOLS
                            *ABS*:0000000000000000 A2DAddress.c
/var/folders/3j/4xdnk5197cv_b7cw3n33qk7r0000gn/T//ccZnsgjt.s:16     .text.ValidateAddress:0000000000000000 $a
/var/folders/3j/4xdnk5197cv_b7cw3n33qk7r0000gn/T//ccZnsgjt.s:22     .text.ValidateAddress:0000000000000000 ValidateAddress
/var/folders/3j/4xdnk5197cv_b7cw3n33qk7r0000gn/T//ccZnsgjt.s:44     .text.ValidateDevice:0000000000000000 $a
/var/folders/3j/4xdnk5197cv_b7cw3n33qk7r0000gn/T//ccZnsgjt.s:50     .text.ValidateDevice:0000000000000000 ValidateDevice
/var/folders/3j/4xdnk5197cv_b7cw3n33qk7r0000gn/T//ccZnsgjt.s:74     .text.startup.main:0000000000000000 $a
/var/folders/3j/4xdnk5197cv_b7cw3n33qk7r0000gn/T//ccZnsgjt.s:80     .text.startup.main:0000000000000000 main
/var/folders/3j/4xdnk5197cv_b7cw3n33qk7r0000gn/T//ccZnsgjt.s:304    .text.startup.main:00000000000001a0 $d
/var/folders/3j/4xdnk5197cv_b7cw3n33qk7r0000gn/T//ccZnsgjt.s:317    .rodata.main.str1.4:0000000000000000 $d

UNDEFINED SYMBOLS
I2CWrapperReadByte
strstr
strtoul
I2CWrapperOpen
I2CWrapperWriteByte
I2CWrapperWriteWord
sleep
I2CWrapperSlaveAddress
printf
atoi
fprintf
puts
fwrite
_impure_ptr
