ARM GAS  /var/folders/3j/4xdnk5197cv_b7cw3n33qk7r0000gn/T//ccLoBzpe.s 			page 1


   1              		.cpu arm1176jz-s
   2              		.eabi_attribute 20, 1
   3              		.eabi_attribute 21, 1
   4              		.eabi_attribute 23, 3
   5              		.eabi_attribute 24, 1
   6              		.eabi_attribute 25, 1
   7              		.eabi_attribute 26, 1
   8              		.eabi_attribute 30, 2
   9              		.eabi_attribute 34, 1
  10              		.eabi_attribute 18, 4
  11              		.file	"chevents.c"
  12              		.text
  13              	.Ltext0:
  14              		.cfi_sections	.debug_frame
  15              		.section	.text.chEvtRegisterMask,"ax",%progbits
  16              		.align	2
  17              		.global	chEvtRegisterMask
  18              		.syntax unified
  19              		.arm
  20              		.fpu softvfp
  21              		.type	chEvtRegisterMask, %function
  22              	chEvtRegisterMask:
  23              	.LFB7:
  24              		.file 1 "..//os/kernel/src/chevents.c"
  25              		.loc 1 78 0
  26              		.cfi_startproc
  27              		@ args = 0, pretend = 0, frame = 0
  28              		@ frame_needed = 0, uses_anonymous_args = 0
  29              	.LVL0:
  30 0000 04E02DE5 		str	lr, [sp, #-4]!
  31              		.cfi_def_cfa_offset 4
  32              		.cfi_offset 14, -4
  33              		.loc 1 82 0
  34              		.syntax divided
  35              	@ 82 "..//os/kernel/src/chevents.c" 1
  36 0004 9FF021E3 		msr     CPSR_c, #0x9F
  37              	@ 0 "" 2
  38              		.loc 1 87 0
  39              		.arm
  40              		.syntax unified
  41 0008 0030A0E3 		mov	r3, #0
  42              		.loc 1 85 0
  43 000c 1CC09FE5 		ldr	ip, .L4
  44              		.loc 1 83 0
  45 0010 00E090E5 		ldr	lr, [r0]
  46              		.loc 1 85 0
  47 0014 18C09CE5 		ldr	ip, [ip, #24]
  48              		.loc 1 83 0
  49 0018 00E081E5 		str	lr, [r1]
  50              		.loc 1 84 0
  51 001c 001080E5 		str	r1, [r0]
  52              		.loc 1 85 0
  53 0020 04C081E5 		str	ip, [r1, #4]
  54              		.loc 1 87 0
  55 0024 F820C1E1 		strd	r2, [r1, #8]
  56              		.loc 1 88 0
  57              		.syntax divided
ARM GAS  /var/folders/3j/4xdnk5197cv_b7cw3n33qk7r0000gn/T//ccLoBzpe.s 			page 2


  58              	@ 88 "..//os/kernel/src/chevents.c" 1
  59 0028 1FF021E3 		msr     CPSR_c, #0x1F
  60              	@ 0 "" 2
  61              		.loc 1 89 0
  62              		.arm
  63              		.syntax unified
  64 002c 04F09DE4 		ldr	pc, [sp], #4
  65              	.L5:
  66              		.align	2
  67              	.L4:
  68 0030 00000000 		.word	rlist
  69              		.cfi_endproc
  70              	.LFE7:
  71              		.size	chEvtRegisterMask, .-chEvtRegisterMask
  72              		.section	.text.chEvtUnregister,"ax",%progbits
  73              		.align	2
  74              		.global	chEvtUnregister
  75              		.syntax unified
  76              		.arm
  77              		.fpu softvfp
  78              		.type	chEvtUnregister, %function
  79              	chEvtUnregister:
  80              	.LFB8:
  81              		.loc 1 104 0
  82              		.cfi_startproc
  83              		@ args = 0, pretend = 0, frame = 0
  84              		@ frame_needed = 0, uses_anonymous_args = 0
  85              		@ link register save eliminated.
  86              	.LVL1:
  87              		.loc 1 110 0
  88              		.syntax divided
  89              	@ 110 "..//os/kernel/src/chevents.c" 1
  90 0000 9FF021E3 		msr     CPSR_c, #0x9F
  91              	@ 0 "" 2
  92              		.loc 1 109 0
  93              		.arm
  94              		.syntax unified
  95 0004 0020A0E1 		mov	r2, r0
  96              		.loc 1 111 0
  97 0008 020000EA 		b	.L7
  98              	.LVL2:
  99              	.L9:
 100              		.loc 1 112 0
 101 000c 010053E1 		cmp	r3, r1
 102 0010 0500000A 		beq	.L11
 103 0014 0320A0E1 		mov	r2, r3
 104              	.LVL3:
 105              	.L7:
 106              		.loc 1 111 0
 107 0018 003092E5 		ldr	r3, [r2]
 108 001c 000053E1 		cmp	r3, r0
 109 0020 F9FFFF1A 		bne	.L9
 110              		.loc 1 118 0
 111              		.syntax divided
 112              	@ 118 "..//os/kernel/src/chevents.c" 1
 113 0024 1FF021E3 		msr     CPSR_c, #0x1F
 114              	@ 0 "" 2
ARM GAS  /var/folders/3j/4xdnk5197cv_b7cw3n33qk7r0000gn/T//ccLoBzpe.s 			page 3


 115              		.loc 1 119 0
 116              		.arm
 117              		.syntax unified
 118 0028 1EFF2FE1 		bx	lr
 119              	.L11:
 120              		.loc 1 113 0
 121 002c 003091E5 		ldr	r3, [r1]
 122 0030 003082E5 		str	r3, [r2]
 123              		.loc 1 118 0
 124              		.syntax divided
 125              	@ 118 "..//os/kernel/src/chevents.c" 1
 126 0034 1FF021E3 		msr     CPSR_c, #0x1F
 127              	@ 0 "" 2
 128              		.loc 1 119 0
 129              		.arm
 130              		.syntax unified
 131 0038 1EFF2FE1 		bx	lr
 132              		.cfi_endproc
 133              	.LFE8:
 134              		.size	chEvtUnregister, .-chEvtUnregister
 135              		.section	.text.chEvtGetAndClearEvents,"ax",%progbits
 136              		.align	2
 137              		.global	chEvtGetAndClearEvents
 138              		.syntax unified
 139              		.arm
 140              		.fpu softvfp
 141              		.type	chEvtGetAndClearEvents, %function
 142              	chEvtGetAndClearEvents:
 143              	.LFB9:
 144              		.loc 1 129 0
 145              		.cfi_startproc
 146              		@ args = 0, pretend = 0, frame = 0
 147              		@ frame_needed = 0, uses_anonymous_args = 0
 148              		@ link register save eliminated.
 149              	.LVL4:
 150              		.loc 1 132 0
 151              		.syntax divided
 152              	@ 132 "..//os/kernel/src/chevents.c" 1
 153 0000 9FF021E3 		msr     CPSR_c, #0x9F
 154              	@ 0 "" 2
 155              		.loc 1 134 0
 156              		.arm
 157              		.syntax unified
 158 0004 18309FE5 		ldr	r3, .L13
 159 0008 182093E5 		ldr	r2, [r3, #24]
 160 000c 383092E5 		ldr	r3, [r2, #56]
 161              	.LVL5:
 162              		.loc 1 135 0
 163 0010 0010C3E1 		bic	r1, r3, r0
 164 0014 381082E5 		str	r1, [r2, #56]
 165              		.loc 1 137 0
 166              		.syntax divided
 167              	@ 137 "..//os/kernel/src/chevents.c" 1
 168 0018 1FF021E3 		msr     CPSR_c, #0x1F
 169              	@ 0 "" 2
 170              		.loc 1 139 0
 171              		.arm
ARM GAS  /var/folders/3j/4xdnk5197cv_b7cw3n33qk7r0000gn/T//ccLoBzpe.s 			page 4


 172              		.syntax unified
 173 001c 030000E0 		and	r0, r0, r3
 174              	.LVL6:
 175 0020 1EFF2FE1 		bx	lr
 176              	.L14:
 177              		.align	2
 178              	.L13:
 179 0024 00000000 		.word	rlist
 180              		.cfi_endproc
 181              	.LFE9:
 182              		.size	chEvtGetAndClearEvents, .-chEvtGetAndClearEvents
 183              		.section	.text.chEvtAddEvents,"ax",%progbits
 184              		.align	2
 185              		.global	chEvtAddEvents
 186              		.syntax unified
 187              		.arm
 188              		.fpu softvfp
 189              		.type	chEvtAddEvents, %function
 190              	chEvtAddEvents:
 191              	.LFB10:
 192              		.loc 1 150 0
 193              		.cfi_startproc
 194              		@ args = 0, pretend = 0, frame = 0
 195              		@ frame_needed = 0, uses_anonymous_args = 0
 196              		@ link register save eliminated.
 197              	.LVL7:
 198              		.loc 1 152 0
 199              		.syntax divided
 200              	@ 152 "..//os/kernel/src/chevents.c" 1
 201 0000 9FF021E3 		msr     CPSR_c, #0x9F
 202              	@ 0 "" 2
 203              		.loc 1 154 0
 204              		.arm
 205              		.syntax unified
 206 0004 14309FE5 		ldr	r3, .L16
 207 0008 183093E5 		ldr	r3, [r3, #24]
 208 000c 382093E5 		ldr	r2, [r3, #56]
 209 0010 020080E1 		orr	r0, r0, r2
 210              	.LVL8:
 211 0014 380083E5 		str	r0, [r3, #56]
 212              	.LVL9:
 213              		.loc 1 156 0
 214              		.syntax divided
 215              	@ 156 "..//os/kernel/src/chevents.c" 1
 216 0018 1FF021E3 		msr     CPSR_c, #0x1F
 217              	@ 0 "" 2
 218              		.loc 1 158 0
 219              		.arm
 220              		.syntax unified
 221 001c 1EFF2FE1 		bx	lr
 222              	.L17:
 223              		.align	2
 224              	.L16:
 225 0020 00000000 		.word	rlist
 226              		.cfi_endproc
 227              	.LFE10:
 228              		.size	chEvtAddEvents, .-chEvtAddEvents
ARM GAS  /var/folders/3j/4xdnk5197cv_b7cw3n33qk7r0000gn/T//ccLoBzpe.s 			page 5


 229              		.section	.text.chEvtGetAndClearFlags,"ax",%progbits
 230              		.align	2
 231              		.global	chEvtGetAndClearFlags
 232              		.syntax unified
 233              		.arm
 234              		.fpu softvfp
 235              		.type	chEvtGetAndClearFlags, %function
 236              	chEvtGetAndClearFlags:
 237              	.LFB12:
 238              		.loc 1 202 0
 239              		.cfi_startproc
 240              		@ args = 0, pretend = 0, frame = 0
 241              		@ frame_needed = 0, uses_anonymous_args = 0
 242              		@ link register save eliminated.
 243              	.LVL10:
 244              		.loc 1 202 0
 245 0000 0030A0E1 		mov	r3, r0
 246              		.loc 1 205 0
 247              		.syntax divided
 248              	@ 205 "..//os/kernel/src/chevents.c" 1
 249 0004 9FF021E3 		msr     CPSR_c, #0x9F
 250              	@ 0 "" 2
 251              		.loc 1 208 0
 252              		.arm
 253              		.syntax unified
 254 0008 0020A0E3 		mov	r2, #0
 255              		.loc 1 207 0
 256 000c 0C0090E5 		ldr	r0, [r0, #12]
 257              	.LVL11:
 258              		.loc 1 208 0
 259 0010 0C2083E5 		str	r2, [r3, #12]
 260              		.loc 1 210 0
 261              		.syntax divided
 262              	@ 210 "..//os/kernel/src/chevents.c" 1
 263 0014 1FF021E3 		msr     CPSR_c, #0x1F
 264              	@ 0 "" 2
 265              		.loc 1 212 0
 266              		.arm
 267              		.syntax unified
 268 0018 1EFF2FE1 		bx	lr
 269              		.cfi_endproc
 270              	.LFE12:
 271              		.size	chEvtGetAndClearFlags, .-chEvtGetAndClearFlags
 272              		.section	.text.chEvtSignalI,"ax",%progbits
 273              		.align	2
 274              		.global	chEvtSignalI
 275              		.syntax unified
 276              		.arm
 277              		.fpu softvfp
 278              		.type	chEvtSignalI, %function
 279              	chEvtSignalI:
 280              	.LFB14:
 281              		.loc 1 244 0
 282              		.cfi_startproc
 283              		@ args = 0, pretend = 0, frame = 0
 284              		@ frame_needed = 0, uses_anonymous_args = 0
 285              	.LVL12:
ARM GAS  /var/folders/3j/4xdnk5197cv_b7cw3n33qk7r0000gn/T//ccLoBzpe.s 			page 6


 286              		.loc 1 249 0
 287 0000 383090E5 		ldr	r3, [r0, #56]
 288              		.loc 1 251 0
 289 0004 1C20D0E5 		ldrb	r2, [r0, #28]	@ zero_extendqisi2
 290              		.loc 1 249 0
 291 0008 031081E1 		orr	r1, r1, r3
 292              	.LVL13:
 293              		.loc 1 251 0
 294 000c 080052E3 		cmp	r2, #8
 295              		.loc 1 249 0
 296 0010 381080E5 		str	r1, [r0, #56]
 297              		.loc 1 251 0
 298 0014 0900000A 		beq	.L27
 299              		.loc 1 252 0
 300 0018 090052E3 		cmp	r2, #9
 301 001c 1EFF2F11 		bxne	lr
 302              		.loc 1 254 0
 303 0020 243090E5 		ldr	r3, [r0, #36]
 304              		.loc 1 253 0
 305 0024 0130D3E1 		bics	r3, r3, r1
 306 0028 1EFF2F11 		bxne	lr
 307              	.L21:
 308              	.LVL14:
 309              		.loc 1 244 0
 310 002c 10402DE9 		push	{r4, lr}
 311              		.cfi_def_cfa_offset 8
 312              		.cfi_offset 4, -8
 313              		.cfi_offset 14, -4
 314              	.LBB4:
 315              	.LBB5:
 316              		.loc 1 255 0
 317 0030 FEFFFFEB 		bl	chSchReadyI
 318              	.LVL15:
 319 0034 0030A0E3 		mov	r3, #0
 320 0038 243080E5 		str	r3, [r0, #36]
 321              	.LBE5:
 322              	.LBE4:
 323              		.loc 1 256 0
 324 003c 1080BDE8 		pop	{r4, pc}
 325              	.LVL16:
 326              	.L27:
 327              		.cfi_def_cfa_offset 0
 328              		.cfi_restore 4
 329              		.cfi_restore 14
 330              		.loc 1 252 0 discriminator 1
 331 0040 243090E5 		ldr	r3, [r0, #36]
 332              		.loc 1 251 0 discriminator 1
 333 0044 030011E1 		tst	r1, r3
 334 0048 1EFF2F01 		bxeq	lr
 335 004c F6FFFFEA 		b	.L21
 336              		.cfi_endproc
 337              	.LFE14:
 338              		.size	chEvtSignalI, .-chEvtSignalI
 339              		.section	.text.chEvtBroadcastFlagsI,"ax",%progbits
 340              		.align	2
 341              		.global	chEvtBroadcastFlagsI
 342              		.syntax unified
ARM GAS  /var/folders/3j/4xdnk5197cv_b7cw3n33qk7r0000gn/T//ccLoBzpe.s 			page 7


 343              		.arm
 344              		.fpu softvfp
 345              		.type	chEvtBroadcastFlagsI, %function
 346              	chEvtBroadcastFlagsI:
 347              	.LFB11:
 348              		.loc 1 177 0
 349              		.cfi_startproc
 350              		@ args = 0, pretend = 0, frame = 0
 351              		@ frame_needed = 0, uses_anonymous_args = 0
 352              	.LVL17:
 353 0000 70402DE9 		push	{r4, r5, r6, lr}
 354              		.cfi_def_cfa_offset 16
 355              		.cfi_offset 4, -16
 356              		.cfi_offset 5, -12
 357              		.cfi_offset 6, -8
 358              		.cfi_offset 14, -4
 359              		.loc 1 183 0
 360 0004 004090E5 		ldr	r4, [r0]
 361              	.LVL18:
 362              		.loc 1 184 0
 363 0008 040050E1 		cmp	r0, r4
 364 000c 7080BD08 		popeq	{r4, r5, r6, pc}
 365 0010 0050A0E1 		mov	r5, r0
 366 0014 0160A0E1 		mov	r6, r1
 367              	.LVL19:
 368              	.L30:
 369              		.loc 1 185 0
 370 0018 0C3094E5 		ldr	r3, [r4, #12]
 371              		.loc 1 186 0
 372 001c 081094E5 		ldr	r1, [r4, #8]
 373              		.loc 1 185 0
 374 0020 063083E1 		orr	r3, r3, r6
 375 0024 0C3084E5 		str	r3, [r4, #12]
 376              		.loc 1 186 0
 377 0028 040094E5 		ldr	r0, [r4, #4]
 378 002c FEFFFFEB 		bl	chEvtSignalI
 379              	.LVL20:
 380              		.loc 1 187 0
 381 0030 004094E5 		ldr	r4, [r4]
 382              	.LVL21:
 383              		.loc 1 184 0
 384 0034 040055E1 		cmp	r5, r4
 385 0038 F6FFFF1A 		bne	.L30
 386 003c 7080BDE8 		pop	{r4, r5, r6, pc}
 387              		.cfi_endproc
 388              	.LFE11:
 389              		.size	chEvtBroadcastFlagsI, .-chEvtBroadcastFlagsI
 390              		.section	.text.chEvtSignal,"ax",%progbits
 391              		.align	2
 392              		.global	chEvtSignal
 393              		.syntax unified
 394              		.arm
 395              		.fpu softvfp
 396              		.type	chEvtSignal, %function
 397              	chEvtSignal:
 398              	.LFB13:
 399              		.loc 1 222 0
ARM GAS  /var/folders/3j/4xdnk5197cv_b7cw3n33qk7r0000gn/T//ccLoBzpe.s 			page 8


 400              		.cfi_startproc
 401              		@ args = 0, pretend = 0, frame = 0
 402              		@ frame_needed = 0, uses_anonymous_args = 0
 403              	.LVL22:
 404 0000 10402DE9 		push	{r4, lr}
 405              		.cfi_def_cfa_offset 8
 406              		.cfi_offset 4, -8
 407              		.cfi_offset 14, -4
 408              		.loc 1 226 0
 409              		.syntax divided
 410              	@ 226 "..//os/kernel/src/chevents.c" 1
 411 0004 9FF021E3 		msr     CPSR_c, #0x9F
 412              	@ 0 "" 2
 413              		.loc 1 227 0
 414              		.arm
 415              		.syntax unified
 416 0008 FEFFFFEB 		bl	chEvtSignalI
 417              	.LVL23:
 418              		.loc 1 228 0
 419 000c FEFFFFEB 		bl	chSchRescheduleS
 420              	.LVL24:
 421              		.loc 1 229 0
 422              		.syntax divided
 423              	@ 229 "..//os/kernel/src/chevents.c" 1
 424 0010 1FF021E3 		msr     CPSR_c, #0x1F
 425              	@ 0 "" 2
 426              		.loc 1 230 0
 427              		.arm
 428              		.syntax unified
 429 0014 1080BDE8 		pop	{r4, pc}
 430              		.cfi_endproc
 431              	.LFE13:
 432              		.size	chEvtSignal, .-chEvtSignal
 433              		.section	.text.chEvtBroadcastFlags,"ax",%progbits
 434              		.align	2
 435              		.global	chEvtBroadcastFlags
 436              		.syntax unified
 437              		.arm
 438              		.fpu softvfp
 439              		.type	chEvtBroadcastFlags, %function
 440              	chEvtBroadcastFlags:
 441              	.LFB15:
 442              		.loc 1 271 0
 443              		.cfi_startproc
 444              		@ args = 0, pretend = 0, frame = 0
 445              		@ frame_needed = 0, uses_anonymous_args = 0
 446              	.LVL25:
 447 0000 10402DE9 		push	{r4, lr}
 448              		.cfi_def_cfa_offset 8
 449              		.cfi_offset 4, -8
 450              		.cfi_offset 14, -4
 451              		.loc 1 273 0
 452              		.syntax divided
 453              	@ 273 "..//os/kernel/src/chevents.c" 1
 454 0004 9FF021E3 		msr     CPSR_c, #0x9F
 455              	@ 0 "" 2
 456              		.loc 1 274 0
ARM GAS  /var/folders/3j/4xdnk5197cv_b7cw3n33qk7r0000gn/T//ccLoBzpe.s 			page 9


 457              		.arm
 458              		.syntax unified
 459 0008 FEFFFFEB 		bl	chEvtBroadcastFlagsI
 460              	.LVL26:
 461              		.loc 1 275 0
 462 000c FEFFFFEB 		bl	chSchRescheduleS
 463              	.LVL27:
 464              		.loc 1 276 0
 465              		.syntax divided
 466              	@ 276 "..//os/kernel/src/chevents.c" 1
 467 0010 1FF021E3 		msr     CPSR_c, #0x1F
 468              	@ 0 "" 2
 469              		.loc 1 277 0
 470              		.arm
 471              		.syntax unified
 472 0014 1080BDE8 		pop	{r4, pc}
 473              		.cfi_endproc
 474              	.LFE15:
 475              		.size	chEvtBroadcastFlags, .-chEvtBroadcastFlags
 476              		.section	.text.chEvtGetAndClearFlagsI,"ax",%progbits
 477              		.align	2
 478              		.global	chEvtGetAndClearFlagsI
 479              		.syntax unified
 480              		.arm
 481              		.fpu softvfp
 482              		.type	chEvtGetAndClearFlagsI, %function
 483              	chEvtGetAndClearFlagsI:
 484              	.LFB16:
 485              		.loc 1 290 0
 486              		.cfi_startproc
 487              		@ args = 0, pretend = 0, frame = 0
 488              		@ frame_needed = 0, uses_anonymous_args = 0
 489              		@ link register save eliminated.
 490              	.LVL28:
 491              		.loc 1 290 0
 492 0000 0030A0E1 		mov	r3, r0
 493              		.loc 1 294 0
 494 0004 0020A0E3 		mov	r2, #0
 495              		.loc 1 293 0
 496 0008 0C0090E5 		ldr	r0, [r0, #12]
 497              	.LVL29:
 498              		.loc 1 294 0
 499 000c 0C2083E5 		str	r2, [r3, #12]
 500              		.loc 1 297 0
 501 0010 1EFF2FE1 		bx	lr
 502              		.cfi_endproc
 503              	.LFE16:
 504              		.size	chEvtGetAndClearFlagsI, .-chEvtGetAndClearFlagsI
 505              		.section	.text.chEvtDispatch,"ax",%progbits
 506              		.align	2
 507              		.global	chEvtDispatch
 508              		.syntax unified
 509              		.arm
 510              		.fpu softvfp
 511              		.type	chEvtDispatch, %function
 512              	chEvtDispatch:
 513              	.LFB17:
ARM GAS  /var/folders/3j/4xdnk5197cv_b7cw3n33qk7r0000gn/T//ccLoBzpe.s 			page 10


 514              		.loc 1 308 0
 515              		.cfi_startproc
 516              		@ args = 0, pretend = 0, frame = 0
 517              		@ frame_needed = 0, uses_anonymous_args = 0
 518              	.LVL30:
 519 0000 F0412DE9 		push	{r4, r5, r6, r7, r8, lr}
 520              		.cfi_def_cfa_offset 24
 521              		.cfi_offset 4, -24
 522              		.cfi_offset 5, -20
 523              		.cfi_offset 6, -16
 524              		.cfi_offset 7, -12
 525              		.cfi_offset 8, -8
 526              		.cfi_offset 14, -4
 527              		.loc 1 314 0
 528 0004 005051E2 		subs	r5, r1, #0
 529 0008 F081BD08 		popeq	{r4, r5, r6, r7, r8, pc}
 530 000c 0070A0E1 		mov	r7, r0
 531              		.loc 1 313 0
 532 0010 0040A0E3 		mov	r4, #0
 533              		.loc 1 315 0
 534 0014 0160A0E3 		mov	r6, #1
 535              	.LVL31:
 536              	.L39:
 537 0018 1634A0E1 		lsl	r3, r6, r4
 538 001c 050013E1 		tst	r3, r5
 539 0020 0900000A 		beq	.L41
 540              	.L46:
 541              		.loc 1 319 0
 542 0024 0350C5E1 		bic	r5, r5, r3
 543              	.LVL32:
 544              		.loc 1 320 0
 545 0028 0400A0E1 		mov	r0, r4
 546 002c 043197E7 		ldr	r3, [r7, r4, lsl #2]
 547 0030 33FF2FE1 		blx	r3
 548              	.LVL33:
 549              		.loc 1 314 0
 550 0034 000055E3 		cmp	r5, #0
 551              		.loc 1 322 0
 552 0038 014084E2 		add	r4, r4, #1
 553              	.LVL34:
 554              		.loc 1 314 0
 555 003c F081BD08 		popeq	{r4, r5, r6, r7, r8, pc}
 556              		.loc 1 315 0
 557 0040 1634A0E1 		lsl	r3, r6, r4
 558 0044 050013E1 		tst	r3, r5
 559 0048 F5FFFF1A 		bne	.L46
 560              	.L41:
 561              		.loc 1 322 0
 562 004c 014084E2 		add	r4, r4, #1
 563              	.LVL35:
 564 0050 F0FFFFEA 		b	.L39
 565              		.cfi_endproc
 566              	.LFE17:
 567              		.size	chEvtDispatch, .-chEvtDispatch
 568              		.section	.text.chEvtWaitOne,"ax",%progbits
 569              		.align	2
 570              		.global	chEvtWaitOne
ARM GAS  /var/folders/3j/4xdnk5197cv_b7cw3n33qk7r0000gn/T//ccLoBzpe.s 			page 11


 571              		.syntax unified
 572              		.arm
 573              		.fpu softvfp
 574              		.type	chEvtWaitOne, %function
 575              	chEvtWaitOne:
 576              	.LFB18:
 577              		.loc 1 343 0
 578              		.cfi_startproc
 579              		@ args = 0, pretend = 0, frame = 0
 580              		@ frame_needed = 0, uses_anonymous_args = 0
 581              	.LVL36:
 582              		.loc 1 344 0
 583 0000 44309FE5 		ldr	r3, .L50
 584              		.loc 1 343 0
 585 0004 70402DE9 		push	{r4, r5, r6, lr}
 586              		.cfi_def_cfa_offset 16
 587              		.cfi_offset 4, -16
 588              		.cfi_offset 5, -12
 589              		.cfi_offset 6, -8
 590              		.cfi_offset 14, -4
 591              		.loc 1 344 0
 592 0008 185093E5 		ldr	r5, [r3, #24]
 593              	.LVL37:
 594              		.loc 1 347 0
 595              		.syntax divided
 596              	@ 347 "..//os/kernel/src/chevents.c" 1
 597 000c 9FF021E3 		msr     CPSR_c, #0x9F
 598              	@ 0 "" 2
 599              		.loc 1 349 0
 600              		.arm
 601              		.syntax unified
 602 0010 383095E5 		ldr	r3, [r5, #56]
 603              	.LVL38:
 604 0014 004013E0 		ands	r4, r3, r0
 605              	.LVL39:
 606 0018 0500001A 		bne	.L48
 607 001c 0040A0E1 		mov	r4, r0
 608              	.LVL40:
 609              		.loc 1 350 0
 610 0020 240085E5 		str	r0, [r5, #36]
 611              		.loc 1 351 0
 612 0024 0800A0E3 		mov	r0, #8
 613              	.LVL41:
 614 0028 FEFFFFEB 		bl	chSchGoSleepS
 615              	.LVL42:
 616              		.loc 1 352 0
 617 002c 383095E5 		ldr	r3, [r5, #56]
 618 0030 034004E0 		and	r4, r4, r3
 619              	.LVL43:
 620              	.L48:
 621              		.loc 1 354 0
 622 0034 000064E2 		rsb	r0, r4, #0
 623 0038 040000E0 		and	r0, r0, r4
 624              	.LVL44:
 625              		.loc 1 355 0
 626 003c 0030C3E1 		bic	r3, r3, r0
 627 0040 383085E5 		str	r3, [r5, #56]
ARM GAS  /var/folders/3j/4xdnk5197cv_b7cw3n33qk7r0000gn/T//ccLoBzpe.s 			page 12


 628              		.loc 1 357 0
 629              		.syntax divided
 630              	@ 357 "..//os/kernel/src/chevents.c" 1
 631 0044 1FF021E3 		msr     CPSR_c, #0x1F
 632              	@ 0 "" 2
 633              		.loc 1 359 0
 634              		.arm
 635              		.syntax unified
 636 0048 7080BDE8 		pop	{r4, r5, r6, pc}
 637              	.L51:
 638              		.align	2
 639              	.L50:
 640 004c 00000000 		.word	rlist
 641              		.cfi_endproc
 642              	.LFE18:
 643              		.size	chEvtWaitOne, .-chEvtWaitOne
 644              		.section	.text.chEvtWaitAny,"ax",%progbits
 645              		.align	2
 646              		.global	chEvtWaitAny
 647              		.syntax unified
 648              		.arm
 649              		.fpu softvfp
 650              		.type	chEvtWaitAny, %function
 651              	chEvtWaitAny:
 652              	.LFB19:
 653              		.loc 1 372 0
 654              		.cfi_startproc
 655              		@ args = 0, pretend = 0, frame = 0
 656              		@ frame_needed = 0, uses_anonymous_args = 0
 657              	.LVL45:
 658              		.loc 1 373 0
 659 0000 40309FE5 		ldr	r3, .L55
 660              		.loc 1 372 0
 661 0004 70402DE9 		push	{r4, r5, r6, lr}
 662              		.cfi_def_cfa_offset 16
 663              		.cfi_offset 4, -16
 664              		.cfi_offset 5, -12
 665              		.cfi_offset 6, -8
 666              		.cfi_offset 14, -4
 667              		.loc 1 373 0
 668 0008 185093E5 		ldr	r5, [r3, #24]
 669              	.LVL46:
 670              		.loc 1 376 0
 671              		.syntax divided
 672              	@ 376 "..//os/kernel/src/chevents.c" 1
 673 000c 9FF021E3 		msr     CPSR_c, #0x9F
 674              	@ 0 "" 2
 675              		.loc 1 378 0
 676              		.arm
 677              		.syntax unified
 678 0010 383095E5 		ldr	r3, [r5, #56]
 679              	.LVL47:
 680 0014 004013E0 		ands	r4, r3, r0
 681              	.LVL48:
 682 0018 0500001A 		bne	.L53
 683 001c 0040A0E1 		mov	r4, r0
 684              	.LVL49:
ARM GAS  /var/folders/3j/4xdnk5197cv_b7cw3n33qk7r0000gn/T//ccLoBzpe.s 			page 13


 685              		.loc 1 379 0
 686 0020 240085E5 		str	r0, [r5, #36]
 687              		.loc 1 380 0
 688 0024 0800A0E3 		mov	r0, #8
 689              	.LVL50:
 690 0028 FEFFFFEB 		bl	chSchGoSleepS
 691              	.LVL51:
 692              		.loc 1 381 0
 693 002c 383095E5 		ldr	r3, [r5, #56]
 694 0030 034004E0 		and	r4, r4, r3
 695              	.LVL52:
 696              	.L53:
 697              		.loc 1 383 0
 698 0034 0430C3E1 		bic	r3, r3, r4
 699 0038 383085E5 		str	r3, [r5, #56]
 700              		.loc 1 385 0
 701              		.syntax divided
 702              	@ 385 "..//os/kernel/src/chevents.c" 1
 703 003c 1FF021E3 		msr     CPSR_c, #0x1F
 704              	@ 0 "" 2
 705              		.loc 1 387 0
 706              		.arm
 707              		.syntax unified
 708 0040 0400A0E1 		mov	r0, r4
 709 0044 7080BDE8 		pop	{r4, r5, r6, pc}
 710              	.L56:
 711              		.align	2
 712              	.L55:
 713 0048 00000000 		.word	rlist
 714              		.cfi_endproc
 715              	.LFE19:
 716              		.size	chEvtWaitAny, .-chEvtWaitAny
 717              		.section	.text.chEvtWaitAll,"ax",%progbits
 718              		.align	2
 719              		.global	chEvtWaitAll
 720              		.syntax unified
 721              		.arm
 722              		.fpu softvfp
 723              		.type	chEvtWaitAll, %function
 724              	chEvtWaitAll:
 725              	.LFB20:
 726              		.loc 1 400 0
 727              		.cfi_startproc
 728              		@ args = 0, pretend = 0, frame = 0
 729              		@ frame_needed = 0, uses_anonymous_args = 0
 730              	.LVL53:
 731              		.loc 1 401 0
 732 0000 3C309FE5 		ldr	r3, .L60
 733              		.loc 1 400 0
 734 0004 70402DE9 		push	{r4, r5, r6, lr}
 735              		.cfi_def_cfa_offset 16
 736              		.cfi_offset 4, -16
 737              		.cfi_offset 5, -12
 738              		.cfi_offset 6, -8
 739              		.cfi_offset 14, -4
 740              		.loc 1 400 0
 741 0008 0040A0E1 		mov	r4, r0
ARM GAS  /var/folders/3j/4xdnk5197cv_b7cw3n33qk7r0000gn/T//ccLoBzpe.s 			page 14


 742              		.loc 1 401 0
 743 000c 185093E5 		ldr	r5, [r3, #24]
 744              	.LVL54:
 745              		.loc 1 403 0
 746              		.syntax divided
 747              	@ 403 "..//os/kernel/src/chevents.c" 1
 748 0010 9FF021E3 		msr     CPSR_c, #0x9F
 749              	@ 0 "" 2
 750              		.loc 1 405 0
 751              		.arm
 752              		.syntax unified
 753 0014 383095E5 		ldr	r3, [r5, #56]
 754 0018 0320D0E1 		bics	r2, r0, r3
 755 001c 0300000A 		beq	.L58
 756              		.loc 1 406 0
 757 0020 240085E5 		str	r0, [r5, #36]
 758              		.loc 1 407 0
 759 0024 0900A0E3 		mov	r0, #9
 760              	.LVL55:
 761 0028 FEFFFFEB 		bl	chSchGoSleepS
 762              	.LVL56:
 763 002c 383095E5 		ldr	r3, [r5, #56]
 764              	.L58:
 765              		.loc 1 409 0
 766 0030 0430C3E1 		bic	r3, r3, r4
 767 0034 383085E5 		str	r3, [r5, #56]
 768              		.loc 1 411 0
 769              		.syntax divided
 770              	@ 411 "..//os/kernel/src/chevents.c" 1
 771 0038 1FF021E3 		msr     CPSR_c, #0x1F
 772              	@ 0 "" 2
 773              		.loc 1 413 0
 774              		.arm
 775              		.syntax unified
 776 003c 0400A0E1 		mov	r0, r4
 777 0040 7080BDE8 		pop	{r4, r5, r6, pc}
 778              	.L61:
 779              		.align	2
 780              	.L60:
 781 0044 00000000 		.word	rlist
 782              		.cfi_endproc
 783              	.LFE20:
 784              		.size	chEvtWaitAll, .-chEvtWaitAll
 785              		.section	.text.chEvtWaitOneTimeout,"ax",%progbits
 786              		.align	2
 787              		.global	chEvtWaitOneTimeout
 788              		.syntax unified
 789              		.arm
 790              		.fpu softvfp
 791              		.type	chEvtWaitOneTimeout, %function
 792              	chEvtWaitOneTimeout:
 793              	.LFB21:
 794              		.loc 1 439 0
 795              		.cfi_startproc
 796              		@ args = 0, pretend = 0, frame = 0
 797              		@ frame_needed = 0, uses_anonymous_args = 0
 798              	.LVL57:
ARM GAS  /var/folders/3j/4xdnk5197cv_b7cw3n33qk7r0000gn/T//ccLoBzpe.s 			page 15


 799              		.loc 1 440 0
 800 0000 5C309FE5 		ldr	r3, .L69
 801              		.loc 1 439 0
 802 0004 70402DE9 		push	{r4, r5, r6, lr}
 803              		.cfi_def_cfa_offset 16
 804              		.cfi_offset 4, -16
 805              		.cfi_offset 5, -12
 806              		.cfi_offset 6, -8
 807              		.cfi_offset 14, -4
 808              		.loc 1 440 0
 809 0008 186093E5 		ldr	r6, [r3, #24]
 810              	.LVL58:
 811              		.loc 1 443 0
 812              		.syntax divided
 813              	@ 443 "..//os/kernel/src/chevents.c" 1
 814 000c 9FF021E3 		msr     CPSR_c, #0x9F
 815              	@ 0 "" 2
 816              		.loc 1 445 0
 817              		.arm
 818              		.syntax unified
 819 0010 383096E5 		ldr	r3, [r6, #56]
 820              	.LVL59:
 821 0014 004013E0 		ands	r4, r3, r0
 822              	.LVL60:
 823 0018 0C00001A 		bne	.L63
 824              		.loc 1 446 0
 825 001c 000051E3 		cmp	r1, #0
 826 0020 0200001A 		bne	.L64
 827              	.LVL61:
 828              	.L68:
 829              		.loc 1 460 0
 830              		.syntax divided
 831              	@ 460 "..//os/kernel/src/chevents.c" 1
 832 0024 1FF021E3 		msr     CPSR_c, #0x1F
 833              	@ 0 "" 2
 834              		.loc 1 462 0
 835              		.arm
 836              		.syntax unified
 837 0028 0400A0E1 		mov	r0, r4
 838 002c 7080BDE8 		pop	{r4, r5, r6, pc}
 839              	.LVL62:
 840              	.L64:
 841              		.loc 1 450 0
 842 0030 240086E5 		str	r0, [r6, #36]
 843 0034 0050A0E1 		mov	r5, r0
 844              		.loc 1 451 0
 845 0038 0800A0E3 		mov	r0, #8
 846              	.LVL63:
 847 003c FEFFFFEB 		bl	chSchGoSleepTimeoutS
 848              	.LVL64:
 849 0040 000050E3 		cmp	r0, #0
 850 0044 F6FFFFBA 		blt	.L68
 851              		.loc 1 455 0
 852 0048 383096E5 		ldr	r3, [r6, #56]
 853 004c 054003E0 		and	r4, r3, r5
 854              	.LVL65:
 855              	.L63:
ARM GAS  /var/folders/3j/4xdnk5197cv_b7cw3n33qk7r0000gn/T//ccLoBzpe.s 			page 16


 856              		.loc 1 457 0
 857 0050 002064E2 		rsb	r2, r4, #0
 858 0054 024004E0 		and	r4, r4, r2
 859              	.LVL66:
 860              		.loc 1 458 0
 861 0058 0430C3E1 		bic	r3, r3, r4
 862 005c 383086E5 		str	r3, [r6, #56]
 863 0060 EFFFFFEA 		b	.L68
 864              	.L70:
 865              		.align	2
 866              	.L69:
 867 0064 00000000 		.word	rlist
 868              		.cfi_endproc
 869              	.LFE21:
 870              		.size	chEvtWaitOneTimeout, .-chEvtWaitOneTimeout
 871              		.section	.text.chEvtWaitAnyTimeout,"ax",%progbits
 872              		.align	2
 873              		.global	chEvtWaitAnyTimeout
 874              		.syntax unified
 875              		.arm
 876              		.fpu softvfp
 877              		.type	chEvtWaitAnyTimeout, %function
 878              	chEvtWaitAnyTimeout:
 879              	.LFB22:
 880              		.loc 1 482 0
 881              		.cfi_startproc
 882              		@ args = 0, pretend = 0, frame = 0
 883              		@ frame_needed = 0, uses_anonymous_args = 0
 884              	.LVL67:
 885              		.loc 1 483 0
 886 0000 54309FE5 		ldr	r3, .L78
 887              		.loc 1 482 0
 888 0004 70402DE9 		push	{r4, r5, r6, lr}
 889              		.cfi_def_cfa_offset 16
 890              		.cfi_offset 4, -16
 891              		.cfi_offset 5, -12
 892              		.cfi_offset 6, -8
 893              		.cfi_offset 14, -4
 894              		.loc 1 483 0
 895 0008 185093E5 		ldr	r5, [r3, #24]
 896              	.LVL68:
 897              		.loc 1 486 0
 898              		.syntax divided
 899              	@ 486 "..//os/kernel/src/chevents.c" 1
 900 000c 9FF021E3 		msr     CPSR_c, #0x9F
 901              	@ 0 "" 2
 902              		.loc 1 488 0
 903              		.arm
 904              		.syntax unified
 905 0010 383095E5 		ldr	r3, [r5, #56]
 906              	.LVL69:
 907 0014 006013E0 		ands	r6, r3, r0
 908              	.LVL70:
 909 0018 0C00001A 		bne	.L72
 910              		.loc 1 489 0
 911 001c 000051E3 		cmp	r1, #0
 912 0020 0200001A 		bne	.L73
ARM GAS  /var/folders/3j/4xdnk5197cv_b7cw3n33qk7r0000gn/T//ccLoBzpe.s 			page 17


 913              	.LVL71:
 914              	.L77:
 915              		.loc 1 502 0
 916              		.syntax divided
 917              	@ 502 "..//os/kernel/src/chevents.c" 1
 918 0024 1FF021E3 		msr     CPSR_c, #0x1F
 919              	@ 0 "" 2
 920              		.loc 1 504 0
 921              		.arm
 922              		.syntax unified
 923 0028 0600A0E1 		mov	r0, r6
 924 002c 7080BDE8 		pop	{r4, r5, r6, pc}
 925              	.LVL72:
 926              	.L73:
 927              		.loc 1 493 0
 928 0030 240085E5 		str	r0, [r5, #36]
 929 0034 0040A0E1 		mov	r4, r0
 930              		.loc 1 494 0
 931 0038 0800A0E3 		mov	r0, #8
 932              	.LVL73:
 933 003c FEFFFFEB 		bl	chSchGoSleepTimeoutS
 934              	.LVL74:
 935 0040 000050E3 		cmp	r0, #0
 936 0044 F6FFFFBA 		blt	.L77
 937              		.loc 1 498 0
 938 0048 383095E5 		ldr	r3, [r5, #56]
 939 004c 046003E0 		and	r6, r3, r4
 940              	.LVL75:
 941              	.L72:
 942              		.loc 1 500 0
 943 0050 0630C3E1 		bic	r3, r3, r6
 944 0054 383085E5 		str	r3, [r5, #56]
 945 0058 F1FFFFEA 		b	.L77
 946              	.L79:
 947              		.align	2
 948              	.L78:
 949 005c 00000000 		.word	rlist
 950              		.cfi_endproc
 951              	.LFE22:
 952              		.size	chEvtWaitAnyTimeout, .-chEvtWaitAnyTimeout
 953              		.section	.text.chEvtWaitAllTimeout,"ax",%progbits
 954              		.align	2
 955              		.global	chEvtWaitAllTimeout
 956              		.syntax unified
 957              		.arm
 958              		.fpu softvfp
 959              		.type	chEvtWaitAllTimeout, %function
 960              	chEvtWaitAllTimeout:
 961              	.LFB23:
 962              		.loc 1 523 0
 963              		.cfi_startproc
 964              		@ args = 0, pretend = 0, frame = 0
 965              		@ frame_needed = 0, uses_anonymous_args = 0
 966              	.LVL76:
 967              		.loc 1 524 0
 968 0000 64309FE5 		ldr	r3, .L86
 969              		.loc 1 523 0
ARM GAS  /var/folders/3j/4xdnk5197cv_b7cw3n33qk7r0000gn/T//ccLoBzpe.s 			page 18


 970 0004 70402DE9 		push	{r4, r5, r6, lr}
 971              		.cfi_def_cfa_offset 16
 972              		.cfi_offset 4, -16
 973              		.cfi_offset 5, -12
 974              		.cfi_offset 6, -8
 975              		.cfi_offset 14, -4
 976              		.loc 1 523 0
 977 0008 0040A0E1 		mov	r4, r0
 978              		.loc 1 524 0
 979 000c 185093E5 		ldr	r5, [r3, #24]
 980              	.LVL77:
 981              		.loc 1 526 0
 982              		.syntax divided
 983              	@ 526 "..//os/kernel/src/chevents.c" 1
 984 0010 9FF021E3 		msr     CPSR_c, #0x9F
 985              	@ 0 "" 2
 986              		.loc 1 528 0
 987              		.arm
 988              		.syntax unified
 989 0014 383095E5 		ldr	r3, [r5, #56]
 990 0018 0320D0E1 		bics	r2, r0, r3
 991 001c 0A00000A 		beq	.L81
 992              		.loc 1 529 0
 993 0020 000051E3 		cmp	r1, #0
 994 0024 0100A0E1 		mov	r0, r1
 995              	.LVL78:
 996 0028 0100001A 		bne	.L82
 997              		.loc 1 530 0
 998              		.syntax divided
 999              	@ 530 "..//os/kernel/src/chevents.c" 1
 1000 002c 1FF021E3 		msr     CPSR_c, #0x1F
 1001              	@ 0 "" 2
 1002              		.loc 1 531 0
 1003              		.arm
 1004              		.syntax unified
 1005 0030 7080BDE8 		pop	{r4, r5, r6, pc}
 1006              	.L82:
 1007              		.loc 1 533 0
 1008 0034 244085E5 		str	r4, [r5, #36]
 1009              		.loc 1 534 0
 1010 0038 0900A0E3 		mov	r0, #9
 1011 003c FEFFFFEB 		bl	chSchGoSleepTimeoutS
 1012              	.LVL79:
 1013 0040 000050E3 		cmp	r0, #0
 1014 0044 050000BA 		blt	.L84
 1015 0048 383095E5 		ldr	r3, [r5, #56]
 1016              	.L81:
 1017              		.loc 1 539 0
 1018 004c 0430C3E1 		bic	r3, r3, r4
 1019 0050 383085E5 		str	r3, [r5, #56]
 1020              		.loc 1 541 0
 1021              		.syntax divided
 1022              	@ 541 "..//os/kernel/src/chevents.c" 1
 1023 0054 1FF021E3 		msr     CPSR_c, #0x1F
 1024              	@ 0 "" 2
 1025              		.loc 1 542 0
 1026              		.arm
ARM GAS  /var/folders/3j/4xdnk5197cv_b7cw3n33qk7r0000gn/T//ccLoBzpe.s 			page 19


 1027              		.syntax unified
 1028 0058 0400A0E1 		mov	r0, r4
 1029              		.loc 1 543 0
 1030 005c 7080BDE8 		pop	{r4, r5, r6, pc}
 1031              	.L84:
 1032              		.loc 1 535 0
 1033              		.syntax divided
 1034              	@ 535 "..//os/kernel/src/chevents.c" 1
 1035 0060 1FF021E3 		msr     CPSR_c, #0x1F
 1036              	@ 0 "" 2
 1037              		.loc 1 536 0
 1038              		.arm
 1039              		.syntax unified
 1040 0064 0000A0E3 		mov	r0, #0
 1041 0068 7080BDE8 		pop	{r4, r5, r6, pc}
 1042              	.L87:
 1043              		.align	2
 1044              	.L86:
 1045 006c 00000000 		.word	rlist
 1046              		.cfi_endproc
 1047              	.LFE23:
 1048              		.size	chEvtWaitAllTimeout, .-chEvtWaitAllTimeout
 1049              		.text
 1050              	.Letext0:
 1051              		.file 2 "/usr/local/Cellar/gcc-arm-none-eabi/20180627/arm-none-eabi/include/machine/_default_types
 1052              		.file 3 "/usr/local/Cellar/gcc-arm-none-eabi/20180627/arm-none-eabi/include/sys/_stdint.h"
 1053              		.file 4 "..//os/ports/GCC/ARM/chtypes.h"
 1054              		.file 5 "..//os/kernel/include/chlists.h"
 1055              		.file 6 "..//os/kernel/include/chthreads.h"
 1056              		.file 7 "..//os/ports/GCC/ARM/chcore.h"
 1057              		.file 8 "..//os/kernel/include/chvt.h"
 1058              		.file 9 "..//os/kernel/include/chschd.h"
 1059              		.file 10 "..//os/kernel/include/chmtx.h"
 1060              		.file 11 "..//os/kernel/include/chevents.h"
 1061              		.file 12 "..//os/kernel/include/chregistry.h"
 1062              		.file 13 "..//os/kernel/include/ch.h"