ARM GAS  /var/folders/3j/4xdnk5197cv_b7cw3n33qk7r0000gn/T//ccLoBzpe.s 			page 1


   1              		.cpu arm1176jz-s
   2              		.eabi_attribute 20, 1
   3              		.eabi_attribute 21, 1
   4              		.eabi_attribute 23, 3
   5              		.eabi_attribute 24, 1
   6              		.eabi_attribute 25, 1
   7              		.eabi_attribute 26, 1
   8              		.eabi_attribute 30, 2
   9              		.eabi_attribute 34, 1
  10              		.eabi_attribute 18, 4
  11              		.file	"chevents.c"
  12              		.text
  13              	.Ltext0:
  14              		.cfi_sections	.debug_frame
  15              		.section	.text.chEvtRegisterMask,"ax",%progbits
  16              		.align	2
  17              		.global	chEvtRegisterMask
  18              		.syntax unified
  19              		.arm
  20              		.fpu softvfp
  21              		.type	chEvtRegisterMask, %function
  22              	chEvtRegisterMask:
  23              	.LFB7:
  24              		.file 1 "..//os/kernel/src/chevents.c"
  25              		.loc 1 78 0
  26              		.cfi_startproc
  27              		@ args = 0, pretend = 0, frame = 0
  28              		@ frame_needed = 0, uses_anonymous_args = 0
  29              	.LVL0:
  30 0000 04E02DE5 		str	lr, [sp, #-4]!
  31              		.cfi_def_cfa_offset 4
  32              		.cfi_offset 14, -4
  33              		.loc 1 82 0
  34              		.syntax divided
  35              	@ 82 "..//os/kernel/src/chevents.c" 1
  36 0004 9FF021E3 		msr     CPSR_c, #0x9F
  37              	@ 0 "" 2
  38              		.loc 1 87 0
  39              		.arm
  40              		.syntax unified
  41 0008 0030A0E3 		mov	r3, #0
  42              		.loc 1 85 0
  43 000c 1CC09FE5 		ldr	ip, .L4
  44              		.loc 1 83 0
  45 0010 00E090E5 		ldr	lr, [r0]
  46              		.loc 1 85 0
  47 0014 18C09CE5 		ldr	ip, [ip, #24]
  48              		.loc 1 83 0
  49 0018 00E081E5 		str	lr, [r1]
  50              		.loc 1 84 0
  51 001c 001080E5 		str	r1, [r0]
  52              		.loc 1 85 0
  53 0020 04C081E5 		str	ip, [r1, #4]
  54              		.loc 1 87 0
  55 0024 F820C1E1 		strd	r2, [r1, #8]
  56              		.loc 1 88 0
  57              		.syntax divided
ARM GAS  /var/folders/3j/4xdnk5197cv_b7cw3n33qk7r0000gn/T//ccLoBzpe.s 			page 2


  58              	@ 88 "..//os/kernel/src/chevents.c" 1
  59 0028 1FF021E3 		msr     CPSR_c, #0x1F
  60              	@ 0 "" 2
  61              		.loc 1 89 0
  62              		.arm
  63              		.syntax unified
  64 002c 04F09DE4 		ldr	pc, [sp], #4
  65              	.L5:
  66              		.align	2
  67              	.L4:
  68 0030 00000000 		.word	rlist
  69              		.cfi_endproc
  70              	.LFE7:
  71              		.size	chEvtRegisterMask, .-chEvtRegisterMask
  72              		.section	.text.chEvtUnregister,"ax",%progbits
  73              		.align	2
  74              		.global	chEvtUnregister
  75              		.syntax unified
  76              		.arm
  77              		.fpu softvfp
  78              		.type	chEvtUnregister, %function
  79              	chEvtUnregister:
  80              	.LFB8:
  81              		.loc 1 104 0
  82              		.cfi_startproc
  83              		@ args = 0, pretend = 0, frame = 0
  84              		@ frame_needed = 0, uses_anonymous_args = 0
  85              		@ link register save eliminated.
  86              	.LVL1:
  87              		.loc 1 110 0
  88              		.syntax divided
  89              	@ 110 "..//os/kernel/src/chevents.c" 1
  90 0000 9FF021E3 		msr     CPSR_c, #0x9F
  91              	@ 0 "" 2
  92              		.loc 1 109 0
  93              		.arm
  94              		.syntax unified
  95 0004 0020A0E1 		mov	r2, r0
  96              		.loc 1 111 0
  97 0008 020000EA 		b	.L7
  98              	.LVL2:
  99              	.L9:
 100              		.loc 1 112 0
 101 000c 010053E1 		cmp	r3, r1
 102 0010 0500000A 		beq	.L11
 103 0014 0320A0E1 		mov	r2, r3
 104              	.LVL3:
 105              	.L7:
 106              		.loc 1 111 0
 107 0018 003092E5 		ldr	r3, [r2]
 108 001c 000053E1 		cmp	r3, r0
 109 0020 F9FFFF1A 		bne	.L9
 110              		.loc 1 118 0
 111              		.syntax divided
 112              	@ 118 "..//os/kernel/src/chevents.c" 1
 113 0024 1FF021E3 		msr     CPSR_c, #0x1F
 114              	@ 0 "" 2
ARM GAS  /var/folders/3j/4xdnk5197cv_b7cw3n33qk7r0000gn/T//ccLoBzpe.s 			page 3


 115              		.loc 1 119 0
 116              		.arm
 117              		.syntax unified
 118 0028 1EFF2FE1 		bx	lr
 119              	.L11:
 120              		.loc 1 113 0
 121 002c 003091E5 		ldr	r3, [r1]
 122 0030 003082E5 		str	r3, [r2]
 123              		.loc 1 118 0
 124              		.syntax divided
 125              	@ 118 "..//os/kernel/src/chevents.c" 1
 126 0034 1FF021E3 		msr     CPSR_c, #0x1F
 127              	@ 0 "" 2
 128              		.loc 1 119 0
 129              		.arm
 130              		.syntax unified
 131 0038 1EFF2FE1 		bx	lr
 132              		.cfi_endproc
 133              	.LFE8:
 134              		.size	chEvtUnregister, .-chEvtUnregister
 135              		.section	.text.chEvtGetAndClearEvents,"ax",%progbits
 136              		.align	2
 137              		.global	chEvtGetAndClearEvents
 138              		.syntax unified
 139              		.arm
 140              		.fpu softvfp
 141              		.type	chEvtGetAndClearEvents, %function
 142              	chEvtGetAndClearEvents:
 143              	.LFB9:
 144              		.loc 1 129 0
 145              		.cfi_startproc
 146              		@ args = 0, pretend = 0, frame = 0
 147              		@ frame_needed = 0, uses_anonymous_args = 0
 148              		@ link register save eliminated.
 149              	.LVL4:
 150              		.loc 1 132 0
 151              		.syntax divided
 152              	@ 132 "..//os/kernel/src/chevents.c" 1
 153 0000 9FF021E3 		msr     CPSR_c, #0x9F
 154              	@ 0 "" 2
 155              		.loc 1 134 0
 156              		.arm
 157              		.syntax unified
 158 0004 18309FE5 		ldr	r3, .L13
 159 0008 182093E5 		ldr	r2, [r3, #24]
 160 000c 383092E5 		ldr	r3, [r2, #56]
 161              	.LVL5:
 162              		.loc 1 135 0
 163 0010 0010C3E1 		bic	r1, r3, r0
 164 0014 381082E5 		str	r1, [r2, #56]
 165              		.loc 1 137 0
 166              		.syntax divided
 167              	@ 137 "..//os/kernel/src/chevents.c" 1
 168 0018 1FF021E3 		msr     CPSR_c, #0x1F
 169              	@ 0 "" 2
 170              		.loc 1 139 0
 171              		.arm
ARM GAS  /var/folders/3j/4xdnk5197cv_b7cw3n33qk7r0000gn/T//ccLoBzpe.s 			page 4


 172              		.syntax unified
 173 001c 030000E0 		and	r0, r0, r3
 174              	.LVL6:
 175 0020 1EFF2FE1 		bx	lr
 176              	.L14:
 177              		.align	2
 178              	.L13:
 179 0024 00000000 		.word	rlist
 180              		.cfi_endproc
 181              	.LFE9:
 182              		.size	chEvtGetAndClearEvents, .-chEvtGetAndClearEvents
 183              		.section	.text.chEvtAddEvents,"ax",%progbits
 184              		.align	2
 185              		.global	chEvtAddEvents
 186              		.syntax unified
 187              		.arm
 188              		.fpu softvfp
 189              		.type	chEvtAddEvents, %function
 190              	chEvtAddEvents:
 191              	.LFB10:
 192              		.loc 1 150 0
 193              		.cfi_startproc
 194              		@ args = 0, pretend = 0, frame = 0
 195              		@ frame_needed = 0, uses_anonymous_args = 0
 196              		@ link register save eliminated.
 197              	.LVL7:
 198              		.loc 1 152 0
 199              		.syntax divided
 200              	@ 152 "..//os/kernel/src/chevents.c" 1
 201 0000 9FF021E3 		msr     CPSR_c, #0x9F
 202              	@ 0 "" 2
 203              		.loc 1 154 0
 204              		.arm
 205              		.syntax unified
 206 0004 14309FE5 		ldr	r3, .L16
 207 0008 183093E5 		ldr	r3, [r3, #24]
 208 000c 382093E5 		ldr	r2, [r3, #56]
 209 0010 020080E1 		orr	r0, r0, r2
 210              	.LVL8:
 211 0014 380083E5 		str	r0, [r3, #56]
 212              	.LVL9:
 213              		.loc 1 156 0
 214              		.syntax divided
 215              	@ 156 "..//os/kernel/src/chevents.c" 1
 216 0018 1FF021E3 		msr     CPSR_c, #0x1F
 217              	@ 0 "" 2
 218              		.loc 1 158 0
 219              		.arm
 220              		.syntax unified
 221 001c 1EFF2FE1 		bx	lr
 222              	.L17:
 223              		.align	2
 224              	.L16:
 225 0020 00000000 		.word	rlist
 226              		.cfi_endproc
 227              	.LFE10:
 228              		.size	chEvtAddEvents, .-chEvtAddEvents
ARM GAS  /var/folders/3j/4xdnk5197cv_b7cw3n33qk7r0000gn/T//ccLoBzpe.s 			page 5


 229              		.section	.text.chEvtGetAndClearFlags,"ax",%progbits
 230              		.align	2
 231              		.global	chEvtGetAndClearFlags
 232              		.syntax unified
 233              		.arm
 234              		.fpu softvfp
 235              		.type	chEvtGetAndClearFlags, %function
 236              	chEvtGetAndClearFlags:
 237              	.LFB12:
 238              		.loc 1 202 0
 239              		.cfi_startproc
 240              		@ args = 0, pretend = 0, frame = 0
 241              		@ frame_needed = 0, uses_anonymous_args = 0
 242              		@ link register save eliminated.
 243              	.LVL10:
 244              		.loc 1 202 0
 245 0000 0030A0E1 		mov	r3, r0
 246              		.loc 1 205 0
 247              		.syntax divided
 248              	@ 205 "..//os/kernel/src/chevents.c" 1
 249 0004 9FF021E3 		msr     CPSR_c, #0x9F
 250              	@ 0 "" 2
 251              		.loc 1 208 0
 252              		.arm
 253              		.syntax unified
 254 0008 0020A0E3 		mov	r2, #0
 255              		.loc 1 207 0
 256 000c 0C0090E5 		ldr	r0, [r0, #12]
 257              	.LVL11:
 258              		.loc 1 208 0
 259 0010 0C2083E5 		str	r2, [r3, #12]
 260              		.loc 1 210 0
 261              		.syntax divided
 262              	@ 210 "..//os/kernel/src/chevents.c" 1
 263 0014 1FF021E3 		msr     CPSR_c, #0x1F
 264              	@ 0 "" 2
 265              		.loc 1 212 0
 266              		.arm
 267              		.syntax unified
 268 0018 1EFF2FE1 		bx	lr
 269              		.cfi_endproc
 270              	.LFE12:
 271              		.size	chEvtGetAndClearFlags, .-chEvtGetAndClearFlags
 272              		.section	.text.chEvtSignalI,"ax",%progbits
 273              		.align	2
 274              		.global	chEvtSignalI
 275              		.syntax unified
 276              		.arm
 277              		.fpu softvfp
 278              		.type	chEvtSignalI, %function
 279              	chEvtSignalI:
 280              	.LFB14:
 281              		.loc 1 244 0
 282              		.cfi_startproc
 283              		@ args = 0, pretend = 0, frame = 0
 284              		@ frame_needed = 0, uses_anonymous_args = 0
 285              	.LVL12:
ARM GAS  /var/folders/3j/4xdnk5197cv_b7cw3n33qk7r0000gn/T//ccLoBzpe.s 			page 6


 286              		.loc 1 249 0
 287 0000 383090E5 		ldr	r3, [r0, #56]
 288              		.loc 1 251 0
 289 0004 1C20D0E5 		ldrb	r2, [r0, #28]	@ zero_extendqisi2
 290              		.loc 1 249 0
 291 0008 031081E1 		orr	r1, r1, r3
 292              	.LVL13:
 293              		.loc 1 251 0
 294 000c 080052E3 		cmp	r2, #8
 295              		.loc 1 249 0
 296 0010 381080E5 		str	r1, [r0, #56]
 297              		.loc 1 251 0
 298 0014 0900000A 		beq	.L27
 299              		.loc 1 252 0
 300 0018 090052E3 		cmp	r2, #9
 301 001c 1EFF2F11 		bxne	lr
 302              		.loc 1 254 0
 303 0020 243090E5 		ldr	r3, [r0, #36]
 304              		.loc 1 253 0
 305 0024 0130D3E1 		bics	r3, r3, r1
 306 0028 1EFF2F11 		bxne	lr
 307              	.L21:
 308              	.LVL14:
 309              		.loc 1 244 0
 310 002c 10402DE9 		push	{r4, lr}
 311              		.cfi_def_cfa_offset 8
 312              		.cfi_offset 4, -8
 313              		.cfi_offset 14, -4
 314              	.LBB4:
 315              	.LBB5:
 316              		.loc 1 255 0
 317 0030 FEFFFFEB 		bl	chSchReadyI
 318              	.LVL15:
 319 0034 0030A0E3 		mov	r3, #0
 320 0038 243080E5 		str	r3, [r0, #36]
 321              	.LBE5:
 322              	.LBE4:
 323              		.loc 1 256 0
 324 003c 1080BDE8 		pop	{r4, pc}
 325              	.LVL16:
 326              	.L27:
 327              		.cfi_def_cfa_offset 0
 328              		.cfi_restore 4
 329              		.cfi_restore 14
 330              		.loc 1 252 0 discriminator 1
 331 0040 243090E5 		ldr	r3, [r0, #36]
 332              		.loc 1 251 0 discriminator 1
 333 0044 030011E1 		tst	r1, r3
 334 0048 1EFF2F01 		bxeq	lr
 335 004c F6FFFFEA 		b	.L21
 336              		.cfi_endproc
 337              	.LFE14:
 338              		.size	chEvtSignalI, .-chEvtSignalI
 339              		.section	.text.chEvtBroadcastFlagsI,"ax",%progbits
 340              		.align	2
 341              		.global	chEvtBroadcastFlagsI
 342              		.syntax unified
ARM GAS  /var/folders/3j/4xdnk5197cv_b7cw3n33qk7r0000gn/T//ccLoBzpe.s 			page 7


 343              		.arm
 344              		.fpu softvfp
 345              		.type	chEvtBroadcastFlagsI, %function
 346              	chEvtBroadcastFlagsI:
 347              	.LFB11:
 348              		.loc 1 177 0
 349              		.cfi_startproc
 350              		@ args = 0, pretend = 0, frame = 0
 351              		@ frame_needed = 0, uses_anonymous_args = 0
 352              	.LVL17:
 353 0000 70402DE9 		push	{r4, r5, r6, lr}
 354              		.cfi_def_cfa_offset 16
 355              		.cfi_offset 4, -16
 356              		.cfi_offset 5, -12
 357              		.cfi_offset 6, -8
 358              		.cfi_offset 14, -4
 359              		.loc 1 183 0
 360 0004 004090E5 		ldr	r4, [r0]
 361              	.LVL18:
 362              		.loc 1 184 0
 363 0008 040050E1 		cmp	r0, r4
 364 000c 7080BD08 		popeq	{r4, r5, r6, pc}
 365 0010 0050A0E1 		mov	r5, r0
 366 0014 0160A0E1 		mov	r6, r1
 367              	.LVL19:
 368              	.L30:
 369              		.loc 1 185 0
 370 0018 0C3094E5 		ldr	r3, [r4, #12]
 371              		.loc 1 186 0
 372 001c 081094E5 		ldr	r1, [r4, #8]
 373              		.loc 1 185 0
 374 0020 063083E1 		orr	r3, r3, r6
 375 0024 0C3084E5 		str	r3, [r4, #12]
 376              		.loc 1 186 0
 377 0028 040094E5 		ldr	r0, [r4, #4]
 378 002c FEFFFFEB 		bl	chEvtSignalI
 379              	.LVL20:
 380              		.loc 1 187 0
 381 0030 004094E5 		ldr	r4, [r4]
 382              	.LVL21:
 383              		.loc 1 184 0
 384 0034 040055E1 		cmp	r5, r4
 385 0038 F6FFFF1A 		bne	.L30
 386 003c 7080BDE8 		pop	{r4, r5, r6, pc}
 387              		.cfi_endproc
 388              	.LFE11:
 389              		.size	chEvtBroadcastFlagsI, .-chEvtBroadcastFlagsI
 390              		.section	.text.chEvtSignal,"ax",%progbits
 391              		.align	2
 392              		.global	chEvtSignal
 393              		.syntax unified
 394              		.arm
 395              		.fpu softvfp
 396              		.type	chEvtSignal, %function
 397              	chEvtSignal:
 398              	.LFB13:
 399              		.loc 1 222 0
ARM GAS  /var/folders/3j/4xdnk5197cv_b7cw3n33qk7r0000gn/T//ccLoBzpe.s 			page 8


 400              		.cfi_startproc
 401              		@ args = 0, pretend = 0, frame = 0
 402              		@ frame_needed = 0, uses_anonymous_args = 0
 403              	.LVL22:
 404 0000 10402DE9 		push	{r4, lr}
 405              		.cfi_def_cfa_offset 8
 406              		.cfi_offset 4, -8
 407              		.cfi_offset 14, -4
 408              		.loc 1 226 0
 409              		.syntax divided
 410              	@ 226 "..//os/kernel/src/chevents.c" 1
 411 0004 9FF021E3 		msr     CPSR_c, #0x9F
 412              	@ 0 "" 2
 413              		.loc 1 227 0
 414              		.arm
 415              		.syntax unified
 416 0008 FEFFFFEB 		bl	chEvtSignalI
 417              	.LVL23:
 418              		.loc 1 228 0
 419 000c FEFFFFEB 		bl	chSchRescheduleS
 420              	.LVL24:
 421              		.loc 1 229 0
 422              		.syntax divided
 423              	@ 229 "..//os/kernel/src/chevents.c" 1
 424 0010 1FF021E3 		msr     CPSR_c, #0x1F
 425              	@ 0 "" 2
 426              		.loc 1 230 0
 427              		.arm
 428              		.syntax unified
 429 0014 1080BDE8 		pop	{r4, pc}
 430              		.cfi_endproc
 431              	.LFE13:
 432              		.size	chEvtSignal, .-chEvtSignal
 433              		.section	.text.chEvtBroadcastFlags,"ax",%progbits
 434              		.align	2
 435              		.global	chEvtBroadcastFlags
 436              		.syntax unified
 437              		.arm
 438              		.fpu softvfp
 439              		.type	chEvtBroadcastFlags, %function
 440              	chEvtBroadcastFlags:
 441              	.LFB15:
 442              		.loc 1 271 0
 443              		.cfi_startproc
 444              		@ args = 0, pretend = 0, frame = 0
 445              		@ frame_needed = 0, uses_anonymous_args = 0
 446              	.LVL25:
 447 0000 10402DE9 		push	{r4, lr}
 448              		.cfi_def_cfa_offset 8
 449              		.cfi_offset 4, -8
 450              		.cfi_offset 14, -4
 451              		.loc 1 273 0
 452              		.syntax divided
 453              	@ 273 "..//os/kernel/src/chevents.c" 1
 454 0004 9FF021E3 		msr     CPSR_c, #0x9F
 455              	@ 0 "" 2
 456              		.loc 1 274 0
ARM GAS  /var/folders/3j/4xdnk5197cv_b7cw3n33qk7r0000gn/T//ccLoBzpe.s 			page 9


 457              		.arm
 458              		.syntax unified
 459 0008 FEFFFFEB 		bl	chEvtBroadcastFlagsI
 460              	.LVL26:
 461              		.loc 1 275 0
 462 000c FEFFFFEB 		bl	chSchRescheduleS
 463              	.LVL27:
 464              		.loc 1 276 0
 465              		.syntax divided
 466              	@ 276 "..//os/kernel/src/chevents.c" 1
 467 0010 1FF021E3 		msr     CPSR_c, #0x1F
 468              	@ 0 "" 2
 469              		.loc 1 277 0
 470              		.arm
 471              		.syntax unified
 472 0014 1080BDE8 		pop	{r4, pc}
 473              		.cfi_endproc
 474              	.LFE15:
 475              		.size	chEvtBroadcastFlags, .-chEvtBroadcastFlags
 476              		.section	.text.chEvtGetAndClearFlagsI,"ax",%progbits
 477              		.align	2
 478              		.global	chEvtGetAndClearFlagsI
 479              		.syntax unified
 480              		.arm
 481              		.fpu softvfp
 482              		.type	chEvtGetAndClearFlagsI, %function
 483              	chEvtGetAndClearFlagsI:
 484              	.LFB16:
 485              		.loc 1 290 0
 486              		.cfi_startproc
 487              		@ args = 0, pretend = 0, frame = 0
 488              		@ frame_needed = 0, uses_anonymous_args = 0
 489              		@ link register save eliminated.
 490              	.LVL28:
 491              		.loc 1 290 0
 492 0000 0030A0E1 		mov	r3, r0
 493              		.loc 1 294 0
 494 0004 0020A0E3 		mov	r2, #0
 495              		.loc 1 293 0
 496 0008 0C0090E5 		ldr	r0, [r0, #12]
 497              	.LVL29:
 498              		.loc 1 294 0
 499 000c 0C2083E5 		str	r2, [r3, #12]
 500              		.loc 1 297 0
 501 0010 1EFF2FE1 		bx	lr
 502              		.cfi_endproc
 503              	.LFE16:
 504              		.size	chEvtGetAndClearFlagsI, .-chEvtGetAndClearFlagsI
 505              		.section	.text.chEvtDispatch,"ax",%progbits
 506              		.align	2
 507              		.global	chEvtDispatch
 508              		.syntax unified
 509              		.arm
 510              		.fpu softvfp
 511              		.type	chEvtDispatch, %function
 512              	chEvtDispatch:
 513              	.LFB17:
ARM GAS  /var/folders/3j/4xdnk5197cv_b7cw3n33qk7r0000gn/T//ccLoBzpe.s 			page 10


 514              		.loc 1 308 0
 515              		.cfi_startproc
 516              		@ args = 0, pretend = 0, frame = 0
 517              		@ frame_needed = 0, uses_anonymous_args = 0
 518              	.LVL30:
 519 0000 F0412DE9 		push	{r4, r5, r6, r7, r8, lr}
 520              		.cfi_def_cfa_offset 24
 521              		.cfi_offset 4, -24
 522              		.cfi_offset 5, -20
 523              		.cfi_offset 6, -16
 524              		.cfi_offset 7, -12
 525              		.cfi_offset 8, -8
 526              		.cfi_offset 14, -4
 527              		.loc 1 314 0
 528 0004 005051E2 		subs	r5, r1, #0
 529 0008 F081BD08 		popeq	{r4, r5, r6, r7, r8, pc}
 530 000c 0070A0E1 		mov	r7, r0
 531              		.loc 1 313 0
 532 0010 0040A0E3 		mov	r4, #0
 533              		.loc 1 315 0
 534 0014 0160A0E3 		mov	r6, #1
 535              	.LVL31:
 536              	.L39:
 537 0018 1634A0E1 		lsl	r3, r6, r4
 538 001c 050013E1 		tst	r3, r5
 539 0020 0900000A 		beq	.L41
 540              	.L46:
 541              		.loc 1 319 0
 542 0024 0350C5E1 		bic	r5, r5, r3
 543              	.LVL32:
 544              		.loc 1 320 0
 545 0028 0400A0E1 		mov	r0, r4
 546 002c 043197E7 		ldr	r3, [r7, r4, lsl #2]
 547 0030 33FF2FE1 		blx	r3
 548              	.LVL33:
 549              		.loc 1 314 0
 550 0034 000055E3 		cmp	r5, #0
 551              		.loc 1 322 0
 552 0038 014084E2 		add	r4, r4, #1
 553              	.LVL34:
 554              		.loc 1 314 0
 555 003c F081BD08 		popeq	{r4, r5, r6, r7, r8, pc}
 556              		.loc 1 315 0
 557 0040 1634A0E1 		lsl	r3, r6, r4
 558 0044 050013E1 		tst	r3, r5
 559 0048 F5FFFF1A 		bne	.L46
 560              	.L41:
 561              		.loc 1 322 0
 562 004c 014084E2 		add	r4, r4, #1
 563              	.LVL35:
 564 0050 F0FFFFEA 		b	.L39
 565              		.cfi_endproc
 566              	.LFE17:
 567              		.size	chEvtDispatch, .-chEvtDispatch
 568              		.section	.text.chEvtWaitOne,"ax",%progbits
 569              		.align	2
 570              		.global	chEvtWaitOne
ARM GAS  /var/folders/3j/4xdnk5197cv_b7cw3n33qk7r0000gn/T//ccLoBzpe.s 			page 11


 571              		.syntax unified
 572              		.arm
 573              		.fpu softvfp
 574              		.type	chEvtWaitOne, %function
 575              	chEvtWaitOne:
 576              	.LFB18:
 577              		.loc 1 343 0
 578              		.cfi_startproc
 579              		@ args = 0, pretend = 0, frame = 0
 580              		@ frame_needed = 0, uses_anonymous_args = 0
 581              	.LVL36:
 582              		.loc 1 344 0
 583 0000 44309FE5 		ldr	r3, .L50
 584              		.loc 1 343 0
 585 0004 70402DE9 		push	{r4, r5, r6, lr}
 586              		.cfi_def_cfa_offset 16
 587              		.cfi_offset 4, -16
 588              		.cfi_offset 5, -12
 589              		.cfi_offset 6, -8
 590              		.cfi_offset 14, -4
 591              		.loc 1 344 0
 592 0008 185093E5 		ldr	r5, [r3, #24]
 593              	.LVL37:
 594              		.loc 1 347 0
 595              		.syntax divided
 596              	@ 347 "..//os/kernel/src/chevents.c" 1
 597 000c 9FF021E3 		msr     CPSR_c, #0x9F
 598              	@ 0 "" 2
 599              		.loc 1 349 0
 600              		.arm
 601              		.syntax unified
 602 0010 383095E5 		ldr	r3, [r5, #56]
 603              	.LVL38:
 604 0014 004013E0 		ands	r4, r3, r0
 605              	.LVL39:
 606 0018 0500001A 		bne	.L48
 607 001c 0040A0E1 		mov	r4, r0
 608              	.LVL40:
 609              		.loc 1 350 0
 610 0020 240085E5 		str	r0, [r5, #36]
 611              		.loc 1 351 0
 612 0024 0800A0E3 		mov	r0, #8
 613              	.LVL41:
 614 0028 FEFFFFEB 		bl	chSchGoSleepS
 615              	.LVL42:
 616              		.loc 1 352 0
 617 002c 383095E5 		ldr	r3, [r5, #56]
 618 0030 034004E0 		and	r4, r4, r3
 619              	.LVL43:
 620              	.L48:
 621              		.loc 1 354 0
 622 0034 000064E2 		rsb	r0, r4, #0
 623 0038 040000E0 		and	r0, r0, r4
 624              	.LVL44:
 625              		.loc 1 355 0
 626 003c 0030C3E1 		bic	r3, r3, r0
 627 0040 383085E5 		str	r3, [r5, #56]
ARM GAS  /var/folders/3j/4xdnk5197cv_b7cw3n33qk7r0000gn/T//ccLoBzpe.s 			page 12


 628              		.loc 1 357 0
 629              		.syntax divided
 630              	@ 357 "..//os/kernel/src/chevents.c" 1
 631 0044 1FF021E3 		msr     CPSR_c, #0x1F
 632              	@ 0 "" 2
 633              		.loc 1 359 0
 634              		.arm
 635              		.syntax unified
 636 0048 7080BDE8 		pop	{r4, r5, r6, pc}
 637              	.L51:
 638              		.align	2
 639              	.L50:
 640 004c 00000000 		.word	rlist
 641              		.cfi_endproc
 642              	.LFE18:
 643              		.size	chEvtWaitOne, .-chEvtWaitOne
 644              		.section	.text.chEvtWaitAny,"ax",%progbits
 645              		.align	2
 646              		.global	chEvtWaitAny
 647              		.syntax unified
 648              		.arm
 649              		.fpu softvfp
 650              		.type	chEvtWaitAny, %function
 651              	chEvtWaitAny:
 652              	.LFB19:
 653              		.loc 1 372 0
 654              		.cfi_startproc
 655              		@ args = 0, pretend = 0, frame = 0
 656              		@ frame_needed = 0, uses_anonymous_args = 0
 657              	.LVL45:
 658              		.loc 1 373 0
 659 0000 40309FE5 		ldr	r3, .L55
 660              		.loc 1 372 0
 661 0004 70402DE9 		push	{r4, r5, r6, lr}
 662              		.cfi_def_cfa_offset 16
 663              		.cfi_offset 4, -16
 664              		.cfi_offset 5, -12
 665              		.cfi_offset 6, -8
 666              		.cfi_offset 14, -4
 667              		.loc 1 373 0
 668 0008 185093E5 		ldr	r5, [r3, #24]
 669              	.LVL46:
 670              		.loc 1 376 0
 671              		.syntax divided
 672              	@ 376 "..//os/kernel/src/chevents.c" 1
 673 000c 9FF021E3 		msr     CPSR_c, #0x9F
 674              	@ 0 "" 2
 675              		.loc 1 378 0
 676              		.arm
 677              		.syntax unified
 678 0010 383095E5 		ldr	r3, [r5, #56]
 679              	.LVL47:
 680 0014 004013E0 		ands	r4, r3, r0
 681              	.LVL48:
 682 0018 0500001A 		bne	.L53
 683 001c 0040A0E1 		mov	r4, r0
 684              	.LVL49:
ARM GAS  /var/folders/3j/4xdnk5197cv_b7cw3n33qk7r0000gn/T//ccLoBzpe.s 			page 13


 685              		.loc 1 379 0
 686 0020 240085E5 		str	r0, [r5, #36]
 687              		.loc 1 380 0
 688 0024 0800A0E3 		mov	r0, #8
 689              	.LVL50:
 690 0028 FEFFFFEB 		bl	chSchGoSleepS
 691              	.LVL51:
 692              		.loc 1 381 0
 693 002c 383095E5 		ldr	r3, [r5, #56]
 694 0030 034004E0 		and	r4, r4, r3
 695              	.LVL52:
 696              	.L53:
 697              		.loc 1 383 0
 698 0034 0430C3E1 		bic	r3, r3, r4
 699 0038 383085E5 		str	r3, [r5, #56]
 700              		.loc 1 385 0
 701              		.syntax divided
 702              	@ 385 "..//os/kernel/src/chevents.c" 1
 703 003c 1FF021E3 		msr     CPSR_c, #0x1F
 704              	@ 0 "" 2
 705              		.loc 1 387 0
 706              		.arm
 707              		.syntax unified
 708 0040 0400A0E1 		mov	r0, r4
 709 0044 7080BDE8 		pop	{r4, r5, r6, pc}
 710              	.L56:
 711              		.align	2
 712              	.L55:
 713 0048 00000000 		.word	rlist
 714              		.cfi_endproc
 715              	.LFE19:
 716              		.size	chEvtWaitAny, .-chEvtWaitAny
 717              		.section	.text.chEvtWaitAll,"ax",%progbits
 718              		.align	2
 719              		.global	chEvtWaitAll
 720              		.syntax unified
 721              		.arm
 722              		.fpu softvfp
 723              		.type	chEvtWaitAll, %function
 724              	chEvtWaitAll:
 725              	.LFB20:
 726              		.loc 1 400 0
 727              		.cfi_startproc
 728              		@ args = 0, pretend = 0, frame = 0
 729              		@ frame_needed = 0, uses_anonymous_args = 0
 730              	.LVL53:
 731              		.loc 1 401 0
 732 0000 3C309FE5 		ldr	r3, .L60
 733              		.loc 1 400 0
 734 0004 70402DE9 		push	{r4, r5, r6, lr}
 735              		.cfi_def_cfa_offset 16
 736              		.cfi_offset 4, -16
 737              		.cfi_offset 5, -12
 738              		.cfi_offset 6, -8
 739              		.cfi_offset 14, -4
 740              		.loc 1 400 0
 741 0008 0040A0E1 		mov	r4, r0
ARM GAS  /var/folders/3j/4xdnk5197cv_b7cw3n33qk7r0000gn/T//ccLoBzpe.s 			page 14


 742              		.loc 1 401 0
 743 000c 185093E5 		ldr	r5, [r3, #24]
 744              	.LVL54:
 745              		.loc 1 403 0
 746              		.syntax divided
 747              	@ 403 "..//os/kernel/src/chevents.c" 1
 748 0010 9FF021E3 		msr     CPSR_c, #0x9F
 749              	@ 0 "" 2
 750              		.loc 1 405 0
 751              		.arm
 752              		.syntax unified
 753 0014 383095E5 		ldr	r3, [r5, #56]
 754 0018 0320D0E1 		bics	r2, r0, r3
 755 001c 0300000A 		beq	.L58
 756              		.loc 1 406 0
 757 0020 240085E5 		str	r0, [r5, #36]
 758              		.loc 1 407 0
 759 0024 0900A0E3 		mov	r0, #9
 760              	.LVL55:
 761 0028 FEFFFFEB 		bl	chSchGoSleepS
 762              	.LVL56:
 763 002c 383095E5 		ldr	r3, [r5, #56]
 764              	.L58:
 765              		.loc 1 409 0
 766 0030 0430C3E1 		bic	r3, r3, r4
 767 0034 383085E5 		str	r3, [r5, #56]
 768              		.loc 1 411 0
 769              		.syntax divided
 770              	@ 411 "..//os/kernel/src/chevents.c" 1
 771 0038 1FF021E3 		msr     CPSR_c, #0x1F
 772              	@ 0 "" 2
 773              		.loc 1 413 0
 774              		.arm
 775              		.syntax unified
 776 003c 0400A0E1 		mov	r0, r4
 777 0040 7080BDE8 		pop	{r4, r5, r6, pc}
 778              	.L61:
 779              		.align	2
 780              	.L60:
 781 0044 00000000 		.word	rlist
 782              		.cfi_endproc
 783              	.LFE20:
 784              		.size	chEvtWaitAll, .-chEvtWaitAll
 785              		.section	.text.chEvtWaitOneTimeout,"ax",%progbits
 786              		.align	2
 787              		.global	chEvtWaitOneTimeout
 788              		.syntax unified
 789              		.arm
 790              		.fpu softvfp
 791              		.type	chEvtWaitOneTimeout, %function
 792              	chEvtWaitOneTimeout:
 793              	.LFB21:
 794              		.loc 1 439 0
 795              		.cfi_startproc
 796              		@ args = 0, pretend = 0, frame = 0
 797              		@ frame_needed = 0, uses_anonymous_args = 0
 798              	.LVL57:
ARM GAS  /var/folders/3j/4xdnk5197cv_b7cw3n33qk7r0000gn/T//ccLoBzpe.s 			page 15


 799              		.loc 1 440 0
 800 0000 5C309FE5 		ldr	r3, .L69
 801              		.loc 1 439 0
 802 0004 70402DE9 		push	{r4, r5, r6, lr}
 803              		.cfi_def_cfa_offset 16
 804              		.cfi_offset 4, -16
 805              		.cfi_offset 5, -12
 806              		.cfi_offset 6, -8
 807              		.cfi_offset 14, -4
 808              		.loc 1 440 0
 809 0008 186093E5 		ldr	r6, [r3, #24]
 810              	.LVL58:
 811              		.loc 1 443 0
 812              		.syntax divided
 813              	@ 443 "..//os/kernel/src/chevents.c" 1
 814 000c 9FF021E3 		msr     CPSR_c, #0x9F
 815              	@ 0 "" 2
 816              		.loc 1 445 0
 817              		.arm
 818              		.syntax unified
 819 0010 383096E5 		ldr	r3, [r6, #56]
 820              	.LVL59:
 821 0014 004013E0 		ands	r4, r3, r0
 822              	.LVL60:
 823 0018 0C00001A 		bne	.L63
 824              		.loc 1 446 0
 825 001c 000051E3 		cmp	r1, #0
 826 0020 0200001A 		bne	.L64
 827              	.LVL61:
 828              	.L68:
 829              		.loc 1 460 0
 830              		.syntax divided
 831              	@ 460 "..//os/kernel/src/chevents.c" 1
 832 0024 1FF021E3 		msr     CPSR_c, #0x1F
 833              	@ 0 "" 2
 834              		.loc 1 462 0
 835              		.arm
 836              		.syntax unified
 837 0028 0400A0E1 		mov	r0, r4
 838 002c 7080BDE8 		pop	{r4, r5, r6, pc}
 839              	.LVL62:
 840              	.L64:
 841              		.loc 1 450 0
 842 0030 240086E5 		str	r0, [r6, #36]
 843 0034 0050A0E1 		mov	r5, r0
 844              		.loc 1 451 0
 845 0038 0800A0E3 		mov	r0, #8
 846              	.LVL63:
 847 003c FEFFFFEB 		bl	chSchGoSleepTimeoutS
 848              	.LVL64:
 849 0040 000050E3 		cmp	r0, #0
 850 0044 F6FFFFBA 		blt	.L68
 851              		.loc 1 455 0
 852 0048 383096E5 		ldr	r3, [r6, #56]
 853 004c 054003E0 		and	r4, r3, r5
 854              	.LVL65:
 855              	.L63:
ARM GAS  /var/folders/3j/4xdnk5197cv_b7cw3n33qk7r0000gn/T//ccLoBzpe.s 			page 16


 856              		.loc 1 457 0
 857 0050 002064E2 		rsb	r2, r4, #0
 858 0054 024004E0 		and	r4, r4, r2
 859              	.LVL66:
 860              		.loc 1 458 0
 861 0058 0430C3E1 		bic	r3, r3, r4
 862 005c 383086E5 		str	r3, [r6, #56]
 863 0060 EFFFFFEA 		b	.L68
 864              	.L70:
 865              		.align	2
 866              	.L69:
 867 0064 00000000 		.word	rlist
 868              		.cfi_endproc
 869              	.LFE21:
 870              		.size	chEvtWaitOneTimeout, .-chEvtWaitOneTimeout
 871              		.section	.text.chEvtWaitAnyTimeout,"ax",%progbits
 872              		.align	2
 873              		.global	chEvtWaitAnyTimeout
 874              		.syntax unified
 875              		.arm
 876              		.fpu softvfp
 877              		.type	chEvtWaitAnyTimeout, %function
 878              	chEvtWaitAnyTimeout:
 879              	.LFB22:
 880              		.loc 1 482 0
 881              		.cfi_startproc
 882              		@ args = 0, pretend = 0, frame = 0
 883              		@ frame_needed = 0, uses_anonymous_args = 0
 884              	.LVL67:
 885              		.loc 1 483 0
 886 0000 54309FE5 		ldr	r3, .L78
 887              		.loc 1 482 0
 888 0004 70402DE9 		push	{r4, r5, r6, lr}
 889              		.cfi_def_cfa_offset 16
 890              		.cfi_offset 4, -16
 891              		.cfi_offset 5, -12
 892              		.cfi_offset 6, -8
 893              		.cfi_offset 14, -4
 894              		.loc 1 483 0
 895 0008 185093E5 		ldr	r5, [r3, #24]
 896              	.LVL68:
 897              		.loc 1 486 0
 898              		.syntax divided
 899              	@ 486 "..//os/kernel/src/chevents.c" 1
 900 000c 9FF021E3 		msr     CPSR_c, #0x9F
 901              	@ 0 "" 2
 902              		.loc 1 488 0
 903              		.arm
 904              		.syntax unified
 905 0010 383095E5 		ldr	r3, [r5, #56]
 906              	.LVL69:
 907 0014 006013E0 		ands	r6, r3, r0
 908              	.LVL70:
 909 0018 0C00001A 		bne	.L72
 910              		.loc 1 489 0
 911 001c 000051E3 		cmp	r1, #0
 912 0020 0200001A 		bne	.L73
ARM GAS  /var/folders/3j/4xdnk5197cv_b7cw3n33qk7r0000gn/T//ccLoBzpe.s 			page 17


 913              	.LVL71:
 914              	.L77:
 915              		.loc 1 502 0
 916              		.syntax divided
 917              	@ 502 "..//os/kernel/src/chevents.c" 1
 918 0024 1FF021E3 		msr     CPSR_c, #0x1F
 919              	@ 0 "" 2
 920              		.loc 1 504 0
 921              		.arm
 922              		.syntax unified
 923 0028 0600A0E1 		mov	r0, r6
 924 002c 7080BDE8 		pop	{r4, r5, r6, pc}
 925              	.LVL72:
 926              	.L73:
 927              		.loc 1 493 0
 928 0030 240085E5 		str	r0, [r5, #36]
 929 0034 0040A0E1 		mov	r4, r0
 930              		.loc 1 494 0
 931 0038 0800A0E3 		mov	r0, #8
 932              	.LVL73:
 933 003c FEFFFFEB 		bl	chSchGoSleepTimeoutS
 934              	.LVL74:
 935 0040 000050E3 		cmp	r0, #0
 936 0044 F6FFFFBA 		blt	.L77
 937              		.loc 1 498 0
 938 0048 383095E5 		ldr	r3, [r5, #56]
 939 004c 046003E0 		and	r6, r3, r4
 940              	.LVL75:
 941              	.L72:
 942              		.loc 1 500 0
 943 0050 0630C3E1 		bic	r3, r3, r6
 944 0054 383085E5 		str	r3, [r5, #56]
 945 0058 F1FFFFEA 		b	.L77
 946              	.L79:
 947              		.align	2
 948              	.L78:
 949 005c 00000000 		.word	rlist
 950              		.cfi_endproc
 951              	.LFE22:
 952              		.size	chEvtWaitAnyTimeout, .-chEvtWaitAnyTimeout
 953              		.section	.text.chEvtWaitAllTimeout,"ax",%progbits
 954              		.align	2
 955              		.global	chEvtWaitAllTimeout
 956              		.syntax unified
 957              		.arm
 958              		.fpu softvfp
 959              		.type	chEvtWaitAllTimeout, %function
 960              	chEvtWaitAllTimeout:
 961              	.LFB23:
 962              		.loc 1 523 0
 963              		.cfi_startproc
 964              		@ args = 0, pretend = 0, frame = 0
 965              		@ frame_needed = 0, uses_anonymous_args = 0
 966              	.LVL76:
 967              		.loc 1 524 0
 968 0000 64309FE5 		ldr	r3, .L86
 969              		.loc 1 523 0
ARM GAS  /var/folders/3j/4xdnk5197cv_b7cw3n33qk7r0000gn/T//ccLoBzpe.s 			page 18


 970 0004 70402DE9 		push	{r4, r5, r6, lr}
 971              		.cfi_def_cfa_offset 16
 972              		.cfi_offset 4, -16
 973              		.cfi_offset 5, -12
 974              		.cfi_offset 6, -8
 975              		.cfi_offset 14, -4
 976              		.loc 1 523 0
 977 0008 0040A0E1 		mov	r4, r0
 978              		.loc 1 524 0
 979 000c 185093E5 		ldr	r5, [r3, #24]
 980              	.LVL77:
 981              		.loc 1 526 0
 982              		.syntax divided
 983              	@ 526 "..//os/kernel/src/chevents.c" 1
 984 0010 9FF021E3 		msr     CPSR_c, #0x9F
 985              	@ 0 "" 2
 986              		.loc 1 528 0
 987              		.arm
 988              		.syntax unified
 989 0014 383095E5 		ldr	r3, [r5, #56]
 990 0018 0320D0E1 		bics	r2, r0, r3
 991 001c 0A00000A 		beq	.L81
 992              		.loc 1 529 0
 993 0020 000051E3 		cmp	r1, #0
 994 0024 0100A0E1 		mov	r0, r1
 995              	.LVL78:
 996 0028 0100001A 		bne	.L82
 997              		.loc 1 530 0
 998              		.syntax divided
 999              	@ 530 "..//os/kernel/src/chevents.c" 1
 1000 002c 1FF021E3 		msr     CPSR_c, #0x1F
 1001              	@ 0 "" 2
 1002              		.loc 1 531 0
 1003              		.arm
 1004              		.syntax unified
 1005 0030 7080BDE8 		pop	{r4, r5, r6, pc}
 1006              	.L82:
 1007              		.loc 1 533 0
 1008 0034 244085E5 		str	r4, [r5, #36]
 1009              		.loc 1 534 0
 1010 0038 0900A0E3 		mov	r0, #9
 1011 003c FEFFFFEB 		bl	chSchGoSleepTimeoutS
 1012              	.LVL79:
 1013 0040 000050E3 		cmp	r0, #0
 1014 0044 050000BA 		blt	.L84
 1015 0048 383095E5 		ldr	r3, [r5, #56]
 1016              	.L81:
 1017              		.loc 1 539 0
 1018 004c 0430C3E1 		bic	r3, r3, r4
 1019 0050 383085E5 		str	r3, [r5, #56]
 1020              		.loc 1 541 0
 1021              		.syntax divided
 1022              	@ 541 "..//os/kernel/src/chevents.c" 1
 1023 0054 1FF021E3 		msr     CPSR_c, #0x1F
 1024              	@ 0 "" 2
 1025              		.loc 1 542 0
 1026              		.arm
ARM GAS  /var/folders/3j/4xdnk5197cv_b7cw3n33qk7r0000gn/T//ccLoBzpe.s 			page 19


 1027              		.syntax unified
 1028 0058 0400A0E1 		mov	r0, r4
 1029              		.loc 1 543 0
 1030 005c 7080BDE8 		pop	{r4, r5, r6, pc}
 1031              	.L84:
 1032              		.loc 1 535 0
 1033              		.syntax divided
 1034              	@ 535 "..//os/kernel/src/chevents.c" 1
 1035 0060 1FF021E3 		msr     CPSR_c, #0x1F
 1036              	@ 0 "" 2
 1037              		.loc 1 536 0
 1038              		.arm
 1039              		.syntax unified
 1040 0064 0000A0E3 		mov	r0, #0
 1041 0068 7080BDE8 		pop	{r4, r5, r6, pc}
 1042              	.L87:
 1043              		.align	2
 1044              	.L86:
 1045 006c 00000000 		.word	rlist
 1046              		.cfi_endproc
 1047              	.LFE23:
 1048              		.size	chEvtWaitAllTimeout, .-chEvtWaitAllTimeout
 1049              		.text
 1050              	.Letext0:
 1051              		.file 2 "/usr/local/Cellar/gcc-arm-none-eabi/20180627/arm-none-eabi/include/machine/_default_types
 1052              		.file 3 "/usr/local/Cellar/gcc-arm-none-eabi/20180627/arm-none-eabi/include/sys/_stdint.h"
 1053              		.file 4 "..//os/ports/GCC/ARM/chtypes.h"
 1054              		.file 5 "..//os/kernel/include/chlists.h"
 1055              		.file 6 "..//os/kernel/include/chthreads.h"
 1056              		.file 7 "..//os/ports/GCC/ARM/chcore.h"
 1057              		.file 8 "..//os/kernel/include/chvt.h"
 1058              		.file 9 "..//os/kernel/include/chschd.h"
 1059              		.file 10 "..//os/kernel/include/chmtx.h"
 1060              		.file 11 "..//os/kernel/include/chevents.h"
 1061              		.file 12 "..//os/kernel/include/chregistry.h"
 1062              		.file 13 "..//os/kernel/include/ch.h"
 1063              		.section	.debug_info,"",%progbits
 1064              	.Ldebug_info0:
 1065 0000 010C0000 		.4byte	0xc01
 1066 0004 0400     		.2byte	0x4
 1067 0006 00000000 		.4byte	.Ldebug_abbrev0
 1068 000a 04       		.byte	0x4
 1069 000b 01       		.uleb128 0x1
 1070 000c 42010000 		.4byte	.LASF132
 1071 0010 0C       		.byte	0xc
 1072 0011 96060000 		.4byte	.LASF133
 1073 0015 00000000 		.4byte	.LASF134
 1074 0019 00000000 		.4byte	.Ldebug_ranges0+0
 1075 001d 00000000 		.4byte	0
 1076 0021 00000000 		.4byte	.Ldebug_line0
 1077 0025 02       		.uleb128 0x2
 1078 0026 04       		.byte	0x4
 1079 0027 05       		.byte	0x5
 1080 0028 696E7400 		.ascii	"int\000"
 1081 002c 03       		.uleb128 0x3
 1082 002d 04       		.byte	0x4
 1083 002e 07       		.byte	0x7
ARM GAS  /var/folders/3j/4xdnk5197cv_b7cw3n33qk7r0000gn/T//ccLoBzpe.s 			page 20


 1084 002f D1020000 		.4byte	.LASF0
 1085 0033 03       		.uleb128 0x3
 1086 0034 01       		.byte	0x1
 1087 0035 06       		.byte	0x6
 1088 0036 FD000000 		.4byte	.LASF1
 1089 003a 04       		.uleb128 0x4
 1090 003b 6D000000 		.4byte	.LASF4
 1091 003f 02       		.byte	0x2
 1092 0040 2B       		.byte	0x2b
 1093 0041 45000000 		.4byte	0x45
 1094 0045 03       		.uleb128 0x3
 1095 0046 01       		.byte	0x1
 1096 0047 08       		.byte	0x8
 1097 0048 7F040000 		.4byte	.LASF2
 1098 004c 03       		.uleb128 0x3
 1099 004d 02       		.byte	0x2
 1100 004e 05       		.byte	0x5
 1101 004f B9040000 		.4byte	.LASF3
 1102 0053 04       		.uleb128 0x4
 1103 0054 8A050000 		.4byte	.LASF5
 1104 0058 02       		.byte	0x2
 1105 0059 39       		.byte	0x39
 1106 005a 5E000000 		.4byte	0x5e
 1107 005e 03       		.uleb128 0x3
 1108 005f 02       		.byte	0x2
 1109 0060 07       		.byte	0x7
 1110 0061 37030000 		.4byte	.LASF6
 1111 0065 04       		.uleb128 0x4
 1112 0066 BD050000 		.4byte	.LASF7
 1113 006a 02       		.byte	0x2
 1114 006b 4D       		.byte	0x4d
 1115 006c 70000000 		.4byte	0x70
 1116 0070 03       		.uleb128 0x3
 1117 0071 04       		.byte	0x4
 1118 0072 05       		.byte	0x5
 1119 0073 F5010000 		.4byte	.LASF8
 1120 0077 04       		.uleb128 0x4
 1121 0078 7A020000 		.4byte	.LASF9
 1122 007c 02       		.byte	0x2
 1123 007d 4F       		.byte	0x4f
 1124 007e 82000000 		.4byte	0x82
 1125 0082 03       		.uleb128 0x3
 1126 0083 04       		.byte	0x4
 1127 0084 07       		.byte	0x7
 1128 0085 E6020000 		.4byte	.LASF10
 1129 0089 03       		.uleb128 0x3
 1130 008a 08       		.byte	0x8
 1131 008b 05       		.byte	0x5
 1132 008c EF000000 		.4byte	.LASF11
 1133 0090 03       		.uleb128 0x3
 1134 0091 08       		.byte	0x8
 1135 0092 07       		.byte	0x7
 1136 0093 8A000000 		.4byte	.LASF12
 1137 0097 04       		.uleb128 0x4
 1138 0098 15060000 		.4byte	.LASF13
 1139 009c 03       		.byte	0x3
 1140 009d 18       		.byte	0x18
ARM GAS  /var/folders/3j/4xdnk5197cv_b7cw3n33qk7r0000gn/T//ccLoBzpe.s 			page 21


 1141 009e 3A000000 		.4byte	0x3a
 1142 00a2 04       		.uleb128 0x4
 1143 00a3 29020000 		.4byte	.LASF14
 1144 00a7 03       		.byte	0x3
 1145 00a8 24       		.byte	0x24
 1146 00a9 53000000 		.4byte	0x53
 1147 00ad 04       		.uleb128 0x4
 1148 00ae 77040000 		.4byte	.LASF15
 1149 00b2 03       		.byte	0x3
 1150 00b3 2C       		.byte	0x2c
 1151 00b4 65000000 		.4byte	0x65
 1152 00b8 04       		.uleb128 0x4
 1153 00b9 51050000 		.4byte	.LASF16
 1154 00bd 03       		.byte	0x3
 1155 00be 30       		.byte	0x30
 1156 00bf 77000000 		.4byte	0x77
 1157 00c3 04       		.uleb128 0x4
 1158 00c4 82030000 		.4byte	.LASF17
 1159 00c8 04       		.byte	0x4
 1160 00c9 2A       		.byte	0x2a
 1161 00ca 97000000 		.4byte	0x97
 1162 00ce 04       		.uleb128 0x4
 1163 00cf FE010000 		.4byte	.LASF18
 1164 00d3 04       		.byte	0x4
 1165 00d4 2B       		.byte	0x2b
 1166 00d5 97000000 		.4byte	0x97
 1167 00d9 04       		.uleb128 0x4
 1168 00da 55040000 		.4byte	.LASF19
 1169 00de 04       		.byte	0x4
 1170 00df 2C       		.byte	0x2c
 1171 00e0 97000000 		.4byte	0x97
 1172 00e4 04       		.uleb128 0x4
 1173 00e5 7B050000 		.4byte	.LASF20
 1174 00e9 04       		.byte	0x4
 1175 00ea 2D       		.byte	0x2d
 1176 00eb 97000000 		.4byte	0x97
 1177 00ef 04       		.uleb128 0x4
 1178 00f0 6F040000 		.4byte	.LASF21
 1179 00f4 04       		.byte	0x4
 1180 00f5 2E       		.byte	0x2e
 1181 00f6 B8000000 		.4byte	0xb8
 1182 00fa 04       		.uleb128 0x4
 1183 00fb 5C030000 		.4byte	.LASF22
 1184 00ff 04       		.byte	0x4
 1185 0100 2F       		.byte	0x2f
 1186 0101 AD000000 		.4byte	0xad
 1187 0105 04       		.uleb128 0x4
 1188 0106 AF020000 		.4byte	.LASF23
 1189 010a 04       		.byte	0x4
 1190 010b 30       		.byte	0x30
 1191 010c AD000000 		.4byte	0xad
 1192 0110 04       		.uleb128 0x4
 1193 0111 96030000 		.4byte	.LASF24
 1194 0115 04       		.byte	0x4
 1195 0116 31       		.byte	0x31
 1196 0117 B8000000 		.4byte	0xb8
 1197 011b 04       		.uleb128 0x4
ARM GAS  /var/folders/3j/4xdnk5197cv_b7cw3n33qk7r0000gn/T//ccLoBzpe.s 			page 22


 1198 011c E7050000 		.4byte	.LASF25
 1199 0120 04       		.byte	0x4
 1200 0121 32       		.byte	0x32
 1201 0122 B8000000 		.4byte	0xb8
 1202 0126 04       		.uleb128 0x4
 1203 0127 A8050000 		.4byte	.LASF26
 1204 012b 04       		.byte	0x4
 1205 012c 33       		.byte	0x33
 1206 012d B8000000 		.4byte	0xb8
 1207 0131 05       		.uleb128 0x5
 1208 0132 26010000 		.4byte	0x126
 1209 0136 04       		.uleb128 0x4
 1210 0137 24050000 		.4byte	.LASF27
 1211 013b 05       		.byte	0x5
 1212 013c 23       		.byte	0x23
 1213 013d 41010000 		.4byte	0x141
 1214 0141 06       		.uleb128 0x6
 1215 0142 24050000 		.4byte	.LASF27
 1216 0146 44       		.byte	0x44
 1217 0147 06       		.byte	0x6
 1218 0148 57       		.byte	0x57
 1219 0149 32020000 		.4byte	0x232
 1220 014d 07       		.uleb128 0x7
 1221 014e 06050000 		.4byte	.LASF28
 1222 0152 06       		.byte	0x6
 1223 0153 58       		.byte	0x58
 1224 0154 53020000 		.4byte	0x253
 1225 0158 00       		.byte	0
 1226 0159 07       		.uleb128 0x7
 1227 015a 68040000 		.4byte	.LASF29
 1228 015e 06       		.byte	0x6
 1229 015f 5A       		.byte	0x5a
 1230 0160 53020000 		.4byte	0x253
 1231 0164 04       		.byte	0x4
 1232 0165 07       		.uleb128 0x7
 1233 0166 DB000000 		.4byte	.LASF30
 1234 016a 06       		.byte	0x6
 1235 016b 5C       		.byte	0x5c
 1236 016c EF000000 		.4byte	0xef
 1237 0170 08       		.byte	0x8
 1238 0171 07       		.uleb128 0x7
 1239 0172 B3060000 		.4byte	.LASF31
 1240 0176 06       		.byte	0x6
 1241 0177 5D       		.byte	0x5d
 1242 0178 0E030000 		.4byte	0x30e
 1243 017c 0C       		.byte	0xc
 1244 017d 07       		.uleb128 0x7
 1245 017e 51020000 		.4byte	.LASF32
 1246 0182 06       		.byte	0x6
 1247 0183 5F       		.byte	0x5f
 1248 0184 53020000 		.4byte	0x253
 1249 0188 10       		.byte	0x10
 1250 0189 07       		.uleb128 0x7
 1251 018a FD030000 		.4byte	.LASF33
 1252 018e 06       		.byte	0x6
 1253 018f 60       		.byte	0x60
 1254 0190 53020000 		.4byte	0x253
ARM GAS  /var/folders/3j/4xdnk5197cv_b7cw3n33qk7r0000gn/T//ccLoBzpe.s 			page 23


 1255 0194 14       		.byte	0x14
 1256 0195 07       		.uleb128 0x7
 1257 0196 4C060000 		.4byte	.LASF34
 1258 019a 06       		.byte	0x6
 1259 019b 67       		.byte	0x67
 1260 019c 63050000 		.4byte	0x563
 1261 01a0 18       		.byte	0x18
 1262 01a1 07       		.uleb128 0x7
 1263 01a2 C3040000 		.4byte	.LASF35
 1264 01a6 06       		.byte	0x6
 1265 01a7 72       		.byte	0x72
 1266 01a8 CE000000 		.4byte	0xce
 1267 01ac 1C       		.byte	0x1c
 1268 01ad 07       		.uleb128 0x7
 1269 01ae 1C050000 		.4byte	.LASF36
 1270 01b2 06       		.byte	0x6
 1271 01b3 76       		.byte	0x76
 1272 01b4 C3000000 		.4byte	0xc3
 1273 01b8 1D       		.byte	0x1d
 1274 01b9 07       		.uleb128 0x7
 1275 01ba FE050000 		.4byte	.LASF37
 1276 01be 06       		.byte	0x6
 1277 01bf 7B       		.byte	0x7b
 1278 01c0 D9000000 		.4byte	0xd9
 1279 01c4 1E       		.byte	0x1e
 1280 01c5 07       		.uleb128 0x7
 1281 01c6 CB040000 		.4byte	.LASF38
 1282 01ca 06       		.byte	0x6
 1283 01cb 81       		.byte	0x81
 1284 01cc E4000000 		.4byte	0xe4
 1285 01d0 1F       		.byte	0x1f
 1286 01d1 07       		.uleb128 0x7
 1287 01d2 C7050000 		.4byte	.LASF39
 1288 01d6 06       		.byte	0x6
 1289 01d7 88       		.byte	0x88
 1290 01d8 31010000 		.4byte	0x131
 1291 01dc 20       		.byte	0x20
 1292 01dd 08       		.uleb128 0x8
 1293 01de 705F7500 		.ascii	"p_u\000"
 1294 01e2 06       		.byte	0x6
 1295 01e3 AD       		.byte	0xad
 1296 01e4 2E050000 		.4byte	0x52e
 1297 01e8 24       		.byte	0x24
 1298 01e9 07       		.uleb128 0x7
 1299 01ea B9060000 		.4byte	.LASF40
 1300 01ee 06       		.byte	0x6
 1301 01ef B2       		.byte	0xb2
 1302 01f0 79020000 		.4byte	0x279
 1303 01f4 28       		.byte	0x28
 1304 01f5 07       		.uleb128 0x7
 1305 01f6 D5050000 		.4byte	.LASF41
 1306 01fa 06       		.byte	0x6
 1307 01fb B8       		.byte	0xb8
 1308 01fc 59020000 		.4byte	0x259
 1309 0200 2C       		.byte	0x2c
 1310 0201 07       		.uleb128 0x7
 1311 0202 60000000 		.4byte	.LASF42
ARM GAS  /var/folders/3j/4xdnk5197cv_b7cw3n33qk7r0000gn/T//ccLoBzpe.s 			page 24


 1312 0206 06       		.byte	0x6
 1313 0207 BC       		.byte	0xbc
 1314 0208 FA000000 		.4byte	0xfa
 1315 020c 34       		.byte	0x34
 1316 020d 07       		.uleb128 0x7
 1317 020e 46050000 		.4byte	.LASF43
 1318 0212 06       		.byte	0x6
 1319 0213 C2       		.byte	0xc2
 1320 0214 10010000 		.4byte	0x110
 1321 0218 38       		.byte	0x38
 1322 0219 07       		.uleb128 0x7
 1323 021a AF040000 		.4byte	.LASF44
 1324 021e 06       		.byte	0x6
 1325 021f C9       		.byte	0xc9
 1326 0220 75050000 		.4byte	0x575
 1327 0224 3C       		.byte	0x3c
 1328 0225 07       		.uleb128 0x7
 1329 0226 B2050000 		.4byte	.LASF45
 1330 022a 06       		.byte	0x6
 1331 022b CD       		.byte	0xcd
 1332 022c EF000000 		.4byte	0xef
 1333 0230 40       		.byte	0x40
 1334 0231 00       		.byte	0
 1335 0232 09       		.uleb128 0x9
 1336 0233 08       		.byte	0x8
 1337 0234 05       		.byte	0x5
 1338 0235 5A       		.byte	0x5a
 1339 0236 53020000 		.4byte	0x253
 1340 023a 07       		.uleb128 0x7
 1341 023b 06050000 		.4byte	.LASF28
 1342 023f 05       		.byte	0x5
 1343 0240 5B       		.byte	0x5b
 1344 0241 53020000 		.4byte	0x253
 1345 0245 00       		.byte	0
 1346 0246 07       		.uleb128 0x7
 1347 0247 68040000 		.4byte	.LASF29
 1348 024b 05       		.byte	0x5
 1349 024c 5D       		.byte	0x5d
 1350 024d 53020000 		.4byte	0x253
 1351 0251 04       		.byte	0x4
 1352 0252 00       		.byte	0
 1353 0253 0A       		.uleb128 0xa
 1354 0254 04       		.byte	0x4
 1355 0255 36010000 		.4byte	0x136
 1356 0259 04       		.uleb128 0x4
 1357 025a 0B040000 		.4byte	.LASF46
 1358 025e 05       		.byte	0x5
 1359 025f 5F       		.byte	0x5f
 1360 0260 32020000 		.4byte	0x232
 1361 0264 09       		.uleb128 0x9
 1362 0265 04       		.byte	0x4
 1363 0266 05       		.byte	0x5
 1364 0267 64       		.byte	0x64
 1365 0268 79020000 		.4byte	0x279
 1366 026c 07       		.uleb128 0x7
 1367 026d 06050000 		.4byte	.LASF28
 1368 0271 05       		.byte	0x5
ARM GAS  /var/folders/3j/4xdnk5197cv_b7cw3n33qk7r0000gn/T//ccLoBzpe.s 			page 25


 1369 0272 66       		.byte	0x66
 1370 0273 53020000 		.4byte	0x253
 1371 0277 00       		.byte	0
 1372 0278 00       		.byte	0
 1373 0279 04       		.uleb128 0x4
 1374 027a 8A030000 		.4byte	.LASF47
 1375 027e 05       		.byte	0x5
 1376 027f 69       		.byte	0x69
 1377 0280 64020000 		.4byte	0x264
 1378 0284 04       		.uleb128 0x4
 1379 0285 A8030000 		.4byte	.LASF48
 1380 0289 07       		.byte	0x7
 1381 028a 9D       		.byte	0x9d
 1382 028b B8000000 		.4byte	0xb8
 1383 028f 04       		.uleb128 0x4
 1384 0290 8A020000 		.4byte	.LASF49
 1385 0294 07       		.byte	0x7
 1386 0295 A2       		.byte	0xa2
 1387 0296 9A020000 		.4byte	0x29a
 1388 029a 0B       		.uleb128 0xb
 1389 029b 04       		.byte	0x4
 1390 029c 06       		.uleb128 0x6
 1391 029d CE050000 		.4byte	.LASF50
 1392 02a1 24       		.byte	0x24
 1393 02a2 07       		.byte	0x7
 1394 02a3 B9       		.byte	0xb9
 1395 02a4 0E030000 		.4byte	0x30e
 1396 02a8 08       		.uleb128 0x8
 1397 02a9 723400   		.ascii	"r4\000"
 1398 02ac 07       		.byte	0x7
 1399 02ad BA       		.byte	0xba
 1400 02ae 8F020000 		.4byte	0x28f
 1401 02b2 00       		.byte	0
 1402 02b3 08       		.uleb128 0x8
 1403 02b4 723500   		.ascii	"r5\000"
 1404 02b7 07       		.byte	0x7
 1405 02b8 BB       		.byte	0xbb
 1406 02b9 8F020000 		.4byte	0x28f
 1407 02bd 04       		.byte	0x4
 1408 02be 08       		.uleb128 0x8
 1409 02bf 723600   		.ascii	"r6\000"
 1410 02c2 07       		.byte	0x7
 1411 02c3 BC       		.byte	0xbc
 1412 02c4 8F020000 		.4byte	0x28f
 1413 02c8 08       		.byte	0x8
 1414 02c9 08       		.uleb128 0x8
 1415 02ca 723700   		.ascii	"r7\000"
 1416 02cd 07       		.byte	0x7
 1417 02ce BD       		.byte	0xbd
 1418 02cf 8F020000 		.4byte	0x28f
 1419 02d3 0C       		.byte	0xc
 1420 02d4 08       		.uleb128 0x8
 1421 02d5 723800   		.ascii	"r8\000"
 1422 02d8 07       		.byte	0x7
 1423 02d9 BE       		.byte	0xbe
 1424 02da 8F020000 		.4byte	0x28f
 1425 02de 10       		.byte	0x10
ARM GAS  /var/folders/3j/4xdnk5197cv_b7cw3n33qk7r0000gn/T//ccLoBzpe.s 			page 26


 1426 02df 08       		.uleb128 0x8
 1427 02e0 723900   		.ascii	"r9\000"
 1428 02e3 07       		.byte	0x7
 1429 02e4 BF       		.byte	0xbf
 1430 02e5 8F020000 		.4byte	0x28f
 1431 02e9 14       		.byte	0x14
 1432 02ea 08       		.uleb128 0x8
 1433 02eb 72313000 		.ascii	"r10\000"
 1434 02ef 07       		.byte	0x7
 1435 02f0 C0       		.byte	0xc0
 1436 02f1 8F020000 		.4byte	0x28f
 1437 02f5 18       		.byte	0x18
 1438 02f6 08       		.uleb128 0x8
 1439 02f7 72313100 		.ascii	"r11\000"
 1440 02fb 07       		.byte	0x7
 1441 02fc C1       		.byte	0xc1
 1442 02fd 8F020000 		.4byte	0x28f
 1443 0301 1C       		.byte	0x1c
 1444 0302 08       		.uleb128 0x8
 1445 0303 6C7200   		.ascii	"lr\000"
 1446 0306 07       		.byte	0x7
 1447 0307 C2       		.byte	0xc2
 1448 0308 8F020000 		.4byte	0x28f
 1449 030c 20       		.byte	0x20
 1450 030d 00       		.byte	0
 1451 030e 06       		.uleb128 0x6
 1452 030f 2F030000 		.4byte	.LASF51
 1453 0313 04       		.byte	0x4
 1454 0314 07       		.byte	0x7
 1455 0315 CA       		.byte	0xca
 1456 0316 27030000 		.4byte	0x327
 1457 031a 08       		.uleb128 0x8
 1458 031b 72313300 		.ascii	"r13\000"
 1459 031f 07       		.byte	0x7
 1460 0320 CB       		.byte	0xcb
 1461 0321 27030000 		.4byte	0x327
 1462 0325 00       		.byte	0
 1463 0326 00       		.byte	0
 1464 0327 0A       		.uleb128 0xa
 1465 0328 04       		.byte	0x4
 1466 0329 9C020000 		.4byte	0x29c
 1467 032d 04       		.uleb128 0x4
 1468 032e 18030000 		.4byte	.LASF52
 1469 0332 08       		.byte	0x8
 1470 0333 4E       		.byte	0x4e
 1471 0334 38030000 		.4byte	0x338
 1472 0338 0A       		.uleb128 0xa
 1473 0339 04       		.byte	0x4
 1474 033a 3E030000 		.4byte	0x33e
 1475 033e 0C       		.uleb128 0xc
 1476 033f 49030000 		.4byte	0x349
 1477 0343 0D       		.uleb128 0xd
 1478 0344 9A020000 		.4byte	0x29a
 1479 0348 00       		.byte	0
 1480 0349 04       		.uleb128 0x4
 1481 034a 6E050000 		.4byte	.LASF53
 1482 034e 08       		.byte	0x8
ARM GAS  /var/folders/3j/4xdnk5197cv_b7cw3n33qk7r0000gn/T//ccLoBzpe.s 			page 27


 1483 034f 53       		.byte	0x53
 1484 0350 54030000 		.4byte	0x354
 1485 0354 06       		.uleb128 0x6
 1486 0355 6E050000 		.4byte	.LASF53
 1487 0359 14       		.byte	0x14
 1488 035a 08       		.byte	0x8
 1489 035b 5A       		.byte	0x5a
 1490 035c 9D030000 		.4byte	0x39d
 1491 0360 07       		.uleb128 0x7
 1492 0361 DE020000 		.4byte	.LASF54
 1493 0365 08       		.byte	0x8
 1494 0366 5B       		.byte	0x5b
 1495 0367 9D030000 		.4byte	0x39d
 1496 036b 00       		.byte	0
 1497 036c 07       		.uleb128 0x7
 1498 036d 93020000 		.4byte	.LASF55
 1499 0371 08       		.byte	0x8
 1500 0372 5D       		.byte	0x5d
 1501 0373 9D030000 		.4byte	0x39d
 1502 0377 04       		.byte	0x4
 1503 0378 07       		.uleb128 0x7
 1504 0379 C7030000 		.4byte	.LASF56
 1505 037d 08       		.byte	0x8
 1506 037e 5F       		.byte	0x5f
 1507 037f 26010000 		.4byte	0x126
 1508 0383 08       		.byte	0x8
 1509 0384 07       		.uleb128 0x7
 1510 0385 CF030000 		.4byte	.LASF57
 1511 0389 08       		.byte	0x8
 1512 038a 60       		.byte	0x60
 1513 038b 2D030000 		.4byte	0x32d
 1514 038f 0C       		.byte	0xc
 1515 0390 07       		.uleb128 0x7
 1516 0391 E0050000 		.4byte	.LASF58
 1517 0395 08       		.byte	0x8
 1518 0396 62       		.byte	0x62
 1519 0397 9A020000 		.4byte	0x29a
 1520 039b 10       		.byte	0x10
 1521 039c 00       		.byte	0
 1522 039d 0A       		.uleb128 0xa
 1523 039e 04       		.byte	0x4
 1524 039f 49030000 		.4byte	0x349
 1525 03a3 09       		.uleb128 0x9
 1526 03a4 10       		.byte	0x10
 1527 03a5 08       		.byte	0x8
 1528 03a6 6C       		.byte	0x6c
 1529 03a7 DC030000 		.4byte	0x3dc
 1530 03ab 07       		.uleb128 0x7
 1531 03ac DE020000 		.4byte	.LASF54
 1532 03b0 08       		.byte	0x8
 1533 03b1 6D       		.byte	0x6d
 1534 03b2 9D030000 		.4byte	0x39d
 1535 03b6 00       		.byte	0
 1536 03b7 07       		.uleb128 0x7
 1537 03b8 93020000 		.4byte	.LASF55
 1538 03bc 08       		.byte	0x8
 1539 03bd 6F       		.byte	0x6f
ARM GAS  /var/folders/3j/4xdnk5197cv_b7cw3n33qk7r0000gn/T//ccLoBzpe.s 			page 28


 1540 03be 9D030000 		.4byte	0x39d
 1541 03c2 04       		.byte	0x4
 1542 03c3 07       		.uleb128 0x7
 1543 03c4 C7030000 		.4byte	.LASF56
 1544 03c8 08       		.byte	0x8
 1545 03c9 71       		.byte	0x71
 1546 03ca 26010000 		.4byte	0x126
 1547 03ce 08       		.byte	0x8
 1548 03cf 07       		.uleb128 0x7
 1549 03d0 53060000 		.4byte	.LASF59
 1550 03d4 08       		.byte	0x8
 1551 03d5 72       		.byte	0x72
 1552 03d6 31010000 		.4byte	0x131
 1553 03da 0C       		.byte	0xc
 1554 03db 00       		.byte	0
 1555 03dc 04       		.uleb128 0x4
 1556 03dd 87060000 		.4byte	.LASF60
 1557 03e1 08       		.byte	0x8
 1558 03e2 73       		.byte	0x73
 1559 03e3 A3030000 		.4byte	0x3a3
 1560 03e7 0E       		.uleb128 0xe
 1561 03e8 77000000 		.4byte	.LASF68
 1562 03ec 08       		.byte	0x8
 1563 03ed D1       		.byte	0xd1
 1564 03ee DC030000 		.4byte	0x3dc
 1565 03f2 09       		.uleb128 0x9
 1566 03f3 1C       		.byte	0x1c
 1567 03f4 09       		.byte	0x9
 1568 03f5 57       		.byte	0x57
 1569 03f6 43040000 		.4byte	0x443
 1570 03fa 07       		.uleb128 0x7
 1571 03fb 66050000 		.4byte	.LASF61
 1572 03ff 09       		.byte	0x9
 1573 0400 58       		.byte	0x58
 1574 0401 59020000 		.4byte	0x259
 1575 0405 00       		.byte	0
 1576 0406 07       		.uleb128 0x7
 1577 0407 E1040000 		.4byte	.LASF62
 1578 040b 09       		.byte	0x9
 1579 040c 59       		.byte	0x59
 1580 040d EF000000 		.4byte	0xef
 1581 0411 08       		.byte	0x8
 1582 0412 07       		.uleb128 0x7
 1583 0413 05040000 		.4byte	.LASF63
 1584 0417 09       		.byte	0x9
 1585 0418 5B       		.byte	0x5b
 1586 0419 0E030000 		.4byte	0x30e
 1587 041d 0C       		.byte	0xc
 1588 041e 07       		.uleb128 0x7
 1589 041f 62030000 		.4byte	.LASF64
 1590 0423 09       		.byte	0x9
 1591 0424 5E       		.byte	0x5e
 1592 0425 53020000 		.4byte	0x253
 1593 0429 10       		.byte	0x10
 1594 042a 07       		.uleb128 0x7
 1595 042b 3C040000 		.4byte	.LASF65
 1596 042f 09       		.byte	0x9
ARM GAS  /var/folders/3j/4xdnk5197cv_b7cw3n33qk7r0000gn/T//ccLoBzpe.s 			page 29


 1597 0430 5F       		.byte	0x5f
 1598 0431 53020000 		.4byte	0x253
 1599 0435 14       		.byte	0x14
 1600 0436 07       		.uleb128 0x7
 1601 0437 32040000 		.4byte	.LASF66
 1602 043b 09       		.byte	0x9
 1603 043c 62       		.byte	0x62
 1604 043d 53020000 		.4byte	0x253
 1605 0441 18       		.byte	0x18
 1606 0442 00       		.byte	0
 1607 0443 04       		.uleb128 0x4
 1608 0444 05060000 		.4byte	.LASF67
 1609 0448 09       		.byte	0x9
 1610 0449 64       		.byte	0x64
 1611 044a F2030000 		.4byte	0x3f2
 1612 044e 0E       		.uleb128 0xe
 1613 044f 0F060000 		.4byte	.LASF69
 1614 0453 09       		.byte	0x9
 1615 0454 68       		.byte	0x68
 1616 0455 43040000 		.4byte	0x443
 1617 0459 06       		.uleb128 0x6
 1618 045a A2030000 		.4byte	.LASF70
 1619 045e 10       		.byte	0x10
 1620 045f 0A       		.byte	0xa
 1621 0460 25       		.byte	0x25
 1622 0461 8A040000 		.4byte	0x48a
 1623 0465 07       		.uleb128 0x7
 1624 0466 3A010000 		.4byte	.LASF71
 1625 046a 0A       		.byte	0xa
 1626 046b 26       		.byte	0x26
 1627 046c 59020000 		.4byte	0x259
 1628 0470 00       		.byte	0
 1629 0471 07       		.uleb128 0x7
 1630 0472 8E060000 		.4byte	.LASF72
 1631 0476 0A       		.byte	0xa
 1632 0477 28       		.byte	0x28
 1633 0478 53020000 		.4byte	0x253
 1634 047c 08       		.byte	0x8
 1635 047d 07       		.uleb128 0x7
 1636 047e A1050000 		.4byte	.LASF73
 1637 0482 0A       		.byte	0xa
 1638 0483 2A       		.byte	0x2a
 1639 0484 8A040000 		.4byte	0x48a
 1640 0488 0C       		.byte	0xc
 1641 0489 00       		.byte	0
 1642 048a 0A       		.uleb128 0xa
 1643 048b 04       		.byte	0x4
 1644 048c 59040000 		.4byte	0x459
 1645 0490 04       		.uleb128 0x4
 1646 0491 A2030000 		.4byte	.LASF70
 1647 0495 0A       		.byte	0xa
 1648 0496 2C       		.byte	0x2c
 1649 0497 59040000 		.4byte	0x459
 1650 049b 04       		.uleb128 0x4
 1651 049c 23060000 		.4byte	.LASF74
 1652 04a0 0B       		.byte	0xb
 1653 04a1 25       		.byte	0x25
ARM GAS  /var/folders/3j/4xdnk5197cv_b7cw3n33qk7r0000gn/T//ccLoBzpe.s 			page 30


 1654 04a2 A6040000 		.4byte	0x4a6
 1655 04a6 06       		.uleb128 0x6
 1656 04a7 23060000 		.4byte	.LASF74
 1657 04ab 10       		.byte	0x10
 1658 04ac 0B       		.byte	0xb
 1659 04ad 2A       		.byte	0x2a
 1660 04ae E3040000 		.4byte	0x4e3
 1661 04b2 07       		.uleb128 0x7
 1662 04b3 6A030000 		.4byte	.LASF75
 1663 04b7 0B       		.byte	0xb
 1664 04b8 2B       		.byte	0x2b
 1665 04b9 E3040000 		.4byte	0x4e3
 1666 04bd 00       		.byte	0
 1667 04be 07       		.uleb128 0x7
 1668 04bf 9A040000 		.4byte	.LASF76
 1669 04c3 0B       		.byte	0xb
 1670 04c4 2E       		.byte	0x2e
 1671 04c5 53020000 		.4byte	0x253
 1672 04c9 04       		.byte	0x4
 1673 04ca 07       		.uleb128 0x7
 1674 04cb 44040000 		.4byte	.LASF77
 1675 04cf 0B       		.byte	0xb
 1676 04d0 30       		.byte	0x30
 1677 04d1 10010000 		.4byte	0x110
 1678 04d5 08       		.byte	0x8
 1679 04d6 07       		.uleb128 0x7
 1680 04d7 A6040000 		.4byte	.LASF78
 1681 04db 0B       		.byte	0xb
 1682 04dc 33       		.byte	0x33
 1683 04dd 1B010000 		.4byte	0x11b
 1684 04e1 0C       		.byte	0xc
 1685 04e2 00       		.byte	0
 1686 04e3 0A       		.uleb128 0xa
 1687 04e4 04       		.byte	0x4
 1688 04e5 9B040000 		.4byte	0x49b
 1689 04e9 06       		.uleb128 0x6
 1690 04ea B9020000 		.4byte	.LASF79
 1691 04ee 04       		.byte	0x4
 1692 04ef 0B       		.byte	0xb
 1693 04f0 3A       		.byte	0x3a
 1694 04f1 02050000 		.4byte	0x502
 1695 04f5 07       		.uleb128 0x7
 1696 04f6 5E060000 		.4byte	.LASF80
 1697 04fa 0B       		.byte	0xb
 1698 04fb 3B       		.byte	0x3b
 1699 04fc E3040000 		.4byte	0x4e3
 1700 0500 00       		.byte	0
 1701 0501 00       		.byte	0
 1702 0502 04       		.uleb128 0x4
 1703 0503 B9020000 		.4byte	.LASF79
 1704 0507 0B       		.byte	0xb
 1705 0508 3E       		.byte	0x3e
 1706 0509 E9040000 		.4byte	0x4e9
 1707 050d 04       		.uleb128 0x4
 1708 050e C5020000 		.4byte	.LASF81
 1709 0512 0B       		.byte	0xb
 1710 0513 43       		.byte	0x43
ARM GAS  /var/folders/3j/4xdnk5197cv_b7cw3n33qk7r0000gn/T//ccLoBzpe.s 			page 31


 1711 0514 1D050000 		.4byte	0x51d
 1712 0518 0F       		.uleb128 0xf
 1713 0519 0D050000 		.4byte	0x50d
 1714 051d 0A       		.uleb128 0xa
 1715 051e 04       		.byte	0x4
 1716 051f 23050000 		.4byte	0x523
 1717 0523 0C       		.uleb128 0xc
 1718 0524 2E050000 		.4byte	0x52e
 1719 0528 0D       		.uleb128 0xd
 1720 0529 05010000 		.4byte	0x105
 1721 052d 00       		.byte	0
 1722 052e 10       		.uleb128 0x10
 1723 052f 04       		.byte	0x4
 1724 0530 06       		.byte	0x6
 1725 0531 8F       		.byte	0x8f
 1726 0532 63050000 		.4byte	0x563
 1727 0536 11       		.uleb128 0x11
 1728 0537 66000000 		.4byte	.LASF82
 1729 053b 06       		.byte	0x6
 1730 053c 96       		.byte	0x96
 1731 053d FA000000 		.4byte	0xfa
 1732 0541 11       		.uleb128 0x11
 1733 0542 BE000000 		.4byte	.LASF83
 1734 0546 06       		.byte	0x6
 1735 0547 9D       		.byte	0x9d
 1736 0548 FA000000 		.4byte	0xfa
 1737 054c 11       		.uleb128 0x11
 1738 054d 45060000 		.4byte	.LASF84
 1739 0551 06       		.byte	0x6
 1740 0552 A4       		.byte	0xa4
 1741 0553 9A020000 		.4byte	0x29a
 1742 0557 11       		.uleb128 0x11
 1743 0558 FF040000 		.4byte	.LASF85
 1744 055c 06       		.byte	0x6
 1745 055d AB       		.byte	0xab
 1746 055e 10010000 		.4byte	0x110
 1747 0562 00       		.byte	0
 1748 0563 0A       		.uleb128 0xa
 1749 0564 04       		.byte	0x4
 1750 0565 70050000 		.4byte	0x570
 1751 0569 03       		.uleb128 0x3
 1752 056a 01       		.byte	0x1
 1753 056b 08       		.byte	0x8
 1754 056c 85050000 		.4byte	.LASF86
 1755 0570 0F       		.uleb128 0xf
 1756 0571 69050000 		.4byte	0x569
 1757 0575 0A       		.uleb128 0xa
 1758 0576 04       		.byte	0x4
 1759 0577 90040000 		.4byte	0x490
 1760 057b 09       		.uleb128 0x9
 1761 057c 16       		.byte	0x16
 1762 057d 0C       		.byte	0xc
 1763 057e 25       		.byte	0x25
 1764 057f 5C060000 		.4byte	0x65c
 1765 0583 07       		.uleb128 0x7
 1766 0584 21030000 		.4byte	.LASF87
 1767 0588 0C       		.byte	0xc
ARM GAS  /var/folders/3j/4xdnk5197cv_b7cw3n33qk7r0000gn/T//ccLoBzpe.s 			page 32


 1768 0589 26       		.byte	0x26
 1769 058a 5C060000 		.4byte	0x65c
 1770 058e 00       		.byte	0
 1771 058f 07       		.uleb128 0x7
 1772 0590 B3030000 		.4byte	.LASF88
 1773 0594 0C       		.byte	0xc
 1774 0595 27       		.byte	0x27
 1775 0596 97000000 		.4byte	0x97
 1776 059a 04       		.byte	0x4
 1777 059b 07       		.uleb128 0x7
 1778 059c 18040000 		.4byte	.LASF89
 1779 05a0 0C       		.byte	0xc
 1780 05a1 28       		.byte	0x28
 1781 05a2 97000000 		.4byte	0x97
 1782 05a6 05       		.byte	0x5
 1783 05a7 07       		.uleb128 0x7
 1784 05a8 7C060000 		.4byte	.LASF90
 1785 05ac 0C       		.byte	0xc
 1786 05ad 29       		.byte	0x29
 1787 05ae A2000000 		.4byte	0xa2
 1788 05b2 06       		.byte	0x6
 1789 05b3 07       		.uleb128 0x7
 1790 05b4 5D040000 		.4byte	.LASF91
 1791 05b8 0C       		.byte	0xc
 1792 05b9 2A       		.byte	0x2a
 1793 05ba 97000000 		.4byte	0x97
 1794 05be 08       		.byte	0x8
 1795 05bf 07       		.uleb128 0x7
 1796 05c0 E5030000 		.4byte	.LASF92
 1797 05c4 0C       		.byte	0xc
 1798 05c5 2B       		.byte	0x2b
 1799 05c6 97000000 		.4byte	0x97
 1800 05ca 09       		.byte	0x9
 1801 05cb 07       		.uleb128 0x7
 1802 05cc B0000000 		.4byte	.LASF93
 1803 05d0 0C       		.byte	0xc
 1804 05d1 2C       		.byte	0x2c
 1805 05d2 97000000 		.4byte	0x97
 1806 05d6 0A       		.byte	0xa
 1807 05d7 07       		.uleb128 0x7
 1808 05d8 5A050000 		.4byte	.LASF94
 1809 05dc 0C       		.byte	0xc
 1810 05dd 2D       		.byte	0x2d
 1811 05de 97000000 		.4byte	0x97
 1812 05e2 0B       		.byte	0xb
 1813 05e3 07       		.uleb128 0x7
 1814 05e4 F3050000 		.4byte	.LASF95
 1815 05e8 0C       		.byte	0xc
 1816 05e9 2E       		.byte	0x2e
 1817 05ea 97000000 		.4byte	0x97
 1818 05ee 0C       		.byte	0xc
 1819 05ef 07       		.uleb128 0x7
 1820 05f0 2B050000 		.4byte	.LASF96
 1821 05f4 0C       		.byte	0xc
 1822 05f5 2F       		.byte	0x2f
 1823 05f6 97000000 		.4byte	0x97
 1824 05fa 0D       		.byte	0xd
ARM GAS  /var/folders/3j/4xdnk5197cv_b7cw3n33qk7r0000gn/T//ccLoBzpe.s 			page 33


 1825 05fb 07       		.uleb128 0x7
 1826 05fc 53000000 		.4byte	.LASF97
 1827 0600 0C       		.byte	0xc
 1828 0601 30       		.byte	0x30
 1829 0602 97000000 		.4byte	0x97
 1830 0606 0E       		.byte	0xe
 1831 0607 07       		.uleb128 0x7
 1832 0608 F1030000 		.4byte	.LASF98
 1833 060c 0C       		.byte	0xc
 1834 060d 31       		.byte	0x31
 1835 060e 97000000 		.4byte	0x97
 1836 0612 0F       		.byte	0xf
 1837 0613 07       		.uleb128 0x7
 1838 0614 09010000 		.4byte	.LASF99
 1839 0618 0C       		.byte	0xc
 1840 0619 32       		.byte	0x32
 1841 061a 97000000 		.4byte	0x97
 1842 061e 10       		.byte	0x10
 1843 061f 07       		.uleb128 0x7
 1844 0620 E2000000 		.4byte	.LASF100
 1845 0624 0C       		.byte	0xc
 1846 0625 34       		.byte	0x34
 1847 0626 97000000 		.4byte	0x97
 1848 062a 11       		.byte	0x11
 1849 062b 07       		.uleb128 0x7
 1850 062c 2D010000 		.4byte	.LASF101
 1851 0630 0C       		.byte	0xc
 1852 0631 35       		.byte	0x35
 1853 0632 97000000 		.4byte	0x97
 1854 0636 12       		.byte	0x12
 1855 0637 07       		.uleb128 0x7
 1856 0638 BB030000 		.4byte	.LASF102
 1857 063c 0C       		.byte	0xc
 1858 063d 36       		.byte	0x36
 1859 063e 97000000 		.4byte	0x97
 1860 0642 13       		.byte	0x13
 1861 0643 07       		.uleb128 0x7
 1862 0644 0D050000 		.4byte	.LASF103
 1863 0648 0C       		.byte	0xc
 1864 0649 37       		.byte	0x37
 1865 064a 97000000 		.4byte	0x97
 1866 064e 14       		.byte	0x14
 1867 064f 07       		.uleb128 0x7
 1868 0650 D5040000 		.4byte	.LASF104
 1869 0654 0C       		.byte	0xc
 1870 0655 39       		.byte	0x39
 1871 0656 97000000 		.4byte	0x97
 1872 065a 15       		.byte	0x15
 1873 065b 00       		.byte	0
 1874 065c 12       		.uleb128 0x12
 1875 065d 69050000 		.4byte	0x569
 1876 0661 6C060000 		.4byte	0x66c
 1877 0665 13       		.uleb128 0x13
 1878 0666 2C000000 		.4byte	0x2c
 1879 066a 03       		.byte	0x3
 1880 066b 00       		.byte	0
 1881 066c 04       		.uleb128 0x4
ARM GAS  /var/folders/3j/4xdnk5197cv_b7cw3n33qk7r0000gn/T//ccLoBzpe.s 			page 34


 1882 066d 32020000 		.4byte	.LASF105
 1883 0671 0C       		.byte	0xc
 1884 0672 3A       		.byte	0x3a
 1885 0673 7B050000 		.4byte	0x57b
 1886 0677 0F       		.uleb128 0xf
 1887 0678 6C060000 		.4byte	0x66c
 1888 067c 0E       		.uleb128 0xe
 1889 067d 0F030000 		.4byte	.LASF106
 1890 0681 0C       		.byte	0xc
 1891 0682 77       		.byte	0x77
 1892 0683 77060000 		.4byte	0x677
 1893 0687 12       		.uleb128 0x12
 1894 0688 84020000 		.4byte	0x284
 1895 068c 97060000 		.4byte	0x697
 1896 0690 13       		.uleb128 0x13
 1897 0691 2C000000 		.4byte	0x2c
 1898 0695 26       		.byte	0x26
 1899 0696 00       		.byte	0
 1900 0697 0E       		.uleb128 0xe
 1901 0698 59020000 		.4byte	.LASF107
 1902 069c 0D       		.byte	0xd
 1903 069d 82       		.byte	0x82
 1904 069e 87060000 		.4byte	0x687
 1905 06a2 14       		.uleb128 0x14
 1906 06a3 19010000 		.4byte	.LASF110
 1907 06a7 01       		.byte	0x1
 1908 06a8 0B02     		.2byte	0x20b
 1909 06aa 10010000 		.4byte	0x110
 1910 06ae 00000000 		.4byte	.LFB23
 1911 06b2 70000000 		.4byte	.LFE23-.LFB23
 1912 06b6 01       		.uleb128 0x1
 1913 06b7 9C       		.byte	0x9c
 1914 06b8 FA060000 		.4byte	0x6fa
 1915 06bc 15       		.uleb128 0x15
 1916 06bd 85020000 		.4byte	.LASF108
 1917 06c1 01       		.byte	0x1
 1918 06c2 0B02     		.2byte	0x20b
 1919 06c4 10010000 		.4byte	0x110
 1920 06c8 00000000 		.4byte	.LLST30
 1921 06cc 15       		.uleb128 0x15
 1922 06cd 20040000 		.4byte	.LASF109
 1923 06d1 01       		.byte	0x1
 1924 06d2 0B02     		.2byte	0x20b
 1925 06d4 26010000 		.4byte	0x126
 1926 06d8 1E000000 		.4byte	.LLST31
 1927 06dc 16       		.uleb128 0x16
 1928 06dd 63747000 		.ascii	"ctp\000"
 1929 06e1 01       		.byte	0x1
 1930 06e2 0C02     		.2byte	0x20c
 1931 06e4 53020000 		.4byte	0x253
 1932 06e8 01       		.uleb128 0x1
 1933 06e9 55       		.byte	0x55
 1934 06ea 17       		.uleb128 0x17
 1935 06eb 40000000 		.4byte	.LVL79
 1936 06ef D80B0000 		.4byte	0xbd8
 1937 06f3 18       		.uleb128 0x18
 1938 06f4 01       		.uleb128 0x1
ARM GAS  /var/folders/3j/4xdnk5197cv_b7cw3n33qk7r0000gn/T//ccLoBzpe.s 			page 35


 1939 06f5 50       		.byte	0x50
 1940 06f6 01       		.uleb128 0x1
 1941 06f7 39       		.byte	0x39
 1942 06f8 00       		.byte	0
 1943 06f9 00       		.byte	0
 1944 06fa 14       		.uleb128 0x14
 1945 06fb C7000000 		.4byte	.LASF111
 1946 06ff 01       		.byte	0x1
 1947 0700 E201     		.2byte	0x1e2
 1948 0702 10010000 		.4byte	0x110
 1949 0706 00000000 		.4byte	.LFB22
 1950 070a 60000000 		.4byte	.LFE22-.LFB22
 1951 070e 01       		.uleb128 0x1
 1952 070f 9C       		.byte	0x9c
 1953 0710 60070000 		.4byte	0x760
 1954 0714 15       		.uleb128 0x15
 1955 0715 85020000 		.4byte	.LASF108
 1956 0719 01       		.byte	0x1
 1957 071a E201     		.2byte	0x1e2
 1958 071c 10010000 		.4byte	0x110
 1959 0720 3F000000 		.4byte	.LLST27
 1960 0724 15       		.uleb128 0x15
 1961 0725 20040000 		.4byte	.LASF109
 1962 0729 01       		.byte	0x1
 1963 072a E201     		.2byte	0x1e2
 1964 072c 26010000 		.4byte	0x126
 1965 0730 84000000 		.4byte	.LLST28
 1966 0734 16       		.uleb128 0x16
 1967 0735 63747000 		.ascii	"ctp\000"
 1968 0739 01       		.byte	0x1
 1969 073a E301     		.2byte	0x1e3
 1970 073c 53020000 		.4byte	0x253
 1971 0740 01       		.uleb128 0x1
 1972 0741 55       		.byte	0x55
 1973 0742 19       		.uleb128 0x19
 1974 0743 6D00     		.ascii	"m\000"
 1975 0745 01       		.byte	0x1
 1976 0746 E401     		.2byte	0x1e4
 1977 0748 10010000 		.4byte	0x110
 1978 074c BE000000 		.4byte	.LLST29
 1979 0750 17       		.uleb128 0x17
 1980 0751 40000000 		.4byte	.LVL74
 1981 0755 D80B0000 		.4byte	0xbd8
 1982 0759 18       		.uleb128 0x18
 1983 075a 01       		.uleb128 0x1
 1984 075b 50       		.byte	0x50
 1985 075c 01       		.uleb128 0x1
 1986 075d 38       		.byte	0x38
 1987 075e 00       		.byte	0
 1988 075f 00       		.byte	0
 1989 0760 14       		.uleb128 0x14
 1990 0761 31060000 		.4byte	.LASF112
 1991 0765 01       		.byte	0x1
 1992 0766 B701     		.2byte	0x1b7
 1993 0768 10010000 		.4byte	0x110
 1994 076c 00000000 		.4byte	.LFB21
 1995 0770 68000000 		.4byte	.LFE21-.LFB21
ARM GAS  /var/folders/3j/4xdnk5197cv_b7cw3n33qk7r0000gn/T//ccLoBzpe.s 			page 36


 1996 0774 01       		.uleb128 0x1
 1997 0775 9C       		.byte	0x9c
 1998 0776 C6070000 		.4byte	0x7c6
 1999 077a 15       		.uleb128 0x15
 2000 077b 85020000 		.4byte	.LASF108
 2001 077f 01       		.byte	0x1
 2002 0780 B701     		.2byte	0x1b7
 2003 0782 10010000 		.4byte	0x110
 2004 0786 EC000000 		.4byte	.LLST24
 2005 078a 15       		.uleb128 0x15
 2006 078b 20040000 		.4byte	.LASF109
 2007 078f 01       		.byte	0x1
 2008 0790 B701     		.2byte	0x1b7
 2009 0792 26010000 		.4byte	0x126
 2010 0796 31010000 		.4byte	.LLST25
 2011 079a 16       		.uleb128 0x16
 2012 079b 63747000 		.ascii	"ctp\000"
 2013 079f 01       		.byte	0x1
 2014 07a0 B801     		.2byte	0x1b8
 2015 07a2 53020000 		.4byte	0x253
 2016 07a6 01       		.uleb128 0x1
 2017 07a7 56       		.byte	0x56
 2018 07a8 19       		.uleb128 0x19
 2019 07a9 6D00     		.ascii	"m\000"
 2020 07ab 01       		.byte	0x1
 2021 07ac B901     		.2byte	0x1b9
 2022 07ae 10010000 		.4byte	0x110
 2023 07b2 6B010000 		.4byte	.LLST26
 2024 07b6 17       		.uleb128 0x17
 2025 07b7 40000000 		.4byte	.LVL64
 2026 07bb D80B0000 		.4byte	0xbd8
 2027 07bf 18       		.uleb128 0x18
 2028 07c0 01       		.uleb128 0x1
 2029 07c1 50       		.byte	0x50
 2030 07c2 01       		.uleb128 0x1
 2031 07c3 38       		.byte	0x38
 2032 07c4 00       		.byte	0
 2033 07c5 00       		.byte	0
 2034 07c6 14       		.uleb128 0x14
 2035 07c7 25040000 		.4byte	.LASF113
 2036 07cb 01       		.byte	0x1
 2037 07cc 9001     		.2byte	0x190
 2038 07ce 10010000 		.4byte	0x110
 2039 07d2 00000000 		.4byte	.LFB20
 2040 07d6 48000000 		.4byte	.LFE20-.LFB20
 2041 07da 01       		.uleb128 0x1
 2042 07db 9C       		.byte	0x9c
 2043 07dc 0E080000 		.4byte	0x80e
 2044 07e0 15       		.uleb128 0x15
 2045 07e1 85020000 		.4byte	.LASF108
 2046 07e5 01       		.byte	0x1
 2047 07e6 9001     		.2byte	0x190
 2048 07e8 10010000 		.4byte	0x110
 2049 07ec 99010000 		.4byte	.LLST23
 2050 07f0 16       		.uleb128 0x16
 2051 07f1 63747000 		.ascii	"ctp\000"
 2052 07f5 01       		.byte	0x1
ARM GAS  /var/folders/3j/4xdnk5197cv_b7cw3n33qk7r0000gn/T//ccLoBzpe.s 			page 37


 2053 07f6 9101     		.2byte	0x191
 2054 07f8 53020000 		.4byte	0x253
 2055 07fc 01       		.uleb128 0x1
 2056 07fd 55       		.byte	0x55
 2057 07fe 17       		.uleb128 0x17
 2058 07ff 2C000000 		.4byte	.LVL56
 2059 0803 E30B0000 		.4byte	0xbe3
 2060 0807 18       		.uleb128 0x18
 2061 0808 01       		.uleb128 0x1
 2062 0809 50       		.byte	0x50
 2063 080a 01       		.uleb128 0x1
 2064 080b 39       		.byte	0x39
 2065 080c 00       		.byte	0
 2066 080d 00       		.byte	0
 2067 080e 14       		.uleb128 0x14
 2068 080f 07020000 		.4byte	.LASF114
 2069 0813 01       		.byte	0x1
 2070 0814 7401     		.2byte	0x174
 2071 0816 10010000 		.4byte	0x110
 2072 081a 00000000 		.4byte	.LFB19
 2073 081e 4C000000 		.4byte	.LFE19-.LFB19
 2074 0822 01       		.uleb128 0x1
 2075 0823 9C       		.byte	0x9c
 2076 0824 64080000 		.4byte	0x864
 2077 0828 15       		.uleb128 0x15
 2078 0829 85020000 		.4byte	.LASF108
 2079 082d 01       		.byte	0x1
 2080 082e 7401     		.2byte	0x174
 2081 0830 10010000 		.4byte	0x110
 2082 0834 B7010000 		.4byte	.LLST21
 2083 0838 16       		.uleb128 0x16
 2084 0839 63747000 		.ascii	"ctp\000"
 2085 083d 01       		.byte	0x1
 2086 083e 7501     		.2byte	0x175
 2087 0840 53020000 		.4byte	0x253
 2088 0844 01       		.uleb128 0x1
 2089 0845 55       		.byte	0x55
 2090 0846 19       		.uleb128 0x19
 2091 0847 6D00     		.ascii	"m\000"
 2092 0849 01       		.byte	0x1
 2093 084a 7601     		.2byte	0x176
 2094 084c 10010000 		.4byte	0x110
 2095 0850 E3010000 		.4byte	.LLST22
 2096 0854 17       		.uleb128 0x17
 2097 0855 2C000000 		.4byte	.LVL51
 2098 0859 E30B0000 		.4byte	0xbe3
 2099 085d 18       		.uleb128 0x18
 2100 085e 01       		.uleb128 0x1
 2101 085f 50       		.byte	0x50
 2102 0860 01       		.uleb128 0x1
 2103 0861 38       		.byte	0x38
 2104 0862 00       		.byte	0
 2105 0863 00       		.byte	0
 2106 0864 14       		.uleb128 0x14
 2107 0865 8D040000 		.4byte	.LASF115
 2108 0869 01       		.byte	0x1
 2109 086a 5701     		.2byte	0x157
ARM GAS  /var/folders/3j/4xdnk5197cv_b7cw3n33qk7r0000gn/T//ccLoBzpe.s 			page 38


 2110 086c 10010000 		.4byte	0x110
 2111 0870 00000000 		.4byte	.LFB18
 2112 0874 50000000 		.4byte	.LFE18-.LFB18
 2113 0878 01       		.uleb128 0x1
 2114 0879 9C       		.byte	0x9c
 2115 087a BA080000 		.4byte	0x8ba
 2116 087e 15       		.uleb128 0x15
 2117 087f 85020000 		.4byte	.LASF108
 2118 0883 01       		.byte	0x1
 2119 0884 5701     		.2byte	0x157
 2120 0886 10010000 		.4byte	0x110
 2121 088a 31020000 		.4byte	.LLST19
 2122 088e 16       		.uleb128 0x16
 2123 088f 63747000 		.ascii	"ctp\000"
 2124 0893 01       		.byte	0x1
 2125 0894 5801     		.2byte	0x158
 2126 0896 53020000 		.4byte	0x253
 2127 089a 01       		.uleb128 0x1
 2128 089b 55       		.byte	0x55
 2129 089c 19       		.uleb128 0x19
 2130 089d 6D00     		.ascii	"m\000"
 2131 089f 01       		.byte	0x1
 2132 08a0 5901     		.2byte	0x159
 2133 08a2 10010000 		.4byte	0x110
 2134 08a6 5D020000 		.4byte	.LLST20
 2135 08aa 17       		.uleb128 0x17
 2136 08ab 2C000000 		.4byte	.LVL42
 2137 08af E30B0000 		.4byte	0xbe3
 2138 08b3 18       		.uleb128 0x18
 2139 08b4 01       		.uleb128 0x1
 2140 08b5 50       		.byte	0x50
 2141 08b6 01       		.uleb128 0x1
 2142 08b7 38       		.byte	0x38
 2143 08b8 00       		.byte	0
 2144 08b9 00       		.byte	0
 2145 08ba 1A       		.uleb128 0x1a
 2146 08bb D7030000 		.4byte	.LASF119
 2147 08bf 01       		.byte	0x1
 2148 08c0 3401     		.2byte	0x134
 2149 08c2 00000000 		.4byte	.LFB17
 2150 08c6 54000000 		.4byte	.LFE17-.LFB17
 2151 08ca 01       		.uleb128 0x1
 2152 08cb 9C       		.byte	0x9c
 2153 08cc 0D090000 		.4byte	0x90d
 2154 08d0 15       		.uleb128 0x15
 2155 08d1 4C040000 		.4byte	.LASF116
 2156 08d5 01       		.byte	0x1
 2157 08d6 3401     		.2byte	0x134
 2158 08d8 0D090000 		.4byte	0x90d
 2159 08dc B6020000 		.4byte	.LLST16
 2160 08e0 15       		.uleb128 0x15
 2161 08e1 85020000 		.4byte	.LASF108
 2162 08e5 01       		.byte	0x1
 2163 08e6 3401     		.2byte	0x134
 2164 08e8 10010000 		.4byte	0x110
 2165 08ec D4020000 		.4byte	.LLST17
 2166 08f0 19       		.uleb128 0x19
ARM GAS  /var/folders/3j/4xdnk5197cv_b7cw3n33qk7r0000gn/T//ccLoBzpe.s 			page 39


 2167 08f1 65696400 		.ascii	"eid\000"
 2168 08f5 01       		.byte	0x1
 2169 08f6 3501     		.2byte	0x135
 2170 08f8 05010000 		.4byte	0x105
 2171 08fc F2020000 		.4byte	.LLST18
 2172 0900 1B       		.uleb128 0x1b
 2173 0901 34000000 		.4byte	.LVL33
 2174 0905 18       		.uleb128 0x18
 2175 0906 01       		.uleb128 0x1
 2176 0907 50       		.byte	0x50
 2177 0908 02       		.uleb128 0x2
 2178 0909 74       		.byte	0x74
 2179 090a 00       		.sleb128 0
 2180 090b 00       		.byte	0
 2181 090c 00       		.byte	0
 2182 090d 0A       		.uleb128 0xa
 2183 090e 04       		.byte	0x4
 2184 090f 18050000 		.4byte	0x518
 2185 0913 14       		.uleb128 0x14
 2186 0914 E8040000 		.4byte	.LASF117
 2187 0918 01       		.byte	0x1
 2188 0919 2201     		.2byte	0x122
 2189 091b 1B010000 		.4byte	0x11b
 2190 091f 00000000 		.4byte	.LFB16
 2191 0923 14000000 		.4byte	.LFE16-.LFB16
 2192 0927 01       		.uleb128 0x1
 2193 0928 9C       		.byte	0x9c
 2194 0929 4C090000 		.4byte	0x94c
 2195 092d 1C       		.uleb128 0x1c
 2196 092e 656C7000 		.ascii	"elp\000"
 2197 0932 01       		.byte	0x1
 2198 0933 2201     		.2byte	0x122
 2199 0935 E3040000 		.4byte	0x4e3
 2200 0939 11030000 		.4byte	.LLST15
 2201 093d 1D       		.uleb128 0x1d
 2202 093e 1D060000 		.4byte	.LASF118
 2203 0942 01       		.byte	0x1
 2204 0943 2301     		.2byte	0x123
 2205 0945 1B010000 		.4byte	0x11b
 2206 0949 01       		.uleb128 0x1
 2207 094a 50       		.byte	0x50
 2208 094b 00       		.byte	0
 2209 094c 1A       		.uleb128 0x1a
 2210 094d 9B020000 		.4byte	.LASF120
 2211 0951 01       		.byte	0x1
 2212 0952 0F01     		.2byte	0x10f
 2213 0954 00000000 		.4byte	.LFB15
 2214 0958 18000000 		.4byte	.LFE15-.LFB15
 2215 095c 01       		.uleb128 0x1
 2216 095d 9C       		.byte	0x9c
 2217 095e A8090000 		.4byte	0x9a8
 2218 0962 1C       		.uleb128 0x1c
 2219 0963 65737000 		.ascii	"esp\000"
 2220 0967 01       		.byte	0x1
 2221 0968 0F01     		.2byte	0x10f
 2222 096a A8090000 		.4byte	0x9a8
 2223 096e 2F030000 		.4byte	.LLST13
ARM GAS  /var/folders/3j/4xdnk5197cv_b7cw3n33qk7r0000gn/T//ccLoBzpe.s 			page 40


 2224 0972 15       		.uleb128 0x15
 2225 0973 1D060000 		.4byte	.LASF118
 2226 0977 01       		.byte	0x1
 2227 0978 0F01     		.2byte	0x10f
 2228 097a 1B010000 		.4byte	0x11b
 2229 097e 50030000 		.4byte	.LLST14
 2230 0982 1E       		.uleb128 0x1e
 2231 0983 0C000000 		.4byte	.LVL26
 2232 0987 5E0A0000 		.4byte	0xa5e
 2233 098b 9E090000 		.4byte	0x99e
 2234 098f 18       		.uleb128 0x18
 2235 0990 01       		.uleb128 0x1
 2236 0991 50       		.byte	0x50
 2237 0992 03       		.uleb128 0x3
 2238 0993 F3       		.byte	0xf3
 2239 0994 01       		.uleb128 0x1
 2240 0995 50       		.byte	0x50
 2241 0996 18       		.uleb128 0x18
 2242 0997 01       		.uleb128 0x1
 2243 0998 51       		.byte	0x51
 2244 0999 03       		.uleb128 0x3
 2245 099a F3       		.byte	0xf3
 2246 099b 01       		.uleb128 0x1
 2247 099c 51       		.byte	0x51
 2248 099d 00       		.byte	0
 2249 099e 1F       		.uleb128 0x1f
 2250 099f 10000000 		.4byte	.LVL27
 2251 09a3 EE0B0000 		.4byte	0xbee
 2252 09a7 00       		.byte	0
 2253 09a8 0A       		.uleb128 0xa
 2254 09a9 04       		.byte	0x4
 2255 09aa 02050000 		.4byte	0x502
 2256 09ae 20       		.uleb128 0x20
 2257 09af C3060000 		.4byte	.LASF135
 2258 09b3 01       		.byte	0x1
 2259 09b4 F4       		.byte	0xf4
 2260 09b5 01       		.byte	0x1
 2261 09b6 D0090000 		.4byte	0x9d0
 2262 09ba 21       		.uleb128 0x21
 2263 09bb 747000   		.ascii	"tp\000"
 2264 09be 01       		.byte	0x1
 2265 09bf F4       		.byte	0xf4
 2266 09c0 53020000 		.4byte	0x253
 2267 09c4 22       		.uleb128 0x22
 2268 09c5 85020000 		.4byte	.LASF108
 2269 09c9 01       		.byte	0x1
 2270 09ca F4       		.byte	0xf4
 2271 09cb 10010000 		.4byte	0x110
 2272 09cf 00       		.byte	0
 2273 09d0 23       		.uleb128 0x23
 2274 09d1 7E000000 		.4byte	.LASF121
 2275 09d5 01       		.byte	0x1
 2276 09d6 DE       		.byte	0xde
 2277 09d7 00000000 		.4byte	.LFB13
 2278 09db 18000000 		.4byte	.LFE13-.LFB13
 2279 09df 01       		.uleb128 0x1
 2280 09e0 9C       		.byte	0x9c
ARM GAS  /var/folders/3j/4xdnk5197cv_b7cw3n33qk7r0000gn/T//ccLoBzpe.s 			page 41


 2281 09e1 280A0000 		.4byte	0xa28
 2282 09e5 24       		.uleb128 0x24
 2283 09e6 747000   		.ascii	"tp\000"
 2284 09e9 01       		.byte	0x1
 2285 09ea DE       		.byte	0xde
 2286 09eb 53020000 		.4byte	0x253
 2287 09ef 71030000 		.4byte	.LLST11
 2288 09f3 25       		.uleb128 0x25
 2289 09f4 85020000 		.4byte	.LASF108
 2290 09f8 01       		.byte	0x1
 2291 09f9 DE       		.byte	0xde
 2292 09fa 10010000 		.4byte	0x110
 2293 09fe 92030000 		.4byte	.LLST12
 2294 0a02 1E       		.uleb128 0x1e
 2295 0a03 0C000000 		.4byte	.LVL23
 2296 0a07 AE090000 		.4byte	0x9ae
 2297 0a0b 1E0A0000 		.4byte	0xa1e
 2298 0a0f 18       		.uleb128 0x18
 2299 0a10 01       		.uleb128 0x1
 2300 0a11 50       		.byte	0x50
 2301 0a12 03       		.uleb128 0x3
 2302 0a13 F3       		.byte	0xf3
 2303 0a14 01       		.uleb128 0x1
 2304 0a15 50       		.byte	0x50
 2305 0a16 18       		.uleb128 0x18
 2306 0a17 01       		.uleb128 0x1
 2307 0a18 51       		.byte	0x51
 2308 0a19 03       		.uleb128 0x3
 2309 0a1a F3       		.byte	0xf3
 2310 0a1b 01       		.uleb128 0x1
 2311 0a1c 51       		.byte	0x51
 2312 0a1d 00       		.byte	0
 2313 0a1e 1F       		.uleb128 0x1f
 2314 0a1f 10000000 		.4byte	.LVL24
 2315 0a23 EE0B0000 		.4byte	0xbee
 2316 0a27 00       		.byte	0
 2317 0a28 26       		.uleb128 0x26
 2318 0a29 66060000 		.4byte	.LASF122
 2319 0a2d 01       		.byte	0x1
 2320 0a2e CA       		.byte	0xca
 2321 0a2f 1B010000 		.4byte	0x11b
 2322 0a33 00000000 		.4byte	.LFB12
 2323 0a37 1C000000 		.4byte	.LFE12-.LFB12
 2324 0a3b 01       		.uleb128 0x1
 2325 0a3c 9C       		.byte	0x9c
 2326 0a3d 5E0A0000 		.4byte	0xa5e
 2327 0a41 24       		.uleb128 0x24
 2328 0a42 656C7000 		.ascii	"elp\000"
 2329 0a46 01       		.byte	0x1
 2330 0a47 CA       		.byte	0xca
 2331 0a48 E3040000 		.4byte	0x4e3
 2332 0a4c B3030000 		.4byte	.LLST4
 2333 0a50 27       		.uleb128 0x27
 2334 0a51 1D060000 		.4byte	.LASF118
 2335 0a55 01       		.byte	0x1
 2336 0a56 CB       		.byte	0xcb
 2337 0a57 1B010000 		.4byte	0x11b
ARM GAS  /var/folders/3j/4xdnk5197cv_b7cw3n33qk7r0000gn/T//ccLoBzpe.s 			page 42


 2338 0a5b 01       		.uleb128 0x1
 2339 0a5c 50       		.byte	0x50
 2340 0a5d 00       		.byte	0
 2341 0a5e 23       		.uleb128 0x23
 2342 0a5f 3C020000 		.4byte	.LASF123
 2343 0a63 01       		.byte	0x1
 2344 0a64 B1       		.byte	0xb1
 2345 0a65 00000000 		.4byte	.LFB11
 2346 0a69 40000000 		.4byte	.LFE11-.LFB11
 2347 0a6d 01       		.uleb128 0x1
 2348 0a6e 9C       		.byte	0x9c
 2349 0a6f A80A0000 		.4byte	0xaa8
 2350 0a73 24       		.uleb128 0x24
 2351 0a74 65737000 		.ascii	"esp\000"
 2352 0a78 01       		.byte	0x1
 2353 0a79 B1       		.byte	0xb1
 2354 0a7a A8090000 		.4byte	0x9a8
 2355 0a7e D1030000 		.4byte	.LLST9
 2356 0a82 25       		.uleb128 0x25
 2357 0a83 1D060000 		.4byte	.LASF118
 2358 0a87 01       		.byte	0x1
 2359 0a88 B1       		.byte	0xb1
 2360 0a89 1B010000 		.4byte	0x11b
 2361 0a8d EF030000 		.4byte	.LLST10
 2362 0a91 28       		.uleb128 0x28
 2363 0a92 656C7000 		.ascii	"elp\000"
 2364 0a96 01       		.byte	0x1
 2365 0a97 B2       		.byte	0xb2
 2366 0a98 E3040000 		.4byte	0x4e3
 2367 0a9c 01       		.uleb128 0x1
 2368 0a9d 54       		.byte	0x54
 2369 0a9e 1F       		.uleb128 0x1f
 2370 0a9f 30000000 		.4byte	.LVL20
 2371 0aa3 AE090000 		.4byte	0x9ae
 2372 0aa7 00       		.byte	0
 2373 0aa8 26       		.uleb128 0x26
 2374 0aa9 A1000000 		.4byte	.LASF124
 2375 0aad 01       		.byte	0x1
 2376 0aae 96       		.byte	0x96
 2377 0aaf 10010000 		.4byte	0x110
 2378 0ab3 00000000 		.4byte	.LFB10
 2379 0ab7 24000000 		.4byte	.LFE10-.LFB10
 2380 0abb 01       		.uleb128 0x1
 2381 0abc 9C       		.byte	0x9c
 2382 0abd D10A0000 		.4byte	0xad1
 2383 0ac1 25       		.uleb128 0x25
 2384 0ac2 85020000 		.4byte	.LASF108
 2385 0ac6 01       		.byte	0x1
 2386 0ac7 96       		.byte	0x96
 2387 0ac8 10010000 		.4byte	0x110
 2388 0acc 0D040000 		.4byte	.LLST3
 2389 0ad0 00       		.byte	0
 2390 0ad1 26       		.uleb128 0x26
 2391 0ad2 F8020000 		.4byte	.LASF125
 2392 0ad6 01       		.byte	0x1
 2393 0ad7 81       		.byte	0x81
 2394 0ad8 10010000 		.4byte	0x110
ARM GAS  /var/folders/3j/4xdnk5197cv_b7cw3n33qk7r0000gn/T//ccLoBzpe.s 			page 43


 2395 0adc 00000000 		.4byte	.LFB9
 2396 0ae0 28000000 		.4byte	.LFE9-.LFB9
 2397 0ae4 01       		.uleb128 0x1
 2398 0ae5 9C       		.byte	0x9c
 2399 0ae6 070B0000 		.4byte	0xb07
 2400 0aea 25       		.uleb128 0x25
 2401 0aeb 85020000 		.4byte	.LASF108
 2402 0aef 01       		.byte	0x1
 2403 0af0 81       		.byte	0x81
 2404 0af1 10010000 		.4byte	0x110
 2405 0af5 39040000 		.4byte	.LLST1
 2406 0af9 29       		.uleb128 0x29
 2407 0afa 6D00     		.ascii	"m\000"
 2408 0afc 01       		.byte	0x1
 2409 0afd 82       		.byte	0x82
 2410 0afe 10010000 		.4byte	0x110
 2411 0b02 5A040000 		.4byte	.LLST2
 2412 0b06 00       		.byte	0
 2413 0b07 23       		.uleb128 0x23
 2414 0b08 72030000 		.4byte	.LASF126
 2415 0b0c 01       		.byte	0x1
 2416 0b0d 68       		.byte	0x68
 2417 0b0e 00000000 		.4byte	.LFB8
 2418 0b12 3C000000 		.4byte	.LFE8-.LFB8
 2419 0b16 01       		.uleb128 0x1
 2420 0b17 9C       		.byte	0x9c
 2421 0b18 440B0000 		.4byte	0xb44
 2422 0b1c 2A       		.uleb128 0x2a
 2423 0b1d 65737000 		.ascii	"esp\000"
 2424 0b21 01       		.byte	0x1
 2425 0b22 68       		.byte	0x68
 2426 0b23 A8090000 		.4byte	0x9a8
 2427 0b27 01       		.uleb128 0x1
 2428 0b28 50       		.byte	0x50
 2429 0b29 2A       		.uleb128 0x2a
 2430 0b2a 656C7000 		.ascii	"elp\000"
 2431 0b2e 01       		.byte	0x1
 2432 0b2f 68       		.byte	0x68
 2433 0b30 E3040000 		.4byte	0x4e3
 2434 0b34 01       		.uleb128 0x1
 2435 0b35 51       		.byte	0x51
 2436 0b36 29       		.uleb128 0x29
 2437 0b37 7000     		.ascii	"p\000"
 2438 0b39 01       		.byte	0x1
 2439 0b3a 69       		.byte	0x69
 2440 0b3b E3040000 		.4byte	0x4e3
 2441 0b3f 7D040000 		.4byte	.LLST0
 2442 0b43 00       		.byte	0
 2443 0b44 23       		.uleb128 0x23
 2444 0b45 4A030000 		.4byte	.LASF127
 2445 0b49 01       		.byte	0x1
 2446 0b4a 4E       		.byte	0x4e
 2447 0b4b 00000000 		.4byte	.LFB7
 2448 0b4f 34000000 		.4byte	.LFE7-.LFB7
 2449 0b53 01       		.uleb128 0x1
 2450 0b54 9C       		.byte	0x9c
 2451 0b55 810B0000 		.4byte	0xb81
ARM GAS  /var/folders/3j/4xdnk5197cv_b7cw3n33qk7r0000gn/T//ccLoBzpe.s 			page 44


 2452 0b59 2A       		.uleb128 0x2a
 2453 0b5a 65737000 		.ascii	"esp\000"
 2454 0b5e 01       		.byte	0x1
 2455 0b5f 4E       		.byte	0x4e
 2456 0b60 A8090000 		.4byte	0x9a8
 2457 0b64 01       		.uleb128 0x1
 2458 0b65 50       		.byte	0x50
 2459 0b66 2A       		.uleb128 0x2a
 2460 0b67 656C7000 		.ascii	"elp\000"
 2461 0b6b 01       		.byte	0x1
 2462 0b6c 4E       		.byte	0x4e
 2463 0b6d E3040000 		.4byte	0x4e3
 2464 0b71 01       		.uleb128 0x1
 2465 0b72 51       		.byte	0x51
 2466 0b73 2B       		.uleb128 0x2b
 2467 0b74 85020000 		.4byte	.LASF108
 2468 0b78 01       		.byte	0x1
 2469 0b79 4E       		.byte	0x4e
 2470 0b7a 10010000 		.4byte	0x110
 2471 0b7e 01       		.uleb128 0x1
 2472 0b7f 52       		.byte	0x52
 2473 0b80 00       		.byte	0
 2474 0b81 2C       		.uleb128 0x2c
 2475 0b82 AE090000 		.4byte	0x9ae
 2476 0b86 00000000 		.4byte	.LFB14
 2477 0b8a 50000000 		.4byte	.LFE14-.LFB14
 2478 0b8e 01       		.uleb128 0x1
 2479 0b8f 9C       		.byte	0x9c
 2480 0b90 D80B0000 		.4byte	0xbd8
 2481 0b94 2D       		.uleb128 0x2d
 2482 0b95 BA090000 		.4byte	0x9ba
 2483 0b99 9B040000 		.4byte	.LLST5
 2484 0b9d 2D       		.uleb128 0x2d
 2485 0b9e C4090000 		.4byte	0x9c4
 2486 0ba2 C7040000 		.4byte	.LLST6
 2487 0ba6 2E       		.uleb128 0x2e
 2488 0ba7 AE090000 		.4byte	0x9ae
 2489 0bab 30000000 		.4byte	.LBB4
 2490 0baf 0C000000 		.4byte	.LBE4-.LBB4
 2491 0bb3 2D       		.uleb128 0x2d
 2492 0bb4 C4090000 		.4byte	0x9c4
 2493 0bb8 E8040000 		.4byte	.LLST7
 2494 0bbc 2D       		.uleb128 0x2d
 2495 0bbd BA090000 		.4byte	0x9ba
 2496 0bc1 FE040000 		.4byte	.LLST8
 2497 0bc5 17       		.uleb128 0x17
 2498 0bc6 34000000 		.4byte	.LVL15
 2499 0bca F90B0000 		.4byte	0xbf9
 2500 0bce 18       		.uleb128 0x18
 2501 0bcf 01       		.uleb128 0x1
 2502 0bd0 50       		.byte	0x50
 2503 0bd1 03       		.uleb128 0x3
 2504 0bd2 F3       		.byte	0xf3
 2505 0bd3 01       		.uleb128 0x1
 2506 0bd4 50       		.byte	0x50
 2507 0bd5 00       		.byte	0
 2508 0bd6 00       		.byte	0
ARM GAS  /var/folders/3j/4xdnk5197cv_b7cw3n33qk7r0000gn/T//ccLoBzpe.s 			page 45


 2509 0bd7 00       		.byte	0
 2510 0bd8 2F       		.uleb128 0x2f
 2511 0bd9 14020000 		.4byte	.LASF128
 2512 0bdd 14020000 		.4byte	.LASF128
 2513 0be1 09       		.byte	0x9
 2514 0be2 8F       		.byte	0x8f
 2515 0be3 2F       		.uleb128 0x2f
 2516 0be4 38050000 		.4byte	.LASF129
 2517 0be8 38050000 		.4byte	.LASF129
 2518 0bec 09       		.byte	0x9
 2519 0bed 8C       		.byte	0x8c
 2520 0bee 2F       		.uleb128 0x2f
 2521 0bef 69020000 		.4byte	.LASF130
 2522 0bf3 69020000 		.4byte	.LASF130
 2523 0bf7 09       		.byte	0x9
 2524 0bf8 95       		.byte	0x95
 2525 0bf9 2F       		.uleb128 0x2f
 2526 0bfa 95050000 		.4byte	.LASF131
 2527 0bfe 95050000 		.4byte	.LASF131
 2528 0c02 09       		.byte	0x9
 2529 0c03 89       		.byte	0x89
 2530 0c04 00       		.byte	0
 2531              		.section	.debug_abbrev,"",%progbits
 2532              	.Ldebug_abbrev0:
 2533 0000 01       		.uleb128 0x1
 2534 0001 11       		.uleb128 0x11
 2535 0002 01       		.byte	0x1
 2536 0003 25       		.uleb128 0x25
 2537 0004 0E       		.uleb128 0xe
 2538 0005 13       		.uleb128 0x13
 2539 0006 0B       		.uleb128 0xb
 2540 0007 03       		.uleb128 0x3
 2541 0008 0E       		.uleb128 0xe
 2542 0009 1B       		.uleb128 0x1b
 2543 000a 0E       		.uleb128 0xe
 2544 000b 55       		.uleb128 0x55
 2545 000c 17       		.uleb128 0x17
 2546 000d 11       		.uleb128 0x11
 2547 000e 01       		.uleb128 0x1
 2548 000f 10       		.uleb128 0x10
 2549 0010 17       		.uleb128 0x17
 2550 0011 00       		.byte	0
 2551 0012 00       		.byte	0
 2552 0013 02       		.uleb128 0x2
 2553 0014 24       		.uleb128 0x24
 2554 0015 00       		.byte	0
 2555 0016 0B       		.uleb128 0xb
 2556 0017 0B       		.uleb128 0xb
 2557 0018 3E       		.uleb128 0x3e
 2558 0019 0B       		.uleb128 0xb
 2559 001a 03       		.uleb128 0x3
 2560 001b 08       		.uleb128 0x8
 2561 001c 00       		.byte	0
 2562 001d 00       		.byte	0
 2563 001e 03       		.uleb128 0x3
 2564 001f 24       		.uleb128 0x24
 2565 0020 00       		.byte	0
ARM GAS  /var/folders/3j/4xdnk5197cv_b7cw3n33qk7r0000gn/T//ccLoBzpe.s 			page 46


 2566 0021 0B       		.uleb128 0xb
 2567 0022 0B       		.uleb128 0xb
 2568 0023 3E       		.uleb128 0x3e
 2569 0024 0B       		.uleb128 0xb
 2570 0025 03       		.uleb128 0x3
 2571 0026 0E       		.uleb128 0xe
 2572 0027 00       		.byte	0
 2573 0028 00       		.byte	0
 2574 0029 04       		.uleb128 0x4
 2575 002a 16       		.uleb128 0x16
 2576 002b 00       		.byte	0
 2577 002c 03       		.uleb128 0x3
 2578 002d 0E       		.uleb128 0xe
 2579 002e 3A       		.uleb128 0x3a
 2580 002f 0B       		.uleb128 0xb
 2581 0030 3B       		.uleb128 0x3b
 2582 0031 0B       		.uleb128 0xb
 2583 0032 49       		.uleb128 0x49
 2584 0033 13       		.uleb128 0x13
 2585 0034 00       		.byte	0
 2586 0035 00       		.byte	0
 2587 0036 05       		.uleb128 0x5
 2588 0037 35       		.uleb128 0x35
 2589 0038 00       		.byte	0
 2590 0039 49       		.uleb128 0x49
 2591 003a 13       		.uleb128 0x13
 2592 003b 00       		.byte	0
 2593 003c 00       		.byte	0
 2594 003d 06       		.uleb128 0x6
 2595 003e 13       		.uleb128 0x13
 2596 003f 01       		.byte	0x1
 2597 0040 03       		.uleb128 0x3
 2598 0041 0E       		.uleb128 0xe
 2599 0042 0B       		.uleb128 0xb
 2600 0043 0B       		.uleb128 0xb
 2601 0044 3A       		.uleb128 0x3a
 2602 0045 0B       		.uleb128 0xb
 2603 0046 3B       		.uleb128 0x3b
 2604 0047 0B       		.uleb128 0xb
 2605 0048 01       		.uleb128 0x1
 2606 0049 13       		.uleb128 0x13
 2607 004a 00       		.byte	0
 2608 004b 00       		.byte	0
 2609 004c 07       		.uleb128 0x7
 2610 004d 0D       		.uleb128 0xd
 2611 004e 00       		.byte	0
 2612 004f 03       		.uleb128 0x3
 2613 0050 0E       		.uleb128 0xe
 2614 0051 3A       		.uleb128 0x3a
 2615 0052 0B       		.uleb128 0xb
 2616 0053 3B       		.uleb128 0x3b
 2617 0054 0B       		.uleb128 0xb
 2618 0055 49       		.uleb128 0x49
 2619 0056 13       		.uleb128 0x13
 2620 0057 38       		.uleb128 0x38
 2621 0058 0B       		.uleb128 0xb
 2622 0059 00       		.byte	0
ARM GAS  /var/folders/3j/4xdnk5197cv_b7cw3n33qk7r0000gn/T//ccLoBzpe.s 			page 47


 2623 005a 00       		.byte	0
 2624 005b 08       		.uleb128 0x8
 2625 005c 0D       		.uleb128 0xd
 2626 005d 00       		.byte	0
 2627 005e 03       		.uleb128 0x3
 2628 005f 08       		.uleb128 0x8
 2629 0060 3A       		.uleb128 0x3a
 2630 0061 0B       		.uleb128 0xb
 2631 0062 3B       		.uleb128 0x3b
 2632 0063 0B       		.uleb128 0xb
 2633 0064 49       		.uleb128 0x49
 2634 0065 13       		.uleb128 0x13
 2635 0066 38       		.uleb128 0x38
 2636 0067 0B       		.uleb128 0xb
 2637 0068 00       		.byte	0
 2638 0069 00       		.byte	0
 2639 006a 09       		.uleb128 0x9
 2640 006b 13       		.uleb128 0x13
 2641 006c 01       		.byte	0x1
 2642 006d 0B       		.uleb128 0xb
 2643 006e 0B       		.uleb128 0xb
 2644 006f 3A       		.uleb128 0x3a
 2645 0070 0B       		.uleb128 0xb
 2646 0071 3B       		.uleb128 0x3b
 2647 0072 0B       		.uleb128 0xb
 2648 0073 01       		.uleb128 0x1
 2649 0074 13       		.uleb128 0x13
 2650 0075 00       		.byte	0
 2651 0076 00       		.byte	0
 2652 0077 0A       		.uleb128 0xa
 2653 0078 0F       		.uleb128 0xf
 2654 0079 00       		.byte	0
 2655 007a 0B       		.uleb128 0xb
 2656 007b 0B       		.uleb128 0xb
 2657 007c 49       		.uleb128 0x49
 2658 007d 13       		.uleb128 0x13
 2659 007e 00       		.byte	0
 2660 007f 00       		.byte	0
 2661 0080 0B       		.uleb128 0xb
 2662 0081 0F       		.uleb128 0xf
 2663 0082 00       		.byte	0
 2664 0083 0B       		.uleb128 0xb
 2665 0084 0B       		.uleb128 0xb
 2666 0085 00       		.byte	0
 2667 0086 00       		.byte	0
 2668 0087 0C       		.uleb128 0xc
 2669 0088 15       		.uleb128 0x15
 2670 0089 01       		.byte	0x1
 2671 008a 27       		.uleb128 0x27
 2672 008b 19       		.uleb128 0x19
 2673 008c 01       		.uleb128 0x1
 2674 008d 13       		.uleb128 0x13
 2675 008e 00       		.byte	0
 2676 008f 00       		.byte	0
 2677 0090 0D       		.uleb128 0xd
 2678 0091 05       		.uleb128 0x5
 2679 0092 00       		.byte	0
ARM GAS  /var/folders/3j/4xdnk5197cv_b7cw3n33qk7r0000gn/T//ccLoBzpe.s 			page 48


 2680 0093 49       		.uleb128 0x49
 2681 0094 13       		.uleb128 0x13
 2682 0095 00       		.byte	0
 2683 0096 00       		.byte	0
 2684 0097 0E       		.uleb128 0xe
 2685 0098 34       		.uleb128 0x34
 2686 0099 00       		.byte	0
 2687 009a 03       		.uleb128 0x3
 2688 009b 0E       		.uleb128 0xe
 2689 009c 3A       		.uleb128 0x3a
 2690 009d 0B       		.uleb128 0xb
 2691 009e 3B       		.uleb128 0x3b
 2692 009f 0B       		.uleb128 0xb
 2693 00a0 49       		.uleb128 0x49
 2694 00a1 13       		.uleb128 0x13
 2695 00a2 3F       		.uleb128 0x3f
 2696 00a3 19       		.uleb128 0x19
 2697 00a4 3C       		.uleb128 0x3c
 2698 00a5 19       		.uleb128 0x19
 2699 00a6 00       		.byte	0
 2700 00a7 00       		.byte	0
 2701 00a8 0F       		.uleb128 0xf
 2702 00a9 26       		.uleb128 0x26
 2703 00aa 00       		.byte	0
 2704 00ab 49       		.uleb128 0x49
 2705 00ac 13       		.uleb128 0x13
 2706 00ad 00       		.byte	0
 2707 00ae 00       		.byte	0
 2708 00af 10       		.uleb128 0x10
 2709 00b0 17       		.uleb128 0x17
 2710 00b1 01       		.byte	0x1
 2711 00b2 0B       		.uleb128 0xb
 2712 00b3 0B       		.uleb128 0xb
 2713 00b4 3A       		.uleb128 0x3a
 2714 00b5 0B       		.uleb128 0xb
 2715 00b6 3B       		.uleb128 0x3b
 2716 00b7 0B       		.uleb128 0xb
 2717 00b8 01       		.uleb128 0x1
 2718 00b9 13       		.uleb128 0x13
 2719 00ba 00       		.byte	0
 2720 00bb 00       		.byte	0
 2721 00bc 11       		.uleb128 0x11
 2722 00bd 0D       		.uleb128 0xd
 2723 00be 00       		.byte	0
 2724 00bf 03       		.uleb128 0x3
 2725 00c0 0E       		.uleb128 0xe
 2726 00c1 3A       		.uleb128 0x3a
 2727 00c2 0B       		.uleb128 0xb
 2728 00c3 3B       		.uleb128 0x3b
 2729 00c4 0B       		.uleb128 0xb
 2730 00c5 49       		.uleb128 0x49
 2731 00c6 13       		.uleb128 0x13
 2732 00c7 00       		.byte	0
 2733 00c8 00       		.byte	0
 2734 00c9 12       		.uleb128 0x12
 2735 00ca 01       		.uleb128 0x1
 2736 00cb 01       		.byte	0x1
ARM GAS  /var/folders/3j/4xdnk5197cv_b7cw3n33qk7r0000gn/T//ccLoBzpe.s 			page 49


 2737 00cc 49       		.uleb128 0x49
 2738 00cd 13       		.uleb128 0x13
 2739 00ce 01       		.uleb128 0x1
 2740 00cf 13       		.uleb128 0x13
 2741 00d0 00       		.byte	0
 2742 00d1 00       		.byte	0
 2743 00d2 13       		.uleb128 0x13
 2744 00d3 21       		.uleb128 0x21
 2745 00d4 00       		.byte	0
 2746 00d5 49       		.uleb128 0x49
 2747 00d6 13       		.uleb128 0x13
 2748 00d7 2F       		.uleb128 0x2f
 2749 00d8 0B       		.uleb128 0xb
 2750 00d9 00       		.byte	0
 2751 00da 00       		.byte	0
 2752 00db 14       		.uleb128 0x14
 2753 00dc 2E       		.uleb128 0x2e
 2754 00dd 01       		.byte	0x1
 2755 00de 3F       		.uleb128 0x3f
 2756 00df 19       		.uleb128 0x19
 2757 00e0 03       		.uleb128 0x3
 2758 00e1 0E       		.uleb128 0xe
 2759 00e2 3A       		.uleb128 0x3a
 2760 00e3 0B       		.uleb128 0xb
 2761 00e4 3B       		.uleb128 0x3b
 2762 00e5 05       		.uleb128 0x5
 2763 00e6 27       		.uleb128 0x27
 2764 00e7 19       		.uleb128 0x19
 2765 00e8 49       		.uleb128 0x49
 2766 00e9 13       		.uleb128 0x13
 2767 00ea 11       		.uleb128 0x11
 2768 00eb 01       		.uleb128 0x1
 2769 00ec 12       		.uleb128 0x12
 2770 00ed 06       		.uleb128 0x6
 2771 00ee 40       		.uleb128 0x40
 2772 00ef 18       		.uleb128 0x18
 2773 00f0 9742     		.uleb128 0x2117
 2774 00f2 19       		.uleb128 0x19
 2775 00f3 01       		.uleb128 0x1
 2776 00f4 13       		.uleb128 0x13
 2777 00f5 00       		.byte	0
 2778 00f6 00       		.byte	0
 2779 00f7 15       		.uleb128 0x15
 2780 00f8 05       		.uleb128 0x5
 2781 00f9 00       		.byte	0
 2782 00fa 03       		.uleb128 0x3
 2783 00fb 0E       		.uleb128 0xe
 2784 00fc 3A       		.uleb128 0x3a
 2785 00fd 0B       		.uleb128 0xb
 2786 00fe 3B       		.uleb128 0x3b
 2787 00ff 05       		.uleb128 0x5
 2788 0100 49       		.uleb128 0x49
 2789 0101 13       		.uleb128 0x13
 2790 0102 02       		.uleb128 0x2
 2791 0103 17       		.uleb128 0x17
 2792 0104 00       		.byte	0
 2793 0105 00       		.byte	0
ARM GAS  /var/folders/3j/4xdnk5197cv_b7cw3n33qk7r0000gn/T//ccLoBzpe.s 			page 50


 2794 0106 16       		.uleb128 0x16
 2795 0107 34       		.uleb128 0x34
 2796 0108 00       		.byte	0
 2797 0109 03       		.uleb128 0x3
 2798 010a 08       		.uleb128 0x8
 2799 010b 3A       		.uleb128 0x3a
 2800 010c 0B       		.uleb128 0xb
 2801 010d 3B       		.uleb128 0x3b
 2802 010e 05       		.uleb128 0x5
 2803 010f 49       		.uleb128 0x49
 2804 0110 13       		.uleb128 0x13
 2805 0111 02       		.uleb128 0x2
 2806 0112 18       		.uleb128 0x18
 2807 0113 00       		.byte	0
 2808 0114 00       		.byte	0
 2809 0115 17       		.uleb128 0x17
 2810 0116 898201   		.uleb128 0x4109
 2811 0119 01       		.byte	0x1
 2812 011a 11       		.uleb128 0x11
 2813 011b 01       		.uleb128 0x1
 2814 011c 31       		.uleb128 0x31
 2815 011d 13       		.uleb128 0x13
 2816 011e 00       		.byte	0
 2817 011f 00       		.byte	0
 2818 0120 18       		.uleb128 0x18
 2819 0121 8A8201   		.uleb128 0x410a
 2820 0124 00       		.byte	0
 2821 0125 02       		.uleb128 0x2
 2822 0126 18       		.uleb128 0x18
 2823 0127 9142     		.uleb128 0x2111
 2824 0129 18       		.uleb128 0x18
 2825 012a 00       		.byte	0
 2826 012b 00       		.byte	0
 2827 012c 19       		.uleb128 0x19
 2828 012d 34       		.uleb128 0x34
 2829 012e 00       		.byte	0
 2830 012f 03       		.uleb128 0x3
 2831 0130 08       		.uleb128 0x8
 2832 0131 3A       		.uleb128 0x3a
 2833 0132 0B       		.uleb128 0xb
 2834 0133 3B       		.uleb128 0x3b
 2835 0134 05       		.uleb128 0x5
 2836 0135 49       		.uleb128 0x49
 2837 0136 13       		.uleb128 0x13
 2838 0137 02       		.uleb128 0x2
 2839 0138 17       		.uleb128 0x17
 2840 0139 00       		.byte	0
 2841 013a 00       		.byte	0
 2842 013b 1A       		.uleb128 0x1a
 2843 013c 2E       		.uleb128 0x2e
 2844 013d 01       		.byte	0x1
 2845 013e 3F       		.uleb128 0x3f
 2846 013f 19       		.uleb128 0x19
 2847 0140 03       		.uleb128 0x3
 2848 0141 0E       		.uleb128 0xe
 2849 0142 3A       		.uleb128 0x3a
 2850 0143 0B       		.uleb128 0xb
ARM GAS  /var/folders/3j/4xdnk5197cv_b7cw3n33qk7r0000gn/T//ccLoBzpe.s 			page 51


 2851 0144 3B       		.uleb128 0x3b
 2852 0145 05       		.uleb128 0x5
 2853 0146 27       		.uleb128 0x27
 2854 0147 19       		.uleb128 0x19
 2855 0148 11       		.uleb128 0x11
 2856 0149 01       		.uleb128 0x1
 2857 014a 12       		.uleb128 0x12
 2858 014b 06       		.uleb128 0x6
 2859 014c 40       		.uleb128 0x40
 2860 014d 18       		.uleb128 0x18
 2861 014e 9742     		.uleb128 0x2117
 2862 0150 19       		.uleb128 0x19
 2863 0151 01       		.uleb128 0x1
 2864 0152 13       		.uleb128 0x13
 2865 0153 00       		.byte	0
 2866 0154 00       		.byte	0
 2867 0155 1B       		.uleb128 0x1b
 2868 0156 898201   		.uleb128 0x4109
 2869 0159 01       		.byte	0x1
 2870 015a 11       		.uleb128 0x11
 2871 015b 01       		.uleb128 0x1
 2872 015c 00       		.byte	0
 2873 015d 00       		.byte	0
 2874 015e 1C       		.uleb128 0x1c
 2875 015f 05       		.uleb128 0x5
 2876 0160 00       		.byte	0
 2877 0161 03       		.uleb128 0x3
 2878 0162 08       		.uleb128 0x8
 2879 0163 3A       		.uleb128 0x3a
 2880 0164 0B       		.uleb128 0xb
 2881 0165 3B       		.uleb128 0x3b
 2882 0166 05       		.uleb128 0x5
 2883 0167 49       		.uleb128 0x49
 2884 0168 13       		.uleb128 0x13
 2885 0169 02       		.uleb128 0x2
 2886 016a 17       		.uleb128 0x17
 2887 016b 00       		.byte	0
 2888 016c 00       		.byte	0
 2889 016d 1D       		.uleb128 0x1d
 2890 016e 34       		.uleb128 0x34
 2891 016f 00       		.byte	0
 2892 0170 03       		.uleb128 0x3
 2893 0171 0E       		.uleb128 0xe
 2894 0172 3A       		.uleb128 0x3a
 2895 0173 0B       		.uleb128 0xb
 2896 0174 3B       		.uleb128 0x3b
 2897 0175 05       		.uleb128 0x5
 2898 0176 49       		.uleb128 0x49
 2899 0177 13       		.uleb128 0x13
 2900 0178 02       		.uleb128 0x2
 2901 0179 18       		.uleb128 0x18
 2902 017a 00       		.byte	0
 2903 017b 00       		.byte	0
 2904 017c 1E       		.uleb128 0x1e
 2905 017d 898201   		.uleb128 0x4109
 2906 0180 01       		.byte	0x1
 2907 0181 11       		.uleb128 0x11
ARM GAS  /var/folders/3j/4xdnk5197cv_b7cw3n33qk7r0000gn/T//ccLoBzpe.s 			page 52


 2908 0182 01       		.uleb128 0x1
 2909 0183 31       		.uleb128 0x31
 2910 0184 13       		.uleb128 0x13
 2911 0185 01       		.uleb128 0x1
 2912 0186 13       		.uleb128 0x13
 2913 0187 00       		.byte	0
 2914 0188 00       		.byte	0
 2915 0189 1F       		.uleb128 0x1f
 2916 018a 898201   		.uleb128 0x4109
 2917 018d 00       		.byte	0
 2918 018e 11       		.uleb128 0x11
 2919 018f 01       		.uleb128 0x1
 2920 0190 31       		.uleb128 0x31
 2921 0191 13       		.uleb128 0x13
 2922 0192 00       		.byte	0
 2923 0193 00       		.byte	0
 2924 0194 20       		.uleb128 0x20
 2925 0195 2E       		.uleb128 0x2e
 2926 0196 01       		.byte	0x1
 2927 0197 3F       		.uleb128 0x3f
 2928 0198 19       		.uleb128 0x19
 2929 0199 03       		.uleb128 0x3
 2930 019a 0E       		.uleb128 0xe
 2931 019b 3A       		.uleb128 0x3a
 2932 019c 0B       		.uleb128 0xb
 2933 019d 3B       		.uleb128 0x3b
 2934 019e 0B       		.uleb128 0xb
 2935 019f 27       		.uleb128 0x27
 2936 01a0 19       		.uleb128 0x19
 2937 01a1 20       		.uleb128 0x20
 2938 01a2 0B       		.uleb128 0xb
 2939 01a3 01       		.uleb128 0x1
 2940 01a4 13       		.uleb128 0x13
 2941 01a5 00       		.byte	0
 2942 01a6 00       		.byte	0
 2943 01a7 21       		.uleb128 0x21
 2944 01a8 05       		.uleb128 0x5
 2945 01a9 00       		.byte	0
 2946 01aa 03       		.uleb128 0x3
 2947 01ab 08       		.uleb128 0x8
 2948 01ac 3A       		.uleb128 0x3a
 2949 01ad 0B       		.uleb128 0xb
 2950 01ae 3B       		.uleb128 0x3b
 2951 01af 0B       		.uleb128 0xb
 2952 01b0 49       		.uleb128 0x49
 2953 01b1 13       		.uleb128 0x13
 2954 01b2 00       		.byte	0
 2955 01b3 00       		.byte	0
 2956 01b4 22       		.uleb128 0x22
 2957 01b5 05       		.uleb128 0x5
 2958 01b6 00       		.byte	0
 2959 01b7 03       		.uleb128 0x3
 2960 01b8 0E       		.uleb128 0xe
 2961 01b9 3A       		.uleb128 0x3a
 2962 01ba 0B       		.uleb128 0xb
 2963 01bb 3B       		.uleb128 0x3b
 2964 01bc 0B       		.uleb128 0xb
ARM GAS  /var/folders/3j/4xdnk5197cv_b7cw3n33qk7r0000gn/T//ccLoBzpe.s 			page 53


 2965 01bd 49       		.uleb128 0x49
 2966 01be 13       		.uleb128 0x13
 2967 01bf 00       		.byte	0
 2968 01c0 00       		.byte	0
 2969 01c1 23       		.uleb128 0x23
 2970 01c2 2E       		.uleb128 0x2e
 2971 01c3 01       		.byte	0x1
 2972 01c4 3F       		.uleb128 0x3f
 2973 01c5 19       		.uleb128 0x19
 2974 01c6 03       		.uleb128 0x3
 2975 01c7 0E       		.uleb128 0xe
 2976 01c8 3A       		.uleb128 0x3a
 2977 01c9 0B       		.uleb128 0xb
 2978 01ca 3B       		.uleb128 0x3b
 2979 01cb 0B       		.uleb128 0xb
 2980 01cc 27       		.uleb128 0x27
 2981 01cd 19       		.uleb128 0x19
 2982 01ce 11       		.uleb128 0x11
 2983 01cf 01       		.uleb128 0x1
 2984 01d0 12       		.uleb128 0x12
 2985 01d1 06       		.uleb128 0x6
 2986 01d2 40       		.uleb128 0x40
 2987 01d3 18       		.uleb128 0x18
 2988 01d4 9742     		.uleb128 0x2117
 2989 01d6 19       		.uleb128 0x19
 2990 01d7 01       		.uleb128 0x1
 2991 01d8 13       		.uleb128 0x13
 2992 01d9 00       		.byte	0
 2993 01da 00       		.byte	0
 2994 01db 24       		.uleb128 0x24
 2995 01dc 05       		.uleb128 0x5
 2996 01dd 00       		.byte	0
 2997 01de 03       		.uleb128 0x3
 2998 01df 08       		.uleb128 0x8
 2999 01e0 3A       		.uleb128 0x3a
 3000 01e1 0B       		.uleb128 0xb
 3001 01e2 3B       		.uleb128 0x3b
 3002 01e3 0B       		.uleb128 0xb
 3003 01e4 49       		.uleb128 0x49
 3004 01e5 13       		.uleb128 0x13
 3005 01e6 02       		.uleb128 0x2
 3006 01e7 17       		.uleb128 0x17
 3007 01e8 00       		.byte	0
 3008 01e9 00       		.byte	0
 3009 01ea 25       		.uleb128 0x25
 3010 01eb 05       		.uleb128 0x5
 3011 01ec 00       		.byte	0
 3012 01ed 03       		.uleb128 0x3
 3013 01ee 0E       		.uleb128 0xe
 3014 01ef 3A       		.uleb128 0x3a
 3015 01f0 0B       		.uleb128 0xb
 3016 01f1 3B       		.uleb128 0x3b
 3017 01f2 0B       		.uleb128 0xb
 3018 01f3 49       		.uleb128 0x49
 3019 01f4 13       		.uleb128 0x13
 3020 01f5 02       		.uleb128 0x2
 3021 01f6 17       		.uleb128 0x17
ARM GAS  /var/folders/3j/4xdnk5197cv_b7cw3n33qk7r0000gn/T//ccLoBzpe.s 			page 54


 3022 01f7 00       		.byte	0
 3023 01f8 00       		.byte	0
 3024 01f9 26       		.uleb128 0x26
 3025 01fa 2E       		.uleb128 0x2e
 3026 01fb 01       		.byte	0x1
 3027 01fc 3F       		.uleb128 0x3f
 3028 01fd 19       		.uleb128 0x19
 3029 01fe 03       		.uleb128 0x3
 3030 01ff 0E       		.uleb128 0xe
 3031 0200 3A       		.uleb128 0x3a
 3032 0201 0B       		.uleb128 0xb
 3033 0202 3B       		.uleb128 0x3b
 3034 0203 0B       		.uleb128 0xb
 3035 0204 27       		.uleb128 0x27
 3036 0205 19       		.uleb128 0x19
 3037 0206 49       		.uleb128 0x49
 3038 0207 13       		.uleb128 0x13
 3039 0208 11       		.uleb128 0x11
 3040 0209 01       		.uleb128 0x1
 3041 020a 12       		.uleb128 0x12
 3042 020b 06       		.uleb128 0x6
 3043 020c 40       		.uleb128 0x40
 3044 020d 18       		.uleb128 0x18
 3045 020e 9742     		.uleb128 0x2117
 3046 0210 19       		.uleb128 0x19
 3047 0211 01       		.uleb128 0x1
 3048 0212 13       		.uleb128 0x13
 3049 0213 00       		.byte	0
 3050 0214 00       		.byte	0
 3051 0215 27       		.uleb128 0x27
 3052 0216 34       		.uleb128 0x34
 3053 0217 00       		.byte	0
 3054 0218 03       		.uleb128 0x3
 3055 0219 0E       		.uleb128 0xe
 3056 021a 3A       		.uleb128 0x3a
 3057 021b 0B       		.uleb128 0xb
 3058 021c 3B       		.uleb128 0x3b
 3059 021d 0B       		.uleb128 0xb
 3060 021e 49       		.uleb128 0x49
 3061 021f 13       		.uleb128 0x13
 3062 0220 02       		.uleb128 0x2
 3063 0221 18       		.uleb128 0x18
 3064 0222 00       		.byte	0
 3065 0223 00       		.byte	0
 3066 0224 28       		.uleb128 0x28
 3067 0225 34       		.uleb128 0x34
 3068 0226 00       		.byte	0
 3069 0227 03       		.uleb128 0x3
 3070 0228 08       		.uleb128 0x8
 3071 0229 3A       		.uleb128 0x3a
 3072 022a 0B       		.uleb128 0xb
 3073 022b 3B       		.uleb128 0x3b
 3074 022c 0B       		.uleb128 0xb
 3075 022d 49       		.uleb128 0x49
 3076 022e 13       		.uleb128 0x13
 3077 022f 02       		.uleb128 0x2
 3078 0230 18       		.uleb128 0x18
ARM GAS  /var/folders/3j/4xdnk5197cv_b7cw3n33qk7r0000gn/T//ccLoBzpe.s 			page 55


 3079 0231 00       		.byte	0
 3080 0232 00       		.byte	0
 3081 0233 29       		.uleb128 0x29
 3082 0234 34       		.uleb128 0x34
 3083 0235 00       		.byte	0
 3084 0236 03       		.uleb128 0x3
 3085 0237 08       		.uleb128 0x8
 3086 0238 3A       		.uleb128 0x3a
 3087 0239 0B       		.uleb128 0xb
 3088 023a 3B       		.uleb128 0x3b
 3089 023b 0B       		.uleb128 0xb
 3090 023c 49       		.uleb128 0x49
 3091 023d 13       		.uleb128 0x13
 3092 023e 02       		.uleb128 0x2
 3093 023f 17       		.uleb128 0x17
 3094 0240 00       		.byte	0
 3095 0241 00       		.byte	0
 3096 0242 2A       		.uleb128 0x2a
 3097 0243 05       		.uleb128 0x5
 3098 0244 00       		.byte	0
 3099 0245 03       		.uleb128 0x3
 3100 0246 08       		.uleb128 0x8
 3101 0247 3A       		.uleb128 0x3a
 3102 0248 0B       		.uleb128 0xb
 3103 0249 3B       		.uleb128 0x3b
 3104 024a 0B       		.uleb128 0xb
 3105 024b 49       		.uleb128 0x49
 3106 024c 13       		.uleb128 0x13
 3107 024d 02       		.uleb128 0x2
 3108 024e 18       		.uleb128 0x18
 3109 024f 00       		.byte	0
 3110 0250 00       		.byte	0
 3111 0251 2B       		.uleb128 0x2b
 3112 0252 05       		.uleb128 0x5
 3113 0253 00       		.byte	0
 3114 0254 03       		.uleb128 0x3
 3115 0255 0E       		.uleb128 0xe
 3116 0256 3A       		.uleb128 0x3a
 3117 0257 0B       		.uleb128 0xb
 3118 0258 3B       		.uleb128 0x3b
 3119 0259 0B       		.uleb128 0xb
 3120 025a 49       		.uleb128 0x49
 3121 025b 13       		.uleb128 0x13
 3122 025c 02       		.uleb128 0x2
 3123 025d 18       		.uleb128 0x18
 3124 025e 00       		.byte	0
 3125 025f 00       		.byte	0
 3126 0260 2C       		.uleb128 0x2c
 3127 0261 2E       		.uleb128 0x2e
 3128 0262 01       		.byte	0x1
 3129 0263 31       		.uleb128 0x31
 3130 0264 13       		.uleb128 0x13
 3131 0265 11       		.uleb128 0x11
 3132 0266 01       		.uleb128 0x1
 3133 0267 12       		.uleb128 0x12
 3134 0268 06       		.uleb128 0x6
 3135 0269 40       		.uleb128 0x40
ARM GAS  /var/folders/3j/4xdnk5197cv_b7cw3n33qk7r0000gn/T//ccLoBzpe.s 			page 56


 3136 026a 18       		.uleb128 0x18
 3137 026b 9742     		.uleb128 0x2117
 3138 026d 19       		.uleb128 0x19
 3139 026e 01       		.uleb128 0x1
 3140 026f 13       		.uleb128 0x13
 3141 0270 00       		.byte	0
 3142 0271 00       		.byte	0
 3143 0272 2D       		.uleb128 0x2d
 3144 0273 05       		.uleb128 0x5
 3145 0274 00       		.byte	0
 3146 0275 31       		.uleb128 0x31
 3147 0276 13       		.uleb128 0x13
 3148 0277 02       		.uleb128 0x2
 3149 0278 17       		.uleb128 0x17
 3150 0279 00       		.byte	0
 3151 027a 00       		.byte	0
 3152 027b 2E       		.uleb128 0x2e
 3153 027c 0B       		.uleb128 0xb
 3154 027d 01       		.byte	0x1
 3155 027e 31       		.uleb128 0x31
 3156 027f 13       		.uleb128 0x13
 3157 0280 11       		.uleb128 0x11
 3158 0281 01       		.uleb128 0x1
 3159 0282 12       		.uleb128 0x12
 3160 0283 06       		.uleb128 0x6
 3161 0284 00       		.byte	0
 3162 0285 00       		.byte	0
 3163 0286 2F       		.uleb128 0x2f
 3164 0287 2E       		.uleb128 0x2e
 3165 0288 00       		.byte	0
 3166 0289 3F       		.uleb128 0x3f
 3167 028a 19       		.uleb128 0x19
 3168 028b 3C       		.uleb128 0x3c
 3169 028c 19       		.uleb128 0x19
 3170 028d 6E       		.uleb128 0x6e
 3171 028e 0E       		.uleb128 0xe
 3172 028f 03       		.uleb128 0x3
 3173 0290 0E       		.uleb128 0xe
 3174 0291 3A       		.uleb128 0x3a
 3175 0292 0B       		.uleb128 0xb
 3176 0293 3B       		.uleb128 0x3b
 3177 0294 0B       		.uleb128 0xb
 3178 0295 00       		.byte	0
 3179 0296 00       		.byte	0
 3180 0297 00       		.byte	0
 3181              		.section	.debug_loc,"",%progbits
 3182              	.Ldebug_loc0:
 3183              	.LLST30:
 3184 0000 00000000 		.4byte	.LVL76
 3185 0004 28000000 		.4byte	.LVL78
 3186 0008 0100     		.2byte	0x1
 3187 000a 50       		.byte	0x50
 3188 000b 28000000 		.4byte	.LVL78
 3189 000f 70000000 		.4byte	.LFE23
 3190 0013 0100     		.2byte	0x1
 3191 0015 54       		.byte	0x54
 3192 0016 00000000 		.4byte	0
ARM GAS  /var/folders/3j/4xdnk5197cv_b7cw3n33qk7r0000gn/T//ccLoBzpe.s 			page 57


 3193 001a 00000000 		.4byte	0
 3194              	.LLST31:
 3195 001e 00000000 		.4byte	.LVL76
 3196 0022 3F000000 		.4byte	.LVL79-1
 3197 0026 0100     		.2byte	0x1
 3198 0028 51       		.byte	0x51
 3199 0029 3F000000 		.4byte	.LVL79-1
 3200 002d 70000000 		.4byte	.LFE23
 3201 0031 0400     		.2byte	0x4
 3202 0033 F3       		.byte	0xf3
 3203 0034 01       		.uleb128 0x1
 3204 0035 51       		.byte	0x51
 3205 0036 9F       		.byte	0x9f
 3206 0037 00000000 		.4byte	0
 3207 003b 00000000 		.4byte	0
 3208              	.LLST27:
 3209 003f 00000000 		.4byte	.LVL67
 3210 0043 24000000 		.4byte	.LVL71
 3211 0047 0100     		.2byte	0x1
 3212 0049 50       		.byte	0x50
 3213 004a 24000000 		.4byte	.LVL71
 3214 004e 30000000 		.4byte	.LVL72
 3215 0052 0400     		.2byte	0x4
 3216 0054 F3       		.byte	0xf3
 3217 0055 01       		.uleb128 0x1
 3218 0056 50       		.byte	0x50
 3219 0057 9F       		.byte	0x9f
 3220 0058 30000000 		.4byte	.LVL72
 3221 005c 3C000000 		.4byte	.LVL73
 3222 0060 0100     		.2byte	0x1
 3223 0062 50       		.byte	0x50
 3224 0063 3C000000 		.4byte	.LVL73
 3225 0067 50000000 		.4byte	.LVL75
 3226 006b 0100     		.2byte	0x1
 3227 006d 54       		.byte	0x54
 3228 006e 50000000 		.4byte	.LVL75
 3229 0072 60000000 		.4byte	.LFE22
 3230 0076 0400     		.2byte	0x4
 3231 0078 F3       		.byte	0xf3
 3232 0079 01       		.uleb128 0x1
 3233 007a 50       		.byte	0x50
 3234 007b 9F       		.byte	0x9f
 3235 007c 00000000 		.4byte	0
 3236 0080 00000000 		.4byte	0
 3237              	.LLST28:
 3238 0084 00000000 		.4byte	.LVL67
 3239 0088 24000000 		.4byte	.LVL71
 3240 008c 0100     		.2byte	0x1
 3241 008e 51       		.byte	0x51
 3242 008f 24000000 		.4byte	.LVL71
 3243 0093 30000000 		.4byte	.LVL72
 3244 0097 0400     		.2byte	0x4
 3245 0099 F3       		.byte	0xf3
 3246 009a 01       		.uleb128 0x1
 3247 009b 51       		.byte	0x51
 3248 009c 9F       		.byte	0x9f
 3249 009d 30000000 		.4byte	.LVL72
ARM GAS  /var/folders/3j/4xdnk5197cv_b7cw3n33qk7r0000gn/T//ccLoBzpe.s 			page 58


 3250 00a1 3F000000 		.4byte	.LVL74-1
 3251 00a5 0100     		.2byte	0x1
 3252 00a7 51       		.byte	0x51
 3253 00a8 3F000000 		.4byte	.LVL74-1
 3254 00ac 60000000 		.4byte	.LFE22
 3255 00b0 0400     		.2byte	0x4
 3256 00b2 F3       		.byte	0xf3
 3257 00b3 01       		.uleb128 0x1
 3258 00b4 51       		.byte	0x51
 3259 00b5 9F       		.byte	0x9f
 3260 00b6 00000000 		.4byte	0
 3261 00ba 00000000 		.4byte	0
 3262              	.LLST29:
 3263 00be 14000000 		.4byte	.LVL69
 3264 00c2 18000000 		.4byte	.LVL70
 3265 00c6 0600     		.2byte	0x6
 3266 00c8 73       		.byte	0x73
 3267 00c9 00       		.sleb128 0
 3268 00ca 70       		.byte	0x70
 3269 00cb 00       		.sleb128 0
 3270 00cc 1A       		.byte	0x1a
 3271 00cd 9F       		.byte	0x9f
 3272 00ce 18000000 		.4byte	.LVL70
 3273 00d2 24000000 		.4byte	.LVL71
 3274 00d6 0100     		.2byte	0x1
 3275 00d8 56       		.byte	0x56
 3276 00d9 30000000 		.4byte	.LVL72
 3277 00dd 60000000 		.4byte	.LFE22
 3278 00e1 0100     		.2byte	0x1
 3279 00e3 56       		.byte	0x56
 3280 00e4 00000000 		.4byte	0
 3281 00e8 00000000 		.4byte	0
 3282              	.LLST24:
 3283 00ec 00000000 		.4byte	.LVL57
 3284 00f0 24000000 		.4byte	.LVL61
 3285 00f4 0100     		.2byte	0x1
 3286 00f6 50       		.byte	0x50
 3287 00f7 24000000 		.4byte	.LVL61
 3288 00fb 30000000 		.4byte	.LVL62
 3289 00ff 0400     		.2byte	0x4
 3290 0101 F3       		.byte	0xf3
 3291 0102 01       		.uleb128 0x1
 3292 0103 50       		.byte	0x50
 3293 0104 9F       		.byte	0x9f
 3294 0105 30000000 		.4byte	.LVL62
 3295 0109 3C000000 		.4byte	.LVL63
 3296 010d 0100     		.2byte	0x1
 3297 010f 50       		.byte	0x50
 3298 0110 3C000000 		.4byte	.LVL63
 3299 0114 50000000 		.4byte	.LVL65
 3300 0118 0100     		.2byte	0x1
 3301 011a 55       		.byte	0x55
 3302 011b 50000000 		.4byte	.LVL65
 3303 011f 68000000 		.4byte	.LFE21
 3304 0123 0400     		.2byte	0x4
 3305 0125 F3       		.byte	0xf3
 3306 0126 01       		.uleb128 0x1
ARM GAS  /var/folders/3j/4xdnk5197cv_b7cw3n33qk7r0000gn/T//ccLoBzpe.s 			page 59


 3307 0127 50       		.byte	0x50
 3308 0128 9F       		.byte	0x9f
 3309 0129 00000000 		.4byte	0
 3310 012d 00000000 		.4byte	0
 3311              	.LLST25:
 3312 0131 00000000 		.4byte	.LVL57
 3313 0135 24000000 		.4byte	.LVL61
 3314 0139 0100     		.2byte	0x1
 3315 013b 51       		.byte	0x51
 3316 013c 24000000 		.4byte	.LVL61
 3317 0140 30000000 		.4byte	.LVL62
 3318 0144 0400     		.2byte	0x4
 3319 0146 F3       		.byte	0xf3
 3320 0147 01       		.uleb128 0x1
 3321 0148 51       		.byte	0x51
 3322 0149 9F       		.byte	0x9f
 3323 014a 30000000 		.4byte	.LVL62
 3324 014e 3F000000 		.4byte	.LVL64-1
 3325 0152 0100     		.2byte	0x1
 3326 0154 51       		.byte	0x51
 3327 0155 3F000000 		.4byte	.LVL64-1
 3328 0159 68000000 		.4byte	.LFE21
 3329 015d 0400     		.2byte	0x4
 3330 015f F3       		.byte	0xf3
 3331 0160 01       		.uleb128 0x1
 3332 0161 51       		.byte	0x51
 3333 0162 9F       		.byte	0x9f
 3334 0163 00000000 		.4byte	0
 3335 0167 00000000 		.4byte	0
 3336              	.LLST26:
 3337 016b 14000000 		.4byte	.LVL59
 3338 016f 18000000 		.4byte	.LVL60
 3339 0173 0600     		.2byte	0x6
 3340 0175 73       		.byte	0x73
 3341 0176 00       		.sleb128 0
 3342 0177 70       		.byte	0x70
 3343 0178 00       		.sleb128 0
 3344 0179 1A       		.byte	0x1a
 3345 017a 9F       		.byte	0x9f
 3346 017b 18000000 		.4byte	.LVL60
 3347 017f 24000000 		.4byte	.LVL61
 3348 0183 0100     		.2byte	0x1
 3349 0185 54       		.byte	0x54
 3350 0186 30000000 		.4byte	.LVL62
 3351 018a 68000000 		.4byte	.LFE21
 3352 018e 0100     		.2byte	0x1
 3353 0190 54       		.byte	0x54
 3354 0191 00000000 		.4byte	0
 3355 0195 00000000 		.4byte	0
 3356              	.LLST23:
 3357 0199 00000000 		.4byte	.LVL53
 3358 019d 28000000 		.4byte	.LVL55
 3359 01a1 0100     		.2byte	0x1
 3360 01a3 50       		.byte	0x50
 3361 01a4 28000000 		.4byte	.LVL55
 3362 01a8 48000000 		.4byte	.LFE20
 3363 01ac 0100     		.2byte	0x1
ARM GAS  /var/folders/3j/4xdnk5197cv_b7cw3n33qk7r0000gn/T//ccLoBzpe.s 			page 60


 3364 01ae 54       		.byte	0x54
 3365 01af 00000000 		.4byte	0
 3366 01b3 00000000 		.4byte	0
 3367              	.LLST21:
 3368 01b7 00000000 		.4byte	.LVL45
 3369 01bb 28000000 		.4byte	.LVL50
 3370 01bf 0100     		.2byte	0x1
 3371 01c1 50       		.byte	0x50
 3372 01c2 28000000 		.4byte	.LVL50
 3373 01c6 34000000 		.4byte	.LVL52
 3374 01ca 0100     		.2byte	0x1
 3375 01cc 54       		.byte	0x54
 3376 01cd 34000000 		.4byte	.LVL52
 3377 01d1 4C000000 		.4byte	.LFE19
 3378 01d5 0400     		.2byte	0x4
 3379 01d7 F3       		.byte	0xf3
 3380 01d8 01       		.uleb128 0x1
 3381 01d9 50       		.byte	0x50
 3382 01da 9F       		.byte	0x9f
 3383 01db 00000000 		.4byte	0
 3384 01df 00000000 		.4byte	0
 3385              	.LLST22:
 3386 01e3 14000000 		.4byte	.LVL47
 3387 01e7 18000000 		.4byte	.LVL48
 3388 01eb 0600     		.2byte	0x6
 3389 01ed 73       		.byte	0x73
 3390 01ee 00       		.sleb128 0
 3391 01ef 70       		.byte	0x70
 3392 01f0 00       		.sleb128 0
 3393 01f1 1A       		.byte	0x1a
 3394 01f2 9F       		.byte	0x9f
 3395 01f3 18000000 		.4byte	.LVL48
 3396 01f7 20000000 		.4byte	.LVL49
 3397 01fb 0100     		.2byte	0x1
 3398 01fd 54       		.byte	0x54
 3399 01fe 20000000 		.4byte	.LVL49
 3400 0202 28000000 		.4byte	.LVL50
 3401 0206 0600     		.2byte	0x6
 3402 0208 73       		.byte	0x73
 3403 0209 00       		.sleb128 0
 3404 020a 70       		.byte	0x70
 3405 020b 00       		.sleb128 0
 3406 020c 1A       		.byte	0x1a
 3407 020d 9F       		.byte	0x9f
 3408 020e 28000000 		.4byte	.LVL50
 3409 0212 2B000000 		.4byte	.LVL51-1
 3410 0216 0600     		.2byte	0x6
 3411 0218 73       		.byte	0x73
 3412 0219 00       		.sleb128 0
 3413 021a 74       		.byte	0x74
 3414 021b 00       		.sleb128 0
 3415 021c 1A       		.byte	0x1a
 3416 021d 9F       		.byte	0x9f
 3417 021e 34000000 		.4byte	.LVL52
 3418 0222 4C000000 		.4byte	.LFE19
 3419 0226 0100     		.2byte	0x1
 3420 0228 54       		.byte	0x54
ARM GAS  /var/folders/3j/4xdnk5197cv_b7cw3n33qk7r0000gn/T//ccLoBzpe.s 			page 61


 3421 0229 00000000 		.4byte	0
 3422 022d 00000000 		.4byte	0
 3423              	.LLST19:
 3424 0231 00000000 		.4byte	.LVL36
 3425 0235 28000000 		.4byte	.LVL41
 3426 0239 0100     		.2byte	0x1
 3427 023b 50       		.byte	0x50
 3428 023c 28000000 		.4byte	.LVL41
 3429 0240 34000000 		.4byte	.LVL43
 3430 0244 0100     		.2byte	0x1
 3431 0246 54       		.byte	0x54
 3432 0247 34000000 		.4byte	.LVL43
 3433 024b 50000000 		.4byte	.LFE18
 3434 024f 0400     		.2byte	0x4
 3435 0251 F3       		.byte	0xf3
 3436 0252 01       		.uleb128 0x1
 3437 0253 50       		.byte	0x50
 3438 0254 9F       		.byte	0x9f
 3439 0255 00000000 		.4byte	0
 3440 0259 00000000 		.4byte	0
 3441              	.LLST20:
 3442 025d 14000000 		.4byte	.LVL38
 3443 0261 18000000 		.4byte	.LVL39
 3444 0265 0600     		.2byte	0x6
 3445 0267 73       		.byte	0x73
 3446 0268 00       		.sleb128 0
 3447 0269 70       		.byte	0x70
 3448 026a 00       		.sleb128 0
 3449 026b 1A       		.byte	0x1a
 3450 026c 9F       		.byte	0x9f
 3451 026d 18000000 		.4byte	.LVL39
 3452 0271 20000000 		.4byte	.LVL40
 3453 0275 0100     		.2byte	0x1
 3454 0277 54       		.byte	0x54
 3455 0278 20000000 		.4byte	.LVL40
 3456 027c 28000000 		.4byte	.LVL41
 3457 0280 0600     		.2byte	0x6
 3458 0282 73       		.byte	0x73
 3459 0283 00       		.sleb128 0
 3460 0284 70       		.byte	0x70
 3461 0285 00       		.sleb128 0
 3462 0286 1A       		.byte	0x1a
 3463 0287 9F       		.byte	0x9f
 3464 0288 28000000 		.4byte	.LVL41
 3465 028c 2B000000 		.4byte	.LVL42-1
 3466 0290 0600     		.2byte	0x6
 3467 0292 73       		.byte	0x73
 3468 0293 00       		.sleb128 0
 3469 0294 74       		.byte	0x74
 3470 0295 00       		.sleb128 0
 3471 0296 1A       		.byte	0x1a
 3472 0297 9F       		.byte	0x9f
 3473 0298 34000000 		.4byte	.LVL43
 3474 029c 3C000000 		.4byte	.LVL44
 3475 02a0 0100     		.2byte	0x1
 3476 02a2 54       		.byte	0x54
 3477 02a3 3C000000 		.4byte	.LVL44
ARM GAS  /var/folders/3j/4xdnk5197cv_b7cw3n33qk7r0000gn/T//ccLoBzpe.s 			page 62


 3478 02a7 50000000 		.4byte	.LFE18
 3479 02ab 0100     		.2byte	0x1
 3480 02ad 50       		.byte	0x50
 3481 02ae 00000000 		.4byte	0
 3482 02b2 00000000 		.4byte	0
 3483              	.LLST16:
 3484 02b6 00000000 		.4byte	.LVL30
 3485 02ba 18000000 		.4byte	.LVL31
 3486 02be 0100     		.2byte	0x1
 3487 02c0 50       		.byte	0x50
 3488 02c1 18000000 		.4byte	.LVL31
 3489 02c5 54000000 		.4byte	.LFE17
 3490 02c9 0100     		.2byte	0x1
 3491 02cb 57       		.byte	0x57
 3492 02cc 00000000 		.4byte	0
 3493 02d0 00000000 		.4byte	0
 3494              	.LLST17:
 3495 02d4 00000000 		.4byte	.LVL30
 3496 02d8 18000000 		.4byte	.LVL31
 3497 02dc 0100     		.2byte	0x1
 3498 02de 51       		.byte	0x51
 3499 02df 18000000 		.4byte	.LVL31
 3500 02e3 54000000 		.4byte	.LFE17
 3501 02e7 0100     		.2byte	0x1
 3502 02e9 55       		.byte	0x55
 3503 02ea 00000000 		.4byte	0
 3504 02ee 00000000 		.4byte	0
 3505              	.LLST18:
 3506 02f2 00000000 		.4byte	.LVL30
 3507 02f6 18000000 		.4byte	.LVL31
 3508 02fa 0200     		.2byte	0x2
 3509 02fc 30       		.byte	0x30
 3510 02fd 9F       		.byte	0x9f
 3511 02fe 18000000 		.4byte	.LVL31
 3512 0302 54000000 		.4byte	.LFE17
 3513 0306 0100     		.2byte	0x1
 3514 0308 54       		.byte	0x54
 3515 0309 00000000 		.4byte	0
 3516 030d 00000000 		.4byte	0
 3517              	.LLST15:
 3518 0311 00000000 		.4byte	.LVL28
 3519 0315 0C000000 		.4byte	.LVL29
 3520 0319 0100     		.2byte	0x1
 3521 031b 50       		.byte	0x50
 3522 031c 0C000000 		.4byte	.LVL29
 3523 0320 14000000 		.4byte	.LFE16
 3524 0324 0100     		.2byte	0x1
 3525 0326 53       		.byte	0x53
 3526 0327 00000000 		.4byte	0
 3527 032b 00000000 		.4byte	0
 3528              	.LLST13:
 3529 032f 00000000 		.4byte	.LVL25
 3530 0333 0B000000 		.4byte	.LVL26-1
 3531 0337 0100     		.2byte	0x1
 3532 0339 50       		.byte	0x50
 3533 033a 0B000000 		.4byte	.LVL26-1
 3534 033e 18000000 		.4byte	.LFE15
ARM GAS  /var/folders/3j/4xdnk5197cv_b7cw3n33qk7r0000gn/T//ccLoBzpe.s 			page 63


 3535 0342 0400     		.2byte	0x4
 3536 0344 F3       		.byte	0xf3
 3537 0345 01       		.uleb128 0x1
 3538 0346 50       		.byte	0x50
 3539 0347 9F       		.byte	0x9f
 3540 0348 00000000 		.4byte	0
 3541 034c 00000000 		.4byte	0
 3542              	.LLST14:
 3543 0350 00000000 		.4byte	.LVL25
 3544 0354 0B000000 		.4byte	.LVL26-1
 3545 0358 0100     		.2byte	0x1
 3546 035a 51       		.byte	0x51
 3547 035b 0B000000 		.4byte	.LVL26-1
 3548 035f 18000000 		.4byte	.LFE15
 3549 0363 0400     		.2byte	0x4
 3550 0365 F3       		.byte	0xf3
 3551 0366 01       		.uleb128 0x1
 3552 0367 51       		.byte	0x51
 3553 0368 9F       		.byte	0x9f
 3554 0369 00000000 		.4byte	0
 3555 036d 00000000 		.4byte	0
 3556              	.LLST11:
 3557 0371 00000000 		.4byte	.LVL22
 3558 0375 0B000000 		.4byte	.LVL23-1
 3559 0379 0100     		.2byte	0x1
 3560 037b 50       		.byte	0x50
 3561 037c 0B000000 		.4byte	.LVL23-1
 3562 0380 18000000 		.4byte	.LFE13
 3563 0384 0400     		.2byte	0x4
 3564 0386 F3       		.byte	0xf3
 3565 0387 01       		.uleb128 0x1
 3566 0388 50       		.byte	0x50
 3567 0389 9F       		.byte	0x9f
 3568 038a 00000000 		.4byte	0
 3569 038e 00000000 		.4byte	0
 3570              	.LLST12:
 3571 0392 00000000 		.4byte	.LVL22
 3572 0396 0B000000 		.4byte	.LVL23-1
 3573 039a 0100     		.2byte	0x1
 3574 039c 51       		.byte	0x51
 3575 039d 0B000000 		.4byte	.LVL23-1
 3576 03a1 18000000 		.4byte	.LFE13
 3577 03a5 0400     		.2byte	0x4
 3578 03a7 F3       		.byte	0xf3
 3579 03a8 01       		.uleb128 0x1
 3580 03a9 51       		.byte	0x51
 3581 03aa 9F       		.byte	0x9f
 3582 03ab 00000000 		.4byte	0
 3583 03af 00000000 		.4byte	0
 3584              	.LLST4:
 3585 03b3 00000000 		.4byte	.LVL10
 3586 03b7 10000000 		.4byte	.LVL11
 3587 03bb 0100     		.2byte	0x1
 3588 03bd 50       		.byte	0x50
 3589 03be 10000000 		.4byte	.LVL11
 3590 03c2 1C000000 		.4byte	.LFE12
 3591 03c6 0100     		.2byte	0x1
ARM GAS  /var/folders/3j/4xdnk5197cv_b7cw3n33qk7r0000gn/T//ccLoBzpe.s 			page 64


 3592 03c8 53       		.byte	0x53
 3593 03c9 00000000 		.4byte	0
 3594 03cd 00000000 		.4byte	0
 3595              	.LLST9:
 3596 03d1 00000000 		.4byte	.LVL17
 3597 03d5 18000000 		.4byte	.LVL19
 3598 03d9 0100     		.2byte	0x1
 3599 03db 50       		.byte	0x50
 3600 03dc 18000000 		.4byte	.LVL19
 3601 03e0 40000000 		.4byte	.LFE11
 3602 03e4 0100     		.2byte	0x1
 3603 03e6 55       		.byte	0x55
 3604 03e7 00000000 		.4byte	0
 3605 03eb 00000000 		.4byte	0
 3606              	.LLST10:
 3607 03ef 00000000 		.4byte	.LVL17
 3608 03f3 18000000 		.4byte	.LVL19
 3609 03f7 0100     		.2byte	0x1
 3610 03f9 51       		.byte	0x51
 3611 03fa 18000000 		.4byte	.LVL19
 3612 03fe 40000000 		.4byte	.LFE11
 3613 0402 0100     		.2byte	0x1
 3614 0404 56       		.byte	0x56
 3615 0405 00000000 		.4byte	0
 3616 0409 00000000 		.4byte	0
 3617              	.LLST3:
 3618 040d 00000000 		.4byte	.LVL7
 3619 0411 14000000 		.4byte	.LVL8
 3620 0415 0100     		.2byte	0x1
 3621 0417 50       		.byte	0x50
 3622 0418 14000000 		.4byte	.LVL8
 3623 041c 18000000 		.4byte	.LVL9
 3624 0420 0400     		.2byte	0x4
 3625 0422 F3       		.byte	0xf3
 3626 0423 01       		.uleb128 0x1
 3627 0424 50       		.byte	0x50
 3628 0425 9F       		.byte	0x9f
 3629 0426 18000000 		.4byte	.LVL9
 3630 042a 24000000 		.4byte	.LFE10
 3631 042e 0100     		.2byte	0x1
 3632 0430 50       		.byte	0x50
 3633 0431 00000000 		.4byte	0
 3634 0435 00000000 		.4byte	0
 3635              	.LLST1:
 3636 0439 00000000 		.4byte	.LVL4
 3637 043d 20000000 		.4byte	.LVL6
 3638 0441 0100     		.2byte	0x1
 3639 0443 50       		.byte	0x50
 3640 0444 20000000 		.4byte	.LVL6
 3641 0448 28000000 		.4byte	.LFE9
 3642 044c 0400     		.2byte	0x4
 3643 044e F3       		.byte	0xf3
 3644 044f 01       		.uleb128 0x1
 3645 0450 50       		.byte	0x50
 3646 0451 9F       		.byte	0x9f
 3647 0452 00000000 		.4byte	0
 3648 0456 00000000 		.4byte	0
ARM GAS  /var/folders/3j/4xdnk5197cv_b7cw3n33qk7r0000gn/T//ccLoBzpe.s 			page 65


 3649              	.LLST2:
 3650 045a 10000000 		.4byte	.LVL5
 3651 045e 20000000 		.4byte	.LVL6
 3652 0462 0600     		.2byte	0x6
 3653 0464 73       		.byte	0x73
 3654 0465 00       		.sleb128 0
 3655 0466 70       		.byte	0x70
 3656 0467 00       		.sleb128 0
 3657 0468 1A       		.byte	0x1a
 3658 0469 9F       		.byte	0x9f
 3659 046a 20000000 		.4byte	.LVL6
 3660 046e 28000000 		.4byte	.LFE9
 3661 0472 0100     		.2byte	0x1
 3662 0474 50       		.byte	0x50
 3663 0475 00000000 		.4byte	0
 3664 0479 00000000 		.4byte	0
 3665              	.LLST0:
 3666 047d 00000000 		.4byte	.LVL1
 3667 0481 0C000000 		.4byte	.LVL2
 3668 0485 0100     		.2byte	0x1
 3669 0487 50       		.byte	0x50
 3670 0488 0C000000 		.4byte	.LVL2
 3671 048c 3C000000 		.4byte	.LFE8
 3672 0490 0100     		.2byte	0x1
 3673 0492 52       		.byte	0x52
 3674 0493 00000000 		.4byte	0
 3675 0497 00000000 		.4byte	0
 3676              	.LLST5:
 3677 049b 00000000 		.4byte	.LVL12
 3678 049f 33000000 		.4byte	.LVL15-1
 3679 04a3 0100     		.2byte	0x1
 3680 04a5 50       		.byte	0x50
 3681 04a6 33000000 		.4byte	.LVL15-1
 3682 04aa 40000000 		.4byte	.LVL16
 3683 04ae 0400     		.2byte	0x4
 3684 04b0 F3       		.byte	0xf3
 3685 04b1 01       		.uleb128 0x1
 3686 04b2 50       		.byte	0x50
 3687 04b3 9F       		.byte	0x9f
 3688 04b4 40000000 		.4byte	.LVL16
 3689 04b8 50000000 		.4byte	.LFE14
 3690 04bc 0100     		.2byte	0x1
 3691 04be 50       		.byte	0x50
 3692 04bf 00000000 		.4byte	0
 3693 04c3 00000000 		.4byte	0
 3694              	.LLST6:
 3695 04c7 00000000 		.4byte	.LVL12
 3696 04cb 0C000000 		.4byte	.LVL13
 3697 04cf 0100     		.2byte	0x1
 3698 04d1 51       		.byte	0x51
 3699 04d2 0C000000 		.4byte	.LVL13
 3700 04d6 50000000 		.4byte	.LFE14
 3701 04da 0400     		.2byte	0x4
 3702 04dc F3       		.byte	0xf3
 3703 04dd 01       		.uleb128 0x1
 3704 04de 51       		.byte	0x51
 3705 04df 9F       		.byte	0x9f
ARM GAS  /var/folders/3j/4xdnk5197cv_b7cw3n33qk7r0000gn/T//ccLoBzpe.s 			page 66


 3706 04e0 00000000 		.4byte	0
 3707 04e4 00000000 		.4byte	0
 3708              	.LLST7:
 3709 04e8 2C000000 		.4byte	.LVL14
 3710 04ec 40000000 		.4byte	.LVL16
 3711 04f0 0400     		.2byte	0x4
 3712 04f2 F3       		.byte	0xf3
 3713 04f3 01       		.uleb128 0x1
 3714 04f4 51       		.byte	0x51
 3715 04f5 9F       		.byte	0x9f
 3716 04f6 00000000 		.4byte	0
 3717 04fa 00000000 		.4byte	0
 3718              	.LLST8:
 3719 04fe 2C000000 		.4byte	.LVL14
 3720 0502 33000000 		.4byte	.LVL15-1
 3721 0506 0100     		.2byte	0x1
 3722 0508 50       		.byte	0x50
 3723 0509 33000000 		.4byte	.LVL15-1
 3724 050d 40000000 		.4byte	.LVL16
 3725 0511 0400     		.2byte	0x4
 3726 0513 F3       		.byte	0xf3
 3727 0514 01       		.uleb128 0x1
 3728 0515 50       		.byte	0x50
 3729 0516 9F       		.byte	0x9f
 3730 0517 00000000 		.4byte	0
 3731 051b 00000000 		.4byte	0
 3732              		.section	.debug_aranges,"",%progbits
 3733 0000 9C000000 		.4byte	0x9c
 3734 0004 0200     		.2byte	0x2
 3735 0006 00000000 		.4byte	.Ldebug_info0
 3736 000a 04       		.byte	0x4
 3737 000b 00       		.byte	0
 3738 000c 0000     		.2byte	0
 3739 000e 0000     		.2byte	0
 3740 0010 00000000 		.4byte	.LFB7
 3741 0014 34000000 		.4byte	.LFE7-.LFB7
 3742 0018 00000000 		.4byte	.LFB8
 3743 001c 3C000000 		.4byte	.LFE8-.LFB8
 3744 0020 00000000 		.4byte	.LFB9
 3745 0024 28000000 		.4byte	.LFE9-.LFB9
 3746 0028 00000000 		.4byte	.LFB10
 3747 002c 24000000 		.4byte	.LFE10-.LFB10
 3748 0030 00000000 		.4byte	.LFB12
 3749 0034 1C000000 		.4byte	.LFE12-.LFB12
 3750 0038 00000000 		.4byte	.LFB14
 3751 003c 50000000 		.4byte	.LFE14-.LFB14
 3752 0040 00000000 		.4byte	.LFB11
 3753 0044 40000000 		.4byte	.LFE11-.LFB11
 3754 0048 00000000 		.4byte	.LFB13
 3755 004c 18000000 		.4byte	.LFE13-.LFB13
 3756 0050 00000000 		.4byte	.LFB15
 3757 0054 18000000 		.4byte	.LFE15-.LFB15
 3758 0058 00000000 		.4byte	.LFB16
 3759 005c 14000000 		.4byte	.LFE16-.LFB16
 3760 0060 00000000 		.4byte	.LFB17
 3761 0064 54000000 		.4byte	.LFE17-.LFB17
 3762 0068 00000000 		.4byte	.LFB18
ARM GAS  /var/folders/3j/4xdnk5197cv_b7cw3n33qk7r0000gn/T//ccLoBzpe.s 			page 67


 3763 006c 50000000 		.4byte	.LFE18-.LFB18
 3764 0070 00000000 		.4byte	.LFB19
 3765 0074 4C000000 		.4byte	.LFE19-.LFB19
 3766 0078 00000000 		.4byte	.LFB20
 3767 007c 48000000 		.4byte	.LFE20-.LFB20
 3768 0080 00000000 		.4byte	.LFB21
 3769 0084 68000000 		.4byte	.LFE21-.LFB21
 3770 0088 00000000 		.4byte	.LFB22
 3771 008c 60000000 		.4byte	.LFE22-.LFB22
 3772 0090 00000000 		.4byte	.LFB23
 3773 0094 70000000 		.4byte	.LFE23-.LFB23
 3774 0098 00000000 		.4byte	0
 3775 009c 00000000 		.4byte	0
 3776              		.section	.debug_ranges,"",%progbits
 3777              	.Ldebug_ranges0:
 3778 0000 00000000 		.4byte	.LFB7
 3779 0004 34000000 		.4byte	.LFE7
 3780 0008 00000000 		.4byte	.LFB8
 3781 000c 3C000000 		.4byte	.LFE8
 3782 0010 00000000 		.4byte	.LFB9
 3783 0014 28000000 		.4byte	.LFE9
 3784 0018 00000000 		.4byte	.LFB10
 3785 001c 24000000 		.4byte	.LFE10
 3786 0020 00000000 		.4byte	.LFB12
 3787 0024 1C000000 		.4byte	.LFE12
 3788 0028 00000000 		.4byte	.LFB14
 3789 002c 50000000 		.4byte	.LFE14
 3790 0030 00000000 		.4byte	.LFB11
 3791 0034 40000000 		.4byte	.LFE11
 3792 0038 00000000 		.4byte	.LFB13
 3793 003c 18000000 		.4byte	.LFE13
 3794 0040 00000000 		.4byte	.LFB15
 3795 0044 18000000 		.4byte	.LFE15
 3796 0048 00000000 		.4byte	.LFB16
 3797 004c 14000000 		.4byte	.LFE16
 3798 0050 00000000 		.4byte	.LFB17
 3799 0054 54000000 		.4byte	.LFE17
 3800 0058 00000000 		.4byte	.LFB18
 3801 005c 50000000 		.4byte	.LFE18
 3802 0060 00000000 		.4byte	.LFB19
 3803 0064 4C000000 		.4byte	.LFE19
 3804 0068 00000000 		.4byte	.LFB20
 3805 006c 48000000 		.4byte	.LFE20
 3806 0070 00000000 		.4byte	.LFB21
 3807 0074 68000000 		.4byte	.LFE21
 3808 0078 00000000 		.4byte	.LFB22
 3809 007c 60000000 		.4byte	.LFE22
 3810 0080 00000000 		.4byte	.LFB23
 3811 0084 70000000 		.4byte	.LFE23
 3812 0088 00000000 		.4byte	0
 3813 008c 00000000 		.4byte	0
 3814              		.section	.debug_line,"",%progbits
 3815              	.Ldebug_line0:
 3816 0000 5F030000 		.section	.debug_str,"MS",%progbits,1
 3816      02008D01 
 3816      00000201 
 3816      FB0E0D00 
ARM GAS  /var/folders/3j/4xdnk5197cv_b7cw3n33qk7r0000gn/T//ccLoBzpe.s 			page 68


 3816      01010101 
 3817              	.LASF134:
 3818 0000 2F557365 		.ascii	"/Users/kevinmalmsten/development_raspberry_pi/Backu"
 3818      72732F6B 
 3818      6576696E 
 3818      6D616C6D 
 3818      7374656E 
 3819 0033 7053656E 		.ascii	"pSensor_ChibiOS/__Backup_System\000"
 3819      736F725F 
 3819      43686962 
 3819      694F532F 
 3819      5F5F4261 
 3820              	.LASF97:
 3821 0053 63665F6F 		.ascii	"cf_off_older\000"
 3821      66665F6F 
 3821      6C646572 
 3821      00
 3822              	.LASF42:
 3823 0060 705F6D73 		.ascii	"p_msg\000"
 3823      6700
 3824              	.LASF82:
 3825 0066 7264796D 		.ascii	"rdymsg\000"
 3825      736700
 3826              	.LASF4:
 3827 006d 5F5F7569 		.ascii	"__uint8_t\000"
 3827      6E74385F 
 3827      7400
 3828              	.LASF68:
 3829 0077 76746C69 		.ascii	"vtlist\000"
 3829      737400
 3830              	.LASF121:
 3831 007e 63684576 		.ascii	"chEvtSignal\000"
 3831      74536967 
 3831      6E616C00 
 3832              	.LASF12:
 3833 008a 6C6F6E67 		.ascii	"long long unsigned int\000"
 3833      206C6F6E 
 3833      6720756E 
 3833      7369676E 
 3833      65642069 
 3834              	.LASF124:
 3835 00a1 63684576 		.ascii	"chEvtAddEvents\000"
 3835      74416464 
 3835      4576656E 
 3835      747300
 3836              	.LASF93:
 3837 00b0 63685F74 		.ascii	"ch_threadsize\000"
 3837      68726561 
 3837      6473697A 
 3837      6500
 3838              	.LASF83:
 3839 00be 65786974 		.ascii	"exitcode\000"
 3839      636F6465 
 3839      00
 3840              	.LASF111:
 3841 00c7 63684576 		.ascii	"chEvtWaitAnyTimeout\000"
 3841      74576169 
ARM GAS  /var/folders/3j/4xdnk5197cv_b7cw3n33qk7r0000gn/T//ccLoBzpe.s 			page 69


 3841      74416E79 
 3841      54696D65 
 3841      6F757400 
 3842              	.LASF30:
 3843 00db 705F7072 		.ascii	"p_prio\000"
 3843      696F00
 3844              	.LASF100:
 3845 00e2 63665F6F 		.ascii	"cf_off_state\000"
 3845      66665F73 
 3845      74617465 
 3845      00
 3846              	.LASF11:
 3847 00ef 6C6F6E67 		.ascii	"long long int\000"
 3847      206C6F6E 
 3847      6720696E 
 3847      7400
 3848              	.LASF1:
 3849 00fd 7369676E 		.ascii	"signed char\000"
 3849      65642063 
 3849      68617200 
 3850              	.LASF99:
 3851 0109 63665F6F 		.ascii	"cf_off_stklimit\000"
 3851      66665F73 
 3851      746B6C69 
 3851      6D697400 
 3852              	.LASF110:
 3853 0119 63684576 		.ascii	"chEvtWaitAllTimeout\000"
 3853      74576169 
 3853      74416C6C 
 3853      54696D65 
 3853      6F757400 
 3854              	.LASF101:
 3855 012d 63665F6F 		.ascii	"cf_off_flags\000"
 3855      66665F66 
 3855      6C616773 
 3855      00
 3856              	.LASF71:
 3857 013a 6D5F7175 		.ascii	"m_queue\000"
 3857      65756500 
 3858              	.LASF132:
 3859 0142 474E5520 		.ascii	"GNU C11 7.3.1 20180622 (release) [ARM/embedded-7-br"
 3859      43313120 
 3859      372E332E 
 3859      31203230 
 3859      31383036 
 3860 0175 616E6368 		.ascii	"anch revision 261907] -mcpu=arm1176jz-s -mno-thumb-"
 3860      20726576 
 3860      6973696F 
 3860      6E203236 
 3860      31393037 
 3861 01a8 696E7465 		.ascii	"interwork -ggdb -O2 -fomit-frame-pointer -ffunction"
 3861      72776F72 
 3861      6B202D67 
 3861      67646220 
 3861      2D4F3220 
 3862 01db 2D736563 		.ascii	"-sections -fdata-sections\000"
 3862      74696F6E 
ARM GAS  /var/folders/3j/4xdnk5197cv_b7cw3n33qk7r0000gn/T//ccLoBzpe.s 			page 70


 3862      73202D66 
 3862      64617461 
 3862      2D736563 
 3863              	.LASF8:
 3864 01f5 6C6F6E67 		.ascii	"long int\000"
 3864      20696E74 
 3864      00
 3865              	.LASF18:
 3866 01fe 74737461 		.ascii	"tstate_t\000"
 3866      74655F74 
 3866      00
 3867              	.LASF114:
 3868 0207 63684576 		.ascii	"chEvtWaitAny\000"
 3868      74576169 
 3868      74416E79 
 3868      00
 3869              	.LASF128:
 3870 0214 63685363 		.ascii	"chSchGoSleepTimeoutS\000"
 3870      68476F53 
 3870      6C656570 
 3870      54696D65 
 3870      6F757453 
 3871              	.LASF14:
 3872 0229 75696E74 		.ascii	"uint16_t\000"
 3872      31365F74 
 3872      00
 3873              	.LASF105:
 3874 0232 63686465 		.ascii	"chdebug_t\000"
 3874      6275675F 
 3874      7400
 3875              	.LASF123:
 3876 023c 63684576 		.ascii	"chEvtBroadcastFlagsI\000"
 3876      7442726F 
 3876      61646361 
 3876      7374466C 
 3876      61677349 
 3877              	.LASF32:
 3878 0251 705F6E65 		.ascii	"p_newer\000"
 3878      77657200 
 3879              	.LASF107:
 3880 0259 5F69646C 		.ascii	"_idle_thread_wa\000"
 3880      655F7468 
 3880      72656164 
 3880      5F776100 
 3881              	.LASF130:
 3882 0269 63685363 		.ascii	"chSchRescheduleS\000"
 3882      68526573 
 3882      63686564 
 3882      756C6553 
 3882      00
 3883              	.LASF9:
 3884 027a 5F5F7569 		.ascii	"__uint32_t\000"
 3884      6E743332 
 3884      5F7400
 3885              	.LASF108:
 3886 0285 6D61736B 		.ascii	"mask\000"
 3886      00
ARM GAS  /var/folders/3j/4xdnk5197cv_b7cw3n33qk7r0000gn/T//ccLoBzpe.s 			page 71


 3887              	.LASF49:
 3888 028a 72656761 		.ascii	"regarm_t\000"
 3888      726D5F74 
 3888      00
 3889              	.LASF55:
 3890 0293 76745F70 		.ascii	"vt_prev\000"
 3890      72657600 
 3891              	.LASF120:
 3892 029b 63684576 		.ascii	"chEvtBroadcastFlags\000"
 3892      7442726F 
 3892      61646361 
 3892      7374466C 
 3892      61677300 
 3893              	.LASF23:
 3894 02af 6576656E 		.ascii	"eventid_t\000"
 3894      7469645F 
 3894      7400
 3895              	.LASF79:
 3896 02b9 4576656E 		.ascii	"EventSource\000"
 3896      74536F75 
 3896      72636500 
 3897              	.LASF81:
 3898 02c5 65766861 		.ascii	"evhandler_t\000"
 3898      6E646C65 
 3898      725F7400 
 3899              	.LASF0:
 3900 02d1 756E7369 		.ascii	"unsigned int\000"
 3900      676E6564 
 3900      20696E74 
 3900      00
 3901              	.LASF54:
 3902 02de 76745F6E 		.ascii	"vt_next\000"
 3902      65787400 
 3903              	.LASF10:
 3904 02e6 6C6F6E67 		.ascii	"long unsigned int\000"
 3904      20756E73 
 3904      69676E65 
 3904      6420696E 
 3904      7400
 3905              	.LASF125:
 3906 02f8 63684576 		.ascii	"chEvtGetAndClearEvents\000"
 3906      74476574 
 3906      416E6443 
 3906      6C656172 
 3906      4576656E 
 3907              	.LASF106:
 3908 030f 63685F64 		.ascii	"ch_debug\000"
 3908      65627567 
 3908      00
 3909              	.LASF52:
 3910 0318 76746675 		.ascii	"vtfunc_t\000"
 3910      6E635F74 
 3910      00
 3911              	.LASF87:
 3912 0321 63685F69 		.ascii	"ch_identifier\000"
 3912      64656E74 
 3912      69666965 
ARM GAS  /var/folders/3j/4xdnk5197cv_b7cw3n33qk7r0000gn/T//ccLoBzpe.s 			page 72


 3912      7200
 3913              	.LASF51:
 3914 032f 636F6E74 		.ascii	"context\000"
 3914      65787400 
 3915              	.LASF6:
 3916 0337 73686F72 		.ascii	"short unsigned int\000"
 3916      7420756E 
 3916      7369676E 
 3916      65642069 
 3916      6E7400
 3917              	.LASF127:
 3918 034a 63684576 		.ascii	"chEvtRegisterMask\000"
 3918      74526567 
 3918      69737465 
 3918      724D6173 
 3918      6B00
 3919              	.LASF22:
 3920 035c 6D73675F 		.ascii	"msg_t\000"
 3920      7400
 3921              	.LASF64:
 3922 0362 725F6E65 		.ascii	"r_newer\000"
 3922      77657200 
 3923              	.LASF75:
 3924 036a 656C5F6E 		.ascii	"el_next\000"
 3924      65787400 
 3925              	.LASF126:
 3926 0372 63684576 		.ascii	"chEvtUnregister\000"
 3926      74556E72 
 3926      65676973 
 3926      74657200 
 3927              	.LASF17:
 3928 0382 746D6F64 		.ascii	"tmode_t\000"
 3928      655F7400 
 3929              	.LASF47:
 3930 038a 54687265 		.ascii	"ThreadsList\000"
 3930      6164734C 
 3930      69737400 
 3931              	.LASF24:
 3932 0396 6576656E 		.ascii	"eventmask_t\000"
 3932      746D6173 
 3932      6B5F7400 
 3933              	.LASF70:
 3934 03a2 4D757465 		.ascii	"Mutex\000"
 3934      7800
 3935              	.LASF48:
 3936 03a8 73746B61 		.ascii	"stkalign_t\000"
 3936      6C69676E 
 3936      5F7400
 3937              	.LASF88:
 3938 03b3 63685F7A 		.ascii	"ch_zero\000"
 3938      65726F00 
 3939              	.LASF102:
 3940 03bb 63665F6F 		.ascii	"cf_off_refs\000"
 3940      66665F72 
 3940      65667300 
 3941              	.LASF56:
 3942 03c7 76745F74 		.ascii	"vt_time\000"
ARM GAS  /var/folders/3j/4xdnk5197cv_b7cw3n33qk7r0000gn/T//ccLoBzpe.s 			page 73


 3942      696D6500 
 3943              	.LASF57:
 3944 03cf 76745F66 		.ascii	"vt_func\000"
 3944      756E6300 
 3945              	.LASF119:
 3946 03d7 63684576 		.ascii	"chEvtDispatch\000"
 3946      74446973 
 3946      70617463 
 3946      6800
 3947              	.LASF92:
 3948 03e5 63685F74 		.ascii	"ch_timesize\000"
 3948      696D6573 
 3948      697A6500 
 3949              	.LASF98:
 3950 03f1 63665F6F 		.ascii	"cf_off_name\000"
 3950      66665F6E 
 3950      616D6500 
 3951              	.LASF33:
 3952 03fd 705F6F6C 		.ascii	"p_older\000"
 3952      64657200 
 3953              	.LASF63:
 3954 0405 725F6374 		.ascii	"r_ctx\000"
 3954      7800
 3955              	.LASF46:
 3956 040b 54687265 		.ascii	"ThreadsQueue\000"
 3956      61647351 
 3956      75657565 
 3956      00
 3957              	.LASF89:
 3958 0418 63685F73 		.ascii	"ch_size\000"
 3958      697A6500 
 3959              	.LASF109:
 3960 0420 74696D65 		.ascii	"time\000"
 3960      00
 3961              	.LASF113:
 3962 0425 63684576 		.ascii	"chEvtWaitAll\000"
 3962      74576169 
 3962      74416C6C 
 3962      00
 3963              	.LASF66:
 3964 0432 725F6375 		.ascii	"r_current\000"
 3964      7272656E 
 3964      7400
 3965              	.LASF65:
 3966 043c 725F6F6C 		.ascii	"r_older\000"
 3966      64657200 
 3967              	.LASF77:
 3968 0444 656C5F6D 		.ascii	"el_mask\000"
 3968      61736B00 
 3969              	.LASF116:
 3970 044c 68616E64 		.ascii	"handlers\000"
 3970      6C657273 
 3970      00
 3971              	.LASF19:
 3972 0455 74726566 		.ascii	"trefs_t\000"
 3972      735F7400 
 3973              	.LASF91:
ARM GAS  /var/folders/3j/4xdnk5197cv_b7cw3n33qk7r0000gn/T//ccLoBzpe.s 			page 74


 3974 045d 63685F70 		.ascii	"ch_ptrsize\000"
 3974      74727369 
 3974      7A6500
 3975              	.LASF29:
 3976 0468 705F7072 		.ascii	"p_prev\000"
 3976      657600
 3977              	.LASF21:
 3978 046f 74707269 		.ascii	"tprio_t\000"
 3978      6F5F7400 
 3979              	.LASF15:
 3980 0477 696E7433 		.ascii	"int32_t\000"
 3980      325F7400 
 3981              	.LASF2:
 3982 047f 756E7369 		.ascii	"unsigned char\000"
 3982      676E6564 
 3982      20636861 
 3982      7200
 3983              	.LASF115:
 3984 048d 63684576 		.ascii	"chEvtWaitOne\000"
 3984      74576169 
 3984      744F6E65 
 3984      00
 3985              	.LASF76:
 3986 049a 656C5F6C 		.ascii	"el_listener\000"
 3986      69737465 
 3986      6E657200 
 3987              	.LASF78:
 3988 04a6 656C5F66 		.ascii	"el_flags\000"
 3988      6C616773 
 3988      00
 3989              	.LASF44:
 3990 04af 705F6D74 		.ascii	"p_mtxlist\000"
 3990      786C6973 
 3990      7400
 3991              	.LASF3:
 3992 04b9 73686F72 		.ascii	"short int\000"
 3992      7420696E 
 3992      7400
 3993              	.LASF35:
 3994 04c3 705F7374 		.ascii	"p_state\000"
 3994      61746500 
 3995              	.LASF38:
 3996 04cb 705F7072 		.ascii	"p_preempt\000"
 3996      65656D70 
 3996      7400
 3997              	.LASF104:
 3998 04d5 63665F6F 		.ascii	"cf_off_time\000"
 3998      66665F74 
 3998      696D6500 
 3999              	.LASF62:
 4000 04e1 725F7072 		.ascii	"r_prio\000"
 4000      696F00
 4001              	.LASF117:
 4002 04e8 63684576 		.ascii	"chEvtGetAndClearFlagsI\000"
 4002      74476574 
 4002      416E6443 
 4002      6C656172 
ARM GAS  /var/folders/3j/4xdnk5197cv_b7cw3n33qk7r0000gn/T//ccLoBzpe.s 			page 75


 4002      466C6167 
 4003              	.LASF85:
 4004 04ff 65776D61 		.ascii	"ewmask\000"
 4004      736B00
 4005              	.LASF28:
 4006 0506 705F6E65 		.ascii	"p_next\000"
 4006      787400
 4007              	.LASF103:
 4008 050d 63665F6F 		.ascii	"cf_off_preempt\000"
 4008      66665F70 
 4008      7265656D 
 4008      707400
 4009              	.LASF36:
 4010 051c 705F666C 		.ascii	"p_flags\000"
 4010      61677300 
 4011              	.LASF27:
 4012 0524 54687265 		.ascii	"Thread\000"
 4012      616400
 4013              	.LASF96:
 4014 052b 63665F6F 		.ascii	"cf_off_newer\000"
 4014      66665F6E 
 4014      65776572 
 4014      00
 4015              	.LASF129:
 4016 0538 63685363 		.ascii	"chSchGoSleepS\000"
 4016      68476F53 
 4016      6C656570 
 4016      5300
 4017              	.LASF43:
 4018 0546 705F6570 		.ascii	"p_epending\000"
 4018      656E6469 
 4018      6E6700
 4019              	.LASF16:
 4020 0551 75696E74 		.ascii	"uint32_t\000"
 4020      33325F74 
 4020      00
 4021              	.LASF94:
 4022 055a 63665F6F 		.ascii	"cf_off_prio\000"
 4022      66665F70 
 4022      72696F00 
 4023              	.LASF61:
 4024 0566 725F7175 		.ascii	"r_queue\000"
 4024      65756500 
 4025              	.LASF53:
 4026 056e 56697274 		.ascii	"VirtualTimer\000"
 4026      75616C54 
 4026      696D6572 
 4026      00
 4027              	.LASF20:
 4028 057b 74736C69 		.ascii	"tslices_t\000"
 4028      6365735F 
 4028      7400
 4029              	.LASF86:
 4030 0585 63686172 		.ascii	"char\000"
 4030      00
 4031              	.LASF5:
 4032 058a 5F5F7569 		.ascii	"__uint16_t\000"
ARM GAS  /var/folders/3j/4xdnk5197cv_b7cw3n33qk7r0000gn/T//ccLoBzpe.s 			page 76


 4032      6E743136 
 4032      5F7400
 4033              	.LASF131:
 4034 0595 63685363 		.ascii	"chSchReadyI\000"
 4034      68526561 
 4034      64794900 
 4035              	.LASF73:
 4036 05a1 6D5F6E65 		.ascii	"m_next\000"
 4036      787400
 4037              	.LASF26:
 4038 05a8 73797374 		.ascii	"systime_t\000"
 4038      696D655F 
 4038      7400
 4039              	.LASF45:
 4040 05b2 705F7265 		.ascii	"p_realprio\000"
 4040      616C7072 
 4040      696F00
 4041              	.LASF7:
 4042 05bd 5F5F696E 		.ascii	"__int32_t\000"
 4042      7433325F 
 4042      7400
 4043              	.LASF39:
 4044 05c7 705F7469 		.ascii	"p_time\000"
 4044      6D6500
 4045              	.LASF50:
 4046 05ce 696E7463 		.ascii	"intctx\000"
 4046      747800
 4047              	.LASF41:
 4048 05d5 705F6D73 		.ascii	"p_msgqueue\000"
 4048      67717565 
 4048      756500
 4049              	.LASF58:
 4050 05e0 76745F70 		.ascii	"vt_par\000"
 4050      617200
 4051              	.LASF25:
 4052 05e7 666C6167 		.ascii	"flagsmask_t\000"
 4052      736D6173 
 4052      6B5F7400 
 4053              	.LASF95:
 4054 05f3 63665F6F 		.ascii	"cf_off_ctx\000"
 4054      66665F63 
 4054      747800
 4055              	.LASF37:
 4056 05fe 705F7265 		.ascii	"p_refs\000"
 4056      667300
 4057              	.LASF67:
 4058 0605 52656164 		.ascii	"ReadyList\000"
 4058      794C6973 
 4058      7400
 4059              	.LASF69:
 4060 060f 726C6973 		.ascii	"rlist\000"
 4060      7400
 4061              	.LASF13:
 4062 0615 75696E74 		.ascii	"uint8_t\000"
 4062      385F7400 
 4063              	.LASF118:
 4064 061d 666C6167 		.ascii	"flags\000"
ARM GAS  /var/folders/3j/4xdnk5197cv_b7cw3n33qk7r0000gn/T//ccLoBzpe.s 			page 77


 4064      7300
 4065              	.LASF74:
 4066 0623 4576656E 		.ascii	"EventListener\000"
 4066      744C6973 
 4066      74656E65 
 4066      7200
 4067              	.LASF112:
 4068 0631 63684576 		.ascii	"chEvtWaitOneTimeout\000"
 4068      74576169 
 4068      744F6E65 
 4068      54696D65 
 4068      6F757400 
 4069              	.LASF84:
 4070 0645 77746F62 		.ascii	"wtobjp\000"
 4070      6A7000
 4071              	.LASF34:
 4072 064c 705F6E61 		.ascii	"p_name\000"
 4072      6D6500
 4073              	.LASF59:
 4074 0653 76745F73 		.ascii	"vt_systime\000"
 4074      79737469 
 4074      6D6500
 4075              	.LASF80:
 4076 065e 65735F6E 		.ascii	"es_next\000"
 4076      65787400 
 4077              	.LASF122:
 4078 0666 63684576 		.ascii	"chEvtGetAndClearFlags\000"
 4078      74476574 
 4078      416E6443 
 4078      6C656172 
 4078      466C6167 
 4079              	.LASF90:
 4080 067c 63685F76 		.ascii	"ch_version\000"
 4080      65727369 
 4080      6F6E00
 4081              	.LASF60:
 4082 0687 56544C69 		.ascii	"VTList\000"
 4082      737400
 4083              	.LASF72:
 4084 068e 6D5F6F77 		.ascii	"m_owner\000"
 4084      6E657200 
 4085              	.LASF133:
 4086 0696 2E2E2F2F 		.ascii	"..//os/kernel/src/chevents.c\000"
 4086      6F732F6B 
 4086      65726E65 
 4086      6C2F7372 
 4086      632F6368 
 4087              	.LASF31:
 4088 06b3 705F6374 		.ascii	"p_ctx\000"
 4088      7800
 4089              	.LASF40:
 4090 06b9 705F7761 		.ascii	"p_waiting\000"
 4090      6974696E 
 4090      6700
 4091              	.LASF135:
 4092 06c3 63684576 		.ascii	"chEvtSignalI\000"
 4092      74536967 
ARM GAS  /var/folders/3j/4xdnk5197cv_b7cw3n33qk7r0000gn/T//ccLoBzpe.s 			page 78


 4092      6E616C49 
 4092      00
 4093              		.ident	"GCC: (GNU Tools for Arm Embedded Processors 7-2018-q2-update) 7.3.1 20180622 (release) [AR
ARM GAS  /var/folders/3j/4xdnk5197cv_b7cw3n33qk7r0000gn/T//ccLoBzpe.s 			page 79


DEFINED SYMBOLS
                            *ABS*:0000000000000000 chevents.c
/var/folders/3j/4xdnk5197cv_b7cw3n33qk7r0000gn/T//ccLoBzpe.s:16     .text.chEvtRegisterMask:0000000000000000 $a
/var/folders/3j/4xdnk5197cv_b7cw3n33qk7r0000gn/T//ccLoBzpe.s:22     .text.chEvtRegisterMask:0000000000000000 chEvtRegisterMask
/var/folders/3j/4xdnk5197cv_b7cw3n33qk7r0000gn/T//ccLoBzpe.s:68     .text.chEvtRegisterMask:0000000000000030 $d
/var/folders/3j/4xdnk5197cv_b7cw3n33qk7r0000gn/T//ccLoBzpe.s:73     .text.chEvtUnregister:0000000000000000 $a
/var/folders/3j/4xdnk5197cv_b7cw3n33qk7r0000gn/T//ccLoBzpe.s:79     .text.chEvtUnregister:0000000000000000 chEvtUnregister
/var/folders/3j/4xdnk5197cv_b7cw3n33qk7r0000gn/T//ccLoBzpe.s:136    .text.chEvtGetAndClearEvents:0000000000000000 $a
/var/folders/3j/4xdnk5197cv_b7cw3n33qk7r0000gn/T//ccLoBzpe.s:142    .text.chEvtGetAndClearEvents:0000000000000000 chEvtGetAndClearEvents
/var/folders/3j/4xdnk5197cv_b7cw3n33qk7r0000gn/T//ccLoBzpe.s:179    .text.chEvtGetAndClearEvents:0000000000000024 $d
/var/folders/3j/4xdnk5197cv_b7cw3n33qk7r0000gn/T//ccLoBzpe.s:184    .text.chEvtAddEvents:0000000000000000 $a
/var/folders/3j/4xdnk5197cv_b7cw3n33qk7r0000gn/T//ccLoBzpe.s:190    .text.chEvtAddEvents:0000000000000000 chEvtAddEvents
/var/folders/3j/4xdnk5197cv_b7cw3n33qk7r0000gn/T//ccLoBzpe.s:225    .text.chEvtAddEvents:0000000000000020 $d
/var/folders/3j/4xdnk5197cv_b7cw3n33qk7r0000gn/T//ccLoBzpe.s:230    .text.chEvtGetAndClearFlags:0000000000000000 $a
/var/folders/3j/4xdnk5197cv_b7cw3n33qk7r0000gn/T//ccLoBzpe.s:236    .text.chEvtGetAndClearFlags:0000000000000000 chEvtGetAndClearFlags
/var/folders/3j/4xdnk5197cv_b7cw3n33qk7r0000gn/T//ccLoBzpe.s:273    .text.chEvtSignalI:0000000000000000 $a
/var/folders/3j/4xdnk5197cv_b7cw3n33qk7r0000gn/T//ccLoBzpe.s:279    .text.chEvtSignalI:0000000000000000 chEvtSignalI
/var/folders/3j/4xdnk5197cv_b7cw3n33qk7r0000gn/T//ccLoBzpe.s:340    .text.chEvtBroadcastFlagsI:0000000000000000 $a
/var/folders/3j/4xdnk5197cv_b7cw3n33qk7r0000gn/T//ccLoBzpe.s:346    .text.chEvtBroadcastFlagsI:0000000000000000 chEvtBroadcastFlagsI
/var/folders/3j/4xdnk5197cv_b7cw3n33qk7r0000gn/T//ccLoBzpe.s:391    .text.chEvtSignal:0000000000000000 $a
/var/folders/3j/4xdnk5197cv_b7cw3n33qk7r0000gn/T//ccLoBzpe.s:397    .text.chEvtSignal:0000000000000000 chEvtSignal
/var/folders/3j/4xdnk5197cv_b7cw3n33qk7r0000gn/T//ccLoBzpe.s:434    .text.chEvtBroadcastFlags:0000000000000000 $a
/var/folders/3j/4xdnk5197cv_b7cw3n33qk7r0000gn/T//ccLoBzpe.s:440    .text.chEvtBroadcastFlags:0000000000000000 chEvtBroadcastFlags
/var/folders/3j/4xdnk5197cv_b7cw3n33qk7r0000gn/T//ccLoBzpe.s:477    .text.chEvtGetAndClearFlagsI:0000000000000000 $a
/var/folders/3j/4xdnk5197cv_b7cw3n33qk7r0000gn/T//ccLoBzpe.s:483    .text.chEvtGetAndClearFlagsI:0000000000000000 chEvtGetAndClearFlagsI
/var/folders/3j/4xdnk5197cv_b7cw3n33qk7r0000gn/T//ccLoBzpe.s:506    .text.chEvtDispatch:0000000000000000 $a
/var/folders/3j/4xdnk5197cv_b7cw3n33qk7r0000gn/T//ccLoBzpe.s:512    .text.chEvtDispatch:0000000000000000 chEvtDispatch
/var/folders/3j/4xdnk5197cv_b7cw3n33qk7r0000gn/T//ccLoBzpe.s:569    .text.chEvtWaitOne:0000000000000000 $a
/var/folders/3j/4xdnk5197cv_b7cw3n33qk7r0000gn/T//ccLoBzpe.s:575    .text.chEvtWaitOne:0000000000000000 chEvtWaitOne
/var/folders/3j/4xdnk5197cv_b7cw3n33qk7r0000gn/T//ccLoBzpe.s:640    .text.chEvtWaitOne:000000000000004c $d
/var/folders/3j/4xdnk5197cv_b7cw3n33qk7r0000gn/T//ccLoBzpe.s:645    .text.chEvtWaitAny:0000000000000000 $a
/var/folders/3j/4xdnk5197cv_b7cw3n33qk7r0000gn/T//ccLoBzpe.s:651    .text.chEvtWaitAny:0000000000000000 chEvtWaitAny
/var/folders/3j/4xdnk5197cv_b7cw3n33qk7r0000gn/T//ccLoBzpe.s:713    .text.chEvtWaitAny:0000000000000048 $d
/var/folders/3j/4xdnk5197cv_b7cw3n33qk7r0000gn/T//ccLoBzpe.s:718    .text.chEvtWaitAll:0000000000000000 $a
/var/folders/3j/4xdnk5197cv_b7cw3n33qk7r0000gn/T//ccLoBzpe.s:724    .text.chEvtWaitAll:0000000000000000 chEvtWaitAll
/var/folders/3j/4xdnk5197cv_b7cw3n33qk7r0000gn/T//ccLoBzpe.s:781    .text.chEvtWaitAll:0000000000000044 $d
/var/folders/3j/4xdnk5197cv_b7cw3n33qk7r0000gn/T//ccLoBzpe.s:786    .text.chEvtWaitOneTimeout:0000000000000000 $a
/var/folders/3j/4xdnk5197cv_b7cw3n33qk7r0000gn/T//ccLoBzpe.s:792    .text.chEvtWaitOneTimeout:0000000000000000 chEvtWaitOneTimeout
/var/folders/3j/4xdnk5197cv_b7cw3n33qk7r0000gn/T//ccLoBzpe.s:867    .text.chEvtWaitOneTimeout:0000000000000064 $d
/var/folders/3j/4xdnk5197cv_b7cw3n33qk7r0000gn/T//ccLoBzpe.s:872    .text.chEvtWaitAnyTimeout:0000000000000000 $a
/var/folders/3j/4xdnk5197cv_b7cw3n33qk7r0000gn/T//ccLoBzpe.s:878    .text.chEvtWaitAnyTimeout:0000000000000000 chEvtWaitAnyTimeout
/var/folders/3j/4xdnk5197cv_b7cw3n33qk7r0000gn/T//ccLoBzpe.s:949    .text.chEvtWaitAnyTimeout:000000000000005c $d
/var/folders/3j/4xdnk5197cv_b7cw3n33qk7r0000gn/T//ccLoBzpe.s:954    .text.chEvtWaitAllTimeout:0000000000000000 $a
/var/folders/3j/4xdnk5197cv_b7cw3n33qk7r0000gn/T//ccLoBzpe.s:960    .text.chEvtWaitAllTimeout:0000000000000000 chEvtWaitAllTimeout
/var/folders/3j/4xdnk5197cv_b7cw3n33qk7r0000gn/T//ccLoBzpe.s:1045   .text.chEvtWaitAllTimeout:000000000000006c $d

UNDEFINED SYMBOLS
rlist
chSchReadyI
chSchRescheduleS
chSchGoSleepS
chSchGoSleepTimeoutS
