ARM GAS  /var/folders/3j/4xdnk5197cv_b7cw3n33qk7r0000gn/T//ccOqb1Kq.s 			page 1


   1              		.cpu arm1176jz-s
   2              		.eabi_attribute 20, 1
   3              		.eabi_attribute 21, 1
   4              		.eabi_attribute 23, 3
   5              		.eabi_attribute 24, 1
   6              		.eabi_attribute 25, 1
   7              		.eabi_attribute 26, 1
   8              		.eabi_attribute 30, 2
   9              		.eabi_attribute 34, 1
  10              		.eabi_attribute 18, 4
  11              		.file	"chmboxes.c"
  12              		.text
  13              	.Ltext0:
  14              		.cfi_sections	.debug_frame
  15              		.section	.text.chMBInit,"ax",%progbits
  16              		.align	2
  17              		.global	chMBInit
  18              		.syntax unified
  19              		.arm
  20              		.fpu softvfp
  21              		.type	chMBInit, %function
  22              	chMBInit:
  23              	.LFB7:
  24              		.file 1 "..//os/kernel/src/chmboxes.c"
  25              		.loc 1 65 0
  26              		.cfi_startproc
  27              		@ args = 0, pretend = 0, frame = 0
  28              		@ frame_needed = 0, uses_anonymous_args = 0
  29              	.LVL0:
  30 0000 0130A0E1 		mov	r3, r1
  31 0004 10402DE9 		push	{r4, lr}
  32              		.cfi_def_cfa_offset 8
  33              		.cfi_offset 4, -8
  34              		.cfi_offset 14, -4
  35              		.loc 1 65 0
  36 0008 0040A0E1 		mov	r4, r0
  37              		.loc 1 70 0
  38 000c 021181E0 		add	r1, r1, r2, lsl #2
  39              	.LVL1:
  40 0010 041080E5 		str	r1, [r0, #4]
  41              		.loc 1 69 0
  42 0014 0C3080E5 		str	r3, [r0, #12]
  43 0018 083080E5 		str	r3, [r0, #8]
  44 001c 003080E5 		str	r3, [r0]
  45              		.loc 1 71 0
  46 0020 0210A0E1 		mov	r1, r2
  47 0024 1C0080E2 		add	r0, r0, #28
  48              	.LVL2:
  49 0028 FEFFFFEB 		bl	chSemInit
  50              	.LVL3:
  51              		.loc 1 72 0
  52 002c 100084E2 		add	r0, r4, #16
  53 0030 0010A0E3 		mov	r1, #0
  54              		.loc 1 73 0
  55 0034 1040BDE8 		pop	{r4, lr}
  56              		.cfi_restore 14
  57              		.cfi_restore 4
ARM GAS  /var/folders/3j/4xdnk5197cv_b7cw3n33qk7r0000gn/T//ccOqb1Kq.s 			page 2


  58              		.cfi_def_cfa_offset 0
  59              	.LVL4:
  60              		.loc 1 72 0
  61 0038 FEFFFFEA 		b	chSemInit
  62              	.LVL5:
  63              		.cfi_endproc
  64              	.LFE7:
  65              		.size	chMBInit, .-chMBInit
  66              		.section	.text.chMBReset,"ax",%progbits
  67              		.align	2
  68              		.global	chMBReset
  69              		.syntax unified
  70              		.arm
  71              		.fpu softvfp
  72              		.type	chMBReset, %function
  73              	chMBReset:
  74              	.LFB8:
  75              		.loc 1 84 0
  76              		.cfi_startproc
  77              		@ args = 0, pretend = 0, frame = 0
  78              		@ frame_needed = 0, uses_anonymous_args = 0
  79              	.LVL6:
  80 0000 10402DE9 		push	{r4, lr}
  81              		.cfi_def_cfa_offset 8
  82              		.cfi_offset 4, -8
  83              		.cfi_offset 14, -4
  84              		.loc 1 84 0
  85 0004 0040A0E1 		mov	r4, r0
  86              		.loc 1 88 0
  87              		.syntax divided
  88              	@ 88 "..//os/kernel/src/chmboxes.c" 1
  89 0008 9FF021E3 		msr     CPSR_c, #0x9F
  90              	@ 0 "" 2
  91              		.loc 1 89 0
  92              		.arm
  93              		.syntax unified
  94 000c 003090E5 		ldr	r3, [r0]
  95              		.loc 1 90 0
  96 0010 041090E5 		ldr	r1, [r0, #4]
  97              		.loc 1 89 0
  98 0014 0C3080E5 		str	r3, [r0, #12]
  99              		.loc 1 90 0
 100 0018 031041E0 		sub	r1, r1, r3
 101              		.loc 1 89 0
 102 001c 083080E5 		str	r3, [r0, #8]
 103              		.loc 1 90 0
 104 0020 4111A0E1 		asr	r1, r1, #2
 105 0024 1C0080E2 		add	r0, r0, #28
 106              	.LVL7:
 107 0028 FEFFFFEB 		bl	chSemResetI
 108              	.LVL8:
 109              		.loc 1 91 0
 110 002c 100084E2 		add	r0, r4, #16
 111 0030 0010A0E3 		mov	r1, #0
 112 0034 FEFFFFEB 		bl	chSemResetI
 113              	.LVL9:
 114              		.loc 1 92 0
ARM GAS  /var/folders/3j/4xdnk5197cv_b7cw3n33qk7r0000gn/T//ccOqb1Kq.s 			page 3


 115 0038 FEFFFFEB 		bl	chSchRescheduleS
 116              	.LVL10:
 117              		.loc 1 93 0
 118              		.syntax divided
 119              	@ 93 "..//os/kernel/src/chmboxes.c" 1
 120 003c 1FF021E3 		msr     CPSR_c, #0x1F
 121              	@ 0 "" 2
 122              		.loc 1 94 0
 123              		.arm
 124              		.syntax unified
 125 0040 1080BDE8 		pop	{r4, pc}
 126              		.cfi_endproc
 127              	.LFE8:
 128              		.size	chMBReset, .-chMBReset
 129              		.section	.text.chMBPost,"ax",%progbits
 130              		.align	2
 131              		.global	chMBPost
 132              		.syntax unified
 133              		.arm
 134              		.fpu softvfp
 135              		.type	chMBPost, %function
 136              	chMBPost:
 137              	.LFB9:
 138              		.loc 1 115 0
 139              		.cfi_startproc
 140              		@ args = 0, pretend = 0, frame = 0
 141              		@ frame_needed = 0, uses_anonymous_args = 0
 142              	.LVL11:
 143 0000 70402DE9 		push	{r4, r5, r6, lr}
 144              		.cfi_def_cfa_offset 16
 145              		.cfi_offset 4, -16
 146              		.cfi_offset 5, -12
 147              		.cfi_offset 6, -8
 148              		.cfi_offset 14, -4
 149              		.loc 1 115 0
 150 0004 0040A0E1 		mov	r4, r0
 151 0008 0160A0E1 		mov	r6, r1
 152              		.loc 1 118 0
 153              		.syntax divided
 154              	@ 118 "..//os/kernel/src/chmboxes.c" 1
 155 000c 9FF021E3 		msr     CPSR_c, #0x9F
 156              	@ 0 "" 2
 157              	.LVL12:
 158              		.arm
 159              		.syntax unified
 160              	.LBB12:
 161              	.LBB13:
 162              		.loc 1 149 0
 163 0010 0210A0E1 		mov	r1, r2
 164              	.LVL13:
 165 0014 1C0080E2 		add	r0, r0, #28
 166              	.LVL14:
 167 0018 FEFFFFEB 		bl	chSemWaitTimeoutS
 168              	.LVL15:
 169              		.loc 1 150 0
 170 001c 005050E2 		subs	r5, r0, #0
 171 0020 0900001A 		bne	.L7
ARM GAS  /var/folders/3j/4xdnk5197cv_b7cw3n33qk7r0000gn/T//ccOqb1Kq.s 			page 4


 172              	.LVL16:
 173              	.LBB14:
 174              	.LBB15:
 175              		.loc 1 152 0
 176 0024 0A0094E9 		ldmib	r4, {r1, r3}
 177              		.loc 1 151 0
 178 0028 042083E2 		add	r2, r3, #4
 179              		.loc 1 152 0
 180 002c 010052E1 		cmp	r2, r1
 181              		.loc 1 151 0
 182 0030 082084E5 		str	r2, [r4, #8]
 183 0034 006083E5 		str	r6, [r3]
 184              		.loc 1 153 0
 185 0038 00309425 		ldrcs	r3, [r4]
 186              		.loc 1 154 0
 187 003c 100084E2 		add	r0, r4, #16
 188              	.LVL17:
 189              		.loc 1 153 0
 190 0040 08308425 		strcs	r3, [r4, #8]
 191              		.loc 1 154 0
 192 0044 FEFFFFEB 		bl	chSemSignalI
 193              	.LVL18:
 194              		.loc 1 155 0
 195 0048 FEFFFFEB 		bl	chSchRescheduleS
 196              	.LVL19:
 197              	.L7:
 198              	.LBE15:
 199              	.LBE14:
 200              	.LBE13:
 201              	.LBE12:
 202              		.loc 1 120 0
 203              		.syntax divided
 204              	@ 120 "..//os/kernel/src/chmboxes.c" 1
 205 004c 1FF021E3 		msr     CPSR_c, #0x1F
 206              	@ 0 "" 2
 207              		.loc 1 122 0
 208              		.arm
 209              		.syntax unified
 210 0050 0500A0E1 		mov	r0, r5
 211 0054 7080BDE8 		pop	{r4, r5, r6, pc}
 212              		.cfi_endproc
 213              	.LFE9:
 214              		.size	chMBPost, .-chMBPost
 215              		.section	.text.chMBPostS,"ax",%progbits
 216              		.align	2
 217              		.global	chMBPostS
 218              		.syntax unified
 219              		.arm
 220              		.fpu softvfp
 221              		.type	chMBPostS, %function
 222              	chMBPostS:
 223              	.LFB10:
 224              		.loc 1 143 0
 225              		.cfi_startproc
 226              		@ args = 0, pretend = 0, frame = 0
 227              		@ frame_needed = 0, uses_anonymous_args = 0
 228              	.LVL20:
ARM GAS  /var/folders/3j/4xdnk5197cv_b7cw3n33qk7r0000gn/T//ccOqb1Kq.s 			page 5


 229 0000 70402DE9 		push	{r4, r5, r6, lr}
 230              		.cfi_def_cfa_offset 16
 231              		.cfi_offset 4, -16
 232              		.cfi_offset 5, -12
 233              		.cfi_offset 6, -8
 234              		.cfi_offset 14, -4
 235              		.loc 1 143 0
 236 0004 0040A0E1 		mov	r4, r0
 237 0008 0160A0E1 		mov	r6, r1
 238              		.loc 1 149 0
 239 000c 1C0080E2 		add	r0, r0, #28
 240              	.LVL21:
 241 0010 0210A0E1 		mov	r1, r2
 242              	.LVL22:
 243 0014 FEFFFFEB 		bl	chSemWaitTimeoutS
 244              	.LVL23:
 245              		.loc 1 150 0
 246 0018 005050E2 		subs	r5, r0, #0
 247 001c 0900001A 		bne	.L10
 248              	.LVL24:
 249              	.LBB18:
 250              	.LBB19:
 251              		.loc 1 152 0
 252 0020 0A0094E9 		ldmib	r4, {r1, r3}
 253              		.loc 1 151 0
 254 0024 042083E2 		add	r2, r3, #4
 255              		.loc 1 152 0
 256 0028 010052E1 		cmp	r2, r1
 257              		.loc 1 151 0
 258 002c 082084E5 		str	r2, [r4, #8]
 259 0030 006083E5 		str	r6, [r3]
 260              		.loc 1 153 0
 261 0034 00309425 		ldrcs	r3, [r4]
 262              		.loc 1 154 0
 263 0038 100084E2 		add	r0, r4, #16
 264              	.LVL25:
 265              		.loc 1 153 0
 266 003c 08308425 		strcs	r3, [r4, #8]
 267              		.loc 1 154 0
 268 0040 FEFFFFEB 		bl	chSemSignalI
 269              	.LVL26:
 270              		.loc 1 155 0
 271 0044 FEFFFFEB 		bl	chSchRescheduleS
 272              	.LVL27:
 273              	.L10:
 274              	.LBE19:
 275              	.LBE18:
 276              		.loc 1 158 0
 277 0048 0500A0E1 		mov	r0, r5
 278 004c 7080BDE8 		pop	{r4, r5, r6, pc}
 279              		.cfi_endproc
 280              	.LFE10:
 281              		.size	chMBPostS, .-chMBPostS
 282              		.section	.text.chMBPostI,"ax",%progbits
 283              		.align	2
 284              		.global	chMBPostI
 285              		.syntax unified
ARM GAS  /var/folders/3j/4xdnk5197cv_b7cw3n33qk7r0000gn/T//ccOqb1Kq.s 			page 6


 286              		.arm
 287              		.fpu softvfp
 288              		.type	chMBPostI, %function
 289              	chMBPostI:
 290              	.LFB11:
 291              		.loc 1 174 0
 292              		.cfi_startproc
 293              		@ args = 0, pretend = 0, frame = 0
 294              		@ frame_needed = 0, uses_anonymous_args = 0
 295              	.LVL28:
 296              		.loc 1 179 0
 297 0000 243090E5 		ldr	r3, [r0, #36]
 298 0004 000053E3 		cmp	r3, #0
 299 0008 0E0000DA 		ble	.L17
 300              		.loc 1 182 0
 301 000c 082090E5 		ldr	r2, [r0, #8]
 302              		.loc 1 174 0
 303 0010 10402DE9 		push	{r4, lr}
 304              		.cfi_def_cfa_offset 8
 305              		.cfi_offset 4, -8
 306              		.cfi_offset 14, -4
 307              		.loc 1 183 0
 308 0014 04E090E5 		ldr	lr, [r0, #4]
 309              		.loc 1 182 0
 310 0018 04C082E2 		add	ip, r2, #4
 311              		.loc 1 181 0
 312 001c 013043E2 		sub	r3, r3, #1
 313              		.loc 1 183 0
 314 0020 0E005CE1 		cmp	ip, lr
 315              		.loc 1 181 0
 316 0024 243080E5 		str	r3, [r0, #36]
 317              		.loc 1 184 0
 318 0028 00309025 		ldrcs	r3, [r0]
 319              		.loc 1 182 0
 320 002c 08C080E5 		str	ip, [r0, #8]
 321 0030 001082E5 		str	r1, [r2]
 322              		.loc 1 185 0
 323 0034 100080E2 		add	r0, r0, #16
 324              	.LVL29:
 325              		.loc 1 184 0
 326 0038 08300025 		strcs	r3, [r0, #-8]
 327              		.loc 1 185 0
 328 003c FEFFFFEB 		bl	chSemSignalI
 329              	.LVL30:
 330              		.loc 1 186 0
 331 0040 0000A0E3 		mov	r0, #0
 332              		.loc 1 187 0
 333 0044 1080BDE8 		pop	{r4, pc}
 334              	.LVL31:
 335              	.L17:
 336              		.cfi_def_cfa_offset 0
 337              		.cfi_restore 4
 338              		.cfi_restore 14
 339              		.loc 1 180 0
 340 0048 0000E0E3 		mvn	r0, #0
 341              	.LVL32:
 342              		.loc 1 187 0
ARM GAS  /var/folders/3j/4xdnk5197cv_b7cw3n33qk7r0000gn/T//ccOqb1Kq.s 			page 7


 343 004c 1EFF2FE1 		bx	lr
 344              		.cfi_endproc
 345              	.LFE11:
 346              		.size	chMBPostI, .-chMBPostI
 347              		.section	.text.chMBPostAhead,"ax",%progbits
 348              		.align	2
 349              		.global	chMBPostAhead
 350              		.syntax unified
 351              		.arm
 352              		.fpu softvfp
 353              		.type	chMBPostAhead, %function
 354              	chMBPostAhead:
 355              	.LFB12:
 356              		.loc 1 208 0
 357              		.cfi_startproc
 358              		@ args = 0, pretend = 0, frame = 0
 359              		@ frame_needed = 0, uses_anonymous_args = 0
 360              	.LVL33:
 361 0000 70402DE9 		push	{r4, r5, r6, lr}
 362              		.cfi_def_cfa_offset 16
 363              		.cfi_offset 4, -16
 364              		.cfi_offset 5, -12
 365              		.cfi_offset 6, -8
 366              		.cfi_offset 14, -4
 367              		.loc 1 208 0
 368 0004 0040A0E1 		mov	r4, r0
 369 0008 0160A0E1 		mov	r6, r1
 370              		.loc 1 211 0
 371              		.syntax divided
 372              	@ 211 "..//os/kernel/src/chmboxes.c" 1
 373 000c 9FF021E3 		msr     CPSR_c, #0x9F
 374              	@ 0 "" 2
 375              	.LVL34:
 376              		.arm
 377              		.syntax unified
 378              	.LBB24:
 379              	.LBB25:
 380              		.loc 1 242 0
 381 0010 0210A0E1 		mov	r1, r2
 382              	.LVL35:
 383 0014 1C0080E2 		add	r0, r0, #28
 384              	.LVL36:
 385 0018 FEFFFFEB 		bl	chSemWaitTimeoutS
 386              	.LVL37:
 387              		.loc 1 243 0
 388 001c 005050E2 		subs	r5, r0, #0
 389 0020 0B00001A 		bne	.L23
 390              	.LVL38:
 391              	.LBB26:
 392              	.LBB27:
 393              		.loc 1 244 0
 394 0024 0C3094E5 		ldr	r3, [r4, #12]
 395 0028 002094E5 		ldr	r2, [r4]
 396 002c 043043E2 		sub	r3, r3, #4
 397 0030 020053E1 		cmp	r3, r2
 398 0034 0C3084E5 		str	r3, [r4, #12]
 399              		.loc 1 245 0
ARM GAS  /var/folders/3j/4xdnk5197cv_b7cw3n33qk7r0000gn/T//ccOqb1Kq.s 			page 8


 400 0038 04309435 		ldrcc	r3, [r4, #4]
 401              		.loc 1 247 0
 402 003c 100084E2 		add	r0, r4, #16
 403              	.LVL39:
 404              		.loc 1 245 0
 405 0040 04304332 		subcc	r3, r3, #4
 406 0044 0C308435 		strcc	r3, [r4, #12]
 407              		.loc 1 246 0
 408 0048 006083E5 		str	r6, [r3]
 409              		.loc 1 247 0
 410 004c FEFFFFEB 		bl	chSemSignalI
 411              	.LVL40:
 412              		.loc 1 248 0
 413 0050 FEFFFFEB 		bl	chSchRescheduleS
 414              	.LVL41:
 415              	.L23:
 416              	.LBE27:
 417              	.LBE26:
 418              	.LBE25:
 419              	.LBE24:
 420              		.loc 1 213 0
 421              		.syntax divided
 422              	@ 213 "..//os/kernel/src/chmboxes.c" 1
 423 0054 1FF021E3 		msr     CPSR_c, #0x1F
 424              	@ 0 "" 2
 425              		.loc 1 215 0
 426              		.arm
 427              		.syntax unified
 428 0058 0500A0E1 		mov	r0, r5
 429 005c 7080BDE8 		pop	{r4, r5, r6, pc}
 430              		.cfi_endproc
 431              	.LFE12:
 432              		.size	chMBPostAhead, .-chMBPostAhead
 433              		.section	.text.chMBPostAheadS,"ax",%progbits
 434              		.align	2
 435              		.global	chMBPostAheadS
 436              		.syntax unified
 437              		.arm
 438              		.fpu softvfp
 439              		.type	chMBPostAheadS, %function
 440              	chMBPostAheadS:
 441              	.LFB13:
 442              		.loc 1 236 0
 443              		.cfi_startproc
 444              		@ args = 0, pretend = 0, frame = 0
 445              		@ frame_needed = 0, uses_anonymous_args = 0
 446              	.LVL42:
 447 0000 70402DE9 		push	{r4, r5, r6, lr}
 448              		.cfi_def_cfa_offset 16
 449              		.cfi_offset 4, -16
 450              		.cfi_offset 5, -12
 451              		.cfi_offset 6, -8
 452              		.cfi_offset 14, -4
 453              		.loc 1 236 0
 454 0004 0040A0E1 		mov	r4, r0
 455 0008 0160A0E1 		mov	r6, r1
 456              		.loc 1 242 0
ARM GAS  /var/folders/3j/4xdnk5197cv_b7cw3n33qk7r0000gn/T//ccOqb1Kq.s 			page 9


 457 000c 1C0080E2 		add	r0, r0, #28
 458              	.LVL43:
 459 0010 0210A0E1 		mov	r1, r2
 460              	.LVL44:
 461 0014 FEFFFFEB 		bl	chSemWaitTimeoutS
 462              	.LVL45:
 463              		.loc 1 243 0
 464 0018 005050E2 		subs	r5, r0, #0
 465 001c 0B00001A 		bne	.L26
 466              	.LVL46:
 467              	.LBB30:
 468              	.LBB31:
 469              		.loc 1 244 0
 470 0020 0C3094E5 		ldr	r3, [r4, #12]
 471 0024 002094E5 		ldr	r2, [r4]
 472 0028 043043E2 		sub	r3, r3, #4
 473 002c 020053E1 		cmp	r3, r2
 474 0030 0C3084E5 		str	r3, [r4, #12]
 475              		.loc 1 245 0
 476 0034 04309435 		ldrcc	r3, [r4, #4]
 477              		.loc 1 247 0
 478 0038 100084E2 		add	r0, r4, #16
 479              	.LVL47:
 480              		.loc 1 245 0
 481 003c 04304332 		subcc	r3, r3, #4
 482 0040 0C308435 		strcc	r3, [r4, #12]
 483              		.loc 1 246 0
 484 0044 006083E5 		str	r6, [r3]
 485              		.loc 1 247 0
 486 0048 FEFFFFEB 		bl	chSemSignalI
 487              	.LVL48:
 488              		.loc 1 248 0
 489 004c FEFFFFEB 		bl	chSchRescheduleS
 490              	.LVL49:
 491              	.L26:
 492              	.LBE31:
 493              	.LBE30:
 494              		.loc 1 251 0
 495 0050 0500A0E1 		mov	r0, r5
 496 0054 7080BDE8 		pop	{r4, r5, r6, pc}
 497              		.cfi_endproc
 498              	.LFE13:
 499              		.size	chMBPostAheadS, .-chMBPostAheadS
 500              		.section	.text.chMBPostAheadI,"ax",%progbits
 501              		.align	2
 502              		.global	chMBPostAheadI
 503              		.syntax unified
 504              		.arm
 505              		.fpu softvfp
 506              		.type	chMBPostAheadI, %function
 507              	chMBPostAheadI:
 508              	.LFB14:
 509              		.loc 1 267 0
 510              		.cfi_startproc
 511              		@ args = 0, pretend = 0, frame = 0
 512              		@ frame_needed = 0, uses_anonymous_args = 0
 513              	.LVL50:
ARM GAS  /var/folders/3j/4xdnk5197cv_b7cw3n33qk7r0000gn/T//ccOqb1Kq.s 			page 10


 514              		.loc 1 272 0
 515 0000 242090E5 		ldr	r2, [r0, #36]
 516 0004 000052E3 		cmp	r2, #0
 517 0008 0F0000DA 		ble	.L33
 518              		.loc 1 275 0
 519 000c 0C3090E5 		ldr	r3, [r0, #12]
 520 0010 00C090E5 		ldr	ip, [r0]
 521 0014 043043E2 		sub	r3, r3, #4
 522 0018 0C0053E1 		cmp	r3, ip
 523              		.loc 1 267 0
 524 001c 10402DE9 		push	{r4, lr}
 525              		.cfi_def_cfa_offset 8
 526              		.cfi_offset 4, -8
 527              		.cfi_offset 14, -4
 528              		.loc 1 275 0
 529 0020 0C3080E5 		str	r3, [r0, #12]
 530              		.loc 1 276 0
 531 0024 04309035 		ldrcc	r3, [r0, #4]
 532              		.loc 1 274 0
 533 0028 012042E2 		sub	r2, r2, #1
 534              		.loc 1 276 0
 535 002c 04304332 		subcc	r3, r3, #4
 536              		.loc 1 274 0
 537 0030 242080E5 		str	r2, [r0, #36]
 538              		.loc 1 276 0
 539 0034 0C308035 		strcc	r3, [r0, #12]
 540              		.loc 1 277 0
 541 0038 001083E5 		str	r1, [r3]
 542              		.loc 1 278 0
 543 003c 100080E2 		add	r0, r0, #16
 544              	.LVL51:
 545 0040 FEFFFFEB 		bl	chSemSignalI
 546              	.LVL52:
 547              		.loc 1 279 0
 548 0044 0000A0E3 		mov	r0, #0
 549              		.loc 1 280 0
 550 0048 1080BDE8 		pop	{r4, pc}
 551              	.LVL53:
 552              	.L33:
 553              		.cfi_def_cfa_offset 0
 554              		.cfi_restore 4
 555              		.cfi_restore 14
 556              		.loc 1 273 0
 557 004c 0000E0E3 		mvn	r0, #0
 558              	.LVL54:
 559              		.loc 1 280 0
 560 0050 1EFF2FE1 		bx	lr
 561              		.cfi_endproc
 562              	.LFE14:
 563              		.size	chMBPostAheadI, .-chMBPostAheadI
 564              		.section	.text.chMBFetch,"ax",%progbits
 565              		.align	2
 566              		.global	chMBFetch
 567              		.syntax unified
 568              		.arm
 569              		.fpu softvfp
 570              		.type	chMBFetch, %function
ARM GAS  /var/folders/3j/4xdnk5197cv_b7cw3n33qk7r0000gn/T//ccOqb1Kq.s 			page 11


 571              	chMBFetch:
 572              	.LFB15:
 573              		.loc 1 301 0
 574              		.cfi_startproc
 575              		@ args = 0, pretend = 0, frame = 0
 576              		@ frame_needed = 0, uses_anonymous_args = 0
 577              	.LVL55:
 578 0000 70402DE9 		push	{r4, r5, r6, lr}
 579              		.cfi_def_cfa_offset 16
 580              		.cfi_offset 4, -16
 581              		.cfi_offset 5, -12
 582              		.cfi_offset 6, -8
 583              		.cfi_offset 14, -4
 584              		.loc 1 301 0
 585 0004 0040A0E1 		mov	r4, r0
 586 0008 0160A0E1 		mov	r6, r1
 587              		.loc 1 304 0
 588              		.syntax divided
 589              	@ 304 "..//os/kernel/src/chmboxes.c" 1
 590 000c 9FF021E3 		msr     CPSR_c, #0x9F
 591              	@ 0 "" 2
 592              	.LVL56:
 593              		.arm
 594              		.syntax unified
 595              	.LBB36:
 596              	.LBB37:
 597              		.loc 1 335 0
 598 0010 0210A0E1 		mov	r1, r2
 599              	.LVL57:
 600 0014 100080E2 		add	r0, r0, #16
 601              	.LVL58:
 602 0018 FEFFFFEB 		bl	chSemWaitTimeoutS
 603              	.LVL59:
 604              		.loc 1 336 0
 605 001c 005050E2 		subs	r5, r0, #0
 606 0020 0B00001A 		bne	.L39
 607              	.LVL60:
 608              	.LBB38:
 609              	.LBB39:
 610              		.loc 1 337 0
 611 0024 0C2094E5 		ldr	r2, [r4, #12]
 612              		.loc 1 338 0
 613 0028 041094E5 		ldr	r1, [r4, #4]
 614              		.loc 1 337 0
 615 002c 043082E2 		add	r3, r2, #4
 616              		.loc 1 338 0
 617 0030 010053E1 		cmp	r3, r1
 618              		.loc 1 337 0
 619 0034 002092E5 		ldr	r2, [r2]
 620 0038 0C3084E5 		str	r3, [r4, #12]
 621              		.loc 1 339 0
 622 003c 00309425 		ldrcs	r3, [r4]
 623              		.loc 1 337 0
 624 0040 002086E5 		str	r2, [r6]
 625              		.loc 1 340 0
 626 0044 1C0084E2 		add	r0, r4, #28
 627              	.LVL61:
ARM GAS  /var/folders/3j/4xdnk5197cv_b7cw3n33qk7r0000gn/T//ccOqb1Kq.s 			page 12


 628              		.loc 1 339 0
 629 0048 0C308425 		strcs	r3, [r4, #12]
 630              		.loc 1 340 0
 631 004c FEFFFFEB 		bl	chSemSignalI
 632              	.LVL62:
 633              		.loc 1 341 0
 634 0050 FEFFFFEB 		bl	chSchRescheduleS
 635              	.LVL63:
 636              	.L39:
 637              	.LBE39:
 638              	.LBE38:
 639              	.LBE37:
 640              	.LBE36:
 641              		.loc 1 306 0
 642              		.syntax divided
 643              	@ 306 "..//os/kernel/src/chmboxes.c" 1
 644 0054 1FF021E3 		msr     CPSR_c, #0x1F
 645              	@ 0 "" 2
 646              		.loc 1 308 0
 647              		.arm
 648              		.syntax unified
 649 0058 0500A0E1 		mov	r0, r5
 650 005c 7080BDE8 		pop	{r4, r5, r6, pc}
 651              		.cfi_endproc
 652              	.LFE15:
 653              		.size	chMBFetch, .-chMBFetch
 654              		.section	.text.chMBFetchS,"ax",%progbits
 655              		.align	2
 656              		.global	chMBFetchS
 657              		.syntax unified
 658              		.arm
 659              		.fpu softvfp
 660              		.type	chMBFetchS, %function
 661              	chMBFetchS:
 662              	.LFB16:
 663              		.loc 1 329 0
 664              		.cfi_startproc
 665              		@ args = 0, pretend = 0, frame = 0
 666              		@ frame_needed = 0, uses_anonymous_args = 0
 667              	.LVL64:
 668 0000 70402DE9 		push	{r4, r5, r6, lr}
 669              		.cfi_def_cfa_offset 16
 670              		.cfi_offset 4, -16
 671              		.cfi_offset 5, -12
 672              		.cfi_offset 6, -8
 673              		.cfi_offset 14, -4
 674              		.loc 1 329 0
 675 0004 0040A0E1 		mov	r4, r0
 676 0008 0160A0E1 		mov	r6, r1
 677              		.loc 1 335 0
 678 000c 100080E2 		add	r0, r0, #16
 679              	.LVL65:
 680 0010 0210A0E1 		mov	r1, r2
 681              	.LVL66:
 682 0014 FEFFFFEB 		bl	chSemWaitTimeoutS
 683              	.LVL67:
 684              		.loc 1 336 0
ARM GAS  /var/folders/3j/4xdnk5197cv_b7cw3n33qk7r0000gn/T//ccOqb1Kq.s 			page 13


 685 0018 005050E2 		subs	r5, r0, #0
 686 001c 0B00001A 		bne	.L42
 687              	.LVL68:
 688              	.LBB42:
 689              	.LBB43:
 690              		.loc 1 337 0
 691 0020 0C2094E5 		ldr	r2, [r4, #12]
 692              		.loc 1 338 0
 693 0024 041094E5 		ldr	r1, [r4, #4]
 694              		.loc 1 337 0
 695 0028 043082E2 		add	r3, r2, #4
 696              		.loc 1 338 0
 697 002c 010053E1 		cmp	r3, r1
 698              		.loc 1 337 0
 699 0030 002092E5 		ldr	r2, [r2]
 700 0034 0C3084E5 		str	r3, [r4, #12]
 701              		.loc 1 339 0
 702 0038 00309425 		ldrcs	r3, [r4]
 703              		.loc 1 337 0
 704 003c 002086E5 		str	r2, [r6]
 705              		.loc 1 340 0
 706 0040 1C0084E2 		add	r0, r4, #28
 707              	.LVL69:
 708              		.loc 1 339 0
 709 0044 0C308425 		strcs	r3, [r4, #12]
 710              		.loc 1 340 0
 711 0048 FEFFFFEB 		bl	chSemSignalI
 712              	.LVL70:
 713              		.loc 1 341 0
 714 004c FEFFFFEB 		bl	chSchRescheduleS
 715              	.LVL71:
 716              	.L42:
 717              	.LBE43:
 718              	.LBE42:
 719              		.loc 1 344 0
 720 0050 0500A0E1 		mov	r0, r5
 721 0054 7080BDE8 		pop	{r4, r5, r6, pc}
 722              		.cfi_endproc
 723              	.LFE16:
 724              		.size	chMBFetchS, .-chMBFetchS
 725              		.section	.text.chMBFetchI,"ax",%progbits
 726              		.align	2
 727              		.global	chMBFetchI
 728              		.syntax unified
 729              		.arm
 730              		.fpu softvfp
 731              		.type	chMBFetchI, %function
 732              	chMBFetchI:
 733              	.LFB17:
 734              		.loc 1 360 0
 735              		.cfi_startproc
 736              		@ args = 0, pretend = 0, frame = 0
 737              		@ frame_needed = 0, uses_anonymous_args = 0
 738              	.LVL72:
 739              		.loc 1 365 0
 740 0000 183090E5 		ldr	r3, [r0, #24]
 741 0004 000053E3 		cmp	r3, #0
ARM GAS  /var/folders/3j/4xdnk5197cv_b7cw3n33qk7r0000gn/T//ccOqb1Kq.s 			page 14


 742 0008 0F0000DA 		ble	.L49
 743              		.loc 1 367 0
 744 000c 012043E2 		sub	r2, r3, #1
 745              		.loc 1 368 0
 746 0010 0C3090E5 		ldr	r3, [r0, #12]
 747              		.loc 1 369 0
 748 0014 04C090E5 		ldr	ip, [r0, #4]
 749              		.loc 1 360 0
 750 0018 10402DE9 		push	{r4, lr}
 751              		.cfi_def_cfa_offset 8
 752              		.cfi_offset 4, -8
 753              		.cfi_offset 14, -4
 754              		.loc 1 367 0
 755 001c 182080E5 		str	r2, [r0, #24]
 756              		.loc 1 368 0
 757 0020 002093E5 		ldr	r2, [r3]
 758 0024 043083E2 		add	r3, r3, #4
 759              		.loc 1 369 0
 760 0028 0C0053E1 		cmp	r3, ip
 761              		.loc 1 368 0
 762 002c 0C3080E5 		str	r3, [r0, #12]
 763              		.loc 1 370 0
 764 0030 00309025 		ldrcs	r3, [r0]
 765              		.loc 1 368 0
 766 0034 002081E5 		str	r2, [r1]
 767              		.loc 1 371 0
 768 0038 1C0080E2 		add	r0, r0, #28
 769              	.LVL73:
 770              		.loc 1 370 0
 771 003c 10300025 		strcs	r3, [r0, #-16]
 772              		.loc 1 371 0
 773 0040 FEFFFFEB 		bl	chSemSignalI
 774              	.LVL74:
 775              		.loc 1 372 0
 776 0044 0000A0E3 		mov	r0, #0
 777              		.loc 1 373 0
 778 0048 1080BDE8 		pop	{r4, pc}
 779              	.LVL75:
 780              	.L49:
 781              		.cfi_def_cfa_offset 0
 782              		.cfi_restore 4
 783              		.cfi_restore 14
 784              		.loc 1 366 0
 785 004c 0000E0E3 		mvn	r0, #0
 786              	.LVL76:
 787              		.loc 1 373 0
 788 0050 1EFF2FE1 		bx	lr
 789              		.cfi_endproc
 790              	.LFE17:
 791              		.size	chMBFetchI, .-chMBFetchI
 792              		.text
 793              	.Letext0:
 794              		.file 2 "/usr/local/Cellar/gcc-arm-none-eabi/20180627/arm-none-eabi/include/machine/_default_types
 795              		.file 3 "/usr/local/Cellar/gcc-arm-none-eabi/20180627/arm-none-eabi/include/sys/_stdint.h"
 796              		.file 4 "..//os/ports/GCC/ARM/chtypes.h"
 797              		.file 5 "..//os/kernel/include/chlists.h"
 798              		.file 6 "..//os/kernel/include/chthreads.h"
ARM GAS  /var/folders/3j/4xdnk5197cv_b7cw3n33qk7r0000gn/T//ccOqb1Kq.s 			page 15


 799              		.file 7 "..//os/ports/GCC/ARM/chcore.h"
 800              		.file 8 "..//os/kernel/include/chvt.h"
 801              		.file 9 "..//os/kernel/include/chschd.h"
 802              		.file 10 "..//os/kernel/include/chsem.h"
 803              		.file 11 "..//os/kernel/include/chmtx.h"
 804              		.file 12 "..//os/kernel/include/chmboxes.h"
 805              		.file 13 "..//os/kernel/include/chregistry.h"
 806              		.file 14 "..//os/kernel/include/ch.h"