ARM GAS  /var/folders/3j/4xdnk5197cv_b7cw3n33qk7r0000gn/T//ccOqb1Kq.s 			page 1


   1              		.cpu arm1176jz-s
   2              		.eabi_attribute 20, 1
   3              		.eabi_attribute 21, 1
   4              		.eabi_attribute 23, 3
   5              		.eabi_attribute 24, 1
   6              		.eabi_attribute 25, 1
   7              		.eabi_attribute 26, 1
   8              		.eabi_attribute 30, 2
   9              		.eabi_attribute 34, 1
  10              		.eabi_attribute 18, 4
  11              		.file	"chmboxes.c"
  12              		.text
  13              	.Ltext0:
  14              		.cfi_sections	.debug_frame
  15              		.section	.text.chMBInit,"ax",%progbits
  16              		.align	2
  17              		.global	chMBInit
  18              		.syntax unified
  19              		.arm
  20              		.fpu softvfp
  21              		.type	chMBInit, %function
  22              	chMBInit:
  23              	.LFB7:
  24              		.file 1 "..//os/kernel/src/chmboxes.c"
  25              		.loc 1 65 0
  26              		.cfi_startproc
  27              		@ args = 0, pretend = 0, frame = 0
  28              		@ frame_needed = 0, uses_anonymous_args = 0
  29              	.LVL0:
  30 0000 0130A0E1 		mov	r3, r1
  31 0004 10402DE9 		push	{r4, lr}
  32              		.cfi_def_cfa_offset 8
  33              		.cfi_offset 4, -8
  34              		.cfi_offset 14, -4
  35              		.loc 1 65 0
  36 0008 0040A0E1 		mov	r4, r0
  37              		.loc 1 70 0
  38 000c 021181E0 		add	r1, r1, r2, lsl #2
  39              	.LVL1:
  40 0010 041080E5 		str	r1, [r0, #4]
  41              		.loc 1 69 0
  42 0014 0C3080E5 		str	r3, [r0, #12]
  43 0018 083080E5 		str	r3, [r0, #8]
  44 001c 003080E5 		str	r3, [r0]
  45              		.loc 1 71 0
  46 0020 0210A0E1 		mov	r1, r2
  47 0024 1C0080E2 		add	r0, r0, #28
  48              	.LVL2:
  49 0028 FEFFFFEB 		bl	chSemInit
  50              	.LVL3:
  51              		.loc 1 72 0
  52 002c 100084E2 		add	r0, r4, #16
  53 0030 0010A0E3 		mov	r1, #0
  54              		.loc 1 73 0
  55 0034 1040BDE8 		pop	{r4, lr}
  56              		.cfi_restore 14
  57              		.cfi_restore 4
ARM GAS  /var/folders/3j/4xdnk5197cv_b7cw3n33qk7r0000gn/T//ccOqb1Kq.s 			page 2


  58              		.cfi_def_cfa_offset 0
  59              	.LVL4:
  60              		.loc 1 72 0
  61 0038 FEFFFFEA 		b	chSemInit
  62              	.LVL5:
  63              		.cfi_endproc
  64              	.LFE7:
  65              		.size	chMBInit, .-chMBInit
  66              		.section	.text.chMBReset,"ax",%progbits
  67              		.align	2
  68              		.global	chMBReset
  69              		.syntax unified
  70              		.arm
  71              		.fpu softvfp
  72              		.type	chMBReset, %function
  73              	chMBReset:
  74              	.LFB8:
  75              		.loc 1 84 0
  76              		.cfi_startproc
  77              		@ args = 0, pretend = 0, frame = 0
  78              		@ frame_needed = 0, uses_anonymous_args = 0
  79              	.LVL6:
  80 0000 10402DE9 		push	{r4, lr}
  81              		.cfi_def_cfa_offset 8
  82              		.cfi_offset 4, -8
  83              		.cfi_offset 14, -4
  84              		.loc 1 84 0
  85 0004 0040A0E1 		mov	r4, r0
  86              		.loc 1 88 0
  87              		.syntax divided
  88              	@ 88 "..//os/kernel/src/chmboxes.c" 1
  89 0008 9FF021E3 		msr     CPSR_c, #0x9F
  90              	@ 0 "" 2
  91              		.loc 1 89 0
  92              		.arm
  93              		.syntax unified
  94 000c 003090E5 		ldr	r3, [r0]
  95              		.loc 1 90 0
  96 0010 041090E5 		ldr	r1, [r0, #4]
  97              		.loc 1 89 0
  98 0014 0C3080E5 		str	r3, [r0, #12]
  99              		.loc 1 90 0
 100 0018 031041E0 		sub	r1, r1, r3
 101              		.loc 1 89 0
 102 001c 083080E5 		str	r3, [r0, #8]
 103              		.loc 1 90 0
 104 0020 4111A0E1 		asr	r1, r1, #2
 105 0024 1C0080E2 		add	r0, r0, #28
 106              	.LVL7:
 107 0028 FEFFFFEB 		bl	chSemResetI
 108              	.LVL8:
 109              		.loc 1 91 0
 110 002c 100084E2 		add	r0, r4, #16
 111 0030 0010A0E3 		mov	r1, #0
 112 0034 FEFFFFEB 		bl	chSemResetI
 113              	.LVL9:
 114              		.loc 1 92 0
ARM GAS  /var/folders/3j/4xdnk5197cv_b7cw3n33qk7r0000gn/T//ccOqb1Kq.s 			page 3


 115 0038 FEFFFFEB 		bl	chSchRescheduleS
 116              	.LVL10:
 117              		.loc 1 93 0
 118              		.syntax divided
 119              	@ 93 "..//os/kernel/src/chmboxes.c" 1
 120 003c 1FF021E3 		msr     CPSR_c, #0x1F
 121              	@ 0 "" 2
 122              		.loc 1 94 0
 123              		.arm
 124              		.syntax unified
 125 0040 1080BDE8 		pop	{r4, pc}
 126              		.cfi_endproc
 127              	.LFE8:
 128              		.size	chMBReset, .-chMBReset
 129              		.section	.text.chMBPost,"ax",%progbits
 130              		.align	2
 131              		.global	chMBPost
 132              		.syntax unified
 133              		.arm
 134              		.fpu softvfp
 135              		.type	chMBPost, %function
 136              	chMBPost:
 137              	.LFB9:
 138              		.loc 1 115 0
 139              		.cfi_startproc
 140              		@ args = 0, pretend = 0, frame = 0
 141              		@ frame_needed = 0, uses_anonymous_args = 0
 142              	.LVL11:
 143 0000 70402DE9 		push	{r4, r5, r6, lr}
 144              		.cfi_def_cfa_offset 16
 145              		.cfi_offset 4, -16
 146              		.cfi_offset 5, -12
 147              		.cfi_offset 6, -8
 148              		.cfi_offset 14, -4
 149              		.loc 1 115 0
 150 0004 0040A0E1 		mov	r4, r0
 151 0008 0160A0E1 		mov	r6, r1
 152              		.loc 1 118 0
 153              		.syntax divided
 154              	@ 118 "..//os/kernel/src/chmboxes.c" 1
 155 000c 9FF021E3 		msr     CPSR_c, #0x9F
 156              	@ 0 "" 2
 157              	.LVL12:
 158              		.arm
 159              		.syntax unified
 160              	.LBB12:
 161              	.LBB13:
 162              		.loc 1 149 0
 163 0010 0210A0E1 		mov	r1, r2
 164              	.LVL13:
 165 0014 1C0080E2 		add	r0, r0, #28
 166              	.LVL14:
 167 0018 FEFFFFEB 		bl	chSemWaitTimeoutS
 168              	.LVL15:
 169              		.loc 1 150 0
 170 001c 005050E2 		subs	r5, r0, #0
 171 0020 0900001A 		bne	.L7
ARM GAS  /var/folders/3j/4xdnk5197cv_b7cw3n33qk7r0000gn/T//ccOqb1Kq.s 			page 4


 172              	.LVL16:
 173              	.LBB14:
 174              	.LBB15:
 175              		.loc 1 152 0
 176 0024 0A0094E9 		ldmib	r4, {r1, r3}
 177              		.loc 1 151 0
 178 0028 042083E2 		add	r2, r3, #4
 179              		.loc 1 152 0
 180 002c 010052E1 		cmp	r2, r1
 181              		.loc 1 151 0
 182 0030 082084E5 		str	r2, [r4, #8]
 183 0034 006083E5 		str	r6, [r3]
 184              		.loc 1 153 0
 185 0038 00309425 		ldrcs	r3, [r4]
 186              		.loc 1 154 0
 187 003c 100084E2 		add	r0, r4, #16
 188              	.LVL17:
 189              		.loc 1 153 0
 190 0040 08308425 		strcs	r3, [r4, #8]
 191              		.loc 1 154 0
 192 0044 FEFFFFEB 		bl	chSemSignalI
 193              	.LVL18:
 194              		.loc 1 155 0
 195 0048 FEFFFFEB 		bl	chSchRescheduleS
 196              	.LVL19:
 197              	.L7:
 198              	.LBE15:
 199              	.LBE14:
 200              	.LBE13:
 201              	.LBE12:
 202              		.loc 1 120 0
 203              		.syntax divided
 204              	@ 120 "..//os/kernel/src/chmboxes.c" 1
 205 004c 1FF021E3 		msr     CPSR_c, #0x1F
 206              	@ 0 "" 2
 207              		.loc 1 122 0
 208              		.arm
 209              		.syntax unified
 210 0050 0500A0E1 		mov	r0, r5
 211 0054 7080BDE8 		pop	{r4, r5, r6, pc}
 212              		.cfi_endproc
 213              	.LFE9:
 214              		.size	chMBPost, .-chMBPost
 215              		.section	.text.chMBPostS,"ax",%progbits
 216              		.align	2
 217              		.global	chMBPostS
 218              		.syntax unified
 219              		.arm
 220              		.fpu softvfp
 221              		.type	chMBPostS, %function
 222              	chMBPostS:
 223              	.LFB10:
 224              		.loc 1 143 0
 225              		.cfi_startproc
 226              		@ args = 0, pretend = 0, frame = 0
 227              		@ frame_needed = 0, uses_anonymous_args = 0
 228              	.LVL20:
ARM GAS  /var/folders/3j/4xdnk5197cv_b7cw3n33qk7r0000gn/T//ccOqb1Kq.s 			page 5


 229 0000 70402DE9 		push	{r4, r5, r6, lr}
 230              		.cfi_def_cfa_offset 16
 231              		.cfi_offset 4, -16
 232              		.cfi_offset 5, -12
 233              		.cfi_offset 6, -8
 234              		.cfi_offset 14, -4
 235              		.loc 1 143 0
 236 0004 0040A0E1 		mov	r4, r0
 237 0008 0160A0E1 		mov	r6, r1
 238              		.loc 1 149 0
 239 000c 1C0080E2 		add	r0, r0, #28
 240              	.LVL21:
 241 0010 0210A0E1 		mov	r1, r2
 242              	.LVL22:
 243 0014 FEFFFFEB 		bl	chSemWaitTimeoutS
 244              	.LVL23:
 245              		.loc 1 150 0
 246 0018 005050E2 		subs	r5, r0, #0
 247 001c 0900001A 		bne	.L10
 248              	.LVL24:
 249              	.LBB18:
 250              	.LBB19:
 251              		.loc 1 152 0
 252 0020 0A0094E9 		ldmib	r4, {r1, r3}
 253              		.loc 1 151 0
 254 0024 042083E2 		add	r2, r3, #4
 255              		.loc 1 152 0
 256 0028 010052E1 		cmp	r2, r1
 257              		.loc 1 151 0
 258 002c 082084E5 		str	r2, [r4, #8]
 259 0030 006083E5 		str	r6, [r3]
 260              		.loc 1 153 0
 261 0034 00309425 		ldrcs	r3, [r4]
 262              		.loc 1 154 0
 263 0038 100084E2 		add	r0, r4, #16
 264              	.LVL25:
 265              		.loc 1 153 0
 266 003c 08308425 		strcs	r3, [r4, #8]
 267              		.loc 1 154 0
 268 0040 FEFFFFEB 		bl	chSemSignalI
 269              	.LVL26:
 270              		.loc 1 155 0
 271 0044 FEFFFFEB 		bl	chSchRescheduleS
 272              	.LVL27:
 273              	.L10:
 274              	.LBE19:
 275              	.LBE18:
 276              		.loc 1 158 0
 277 0048 0500A0E1 		mov	r0, r5
 278 004c 7080BDE8 		pop	{r4, r5, r6, pc}
 279              		.cfi_endproc
 280              	.LFE10:
 281              		.size	chMBPostS, .-chMBPostS
 282              		.section	.text.chMBPostI,"ax",%progbits
 283              		.align	2
 284              		.global	chMBPostI
 285              		.syntax unified
ARM GAS  /var/folders/3j/4xdnk5197cv_b7cw3n33qk7r0000gn/T//ccOqb1Kq.s 			page 6


 286              		.arm
 287              		.fpu softvfp
 288              		.type	chMBPostI, %function
 289              	chMBPostI:
 290              	.LFB11:
 291              		.loc 1 174 0
 292              		.cfi_startproc
 293              		@ args = 0, pretend = 0, frame = 0
 294              		@ frame_needed = 0, uses_anonymous_args = 0
 295              	.LVL28:
 296              		.loc 1 179 0
 297 0000 243090E5 		ldr	r3, [r0, #36]
 298 0004 000053E3 		cmp	r3, #0
 299 0008 0E0000DA 		ble	.L17
 300              		.loc 1 182 0
 301 000c 082090E5 		ldr	r2, [r0, #8]
 302              		.loc 1 174 0
 303 0010 10402DE9 		push	{r4, lr}
 304              		.cfi_def_cfa_offset 8
 305              		.cfi_offset 4, -8
 306              		.cfi_offset 14, -4
 307              		.loc 1 183 0
 308 0014 04E090E5 		ldr	lr, [r0, #4]
 309              		.loc 1 182 0
 310 0018 04C082E2 		add	ip, r2, #4
 311              		.loc 1 181 0
 312 001c 013043E2 		sub	r3, r3, #1
 313              		.loc 1 183 0
 314 0020 0E005CE1 		cmp	ip, lr
 315              		.loc 1 181 0
 316 0024 243080E5 		str	r3, [r0, #36]
 317              		.loc 1 184 0
 318 0028 00309025 		ldrcs	r3, [r0]
 319              		.loc 1 182 0
 320 002c 08C080E5 		str	ip, [r0, #8]
 321 0030 001082E5 		str	r1, [r2]
 322              		.loc 1 185 0
 323 0034 100080E2 		add	r0, r0, #16
 324              	.LVL29:
 325              		.loc 1 184 0
 326 0038 08300025 		strcs	r3, [r0, #-8]
 327              		.loc 1 185 0
 328 003c FEFFFFEB 		bl	chSemSignalI
 329              	.LVL30:
 330              		.loc 1 186 0
 331 0040 0000A0E3 		mov	r0, #0
 332              		.loc 1 187 0
 333 0044 1080BDE8 		pop	{r4, pc}
 334              	.LVL31:
 335              	.L17:
 336              		.cfi_def_cfa_offset 0
 337              		.cfi_restore 4
 338              		.cfi_restore 14
 339              		.loc 1 180 0
 340 0048 0000E0E3 		mvn	r0, #0
 341              	.LVL32:
 342              		.loc 1 187 0
ARM GAS  /var/folders/3j/4xdnk5197cv_b7cw3n33qk7r0000gn/T//ccOqb1Kq.s 			page 7


 343 004c 1EFF2FE1 		bx	lr
 344              		.cfi_endproc
 345              	.LFE11:
 346              		.size	chMBPostI, .-chMBPostI
 347              		.section	.text.chMBPostAhead,"ax",%progbits
 348              		.align	2
 349              		.global	chMBPostAhead
 350              		.syntax unified
 351              		.arm
 352              		.fpu softvfp
 353              		.type	chMBPostAhead, %function
 354              	chMBPostAhead:
 355              	.LFB12:
 356              		.loc 1 208 0
 357              		.cfi_startproc
 358              		@ args = 0, pretend = 0, frame = 0
 359              		@ frame_needed = 0, uses_anonymous_args = 0
 360              	.LVL33:
 361 0000 70402DE9 		push	{r4, r5, r6, lr}
 362              		.cfi_def_cfa_offset 16
 363              		.cfi_offset 4, -16
 364              		.cfi_offset 5, -12
 365              		.cfi_offset 6, -8
 366              		.cfi_offset 14, -4
 367              		.loc 1 208 0
 368 0004 0040A0E1 		mov	r4, r0
 369 0008 0160A0E1 		mov	r6, r1
 370              		.loc 1 211 0
 371              		.syntax divided
 372              	@ 211 "..//os/kernel/src/chmboxes.c" 1
 373 000c 9FF021E3 		msr     CPSR_c, #0x9F
 374              	@ 0 "" 2
 375              	.LVL34:
 376              		.arm
 377              		.syntax unified
 378              	.LBB24:
 379              	.LBB25:
 380              		.loc 1 242 0
 381 0010 0210A0E1 		mov	r1, r2
 382              	.LVL35:
 383 0014 1C0080E2 		add	r0, r0, #28
 384              	.LVL36:
 385 0018 FEFFFFEB 		bl	chSemWaitTimeoutS
 386              	.LVL37:
 387              		.loc 1 243 0
 388 001c 005050E2 		subs	r5, r0, #0
 389 0020 0B00001A 		bne	.L23
 390              	.LVL38:
 391              	.LBB26:
 392              	.LBB27:
 393              		.loc 1 244 0
 394 0024 0C3094E5 		ldr	r3, [r4, #12]
 395 0028 002094E5 		ldr	r2, [r4]
 396 002c 043043E2 		sub	r3, r3, #4
 397 0030 020053E1 		cmp	r3, r2
 398 0034 0C3084E5 		str	r3, [r4, #12]
 399              		.loc 1 245 0
ARM GAS  /var/folders/3j/4xdnk5197cv_b7cw3n33qk7r0000gn/T//ccOqb1Kq.s 			page 8


 400 0038 04309435 		ldrcc	r3, [r4, #4]
 401              		.loc 1 247 0
 402 003c 100084E2 		add	r0, r4, #16
 403              	.LVL39:
 404              		.loc 1 245 0
 405 0040 04304332 		subcc	r3, r3, #4
 406 0044 0C308435 		strcc	r3, [r4, #12]
 407              		.loc 1 246 0
 408 0048 006083E5 		str	r6, [r3]
 409              		.loc 1 247 0
 410 004c FEFFFFEB 		bl	chSemSignalI
 411              	.LVL40:
 412              		.loc 1 248 0
 413 0050 FEFFFFEB 		bl	chSchRescheduleS
 414              	.LVL41:
 415              	.L23:
 416              	.LBE27:
 417              	.LBE26:
 418              	.LBE25:
 419              	.LBE24:
 420              		.loc 1 213 0
 421              		.syntax divided
 422              	@ 213 "..//os/kernel/src/chmboxes.c" 1
 423 0054 1FF021E3 		msr     CPSR_c, #0x1F
 424              	@ 0 "" 2
 425              		.loc 1 215 0
 426              		.arm
 427              		.syntax unified
 428 0058 0500A0E1 		mov	r0, r5
 429 005c 7080BDE8 		pop	{r4, r5, r6, pc}
 430              		.cfi_endproc
 431              	.LFE12:
 432              		.size	chMBPostAhead, .-chMBPostAhead
 433              		.section	.text.chMBPostAheadS,"ax",%progbits
 434              		.align	2
 435              		.global	chMBPostAheadS
 436              		.syntax unified
 437              		.arm
 438              		.fpu softvfp
 439              		.type	chMBPostAheadS, %function
 440              	chMBPostAheadS:
 441              	.LFB13:
 442              		.loc 1 236 0
 443              		.cfi_startproc
 444              		@ args = 0, pretend = 0, frame = 0
 445              		@ frame_needed = 0, uses_anonymous_args = 0
 446              	.LVL42:
 447 0000 70402DE9 		push	{r4, r5, r6, lr}
 448              		.cfi_def_cfa_offset 16
 449              		.cfi_offset 4, -16
 450              		.cfi_offset 5, -12
 451              		.cfi_offset 6, -8
 452              		.cfi_offset 14, -4
 453              		.loc 1 236 0
 454 0004 0040A0E1 		mov	r4, r0
 455 0008 0160A0E1 		mov	r6, r1
 456              		.loc 1 242 0
ARM GAS  /var/folders/3j/4xdnk5197cv_b7cw3n33qk7r0000gn/T//ccOqb1Kq.s 			page 9


 457 000c 1C0080E2 		add	r0, r0, #28
 458              	.LVL43:
 459 0010 0210A0E1 		mov	r1, r2
 460              	.LVL44:
 461 0014 FEFFFFEB 		bl	chSemWaitTimeoutS
 462              	.LVL45:
 463              		.loc 1 243 0
 464 0018 005050E2 		subs	r5, r0, #0
 465 001c 0B00001A 		bne	.L26
 466              	.LVL46:
 467              	.LBB30:
 468              	.LBB31:
 469              		.loc 1 244 0
 470 0020 0C3094E5 		ldr	r3, [r4, #12]
 471 0024 002094E5 		ldr	r2, [r4]
 472 0028 043043E2 		sub	r3, r3, #4
 473 002c 020053E1 		cmp	r3, r2
 474 0030 0C3084E5 		str	r3, [r4, #12]
 475              		.loc 1 245 0
 476 0034 04309435 		ldrcc	r3, [r4, #4]
 477              		.loc 1 247 0
 478 0038 100084E2 		add	r0, r4, #16
 479              	.LVL47:
 480              		.loc 1 245 0
 481 003c 04304332 		subcc	r3, r3, #4
 482 0040 0C308435 		strcc	r3, [r4, #12]
 483              		.loc 1 246 0
 484 0044 006083E5 		str	r6, [r3]
 485              		.loc 1 247 0
 486 0048 FEFFFFEB 		bl	chSemSignalI
 487              	.LVL48:
 488              		.loc 1 248 0
 489 004c FEFFFFEB 		bl	chSchRescheduleS
 490              	.LVL49:
 491              	.L26:
 492              	.LBE31:
 493              	.LBE30:
 494              		.loc 1 251 0
 495 0050 0500A0E1 		mov	r0, r5
 496 0054 7080BDE8 		pop	{r4, r5, r6, pc}
 497              		.cfi_endproc
 498              	.LFE13:
 499              		.size	chMBPostAheadS, .-chMBPostAheadS
 500              		.section	.text.chMBPostAheadI,"ax",%progbits
 501              		.align	2
 502              		.global	chMBPostAheadI
 503              		.syntax unified
 504              		.arm
 505              		.fpu softvfp
 506              		.type	chMBPostAheadI, %function
 507              	chMBPostAheadI:
 508              	.LFB14:
 509              		.loc 1 267 0
 510              		.cfi_startproc
 511              		@ args = 0, pretend = 0, frame = 0
 512              		@ frame_needed = 0, uses_anonymous_args = 0
 513              	.LVL50:
ARM GAS  /var/folders/3j/4xdnk5197cv_b7cw3n33qk7r0000gn/T//ccOqb1Kq.s 			page 10


 514              		.loc 1 272 0
 515 0000 242090E5 		ldr	r2, [r0, #36]
 516 0004 000052E3 		cmp	r2, #0
 517 0008 0F0000DA 		ble	.L33
 518              		.loc 1 275 0
 519 000c 0C3090E5 		ldr	r3, [r0, #12]
 520 0010 00C090E5 		ldr	ip, [r0]
 521 0014 043043E2 		sub	r3, r3, #4
 522 0018 0C0053E1 		cmp	r3, ip
 523              		.loc 1 267 0
 524 001c 10402DE9 		push	{r4, lr}
 525              		.cfi_def_cfa_offset 8
 526              		.cfi_offset 4, -8
 527              		.cfi_offset 14, -4
 528              		.loc 1 275 0
 529 0020 0C3080E5 		str	r3, [r0, #12]
 530              		.loc 1 276 0
 531 0024 04309035 		ldrcc	r3, [r0, #4]
 532              		.loc 1 274 0
 533 0028 012042E2 		sub	r2, r2, #1
 534              		.loc 1 276 0
 535 002c 04304332 		subcc	r3, r3, #4
 536              		.loc 1 274 0
 537 0030 242080E5 		str	r2, [r0, #36]
 538              		.loc 1 276 0
 539 0034 0C308035 		strcc	r3, [r0, #12]
 540              		.loc 1 277 0
 541 0038 001083E5 		str	r1, [r3]
 542              		.loc 1 278 0
 543 003c 100080E2 		add	r0, r0, #16
 544              	.LVL51:
 545 0040 FEFFFFEB 		bl	chSemSignalI
 546              	.LVL52:
 547              		.loc 1 279 0
 548 0044 0000A0E3 		mov	r0, #0
 549              		.loc 1 280 0
 550 0048 1080BDE8 		pop	{r4, pc}
 551              	.LVL53:
 552              	.L33:
 553              		.cfi_def_cfa_offset 0
 554              		.cfi_restore 4
 555              		.cfi_restore 14
 556              		.loc 1 273 0
 557 004c 0000E0E3 		mvn	r0, #0
 558              	.LVL54:
 559              		.loc 1 280 0
 560 0050 1EFF2FE1 		bx	lr
 561              		.cfi_endproc
 562              	.LFE14:
 563              		.size	chMBPostAheadI, .-chMBPostAheadI
 564              		.section	.text.chMBFetch,"ax",%progbits
 565              		.align	2
 566              		.global	chMBFetch
 567              		.syntax unified
 568              		.arm
 569              		.fpu softvfp
 570              		.type	chMBFetch, %function
ARM GAS  /var/folders/3j/4xdnk5197cv_b7cw3n33qk7r0000gn/T//ccOqb1Kq.s 			page 11


 571              	chMBFetch:
 572              	.LFB15:
 573              		.loc 1 301 0
 574              		.cfi_startproc
 575              		@ args = 0, pretend = 0, frame = 0
 576              		@ frame_needed = 0, uses_anonymous_args = 0
 577              	.LVL55:
 578 0000 70402DE9 		push	{r4, r5, r6, lr}
 579              		.cfi_def_cfa_offset 16
 580              		.cfi_offset 4, -16
 581              		.cfi_offset 5, -12
 582              		.cfi_offset 6, -8
 583              		.cfi_offset 14, -4
 584              		.loc 1 301 0
 585 0004 0040A0E1 		mov	r4, r0
 586 0008 0160A0E1 		mov	r6, r1
 587              		.loc 1 304 0
 588              		.syntax divided
 589              	@ 304 "..//os/kernel/src/chmboxes.c" 1
 590 000c 9FF021E3 		msr     CPSR_c, #0x9F
 591              	@ 0 "" 2
 592              	.LVL56:
 593              		.arm
 594              		.syntax unified
 595              	.LBB36:
 596              	.LBB37:
 597              		.loc 1 335 0
 598 0010 0210A0E1 		mov	r1, r2
 599              	.LVL57:
 600 0014 100080E2 		add	r0, r0, #16
 601              	.LVL58:
 602 0018 FEFFFFEB 		bl	chSemWaitTimeoutS
 603              	.LVL59:
 604              		.loc 1 336 0
 605 001c 005050E2 		subs	r5, r0, #0
 606 0020 0B00001A 		bne	.L39
 607              	.LVL60:
 608              	.LBB38:
 609              	.LBB39:
 610              		.loc 1 337 0
 611 0024 0C2094E5 		ldr	r2, [r4, #12]
 612              		.loc 1 338 0
 613 0028 041094E5 		ldr	r1, [r4, #4]
 614              		.loc 1 337 0
 615 002c 043082E2 		add	r3, r2, #4
 616              		.loc 1 338 0
 617 0030 010053E1 		cmp	r3, r1
 618              		.loc 1 337 0
 619 0034 002092E5 		ldr	r2, [r2]
 620 0038 0C3084E5 		str	r3, [r4, #12]
 621              		.loc 1 339 0
 622 003c 00309425 		ldrcs	r3, [r4]
 623              		.loc 1 337 0
 624 0040 002086E5 		str	r2, [r6]
 625              		.loc 1 340 0
 626 0044 1C0084E2 		add	r0, r4, #28
 627              	.LVL61:
ARM GAS  /var/folders/3j/4xdnk5197cv_b7cw3n33qk7r0000gn/T//ccOqb1Kq.s 			page 12


 628              		.loc 1 339 0
 629 0048 0C308425 		strcs	r3, [r4, #12]
 630              		.loc 1 340 0
 631 004c FEFFFFEB 		bl	chSemSignalI
 632              	.LVL62:
 633              		.loc 1 341 0
 634 0050 FEFFFFEB 		bl	chSchRescheduleS
 635              	.LVL63:
 636              	.L39:
 637              	.LBE39:
 638              	.LBE38:
 639              	.LBE37:
 640              	.LBE36:
 641              		.loc 1 306 0
 642              		.syntax divided
 643              	@ 306 "..//os/kernel/src/chmboxes.c" 1
 644 0054 1FF021E3 		msr     CPSR_c, #0x1F
 645              	@ 0 "" 2
 646              		.loc 1 308 0
 647              		.arm
 648              		.syntax unified
 649 0058 0500A0E1 		mov	r0, r5
 650 005c 7080BDE8 		pop	{r4, r5, r6, pc}
 651              		.cfi_endproc
 652              	.LFE15:
 653              		.size	chMBFetch, .-chMBFetch
 654              		.section	.text.chMBFetchS,"ax",%progbits
 655              		.align	2
 656              		.global	chMBFetchS
 657              		.syntax unified
 658              		.arm
 659              		.fpu softvfp
 660              		.type	chMBFetchS, %function
 661              	chMBFetchS:
 662              	.LFB16:
 663              		.loc 1 329 0
 664              		.cfi_startproc
 665              		@ args = 0, pretend = 0, frame = 0
 666              		@ frame_needed = 0, uses_anonymous_args = 0
 667              	.LVL64:
 668 0000 70402DE9 		push	{r4, r5, r6, lr}
 669              		.cfi_def_cfa_offset 16
 670              		.cfi_offset 4, -16
 671              		.cfi_offset 5, -12
 672              		.cfi_offset 6, -8
 673              		.cfi_offset 14, -4
 674              		.loc 1 329 0
 675 0004 0040A0E1 		mov	r4, r0
 676 0008 0160A0E1 		mov	r6, r1
 677              		.loc 1 335 0
 678 000c 100080E2 		add	r0, r0, #16
 679              	.LVL65:
 680 0010 0210A0E1 		mov	r1, r2
 681              	.LVL66:
 682 0014 FEFFFFEB 		bl	chSemWaitTimeoutS
 683              	.LVL67:
 684              		.loc 1 336 0
ARM GAS  /var/folders/3j/4xdnk5197cv_b7cw3n33qk7r0000gn/T//ccOqb1Kq.s 			page 13


 685 0018 005050E2 		subs	r5, r0, #0
 686 001c 0B00001A 		bne	.L42
 687              	.LVL68:
 688              	.LBB42:
 689              	.LBB43:
 690              		.loc 1 337 0
 691 0020 0C2094E5 		ldr	r2, [r4, #12]
 692              		.loc 1 338 0
 693 0024 041094E5 		ldr	r1, [r4, #4]
 694              		.loc 1 337 0
 695 0028 043082E2 		add	r3, r2, #4
 696              		.loc 1 338 0
 697 002c 010053E1 		cmp	r3, r1
 698              		.loc 1 337 0
 699 0030 002092E5 		ldr	r2, [r2]
 700 0034 0C3084E5 		str	r3, [r4, #12]
 701              		.loc 1 339 0
 702 0038 00309425 		ldrcs	r3, [r4]
 703              		.loc 1 337 0
 704 003c 002086E5 		str	r2, [r6]
 705              		.loc 1 340 0
 706 0040 1C0084E2 		add	r0, r4, #28
 707              	.LVL69:
 708              		.loc 1 339 0
 709 0044 0C308425 		strcs	r3, [r4, #12]
 710              		.loc 1 340 0
 711 0048 FEFFFFEB 		bl	chSemSignalI
 712              	.LVL70:
 713              		.loc 1 341 0
 714 004c FEFFFFEB 		bl	chSchRescheduleS
 715              	.LVL71:
 716              	.L42:
 717              	.LBE43:
 718              	.LBE42:
 719              		.loc 1 344 0
 720 0050 0500A0E1 		mov	r0, r5
 721 0054 7080BDE8 		pop	{r4, r5, r6, pc}
 722              		.cfi_endproc
 723              	.LFE16:
 724              		.size	chMBFetchS, .-chMBFetchS
 725              		.section	.text.chMBFetchI,"ax",%progbits
 726              		.align	2
 727              		.global	chMBFetchI
 728              		.syntax unified
 729              		.arm
 730              		.fpu softvfp
 731              		.type	chMBFetchI, %function
 732              	chMBFetchI:
 733              	.LFB17:
 734              		.loc 1 360 0
 735              		.cfi_startproc
 736              		@ args = 0, pretend = 0, frame = 0
 737              		@ frame_needed = 0, uses_anonymous_args = 0
 738              	.LVL72:
 739              		.loc 1 365 0
 740 0000 183090E5 		ldr	r3, [r0, #24]
 741 0004 000053E3 		cmp	r3, #0
ARM GAS  /var/folders/3j/4xdnk5197cv_b7cw3n33qk7r0000gn/T//ccOqb1Kq.s 			page 14


 742 0008 0F0000DA 		ble	.L49
 743              		.loc 1 367 0
 744 000c 012043E2 		sub	r2, r3, #1
 745              		.loc 1 368 0
 746 0010 0C3090E5 		ldr	r3, [r0, #12]
 747              		.loc 1 369 0
 748 0014 04C090E5 		ldr	ip, [r0, #4]
 749              		.loc 1 360 0
 750 0018 10402DE9 		push	{r4, lr}
 751              		.cfi_def_cfa_offset 8
 752              		.cfi_offset 4, -8
 753              		.cfi_offset 14, -4
 754              		.loc 1 367 0
 755 001c 182080E5 		str	r2, [r0, #24]
 756              		.loc 1 368 0
 757 0020 002093E5 		ldr	r2, [r3]
 758 0024 043083E2 		add	r3, r3, #4
 759              		.loc 1 369 0
 760 0028 0C0053E1 		cmp	r3, ip
 761              		.loc 1 368 0
 762 002c 0C3080E5 		str	r3, [r0, #12]
 763              		.loc 1 370 0
 764 0030 00309025 		ldrcs	r3, [r0]
 765              		.loc 1 368 0
 766 0034 002081E5 		str	r2, [r1]
 767              		.loc 1 371 0
 768 0038 1C0080E2 		add	r0, r0, #28
 769              	.LVL73:
 770              		.loc 1 370 0
 771 003c 10300025 		strcs	r3, [r0, #-16]
 772              		.loc 1 371 0
 773 0040 FEFFFFEB 		bl	chSemSignalI
 774              	.LVL74:
 775              		.loc 1 372 0
 776 0044 0000A0E3 		mov	r0, #0
 777              		.loc 1 373 0
 778 0048 1080BDE8 		pop	{r4, pc}
 779              	.LVL75:
 780              	.L49:
 781              		.cfi_def_cfa_offset 0
 782              		.cfi_restore 4
 783              		.cfi_restore 14
 784              		.loc 1 366 0
 785 004c 0000E0E3 		mvn	r0, #0
 786              	.LVL76:
 787              		.loc 1 373 0
 788 0050 1EFF2FE1 		bx	lr
 789              		.cfi_endproc
 790              	.LFE17:
 791              		.size	chMBFetchI, .-chMBFetchI
 792              		.text
 793              	.Letext0:
 794              		.file 2 "/usr/local/Cellar/gcc-arm-none-eabi/20180627/arm-none-eabi/include/machine/_default_types
 795              		.file 3 "/usr/local/Cellar/gcc-arm-none-eabi/20180627/arm-none-eabi/include/sys/_stdint.h"
 796              		.file 4 "..//os/ports/GCC/ARM/chtypes.h"
 797              		.file 5 "..//os/kernel/include/chlists.h"
 798              		.file 6 "..//os/kernel/include/chthreads.h"
ARM GAS  /var/folders/3j/4xdnk5197cv_b7cw3n33qk7r0000gn/T//ccOqb1Kq.s 			page 15


 799              		.file 7 "..//os/ports/GCC/ARM/chcore.h"
 800              		.file 8 "..//os/kernel/include/chvt.h"
 801              		.file 9 "..//os/kernel/include/chschd.h"
 802              		.file 10 "..//os/kernel/include/chsem.h"
 803              		.file 11 "..//os/kernel/include/chmtx.h"
 804              		.file 12 "..//os/kernel/include/chmboxes.h"
 805              		.file 13 "..//os/kernel/include/chregistry.h"
 806              		.file 14 "..//os/kernel/include/ch.h"
 807              		.section	.debug_info,"",%progbits
 808              	.Ldebug_info0:
 809 0000 400E0000 		.4byte	0xe40
 810 0004 0400     		.2byte	0x4
 811 0006 00000000 		.4byte	.Ldebug_abbrev0
 812 000a 04       		.byte	0x4
 813 000b 01       		.uleb128 0x1
 814 000c 0E010000 		.4byte	.LASF127
 815 0010 0C       		.byte	0xc
 816 0011 4E020000 		.4byte	.LASF128
 817 0015 ED030000 		.4byte	.LASF129
 818 0019 00000000 		.4byte	.Ldebug_ranges0+0
 819 001d 00000000 		.4byte	0
 820 0021 00000000 		.4byte	.Ldebug_line0
 821 0025 02       		.uleb128 0x2
 822 0026 04       		.byte	0x4
 823 0027 05       		.byte	0x5
 824 0028 696E7400 		.ascii	"int\000"
 825 002c 03       		.uleb128 0x3
 826 002d 04       		.byte	0x4
 827 002e 07       		.byte	0x7
 828 002f 41020000 		.4byte	.LASF0
 829 0033 03       		.uleb128 0x3
 830 0034 01       		.byte	0x1
 831 0035 06       		.byte	0x6
 832 0036 DD000000 		.4byte	.LASF1
 833 003a 04       		.uleb128 0x4
 834 003b 30000000 		.4byte	.LASF4
 835 003f 02       		.byte	0x2
 836 0040 2B       		.byte	0x2b
 837 0041 45000000 		.4byte	0x45
 838 0045 03       		.uleb128 0x3
 839 0046 01       		.byte	0x1
 840 0047 08       		.byte	0x8
 841 0048 D8030000 		.4byte	.LASF2
 842 004c 03       		.uleb128 0x3
 843 004d 02       		.byte	0x2
 844 004e 05       		.byte	0x5
 845 004f 44040000 		.4byte	.LASF3
 846 0053 04       		.uleb128 0x4
 847 0054 0B050000 		.4byte	.LASF5
 848 0058 02       		.byte	0x2
 849 0059 39       		.byte	0x39
 850 005a 5E000000 		.4byte	0x5e
 851 005e 03       		.uleb128 0x3
 852 005f 02       		.byte	0x2
 853 0060 07       		.byte	0x7
 854 0061 B7020000 		.4byte	.LASF6
 855 0065 04       		.uleb128 0x4
ARM GAS  /var/folders/3j/4xdnk5197cv_b7cw3n33qk7r0000gn/T//ccOqb1Kq.s 			page 16


 856 0066 32050000 		.4byte	.LASF7
 857 006a 02       		.byte	0x2
 858 006b 4D       		.byte	0x4d
 859 006c 70000000 		.4byte	0x70
 860 0070 03       		.uleb128 0x3
 861 0071 04       		.byte	0x4
 862 0072 05       		.byte	0x5
 863 0073 C1010000 		.4byte	.LASF8
 864 0077 04       		.uleb128 0x4
 865 0078 17020000 		.4byte	.LASF9
 866 007c 02       		.byte	0x2
 867 007d 4F       		.byte	0x4f
 868 007e 82000000 		.4byte	0x82
 869 0082 03       		.uleb128 0x3
 870 0083 04       		.byte	0x4
 871 0084 07       		.byte	0x7
 872 0085 6B020000 		.4byte	.LASF10
 873 0089 03       		.uleb128 0x3
 874 008a 08       		.byte	0x8
 875 008b 05       		.byte	0x5
 876 008c CF000000 		.4byte	.LASF11
 877 0090 03       		.uleb128 0x3
 878 0091 08       		.byte	0x8
 879 0092 07       		.byte	0x7
 880 0093 6C000000 		.4byte	.LASF12
 881 0097 04       		.uleb128 0x4
 882 0098 B7050000 		.4byte	.LASF13
 883 009c 03       		.byte	0x3
 884 009d 18       		.byte	0x18
 885 009e 3A000000 		.4byte	0x3a
 886 00a2 04       		.uleb128 0x4
 887 00a3 D3010000 		.4byte	.LASF14
 888 00a7 03       		.byte	0x3
 889 00a8 24       		.byte	0x24
 890 00a9 53000000 		.4byte	0x53
 891 00ad 04       		.uleb128 0x4
 892 00ae D0030000 		.4byte	.LASF15
 893 00b2 03       		.byte	0x3
 894 00b3 2C       		.byte	0x2c
 895 00b4 65000000 		.4byte	0x65
 896 00b8 04       		.uleb128 0x4
 897 00b9 C0040000 		.4byte	.LASF16
 898 00bd 03       		.byte	0x3
 899 00be 30       		.byte	0x30
 900 00bf 77000000 		.4byte	0x77
 901 00c3 04       		.uleb128 0x4
 902 00c4 EE020000 		.4byte	.LASF17
 903 00c8 04       		.byte	0x4
 904 00c9 2A       		.byte	0x2a
 905 00ca 97000000 		.4byte	0x97
 906 00ce 04       		.uleb128 0x4
 907 00cf CA010000 		.4byte	.LASF18
 908 00d3 04       		.byte	0x4
 909 00d4 2B       		.byte	0x2b
 910 00d5 97000000 		.4byte	0x97
 911 00d9 04       		.uleb128 0x4
 912 00da AE030000 		.4byte	.LASF19
ARM GAS  /var/folders/3j/4xdnk5197cv_b7cw3n33qk7r0000gn/T//ccOqb1Kq.s 			page 17


 913 00de 04       		.byte	0x4
 914 00df 2C       		.byte	0x2c
 915 00e0 97000000 		.4byte	0x97
 916 00e4 04       		.uleb128 0x4
 917 00e5 EA040000 		.4byte	.LASF20
 918 00e9 04       		.byte	0x4
 919 00ea 2D       		.byte	0x2d
 920 00eb 97000000 		.4byte	0x97
 921 00ef 04       		.uleb128 0x4
 922 00f0 C8030000 		.4byte	.LASF21
 923 00f4 04       		.byte	0x4
 924 00f5 2E       		.byte	0x2e
 925 00f6 B8000000 		.4byte	0xb8
 926 00fa 04       		.uleb128 0x4
 927 00fb D5020000 		.4byte	.LASF22
 928 00ff 04       		.byte	0x4
 929 0100 2F       		.byte	0x2f
 930 0101 AD000000 		.4byte	0xad
 931 0105 04       		.uleb128 0x4
 932 0106 02030000 		.4byte	.LASF23
 933 010a 04       		.byte	0x4
 934 010b 31       		.byte	0x31
 935 010c B8000000 		.4byte	0xb8
 936 0110 04       		.uleb128 0x4
 937 0111 1D050000 		.4byte	.LASF24
 938 0115 04       		.byte	0x4
 939 0116 33       		.byte	0x33
 940 0117 B8000000 		.4byte	0xb8
 941 011b 05       		.uleb128 0x5
 942 011c 10010000 		.4byte	0x110
 943 0120 04       		.uleb128 0x4
 944 0121 3B020000 		.4byte	.LASF25
 945 0125 04       		.byte	0x4
 946 0126 34       		.byte	0x34
 947 0127 AD000000 		.4byte	0xad
 948 012b 04       		.uleb128 0x4
 949 012c A1040000 		.4byte	.LASF26
 950 0130 05       		.byte	0x5
 951 0131 23       		.byte	0x23
 952 0132 36010000 		.4byte	0x136
 953 0136 06       		.uleb128 0x6
 954 0137 A1040000 		.4byte	.LASF26
 955 013b 44       		.byte	0x44
 956 013c 06       		.byte	0x6
 957 013d 57       		.byte	0x57
 958 013e 27020000 		.4byte	0x227
 959 0142 07       		.uleb128 0x7
 960 0143 7A040000 		.4byte	.LASF27
 961 0147 06       		.byte	0x6
 962 0148 58       		.byte	0x58
 963 0149 48020000 		.4byte	0x248
 964 014d 00       		.byte	0
 965 014e 07       		.uleb128 0x7
 966 014f C1030000 		.4byte	.LASF28
 967 0153 06       		.byte	0x6
 968 0154 5A       		.byte	0x5a
 969 0155 48020000 		.4byte	0x248
ARM GAS  /var/folders/3j/4xdnk5197cv_b7cw3n33qk7r0000gn/T//ccOqb1Kq.s 			page 18


 970 0159 04       		.byte	0x4
 971 015a 07       		.uleb128 0x7
 972 015b BB000000 		.4byte	.LASF29
 973 015f 06       		.byte	0x6
 974 0160 5C       		.byte	0x5c
 975 0161 EF000000 		.4byte	0xef
 976 0165 08       		.byte	0x8
 977 0166 07       		.uleb128 0x7
 978 0167 F2050000 		.4byte	.LASF30
 979 016b 06       		.byte	0x6
 980 016c 5D       		.byte	0x5d
 981 016d 03030000 		.4byte	0x303
 982 0171 0C       		.byte	0xc
 983 0172 07       		.uleb128 0x7
 984 0173 E6010000 		.4byte	.LASF31
 985 0177 06       		.byte	0x6
 986 0178 5F       		.byte	0x5f
 987 0179 48020000 		.4byte	0x248
 988 017d 10       		.byte	0x10
 989 017e 07       		.uleb128 0x7
 990 017f 6A030000 		.4byte	.LASF32
 991 0183 06       		.byte	0x6
 992 0184 60       		.byte	0x60
 993 0185 48020000 		.4byte	0x248
 994 0189 14       		.byte	0x14
 995 018a 07       		.uleb128 0x7
 996 018b C6050000 		.4byte	.LASF33
 997 018f 06       		.byte	0x6
 998 0190 67       		.byte	0x67
 999 0191 57050000 		.4byte	0x557
 1000 0195 18       		.byte	0x18
 1001 0196 07       		.uleb128 0x7
 1002 0197 4E040000 		.4byte	.LASF34
 1003 019b 06       		.byte	0x6
 1004 019c 72       		.byte	0x72
 1005 019d CE000000 		.4byte	0xce
 1006 01a1 1C       		.byte	0x1c
 1007 01a2 07       		.uleb128 0x7
 1008 01a3 90040000 		.4byte	.LASF35
 1009 01a7 06       		.byte	0x6
 1010 01a8 76       		.byte	0x76
 1011 01a9 C3000000 		.4byte	0xc3
 1012 01ad 1D       		.byte	0x1d
 1013 01ae 07       		.uleb128 0x7
 1014 01af 94050000 		.4byte	.LASF36
 1015 01b3 06       		.byte	0x6
 1016 01b4 7B       		.byte	0x7b
 1017 01b5 D9000000 		.4byte	0xd9
 1018 01b9 1E       		.byte	0x1e
 1019 01ba 07       		.uleb128 0x7
 1020 01bb 56040000 		.4byte	.LASF37
 1021 01bf 06       		.byte	0x6
 1022 01c0 81       		.byte	0x81
 1023 01c1 E4000000 		.4byte	0xe4
 1024 01c5 1F       		.byte	0x1f
 1025 01c6 07       		.uleb128 0x7
 1026 01c7 3C050000 		.4byte	.LASF38
ARM GAS  /var/folders/3j/4xdnk5197cv_b7cw3n33qk7r0000gn/T//ccOqb1Kq.s 			page 19


 1027 01cb 06       		.byte	0x6
 1028 01cc 88       		.byte	0x88
 1029 01cd 1B010000 		.4byte	0x11b
 1030 01d1 20       		.byte	0x20
 1031 01d2 08       		.uleb128 0x8
 1032 01d3 705F7500 		.ascii	"p_u\000"
 1033 01d7 06       		.byte	0x6
 1034 01d8 AD       		.byte	0xad
 1035 01d9 22050000 		.4byte	0x522
 1036 01dd 24       		.byte	0x24
 1037 01de 07       		.uleb128 0x7
 1038 01df F8050000 		.4byte	.LASF39
 1039 01e3 06       		.byte	0x6
 1040 01e4 B2       		.byte	0xb2
 1041 01e5 6E020000 		.4byte	0x26e
 1042 01e9 28       		.byte	0x28
 1043 01ea 07       		.uleb128 0x7
 1044 01eb 58050000 		.4byte	.LASF40
 1045 01ef 06       		.byte	0x6
 1046 01f0 B8       		.byte	0xb8
 1047 01f1 4E020000 		.4byte	0x24e
 1048 01f5 2C       		.byte	0x2c
 1049 01f6 07       		.uleb128 0x7
 1050 01f7 0D000000 		.4byte	.LASF41
 1051 01fb 06       		.byte	0x6
 1052 01fc BC       		.byte	0xbc
 1053 01fd FA000000 		.4byte	0xfa
 1054 0201 34       		.byte	0x34
 1055 0202 07       		.uleb128 0x7
 1056 0203 B5040000 		.4byte	.LASF42
 1057 0207 06       		.byte	0x6
 1058 0208 C2       		.byte	0xc2
 1059 0209 05010000 		.4byte	0x105
 1060 020d 38       		.byte	0x38
 1061 020e 07       		.uleb128 0x7
 1062 020f 3A040000 		.4byte	.LASF43
 1063 0213 06       		.byte	0x6
 1064 0214 C9       		.byte	0xc9
 1065 0215 69050000 		.4byte	0x569
 1066 0219 3C       		.byte	0x3c
 1067 021a 07       		.uleb128 0x7
 1068 021b 27050000 		.4byte	.LASF44
 1069 021f 06       		.byte	0x6
 1070 0220 CD       		.byte	0xcd
 1071 0221 EF000000 		.4byte	0xef
 1072 0225 40       		.byte	0x40
 1073 0226 00       		.byte	0
 1074 0227 09       		.uleb128 0x9
 1075 0228 08       		.byte	0x8
 1076 0229 05       		.byte	0x5
 1077 022a 5A       		.byte	0x5a
 1078 022b 48020000 		.4byte	0x248
 1079 022f 07       		.uleb128 0x7
 1080 0230 7A040000 		.4byte	.LASF27
 1081 0234 05       		.byte	0x5
 1082 0235 5B       		.byte	0x5b
 1083 0236 48020000 		.4byte	0x248
ARM GAS  /var/folders/3j/4xdnk5197cv_b7cw3n33qk7r0000gn/T//ccOqb1Kq.s 			page 20


 1084 023a 00       		.byte	0
 1085 023b 07       		.uleb128 0x7
 1086 023c C1030000 		.4byte	.LASF28
 1087 0240 05       		.byte	0x5
 1088 0241 5D       		.byte	0x5d
 1089 0242 48020000 		.4byte	0x248
 1090 0246 04       		.byte	0x4
 1091 0247 00       		.byte	0
 1092 0248 0A       		.uleb128 0xa
 1093 0249 04       		.byte	0x4
 1094 024a 2B010000 		.4byte	0x12b
 1095 024e 04       		.uleb128 0x4
 1096 024f 78030000 		.4byte	.LASF45
 1097 0253 05       		.byte	0x5
 1098 0254 5F       		.byte	0x5f
 1099 0255 27020000 		.4byte	0x227
 1100 0259 09       		.uleb128 0x9
 1101 025a 04       		.byte	0x4
 1102 025b 05       		.byte	0x5
 1103 025c 64       		.byte	0x64
 1104 025d 6E020000 		.4byte	0x26e
 1105 0261 07       		.uleb128 0x7
 1106 0262 7A040000 		.4byte	.LASF27
 1107 0266 05       		.byte	0x5
 1108 0267 66       		.byte	0x66
 1109 0268 48020000 		.4byte	0x248
 1110 026c 00       		.byte	0
 1111 026d 00       		.byte	0
 1112 026e 04       		.uleb128 0x4
 1113 026f F6020000 		.4byte	.LASF46
 1114 0273 05       		.byte	0x5
 1115 0274 69       		.byte	0x69
 1116 0275 59020000 		.4byte	0x259
 1117 0279 04       		.uleb128 0x4
 1118 027a 19030000 		.4byte	.LASF47
 1119 027e 07       		.byte	0x7
 1120 027f 9D       		.byte	0x9d
 1121 0280 B8000000 		.4byte	0xb8
 1122 0284 04       		.uleb128 0x4
 1123 0285 22020000 		.4byte	.LASF48
 1124 0289 07       		.byte	0x7
 1125 028a A2       		.byte	0xa2
 1126 028b 8F020000 		.4byte	0x28f
 1127 028f 0B       		.uleb128 0xb
 1128 0290 04       		.byte	0x4
 1129 0291 06       		.uleb128 0x6
 1130 0292 51050000 		.4byte	.LASF49
 1131 0296 24       		.byte	0x24
 1132 0297 07       		.byte	0x7
 1133 0298 B9       		.byte	0xb9
 1134 0299 03030000 		.4byte	0x303
 1135 029d 08       		.uleb128 0x8
 1136 029e 723400   		.ascii	"r4\000"
 1137 02a1 07       		.byte	0x7
 1138 02a2 BA       		.byte	0xba
 1139 02a3 84020000 		.4byte	0x284
 1140 02a7 00       		.byte	0
ARM GAS  /var/folders/3j/4xdnk5197cv_b7cw3n33qk7r0000gn/T//ccOqb1Kq.s 			page 21


 1141 02a8 08       		.uleb128 0x8
 1142 02a9 723500   		.ascii	"r5\000"
 1143 02ac 07       		.byte	0x7
 1144 02ad BB       		.byte	0xbb
 1145 02ae 84020000 		.4byte	0x284
 1146 02b2 04       		.byte	0x4
 1147 02b3 08       		.uleb128 0x8
 1148 02b4 723600   		.ascii	"r6\000"
 1149 02b7 07       		.byte	0x7
 1150 02b8 BC       		.byte	0xbc
 1151 02b9 84020000 		.4byte	0x284
 1152 02bd 08       		.byte	0x8
 1153 02be 08       		.uleb128 0x8
 1154 02bf 723700   		.ascii	"r7\000"
 1155 02c2 07       		.byte	0x7
 1156 02c3 BD       		.byte	0xbd
 1157 02c4 84020000 		.4byte	0x284
 1158 02c8 0C       		.byte	0xc
 1159 02c9 08       		.uleb128 0x8
 1160 02ca 723800   		.ascii	"r8\000"
 1161 02cd 07       		.byte	0x7
 1162 02ce BE       		.byte	0xbe
 1163 02cf 84020000 		.4byte	0x284
 1164 02d3 10       		.byte	0x10
 1165 02d4 08       		.uleb128 0x8
 1166 02d5 723900   		.ascii	"r9\000"
 1167 02d8 07       		.byte	0x7
 1168 02d9 BF       		.byte	0xbf
 1169 02da 84020000 		.4byte	0x284
 1170 02de 14       		.byte	0x14
 1171 02df 08       		.uleb128 0x8
 1172 02e0 72313000 		.ascii	"r10\000"
 1173 02e4 07       		.byte	0x7
 1174 02e5 C0       		.byte	0xc0
 1175 02e6 84020000 		.4byte	0x284
 1176 02ea 18       		.byte	0x18
 1177 02eb 08       		.uleb128 0x8
 1178 02ec 72313100 		.ascii	"r11\000"
 1179 02f0 07       		.byte	0x7
 1180 02f1 C1       		.byte	0xc1
 1181 02f2 84020000 		.4byte	0x284
 1182 02f6 1C       		.byte	0x1c
 1183 02f7 08       		.uleb128 0x8
 1184 02f8 6C7200   		.ascii	"lr\000"
 1185 02fb 07       		.byte	0x7
 1186 02fc C2       		.byte	0xc2
 1187 02fd 84020000 		.4byte	0x284
 1188 0301 20       		.byte	0x20
 1189 0302 00       		.byte	0
 1190 0303 06       		.uleb128 0x6
 1191 0304 AF020000 		.4byte	.LASF50
 1192 0308 04       		.byte	0x4
 1193 0309 07       		.byte	0x7
 1194 030a CA       		.byte	0xca
 1195 030b 1C030000 		.4byte	0x31c
 1196 030f 08       		.uleb128 0x8
 1197 0310 72313300 		.ascii	"r13\000"
ARM GAS  /var/folders/3j/4xdnk5197cv_b7cw3n33qk7r0000gn/T//ccOqb1Kq.s 			page 22


 1198 0314 07       		.byte	0x7
 1199 0315 CB       		.byte	0xcb
 1200 0316 1C030000 		.4byte	0x31c
 1201 031a 00       		.byte	0
 1202 031b 00       		.byte	0
 1203 031c 0A       		.uleb128 0xa
 1204 031d 04       		.byte	0x4
 1205 031e 91020000 		.4byte	0x291
 1206 0322 04       		.uleb128 0x4
 1207 0323 92020000 		.4byte	.LASF51
 1208 0327 08       		.byte	0x8
 1209 0328 4E       		.byte	0x4e
 1210 0329 2D030000 		.4byte	0x32d
 1211 032d 0A       		.uleb128 0xa
 1212 032e 04       		.byte	0x4
 1213 032f 33030000 		.4byte	0x333
 1214 0333 0C       		.uleb128 0xc
 1215 0334 3E030000 		.4byte	0x33e
 1216 0338 0D       		.uleb128 0xd
 1217 0339 8F020000 		.4byte	0x28f
 1218 033d 00       		.byte	0
 1219 033e 04       		.uleb128 0x4
 1220 033f DD040000 		.4byte	.LASF52
 1221 0343 08       		.byte	0x8
 1222 0344 53       		.byte	0x53
 1223 0345 49030000 		.4byte	0x349
 1224 0349 06       		.uleb128 0x6
 1225 034a DD040000 		.4byte	.LASF52
 1226 034e 14       		.byte	0x14
 1227 034f 08       		.byte	0x8
 1228 0350 5A       		.byte	0x5a
 1229 0351 92030000 		.4byte	0x392
 1230 0355 07       		.uleb128 0x7
 1231 0356 33020000 		.4byte	.LASF53
 1232 035a 08       		.byte	0x8
 1233 035b 5B       		.byte	0x5b
 1234 035c 92030000 		.4byte	0x392
 1235 0360 00       		.byte	0
 1236 0361 07       		.uleb128 0x7
 1237 0362 2B020000 		.4byte	.LASF54
 1238 0366 08       		.byte	0x8
 1239 0367 5D       		.byte	0x5d
 1240 0368 92030000 		.4byte	0x392
 1241 036c 04       		.byte	0x4
 1242 036d 07       		.uleb128 0x7
 1243 036e 38030000 		.4byte	.LASF55
 1244 0372 08       		.byte	0x8
 1245 0373 5F       		.byte	0x5f
 1246 0374 10010000 		.4byte	0x110
 1247 0378 08       		.byte	0x8
 1248 0379 07       		.uleb128 0x7
 1249 037a 40030000 		.4byte	.LASF56
 1250 037e 08       		.byte	0x8
 1251 037f 60       		.byte	0x60
 1252 0380 22030000 		.4byte	0x322
 1253 0384 0C       		.byte	0xc
 1254 0385 07       		.uleb128 0x7
ARM GAS  /var/folders/3j/4xdnk5197cv_b7cw3n33qk7r0000gn/T//ccOqb1Kq.s 			page 23


 1255 0386 6D050000 		.4byte	.LASF57
 1256 038a 08       		.byte	0x8
 1257 038b 62       		.byte	0x62
 1258 038c 8F020000 		.4byte	0x28f
 1259 0390 10       		.byte	0x10
 1260 0391 00       		.byte	0
 1261 0392 0A       		.uleb128 0xa
 1262 0393 04       		.byte	0x4
 1263 0394 3E030000 		.4byte	0x33e
 1264 0398 09       		.uleb128 0x9
 1265 0399 10       		.byte	0x10
 1266 039a 08       		.byte	0x8
 1267 039b 6C       		.byte	0x6c
 1268 039c D1030000 		.4byte	0x3d1
 1269 03a0 07       		.uleb128 0x7
 1270 03a1 33020000 		.4byte	.LASF53
 1271 03a5 08       		.byte	0x8
 1272 03a6 6D       		.byte	0x6d
 1273 03a7 92030000 		.4byte	0x392
 1274 03ab 00       		.byte	0
 1275 03ac 07       		.uleb128 0x7
 1276 03ad 2B020000 		.4byte	.LASF54
 1277 03b1 08       		.byte	0x8
 1278 03b2 6F       		.byte	0x6f
 1279 03b3 92030000 		.4byte	0x392
 1280 03b7 04       		.byte	0x4
 1281 03b8 07       		.uleb128 0x7
 1282 03b9 38030000 		.4byte	.LASF55
 1283 03bd 08       		.byte	0x8
 1284 03be 71       		.byte	0x71
 1285 03bf 10010000 		.4byte	0x110
 1286 03c3 08       		.byte	0x8
 1287 03c4 07       		.uleb128 0x7
 1288 03c5 CD050000 		.4byte	.LASF58
 1289 03c9 08       		.byte	0x8
 1290 03ca 72       		.byte	0x72
 1291 03cb 1B010000 		.4byte	0x11b
 1292 03cf 0C       		.byte	0xc
 1293 03d0 00       		.byte	0
 1294 03d1 04       		.uleb128 0x4
 1295 03d2 E3050000 		.4byte	.LASF59
 1296 03d6 08       		.byte	0x8
 1297 03d7 73       		.byte	0x73
 1298 03d8 98030000 		.4byte	0x398
 1299 03dc 0E       		.uleb128 0xe
 1300 03dd 44000000 		.4byte	.LASF67
 1301 03e1 08       		.byte	0x8
 1302 03e2 D1       		.byte	0xd1
 1303 03e3 D1030000 		.4byte	0x3d1
 1304 03e7 09       		.uleb128 0x9
 1305 03e8 1C       		.byte	0x1c
 1306 03e9 09       		.byte	0x9
 1307 03ea 57       		.byte	0x57
 1308 03eb 38040000 		.4byte	0x438
 1309 03ef 07       		.uleb128 0x7
 1310 03f0 D5040000 		.4byte	.LASF60
 1311 03f4 09       		.byte	0x9
ARM GAS  /var/folders/3j/4xdnk5197cv_b7cw3n33qk7r0000gn/T//ccOqb1Kq.s 			page 24


 1312 03f5 58       		.byte	0x58
 1313 03f6 4E020000 		.4byte	0x24e
 1314 03fa 00       		.byte	0
 1315 03fb 07       		.uleb128 0x7
 1316 03fc 6C040000 		.4byte	.LASF61
 1317 0400 09       		.byte	0x9
 1318 0401 59       		.byte	0x59
 1319 0402 EF000000 		.4byte	0xef
 1320 0406 08       		.byte	0x8
 1321 0407 07       		.uleb128 0x7
 1322 0408 72030000 		.4byte	.LASF62
 1323 040c 09       		.byte	0x9
 1324 040d 5B       		.byte	0x5b
 1325 040e 03030000 		.4byte	0x303
 1326 0412 0C       		.byte	0xc
 1327 0413 07       		.uleb128 0x7
 1328 0414 DB020000 		.4byte	.LASF63
 1329 0418 09       		.byte	0x9
 1330 0419 5E       		.byte	0x5e
 1331 041a 48020000 		.4byte	0x248
 1332 041e 10       		.byte	0x10
 1333 041f 07       		.uleb128 0x7
 1334 0420 A6030000 		.4byte	.LASF64
 1335 0424 09       		.byte	0x9
 1336 0425 5F       		.byte	0x5f
 1337 0426 48020000 		.4byte	0x248
 1338 042a 14       		.byte	0x14
 1339 042b 07       		.uleb128 0x7
 1340 042c 9C030000 		.4byte	.LASF65
 1341 0430 09       		.byte	0x9
 1342 0431 62       		.byte	0x62
 1343 0432 48020000 		.4byte	0x248
 1344 0436 18       		.byte	0x18
 1345 0437 00       		.byte	0
 1346 0438 04       		.uleb128 0x4
 1347 0439 9B050000 		.4byte	.LASF66
 1348 043d 09       		.byte	0x9
 1349 043e 64       		.byte	0x64
 1350 043f E7030000 		.4byte	0x3e7
 1351 0443 0E       		.uleb128 0xe
 1352 0444 B1050000 		.4byte	.LASF68
 1353 0448 09       		.byte	0x9
 1354 0449 68       		.byte	0x68
 1355 044a 38040000 		.4byte	0x438
 1356 044e 06       		.uleb128 0x6
 1357 044f 74050000 		.4byte	.LASF69
 1358 0453 0C       		.byte	0xc
 1359 0454 0A       		.byte	0xa
 1360 0455 25       		.byte	0x25
 1361 0456 73040000 		.4byte	0x473
 1362 045a 07       		.uleb128 0x7
 1363 045b FE010000 		.4byte	.LASF70
 1364 045f 0A       		.byte	0xa
 1365 0460 26       		.byte	0x26
 1366 0461 4E020000 		.4byte	0x24e
 1367 0465 00       		.byte	0
 1368 0466 07       		.uleb128 0x7
ARM GAS  /var/folders/3j/4xdnk5197cv_b7cw3n33qk7r0000gn/T//ccOqb1Kq.s 			page 25


 1369 0467 A9020000 		.4byte	.LASF71
 1370 046b 0A       		.byte	0xa
 1371 046c 28       		.byte	0x28
 1372 046d 20010000 		.4byte	0x120
 1373 0471 08       		.byte	0x8
 1374 0472 00       		.byte	0
 1375 0473 04       		.uleb128 0x4
 1376 0474 74050000 		.4byte	.LASF69
 1377 0478 0A       		.byte	0xa
 1378 0479 29       		.byte	0x29
 1379 047a 4E040000 		.4byte	0x44e
 1380 047e 06       		.uleb128 0x6
 1381 047f 0E030000 		.4byte	.LASF72
 1382 0483 10       		.byte	0x10
 1383 0484 0B       		.byte	0xb
 1384 0485 25       		.byte	0x25
 1385 0486 AF040000 		.4byte	0x4af
 1386 048a 07       		.uleb128 0x7
 1387 048b 06010000 		.4byte	.LASF73
 1388 048f 0B       		.byte	0xb
 1389 0490 26       		.byte	0x26
 1390 0491 4E020000 		.4byte	0x24e
 1391 0495 00       		.byte	0
 1392 0496 07       		.uleb128 0x7
 1393 0497 EA050000 		.4byte	.LASF74
 1394 049b 0B       		.byte	0xb
 1395 049c 28       		.byte	0x28
 1396 049d 48020000 		.4byte	0x248
 1397 04a1 08       		.byte	0x8
 1398 04a2 07       		.uleb128 0x7
 1399 04a3 16050000 		.4byte	.LASF75
 1400 04a7 0B       		.byte	0xb
 1401 04a8 2A       		.byte	0x2a
 1402 04a9 AF040000 		.4byte	0x4af
 1403 04ad 0C       		.byte	0xc
 1404 04ae 00       		.byte	0
 1405 04af 0A       		.uleb128 0xa
 1406 04b0 04       		.byte	0x4
 1407 04b1 7E040000 		.4byte	0x47e
 1408 04b5 04       		.uleb128 0x4
 1409 04b6 0E030000 		.4byte	.LASF72
 1410 04ba 0B       		.byte	0xb
 1411 04bb 2C       		.byte	0x2c
 1412 04bc 7E040000 		.4byte	0x47e
 1413 04c0 09       		.uleb128 0x9
 1414 04c1 28       		.byte	0x28
 1415 04c2 0C       		.byte	0xc
 1416 04c3 2C       		.byte	0x2c
 1417 04c4 11050000 		.4byte	0x511
 1418 04c8 07       		.uleb128 0x7
 1419 04c9 8D030000 		.4byte	.LASF76
 1420 04cd 0C       		.byte	0xc
 1421 04ce 2D       		.byte	0x2d
 1422 04cf 11050000 		.4byte	0x511
 1423 04d3 00       		.byte	0
 1424 04d4 07       		.uleb128 0x7
 1425 04d5 E6030000 		.4byte	.LASF77
ARM GAS  /var/folders/3j/4xdnk5197cv_b7cw3n33qk7r0000gn/T//ccOqb1Kq.s 			page 26


 1426 04d9 0C       		.byte	0xc
 1427 04da 2F       		.byte	0x2f
 1428 04db 11050000 		.4byte	0x511
 1429 04df 04       		.byte	0x4
 1430 04e0 07       		.uleb128 0x7
 1431 04e1 B2000000 		.4byte	.LASF78
 1432 04e5 0C       		.byte	0xc
 1433 04e6 31       		.byte	0x31
 1434 04e7 11050000 		.4byte	0x511
 1435 04eb 08       		.byte	0x8
 1436 04ec 07       		.uleb128 0x7
 1437 04ed 27000000 		.4byte	.LASF79
 1438 04f1 0C       		.byte	0xc
 1439 04f2 32       		.byte	0x32
 1440 04f3 11050000 		.4byte	0x511
 1441 04f7 0C       		.byte	0xc
 1442 04f8 07       		.uleb128 0x7
 1443 04f9 7E050000 		.4byte	.LASF80
 1444 04fd 0C       		.byte	0xc
 1445 04fe 33       		.byte	0x33
 1446 04ff 73040000 		.4byte	0x473
 1447 0503 10       		.byte	0x10
 1448 0504 07       		.uleb128 0x7
 1449 0505 86020000 		.4byte	.LASF81
 1450 0509 0C       		.byte	0xc
 1451 050a 35       		.byte	0x35
 1452 050b 73040000 		.4byte	0x473
 1453 050f 1C       		.byte	0x1c
 1454 0510 00       		.byte	0
 1455 0511 0A       		.uleb128 0xa
 1456 0512 04       		.byte	0x4
 1457 0513 FA000000 		.4byte	0xfa
 1458 0517 04       		.uleb128 0x4
 1459 0518 55000000 		.4byte	.LASF82
 1460 051c 0C       		.byte	0xc
 1461 051d 37       		.byte	0x37
 1462 051e C0040000 		.4byte	0x4c0
 1463 0522 0F       		.uleb128 0xf
 1464 0523 04       		.byte	0x4
 1465 0524 06       		.byte	0x6
 1466 0525 8F       		.byte	0x8f
 1467 0526 57050000 		.4byte	0x557
 1468 052a 10       		.uleb128 0x10
 1469 052b 20000000 		.4byte	.LASF83
 1470 052f 06       		.byte	0x6
 1471 0530 96       		.byte	0x96
 1472 0531 FA000000 		.4byte	0xfa
 1473 0535 10       		.uleb128 0x10
 1474 0536 91000000 		.4byte	.LASF84
 1475 053a 06       		.byte	0x6
 1476 053b 9D       		.byte	0x9d
 1477 053c FA000000 		.4byte	0xfa
 1478 0540 10       		.uleb128 0x10
 1479 0541 BF050000 		.4byte	.LASF85
 1480 0545 06       		.byte	0x6
 1481 0546 A4       		.byte	0xa4
 1482 0547 8F020000 		.4byte	0x28f
ARM GAS  /var/folders/3j/4xdnk5197cv_b7cw3n33qk7r0000gn/T//ccOqb1Kq.s 			page 27


 1483 054b 10       		.uleb128 0x10
 1484 054c 73040000 		.4byte	.LASF86
 1485 0550 06       		.byte	0x6
 1486 0551 AB       		.byte	0xab
 1487 0552 05010000 		.4byte	0x105
 1488 0556 00       		.byte	0
 1489 0557 0A       		.uleb128 0xa
 1490 0558 04       		.byte	0x4
 1491 0559 64050000 		.4byte	0x564
 1492 055d 03       		.uleb128 0x3
 1493 055e 01       		.byte	0x1
 1494 055f 08       		.byte	0x8
 1495 0560 F4040000 		.4byte	.LASF87
 1496 0564 11       		.uleb128 0x11
 1497 0565 5D050000 		.4byte	0x55d
 1498 0569 0A       		.uleb128 0xa
 1499 056a 04       		.byte	0x4
 1500 056b B5040000 		.4byte	0x4b5
 1501 056f 09       		.uleb128 0x9
 1502 0570 16       		.byte	0x16
 1503 0571 0D       		.byte	0xd
 1504 0572 25       		.byte	0x25
 1505 0573 50060000 		.4byte	0x650
 1506 0577 07       		.uleb128 0x7
 1507 0578 9B020000 		.4byte	.LASF88
 1508 057c 0D       		.byte	0xd
 1509 057d 26       		.byte	0x26
 1510 057e 50060000 		.4byte	0x650
 1511 0582 00       		.byte	0
 1512 0583 07       		.uleb128 0x7
 1513 0584 24030000 		.4byte	.LASF89
 1514 0588 0D       		.byte	0xd
 1515 0589 27       		.byte	0x27
 1516 058a 97000000 		.4byte	0x97
 1517 058e 04       		.byte	0x4
 1518 058f 07       		.uleb128 0x7
 1519 0590 85030000 		.4byte	.LASF90
 1520 0594 0D       		.byte	0xd
 1521 0595 28       		.byte	0x28
 1522 0596 97000000 		.4byte	0x97
 1523 059a 05       		.byte	0x5
 1524 059b 07       		.uleb128 0x7
 1525 059c D8050000 		.4byte	.LASF91
 1526 05a0 0D       		.byte	0xd
 1527 05a1 29       		.byte	0x29
 1528 05a2 A2000000 		.4byte	0xa2
 1529 05a6 06       		.byte	0x6
 1530 05a7 07       		.uleb128 0x7
 1531 05a8 B6030000 		.4byte	.LASF92
 1532 05ac 0D       		.byte	0xd
 1533 05ad 2A       		.byte	0x2a
 1534 05ae 97000000 		.4byte	0x97
 1535 05b2 08       		.byte	0x8
 1536 05b3 07       		.uleb128 0x7
 1537 05b4 48030000 		.4byte	.LASF93
 1538 05b8 0D       		.byte	0xd
 1539 05b9 2B       		.byte	0x2b
ARM GAS  /var/folders/3j/4xdnk5197cv_b7cw3n33qk7r0000gn/T//ccOqb1Kq.s 			page 28


 1540 05ba 97000000 		.4byte	0x97
 1541 05be 09       		.byte	0x9
 1542 05bf 07       		.uleb128 0x7
 1543 05c0 83000000 		.4byte	.LASF94
 1544 05c4 0D       		.byte	0xd
 1545 05c5 2C       		.byte	0x2c
 1546 05c6 97000000 		.4byte	0x97
 1547 05ca 0A       		.byte	0xa
 1548 05cb 07       		.uleb128 0x7
 1549 05cc C9040000 		.4byte	.LASF95
 1550 05d0 0D       		.byte	0xd
 1551 05d1 2D       		.byte	0x2d
 1552 05d2 97000000 		.4byte	0x97
 1553 05d6 0B       		.byte	0xb
 1554 05d7 07       		.uleb128 0x7
 1555 05d8 89050000 		.4byte	.LASF96
 1556 05dc 0D       		.byte	0xd
 1557 05dd 2E       		.byte	0x2e
 1558 05de 97000000 		.4byte	0x97
 1559 05e2 0C       		.byte	0xc
 1560 05e3 07       		.uleb128 0x7
 1561 05e4 A8040000 		.4byte	.LASF97
 1562 05e8 0D       		.byte	0xd
 1563 05e9 2F       		.byte	0x2f
 1564 05ea 97000000 		.4byte	0x97
 1565 05ee 0D       		.byte	0xd
 1566 05ef 07       		.uleb128 0x7
 1567 05f0 00000000 		.4byte	.LASF98
 1568 05f4 0D       		.byte	0xd
 1569 05f5 30       		.byte	0x30
 1570 05f6 97000000 		.4byte	0x97
 1571 05fa 0E       		.byte	0xe
 1572 05fb 07       		.uleb128 0x7
 1573 05fc 5E030000 		.4byte	.LASF99
 1574 0600 0D       		.byte	0xd
 1575 0601 31       		.byte	0x31
 1576 0602 97000000 		.4byte	0x97
 1577 0606 0F       		.byte	0xf
 1578 0607 07       		.uleb128 0x7
 1579 0608 E9000000 		.4byte	.LASF100
 1580 060c 0D       		.byte	0xd
 1581 060d 32       		.byte	0x32
 1582 060e 97000000 		.4byte	0x97
 1583 0612 10       		.byte	0x10
 1584 0613 07       		.uleb128 0x7
 1585 0614 C2000000 		.4byte	.LASF101
 1586 0618 0D       		.byte	0xd
 1587 0619 34       		.byte	0x34
 1588 061a 97000000 		.4byte	0x97
 1589 061e 11       		.byte	0x11
 1590 061f 07       		.uleb128 0x7
 1591 0620 F9000000 		.4byte	.LASF102
 1592 0624 0D       		.byte	0xd
 1593 0625 35       		.byte	0x35
 1594 0626 97000000 		.4byte	0x97
 1595 062a 12       		.byte	0x12
 1596 062b 07       		.uleb128 0x7
ARM GAS  /var/folders/3j/4xdnk5197cv_b7cw3n33qk7r0000gn/T//ccOqb1Kq.s 			page 29


 1597 062c 2C030000 		.4byte	.LASF103
 1598 0630 0D       		.byte	0xd
 1599 0631 36       		.byte	0x36
 1600 0632 97000000 		.4byte	0x97
 1601 0636 13       		.byte	0x13
 1602 0637 07       		.uleb128 0x7
 1603 0638 81040000 		.4byte	.LASF104
 1604 063c 0D       		.byte	0xd
 1605 063d 37       		.byte	0x37
 1606 063e 97000000 		.4byte	0x97
 1607 0642 14       		.byte	0x14
 1608 0643 07       		.uleb128 0x7
 1609 0644 60040000 		.4byte	.LASF105
 1610 0648 0D       		.byte	0xd
 1611 0649 39       		.byte	0x39
 1612 064a 97000000 		.4byte	0x97
 1613 064e 15       		.byte	0x15
 1614 064f 00       		.byte	0
 1615 0650 12       		.uleb128 0x12
 1616 0651 5D050000 		.4byte	0x55d
 1617 0655 60060000 		.4byte	0x660
 1618 0659 13       		.uleb128 0x13
 1619 065a 2C000000 		.4byte	0x2c
 1620 065e 03       		.byte	0x3
 1621 065f 00       		.byte	0
 1622 0660 04       		.uleb128 0x4
 1623 0661 DC010000 		.4byte	.LASF106
 1624 0665 0D       		.byte	0xd
 1625 0666 3A       		.byte	0x3a
 1626 0667 6F050000 		.4byte	0x56f
 1627 066b 11       		.uleb128 0x11
 1628 066c 60060000 		.4byte	0x660
 1629 0670 0E       		.uleb128 0xe
 1630 0671 7D020000 		.4byte	.LASF107
 1631 0675 0D       		.byte	0xd
 1632 0676 77       		.byte	0x77
 1633 0677 6B060000 		.4byte	0x66b
 1634 067b 12       		.uleb128 0x12
 1635 067c 79020000 		.4byte	0x279
 1636 0680 8B060000 		.4byte	0x68b
 1637 0684 13       		.uleb128 0x13
 1638 0685 2C000000 		.4byte	0x2c
 1639 0689 26       		.byte	0x26
 1640 068a 00       		.byte	0
 1641 068b 0E       		.uleb128 0xe
 1642 068c EE010000 		.4byte	.LASF108
 1643 0690 0E       		.byte	0xe
 1644 0691 82       		.byte	0x82
 1645 0692 7B060000 		.4byte	0x67b
 1646 0696 14       		.uleb128 0x14
 1647 0697 CA020000 		.4byte	.LASF111
 1648 069b 01       		.byte	0x1
 1649 069c 6801     		.2byte	0x168
 1650 069e FA000000 		.4byte	0xfa
 1651 06a2 00000000 		.4byte	.LFB17
 1652 06a6 54000000 		.4byte	.LFE17-.LFB17
 1653 06aa 01       		.uleb128 0x1
ARM GAS  /var/folders/3j/4xdnk5197cv_b7cw3n33qk7r0000gn/T//ccOqb1Kq.s 			page 30


 1654 06ab 9C       		.byte	0x9c
 1655 06ac E4060000 		.4byte	0x6e4
 1656 06b0 15       		.uleb128 0x15
 1657 06b1 6D627000 		.ascii	"mbp\000"
 1658 06b5 01       		.byte	0x1
 1659 06b6 6801     		.2byte	0x168
 1660 06b8 E4060000 		.4byte	0x6e4
 1661 06bc 00000000 		.4byte	.LLST59
 1662 06c0 16       		.uleb128 0x16
 1663 06c1 14030000 		.4byte	.LASF109
 1664 06c5 01       		.byte	0x1
 1665 06c6 6801     		.2byte	0x168
 1666 06c8 11050000 		.4byte	0x511
 1667 06cc 47000000 		.4byte	.LLST60
 1668 06d0 17       		.uleb128 0x17
 1669 06d1 44000000 		.4byte	.LVL74
 1670 06d5 0C0E0000 		.4byte	0xe0c
 1671 06d9 18       		.uleb128 0x18
 1672 06da 01       		.uleb128 0x1
 1673 06db 50       		.byte	0x50
 1674 06dc 05       		.uleb128 0x5
 1675 06dd F3       		.byte	0xf3
 1676 06de 01       		.uleb128 0x1
 1677 06df 50       		.byte	0x50
 1678 06e0 23       		.byte	0x23
 1679 06e1 1C       		.uleb128 0x1c
 1680 06e2 00       		.byte	0
 1681 06e3 00       		.byte	0
 1682 06e4 0A       		.uleb128 0xa
 1683 06e5 04       		.byte	0x4
 1684 06e6 17050000 		.4byte	0x517
 1685 06ea 19       		.uleb128 0x19
 1686 06eb E3020000 		.4byte	.LASF114
 1687 06ef 01       		.byte	0x1
 1688 06f0 4901     		.2byte	0x149
 1689 06f2 FA000000 		.4byte	0xfa
 1690 06f6 01       		.byte	0x1
 1691 06f7 2C070000 		.4byte	0x72c
 1692 06fb 1A       		.uleb128 0x1a
 1693 06fc 6D627000 		.ascii	"mbp\000"
 1694 0700 01       		.byte	0x1
 1695 0701 4901     		.2byte	0x149
 1696 0703 E4060000 		.4byte	0x6e4
 1697 0707 1B       		.uleb128 0x1b
 1698 0708 14030000 		.4byte	.LASF109
 1699 070c 01       		.byte	0x1
 1700 070d 4901     		.2byte	0x149
 1701 070f 11050000 		.4byte	0x511
 1702 0713 1B       		.uleb128 0x1b
 1703 0714 97030000 		.4byte	.LASF110
 1704 0718 01       		.byte	0x1
 1705 0719 4901     		.2byte	0x149
 1706 071b 10010000 		.4byte	0x110
 1707 071f 1C       		.uleb128 0x1c
 1708 0720 20000000 		.4byte	.LASF83
 1709 0724 01       		.byte	0x1
 1710 0725 4A01     		.2byte	0x14a
ARM GAS  /var/folders/3j/4xdnk5197cv_b7cw3n33qk7r0000gn/T//ccOqb1Kq.s 			page 31


 1711 0727 FA000000 		.4byte	0xfa
 1712 072b 00       		.byte	0
 1713 072c 14       		.uleb128 0x14
 1714 072d 63050000 		.4byte	.LASF112
 1715 0731 01       		.byte	0x1
 1716 0732 2D01     		.2byte	0x12d
 1717 0734 FA000000 		.4byte	0xfa
 1718 0738 00000000 		.4byte	.LFB15
 1719 073c 60000000 		.4byte	.LFE15-.LFB15
 1720 0740 01       		.uleb128 0x1
 1721 0741 9C       		.byte	0x9c
 1722 0742 32080000 		.4byte	0x832
 1723 0746 15       		.uleb128 0x15
 1724 0747 6D627000 		.ascii	"mbp\000"
 1725 074b 01       		.byte	0x1
 1726 074c 2D01     		.2byte	0x12d
 1727 074e E4060000 		.4byte	0x6e4
 1728 0752 73000000 		.4byte	.LLST42
 1729 0756 16       		.uleb128 0x16
 1730 0757 14030000 		.4byte	.LASF109
 1731 075b 01       		.byte	0x1
 1732 075c 2D01     		.2byte	0x12d
 1733 075e 11050000 		.4byte	0x511
 1734 0762 91000000 		.4byte	.LLST43
 1735 0766 16       		.uleb128 0x16
 1736 0767 97030000 		.4byte	.LASF110
 1737 076b 01       		.byte	0x1
 1738 076c 2D01     		.2byte	0x12d
 1739 076e 10010000 		.4byte	0x110
 1740 0772 AF000000 		.4byte	.LLST44
 1741 0776 1C       		.uleb128 0x1c
 1742 0777 20000000 		.4byte	.LASF83
 1743 077b 01       		.byte	0x1
 1744 077c 2E01     		.2byte	0x12e
 1745 077e FA000000 		.4byte	0xfa
 1746 0782 1D       		.uleb128 0x1d
 1747 0783 EA060000 		.4byte	0x6ea
 1748 0787 10000000 		.4byte	.LBB36
 1749 078b 44000000 		.4byte	.LBE36-.LBB36
 1750 078f 01       		.byte	0x1
 1751 0790 3101     		.2byte	0x131
 1752 0792 1E       		.uleb128 0x1e
 1753 0793 13070000 		.4byte	0x713
 1754 0797 D0000000 		.4byte	.LLST45
 1755 079b 1E       		.uleb128 0x1e
 1756 079c 07070000 		.4byte	0x707
 1757 07a0 F1000000 		.4byte	.LLST46
 1758 07a4 1E       		.uleb128 0x1e
 1759 07a5 FB060000 		.4byte	0x6fb
 1760 07a9 0F010000 		.4byte	.LLST47
 1761 07ad 1F       		.uleb128 0x1f
 1762 07ae 10000000 		.4byte	.LBB37
 1763 07b2 44000000 		.4byte	.LBE37-.LBB37
 1764 07b6 20       		.uleb128 0x20
 1765 07b7 1F070000 		.4byte	0x71f
 1766 07bb 2D010000 		.4byte	.LLST48
 1767 07bf 21       		.uleb128 0x21
ARM GAS  /var/folders/3j/4xdnk5197cv_b7cw3n33qk7r0000gn/T//ccOqb1Kq.s 			page 32


 1768 07c0 EA060000 		.4byte	0x6ea
 1769 07c4 24000000 		.4byte	.LBB38
 1770 07c8 30000000 		.4byte	.LBE38-.LBB38
 1771 07cc 18080000 		.4byte	0x818
 1772 07d0 1E       		.uleb128 0x1e
 1773 07d1 13070000 		.4byte	0x713
 1774 07d5 4B010000 		.4byte	.LLST49
 1775 07d9 1E       		.uleb128 0x1e
 1776 07da 07070000 		.4byte	0x707
 1777 07de 61010000 		.4byte	.LLST50
 1778 07e2 1E       		.uleb128 0x1e
 1779 07e3 FB060000 		.4byte	0x6fb
 1780 07e7 74010000 		.4byte	.LLST51
 1781 07eb 1F       		.uleb128 0x1f
 1782 07ec 24000000 		.4byte	.LBB39
 1783 07f0 30000000 		.4byte	.LBE39-.LBB39
 1784 07f4 22       		.uleb128 0x22
 1785 07f5 1F070000 		.4byte	0x71f
 1786 07f9 23       		.uleb128 0x23
 1787 07fa 50000000 		.4byte	.LVL62
 1788 07fe 0C0E0000 		.4byte	0xe0c
 1789 0802 0D080000 		.4byte	0x80d
 1790 0806 18       		.uleb128 0x18
 1791 0807 01       		.uleb128 0x1
 1792 0808 50       		.byte	0x50
 1793 0809 02       		.uleb128 0x2
 1794 080a 74       		.byte	0x74
 1795 080b 1C       		.sleb128 28
 1796 080c 00       		.byte	0
 1797 080d 24       		.uleb128 0x24
 1798 080e 54000000 		.4byte	.LVL63
 1799 0812 170E0000 		.4byte	0xe17
 1800 0816 00       		.byte	0
 1801 0817 00       		.byte	0
 1802 0818 17       		.uleb128 0x17
 1803 0819 1C000000 		.4byte	.LVL59
 1804 081d 220E0000 		.4byte	0xe22
 1805 0821 18       		.uleb128 0x18
 1806 0822 01       		.uleb128 0x1
 1807 0823 50       		.byte	0x50
 1808 0824 02       		.uleb128 0x2
 1809 0825 74       		.byte	0x74
 1810 0826 10       		.sleb128 16
 1811 0827 18       		.uleb128 0x18
 1812 0828 01       		.uleb128 0x1
 1813 0829 51       		.byte	0x51
 1814 082a 03       		.uleb128 0x3
 1815 082b F3       		.byte	0xf3
 1816 082c 01       		.uleb128 0x1
 1817 082d 52       		.byte	0x52
 1818 082e 00       		.byte	0
 1819 082f 00       		.byte	0
 1820 0830 00       		.byte	0
 1821 0831 00       		.byte	0
 1822 0832 14       		.uleb128 0x14
 1823 0833 5D000000 		.4byte	.LASF113
 1824 0837 01       		.byte	0x1
ARM GAS  /var/folders/3j/4xdnk5197cv_b7cw3n33qk7r0000gn/T//ccOqb1Kq.s 			page 33


 1825 0838 0B01     		.2byte	0x10b
 1826 083a FA000000 		.4byte	0xfa
 1827 083e 00000000 		.4byte	.LFB14
 1828 0842 54000000 		.4byte	.LFE14-.LFB14
 1829 0846 01       		.uleb128 0x1
 1830 0847 9C       		.byte	0x9c
 1831 0848 80080000 		.4byte	0x880
 1832 084c 15       		.uleb128 0x15
 1833 084d 6D627000 		.ascii	"mbp\000"
 1834 0851 01       		.byte	0x1
 1835 0852 0B01     		.2byte	0x10b
 1836 0854 E4060000 		.4byte	0x6e4
 1837 0858 87010000 		.4byte	.LLST40
 1838 085c 15       		.uleb128 0x15
 1839 085d 6D736700 		.ascii	"msg\000"
 1840 0861 01       		.byte	0x1
 1841 0862 0B01     		.2byte	0x10b
 1842 0864 FA000000 		.4byte	0xfa
 1843 0868 CE010000 		.4byte	.LLST41
 1844 086c 17       		.uleb128 0x17
 1845 086d 44000000 		.4byte	.LVL52
 1846 0871 0C0E0000 		.4byte	0xe0c
 1847 0875 18       		.uleb128 0x18
 1848 0876 01       		.uleb128 0x1
 1849 0877 50       		.byte	0x50
 1850 0878 05       		.uleb128 0x5
 1851 0879 F3       		.byte	0xf3
 1852 087a 01       		.uleb128 0x1
 1853 087b 50       		.byte	0x50
 1854 087c 23       		.byte	0x23
 1855 087d 10       		.uleb128 0x10
 1856 087e 00       		.byte	0
 1857 087f 00       		.byte	0
 1858 0880 25       		.uleb128 0x25
 1859 0881 A3000000 		.4byte	.LASF115
 1860 0885 01       		.byte	0x1
 1861 0886 EC       		.byte	0xec
 1862 0887 FA000000 		.4byte	0xfa
 1863 088b 01       		.byte	0x1
 1864 088c BD080000 		.4byte	0x8bd
 1865 0890 26       		.uleb128 0x26
 1866 0891 6D627000 		.ascii	"mbp\000"
 1867 0895 01       		.byte	0x1
 1868 0896 EC       		.byte	0xec
 1869 0897 E4060000 		.4byte	0x6e4
 1870 089b 26       		.uleb128 0x26
 1871 089c 6D736700 		.ascii	"msg\000"
 1872 08a0 01       		.byte	0x1
 1873 08a1 EC       		.byte	0xec
 1874 08a2 FA000000 		.4byte	0xfa
 1875 08a6 27       		.uleb128 0x27
 1876 08a7 97030000 		.4byte	.LASF110
 1877 08ab 01       		.byte	0x1
 1878 08ac EC       		.byte	0xec
 1879 08ad 10010000 		.4byte	0x110
 1880 08b1 28       		.uleb128 0x28
 1881 08b2 20000000 		.4byte	.LASF83
ARM GAS  /var/folders/3j/4xdnk5197cv_b7cw3n33qk7r0000gn/T//ccOqb1Kq.s 			page 34


 1882 08b6 01       		.byte	0x1
 1883 08b7 ED       		.byte	0xed
 1884 08b8 FA000000 		.4byte	0xfa
 1885 08bc 00       		.byte	0
 1886 08bd 29       		.uleb128 0x29
 1887 08be 43050000 		.4byte	.LASF116
 1888 08c2 01       		.byte	0x1
 1889 08c3 D0       		.byte	0xd0
 1890 08c4 FA000000 		.4byte	0xfa
 1891 08c8 00000000 		.4byte	.LFB12
 1892 08cc 60000000 		.4byte	.LFE12-.LFB12
 1893 08d0 01       		.uleb128 0x1
 1894 08d1 9C       		.byte	0x9c
 1895 08d2 BD090000 		.4byte	0x9bd
 1896 08d6 2A       		.uleb128 0x2a
 1897 08d7 6D627000 		.ascii	"mbp\000"
 1898 08db 01       		.byte	0x1
 1899 08dc D0       		.byte	0xd0
 1900 08dd E4060000 		.4byte	0x6e4
 1901 08e1 FA010000 		.4byte	.LLST23
 1902 08e5 2A       		.uleb128 0x2a
 1903 08e6 6D736700 		.ascii	"msg\000"
 1904 08ea 01       		.byte	0x1
 1905 08eb D0       		.byte	0xd0
 1906 08ec FA000000 		.4byte	0xfa
 1907 08f0 18020000 		.4byte	.LLST24
 1908 08f4 2B       		.uleb128 0x2b
 1909 08f5 97030000 		.4byte	.LASF110
 1910 08f9 01       		.byte	0x1
 1911 08fa D0       		.byte	0xd0
 1912 08fb 10010000 		.4byte	0x110
 1913 08ff 36020000 		.4byte	.LLST25
 1914 0903 28       		.uleb128 0x28
 1915 0904 20000000 		.4byte	.LASF83
 1916 0908 01       		.byte	0x1
 1917 0909 D1       		.byte	0xd1
 1918 090a FA000000 		.4byte	0xfa
 1919 090e 2C       		.uleb128 0x2c
 1920 090f 80080000 		.4byte	0x880
 1921 0913 10000000 		.4byte	.LBB24
 1922 0917 44000000 		.4byte	.LBE24-.LBB24
 1923 091b 01       		.byte	0x1
 1924 091c D4       		.byte	0xd4
 1925 091d 1E       		.uleb128 0x1e
 1926 091e A6080000 		.4byte	0x8a6
 1927 0922 57020000 		.4byte	.LLST26
 1928 0926 1E       		.uleb128 0x1e
 1929 0927 9B080000 		.4byte	0x89b
 1930 092b 78020000 		.4byte	.LLST27
 1931 092f 1E       		.uleb128 0x1e
 1932 0930 90080000 		.4byte	0x890
 1933 0934 96020000 		.4byte	.LLST28
 1934 0938 1F       		.uleb128 0x1f
 1935 0939 10000000 		.4byte	.LBB25
 1936 093d 44000000 		.4byte	.LBE25-.LBB25
 1937 0941 20       		.uleb128 0x20
 1938 0942 B1080000 		.4byte	0x8b1
ARM GAS  /var/folders/3j/4xdnk5197cv_b7cw3n33qk7r0000gn/T//ccOqb1Kq.s 			page 35


 1939 0946 B4020000 		.4byte	.LLST29
 1940 094a 21       		.uleb128 0x21
 1941 094b 80080000 		.4byte	0x880
 1942 094f 24000000 		.4byte	.LBB26
 1943 0953 30000000 		.4byte	.LBE26-.LBB26
 1944 0957 A3090000 		.4byte	0x9a3
 1945 095b 1E       		.uleb128 0x1e
 1946 095c A6080000 		.4byte	0x8a6
 1947 0960 D2020000 		.4byte	.LLST30
 1948 0964 1E       		.uleb128 0x1e
 1949 0965 9B080000 		.4byte	0x89b
 1950 0969 E8020000 		.4byte	.LLST31
 1951 096d 1E       		.uleb128 0x1e
 1952 096e 90080000 		.4byte	0x890
 1953 0972 FB020000 		.4byte	.LLST32
 1954 0976 1F       		.uleb128 0x1f
 1955 0977 24000000 		.4byte	.LBB27
 1956 097b 30000000 		.4byte	.LBE27-.LBB27
 1957 097f 22       		.uleb128 0x22
 1958 0980 B1080000 		.4byte	0x8b1
 1959 0984 23       		.uleb128 0x23
 1960 0985 50000000 		.4byte	.LVL40
 1961 0989 0C0E0000 		.4byte	0xe0c
 1962 098d 98090000 		.4byte	0x998
 1963 0991 18       		.uleb128 0x18
 1964 0992 01       		.uleb128 0x1
 1965 0993 50       		.byte	0x50
 1966 0994 02       		.uleb128 0x2
 1967 0995 74       		.byte	0x74
 1968 0996 10       		.sleb128 16
 1969 0997 00       		.byte	0
 1970 0998 24       		.uleb128 0x24
 1971 0999 54000000 		.4byte	.LVL41
 1972 099d 170E0000 		.4byte	0xe17
 1973 09a1 00       		.byte	0
 1974 09a2 00       		.byte	0
 1975 09a3 17       		.uleb128 0x17
 1976 09a4 1C000000 		.4byte	.LVL37
 1977 09a8 220E0000 		.4byte	0xe22
 1978 09ac 18       		.uleb128 0x18
 1979 09ad 01       		.uleb128 0x1
 1980 09ae 50       		.byte	0x50
 1981 09af 02       		.uleb128 0x2
 1982 09b0 74       		.byte	0x74
 1983 09b1 1C       		.sleb128 28
 1984 09b2 18       		.uleb128 0x18
 1985 09b3 01       		.uleb128 0x1
 1986 09b4 51       		.byte	0x51
 1987 09b5 03       		.uleb128 0x3
 1988 09b6 F3       		.byte	0xf3
 1989 09b7 01       		.uleb128 0x1
 1990 09b8 52       		.byte	0x52
 1991 09b9 00       		.byte	0
 1992 09ba 00       		.byte	0
 1993 09bb 00       		.byte	0
 1994 09bc 00       		.byte	0
 1995 09bd 29       		.uleb128 0x29
ARM GAS  /var/folders/3j/4xdnk5197cv_b7cw3n33qk7r0000gn/T//ccOqb1Kq.s 			page 36


 1996 09be 3A000000 		.4byte	.LASF117
 1997 09c2 01       		.byte	0x1
 1998 09c3 AE       		.byte	0xae
 1999 09c4 FA000000 		.4byte	0xfa
 2000 09c8 00000000 		.4byte	.LFB11
 2001 09cc 50000000 		.4byte	.LFE11-.LFB11
 2002 09d0 01       		.uleb128 0x1
 2003 09d1 9C       		.byte	0x9c
 2004 09d2 080A0000 		.4byte	0xa08
 2005 09d6 2A       		.uleb128 0x2a
 2006 09d7 6D627000 		.ascii	"mbp\000"
 2007 09db 01       		.byte	0x1
 2008 09dc AE       		.byte	0xae
 2009 09dd E4060000 		.4byte	0x6e4
 2010 09e1 0E030000 		.4byte	.LLST21
 2011 09e5 2A       		.uleb128 0x2a
 2012 09e6 6D736700 		.ascii	"msg\000"
 2013 09ea 01       		.byte	0x1
 2014 09eb AE       		.byte	0xae
 2015 09ec FA000000 		.4byte	0xfa
 2016 09f0 55030000 		.4byte	.LLST22
 2017 09f4 17       		.uleb128 0x17
 2018 09f5 40000000 		.4byte	.LVL30
 2019 09f9 0C0E0000 		.4byte	0xe0c
 2020 09fd 18       		.uleb128 0x18
 2021 09fe 01       		.uleb128 0x1
 2022 09ff 50       		.byte	0x50
 2023 0a00 05       		.uleb128 0x5
 2024 0a01 F3       		.byte	0xf3
 2025 0a02 01       		.uleb128 0x1
 2026 0a03 50       		.byte	0x50
 2027 0a04 23       		.byte	0x23
 2028 0a05 10       		.uleb128 0x10
 2029 0a06 00       		.byte	0
 2030 0a07 00       		.byte	0
 2031 0a08 25       		.uleb128 0x25
 2032 0a09 4B000000 		.4byte	.LASF118
 2033 0a0d 01       		.byte	0x1
 2034 0a0e 8F       		.byte	0x8f
 2035 0a0f FA000000 		.4byte	0xfa
 2036 0a13 01       		.byte	0x1
 2037 0a14 450A0000 		.4byte	0xa45
 2038 0a18 26       		.uleb128 0x26
 2039 0a19 6D627000 		.ascii	"mbp\000"
 2040 0a1d 01       		.byte	0x1
 2041 0a1e 8F       		.byte	0x8f
 2042 0a1f E4060000 		.4byte	0x6e4
 2043 0a23 26       		.uleb128 0x26
 2044 0a24 6D736700 		.ascii	"msg\000"
 2045 0a28 01       		.byte	0x1
 2046 0a29 8F       		.byte	0x8f
 2047 0a2a FA000000 		.4byte	0xfa
 2048 0a2e 27       		.uleb128 0x27
 2049 0a2f 97030000 		.4byte	.LASF110
 2050 0a33 01       		.byte	0x1
 2051 0a34 8F       		.byte	0x8f
 2052 0a35 10010000 		.4byte	0x110
ARM GAS  /var/folders/3j/4xdnk5197cv_b7cw3n33qk7r0000gn/T//ccOqb1Kq.s 			page 37


 2053 0a39 28       		.uleb128 0x28
 2054 0a3a 20000000 		.4byte	.LASF83
 2055 0a3e 01       		.byte	0x1
 2056 0a3f 90       		.byte	0x90
 2057 0a40 FA000000 		.4byte	0xfa
 2058 0a44 00       		.byte	0
 2059 0a45 29       		.uleb128 0x29
 2060 0a46 98040000 		.4byte	.LASF119
 2061 0a4a 01       		.byte	0x1
 2062 0a4b 73       		.byte	0x73
 2063 0a4c FA000000 		.4byte	0xfa
 2064 0a50 00000000 		.4byte	.LFB9
 2065 0a54 58000000 		.4byte	.LFE9-.LFB9
 2066 0a58 01       		.uleb128 0x1
 2067 0a59 9C       		.byte	0x9c
 2068 0a5a 450B0000 		.4byte	0xb45
 2069 0a5e 2A       		.uleb128 0x2a
 2070 0a5f 6D627000 		.ascii	"mbp\000"
 2071 0a63 01       		.byte	0x1
 2072 0a64 73       		.byte	0x73
 2073 0a65 E4060000 		.4byte	0x6e4
 2074 0a69 81030000 		.4byte	.LLST4
 2075 0a6d 2A       		.uleb128 0x2a
 2076 0a6e 6D736700 		.ascii	"msg\000"
 2077 0a72 01       		.byte	0x1
 2078 0a73 73       		.byte	0x73
 2079 0a74 FA000000 		.4byte	0xfa
 2080 0a78 9F030000 		.4byte	.LLST5
 2081 0a7c 2B       		.uleb128 0x2b
 2082 0a7d 97030000 		.4byte	.LASF110
 2083 0a81 01       		.byte	0x1
 2084 0a82 73       		.byte	0x73
 2085 0a83 10010000 		.4byte	0x110
 2086 0a87 BD030000 		.4byte	.LLST6
 2087 0a8b 28       		.uleb128 0x28
 2088 0a8c 20000000 		.4byte	.LASF83
 2089 0a90 01       		.byte	0x1
 2090 0a91 74       		.byte	0x74
 2091 0a92 FA000000 		.4byte	0xfa
 2092 0a96 2C       		.uleb128 0x2c
 2093 0a97 080A0000 		.4byte	0xa08
 2094 0a9b 10000000 		.4byte	.LBB12
 2095 0a9f 3C000000 		.4byte	.LBE12-.LBB12
 2096 0aa3 01       		.byte	0x1
 2097 0aa4 77       		.byte	0x77
 2098 0aa5 1E       		.uleb128 0x1e
 2099 0aa6 2E0A0000 		.4byte	0xa2e
 2100 0aaa DE030000 		.4byte	.LLST7
 2101 0aae 1E       		.uleb128 0x1e
 2102 0aaf 230A0000 		.4byte	0xa23
 2103 0ab3 FF030000 		.4byte	.LLST8
 2104 0ab7 1E       		.uleb128 0x1e
 2105 0ab8 180A0000 		.4byte	0xa18
 2106 0abc 1D040000 		.4byte	.LLST9
 2107 0ac0 1F       		.uleb128 0x1f
 2108 0ac1 10000000 		.4byte	.LBB13
 2109 0ac5 3C000000 		.4byte	.LBE13-.LBB13
ARM GAS  /var/folders/3j/4xdnk5197cv_b7cw3n33qk7r0000gn/T//ccOqb1Kq.s 			page 38


 2110 0ac9 20       		.uleb128 0x20
 2111 0aca 390A0000 		.4byte	0xa39
 2112 0ace 3B040000 		.4byte	.LLST10
 2113 0ad2 21       		.uleb128 0x21
 2114 0ad3 080A0000 		.4byte	0xa08
 2115 0ad7 24000000 		.4byte	.LBB14
 2116 0adb 28000000 		.4byte	.LBE14-.LBB14
 2117 0adf 2B0B0000 		.4byte	0xb2b
 2118 0ae3 1E       		.uleb128 0x1e
 2119 0ae4 2E0A0000 		.4byte	0xa2e
 2120 0ae8 59040000 		.4byte	.LLST11
 2121 0aec 1E       		.uleb128 0x1e
 2122 0aed 230A0000 		.4byte	0xa23
 2123 0af1 6F040000 		.4byte	.LLST12
 2124 0af5 1E       		.uleb128 0x1e
 2125 0af6 180A0000 		.4byte	0xa18
 2126 0afa 82040000 		.4byte	.LLST13
 2127 0afe 1F       		.uleb128 0x1f
 2128 0aff 24000000 		.4byte	.LBB15
 2129 0b03 28000000 		.4byte	.LBE15-.LBB15
 2130 0b07 22       		.uleb128 0x22
 2131 0b08 390A0000 		.4byte	0xa39
 2132 0b0c 23       		.uleb128 0x23
 2133 0b0d 48000000 		.4byte	.LVL18
 2134 0b11 0C0E0000 		.4byte	0xe0c
 2135 0b15 200B0000 		.4byte	0xb20
 2136 0b19 18       		.uleb128 0x18
 2137 0b1a 01       		.uleb128 0x1
 2138 0b1b 50       		.byte	0x50
 2139 0b1c 02       		.uleb128 0x2
 2140 0b1d 74       		.byte	0x74
 2141 0b1e 10       		.sleb128 16
 2142 0b1f 00       		.byte	0
 2143 0b20 24       		.uleb128 0x24
 2144 0b21 4C000000 		.4byte	.LVL19
 2145 0b25 170E0000 		.4byte	0xe17
 2146 0b29 00       		.byte	0
 2147 0b2a 00       		.byte	0
 2148 0b2b 17       		.uleb128 0x17
 2149 0b2c 1C000000 		.4byte	.LVL15
 2150 0b30 220E0000 		.4byte	0xe22
 2151 0b34 18       		.uleb128 0x18
 2152 0b35 01       		.uleb128 0x1
 2153 0b36 50       		.byte	0x50
 2154 0b37 02       		.uleb128 0x2
 2155 0b38 74       		.byte	0x74
 2156 0b39 1C       		.sleb128 28
 2157 0b3a 18       		.uleb128 0x18
 2158 0b3b 01       		.uleb128 0x1
 2159 0b3c 51       		.byte	0x51
 2160 0b3d 03       		.uleb128 0x3
 2161 0b3e F3       		.byte	0xf3
 2162 0b3f 01       		.uleb128 0x1
 2163 0b40 52       		.byte	0x52
 2164 0b41 00       		.byte	0
 2165 0b42 00       		.byte	0
 2166 0b43 00       		.byte	0
ARM GAS  /var/folders/3j/4xdnk5197cv_b7cw3n33qk7r0000gn/T//ccOqb1Kq.s 			page 39


 2167 0b44 00       		.byte	0
 2168 0b45 2D       		.uleb128 0x2d
 2169 0b46 54030000 		.4byte	.LASF120
 2170 0b4a 01       		.byte	0x1
 2171 0b4b 54       		.byte	0x54
 2172 0b4c 00000000 		.4byte	.LFB8
 2173 0b50 44000000 		.4byte	.LFE8-.LFB8
 2174 0b54 01       		.uleb128 0x1
 2175 0b55 9C       		.byte	0x9c
 2176 0b56 A00B0000 		.4byte	0xba0
 2177 0b5a 2A       		.uleb128 0x2a
 2178 0b5b 6D627000 		.ascii	"mbp\000"
 2179 0b5f 01       		.byte	0x1
 2180 0b60 54       		.byte	0x54
 2181 0b61 E4060000 		.4byte	0x6e4
 2182 0b65 95040000 		.4byte	.LLST3
 2183 0b69 23       		.uleb128 0x23
 2184 0b6a 2C000000 		.4byte	.LVL8
 2185 0b6e 2D0E0000 		.4byte	0xe2d
 2186 0b72 7D0B0000 		.4byte	0xb7d
 2187 0b76 18       		.uleb128 0x18
 2188 0b77 01       		.uleb128 0x1
 2189 0b78 50       		.byte	0x50
 2190 0b79 02       		.uleb128 0x2
 2191 0b7a 74       		.byte	0x74
 2192 0b7b 1C       		.sleb128 28
 2193 0b7c 00       		.byte	0
 2194 0b7d 23       		.uleb128 0x23
 2195 0b7e 38000000 		.4byte	.LVL9
 2196 0b82 2D0E0000 		.4byte	0xe2d
 2197 0b86 960B0000 		.4byte	0xb96
 2198 0b8a 18       		.uleb128 0x18
 2199 0b8b 01       		.uleb128 0x1
 2200 0b8c 50       		.byte	0x50
 2201 0b8d 02       		.uleb128 0x2
 2202 0b8e 74       		.byte	0x74
 2203 0b8f 10       		.sleb128 16
 2204 0b90 18       		.uleb128 0x18
 2205 0b91 01       		.uleb128 0x1
 2206 0b92 51       		.byte	0x51
 2207 0b93 01       		.uleb128 0x1
 2208 0b94 30       		.byte	0x30
 2209 0b95 00       		.byte	0
 2210 0b96 24       		.uleb128 0x24
 2211 0b97 3C000000 		.4byte	.LVL10
 2212 0b9b 170E0000 		.4byte	0xe17
 2213 0b9f 00       		.byte	0
 2214 0ba0 2D       		.uleb128 0x2d
 2215 0ba1 9A000000 		.4byte	.LASF121
 2216 0ba5 01       		.byte	0x1
 2217 0ba6 41       		.byte	0x41
 2218 0ba7 00000000 		.4byte	.LFB7
 2219 0bab 3C000000 		.4byte	.LFE7-.LFB7
 2220 0baf 01       		.uleb128 0x1
 2221 0bb0 9C       		.byte	0x9c
 2222 0bb1 140C0000 		.4byte	0xc14
 2223 0bb5 2A       		.uleb128 0x2a
ARM GAS  /var/folders/3j/4xdnk5197cv_b7cw3n33qk7r0000gn/T//ccOqb1Kq.s 			page 40


 2224 0bb6 6D627000 		.ascii	"mbp\000"
 2225 0bba 01       		.byte	0x1
 2226 0bbb 41       		.byte	0x41
 2227 0bbc E4060000 		.4byte	0x6e4
 2228 0bc0 B3040000 		.4byte	.LLST0
 2229 0bc4 2A       		.uleb128 0x2a
 2230 0bc5 62756600 		.ascii	"buf\000"
 2231 0bc9 01       		.byte	0x1
 2232 0bca 41       		.byte	0x41
 2233 0bcb 11050000 		.4byte	0x511
 2234 0bcf EC040000 		.4byte	.LLST1
 2235 0bd3 2A       		.uleb128 0x2a
 2236 0bd4 6E00     		.ascii	"n\000"
 2237 0bd6 01       		.byte	0x1
 2238 0bd7 41       		.byte	0x41
 2239 0bd8 20010000 		.4byte	0x120
 2240 0bdc 18050000 		.4byte	.LLST2
 2241 0be0 23       		.uleb128 0x23
 2242 0be1 2C000000 		.4byte	.LVL3
 2243 0be5 380E0000 		.4byte	0xe38
 2244 0be9 FB0B0000 		.4byte	0xbfb
 2245 0bed 18       		.uleb128 0x18
 2246 0bee 01       		.uleb128 0x1
 2247 0bef 50       		.byte	0x50
 2248 0bf0 02       		.uleb128 0x2
 2249 0bf1 74       		.byte	0x74
 2250 0bf2 1C       		.sleb128 28
 2251 0bf3 18       		.uleb128 0x18
 2252 0bf4 01       		.uleb128 0x1
 2253 0bf5 51       		.byte	0x51
 2254 0bf6 03       		.uleb128 0x3
 2255 0bf7 F3       		.byte	0xf3
 2256 0bf8 01       		.uleb128 0x1
 2257 0bf9 52       		.byte	0x52
 2258 0bfa 00       		.byte	0
 2259 0bfb 2E       		.uleb128 0x2e
 2260 0bfc 3C000000 		.4byte	.LVL5
 2261 0c00 380E0000 		.4byte	0xe38
 2262 0c04 18       		.uleb128 0x18
 2263 0c05 01       		.uleb128 0x1
 2264 0c06 50       		.byte	0x50
 2265 0c07 05       		.uleb128 0x5
 2266 0c08 F3       		.byte	0xf3
 2267 0c09 01       		.uleb128 0x1
 2268 0c0a 50       		.byte	0x50
 2269 0c0b 23       		.byte	0x23
 2270 0c0c 10       		.uleb128 0x10
 2271 0c0d 18       		.uleb128 0x18
 2272 0c0e 01       		.uleb128 0x1
 2273 0c0f 51       		.byte	0x51
 2274 0c10 01       		.uleb128 0x1
 2275 0c11 30       		.byte	0x30
 2276 0c12 00       		.byte	0
 2277 0c13 00       		.byte	0
 2278 0c14 2F       		.uleb128 0x2f
 2279 0c15 080A0000 		.4byte	0xa08
 2280 0c19 00000000 		.4byte	.LFB10
ARM GAS  /var/folders/3j/4xdnk5197cv_b7cw3n33qk7r0000gn/T//ccOqb1Kq.s 			page 41


 2281 0c1d 50000000 		.4byte	.LFE10-.LFB10
 2282 0c21 01       		.uleb128 0x1
 2283 0c22 9C       		.byte	0x9c
 2284 0c23 BC0C0000 		.4byte	0xcbc
 2285 0c27 1E       		.uleb128 0x1e
 2286 0c28 180A0000 		.4byte	0xa18
 2287 0c2c 39050000 		.4byte	.LLST14
 2288 0c30 1E       		.uleb128 0x1e
 2289 0c31 230A0000 		.4byte	0xa23
 2290 0c35 57050000 		.4byte	.LLST15
 2291 0c39 1E       		.uleb128 0x1e
 2292 0c3a 2E0A0000 		.4byte	0xa2e
 2293 0c3e 75050000 		.4byte	.LLST16
 2294 0c42 20       		.uleb128 0x20
 2295 0c43 390A0000 		.4byte	0xa39
 2296 0c47 96050000 		.4byte	.LLST17
 2297 0c4b 21       		.uleb128 0x21
 2298 0c4c 080A0000 		.4byte	0xa08
 2299 0c50 20000000 		.4byte	.LBB18
 2300 0c54 28000000 		.4byte	.LBE18-.LBB18
 2301 0c58 A40C0000 		.4byte	0xca4
 2302 0c5c 1E       		.uleb128 0x1e
 2303 0c5d 2E0A0000 		.4byte	0xa2e
 2304 0c61 B4050000 		.4byte	.LLST18
 2305 0c65 1E       		.uleb128 0x1e
 2306 0c66 230A0000 		.4byte	0xa23
 2307 0c6a CA050000 		.4byte	.LLST19
 2308 0c6e 1E       		.uleb128 0x1e
 2309 0c6f 180A0000 		.4byte	0xa18
 2310 0c73 DD050000 		.4byte	.LLST20
 2311 0c77 1F       		.uleb128 0x1f
 2312 0c78 20000000 		.4byte	.LBB19
 2313 0c7c 28000000 		.4byte	.LBE19-.LBB19
 2314 0c80 22       		.uleb128 0x22
 2315 0c81 420C0000 		.4byte	0xc42
 2316 0c85 23       		.uleb128 0x23
 2317 0c86 44000000 		.4byte	.LVL26
 2318 0c8a 0C0E0000 		.4byte	0xe0c
 2319 0c8e 990C0000 		.4byte	0xc99
 2320 0c92 18       		.uleb128 0x18
 2321 0c93 01       		.uleb128 0x1
 2322 0c94 50       		.byte	0x50
 2323 0c95 02       		.uleb128 0x2
 2324 0c96 74       		.byte	0x74
 2325 0c97 10       		.sleb128 16
 2326 0c98 00       		.byte	0
 2327 0c99 24       		.uleb128 0x24
 2328 0c9a 48000000 		.4byte	.LVL27
 2329 0c9e 170E0000 		.4byte	0xe17
 2330 0ca2 00       		.byte	0
 2331 0ca3 00       		.byte	0
 2332 0ca4 17       		.uleb128 0x17
 2333 0ca5 18000000 		.4byte	.LVL23
 2334 0ca9 220E0000 		.4byte	0xe22
 2335 0cad 18       		.uleb128 0x18
 2336 0cae 01       		.uleb128 0x1
 2337 0caf 50       		.byte	0x50
ARM GAS  /var/folders/3j/4xdnk5197cv_b7cw3n33qk7r0000gn/T//ccOqb1Kq.s 			page 42


 2338 0cb0 02       		.uleb128 0x2
 2339 0cb1 74       		.byte	0x74
 2340 0cb2 1C       		.sleb128 28
 2341 0cb3 18       		.uleb128 0x18
 2342 0cb4 01       		.uleb128 0x1
 2343 0cb5 51       		.byte	0x51
 2344 0cb6 03       		.uleb128 0x3
 2345 0cb7 F3       		.byte	0xf3
 2346 0cb8 01       		.uleb128 0x1
 2347 0cb9 52       		.byte	0x52
 2348 0cba 00       		.byte	0
 2349 0cbb 00       		.byte	0
 2350 0cbc 2F       		.uleb128 0x2f
 2351 0cbd 80080000 		.4byte	0x880
 2352 0cc1 00000000 		.4byte	.LFB13
 2353 0cc5 58000000 		.4byte	.LFE13-.LFB13
 2354 0cc9 01       		.uleb128 0x1
 2355 0cca 9C       		.byte	0x9c
 2356 0ccb 640D0000 		.4byte	0xd64
 2357 0ccf 1E       		.uleb128 0x1e
 2358 0cd0 90080000 		.4byte	0x890
 2359 0cd4 F0050000 		.4byte	.LLST33
 2360 0cd8 1E       		.uleb128 0x1e
 2361 0cd9 9B080000 		.4byte	0x89b
 2362 0cdd 0E060000 		.4byte	.LLST34
 2363 0ce1 1E       		.uleb128 0x1e
 2364 0ce2 A6080000 		.4byte	0x8a6
 2365 0ce6 2C060000 		.4byte	.LLST35
 2366 0cea 20       		.uleb128 0x20
 2367 0ceb B1080000 		.4byte	0x8b1
 2368 0cef 4D060000 		.4byte	.LLST36
 2369 0cf3 21       		.uleb128 0x21
 2370 0cf4 80080000 		.4byte	0x880
 2371 0cf8 20000000 		.4byte	.LBB30
 2372 0cfc 30000000 		.4byte	.LBE30-.LBB30
 2373 0d00 4C0D0000 		.4byte	0xd4c
 2374 0d04 1E       		.uleb128 0x1e
 2375 0d05 A6080000 		.4byte	0x8a6
 2376 0d09 6B060000 		.4byte	.LLST37
 2377 0d0d 1E       		.uleb128 0x1e
 2378 0d0e 9B080000 		.4byte	0x89b
 2379 0d12 81060000 		.4byte	.LLST38
 2380 0d16 1E       		.uleb128 0x1e
 2381 0d17 90080000 		.4byte	0x890
 2382 0d1b 94060000 		.4byte	.LLST39
 2383 0d1f 1F       		.uleb128 0x1f
 2384 0d20 20000000 		.4byte	.LBB31
 2385 0d24 30000000 		.4byte	.LBE31-.LBB31
 2386 0d28 22       		.uleb128 0x22
 2387 0d29 EA0C0000 		.4byte	0xcea
 2388 0d2d 23       		.uleb128 0x23
 2389 0d2e 4C000000 		.4byte	.LVL48
 2390 0d32 0C0E0000 		.4byte	0xe0c
 2391 0d36 410D0000 		.4byte	0xd41
 2392 0d3a 18       		.uleb128 0x18
 2393 0d3b 01       		.uleb128 0x1
 2394 0d3c 50       		.byte	0x50
ARM GAS  /var/folders/3j/4xdnk5197cv_b7cw3n33qk7r0000gn/T//ccOqb1Kq.s 			page 43


 2395 0d3d 02       		.uleb128 0x2
 2396 0d3e 74       		.byte	0x74
 2397 0d3f 10       		.sleb128 16
 2398 0d40 00       		.byte	0
 2399 0d41 24       		.uleb128 0x24
 2400 0d42 50000000 		.4byte	.LVL49
 2401 0d46 170E0000 		.4byte	0xe17
 2402 0d4a 00       		.byte	0
 2403 0d4b 00       		.byte	0
 2404 0d4c 17       		.uleb128 0x17
 2405 0d4d 18000000 		.4byte	.LVL45
 2406 0d51 220E0000 		.4byte	0xe22
 2407 0d55 18       		.uleb128 0x18
 2408 0d56 01       		.uleb128 0x1
 2409 0d57 50       		.byte	0x50
 2410 0d58 02       		.uleb128 0x2
 2411 0d59 74       		.byte	0x74
 2412 0d5a 1C       		.sleb128 28
 2413 0d5b 18       		.uleb128 0x18
 2414 0d5c 01       		.uleb128 0x1
 2415 0d5d 51       		.byte	0x51
 2416 0d5e 03       		.uleb128 0x3
 2417 0d5f F3       		.byte	0xf3
 2418 0d60 01       		.uleb128 0x1
 2419 0d61 52       		.byte	0x52
 2420 0d62 00       		.byte	0
 2421 0d63 00       		.byte	0
 2422 0d64 2F       		.uleb128 0x2f
 2423 0d65 EA060000 		.4byte	0x6ea
 2424 0d69 00000000 		.4byte	.LFB16
 2425 0d6d 58000000 		.4byte	.LFE16-.LFB16
 2426 0d71 01       		.uleb128 0x1
 2427 0d72 9C       		.byte	0x9c
 2428 0d73 0C0E0000 		.4byte	0xe0c
 2429 0d77 1E       		.uleb128 0x1e
 2430 0d78 FB060000 		.4byte	0x6fb
 2431 0d7c A7060000 		.4byte	.LLST52
 2432 0d80 1E       		.uleb128 0x1e
 2433 0d81 07070000 		.4byte	0x707
 2434 0d85 C5060000 		.4byte	.LLST53
 2435 0d89 1E       		.uleb128 0x1e
 2436 0d8a 13070000 		.4byte	0x713
 2437 0d8e E3060000 		.4byte	.LLST54
 2438 0d92 20       		.uleb128 0x20
 2439 0d93 1F070000 		.4byte	0x71f
 2440 0d97 04070000 		.4byte	.LLST55
 2441 0d9b 21       		.uleb128 0x21
 2442 0d9c EA060000 		.4byte	0x6ea
 2443 0da0 20000000 		.4byte	.LBB42
 2444 0da4 30000000 		.4byte	.LBE42-.LBB42
 2445 0da8 F40D0000 		.4byte	0xdf4
 2446 0dac 1E       		.uleb128 0x1e
 2447 0dad 13070000 		.4byte	0x713
 2448 0db1 22070000 		.4byte	.LLST56
 2449 0db5 1E       		.uleb128 0x1e
 2450 0db6 07070000 		.4byte	0x707
 2451 0dba 38070000 		.4byte	.LLST57
ARM GAS  /var/folders/3j/4xdnk5197cv_b7cw3n33qk7r0000gn/T//ccOqb1Kq.s 			page 44


 2452 0dbe 1E       		.uleb128 0x1e
 2453 0dbf FB060000 		.4byte	0x6fb
 2454 0dc3 4B070000 		.4byte	.LLST58
 2455 0dc7 1F       		.uleb128 0x1f
 2456 0dc8 20000000 		.4byte	.LBB43
 2457 0dcc 30000000 		.4byte	.LBE43-.LBB43
 2458 0dd0 22       		.uleb128 0x22
 2459 0dd1 920D0000 		.4byte	0xd92
 2460 0dd5 23       		.uleb128 0x23
 2461 0dd6 4C000000 		.4byte	.LVL70
 2462 0dda 0C0E0000 		.4byte	0xe0c
 2463 0dde E90D0000 		.4byte	0xde9
 2464 0de2 18       		.uleb128 0x18
 2465 0de3 01       		.uleb128 0x1
 2466 0de4 50       		.byte	0x50
 2467 0de5 02       		.uleb128 0x2
 2468 0de6 74       		.byte	0x74
 2469 0de7 1C       		.sleb128 28
 2470 0de8 00       		.byte	0
 2471 0de9 24       		.uleb128 0x24
 2472 0dea 50000000 		.4byte	.LVL71
 2473 0dee 170E0000 		.4byte	0xe17
 2474 0df2 00       		.byte	0
 2475 0df3 00       		.byte	0
 2476 0df4 17       		.uleb128 0x17
 2477 0df5 18000000 		.4byte	.LVL67
 2478 0df9 220E0000 		.4byte	0xe22
 2479 0dfd 18       		.uleb128 0x18
 2480 0dfe 01       		.uleb128 0x1
 2481 0dff 50       		.byte	0x50
 2482 0e00 02       		.uleb128 0x2
 2483 0e01 74       		.byte	0x74
 2484 0e02 10       		.sleb128 16
 2485 0e03 18       		.uleb128 0x18
 2486 0e04 01       		.uleb128 0x1
 2487 0e05 51       		.byte	0x51
 2488 0e06 03       		.uleb128 0x3
 2489 0e07 F3       		.byte	0xf3
 2490 0e08 01       		.uleb128 0x1
 2491 0e09 52       		.byte	0x52
 2492 0e0a 00       		.byte	0
 2493 0e0b 00       		.byte	0
 2494 0e0c 30       		.uleb128 0x30
 2495 0e0d 13000000 		.4byte	.LASF122
 2496 0e11 13000000 		.4byte	.LASF122
 2497 0e15 0A       		.byte	0xa
 2498 0e16 36       		.byte	0x36
 2499 0e17 30       		.uleb128 0x30
 2500 0e18 06020000 		.4byte	.LASF123
 2501 0e1c 06020000 		.4byte	.LASF123
 2502 0e20 09       		.byte	0x9
 2503 0e21 95       		.byte	0x95
 2504 0e22 30       		.uleb128 0x30
 2505 0e23 F9040000 		.4byte	.LASF124
 2506 0e27 F9040000 		.4byte	.LASF124
 2507 0e2b 0A       		.byte	0xa
 2508 0e2c 34       		.byte	0x34
ARM GAS  /var/folders/3j/4xdnk5197cv_b7cw3n33qk7r0000gn/T//ccOqb1Kq.s 			page 45


 2509 0e2d 30       		.uleb128 0x30
 2510 0e2e A5050000 		.4byte	.LASF125
 2511 0e32 A5050000 		.4byte	.LASF125
 2512 0e36 0A       		.byte	0xa
 2513 0e37 30       		.byte	0x30
 2514 0e38 30       		.uleb128 0x30
 2515 0e39 02060000 		.4byte	.LASF126
 2516 0e3d 02060000 		.4byte	.LASF126
 2517 0e41 0A       		.byte	0xa
 2518 0e42 2E       		.byte	0x2e
 2519 0e43 00       		.byte	0
 2520              		.section	.debug_abbrev,"",%progbits
 2521              	.Ldebug_abbrev0:
 2522 0000 01       		.uleb128 0x1
 2523 0001 11       		.uleb128 0x11
 2524 0002 01       		.byte	0x1
 2525 0003 25       		.uleb128 0x25
 2526 0004 0E       		.uleb128 0xe
 2527 0005 13       		.uleb128 0x13
 2528 0006 0B       		.uleb128 0xb
 2529 0007 03       		.uleb128 0x3
 2530 0008 0E       		.uleb128 0xe
 2531 0009 1B       		.uleb128 0x1b
 2532 000a 0E       		.uleb128 0xe
 2533 000b 55       		.uleb128 0x55
 2534 000c 17       		.uleb128 0x17
 2535 000d 11       		.uleb128 0x11
 2536 000e 01       		.uleb128 0x1
 2537 000f 10       		.uleb128 0x10
 2538 0010 17       		.uleb128 0x17
 2539 0011 00       		.byte	0
 2540 0012 00       		.byte	0
 2541 0013 02       		.uleb128 0x2
 2542 0014 24       		.uleb128 0x24
 2543 0015 00       		.byte	0
 2544 0016 0B       		.uleb128 0xb
 2545 0017 0B       		.uleb128 0xb
 2546 0018 3E       		.uleb128 0x3e
 2547 0019 0B       		.uleb128 0xb
 2548 001a 03       		.uleb128 0x3
 2549 001b 08       		.uleb128 0x8
 2550 001c 00       		.byte	0
 2551 001d 00       		.byte	0
 2552 001e 03       		.uleb128 0x3
 2553 001f 24       		.uleb128 0x24
 2554 0020 00       		.byte	0
 2555 0021 0B       		.uleb128 0xb
 2556 0022 0B       		.uleb128 0xb
 2557 0023 3E       		.uleb128 0x3e
 2558 0024 0B       		.uleb128 0xb
 2559 0025 03       		.uleb128 0x3
 2560 0026 0E       		.uleb128 0xe
 2561 0027 00       		.byte	0
 2562 0028 00       		.byte	0
 2563 0029 04       		.uleb128 0x4
 2564 002a 16       		.uleb128 0x16
 2565 002b 00       		.byte	0
ARM GAS  /var/folders/3j/4xdnk5197cv_b7cw3n33qk7r0000gn/T//ccOqb1Kq.s 			page 46


 2566 002c 03       		.uleb128 0x3
 2567 002d 0E       		.uleb128 0xe
 2568 002e 3A       		.uleb128 0x3a
 2569 002f 0B       		.uleb128 0xb
 2570 0030 3B       		.uleb128 0x3b
 2571 0031 0B       		.uleb128 0xb
 2572 0032 49       		.uleb128 0x49
 2573 0033 13       		.uleb128 0x13
 2574 0034 00       		.byte	0
 2575 0035 00       		.byte	0
 2576 0036 05       		.uleb128 0x5
 2577 0037 35       		.uleb128 0x35
 2578 0038 00       		.byte	0
 2579 0039 49       		.uleb128 0x49
 2580 003a 13       		.uleb128 0x13
 2581 003b 00       		.byte	0
 2582 003c 00       		.byte	0
 2583 003d 06       		.uleb128 0x6
 2584 003e 13       		.uleb128 0x13
 2585 003f 01       		.byte	0x1
 2586 0040 03       		.uleb128 0x3
 2587 0041 0E       		.uleb128 0xe
 2588 0042 0B       		.uleb128 0xb
 2589 0043 0B       		.uleb128 0xb
 2590 0044 3A       		.uleb128 0x3a
 2591 0045 0B       		.uleb128 0xb
 2592 0046 3B       		.uleb128 0x3b
 2593 0047 0B       		.uleb128 0xb
 2594 0048 01       		.uleb128 0x1
 2595 0049 13       		.uleb128 0x13
 2596 004a 00       		.byte	0
 2597 004b 00       		.byte	0
 2598 004c 07       		.uleb128 0x7
 2599 004d 0D       		.uleb128 0xd
 2600 004e 00       		.byte	0
 2601 004f 03       		.uleb128 0x3
 2602 0050 0E       		.uleb128 0xe
 2603 0051 3A       		.uleb128 0x3a
 2604 0052 0B       		.uleb128 0xb
 2605 0053 3B       		.uleb128 0x3b
 2606 0054 0B       		.uleb128 0xb
 2607 0055 49       		.uleb128 0x49
 2608 0056 13       		.uleb128 0x13
 2609 0057 38       		.uleb128 0x38
 2610 0058 0B       		.uleb128 0xb
 2611 0059 00       		.byte	0
 2612 005a 00       		.byte	0
 2613 005b 08       		.uleb128 0x8
 2614 005c 0D       		.uleb128 0xd
 2615 005d 00       		.byte	0
 2616 005e 03       		.uleb128 0x3
 2617 005f 08       		.uleb128 0x8
 2618 0060 3A       		.uleb128 0x3a
 2619 0061 0B       		.uleb128 0xb
 2620 0062 3B       		.uleb128 0x3b
 2621 0063 0B       		.uleb128 0xb
 2622 0064 49       		.uleb128 0x49
ARM GAS  /var/folders/3j/4xdnk5197cv_b7cw3n33qk7r0000gn/T//ccOqb1Kq.s 			page 47


 2623 0065 13       		.uleb128 0x13
 2624 0066 38       		.uleb128 0x38
 2625 0067 0B       		.uleb128 0xb
 2626 0068 00       		.byte	0
 2627 0069 00       		.byte	0
 2628 006a 09       		.uleb128 0x9
 2629 006b 13       		.uleb128 0x13
 2630 006c 01       		.byte	0x1
 2631 006d 0B       		.uleb128 0xb
 2632 006e 0B       		.uleb128 0xb
 2633 006f 3A       		.uleb128 0x3a
 2634 0070 0B       		.uleb128 0xb
 2635 0071 3B       		.uleb128 0x3b
 2636 0072 0B       		.uleb128 0xb
 2637 0073 01       		.uleb128 0x1
 2638 0074 13       		.uleb128 0x13
 2639 0075 00       		.byte	0
 2640 0076 00       		.byte	0
 2641 0077 0A       		.uleb128 0xa
 2642 0078 0F       		.uleb128 0xf
 2643 0079 00       		.byte	0
 2644 007a 0B       		.uleb128 0xb
 2645 007b 0B       		.uleb128 0xb
 2646 007c 49       		.uleb128 0x49
 2647 007d 13       		.uleb128 0x13
 2648 007e 00       		.byte	0
 2649 007f 00       		.byte	0
 2650 0080 0B       		.uleb128 0xb
 2651 0081 0F       		.uleb128 0xf
 2652 0082 00       		.byte	0
 2653 0083 0B       		.uleb128 0xb
 2654 0084 0B       		.uleb128 0xb
 2655 0085 00       		.byte	0
 2656 0086 00       		.byte	0
 2657 0087 0C       		.uleb128 0xc
 2658 0088 15       		.uleb128 0x15
 2659 0089 01       		.byte	0x1
 2660 008a 27       		.uleb128 0x27
 2661 008b 19       		.uleb128 0x19
 2662 008c 01       		.uleb128 0x1
 2663 008d 13       		.uleb128 0x13
 2664 008e 00       		.byte	0
 2665 008f 00       		.byte	0
 2666 0090 0D       		.uleb128 0xd
 2667 0091 05       		.uleb128 0x5
 2668 0092 00       		.byte	0
 2669 0093 49       		.uleb128 0x49
 2670 0094 13       		.uleb128 0x13
 2671 0095 00       		.byte	0
 2672 0096 00       		.byte	0
 2673 0097 0E       		.uleb128 0xe
 2674 0098 34       		.uleb128 0x34
 2675 0099 00       		.byte	0
 2676 009a 03       		.uleb128 0x3
 2677 009b 0E       		.uleb128 0xe
 2678 009c 3A       		.uleb128 0x3a
 2679 009d 0B       		.uleb128 0xb
ARM GAS  /var/folders/3j/4xdnk5197cv_b7cw3n33qk7r0000gn/T//ccOqb1Kq.s 			page 48


 2680 009e 3B       		.uleb128 0x3b
 2681 009f 0B       		.uleb128 0xb
 2682 00a0 49       		.uleb128 0x49
 2683 00a1 13       		.uleb128 0x13
 2684 00a2 3F       		.uleb128 0x3f
 2685 00a3 19       		.uleb128 0x19
 2686 00a4 3C       		.uleb128 0x3c
 2687 00a5 19       		.uleb128 0x19
 2688 00a6 00       		.byte	0
 2689 00a7 00       		.byte	0
 2690 00a8 0F       		.uleb128 0xf
 2691 00a9 17       		.uleb128 0x17
 2692 00aa 01       		.byte	0x1
 2693 00ab 0B       		.uleb128 0xb
 2694 00ac 0B       		.uleb128 0xb
 2695 00ad 3A       		.uleb128 0x3a
 2696 00ae 0B       		.uleb128 0xb
 2697 00af 3B       		.uleb128 0x3b
 2698 00b0 0B       		.uleb128 0xb
 2699 00b1 01       		.uleb128 0x1
 2700 00b2 13       		.uleb128 0x13
 2701 00b3 00       		.byte	0
 2702 00b4 00       		.byte	0
 2703 00b5 10       		.uleb128 0x10
 2704 00b6 0D       		.uleb128 0xd
 2705 00b7 00       		.byte	0
 2706 00b8 03       		.uleb128 0x3
 2707 00b9 0E       		.uleb128 0xe
 2708 00ba 3A       		.uleb128 0x3a
 2709 00bb 0B       		.uleb128 0xb
 2710 00bc 3B       		.uleb128 0x3b
 2711 00bd 0B       		.uleb128 0xb
 2712 00be 49       		.uleb128 0x49
 2713 00bf 13       		.uleb128 0x13
 2714 00c0 00       		.byte	0
 2715 00c1 00       		.byte	0
 2716 00c2 11       		.uleb128 0x11
 2717 00c3 26       		.uleb128 0x26
 2718 00c4 00       		.byte	0
 2719 00c5 49       		.uleb128 0x49
 2720 00c6 13       		.uleb128 0x13
 2721 00c7 00       		.byte	0
 2722 00c8 00       		.byte	0
 2723 00c9 12       		.uleb128 0x12
 2724 00ca 01       		.uleb128 0x1
 2725 00cb 01       		.byte	0x1
 2726 00cc 49       		.uleb128 0x49
 2727 00cd 13       		.uleb128 0x13
 2728 00ce 01       		.uleb128 0x1
 2729 00cf 13       		.uleb128 0x13
 2730 00d0 00       		.byte	0
 2731 00d1 00       		.byte	0
 2732 00d2 13       		.uleb128 0x13
 2733 00d3 21       		.uleb128 0x21
 2734 00d4 00       		.byte	0
 2735 00d5 49       		.uleb128 0x49
 2736 00d6 13       		.uleb128 0x13
ARM GAS  /var/folders/3j/4xdnk5197cv_b7cw3n33qk7r0000gn/T//ccOqb1Kq.s 			page 49


 2737 00d7 2F       		.uleb128 0x2f
 2738 00d8 0B       		.uleb128 0xb
 2739 00d9 00       		.byte	0
 2740 00da 00       		.byte	0
 2741 00db 14       		.uleb128 0x14
 2742 00dc 2E       		.uleb128 0x2e
 2743 00dd 01       		.byte	0x1
 2744 00de 3F       		.uleb128 0x3f
 2745 00df 19       		.uleb128 0x19
 2746 00e0 03       		.uleb128 0x3
 2747 00e1 0E       		.uleb128 0xe
 2748 00e2 3A       		.uleb128 0x3a
 2749 00e3 0B       		.uleb128 0xb
 2750 00e4 3B       		.uleb128 0x3b
 2751 00e5 05       		.uleb128 0x5
 2752 00e6 27       		.uleb128 0x27
 2753 00e7 19       		.uleb128 0x19
 2754 00e8 49       		.uleb128 0x49
 2755 00e9 13       		.uleb128 0x13
 2756 00ea 11       		.uleb128 0x11
 2757 00eb 01       		.uleb128 0x1
 2758 00ec 12       		.uleb128 0x12
 2759 00ed 06       		.uleb128 0x6
 2760 00ee 40       		.uleb128 0x40
 2761 00ef 18       		.uleb128 0x18
 2762 00f0 9742     		.uleb128 0x2117
 2763 00f2 19       		.uleb128 0x19
 2764 00f3 01       		.uleb128 0x1
 2765 00f4 13       		.uleb128 0x13
 2766 00f5 00       		.byte	0
 2767 00f6 00       		.byte	0
 2768 00f7 15       		.uleb128 0x15
 2769 00f8 05       		.uleb128 0x5
 2770 00f9 00       		.byte	0
 2771 00fa 03       		.uleb128 0x3
 2772 00fb 08       		.uleb128 0x8
 2773 00fc 3A       		.uleb128 0x3a
 2774 00fd 0B       		.uleb128 0xb
 2775 00fe 3B       		.uleb128 0x3b
 2776 00ff 05       		.uleb128 0x5
 2777 0100 49       		.uleb128 0x49
 2778 0101 13       		.uleb128 0x13
 2779 0102 02       		.uleb128 0x2
 2780 0103 17       		.uleb128 0x17
 2781 0104 00       		.byte	0
 2782 0105 00       		.byte	0
 2783 0106 16       		.uleb128 0x16
 2784 0107 05       		.uleb128 0x5
 2785 0108 00       		.byte	0
 2786 0109 03       		.uleb128 0x3
 2787 010a 0E       		.uleb128 0xe
 2788 010b 3A       		.uleb128 0x3a
 2789 010c 0B       		.uleb128 0xb
 2790 010d 3B       		.uleb128 0x3b
 2791 010e 05       		.uleb128 0x5
 2792 010f 49       		.uleb128 0x49
 2793 0110 13       		.uleb128 0x13
ARM GAS  /var/folders/3j/4xdnk5197cv_b7cw3n33qk7r0000gn/T//ccOqb1Kq.s 			page 50


 2794 0111 02       		.uleb128 0x2
 2795 0112 17       		.uleb128 0x17
 2796 0113 00       		.byte	0
 2797 0114 00       		.byte	0
 2798 0115 17       		.uleb128 0x17
 2799 0116 898201   		.uleb128 0x4109
 2800 0119 01       		.byte	0x1
 2801 011a 11       		.uleb128 0x11
 2802 011b 01       		.uleb128 0x1
 2803 011c 31       		.uleb128 0x31
 2804 011d 13       		.uleb128 0x13
 2805 011e 00       		.byte	0
 2806 011f 00       		.byte	0
 2807 0120 18       		.uleb128 0x18
 2808 0121 8A8201   		.uleb128 0x410a
 2809 0124 00       		.byte	0
 2810 0125 02       		.uleb128 0x2
 2811 0126 18       		.uleb128 0x18
 2812 0127 9142     		.uleb128 0x2111
 2813 0129 18       		.uleb128 0x18
 2814 012a 00       		.byte	0
 2815 012b 00       		.byte	0
 2816 012c 19       		.uleb128 0x19
 2817 012d 2E       		.uleb128 0x2e
 2818 012e 01       		.byte	0x1
 2819 012f 3F       		.uleb128 0x3f
 2820 0130 19       		.uleb128 0x19
 2821 0131 03       		.uleb128 0x3
 2822 0132 0E       		.uleb128 0xe
 2823 0133 3A       		.uleb128 0x3a
 2824 0134 0B       		.uleb128 0xb
 2825 0135 3B       		.uleb128 0x3b
 2826 0136 05       		.uleb128 0x5
 2827 0137 27       		.uleb128 0x27
 2828 0138 19       		.uleb128 0x19
 2829 0139 49       		.uleb128 0x49
 2830 013a 13       		.uleb128 0x13
 2831 013b 20       		.uleb128 0x20
 2832 013c 0B       		.uleb128 0xb
 2833 013d 01       		.uleb128 0x1
 2834 013e 13       		.uleb128 0x13
 2835 013f 00       		.byte	0
 2836 0140 00       		.byte	0
 2837 0141 1A       		.uleb128 0x1a
 2838 0142 05       		.uleb128 0x5
 2839 0143 00       		.byte	0
 2840 0144 03       		.uleb128 0x3
 2841 0145 08       		.uleb128 0x8
 2842 0146 3A       		.uleb128 0x3a
 2843 0147 0B       		.uleb128 0xb
 2844 0148 3B       		.uleb128 0x3b
 2845 0149 05       		.uleb128 0x5
 2846 014a 49       		.uleb128 0x49
 2847 014b 13       		.uleb128 0x13
 2848 014c 00       		.byte	0
 2849 014d 00       		.byte	0
 2850 014e 1B       		.uleb128 0x1b
ARM GAS  /var/folders/3j/4xdnk5197cv_b7cw3n33qk7r0000gn/T//ccOqb1Kq.s 			page 51


 2851 014f 05       		.uleb128 0x5
 2852 0150 00       		.byte	0
 2853 0151 03       		.uleb128 0x3
 2854 0152 0E       		.uleb128 0xe
 2855 0153 3A       		.uleb128 0x3a
 2856 0154 0B       		.uleb128 0xb
 2857 0155 3B       		.uleb128 0x3b
 2858 0156 05       		.uleb128 0x5
 2859 0157 49       		.uleb128 0x49
 2860 0158 13       		.uleb128 0x13
 2861 0159 00       		.byte	0
 2862 015a 00       		.byte	0
 2863 015b 1C       		.uleb128 0x1c
 2864 015c 34       		.uleb128 0x34
 2865 015d 00       		.byte	0
 2866 015e 03       		.uleb128 0x3
 2867 015f 0E       		.uleb128 0xe
 2868 0160 3A       		.uleb128 0x3a
 2869 0161 0B       		.uleb128 0xb
 2870 0162 3B       		.uleb128 0x3b
 2871 0163 05       		.uleb128 0x5
 2872 0164 49       		.uleb128 0x49
 2873 0165 13       		.uleb128 0x13
 2874 0166 00       		.byte	0
 2875 0167 00       		.byte	0
 2876 0168 1D       		.uleb128 0x1d
 2877 0169 1D       		.uleb128 0x1d
 2878 016a 01       		.byte	0x1
 2879 016b 31       		.uleb128 0x31
 2880 016c 13       		.uleb128 0x13
 2881 016d 11       		.uleb128 0x11
 2882 016e 01       		.uleb128 0x1
 2883 016f 12       		.uleb128 0x12
 2884 0170 06       		.uleb128 0x6
 2885 0171 58       		.uleb128 0x58
 2886 0172 0B       		.uleb128 0xb
 2887 0173 59       		.uleb128 0x59
 2888 0174 05       		.uleb128 0x5
 2889 0175 00       		.byte	0
 2890 0176 00       		.byte	0
 2891 0177 1E       		.uleb128 0x1e
 2892 0178 05       		.uleb128 0x5
 2893 0179 00       		.byte	0
 2894 017a 31       		.uleb128 0x31
 2895 017b 13       		.uleb128 0x13
 2896 017c 02       		.uleb128 0x2
 2897 017d 17       		.uleb128 0x17
 2898 017e 00       		.byte	0
 2899 017f 00       		.byte	0
 2900 0180 1F       		.uleb128 0x1f
 2901 0181 0B       		.uleb128 0xb
 2902 0182 01       		.byte	0x1
 2903 0183 11       		.uleb128 0x11
 2904 0184 01       		.uleb128 0x1
 2905 0185 12       		.uleb128 0x12
 2906 0186 06       		.uleb128 0x6
 2907 0187 00       		.byte	0
ARM GAS  /var/folders/3j/4xdnk5197cv_b7cw3n33qk7r0000gn/T//ccOqb1Kq.s 			page 52


 2908 0188 00       		.byte	0
 2909 0189 20       		.uleb128 0x20
 2910 018a 34       		.uleb128 0x34
 2911 018b 00       		.byte	0
 2912 018c 31       		.uleb128 0x31
 2913 018d 13       		.uleb128 0x13
 2914 018e 02       		.uleb128 0x2
 2915 018f 17       		.uleb128 0x17
 2916 0190 00       		.byte	0
 2917 0191 00       		.byte	0
 2918 0192 21       		.uleb128 0x21
 2919 0193 0B       		.uleb128 0xb
 2920 0194 01       		.byte	0x1
 2921 0195 31       		.uleb128 0x31
 2922 0196 13       		.uleb128 0x13
 2923 0197 11       		.uleb128 0x11
 2924 0198 01       		.uleb128 0x1
 2925 0199 12       		.uleb128 0x12
 2926 019a 06       		.uleb128 0x6
 2927 019b 01       		.uleb128 0x1
 2928 019c 13       		.uleb128 0x13
 2929 019d 00       		.byte	0
 2930 019e 00       		.byte	0
 2931 019f 22       		.uleb128 0x22
 2932 01a0 34       		.uleb128 0x34
 2933 01a1 00       		.byte	0
 2934 01a2 31       		.uleb128 0x31
 2935 01a3 13       		.uleb128 0x13
 2936 01a4 00       		.byte	0
 2937 01a5 00       		.byte	0
 2938 01a6 23       		.uleb128 0x23
 2939 01a7 898201   		.uleb128 0x4109
 2940 01aa 01       		.byte	0x1
 2941 01ab 11       		.uleb128 0x11
 2942 01ac 01       		.uleb128 0x1
 2943 01ad 31       		.uleb128 0x31
 2944 01ae 13       		.uleb128 0x13
 2945 01af 01       		.uleb128 0x1
 2946 01b0 13       		.uleb128 0x13
 2947 01b1 00       		.byte	0
 2948 01b2 00       		.byte	0
 2949 01b3 24       		.uleb128 0x24
 2950 01b4 898201   		.uleb128 0x4109
 2951 01b7 00       		.byte	0
 2952 01b8 11       		.uleb128 0x11
 2953 01b9 01       		.uleb128 0x1
 2954 01ba 31       		.uleb128 0x31
 2955 01bb 13       		.uleb128 0x13
 2956 01bc 00       		.byte	0
 2957 01bd 00       		.byte	0
 2958 01be 25       		.uleb128 0x25
 2959 01bf 2E       		.uleb128 0x2e
 2960 01c0 01       		.byte	0x1
 2961 01c1 3F       		.uleb128 0x3f
 2962 01c2 19       		.uleb128 0x19
 2963 01c3 03       		.uleb128 0x3
 2964 01c4 0E       		.uleb128 0xe
ARM GAS  /var/folders/3j/4xdnk5197cv_b7cw3n33qk7r0000gn/T//ccOqb1Kq.s 			page 53


 2965 01c5 3A       		.uleb128 0x3a
 2966 01c6 0B       		.uleb128 0xb
 2967 01c7 3B       		.uleb128 0x3b
 2968 01c8 0B       		.uleb128 0xb
 2969 01c9 27       		.uleb128 0x27
 2970 01ca 19       		.uleb128 0x19
 2971 01cb 49       		.uleb128 0x49
 2972 01cc 13       		.uleb128 0x13
 2973 01cd 20       		.uleb128 0x20
 2974 01ce 0B       		.uleb128 0xb
 2975 01cf 01       		.uleb128 0x1
 2976 01d0 13       		.uleb128 0x13
 2977 01d1 00       		.byte	0
 2978 01d2 00       		.byte	0
 2979 01d3 26       		.uleb128 0x26
 2980 01d4 05       		.uleb128 0x5
 2981 01d5 00       		.byte	0
 2982 01d6 03       		.uleb128 0x3
 2983 01d7 08       		.uleb128 0x8
 2984 01d8 3A       		.uleb128 0x3a
 2985 01d9 0B       		.uleb128 0xb
 2986 01da 3B       		.uleb128 0x3b
 2987 01db 0B       		.uleb128 0xb
 2988 01dc 49       		.uleb128 0x49
 2989 01dd 13       		.uleb128 0x13
 2990 01de 00       		.byte	0
 2991 01df 00       		.byte	0
 2992 01e0 27       		.uleb128 0x27
 2993 01e1 05       		.uleb128 0x5
 2994 01e2 00       		.byte	0
 2995 01e3 03       		.uleb128 0x3
 2996 01e4 0E       		.uleb128 0xe
 2997 01e5 3A       		.uleb128 0x3a
 2998 01e6 0B       		.uleb128 0xb
 2999 01e7 3B       		.uleb128 0x3b
 3000 01e8 0B       		.uleb128 0xb
 3001 01e9 49       		.uleb128 0x49
 3002 01ea 13       		.uleb128 0x13
 3003 01eb 00       		.byte	0
 3004 01ec 00       		.byte	0
 3005 01ed 28       		.uleb128 0x28
 3006 01ee 34       		.uleb128 0x34
 3007 01ef 00       		.byte	0
 3008 01f0 03       		.uleb128 0x3
 3009 01f1 0E       		.uleb128 0xe
 3010 01f2 3A       		.uleb128 0x3a
 3011 01f3 0B       		.uleb128 0xb
 3012 01f4 3B       		.uleb128 0x3b
 3013 01f5 0B       		.uleb128 0xb
 3014 01f6 49       		.uleb128 0x49
 3015 01f7 13       		.uleb128 0x13
 3016 01f8 00       		.byte	0
 3017 01f9 00       		.byte	0
 3018 01fa 29       		.uleb128 0x29
 3019 01fb 2E       		.uleb128 0x2e
 3020 01fc 01       		.byte	0x1
 3021 01fd 3F       		.uleb128 0x3f
ARM GAS  /var/folders/3j/4xdnk5197cv_b7cw3n33qk7r0000gn/T//ccOqb1Kq.s 			page 54


 3022 01fe 19       		.uleb128 0x19
 3023 01ff 03       		.uleb128 0x3
 3024 0200 0E       		.uleb128 0xe
 3025 0201 3A       		.uleb128 0x3a
 3026 0202 0B       		.uleb128 0xb
 3027 0203 3B       		.uleb128 0x3b
 3028 0204 0B       		.uleb128 0xb
 3029 0205 27       		.uleb128 0x27
 3030 0206 19       		.uleb128 0x19
 3031 0207 49       		.uleb128 0x49
 3032 0208 13       		.uleb128 0x13
 3033 0209 11       		.uleb128 0x11
 3034 020a 01       		.uleb128 0x1
 3035 020b 12       		.uleb128 0x12
 3036 020c 06       		.uleb128 0x6
 3037 020d 40       		.uleb128 0x40
 3038 020e 18       		.uleb128 0x18
 3039 020f 9742     		.uleb128 0x2117
 3040 0211 19       		.uleb128 0x19
 3041 0212 01       		.uleb128 0x1
 3042 0213 13       		.uleb128 0x13
 3043 0214 00       		.byte	0
 3044 0215 00       		.byte	0
 3045 0216 2A       		.uleb128 0x2a
 3046 0217 05       		.uleb128 0x5
 3047 0218 00       		.byte	0
 3048 0219 03       		.uleb128 0x3
 3049 021a 08       		.uleb128 0x8
 3050 021b 3A       		.uleb128 0x3a
 3051 021c 0B       		.uleb128 0xb
 3052 021d 3B       		.uleb128 0x3b
 3053 021e 0B       		.uleb128 0xb
 3054 021f 49       		.uleb128 0x49
 3055 0220 13       		.uleb128 0x13
 3056 0221 02       		.uleb128 0x2
 3057 0222 17       		.uleb128 0x17
 3058 0223 00       		.byte	0
 3059 0224 00       		.byte	0
 3060 0225 2B       		.uleb128 0x2b
 3061 0226 05       		.uleb128 0x5
 3062 0227 00       		.byte	0
 3063 0228 03       		.uleb128 0x3
 3064 0229 0E       		.uleb128 0xe
 3065 022a 3A       		.uleb128 0x3a
 3066 022b 0B       		.uleb128 0xb
 3067 022c 3B       		.uleb128 0x3b
 3068 022d 0B       		.uleb128 0xb
 3069 022e 49       		.uleb128 0x49
 3070 022f 13       		.uleb128 0x13
 3071 0230 02       		.uleb128 0x2
 3072 0231 17       		.uleb128 0x17
 3073 0232 00       		.byte	0
 3074 0233 00       		.byte	0
 3075 0234 2C       		.uleb128 0x2c
 3076 0235 1D       		.uleb128 0x1d
 3077 0236 01       		.byte	0x1
 3078 0237 31       		.uleb128 0x31
ARM GAS  /var/folders/3j/4xdnk5197cv_b7cw3n33qk7r0000gn/T//ccOqb1Kq.s 			page 55


 3079 0238 13       		.uleb128 0x13
 3080 0239 11       		.uleb128 0x11
 3081 023a 01       		.uleb128 0x1
 3082 023b 12       		.uleb128 0x12
 3083 023c 06       		.uleb128 0x6
 3084 023d 58       		.uleb128 0x58
 3085 023e 0B       		.uleb128 0xb
 3086 023f 59       		.uleb128 0x59
 3087 0240 0B       		.uleb128 0xb
 3088 0241 00       		.byte	0
 3089 0242 00       		.byte	0
 3090 0243 2D       		.uleb128 0x2d
 3091 0244 2E       		.uleb128 0x2e
 3092 0245 01       		.byte	0x1
 3093 0246 3F       		.uleb128 0x3f
 3094 0247 19       		.uleb128 0x19
 3095 0248 03       		.uleb128 0x3
 3096 0249 0E       		.uleb128 0xe
 3097 024a 3A       		.uleb128 0x3a
 3098 024b 0B       		.uleb128 0xb
 3099 024c 3B       		.uleb128 0x3b
 3100 024d 0B       		.uleb128 0xb
 3101 024e 27       		.uleb128 0x27
 3102 024f 19       		.uleb128 0x19
 3103 0250 11       		.uleb128 0x11
 3104 0251 01       		.uleb128 0x1
 3105 0252 12       		.uleb128 0x12
 3106 0253 06       		.uleb128 0x6
 3107 0254 40       		.uleb128 0x40
 3108 0255 18       		.uleb128 0x18
 3109 0256 9742     		.uleb128 0x2117
 3110 0258 19       		.uleb128 0x19
 3111 0259 01       		.uleb128 0x1
 3112 025a 13       		.uleb128 0x13
 3113 025b 00       		.byte	0
 3114 025c 00       		.byte	0
 3115 025d 2E       		.uleb128 0x2e
 3116 025e 898201   		.uleb128 0x4109
 3117 0261 01       		.byte	0x1
 3118 0262 11       		.uleb128 0x11
 3119 0263 01       		.uleb128 0x1
 3120 0264 9542     		.uleb128 0x2115
 3121 0266 19       		.uleb128 0x19
 3122 0267 31       		.uleb128 0x31
 3123 0268 13       		.uleb128 0x13
 3124 0269 00       		.byte	0
 3125 026a 00       		.byte	0
 3126 026b 2F       		.uleb128 0x2f
 3127 026c 2E       		.uleb128 0x2e
 3128 026d 01       		.byte	0x1
 3129 026e 31       		.uleb128 0x31
 3130 026f 13       		.uleb128 0x13
 3131 0270 11       		.uleb128 0x11
 3132 0271 01       		.uleb128 0x1
 3133 0272 12       		.uleb128 0x12
 3134 0273 06       		.uleb128 0x6
 3135 0274 40       		.uleb128 0x40
ARM GAS  /var/folders/3j/4xdnk5197cv_b7cw3n33qk7r0000gn/T//ccOqb1Kq.s 			page 56


 3136 0275 18       		.uleb128 0x18
 3137 0276 9742     		.uleb128 0x2117
 3138 0278 19       		.uleb128 0x19
 3139 0279 01       		.uleb128 0x1
 3140 027a 13       		.uleb128 0x13
 3141 027b 00       		.byte	0
 3142 027c 00       		.byte	0
 3143 027d 30       		.uleb128 0x30
 3144 027e 2E       		.uleb128 0x2e
 3145 027f 00       		.byte	0
 3146 0280 3F       		.uleb128 0x3f
 3147 0281 19       		.uleb128 0x19
 3148 0282 3C       		.uleb128 0x3c
 3149 0283 19       		.uleb128 0x19
 3150 0284 6E       		.uleb128 0x6e
 3151 0285 0E       		.uleb128 0xe
 3152 0286 03       		.uleb128 0x3
 3153 0287 0E       		.uleb128 0xe
 3154 0288 3A       		.uleb128 0x3a
 3155 0289 0B       		.uleb128 0xb
 3156 028a 3B       		.uleb128 0x3b
 3157 028b 0B       		.uleb128 0xb
 3158 028c 00       		.byte	0
 3159 028d 00       		.byte	0
 3160 028e 00       		.byte	0
 3161              		.section	.debug_loc,"",%progbits
 3162              	.Ldebug_loc0:
 3163              	.LLST59:
 3164 0000 00000000 		.4byte	.LVL72
 3165 0004 3C000000 		.4byte	.LVL73
 3166 0008 0100     		.2byte	0x1
 3167 000a 50       		.byte	0x50
 3168 000b 3C000000 		.4byte	.LVL73
 3169 000f 43000000 		.4byte	.LVL74-1
 3170 0013 0300     		.2byte	0x3
 3171 0015 70       		.byte	0x70
 3172 0016 64       		.sleb128 -28
 3173 0017 9F       		.byte	0x9f
 3174 0018 43000000 		.4byte	.LVL74-1
 3175 001c 4C000000 		.4byte	.LVL75
 3176 0020 0400     		.2byte	0x4
 3177 0022 F3       		.byte	0xf3
 3178 0023 01       		.uleb128 0x1
 3179 0024 50       		.byte	0x50
 3180 0025 9F       		.byte	0x9f
 3181 0026 4C000000 		.4byte	.LVL75
 3182 002a 50000000 		.4byte	.LVL76
 3183 002e 0100     		.2byte	0x1
 3184 0030 50       		.byte	0x50
 3185 0031 50000000 		.4byte	.LVL76
 3186 0035 54000000 		.4byte	.LFE17
 3187 0039 0400     		.2byte	0x4
 3188 003b F3       		.byte	0xf3
 3189 003c 01       		.uleb128 0x1
 3190 003d 50       		.byte	0x50
 3191 003e 9F       		.byte	0x9f
 3192 003f 00000000 		.4byte	0
ARM GAS  /var/folders/3j/4xdnk5197cv_b7cw3n33qk7r0000gn/T//ccOqb1Kq.s 			page 57


 3193 0043 00000000 		.4byte	0
 3194              	.LLST60:
 3195 0047 00000000 		.4byte	.LVL72
 3196 004b 43000000 		.4byte	.LVL74-1
 3197 004f 0100     		.2byte	0x1
 3198 0051 51       		.byte	0x51
 3199 0052 43000000 		.4byte	.LVL74-1
 3200 0056 4C000000 		.4byte	.LVL75
 3201 005a 0400     		.2byte	0x4
 3202 005c F3       		.byte	0xf3
 3203 005d 01       		.uleb128 0x1
 3204 005e 51       		.byte	0x51
 3205 005f 9F       		.byte	0x9f
 3206 0060 4C000000 		.4byte	.LVL75
 3207 0064 54000000 		.4byte	.LFE17
 3208 0068 0100     		.2byte	0x1
 3209 006a 51       		.byte	0x51
 3210 006b 00000000 		.4byte	0
 3211 006f 00000000 		.4byte	0
 3212              	.LLST42:
 3213 0073 00000000 		.4byte	.LVL55
 3214 0077 18000000 		.4byte	.LVL58
 3215 007b 0100     		.2byte	0x1
 3216 007d 50       		.byte	0x50
 3217 007e 18000000 		.4byte	.LVL58
 3218 0082 60000000 		.4byte	.LFE15
 3219 0086 0100     		.2byte	0x1
 3220 0088 54       		.byte	0x54
 3221 0089 00000000 		.4byte	0
 3222 008d 00000000 		.4byte	0
 3223              	.LLST43:
 3224 0091 00000000 		.4byte	.LVL55
 3225 0095 14000000 		.4byte	.LVL57
 3226 0099 0100     		.2byte	0x1
 3227 009b 51       		.byte	0x51
 3228 009c 14000000 		.4byte	.LVL57
 3229 00a0 60000000 		.4byte	.LFE15
 3230 00a4 0100     		.2byte	0x1
 3231 00a6 56       		.byte	0x56
 3232 00a7 00000000 		.4byte	0
 3233 00ab 00000000 		.4byte	0
 3234              	.LLST44:
 3235 00af 00000000 		.4byte	.LVL55
 3236 00b3 1B000000 		.4byte	.LVL59-1
 3237 00b7 0100     		.2byte	0x1
 3238 00b9 52       		.byte	0x52
 3239 00ba 1B000000 		.4byte	.LVL59-1
 3240 00be 60000000 		.4byte	.LFE15
 3241 00c2 0400     		.2byte	0x4
 3242 00c4 F3       		.byte	0xf3
 3243 00c5 01       		.uleb128 0x1
 3244 00c6 52       		.byte	0x52
 3245 00c7 9F       		.byte	0x9f
 3246 00c8 00000000 		.4byte	0
 3247 00cc 00000000 		.4byte	0
 3248              	.LLST45:
 3249 00d0 10000000 		.4byte	.LVL56
ARM GAS  /var/folders/3j/4xdnk5197cv_b7cw3n33qk7r0000gn/T//ccOqb1Kq.s 			page 58


 3250 00d4 1B000000 		.4byte	.LVL59-1
 3251 00d8 0100     		.2byte	0x1
 3252 00da 52       		.byte	0x52
 3253 00db 1B000000 		.4byte	.LVL59-1
 3254 00df 54000000 		.4byte	.LVL63
 3255 00e3 0400     		.2byte	0x4
 3256 00e5 F3       		.byte	0xf3
 3257 00e6 01       		.uleb128 0x1
 3258 00e7 52       		.byte	0x52
 3259 00e8 9F       		.byte	0x9f
 3260 00e9 00000000 		.4byte	0
 3261 00ed 00000000 		.4byte	0
 3262              	.LLST46:
 3263 00f1 10000000 		.4byte	.LVL56
 3264 00f5 14000000 		.4byte	.LVL57
 3265 00f9 0100     		.2byte	0x1
 3266 00fb 51       		.byte	0x51
 3267 00fc 14000000 		.4byte	.LVL57
 3268 0100 54000000 		.4byte	.LVL63
 3269 0104 0100     		.2byte	0x1
 3270 0106 56       		.byte	0x56
 3271 0107 00000000 		.4byte	0
 3272 010b 00000000 		.4byte	0
 3273              	.LLST47:
 3274 010f 10000000 		.4byte	.LVL56
 3275 0113 18000000 		.4byte	.LVL58
 3276 0117 0100     		.2byte	0x1
 3277 0119 50       		.byte	0x50
 3278 011a 18000000 		.4byte	.LVL58
 3279 011e 54000000 		.4byte	.LVL63
 3280 0122 0100     		.2byte	0x1
 3281 0124 54       		.byte	0x54
 3282 0125 00000000 		.4byte	0
 3283 0129 00000000 		.4byte	0
 3284              	.LLST48:
 3285 012d 1C000000 		.4byte	.LVL59
 3286 0131 48000000 		.4byte	.LVL61
 3287 0135 0100     		.2byte	0x1
 3288 0137 50       		.byte	0x50
 3289 0138 48000000 		.4byte	.LVL61
 3290 013c 54000000 		.4byte	.LVL63
 3291 0140 0100     		.2byte	0x1
 3292 0142 55       		.byte	0x55
 3293 0143 00000000 		.4byte	0
 3294 0147 00000000 		.4byte	0
 3295              	.LLST49:
 3296 014b 24000000 		.4byte	.LVL60
 3297 014f 54000000 		.4byte	.LVL63
 3298 0153 0400     		.2byte	0x4
 3299 0155 F3       		.byte	0xf3
 3300 0156 01       		.uleb128 0x1
 3301 0157 52       		.byte	0x52
 3302 0158 9F       		.byte	0x9f
 3303 0159 00000000 		.4byte	0
 3304 015d 00000000 		.4byte	0
 3305              	.LLST50:
 3306 0161 24000000 		.4byte	.LVL60
ARM GAS  /var/folders/3j/4xdnk5197cv_b7cw3n33qk7r0000gn/T//ccOqb1Kq.s 			page 59


 3307 0165 54000000 		.4byte	.LVL63
 3308 0169 0100     		.2byte	0x1
 3309 016b 56       		.byte	0x56
 3310 016c 00000000 		.4byte	0
 3311 0170 00000000 		.4byte	0
 3312              	.LLST51:
 3313 0174 24000000 		.4byte	.LVL60
 3314 0178 54000000 		.4byte	.LVL63
 3315 017c 0100     		.2byte	0x1
 3316 017e 54       		.byte	0x54
 3317 017f 00000000 		.4byte	0
 3318 0183 00000000 		.4byte	0
 3319              	.LLST40:
 3320 0187 00000000 		.4byte	.LVL50
 3321 018b 40000000 		.4byte	.LVL51
 3322 018f 0100     		.2byte	0x1
 3323 0191 50       		.byte	0x50
 3324 0192 40000000 		.4byte	.LVL51
 3325 0196 43000000 		.4byte	.LVL52-1
 3326 019a 0300     		.2byte	0x3
 3327 019c 70       		.byte	0x70
 3328 019d 70       		.sleb128 -16
 3329 019e 9F       		.byte	0x9f
 3330 019f 43000000 		.4byte	.LVL52-1
 3331 01a3 4C000000 		.4byte	.LVL53
 3332 01a7 0400     		.2byte	0x4
 3333 01a9 F3       		.byte	0xf3
 3334 01aa 01       		.uleb128 0x1
 3335 01ab 50       		.byte	0x50
 3336 01ac 9F       		.byte	0x9f
 3337 01ad 4C000000 		.4byte	.LVL53
 3338 01b1 50000000 		.4byte	.LVL54
 3339 01b5 0100     		.2byte	0x1
 3340 01b7 50       		.byte	0x50
 3341 01b8 50000000 		.4byte	.LVL54
 3342 01bc 54000000 		.4byte	.LFE14
 3343 01c0 0400     		.2byte	0x4
 3344 01c2 F3       		.byte	0xf3
 3345 01c3 01       		.uleb128 0x1
 3346 01c4 50       		.byte	0x50
 3347 01c5 9F       		.byte	0x9f
 3348 01c6 00000000 		.4byte	0
 3349 01ca 00000000 		.4byte	0
 3350              	.LLST41:
 3351 01ce 00000000 		.4byte	.LVL50
 3352 01d2 43000000 		.4byte	.LVL52-1
 3353 01d6 0100     		.2byte	0x1
 3354 01d8 51       		.byte	0x51
 3355 01d9 43000000 		.4byte	.LVL52-1
 3356 01dd 4C000000 		.4byte	.LVL53
 3357 01e1 0400     		.2byte	0x4
 3358 01e3 F3       		.byte	0xf3
 3359 01e4 01       		.uleb128 0x1
 3360 01e5 51       		.byte	0x51
 3361 01e6 9F       		.byte	0x9f
 3362 01e7 4C000000 		.4byte	.LVL53
 3363 01eb 54000000 		.4byte	.LFE14
ARM GAS  /var/folders/3j/4xdnk5197cv_b7cw3n33qk7r0000gn/T//ccOqb1Kq.s 			page 60


 3364 01ef 0100     		.2byte	0x1
 3365 01f1 51       		.byte	0x51
 3366 01f2 00000000 		.4byte	0
 3367 01f6 00000000 		.4byte	0
 3368              	.LLST23:
 3369 01fa 00000000 		.4byte	.LVL33
 3370 01fe 18000000 		.4byte	.LVL36
 3371 0202 0100     		.2byte	0x1
 3372 0204 50       		.byte	0x50
 3373 0205 18000000 		.4byte	.LVL36
 3374 0209 60000000 		.4byte	.LFE12
 3375 020d 0100     		.2byte	0x1
 3376 020f 54       		.byte	0x54
 3377 0210 00000000 		.4byte	0
 3378 0214 00000000 		.4byte	0
 3379              	.LLST24:
 3380 0218 00000000 		.4byte	.LVL33
 3381 021c 14000000 		.4byte	.LVL35
 3382 0220 0100     		.2byte	0x1
 3383 0222 51       		.byte	0x51
 3384 0223 14000000 		.4byte	.LVL35
 3385 0227 60000000 		.4byte	.LFE12
 3386 022b 0100     		.2byte	0x1
 3387 022d 56       		.byte	0x56
 3388 022e 00000000 		.4byte	0
 3389 0232 00000000 		.4byte	0
 3390              	.LLST25:
 3391 0236 00000000 		.4byte	.LVL33
 3392 023a 1B000000 		.4byte	.LVL37-1
 3393 023e 0100     		.2byte	0x1
 3394 0240 52       		.byte	0x52
 3395 0241 1B000000 		.4byte	.LVL37-1
 3396 0245 60000000 		.4byte	.LFE12
 3397 0249 0400     		.2byte	0x4
 3398 024b F3       		.byte	0xf3
 3399 024c 01       		.uleb128 0x1
 3400 024d 52       		.byte	0x52
 3401 024e 9F       		.byte	0x9f
 3402 024f 00000000 		.4byte	0
 3403 0253 00000000 		.4byte	0
 3404              	.LLST26:
 3405 0257 10000000 		.4byte	.LVL34
 3406 025b 1B000000 		.4byte	.LVL37-1
 3407 025f 0100     		.2byte	0x1
 3408 0261 52       		.byte	0x52
 3409 0262 1B000000 		.4byte	.LVL37-1
 3410 0266 54000000 		.4byte	.LVL41
 3411 026a 0400     		.2byte	0x4
 3412 026c F3       		.byte	0xf3
 3413 026d 01       		.uleb128 0x1
 3414 026e 52       		.byte	0x52
 3415 026f 9F       		.byte	0x9f
 3416 0270 00000000 		.4byte	0
 3417 0274 00000000 		.4byte	0
 3418              	.LLST27:
 3419 0278 10000000 		.4byte	.LVL34
 3420 027c 14000000 		.4byte	.LVL35
ARM GAS  /var/folders/3j/4xdnk5197cv_b7cw3n33qk7r0000gn/T//ccOqb1Kq.s 			page 61


 3421 0280 0100     		.2byte	0x1
 3422 0282 51       		.byte	0x51
 3423 0283 14000000 		.4byte	.LVL35
 3424 0287 54000000 		.4byte	.LVL41
 3425 028b 0100     		.2byte	0x1
 3426 028d 56       		.byte	0x56
 3427 028e 00000000 		.4byte	0
 3428 0292 00000000 		.4byte	0
 3429              	.LLST28:
 3430 0296 10000000 		.4byte	.LVL34
 3431 029a 18000000 		.4byte	.LVL36
 3432 029e 0100     		.2byte	0x1
 3433 02a0 50       		.byte	0x50
 3434 02a1 18000000 		.4byte	.LVL36
 3435 02a5 54000000 		.4byte	.LVL41
 3436 02a9 0100     		.2byte	0x1
 3437 02ab 54       		.byte	0x54
 3438 02ac 00000000 		.4byte	0
 3439 02b0 00000000 		.4byte	0
 3440              	.LLST29:
 3441 02b4 1C000000 		.4byte	.LVL37
 3442 02b8 40000000 		.4byte	.LVL39
 3443 02bc 0100     		.2byte	0x1
 3444 02be 50       		.byte	0x50
 3445 02bf 40000000 		.4byte	.LVL39
 3446 02c3 54000000 		.4byte	.LVL41
 3447 02c7 0100     		.2byte	0x1
 3448 02c9 55       		.byte	0x55
 3449 02ca 00000000 		.4byte	0
 3450 02ce 00000000 		.4byte	0
 3451              	.LLST30:
 3452 02d2 24000000 		.4byte	.LVL38
 3453 02d6 54000000 		.4byte	.LVL41
 3454 02da 0400     		.2byte	0x4
 3455 02dc F3       		.byte	0xf3
 3456 02dd 01       		.uleb128 0x1
 3457 02de 52       		.byte	0x52
 3458 02df 9F       		.byte	0x9f
 3459 02e0 00000000 		.4byte	0
 3460 02e4 00000000 		.4byte	0
 3461              	.LLST31:
 3462 02e8 24000000 		.4byte	.LVL38
 3463 02ec 54000000 		.4byte	.LVL41
 3464 02f0 0100     		.2byte	0x1
 3465 02f2 56       		.byte	0x56
 3466 02f3 00000000 		.4byte	0
 3467 02f7 00000000 		.4byte	0
 3468              	.LLST32:
 3469 02fb 24000000 		.4byte	.LVL38
 3470 02ff 54000000 		.4byte	.LVL41
 3471 0303 0100     		.2byte	0x1
 3472 0305 54       		.byte	0x54
 3473 0306 00000000 		.4byte	0
 3474 030a 00000000 		.4byte	0
 3475              	.LLST21:
 3476 030e 00000000 		.4byte	.LVL28
 3477 0312 38000000 		.4byte	.LVL29
ARM GAS  /var/folders/3j/4xdnk5197cv_b7cw3n33qk7r0000gn/T//ccOqb1Kq.s 			page 62


 3478 0316 0100     		.2byte	0x1
 3479 0318 50       		.byte	0x50
 3480 0319 38000000 		.4byte	.LVL29
 3481 031d 3F000000 		.4byte	.LVL30-1
 3482 0321 0300     		.2byte	0x3
 3483 0323 70       		.byte	0x70
 3484 0324 70       		.sleb128 -16
 3485 0325 9F       		.byte	0x9f
 3486 0326 3F000000 		.4byte	.LVL30-1
 3487 032a 48000000 		.4byte	.LVL31
 3488 032e 0400     		.2byte	0x4
 3489 0330 F3       		.byte	0xf3
 3490 0331 01       		.uleb128 0x1
 3491 0332 50       		.byte	0x50
 3492 0333 9F       		.byte	0x9f
 3493 0334 48000000 		.4byte	.LVL31
 3494 0338 4C000000 		.4byte	.LVL32
 3495 033c 0100     		.2byte	0x1
 3496 033e 50       		.byte	0x50
 3497 033f 4C000000 		.4byte	.LVL32
 3498 0343 50000000 		.4byte	.LFE11
 3499 0347 0400     		.2byte	0x4
 3500 0349 F3       		.byte	0xf3
 3501 034a 01       		.uleb128 0x1
 3502 034b 50       		.byte	0x50
 3503 034c 9F       		.byte	0x9f
 3504 034d 00000000 		.4byte	0
 3505 0351 00000000 		.4byte	0
 3506              	.LLST22:
 3507 0355 00000000 		.4byte	.LVL28
 3508 0359 3F000000 		.4byte	.LVL30-1
 3509 035d 0100     		.2byte	0x1
 3510 035f 51       		.byte	0x51
 3511 0360 3F000000 		.4byte	.LVL30-1
 3512 0364 48000000 		.4byte	.LVL31
 3513 0368 0400     		.2byte	0x4
 3514 036a F3       		.byte	0xf3
 3515 036b 01       		.uleb128 0x1
 3516 036c 51       		.byte	0x51
 3517 036d 9F       		.byte	0x9f
 3518 036e 48000000 		.4byte	.LVL31
 3519 0372 50000000 		.4byte	.LFE11
 3520 0376 0100     		.2byte	0x1
 3521 0378 51       		.byte	0x51
 3522 0379 00000000 		.4byte	0
 3523 037d 00000000 		.4byte	0
 3524              	.LLST4:
 3525 0381 00000000 		.4byte	.LVL11
 3526 0385 18000000 		.4byte	.LVL14
 3527 0389 0100     		.2byte	0x1
 3528 038b 50       		.byte	0x50
 3529 038c 18000000 		.4byte	.LVL14
 3530 0390 58000000 		.4byte	.LFE9
 3531 0394 0100     		.2byte	0x1
 3532 0396 54       		.byte	0x54
 3533 0397 00000000 		.4byte	0
 3534 039b 00000000 		.4byte	0
ARM GAS  /var/folders/3j/4xdnk5197cv_b7cw3n33qk7r0000gn/T//ccOqb1Kq.s 			page 63


 3535              	.LLST5:
 3536 039f 00000000 		.4byte	.LVL11
 3537 03a3 14000000 		.4byte	.LVL13
 3538 03a7 0100     		.2byte	0x1
 3539 03a9 51       		.byte	0x51
 3540 03aa 14000000 		.4byte	.LVL13
 3541 03ae 58000000 		.4byte	.LFE9
 3542 03b2 0100     		.2byte	0x1
 3543 03b4 56       		.byte	0x56
 3544 03b5 00000000 		.4byte	0
 3545 03b9 00000000 		.4byte	0
 3546              	.LLST6:
 3547 03bd 00000000 		.4byte	.LVL11
 3548 03c1 1B000000 		.4byte	.LVL15-1
 3549 03c5 0100     		.2byte	0x1
 3550 03c7 52       		.byte	0x52
 3551 03c8 1B000000 		.4byte	.LVL15-1
 3552 03cc 58000000 		.4byte	.LFE9
 3553 03d0 0400     		.2byte	0x4
 3554 03d2 F3       		.byte	0xf3
 3555 03d3 01       		.uleb128 0x1
 3556 03d4 52       		.byte	0x52
 3557 03d5 9F       		.byte	0x9f
 3558 03d6 00000000 		.4byte	0
 3559 03da 00000000 		.4byte	0
 3560              	.LLST7:
 3561 03de 10000000 		.4byte	.LVL12
 3562 03e2 1B000000 		.4byte	.LVL15-1
 3563 03e6 0100     		.2byte	0x1
 3564 03e8 52       		.byte	0x52
 3565 03e9 1B000000 		.4byte	.LVL15-1
 3566 03ed 4C000000 		.4byte	.LVL19
 3567 03f1 0400     		.2byte	0x4
 3568 03f3 F3       		.byte	0xf3
 3569 03f4 01       		.uleb128 0x1
 3570 03f5 52       		.byte	0x52
 3571 03f6 9F       		.byte	0x9f
 3572 03f7 00000000 		.4byte	0
 3573 03fb 00000000 		.4byte	0
 3574              	.LLST8:
 3575 03ff 10000000 		.4byte	.LVL12
 3576 0403 14000000 		.4byte	.LVL13
 3577 0407 0100     		.2byte	0x1
 3578 0409 51       		.byte	0x51
 3579 040a 14000000 		.4byte	.LVL13
 3580 040e 4C000000 		.4byte	.LVL19
 3581 0412 0100     		.2byte	0x1
 3582 0414 56       		.byte	0x56
 3583 0415 00000000 		.4byte	0
 3584 0419 00000000 		.4byte	0
 3585              	.LLST9:
 3586 041d 10000000 		.4byte	.LVL12
 3587 0421 18000000 		.4byte	.LVL14
 3588 0425 0100     		.2byte	0x1
 3589 0427 50       		.byte	0x50
 3590 0428 18000000 		.4byte	.LVL14
 3591 042c 4C000000 		.4byte	.LVL19
ARM GAS  /var/folders/3j/4xdnk5197cv_b7cw3n33qk7r0000gn/T//ccOqb1Kq.s 			page 64


 3592 0430 0100     		.2byte	0x1
 3593 0432 54       		.byte	0x54
 3594 0433 00000000 		.4byte	0
 3595 0437 00000000 		.4byte	0
 3596              	.LLST10:
 3597 043b 1C000000 		.4byte	.LVL15
 3598 043f 40000000 		.4byte	.LVL17
 3599 0443 0100     		.2byte	0x1
 3600 0445 50       		.byte	0x50
 3601 0446 40000000 		.4byte	.LVL17
 3602 044a 4C000000 		.4byte	.LVL19
 3603 044e 0100     		.2byte	0x1
 3604 0450 55       		.byte	0x55
 3605 0451 00000000 		.4byte	0
 3606 0455 00000000 		.4byte	0
 3607              	.LLST11:
 3608 0459 24000000 		.4byte	.LVL16
 3609 045d 4C000000 		.4byte	.LVL19
 3610 0461 0400     		.2byte	0x4
 3611 0463 F3       		.byte	0xf3
 3612 0464 01       		.uleb128 0x1
 3613 0465 52       		.byte	0x52
 3614 0466 9F       		.byte	0x9f
 3615 0467 00000000 		.4byte	0
 3616 046b 00000000 		.4byte	0
 3617              	.LLST12:
 3618 046f 24000000 		.4byte	.LVL16
 3619 0473 4C000000 		.4byte	.LVL19
 3620 0477 0100     		.2byte	0x1
 3621 0479 56       		.byte	0x56
 3622 047a 00000000 		.4byte	0
 3623 047e 00000000 		.4byte	0
 3624              	.LLST13:
 3625 0482 24000000 		.4byte	.LVL16
 3626 0486 4C000000 		.4byte	.LVL19
 3627 048a 0100     		.2byte	0x1
 3628 048c 54       		.byte	0x54
 3629 048d 00000000 		.4byte	0
 3630 0491 00000000 		.4byte	0
 3631              	.LLST3:
 3632 0495 00000000 		.4byte	.LVL6
 3633 0499 28000000 		.4byte	.LVL7
 3634 049d 0100     		.2byte	0x1
 3635 049f 50       		.byte	0x50
 3636 04a0 28000000 		.4byte	.LVL7
 3637 04a4 44000000 		.4byte	.LFE8
 3638 04a8 0100     		.2byte	0x1
 3639 04aa 54       		.byte	0x54
 3640 04ab 00000000 		.4byte	0
 3641 04af 00000000 		.4byte	0
 3642              	.LLST0:
 3643 04b3 00000000 		.4byte	.LVL0
 3644 04b7 28000000 		.4byte	.LVL2
 3645 04bb 0100     		.2byte	0x1
 3646 04bd 50       		.byte	0x50
 3647 04be 28000000 		.4byte	.LVL2
 3648 04c2 38000000 		.4byte	.LVL4
ARM GAS  /var/folders/3j/4xdnk5197cv_b7cw3n33qk7r0000gn/T//ccOqb1Kq.s 			page 65


 3649 04c6 0100     		.2byte	0x1
 3650 04c8 54       		.byte	0x54
 3651 04c9 38000000 		.4byte	.LVL4
 3652 04cd 3B000000 		.4byte	.LVL5-1
 3653 04d1 0300     		.2byte	0x3
 3654 04d3 70       		.byte	0x70
 3655 04d4 70       		.sleb128 -16
 3656 04d5 9F       		.byte	0x9f
 3657 04d6 3B000000 		.4byte	.LVL5-1
 3658 04da 3C000000 		.4byte	.LFE7
 3659 04de 0400     		.2byte	0x4
 3660 04e0 F3       		.byte	0xf3
 3661 04e1 01       		.uleb128 0x1
 3662 04e2 50       		.byte	0x50
 3663 04e3 9F       		.byte	0x9f
 3664 04e4 00000000 		.4byte	0
 3665 04e8 00000000 		.4byte	0
 3666              	.LLST1:
 3667 04ec 00000000 		.4byte	.LVL0
 3668 04f0 10000000 		.4byte	.LVL1
 3669 04f4 0100     		.2byte	0x1
 3670 04f6 51       		.byte	0x51
 3671 04f7 10000000 		.4byte	.LVL1
 3672 04fb 2B000000 		.4byte	.LVL3-1
 3673 04ff 0100     		.2byte	0x1
 3674 0501 53       		.byte	0x53
 3675 0502 2B000000 		.4byte	.LVL3-1
 3676 0506 3C000000 		.4byte	.LFE7
 3677 050a 0400     		.2byte	0x4
 3678 050c F3       		.byte	0xf3
 3679 050d 01       		.uleb128 0x1
 3680 050e 51       		.byte	0x51
 3681 050f 9F       		.byte	0x9f
 3682 0510 00000000 		.4byte	0
 3683 0514 00000000 		.4byte	0
 3684              	.LLST2:
 3685 0518 00000000 		.4byte	.LVL0
 3686 051c 2B000000 		.4byte	.LVL3-1
 3687 0520 0100     		.2byte	0x1
 3688 0522 52       		.byte	0x52
 3689 0523 2B000000 		.4byte	.LVL3-1
 3690 0527 3C000000 		.4byte	.LFE7
 3691 052b 0400     		.2byte	0x4
 3692 052d F3       		.byte	0xf3
 3693 052e 01       		.uleb128 0x1
 3694 052f 52       		.byte	0x52
 3695 0530 9F       		.byte	0x9f
 3696 0531 00000000 		.4byte	0
 3697 0535 00000000 		.4byte	0
 3698              	.LLST14:
 3699 0539 00000000 		.4byte	.LVL20
 3700 053d 10000000 		.4byte	.LVL21
 3701 0541 0100     		.2byte	0x1
 3702 0543 50       		.byte	0x50
 3703 0544 10000000 		.4byte	.LVL21
 3704 0548 50000000 		.4byte	.LFE10
 3705 054c 0100     		.2byte	0x1
ARM GAS  /var/folders/3j/4xdnk5197cv_b7cw3n33qk7r0000gn/T//ccOqb1Kq.s 			page 66


 3706 054e 54       		.byte	0x54
 3707 054f 00000000 		.4byte	0
 3708 0553 00000000 		.4byte	0
 3709              	.LLST15:
 3710 0557 00000000 		.4byte	.LVL20
 3711 055b 14000000 		.4byte	.LVL22
 3712 055f 0100     		.2byte	0x1
 3713 0561 51       		.byte	0x51
 3714 0562 14000000 		.4byte	.LVL22
 3715 0566 50000000 		.4byte	.LFE10
 3716 056a 0100     		.2byte	0x1
 3717 056c 56       		.byte	0x56
 3718 056d 00000000 		.4byte	0
 3719 0571 00000000 		.4byte	0
 3720              	.LLST16:
 3721 0575 00000000 		.4byte	.LVL20
 3722 0579 17000000 		.4byte	.LVL23-1
 3723 057d 0100     		.2byte	0x1
 3724 057f 52       		.byte	0x52
 3725 0580 17000000 		.4byte	.LVL23-1
 3726 0584 50000000 		.4byte	.LFE10
 3727 0588 0400     		.2byte	0x4
 3728 058a F3       		.byte	0xf3
 3729 058b 01       		.uleb128 0x1
 3730 058c 52       		.byte	0x52
 3731 058d 9F       		.byte	0x9f
 3732 058e 00000000 		.4byte	0
 3733 0592 00000000 		.4byte	0
 3734              	.LLST17:
 3735 0596 18000000 		.4byte	.LVL23
 3736 059a 3C000000 		.4byte	.LVL25
 3737 059e 0100     		.2byte	0x1
 3738 05a0 50       		.byte	0x50
 3739 05a1 3C000000 		.4byte	.LVL25
 3740 05a5 50000000 		.4byte	.LFE10
 3741 05a9 0100     		.2byte	0x1
 3742 05ab 55       		.byte	0x55
 3743 05ac 00000000 		.4byte	0
 3744 05b0 00000000 		.4byte	0
 3745              	.LLST18:
 3746 05b4 20000000 		.4byte	.LVL24
 3747 05b8 48000000 		.4byte	.LVL27
 3748 05bc 0400     		.2byte	0x4
 3749 05be F3       		.byte	0xf3
 3750 05bf 01       		.uleb128 0x1
 3751 05c0 52       		.byte	0x52
 3752 05c1 9F       		.byte	0x9f
 3753 05c2 00000000 		.4byte	0
 3754 05c6 00000000 		.4byte	0
 3755              	.LLST19:
 3756 05ca 20000000 		.4byte	.LVL24
 3757 05ce 48000000 		.4byte	.LVL27
 3758 05d2 0100     		.2byte	0x1
 3759 05d4 56       		.byte	0x56
 3760 05d5 00000000 		.4byte	0
 3761 05d9 00000000 		.4byte	0
 3762              	.LLST20:
ARM GAS  /var/folders/3j/4xdnk5197cv_b7cw3n33qk7r0000gn/T//ccOqb1Kq.s 			page 67


 3763 05dd 20000000 		.4byte	.LVL24
 3764 05e1 48000000 		.4byte	.LVL27
 3765 05e5 0100     		.2byte	0x1
 3766 05e7 54       		.byte	0x54
 3767 05e8 00000000 		.4byte	0
 3768 05ec 00000000 		.4byte	0
 3769              	.LLST33:
 3770 05f0 00000000 		.4byte	.LVL42
 3771 05f4 10000000 		.4byte	.LVL43
 3772 05f8 0100     		.2byte	0x1
 3773 05fa 50       		.byte	0x50
 3774 05fb 10000000 		.4byte	.LVL43
 3775 05ff 58000000 		.4byte	.LFE13
 3776 0603 0100     		.2byte	0x1
 3777 0605 54       		.byte	0x54
 3778 0606 00000000 		.4byte	0
 3779 060a 00000000 		.4byte	0
 3780              	.LLST34:
 3781 060e 00000000 		.4byte	.LVL42
 3782 0612 14000000 		.4byte	.LVL44
 3783 0616 0100     		.2byte	0x1
 3784 0618 51       		.byte	0x51
 3785 0619 14000000 		.4byte	.LVL44
 3786 061d 58000000 		.4byte	.LFE13
 3787 0621 0100     		.2byte	0x1
 3788 0623 56       		.byte	0x56
 3789 0624 00000000 		.4byte	0
 3790 0628 00000000 		.4byte	0
 3791              	.LLST35:
 3792 062c 00000000 		.4byte	.LVL42
 3793 0630 17000000 		.4byte	.LVL45-1
 3794 0634 0100     		.2byte	0x1
 3795 0636 52       		.byte	0x52
 3796 0637 17000000 		.4byte	.LVL45-1
 3797 063b 58000000 		.4byte	.LFE13
 3798 063f 0400     		.2byte	0x4
 3799 0641 F3       		.byte	0xf3
 3800 0642 01       		.uleb128 0x1
 3801 0643 52       		.byte	0x52
 3802 0644 9F       		.byte	0x9f
 3803 0645 00000000 		.4byte	0
 3804 0649 00000000 		.4byte	0
 3805              	.LLST36:
 3806 064d 18000000 		.4byte	.LVL45
 3807 0651 3C000000 		.4byte	.LVL47
 3808 0655 0100     		.2byte	0x1
 3809 0657 50       		.byte	0x50
 3810 0658 3C000000 		.4byte	.LVL47
 3811 065c 58000000 		.4byte	.LFE13
 3812 0660 0100     		.2byte	0x1
 3813 0662 55       		.byte	0x55
 3814 0663 00000000 		.4byte	0
 3815 0667 00000000 		.4byte	0
 3816              	.LLST37:
 3817 066b 20000000 		.4byte	.LVL46
 3818 066f 50000000 		.4byte	.LVL49
 3819 0673 0400     		.2byte	0x4
ARM GAS  /var/folders/3j/4xdnk5197cv_b7cw3n33qk7r0000gn/T//ccOqb1Kq.s 			page 68


 3820 0675 F3       		.byte	0xf3
 3821 0676 01       		.uleb128 0x1
 3822 0677 52       		.byte	0x52
 3823 0678 9F       		.byte	0x9f
 3824 0679 00000000 		.4byte	0
 3825 067d 00000000 		.4byte	0
 3826              	.LLST38:
 3827 0681 20000000 		.4byte	.LVL46
 3828 0685 50000000 		.4byte	.LVL49
 3829 0689 0100     		.2byte	0x1
 3830 068b 56       		.byte	0x56
 3831 068c 00000000 		.4byte	0
 3832 0690 00000000 		.4byte	0
 3833              	.LLST39:
 3834 0694 20000000 		.4byte	.LVL46
 3835 0698 50000000 		.4byte	.LVL49
 3836 069c 0100     		.2byte	0x1
 3837 069e 54       		.byte	0x54
 3838 069f 00000000 		.4byte	0
 3839 06a3 00000000 		.4byte	0
 3840              	.LLST52:
 3841 06a7 00000000 		.4byte	.LVL64
 3842 06ab 10000000 		.4byte	.LVL65
 3843 06af 0100     		.2byte	0x1
 3844 06b1 50       		.byte	0x50
 3845 06b2 10000000 		.4byte	.LVL65
 3846 06b6 58000000 		.4byte	.LFE16
 3847 06ba 0100     		.2byte	0x1
 3848 06bc 54       		.byte	0x54
 3849 06bd 00000000 		.4byte	0
 3850 06c1 00000000 		.4byte	0
 3851              	.LLST53:
 3852 06c5 00000000 		.4byte	.LVL64
 3853 06c9 14000000 		.4byte	.LVL66
 3854 06cd 0100     		.2byte	0x1
 3855 06cf 51       		.byte	0x51
 3856 06d0 14000000 		.4byte	.LVL66
 3857 06d4 58000000 		.4byte	.LFE16
 3858 06d8 0100     		.2byte	0x1
 3859 06da 56       		.byte	0x56
 3860 06db 00000000 		.4byte	0
 3861 06df 00000000 		.4byte	0
 3862              	.LLST54:
 3863 06e3 00000000 		.4byte	.LVL64
 3864 06e7 17000000 		.4byte	.LVL67-1
 3865 06eb 0100     		.2byte	0x1
 3866 06ed 52       		.byte	0x52
 3867 06ee 17000000 		.4byte	.LVL67-1
 3868 06f2 58000000 		.4byte	.LFE16
 3869 06f6 0400     		.2byte	0x4
 3870 06f8 F3       		.byte	0xf3
 3871 06f9 01       		.uleb128 0x1
 3872 06fa 52       		.byte	0x52
 3873 06fb 9F       		.byte	0x9f
 3874 06fc 00000000 		.4byte	0
 3875 0700 00000000 		.4byte	0
 3876              	.LLST55:
ARM GAS  /var/folders/3j/4xdnk5197cv_b7cw3n33qk7r0000gn/T//ccOqb1Kq.s 			page 69


 3877 0704 18000000 		.4byte	.LVL67
 3878 0708 44000000 		.4byte	.LVL69
 3879 070c 0100     		.2byte	0x1
 3880 070e 50       		.byte	0x50
 3881 070f 44000000 		.4byte	.LVL69
 3882 0713 58000000 		.4byte	.LFE16
 3883 0717 0100     		.2byte	0x1
 3884 0719 55       		.byte	0x55
 3885 071a 00000000 		.4byte	0
 3886 071e 00000000 		.4byte	0
 3887              	.LLST56:
 3888 0722 20000000 		.4byte	.LVL68
 3889 0726 50000000 		.4byte	.LVL71
 3890 072a 0400     		.2byte	0x4
 3891 072c F3       		.byte	0xf3
 3892 072d 01       		.uleb128 0x1
 3893 072e 52       		.byte	0x52
 3894 072f 9F       		.byte	0x9f
 3895 0730 00000000 		.4byte	0
 3896 0734 00000000 		.4byte	0
 3897              	.LLST57:
 3898 0738 20000000 		.4byte	.LVL68
 3899 073c 50000000 		.4byte	.LVL71
 3900 0740 0100     		.2byte	0x1
 3901 0742 56       		.byte	0x56
 3902 0743 00000000 		.4byte	0
 3903 0747 00000000 		.4byte	0
 3904              	.LLST58:
 3905 074b 20000000 		.4byte	.LVL68
 3906 074f 50000000 		.4byte	.LVL71
 3907 0753 0100     		.2byte	0x1
 3908 0755 54       		.byte	0x54
 3909 0756 00000000 		.4byte	0
 3910 075a 00000000 		.4byte	0
 3911              		.section	.debug_aranges,"",%progbits
 3912 0000 6C000000 		.4byte	0x6c
 3913 0004 0200     		.2byte	0x2
 3914 0006 00000000 		.4byte	.Ldebug_info0
 3915 000a 04       		.byte	0x4
 3916 000b 00       		.byte	0
 3917 000c 0000     		.2byte	0
 3918 000e 0000     		.2byte	0
 3919 0010 00000000 		.4byte	.LFB7
 3920 0014 3C000000 		.4byte	.LFE7-.LFB7
 3921 0018 00000000 		.4byte	.LFB8
 3922 001c 44000000 		.4byte	.LFE8-.LFB8
 3923 0020 00000000 		.4byte	.LFB9
 3924 0024 58000000 		.4byte	.LFE9-.LFB9
 3925 0028 00000000 		.4byte	.LFB10
 3926 002c 50000000 		.4byte	.LFE10-.LFB10
 3927 0030 00000000 		.4byte	.LFB11
 3928 0034 50000000 		.4byte	.LFE11-.LFB11
 3929 0038 00000000 		.4byte	.LFB12
 3930 003c 60000000 		.4byte	.LFE12-.LFB12
 3931 0040 00000000 		.4byte	.LFB13
 3932 0044 58000000 		.4byte	.LFE13-.LFB13
 3933 0048 00000000 		.4byte	.LFB14
ARM GAS  /var/folders/3j/4xdnk5197cv_b7cw3n33qk7r0000gn/T//ccOqb1Kq.s 			page 70


 3934 004c 54000000 		.4byte	.LFE14-.LFB14
 3935 0050 00000000 		.4byte	.LFB15
 3936 0054 60000000 		.4byte	.LFE15-.LFB15
 3937 0058 00000000 		.4byte	.LFB16
 3938 005c 58000000 		.4byte	.LFE16-.LFB16
 3939 0060 00000000 		.4byte	.LFB17
 3940 0064 54000000 		.4byte	.LFE17-.LFB17
 3941 0068 00000000 		.4byte	0
 3942 006c 00000000 		.4byte	0
 3943              		.section	.debug_ranges,"",%progbits
 3944              	.Ldebug_ranges0:
 3945 0000 00000000 		.4byte	.LFB7
 3946 0004 3C000000 		.4byte	.LFE7
 3947 0008 00000000 		.4byte	.LFB8
 3948 000c 44000000 		.4byte	.LFE8
 3949 0010 00000000 		.4byte	.LFB9
 3950 0014 58000000 		.4byte	.LFE9
 3951 0018 00000000 		.4byte	.LFB10
 3952 001c 50000000 		.4byte	.LFE10
 3953 0020 00000000 		.4byte	.LFB11
 3954 0024 50000000 		.4byte	.LFE11
 3955 0028 00000000 		.4byte	.LFB12
 3956 002c 60000000 		.4byte	.LFE12
 3957 0030 00000000 		.4byte	.LFB13
 3958 0034 58000000 		.4byte	.LFE13
 3959 0038 00000000 		.4byte	.LFB14
 3960 003c 54000000 		.4byte	.LFE14
 3961 0040 00000000 		.4byte	.LFB15
 3962 0044 60000000 		.4byte	.LFE15
 3963 0048 00000000 		.4byte	.LFB16
 3964 004c 58000000 		.4byte	.LFE16
 3965 0050 00000000 		.4byte	.LFB17
 3966 0054 54000000 		.4byte	.LFE17
 3967 0058 00000000 		.4byte	0
 3968 005c 00000000 		.4byte	0
 3969              		.section	.debug_line,"",%progbits
 3970              	.Ldebug_line0:
 3971 0000 01030000 		.section	.debug_str,"MS",%progbits,1
 3971      02009801 
 3971      00000201 
 3971      FB0E0D00 
 3971      01010101 
 3972              	.LASF98:
 3973 0000 63665F6F 		.ascii	"cf_off_older\000"
 3973      66665F6F 
 3973      6C646572 
 3973      00
 3974              	.LASF41:
 3975 000d 705F6D73 		.ascii	"p_msg\000"
 3975      6700
 3976              	.LASF122:
 3977 0013 63685365 		.ascii	"chSemSignalI\000"
 3977      6D536967 
 3977      6E616C49 
 3977      00
 3978              	.LASF83:
 3979 0020 7264796D 		.ascii	"rdymsg\000"
ARM GAS  /var/folders/3j/4xdnk5197cv_b7cw3n33qk7r0000gn/T//ccOqb1Kq.s 			page 71


 3979      736700
 3980              	.LASF79:
 3981 0027 6D625F72 		.ascii	"mb_rdptr\000"
 3981      64707472 
 3981      00
 3982              	.LASF4:
 3983 0030 5F5F7569 		.ascii	"__uint8_t\000"
 3983      6E74385F 
 3983      7400
 3984              	.LASF117:
 3985 003a 63684D42 		.ascii	"chMBPostI\000"
 3985      506F7374 
 3985      4900
 3986              	.LASF67:
 3987 0044 76746C69 		.ascii	"vtlist\000"
 3987      737400
 3988              	.LASF118:
 3989 004b 63684D42 		.ascii	"chMBPostS\000"
 3989      506F7374 
 3989      5300
 3990              	.LASF82:
 3991 0055 4D61696C 		.ascii	"Mailbox\000"
 3991      626F7800 
 3992              	.LASF113:
 3993 005d 63684D42 		.ascii	"chMBPostAheadI\000"
 3993      506F7374 
 3993      41686561 
 3993      644900
 3994              	.LASF12:
 3995 006c 6C6F6E67 		.ascii	"long long unsigned int\000"
 3995      206C6F6E 
 3995      6720756E 
 3995      7369676E 
 3995      65642069 
 3996              	.LASF94:
 3997 0083 63685F74 		.ascii	"ch_threadsize\000"
 3997      68726561 
 3997      6473697A 
 3997      6500
 3998              	.LASF84:
 3999 0091 65786974 		.ascii	"exitcode\000"
 3999      636F6465 
 3999      00
 4000              	.LASF121:
 4001 009a 63684D42 		.ascii	"chMBInit\000"
 4001      496E6974 
 4001      00
 4002              	.LASF115:
 4003 00a3 63684D42 		.ascii	"chMBPostAheadS\000"
 4003      506F7374 
 4003      41686561 
 4003      645300
 4004              	.LASF78:
 4005 00b2 6D625F77 		.ascii	"mb_wrptr\000"
 4005      72707472 
 4005      00
 4006              	.LASF29:
ARM GAS  /var/folders/3j/4xdnk5197cv_b7cw3n33qk7r0000gn/T//ccOqb1Kq.s 			page 72


 4007 00bb 705F7072 		.ascii	"p_prio\000"
 4007      696F00
 4008              	.LASF101:
 4009 00c2 63665F6F 		.ascii	"cf_off_state\000"
 4009      66665F73 
 4009      74617465 
 4009      00
 4010              	.LASF11:
 4011 00cf 6C6F6E67 		.ascii	"long long int\000"
 4011      206C6F6E 
 4011      6720696E 
 4011      7400
 4012              	.LASF1:
 4013 00dd 7369676E 		.ascii	"signed char\000"
 4013      65642063 
 4013      68617200 
 4014              	.LASF100:
 4015 00e9 63665F6F 		.ascii	"cf_off_stklimit\000"
 4015      66665F73 
 4015      746B6C69 
 4015      6D697400 
 4016              	.LASF102:
 4017 00f9 63665F6F 		.ascii	"cf_off_flags\000"
 4017      66665F66 
 4017      6C616773 
 4017      00
 4018              	.LASF73:
 4019 0106 6D5F7175 		.ascii	"m_queue\000"
 4019      65756500 
 4020              	.LASF127:
 4021 010e 474E5520 		.ascii	"GNU C11 7.3.1 20180622 (release) [ARM/embedded-7-br"
 4021      43313120 
 4021      372E332E 
 4021      31203230 
 4021      31383036 
 4022 0141 616E6368 		.ascii	"anch revision 261907] -mcpu=arm1176jz-s -mno-thumb-"
 4022      20726576 
 4022      6973696F 
 4022      6E203236 
 4022      31393037 
 4023 0174 696E7465 		.ascii	"interwork -ggdb -O2 -fomit-frame-pointer -ffunction"
 4023      72776F72 
 4023      6B202D67 
 4023      67646220 
 4023      2D4F3220 
 4024 01a7 2D736563 		.ascii	"-sections -fdata-sections\000"
 4024      74696F6E 
 4024      73202D66 
 4024      64617461 
 4024      2D736563 
 4025              	.LASF8:
 4026 01c1 6C6F6E67 		.ascii	"long int\000"
 4026      20696E74 
 4026      00
 4027              	.LASF18:
 4028 01ca 74737461 		.ascii	"tstate_t\000"
 4028      74655F74 
ARM GAS  /var/folders/3j/4xdnk5197cv_b7cw3n33qk7r0000gn/T//ccOqb1Kq.s 			page 73


 4028      00
 4029              	.LASF14:
 4030 01d3 75696E74 		.ascii	"uint16_t\000"
 4030      31365F74 
 4030      00
 4031              	.LASF106:
 4032 01dc 63686465 		.ascii	"chdebug_t\000"
 4032      6275675F 
 4032      7400
 4033              	.LASF31:
 4034 01e6 705F6E65 		.ascii	"p_newer\000"
 4034      77657200 
 4035              	.LASF108:
 4036 01ee 5F69646C 		.ascii	"_idle_thread_wa\000"
 4036      655F7468 
 4036      72656164 
 4036      5F776100 
 4037              	.LASF70:
 4038 01fe 735F7175 		.ascii	"s_queue\000"
 4038      65756500 
 4039              	.LASF123:
 4040 0206 63685363 		.ascii	"chSchRescheduleS\000"
 4040      68526573 
 4040      63686564 
 4040      756C6553 
 4040      00
 4041              	.LASF9:
 4042 0217 5F5F7569 		.ascii	"__uint32_t\000"
 4042      6E743332 
 4042      5F7400
 4043              	.LASF48:
 4044 0222 72656761 		.ascii	"regarm_t\000"
 4044      726D5F74 
 4044      00
 4045              	.LASF54:
 4046 022b 76745F70 		.ascii	"vt_prev\000"
 4046      72657600 
 4047              	.LASF53:
 4048 0233 76745F6E 		.ascii	"vt_next\000"
 4048      65787400 
 4049              	.LASF25:
 4050 023b 636E745F 		.ascii	"cnt_t\000"
 4050      7400
 4051              	.LASF0:
 4052 0241 756E7369 		.ascii	"unsigned int\000"
 4052      676E6564 
 4052      20696E74 
 4052      00
 4053              	.LASF128:
 4054 024e 2E2E2F2F 		.ascii	"..//os/kernel/src/chmboxes.c\000"
 4054      6F732F6B 
 4054      65726E65 
 4054      6C2F7372 
 4054      632F6368 
 4055              	.LASF10:
 4056 026b 6C6F6E67 		.ascii	"long unsigned int\000"
 4056      20756E73 
ARM GAS  /var/folders/3j/4xdnk5197cv_b7cw3n33qk7r0000gn/T//ccOqb1Kq.s 			page 74


 4056      69676E65 
 4056      6420696E 
 4056      7400
 4057              	.LASF107:
 4058 027d 63685F64 		.ascii	"ch_debug\000"
 4058      65627567 
 4058      00
 4059              	.LASF81:
 4060 0286 6D625F65 		.ascii	"mb_emptysem\000"
 4060      6D707479 
 4060      73656D00 
 4061              	.LASF51:
 4062 0292 76746675 		.ascii	"vtfunc_t\000"
 4062      6E635F74 
 4062      00
 4063              	.LASF88:
 4064 029b 63685F69 		.ascii	"ch_identifier\000"
 4064      64656E74 
 4064      69666965 
 4064      7200
 4065              	.LASF71:
 4066 02a9 735F636E 		.ascii	"s_cnt\000"
 4066      7400
 4067              	.LASF50:
 4068 02af 636F6E74 		.ascii	"context\000"
 4068      65787400 
 4069              	.LASF6:
 4070 02b7 73686F72 		.ascii	"short unsigned int\000"
 4070      7420756E 
 4070      7369676E 
 4070      65642069 
 4070      6E7400
 4071              	.LASF111:
 4072 02ca 63684D42 		.ascii	"chMBFetchI\000"
 4072      46657463 
 4072      684900
 4073              	.LASF22:
 4074 02d5 6D73675F 		.ascii	"msg_t\000"
 4074      7400
 4075              	.LASF63:
 4076 02db 725F6E65 		.ascii	"r_newer\000"
 4076      77657200 
 4077              	.LASF114:
 4078 02e3 63684D42 		.ascii	"chMBFetchS\000"
 4078      46657463 
 4078      685300
 4079              	.LASF17:
 4080 02ee 746D6F64 		.ascii	"tmode_t\000"
 4080      655F7400 
 4081              	.LASF46:
 4082 02f6 54687265 		.ascii	"ThreadsList\000"
 4082      6164734C 
 4082      69737400 
 4083              	.LASF23:
 4084 0302 6576656E 		.ascii	"eventmask_t\000"
 4084      746D6173 
 4084      6B5F7400 
ARM GAS  /var/folders/3j/4xdnk5197cv_b7cw3n33qk7r0000gn/T//ccOqb1Kq.s 			page 75


 4085              	.LASF72:
 4086 030e 4D757465 		.ascii	"Mutex\000"
 4086      7800
 4087              	.LASF109:
 4088 0314 6D736770 		.ascii	"msgp\000"
 4088      00
 4089              	.LASF47:
 4090 0319 73746B61 		.ascii	"stkalign_t\000"
 4090      6C69676E 
 4090      5F7400
 4091              	.LASF89:
 4092 0324 63685F7A 		.ascii	"ch_zero\000"
 4092      65726F00 
 4093              	.LASF103:
 4094 032c 63665F6F 		.ascii	"cf_off_refs\000"
 4094      66665F72 
 4094      65667300 
 4095              	.LASF55:
 4096 0338 76745F74 		.ascii	"vt_time\000"
 4096      696D6500 
 4097              	.LASF56:
 4098 0340 76745F66 		.ascii	"vt_func\000"
 4098      756E6300 
 4099              	.LASF93:
 4100 0348 63685F74 		.ascii	"ch_timesize\000"
 4100      696D6573 
 4100      697A6500 
 4101              	.LASF120:
 4102 0354 63684D42 		.ascii	"chMBReset\000"
 4102      52657365 
 4102      7400
 4103              	.LASF99:
 4104 035e 63665F6F 		.ascii	"cf_off_name\000"
 4104      66665F6E 
 4104      616D6500 
 4105              	.LASF32:
 4106 036a 705F6F6C 		.ascii	"p_older\000"
 4106      64657200 
 4107              	.LASF62:
 4108 0372 725F6374 		.ascii	"r_ctx\000"
 4108      7800
 4109              	.LASF45:
 4110 0378 54687265 		.ascii	"ThreadsQueue\000"
 4110      61647351 
 4110      75657565 
 4110      00
 4111              	.LASF90:
 4112 0385 63685F73 		.ascii	"ch_size\000"
 4112      697A6500 
 4113              	.LASF76:
 4114 038d 6D625F62 		.ascii	"mb_buffer\000"
 4114      75666665 
 4114      7200
 4115              	.LASF110:
 4116 0397 74696D65 		.ascii	"time\000"
 4116      00
 4117              	.LASF65:
ARM GAS  /var/folders/3j/4xdnk5197cv_b7cw3n33qk7r0000gn/T//ccOqb1Kq.s 			page 76


 4118 039c 725F6375 		.ascii	"r_current\000"
 4118      7272656E 
 4118      7400
 4119              	.LASF64:
 4120 03a6 725F6F6C 		.ascii	"r_older\000"
 4120      64657200 
 4121              	.LASF19:
 4122 03ae 74726566 		.ascii	"trefs_t\000"
 4122      735F7400 
 4123              	.LASF92:
 4124 03b6 63685F70 		.ascii	"ch_ptrsize\000"
 4124      74727369 
 4124      7A6500
 4125              	.LASF28:
 4126 03c1 705F7072 		.ascii	"p_prev\000"
 4126      657600
 4127              	.LASF21:
 4128 03c8 74707269 		.ascii	"tprio_t\000"
 4128      6F5F7400 
 4129              	.LASF15:
 4130 03d0 696E7433 		.ascii	"int32_t\000"
 4130      325F7400 
 4131              	.LASF2:
 4132 03d8 756E7369 		.ascii	"unsigned char\000"
 4132      676E6564 
 4132      20636861 
 4132      7200
 4133              	.LASF77:
 4134 03e6 6D625F74 		.ascii	"mb_top\000"
 4134      6F7000
 4135              	.LASF129:
 4136 03ed 2F557365 		.ascii	"/Users/kevinmalmsten/development_raspberry_pi/Chibi"
 4136      72732F6B 
 4136      6576696E 
 4136      6D616C6D 
 4136      7374656E 
 4137 0420 4F532D42 		.ascii	"OS-Backup/__Backup_System\000"
 4137      61636B75 
 4137      702F5F5F 
 4137      4261636B 
 4137      75705F53 
 4138              	.LASF43:
 4139 043a 705F6D74 		.ascii	"p_mtxlist\000"
 4139      786C6973 
 4139      7400
 4140              	.LASF3:
 4141 0444 73686F72 		.ascii	"short int\000"
 4141      7420696E 
 4141      7400
 4142              	.LASF34:
 4143 044e 705F7374 		.ascii	"p_state\000"
 4143      61746500 
 4144              	.LASF37:
 4145 0456 705F7072 		.ascii	"p_preempt\000"
 4145      65656D70 
 4145      7400
 4146              	.LASF105:
ARM GAS  /var/folders/3j/4xdnk5197cv_b7cw3n33qk7r0000gn/T//ccOqb1Kq.s 			page 77


 4147 0460 63665F6F 		.ascii	"cf_off_time\000"
 4147      66665F74 
 4147      696D6500 
 4148              	.LASF61:
 4149 046c 725F7072 		.ascii	"r_prio\000"
 4149      696F00
 4150              	.LASF86:
 4151 0473 65776D61 		.ascii	"ewmask\000"
 4151      736B00
 4152              	.LASF27:
 4153 047a 705F6E65 		.ascii	"p_next\000"
 4153      787400
 4154              	.LASF104:
 4155 0481 63665F6F 		.ascii	"cf_off_preempt\000"
 4155      66665F70 
 4155      7265656D 
 4155      707400
 4156              	.LASF35:
 4157 0490 705F666C 		.ascii	"p_flags\000"
 4157      61677300 
 4158              	.LASF119:
 4159 0498 63684D42 		.ascii	"chMBPost\000"
 4159      506F7374 
 4159      00
 4160              	.LASF26:
 4161 04a1 54687265 		.ascii	"Thread\000"
 4161      616400
 4162              	.LASF97:
 4163 04a8 63665F6F 		.ascii	"cf_off_newer\000"
 4163      66665F6E 
 4163      65776572 
 4163      00
 4164              	.LASF42:
 4165 04b5 705F6570 		.ascii	"p_epending\000"
 4165      656E6469 
 4165      6E6700
 4166              	.LASF16:
 4167 04c0 75696E74 		.ascii	"uint32_t\000"
 4167      33325F74 
 4167      00
 4168              	.LASF95:
 4169 04c9 63665F6F 		.ascii	"cf_off_prio\000"
 4169      66665F70 
 4169      72696F00 
 4170              	.LASF60:
 4171 04d5 725F7175 		.ascii	"r_queue\000"
 4171      65756500 
 4172              	.LASF52:
 4173 04dd 56697274 		.ascii	"VirtualTimer\000"
 4173      75616C54 
 4173      696D6572 
 4173      00
 4174              	.LASF20:
 4175 04ea 74736C69 		.ascii	"tslices_t\000"
 4175      6365735F 
 4175      7400
 4176              	.LASF87:
ARM GAS  /var/folders/3j/4xdnk5197cv_b7cw3n33qk7r0000gn/T//ccOqb1Kq.s 			page 78


 4177 04f4 63686172 		.ascii	"char\000"
 4177      00
 4178              	.LASF124:
 4179 04f9 63685365 		.ascii	"chSemWaitTimeoutS\000"
 4179      6D576169 
 4179      7454696D 
 4179      656F7574 
 4179      5300
 4180              	.LASF5:
 4181 050b 5F5F7569 		.ascii	"__uint16_t\000"
 4181      6E743136 
 4181      5F7400
 4182              	.LASF75:
 4183 0516 6D5F6E65 		.ascii	"m_next\000"
 4183      787400
 4184              	.LASF24:
 4185 051d 73797374 		.ascii	"systime_t\000"
 4185      696D655F 
 4185      7400
 4186              	.LASF44:
 4187 0527 705F7265 		.ascii	"p_realprio\000"
 4187      616C7072 
 4187      696F00
 4188              	.LASF7:
 4189 0532 5F5F696E 		.ascii	"__int32_t\000"
 4189      7433325F 
 4189      7400
 4190              	.LASF38:
 4191 053c 705F7469 		.ascii	"p_time\000"
 4191      6D6500
 4192              	.LASF116:
 4193 0543 63684D42 		.ascii	"chMBPostAhead\000"
 4193      506F7374 
 4193      41686561 
 4193      6400
 4194              	.LASF49:
 4195 0551 696E7463 		.ascii	"intctx\000"
 4195      747800
 4196              	.LASF40:
 4197 0558 705F6D73 		.ascii	"p_msgqueue\000"
 4197      67717565 
 4197      756500
 4198              	.LASF112:
 4199 0563 63684D42 		.ascii	"chMBFetch\000"
 4199      46657463 
 4199      6800
 4200              	.LASF57:
 4201 056d 76745F70 		.ascii	"vt_par\000"
 4201      617200
 4202              	.LASF69:
 4203 0574 53656D61 		.ascii	"Semaphore\000"
 4203      70686F72 
 4203      6500
 4204              	.LASF80:
 4205 057e 6D625F66 		.ascii	"mb_fullsem\000"
 4205      756C6C73 
 4205      656D00
ARM GAS  /var/folders/3j/4xdnk5197cv_b7cw3n33qk7r0000gn/T//ccOqb1Kq.s 			page 79


 4206              	.LASF96:
 4207 0589 63665F6F 		.ascii	"cf_off_ctx\000"
 4207      66665F63 
 4207      747800
 4208              	.LASF36:
 4209 0594 705F7265 		.ascii	"p_refs\000"
 4209      667300
 4210              	.LASF66:
 4211 059b 52656164 		.ascii	"ReadyList\000"
 4211      794C6973 
 4211      7400
 4212              	.LASF125:
 4213 05a5 63685365 		.ascii	"chSemResetI\000"
 4213      6D526573 
 4213      65744900 
 4214              	.LASF68:
 4215 05b1 726C6973 		.ascii	"rlist\000"
 4215      7400
 4216              	.LASF13:
 4217 05b7 75696E74 		.ascii	"uint8_t\000"
 4217      385F7400 
 4218              	.LASF85:
 4219 05bf 77746F62 		.ascii	"wtobjp\000"
 4219      6A7000
 4220              	.LASF33:
 4221 05c6 705F6E61 		.ascii	"p_name\000"
 4221      6D6500
 4222              	.LASF58:
 4223 05cd 76745F73 		.ascii	"vt_systime\000"
 4223      79737469 
 4223      6D6500
 4224              	.LASF91:
 4225 05d8 63685F76 		.ascii	"ch_version\000"
 4225      65727369 
 4225      6F6E00
 4226              	.LASF59:
 4227 05e3 56544C69 		.ascii	"VTList\000"
 4227      737400
 4228              	.LASF74:
 4229 05ea 6D5F6F77 		.ascii	"m_owner\000"
 4229      6E657200 
 4230              	.LASF30:
 4231 05f2 705F6374 		.ascii	"p_ctx\000"
 4231      7800
 4232              	.LASF39:
 4233 05f8 705F7761 		.ascii	"p_waiting\000"
 4233      6974696E 
 4233      6700
 4234              	.LASF126:
 4235 0602 63685365 		.ascii	"chSemInit\000"
 4235      6D496E69 
 4235      7400
 4236              		.ident	"GCC: (GNU Tools for Arm Embedded Processors 7-2018-q2-update) 7.3.1 20180622 (release) [AR
ARM GAS  /var/folders/3j/4xdnk5197cv_b7cw3n33qk7r0000gn/T//ccOqb1Kq.s 			page 80


DEFINED SYMBOLS
                            *ABS*:0000000000000000 chmboxes.c
/var/folders/3j/4xdnk5197cv_b7cw3n33qk7r0000gn/T//ccOqb1Kq.s:16     .text.chMBInit:0000000000000000 $a
/var/folders/3j/4xdnk5197cv_b7cw3n33qk7r0000gn/T//ccOqb1Kq.s:22     .text.chMBInit:0000000000000000 chMBInit
/var/folders/3j/4xdnk5197cv_b7cw3n33qk7r0000gn/T//ccOqb1Kq.s:67     .text.chMBReset:0000000000000000 $a
/var/folders/3j/4xdnk5197cv_b7cw3n33qk7r0000gn/T//ccOqb1Kq.s:73     .text.chMBReset:0000000000000000 chMBReset
/var/folders/3j/4xdnk5197cv_b7cw3n33qk7r0000gn/T//ccOqb1Kq.s:130    .text.chMBPost:0000000000000000 $a
/var/folders/3j/4xdnk5197cv_b7cw3n33qk7r0000gn/T//ccOqb1Kq.s:136    .text.chMBPost:0000000000000000 chMBPost
/var/folders/3j/4xdnk5197cv_b7cw3n33qk7r0000gn/T//ccOqb1Kq.s:216    .text.chMBPostS:0000000000000000 $a
/var/folders/3j/4xdnk5197cv_b7cw3n33qk7r0000gn/T//ccOqb1Kq.s:222    .text.chMBPostS:0000000000000000 chMBPostS
/var/folders/3j/4xdnk5197cv_b7cw3n33qk7r0000gn/T//ccOqb1Kq.s:283    .text.chMBPostI:0000000000000000 $a
/var/folders/3j/4xdnk5197cv_b7cw3n33qk7r0000gn/T//ccOqb1Kq.s:289    .text.chMBPostI:0000000000000000 chMBPostI
/var/folders/3j/4xdnk5197cv_b7cw3n33qk7r0000gn/T//ccOqb1Kq.s:348    .text.chMBPostAhead:0000000000000000 $a
/var/folders/3j/4xdnk5197cv_b7cw3n33qk7r0000gn/T//ccOqb1Kq.s:354    .text.chMBPostAhead:0000000000000000 chMBPostAhead
/var/folders/3j/4xdnk5197cv_b7cw3n33qk7r0000gn/T//ccOqb1Kq.s:434    .text.chMBPostAheadS:0000000000000000 $a
/var/folders/3j/4xdnk5197cv_b7cw3n33qk7r0000gn/T//ccOqb1Kq.s:440    .text.chMBPostAheadS:0000000000000000 chMBPostAheadS
/var/folders/3j/4xdnk5197cv_b7cw3n33qk7r0000gn/T//ccOqb1Kq.s:501    .text.chMBPostAheadI:0000000000000000 $a
/var/folders/3j/4xdnk5197cv_b7cw3n33qk7r0000gn/T//ccOqb1Kq.s:507    .text.chMBPostAheadI:0000000000000000 chMBPostAheadI
/var/folders/3j/4xdnk5197cv_b7cw3n33qk7r0000gn/T//ccOqb1Kq.s:565    .text.chMBFetch:0000000000000000 $a
/var/folders/3j/4xdnk5197cv_b7cw3n33qk7r0000gn/T//ccOqb1Kq.s:571    .text.chMBFetch:0000000000000000 chMBFetch
/var/folders/3j/4xdnk5197cv_b7cw3n33qk7r0000gn/T//ccOqb1Kq.s:655    .text.chMBFetchS:0000000000000000 $a
/var/folders/3j/4xdnk5197cv_b7cw3n33qk7r0000gn/T//ccOqb1Kq.s:661    .text.chMBFetchS:0000000000000000 chMBFetchS
/var/folders/3j/4xdnk5197cv_b7cw3n33qk7r0000gn/T//ccOqb1Kq.s:726    .text.chMBFetchI:0000000000000000 $a
/var/folders/3j/4xdnk5197cv_b7cw3n33qk7r0000gn/T//ccOqb1Kq.s:732    .text.chMBFetchI:0000000000000000 chMBFetchI

UNDEFINED SYMBOLS
chSemInit
chSemResetI
chSchRescheduleS
chSemWaitTimeoutS
chSemSignalI
