ARM GAS  /var/folders/3j/4xdnk5197cv_b7cw3n33qk7r0000gn/T//ccdeHuBY.s 			page 1


   1              		.cpu arm1176jz-s
   2              		.eabi_attribute 20, 1
   3              		.eabi_attribute 21, 1
   4              		.eabi_attribute 23, 3
   5              		.eabi_attribute 24, 1
   6              		.eabi_attribute 25, 1
   7              		.eabi_attribute 26, 1
   8              		.eabi_attribute 30, 2
   9              		.eabi_attribute 34, 1
  10              		.eabi_attribute 18, 4
  11              		.file	"chmtx.c"
  12              		.text
  13              	.Ltext0:
  14              		.cfi_sections	.debug_frame
  15              		.section	.text.chMtxInit,"ax",%progbits
  16              		.align	2
  17              		.global	chMtxInit
  18              		.syntax unified
  19              		.arm
  20              		.fpu softvfp
  21              		.type	chMtxInit, %function
  22              	chMtxInit:
  23              	.LFB7:
  24              		.file 1 "..//os/kernel/src/chmtx.c"
  25              		.loc 1 79 0
  26              		.cfi_startproc
  27              		@ args = 0, pretend = 0, frame = 0
  28              		@ frame_needed = 0, uses_anonymous_args = 0
  29              		@ link register save eliminated.
  30              	.LVL0:
  31              		.loc 1 84 0
  32 0000 0030A0E3 		mov	r3, #0
  33              		.loc 1 83 0
  34 0004 040080E5 		str	r0, [r0, #4]
  35 0008 000080E5 		str	r0, [r0]
  36              		.loc 1 84 0
  37 000c 083080E5 		str	r3, [r0, #8]
  38              		.loc 1 85 0
  39 0010 1EFF2FE1 		bx	lr
  40              		.cfi_endproc
  41              	.LFE7:
  42              		.size	chMtxInit, .-chMtxInit
  43              		.section	.text.chMtxLockS,"ax",%progbits
  44              		.align	2
  45              		.global	chMtxLockS
  46              		.syntax unified
  47              		.arm
  48              		.fpu softvfp
  49              		.type	chMtxLockS, %function
  50              	chMtxLockS:
  51              	.LFB9:
  52              		.loc 1 114 0
  53              		.cfi_startproc
  54              		@ args = 0, pretend = 0, frame = 0
  55              		@ frame_needed = 0, uses_anonymous_args = 0
  56              	.LVL1:
  57              		.loc 1 121 0
ARM GAS  /var/folders/3j/4xdnk5197cv_b7cw3n33qk7r0000gn/T//ccdeHuBY.s 			page 2


  58 0000 083090E5 		ldr	r3, [r0, #8]
  59              		.loc 1 115 0
  60 0004 8C219FE5 		ldr	r2, .L33
  61              		.loc 1 121 0
  62 0008 000053E3 		cmp	r3, #0
  63              		.loc 1 114 0
  64 000c 70402DE9 		push	{r4, r5, r6, lr}
  65              		.cfi_def_cfa_offset 16
  66              		.cfi_offset 4, -16
  67              		.cfi_offset 5, -12
  68              		.cfi_offset 6, -8
  69              		.cfi_offset 14, -4
  70              		.loc 1 115 0
  71 0010 184092E5 		ldr	r4, [r2, #24]
  72              	.LVL2:
  73              		.loc 1 121 0
  74 0014 3D00000A 		beq	.L26
  75              	.LBB27:
  76              		.loc 1 128 0
  77 0018 081094E5 		ldr	r1, [r4, #8]
  78 001c 082093E5 		ldr	r2, [r3, #8]
  79 0020 0050A0E1 		mov	r5, r0
  80              	.LVL3:
  81 0024 020051E1 		cmp	r1, r2
  82 0028 0700009A 		bls	.L6
  83              	.LVL4:
  84              	.L12:
  85              		.loc 1 132 0
  86 002c 1C20D3E5 		ldrb	r2, [r3, #28]	@ zero_extendqisi2
  87              		.loc 1 130 0
  88 0030 081083E5 		str	r1, [r3, #8]
  89              		.loc 1 132 0
  90 0034 040052E3 		cmp	r2, #4
  91 0038 3900000A 		beq	.L7
  92 003c 050052E3 		cmp	r2, #5
  93 0040 1400000A 		beq	.L8
  94 0044 000052E3 		cmp	r2, #0
  95 0048 2700000A 		beq	.L27
  96              	.LVL5:
  97              	.L6:
  98              		.loc 1 166 0
  99 004c 0500A0E1 		mov	r0, r5
 100              	.LVL6:
 101 0050 0530A0E1 		mov	r3, r5
 102 0054 030000EA 		b	.L17
 103              	.LVL7:
 104              	.L29:
 105              	.LBB28:
 106              	.LBB29:
 107              		.file 2 "..//os/kernel/include/chinline.h"
 108              		.loc 2 39 0
 109 0058 081093E5 		ldr	r1, [r3, #8]
 110 005c 082094E5 		ldr	r2, [r4, #8]
 111 0060 020051E1 		cmp	r1, r2
 112 0064 2700003A 		bcc	.L28
 113              	.L17:
 114              		.loc 2 38 0
ARM GAS  /var/folders/3j/4xdnk5197cv_b7cw3n33qk7r0000gn/T//ccdeHuBY.s 			page 3


 115 0068 003093E5 		ldr	r3, [r3]
 116              	.LVL8:
 117              		.loc 2 39 0
 118 006c 030055E1 		cmp	r5, r3
 119 0070 F8FFFF1A 		bne	.L29
 120              	.LVL9:
 121              	.L16:
 122              		.loc 2 41 0
 123 0074 043090E5 		ldr	r3, [r0, #4]
 124              	.LVL10:
 125 0078 090084E8 		stm	r4, {r0, r3}
 126              		.loc 2 42 0
 127 007c 044080E5 		str	r4, [r0, #4]
 128 0080 043094E5 		ldr	r3, [r4, #4]
 129              	.LBE29:
 130              	.LBE28:
 131              		.loc 1 168 0
 132 0084 0400A0E3 		mov	r0, #4
 133              	.LBB32:
 134              	.LBB30:
 135              		.loc 2 42 0
 136 0088 004083E5 		str	r4, [r3]
 137              	.LVL11:
 138              	.LBE30:
 139              	.LBE32:
 140              		.loc 1 167 0
 141 008c 245084E5 		str	r5, [r4, #36]
 142              	.LBE27:
 143              		.loc 1 180 0
 144 0090 7040BDE8 		pop	{r4, r5, r6, lr}
 145              		.cfi_remember_state
 146              		.cfi_restore 14
 147              		.cfi_restore 6
 148              		.cfi_restore 5
 149              		.cfi_restore 4
 150              		.cfi_def_cfa_offset 0
 151              	.LVL12:
 152              	.LBB58:
 153              		.loc 1 168 0
 154 0094 FEFFFFEA 		b	chSchGoSleepS
 155              	.LVL13:
 156              	.L8:
 157              		.cfi_restore_state
 158              	.LBB33:
 159              	.LBB34:
 160              		.loc 2 68 0
 161 0098 00E093E5 		ldr	lr, [r3]
 162 009c 040093E5 		ldr	r0, [r3, #4]
 163              	.LBE34:
 164              	.LBE33:
 165              		.loc 1 151 0
 166 00a0 24C093E5 		ldr	ip, [r3, #36]
 167              	.LBB37:
 168              	.LBB35:
 169              		.loc 2 68 0
 170 00a4 00E080E5 		str	lr, [r0]
 171              		.loc 2 69 0
ARM GAS  /var/folders/3j/4xdnk5197cv_b7cw3n33qk7r0000gn/T//ccdeHuBY.s 			page 4


 172 00a8 00E093E5 		ldr	lr, [r3]
 173              	.LBE35:
 174              	.LBE37:
 175              		.loc 1 151 0
 176 00ac 0C20A0E1 		mov	r2, ip
 177              	.LBB38:
 178              	.LBB36:
 179              		.loc 2 69 0
 180 00b0 04008EE5 		str	r0, [lr, #4]
 181              	.LVL14:
 182 00b4 020000EA 		b	.L14
 183              	.LVL15:
 184              	.L31:
 185              	.LBE36:
 186              	.LBE38:
 187              	.LBB39:
 188              	.LBB40:
 189              		.loc 2 39 0
 190 00b8 080092E5 		ldr	r0, [r2, #8]
 191 00bc 010050E1 		cmp	r0, r1
 192 00c0 3200003A 		bcc	.L30
 193              	.LVL16:
 194              	.L14:
 195              		.loc 2 38 0
 196 00c4 002092E5 		ldr	r2, [r2]
 197              	.LVL17:
 198              		.loc 2 39 0
 199 00c8 02005CE1 		cmp	ip, r2
 200 00cc F9FFFF1A 		bne	.L31
 201              	.LVL18:
 202              	.L13:
 203              		.loc 2 41 0
 204 00d0 04209CE5 		ldr	r2, [ip, #4]
 205              	.LVL19:
 206              		.loc 2 40 0
 207 00d4 00C083E5 		str	ip, [r3]
 208              		.loc 2 41 0
 209 00d8 042083E5 		str	r2, [r3, #4]
 210              		.loc 2 42 0
 211 00dc 04308CE5 		str	r3, [ip, #4]
 212 00e0 042093E5 		ldr	r2, [r3, #4]
 213 00e4 003082E5 		str	r3, [r2]
 214 00e8 D7FFFFEA 		b	.L6
 215              	.LVL20:
 216              	.L27:
 217              	.LBE40:
 218              	.LBE39:
 219              	.LBB42:
 220              	.LBB43:
 221              		.loc 2 68 0
 222 00ec 060093E8 		ldm	r3, {r1, r2}
 223 00f0 001082E5 		str	r1, [r2]
 224              	.LBE43:
 225              	.LBE42:
 226              		.loc 1 160 0
 227 00f4 0300A0E1 		mov	r0, r3
 228              	.LBB45:
ARM GAS  /var/folders/3j/4xdnk5197cv_b7cw3n33qk7r0000gn/T//ccdeHuBY.s 			page 5


 229              	.LBB44:
 230              		.loc 2 69 0
 231 00f8 003093E5 		ldr	r3, [r3]
 232              	.LVL21:
 233 00fc 042083E5 		str	r2, [r3, #4]
 234              	.LVL22:
 235              	.LBE44:
 236              	.LBE45:
 237              		.loc 1 160 0
 238 0100 FEFFFFEB 		bl	chSchReadyI
 239              	.LVL23:
 240              		.loc 1 161 0
 241 0104 D0FFFFEA 		b	.L6
 242              	.LVL24:
 243              	.L28:
 244              	.LBB46:
 245              	.LBB31:
 246              		.loc 2 38 0
 247 0108 0300A0E1 		mov	r0, r3
 248              	.LVL25:
 249 010c D8FFFFEA 		b	.L16
 250              	.LVL26:
 251              	.L26:
 252              	.LBE31:
 253              	.LBE46:
 254              	.LBE58:
 255              		.loc 1 177 0
 256 0110 3C3094E5 		ldr	r3, [r4, #60]
 257              		.loc 1 176 0
 258 0114 084080E5 		str	r4, [r0, #8]
 259              		.loc 1 177 0
 260 0118 0C3080E5 		str	r3, [r0, #12]
 261              		.loc 1 178 0
 262 011c 3C0084E5 		str	r0, [r4, #60]
 263              		.loc 1 180 0
 264 0120 7080BDE8 		pop	{r4, r5, r6, pc}
 265              	.LVL27:
 266              	.L7:
 267              	.LBB59:
 268              	.LBB47:
 269              	.LBB48:
 270              		.loc 2 68 0
 271 0124 00E093E5 		ldr	lr, [r3]
 272 0128 040093E5 		ldr	r0, [r3, #4]
 273              	.LBE48:
 274              	.LBE47:
 275              		.loc 1 135 0
 276 012c 24C093E5 		ldr	ip, [r3, #36]
 277              	.LBB51:
 278              	.LBB49:
 279              		.loc 2 68 0
 280 0130 00E080E5 		str	lr, [r0]
 281              		.loc 2 69 0
 282 0134 00E093E5 		ldr	lr, [r3]
 283              	.LBE49:
 284              	.LBE51:
 285              		.loc 1 135 0
ARM GAS  /var/folders/3j/4xdnk5197cv_b7cw3n33qk7r0000gn/T//ccdeHuBY.s 			page 6


 286 0138 0C20A0E1 		mov	r2, ip
 287              	.LBB52:
 288              	.LBB50:
 289              		.loc 2 69 0
 290 013c 04008EE5 		str	r0, [lr, #4]
 291              	.LVL28:
 292 0140 020000EA 		b	.L11
 293              	.LVL29:
 294              	.L32:
 295              	.LBE50:
 296              	.LBE52:
 297              	.LBB53:
 298              	.LBB54:
 299              		.loc 2 39 0
 300 0144 080092E5 		ldr	r0, [r2, #8]
 301 0148 010050E1 		cmp	r0, r1
 302 014c 0300003A 		bcc	.L10
 303              	.LVL30:
 304              	.L11:
 305              		.loc 2 38 0
 306 0150 002092E5 		ldr	r2, [r2]
 307              	.LVL31:
 308              		.loc 2 39 0
 309 0154 02005CE1 		cmp	ip, r2
 310 0158 F9FFFF1A 		bne	.L32
 311 015c 0C20A0E1 		mov	r2, ip
 312              	.LVL32:
 313              	.L10:
 314              		.loc 2 41 0
 315 0160 041092E5 		ldr	r1, [r2, #4]
 316              		.loc 2 40 0
 317 0164 002083E5 		str	r2, [r3]
 318              		.loc 2 41 0
 319 0168 041083E5 		str	r1, [r3, #4]
 320              		.loc 2 42 0
 321 016c 043082E5 		str	r3, [r2, #4]
 322 0170 042093E5 		ldr	r2, [r3, #4]
 323              	.LBE54:
 324              	.LBE53:
 325              		.loc 1 128 0
 326 0174 081094E5 		ldr	r1, [r4, #8]
 327              	.LBB56:
 328              	.LBB55:
 329              		.loc 2 42 0
 330 0178 003082E5 		str	r3, [r2]
 331              	.LVL33:
 332              	.LBE55:
 333              	.LBE56:
 334              		.loc 1 136 0
 335 017c 08309CE5 		ldr	r3, [ip, #8]
 336              	.LVL34:
 337              		.loc 1 128 0
 338 0180 082093E5 		ldr	r2, [r3, #8]
 339 0184 010052E1 		cmp	r2, r1
 340 0188 A7FFFF3A 		bcc	.L12
 341 018c AEFFFFEA 		b	.L6
 342              	.LVL35:
ARM GAS  /var/folders/3j/4xdnk5197cv_b7cw3n33qk7r0000gn/T//ccdeHuBY.s 			page 7


 343              	.L30:
 344              	.LBB57:
 345              	.LBB41:
 346              		.loc 2 38 0
 347 0190 02C0A0E1 		mov	ip, r2
 348              	.LVL36:
 349 0194 CDFFFFEA 		b	.L13
 350              	.L34:
 351              		.align	2
 352              	.L33:
 353 0198 00000000 		.word	rlist
 354              	.LBE41:
 355              	.LBE57:
 356              	.LBE59:
 357              		.cfi_endproc
 358              	.LFE9:
 359              		.size	chMtxLockS, .-chMtxLockS
 360              		.section	.text.chMtxLock,"ax",%progbits
 361              		.align	2
 362              		.global	chMtxLock
 363              		.syntax unified
 364              		.arm
 365              		.fpu softvfp
 366              		.type	chMtxLock, %function
 367              	chMtxLock:
 368              	.LFB8:
 369              		.loc 1 96 0
 370              		.cfi_startproc
 371              		@ args = 0, pretend = 0, frame = 0
 372              		@ frame_needed = 0, uses_anonymous_args = 0
 373              	.LVL37:
 374 0000 10402DE9 		push	{r4, lr}
 375              		.cfi_def_cfa_offset 8
 376              		.cfi_offset 4, -8
 377              		.cfi_offset 14, -4
 378              		.loc 1 98 0
 379              		.syntax divided
 380              	@ 98 "..//os/kernel/src/chmtx.c" 1
 381 0004 9FF021E3 		msr     CPSR_c, #0x9F
 382              	@ 0 "" 2
 383              		.loc 1 100 0
 384              		.arm
 385              		.syntax unified
 386 0008 FEFFFFEB 		bl	chMtxLockS
 387              	.LVL38:
 388              		.loc 1 102 0
 389              		.syntax divided
 390              	@ 102 "..//os/kernel/src/chmtx.c" 1
 391 000c 1FF021E3 		msr     CPSR_c, #0x1F
 392              	@ 0 "" 2
 393              		.loc 1 103 0
 394              		.arm
 395              		.syntax unified
 396 0010 1080BDE8 		pop	{r4, pc}
 397              		.cfi_endproc
 398              	.LFE8:
 399              		.size	chMtxLock, .-chMtxLock
ARM GAS  /var/folders/3j/4xdnk5197cv_b7cw3n33qk7r0000gn/T//ccdeHuBY.s 			page 8


 400              		.section	.text.chMtxTryLock,"ax",%progbits
 401              		.align	2
 402              		.global	chMtxTryLock
 403              		.syntax unified
 404              		.arm
 405              		.fpu softvfp
 406              		.type	chMtxTryLock, %function
 407              	chMtxTryLock:
 408              	.LFB10:
 409              		.loc 1 199 0
 410              		.cfi_startproc
 411              		@ args = 0, pretend = 0, frame = 0
 412              		@ frame_needed = 0, uses_anonymous_args = 0
 413              		@ link register save eliminated.
 414              	.LVL39:
 415              		.loc 1 199 0
 416 0000 0030A0E1 		mov	r3, r0
 417              		.loc 1 202 0
 418              		.syntax divided
 419              	@ 202 "..//os/kernel/src/chmtx.c" 1
 420 0004 9FF021E3 		msr     CPSR_c, #0x9F
 421              	@ 0 "" 2
 422              	.LVL40:
 423              		.arm
 424              		.syntax unified
 425              	.LBB64:
 426              	.LBB65:
 427              		.loc 1 232 0
 428 0008 082090E5 		ldr	r2, [r0, #8]
 429 000c 000052E3 		cmp	r2, #0
 430              	.LVL41:
 431              	.LBB66:
 432              	.LBB67:
 433              		.loc 1 234 0
 434 0010 20209F05 		ldreq	r2, .L40
 435              		.loc 1 236 0
 436 0014 0100A003 		moveq	r0, #1
 437              	.LVL42:
 438              		.loc 1 234 0
 439 0018 18209205 		ldreq	r2, [r2, #24]
 440              	.LBE67:
 441              	.LBE66:
 442              		.loc 1 233 0
 443 001c 0000A013 		movne	r0, #0
 444              	.LBB69:
 445              	.LBB68:
 446              		.loc 1 235 0
 447 0020 3C109205 		ldreq	r1, [r2, #60]
 448              		.loc 1 234 0
 449 0024 08208305 		streq	r2, [r3, #8]
 450              		.loc 1 235 0
 451 0028 0C108305 		streq	r1, [r3, #12]
 452              		.loc 1 236 0
 453 002c 3C308205 		streq	r3, [r2, #60]
 454              	.LVL43:
 455              	.LBE68:
 456              	.LBE69:
ARM GAS  /var/folders/3j/4xdnk5197cv_b7cw3n33qk7r0000gn/T//ccdeHuBY.s 			page 9


 457              	.LBE65:
 458              	.LBE64:
 459              		.loc 1 206 0
 460              		.syntax divided
 461              	@ 206 "..//os/kernel/src/chmtx.c" 1
 462 0030 1FF021E3 		msr     CPSR_c, #0x1F
 463              	@ 0 "" 2
 464              		.loc 1 208 0
 465              		.arm
 466              		.syntax unified
 467 0034 1EFF2FE1 		bx	lr
 468              	.L41:
 469              		.align	2
 470              	.L40:
 471 0038 00000000 		.word	rlist
 472              		.cfi_endproc
 473              	.LFE10:
 474              		.size	chMtxTryLock, .-chMtxTryLock
 475              		.section	.text.chMtxTryLockS,"ax",%progbits
 476              		.align	2
 477              		.global	chMtxTryLockS
 478              		.syntax unified
 479              		.arm
 480              		.fpu softvfp
 481              		.type	chMtxTryLockS, %function
 482              	chMtxTryLockS:
 483              	.LFB11:
 484              		.loc 1 227 0
 485              		.cfi_startproc
 486              		@ args = 0, pretend = 0, frame = 0
 487              		@ frame_needed = 0, uses_anonymous_args = 0
 488              		@ link register save eliminated.
 489              	.LVL44:
 490              		.loc 1 227 0
 491 0000 0030A0E1 		mov	r3, r0
 492              		.loc 1 232 0
 493 0004 082090E5 		ldr	r2, [r0, #8]
 494 0008 000052E3 		cmp	r2, #0
 495              	.LVL45:
 496              	.LBB72:
 497              	.LBB73:
 498              		.loc 1 234 0
 499 000c 1C209F05 		ldreq	r2, .L45
 500              		.loc 1 236 0
 501 0010 0100A003 		moveq	r0, #1
 502              	.LVL46:
 503              		.loc 1 234 0
 504 0014 18209205 		ldreq	r2, [r2, #24]
 505              	.LBE73:
 506              	.LBE72:
 507              		.loc 1 233 0
 508 0018 0000A013 		movne	r0, #0
 509              	.LBB75:
 510              	.LBB74:
 511              		.loc 1 235 0
 512 001c 3C109205 		ldreq	r1, [r2, #60]
 513              		.loc 1 234 0
ARM GAS  /var/folders/3j/4xdnk5197cv_b7cw3n33qk7r0000gn/T//ccdeHuBY.s 			page 10


 514 0020 08208305 		streq	r2, [r3, #8]
 515              		.loc 1 235 0
 516 0024 0C108305 		streq	r1, [r3, #12]
 517              		.loc 1 236 0
 518 0028 3C308205 		streq	r3, [r2, #60]
 519              	.LVL47:
 520              	.LBE74:
 521              	.LBE75:
 522              		.loc 1 238 0
 523 002c 1EFF2FE1 		bx	lr
 524              	.L46:
 525              		.align	2
 526              	.L45:
 527 0030 00000000 		.word	rlist
 528              		.cfi_endproc
 529              	.LFE11:
 530              		.size	chMtxTryLockS, .-chMtxTryLockS
 531              		.section	.text.chMtxUnlock,"ax",%progbits
 532              		.align	2
 533              		.global	chMtxUnlock
 534              		.syntax unified
 535              		.arm
 536              		.fpu softvfp
 537              		.type	chMtxUnlock, %function
 538              	chMtxUnlock:
 539              	.LFB12:
 540              		.loc 1 250 0
 541              		.cfi_startproc
 542              		@ args = 0, pretend = 0, frame = 0
 543              		@ frame_needed = 0, uses_anonymous_args = 0
 544              		.loc 1 251 0
 545 0000 94309FE5 		ldr	r3, .L58
 546              		.loc 1 250 0
 547 0004 10402DE9 		push	{r4, lr}
 548              		.cfi_def_cfa_offset 8
 549              		.cfi_offset 4, -8
 550              		.cfi_offset 14, -4
 551              		.loc 1 251 0
 552 0008 180093E5 		ldr	r0, [r3, #24]
 553              	.LVL48:
 554              		.loc 1 254 0
 555              		.syntax divided
 556              	@ 254 "..//os/kernel/src/chmtx.c" 1
 557 000c 9FF021E3 		msr     CPSR_c, #0x9F
 558              	@ 0 "" 2
 559              		.loc 1 255 0
 560              		.arm
 561              		.syntax unified
 562 0010 3C4090E5 		ldr	r4, [r0, #60]
 563              	.LVL49:
 564              		.loc 1 266 0
 565 0014 00C094E5 		ldr	ip, [r4]
 566              		.loc 1 264 0
 567 0018 0C3094E5 		ldr	r3, [r4, #12]
 568              		.loc 1 266 0
 569 001c 04005CE1 		cmp	ip, r4
 570              		.loc 1 264 0
ARM GAS  /var/folders/3j/4xdnk5197cv_b7cw3n33qk7r0000gn/T//ccdeHuBY.s 			page 11


 571 0020 3C3080E5 		str	r3, [r0, #60]
 572              		.loc 1 266 0
 573 0024 1900000A 		beq	.L48
 574              	.LBB76:
 575              		.loc 1 273 0
 576 0028 000053E3 		cmp	r3, #0
 577              		.loc 1 271 0
 578 002c 401090E5 		ldr	r1, [r0, #64]
 579              	.LVL50:
 580              		.loc 1 273 0
 581 0030 0800000A 		beq	.L49
 582              	.L51:
 583              		.loc 1 277 0
 584 0034 002093E5 		ldr	r2, [r3]
 585 0038 030052E1 		cmp	r2, r3
 586 003c 0200000A 		beq	.L50
 587 0040 082092E5 		ldr	r2, [r2, #8]
 588 0044 020051E1 		cmp	r1, r2
 589 0048 0210A031 		movcc	r1, r2
 590              	.LVL51:
 591              	.L50:
 592              		.loc 1 279 0
 593 004c 0C3093E5 		ldr	r3, [r3, #12]
 594              	.LVL52:
 595              		.loc 1 273 0
 596 0050 000053E3 		cmp	r3, #0
 597 0054 F6FFFF1A 		bne	.L51
 598              	.L49:
 599              		.loc 1 288 0
 600 0058 3C209CE5 		ldr	r2, [ip, #60]
 601              	.LBB77:
 602              	.LBB78:
 603              		.loc 2 55 0
 604 005c 00309CE5 		ldr	r3, [ip]
 605              	.LVL53:
 606              	.LBE78:
 607              	.LBE77:
 608              		.loc 1 283 0
 609 0060 081080E5 		str	r1, [r0, #8]
 610              	.LVL54:
 611              	.LBB81:
 612              	.LBB79:
 613              		.loc 2 55 0
 614 0064 003084E5 		str	r3, [r4]
 615              	.LBE79:
 616              	.LBE81:
 617              		.loc 1 290 0
 618 0068 0C00A0E1 		mov	r0, ip
 619              	.LVL55:
 620              	.LBB82:
 621              	.LBB80:
 622              		.loc 2 55 0
 623 006c 044083E5 		str	r4, [r3, #4]
 624              	.LVL56:
 625              	.LBE80:
 626              	.LBE82:
 627              		.loc 1 290 0
ARM GAS  /var/folders/3j/4xdnk5197cv_b7cw3n33qk7r0000gn/T//ccdeHuBY.s 			page 12


 628 0070 0010A0E3 		mov	r1, #0
 629              	.LVL57:
 630              		.loc 1 287 0
 631 0074 08C084E5 		str	ip, [r4, #8]
 632              		.loc 1 288 0
 633 0078 0C2084E5 		str	r2, [r4, #12]
 634              		.loc 1 289 0
 635 007c 3C408CE5 		str	r4, [ip, #60]
 636              		.loc 1 290 0
 637 0080 FEFFFFEB 		bl	chSchWakeupS
 638              	.LVL58:
 639              	.L52:
 640              	.LBE76:
 641              		.loc 1 294 0
 642              		.syntax divided
 643              	@ 294 "..//os/kernel/src/chmtx.c" 1
 644 0084 1FF021E3 		msr     CPSR_c, #0x1F
 645              	@ 0 "" 2
 646              		.loc 1 296 0
 647              		.arm
 648              		.syntax unified
 649 0088 0400A0E1 		mov	r0, r4
 650 008c 1080BDE8 		pop	{r4, pc}
 651              	.LVL59:
 652              	.L48:
 653              		.loc 1 293 0
 654 0090 0030A0E3 		mov	r3, #0
 655 0094 083084E5 		str	r3, [r4, #8]
 656 0098 F9FFFFEA 		b	.L52
 657              	.L59:
 658              		.align	2
 659              	.L58:
 660 009c 00000000 		.word	rlist
 661              		.cfi_endproc
 662              	.LFE12:
 663              		.size	chMtxUnlock, .-chMtxUnlock
 664              		.section	.text.chMtxUnlockS,"ax",%progbits
 665              		.align	2
 666              		.global	chMtxUnlockS
 667              		.syntax unified
 668              		.arm
 669              		.fpu softvfp
 670              		.type	chMtxUnlockS, %function
 671              	chMtxUnlockS:
 672              	.LFB13:
 673              		.loc 1 310 0
 674              		.cfi_startproc
 675              		@ args = 0, pretend = 0, frame = 0
 676              		@ frame_needed = 0, uses_anonymous_args = 0
 677              		.loc 1 311 0
 678 0000 8C309FE5 		ldr	r3, .L71
 679              		.loc 1 310 0
 680 0004 10402DE9 		push	{r4, lr}
 681              		.cfi_def_cfa_offset 8
 682              		.cfi_offset 4, -8
 683              		.cfi_offset 14, -4
 684              		.loc 1 311 0
ARM GAS  /var/folders/3j/4xdnk5197cv_b7cw3n33qk7r0000gn/T//ccdeHuBY.s 			page 13


 685 0008 180093E5 		ldr	r0, [r3, #24]
 686              	.LVL60:
 687              		.loc 1 315 0
 688 000c 3C4090E5 		ldr	r4, [r0, #60]
 689              	.LVL61:
 690              		.loc 1 327 0
 691 0010 00C094E5 		ldr	ip, [r4]
 692              		.loc 1 325 0
 693 0014 0C3094E5 		ldr	r3, [r4, #12]
 694              		.loc 1 327 0
 695 0018 04005CE1 		cmp	ip, r4
 696              		.loc 1 325 0
 697 001c 3C3080E5 		str	r3, [r0, #60]
 698              		.loc 1 327 0
 699 0020 1700000A 		beq	.L61
 700              	.LBB83:
 701              		.loc 1 334 0
 702 0024 000053E3 		cmp	r3, #0
 703              		.loc 1 332 0
 704 0028 401090E5 		ldr	r1, [r0, #64]
 705              	.LVL62:
 706              		.loc 1 334 0
 707 002c 0800000A 		beq	.L62
 708              	.L64:
 709              		.loc 1 338 0
 710 0030 002093E5 		ldr	r2, [r3]
 711 0034 030052E1 		cmp	r2, r3
 712 0038 0200000A 		beq	.L63
 713 003c 082092E5 		ldr	r2, [r2, #8]
 714 0040 020051E1 		cmp	r1, r2
 715 0044 0210A031 		movcc	r1, r2
 716              	.LVL63:
 717              	.L63:
 718              		.loc 1 340 0
 719 0048 0C3093E5 		ldr	r3, [r3, #12]
 720              	.LVL64:
 721              		.loc 1 334 0
 722 004c 000053E3 		cmp	r3, #0
 723 0050 F6FFFF1A 		bne	.L64
 724              	.L62:
 725              		.loc 1 347 0
 726 0054 3C209CE5 		ldr	r2, [ip, #60]
 727              	.LBB84:
 728              	.LBB85:
 729              		.loc 2 55 0
 730 0058 00309CE5 		ldr	r3, [ip]
 731              	.LVL65:
 732              	.LBE85:
 733              	.LBE84:
 734              		.loc 1 342 0
 735 005c 081080E5 		str	r1, [r0, #8]
 736              	.LVL66:
 737              	.LBB88:
 738              	.LBB86:
 739              		.loc 2 55 0
 740 0060 003084E5 		str	r3, [r4]
 741              	.LBE86:
ARM GAS  /var/folders/3j/4xdnk5197cv_b7cw3n33qk7r0000gn/T//ccdeHuBY.s 			page 14


 742              	.LBE88:
 743              		.loc 1 349 0
 744 0064 0C00A0E1 		mov	r0, ip
 745              	.LVL67:
 746              	.LBB89:
 747              	.LBB87:
 748              		.loc 2 55 0
 749 0068 044083E5 		str	r4, [r3, #4]
 750              	.LVL68:
 751              	.LBE87:
 752              	.LBE89:
 753              		.loc 1 346 0
 754 006c 08C084E5 		str	ip, [r4, #8]
 755              		.loc 1 347 0
 756 0070 0C2084E5 		str	r2, [r4, #12]
 757              		.loc 1 348 0
 758 0074 3C408CE5 		str	r4, [ip, #60]
 759              		.loc 1 349 0
 760 0078 FEFFFFEB 		bl	chSchReadyI
 761              	.LVL69:
 762              	.LBE83:
 763              		.loc 1 354 0
 764 007c 0400A0E1 		mov	r0, r4
 765 0080 1080BDE8 		pop	{r4, pc}
 766              	.LVL70:
 767              	.L61:
 768              		.loc 1 352 0
 769 0084 0030A0E3 		mov	r3, #0
 770              		.loc 1 354 0
 771 0088 0400A0E1 		mov	r0, r4
 772              	.LVL71:
 773              		.loc 1 352 0
 774 008c 083084E5 		str	r3, [r4, #8]
 775              		.loc 1 354 0
 776 0090 1080BDE8 		pop	{r4, pc}
 777              	.L72:
 778              		.align	2
 779              	.L71:
 780 0094 00000000 		.word	rlist
 781              		.cfi_endproc
 782              	.LFE13:
 783              		.size	chMtxUnlockS, .-chMtxUnlockS
 784              		.section	.text.chMtxUnlockAll,"ax",%progbits
 785              		.align	2
 786              		.global	chMtxUnlockAll
 787              		.syntax unified
 788              		.arm
 789              		.fpu softvfp
 790              		.type	chMtxUnlockAll, %function
 791              	chMtxUnlockAll:
 792              	.LFB14:
 793              		.loc 1 367 0
 794              		.cfi_startproc
 795              		@ args = 0, pretend = 0, frame = 0
 796              		@ frame_needed = 0, uses_anonymous_args = 0
 797              		.loc 1 368 0
 798 0000 78309FE5 		ldr	r3, .L83
ARM GAS  /var/folders/3j/4xdnk5197cv_b7cw3n33qk7r0000gn/T//ccdeHuBY.s 			page 15


 799              		.loc 1 367 0
 800 0004 70402DE9 		push	{r4, r5, r6, lr}
 801              		.cfi_def_cfa_offset 16
 802              		.cfi_offset 4, -16
 803              		.cfi_offset 5, -12
 804              		.cfi_offset 6, -8
 805              		.cfi_offset 14, -4
 806              		.loc 1 368 0
 807 0008 184093E5 		ldr	r4, [r3, #24]
 808              	.LVL72:
 809              		.loc 1 370 0
 810              		.syntax divided
 811              	@ 370 "..//os/kernel/src/chmtx.c" 1
 812 000c 9FF021E3 		msr     CPSR_c, #0x9F
 813              	@ 0 "" 2
 814              		.loc 1 371 0
 815              		.arm
 816              		.syntax unified
 817 0010 3C3094E5 		ldr	r3, [r4, #60]
 818 0014 000053E3 		cmp	r3, #0
 819 0018 1600000A 		beq	.L74
 820              	.LBB90:
 821              		.loc 1 383 0
 822 001c 0050A0E3 		mov	r5, #0
 823              	.L77:
 824              	.LVL73:
 825              		.loc 1 375 0
 826 0020 002093E5 		ldr	r2, [r3]
 827              	.LVL74:
 828              		.loc 1 374 0
 829 0024 0C1093E5 		ldr	r1, [r3, #12]
 830              		.loc 1 375 0
 831 0028 030052E1 		cmp	r2, r3
 832              		.loc 1 374 0
 833 002c 3C1084E5 		str	r1, [r4, #60]
 834              	.LVL75:
 835              		.loc 1 383 0
 836 0030 08508305 		streq	r5, [r3, #8]
 837 0034 0130A001 		moveq	r3, r1
 838              	.LVL76:
 839              		.loc 1 375 0
 840 0038 0900000A 		beq	.L76
 841              	.LBB91:
 842              		.loc 1 378 0
 843 003c 3CC092E5 		ldr	ip, [r2, #60]
 844              	.LBB92:
 845              	.LBB93:
 846              		.loc 2 55 0
 847 0040 001092E5 		ldr	r1, [r2]
 848              	.LBE93:
 849              	.LBE92:
 850              		.loc 1 380 0
 851 0044 0200A0E1 		mov	r0, r2
 852              	.LBB95:
 853              	.LBB94:
 854              		.loc 2 55 0
 855 0048 001083E5 		str	r1, [r3]
ARM GAS  /var/folders/3j/4xdnk5197cv_b7cw3n33qk7r0000gn/T//ccdeHuBY.s 			page 16


 856 004c 043081E5 		str	r3, [r1, #4]
 857              	.LVL77:
 858              	.LBE94:
 859              	.LBE95:
 860              		.loc 1 377 0
 861 0050 082083E5 		str	r2, [r3, #8]
 862              		.loc 1 378 0
 863 0054 0CC083E5 		str	ip, [r3, #12]
 864              		.loc 1 379 0
 865 0058 3C3082E5 		str	r3, [r2, #60]
 866              		.loc 1 380 0
 867 005c FEFFFFEB 		bl	chSchReadyI
 868              	.LVL78:
 869 0060 3C3094E5 		ldr	r3, [r4, #60]
 870              	.L76:
 871              	.LBE91:
 872              	.LBE90:
 873              		.loc 1 384 0
 874 0064 000053E3 		cmp	r3, #0
 875 0068 ECFFFF1A 		bne	.L77
 876              		.loc 1 385 0
 877 006c 403094E5 		ldr	r3, [r4, #64]
 878 0070 083084E5 		str	r3, [r4, #8]
 879              		.loc 1 386 0
 880 0074 FEFFFFEB 		bl	chSchRescheduleS
 881              	.LVL79:
 882              	.L74:
 883              		.loc 1 388 0
 884              		.syntax divided
 885              	@ 388 "..//os/kernel/src/chmtx.c" 1
 886 0078 1FF021E3 		msr     CPSR_c, #0x1F
 887              	@ 0 "" 2
 888              		.loc 1 389 0
 889              		.arm
 890              		.syntax unified
 891 007c 7080BDE8 		pop	{r4, r5, r6, pc}
 892              	.L84:
 893              		.align	2
 894              	.L83:
 895 0080 00000000 		.word	rlist
 896              		.cfi_endproc
 897              	.LFE14:
 898              		.size	chMtxUnlockAll, .-chMtxUnlockAll
 899              		.text
 900              	.Letext0:
 901              		.file 3 "/usr/local/Cellar/gcc-arm-none-eabi/20180627/arm-none-eabi/include/machine/_default_types
 902              		.file 4 "/usr/local/Cellar/gcc-arm-none-eabi/20180627/arm-none-eabi/include/sys/_stdint.h"
 903              		.file 5 "..//os/ports/GCC/ARM/chtypes.h"
 904              		.file 6 "..//os/kernel/include/chlists.h"
 905              		.file 7 "..//os/kernel/include/chthreads.h"
 906              		.file 8 "..//os/ports/GCC/ARM/chcore.h"
 907              		.file 9 "..//os/kernel/include/chvt.h"
 908              		.file 10 "..//os/kernel/include/chschd.h"
 909              		.file 11 "..//os/kernel/include/chmtx.h"
 910              		.file 12 "..//os/kernel/include/chregistry.h"
 911              		.file 13 "..//os/kernel/include/ch.h"
 912              		.section	.debug_info,"",%progbits
ARM GAS  /var/folders/3j/4xdnk5197cv_b7cw3n33qk7r0000gn/T//ccdeHuBY.s 			page 17


 913              	.Ldebug_info0:
 914 0000 CF0A0000 		.4byte	0xacf
 915 0004 0400     		.2byte	0x4
 916 0006 00000000 		.4byte	.Ldebug_abbrev0
 917 000a 04       		.byte	0x4
 918 000b 01       		.uleb128 0x1
 919 000c 19010000 		.4byte	.LASF113
 920 0010 0C       		.byte	0xc
 921 0011 02050000 		.4byte	.LASF114
 922 0015 00000000 		.4byte	.LASF115
 923 0019 50010000 		.4byte	.Ldebug_ranges0+0x150
 924 001d 00000000 		.4byte	0
 925 0021 00000000 		.4byte	.Ldebug_line0
 926 0025 02       		.uleb128 0x2
 927 0026 04       		.byte	0x4
 928 0027 05       		.byte	0x5
 929 0028 696E7400 		.ascii	"int\000"
 930 002c 03       		.uleb128 0x3
 931 002d 04       		.byte	0x4
 932 002e 07       		.byte	0x7
 933 002f 5C020000 		.4byte	.LASF0
 934 0033 03       		.uleb128 0x3
 935 0034 01       		.byte	0x1
 936 0035 06       		.byte	0x6
 937 0036 DA000000 		.4byte	.LASF1
 938 003a 04       		.uleb128 0x4
 939 003b 6D000000 		.4byte	.LASF4
 940 003f 03       		.byte	0x3
 941 0040 2B       		.byte	0x2b
 942 0041 45000000 		.4byte	0x45
 943 0045 03       		.uleb128 0x3
 944 0046 01       		.byte	0x1
 945 0047 08       		.byte	0x8
 946 0048 DB030000 		.4byte	.LASF2
 947 004c 03       		.uleb128 0x3
 948 004d 02       		.byte	0x2
 949 004e 05       		.byte	0x5
 950 004f F3030000 		.4byte	.LASF3
 951 0053 04       		.uleb128 0x4
 952 0054 B9040000 		.4byte	.LASF5
 953 0058 03       		.byte	0x3
 954 0059 39       		.byte	0x39
 955 005a 5E000000 		.4byte	0x5e
 956 005e 03       		.uleb128 0x3
 957 005f 02       		.byte	0x2
 958 0060 07       		.byte	0x7
 959 0061 AB020000 		.4byte	.LASF6
 960 0065 04       		.uleb128 0x4
 961 0066 EC040000 		.4byte	.LASF7
 962 006a 03       		.byte	0x3
 963 006b 4D       		.byte	0x4d
 964 006c 70000000 		.4byte	0x70
 965 0070 03       		.uleb128 0x3
 966 0071 04       		.byte	0x4
 967 0072 05       		.byte	0x5
 968 0073 CC010000 		.4byte	.LASF8
 969 0077 04       		.uleb128 0x4
ARM GAS  /var/folders/3j/4xdnk5197cv_b7cw3n33qk7r0000gn/T//ccdeHuBY.s 			page 18


 970 0078 33020000 		.4byte	.LASF9
 971 007c 03       		.byte	0x3
 972 007d 4F       		.byte	0x4f
 973 007e 82000000 		.4byte	0x82
 974 0082 03       		.uleb128 0x3
 975 0083 04       		.byte	0x4
 976 0084 07       		.byte	0x7
 977 0085 71020000 		.4byte	.LASF10
 978 0089 03       		.uleb128 0x3
 979 008a 08       		.byte	0x8
 980 008b 05       		.byte	0x5
 981 008c CC000000 		.4byte	.LASF11
 982 0090 03       		.uleb128 0x3
 983 0091 08       		.byte	0x8
 984 0092 07       		.byte	0x7
 985 0093 7E000000 		.4byte	.LASF12
 986 0097 04       		.uleb128 0x4
 987 0098 61050000 		.4byte	.LASF13
 988 009c 04       		.byte	0x4
 989 009d 18       		.byte	0x18
 990 009e 3A000000 		.4byte	0x3a
 991 00a2 04       		.uleb128 0x4
 992 00a3 E9010000 		.4byte	.LASF14
 993 00a7 04       		.byte	0x4
 994 00a8 24       		.byte	0x24
 995 00a9 53000000 		.4byte	0x53
 996 00ad 04       		.uleb128 0x4
 997 00ae D3030000 		.4byte	.LASF15
 998 00b2 04       		.byte	0x4
 999 00b3 2C       		.byte	0x2c
 1000 00b4 65000000 		.4byte	0x65
 1001 00b8 04       		.uleb128 0x4
 1002 00b9 74040000 		.4byte	.LASF16
 1003 00bd 04       		.byte	0x4
 1004 00be 30       		.byte	0x30
 1005 00bf 77000000 		.4byte	0x77
 1006 00c3 04       		.uleb128 0x4
 1007 00c4 03010000 		.4byte	.LASF17
 1008 00c8 05       		.byte	0x5
 1009 00c9 29       		.byte	0x29
 1010 00ca AD000000 		.4byte	0xad
 1011 00ce 04       		.uleb128 0x4
 1012 00cf F0020000 		.4byte	.LASF18
 1013 00d3 05       		.byte	0x5
 1014 00d4 2A       		.byte	0x2a
 1015 00d5 97000000 		.4byte	0x97
 1016 00d9 04       		.uleb128 0x4
 1017 00da D5010000 		.4byte	.LASF19
 1018 00de 05       		.byte	0x5
 1019 00df 2B       		.byte	0x2b
 1020 00e0 97000000 		.4byte	0x97
 1021 00e4 04       		.uleb128 0x4
 1022 00e5 B1030000 		.4byte	.LASF20
 1023 00e9 05       		.byte	0x5
 1024 00ea 2C       		.byte	0x2c
 1025 00eb 97000000 		.4byte	0x97
 1026 00ef 04       		.uleb128 0x4
ARM GAS  /var/folders/3j/4xdnk5197cv_b7cw3n33qk7r0000gn/T//ccdeHuBY.s 			page 19


 1027 00f0 9E040000 		.4byte	.LASF21
 1028 00f4 05       		.byte	0x5
 1029 00f5 2D       		.byte	0x2d
 1030 00f6 97000000 		.4byte	0x97
 1031 00fa 04       		.uleb128 0x4
 1032 00fb CB030000 		.4byte	.LASF22
 1033 00ff 05       		.byte	0x5
 1034 0100 2E       		.byte	0x2e
 1035 0101 B8000000 		.4byte	0xb8
 1036 0105 04       		.uleb128 0x4
 1037 0106 CB020000 		.4byte	.LASF23
 1038 010a 05       		.byte	0x5
 1039 010b 2F       		.byte	0x2f
 1040 010c AD000000 		.4byte	0xad
 1041 0110 04       		.uleb128 0x4
 1042 0111 04030000 		.4byte	.LASF24
 1043 0115 05       		.byte	0x5
 1044 0116 31       		.byte	0x31
 1045 0117 B8000000 		.4byte	0xb8
 1046 011b 04       		.uleb128 0x4
 1047 011c D7040000 		.4byte	.LASF25
 1048 0120 05       		.byte	0x5
 1049 0121 33       		.byte	0x33
 1050 0122 B8000000 		.4byte	0xb8
 1051 0126 05       		.uleb128 0x5
 1052 0127 1B010000 		.4byte	0x11b
 1053 012b 04       		.uleb128 0x4
 1054 012c 47040000 		.4byte	.LASF26
 1055 0130 06       		.byte	0x6
 1056 0131 23       		.byte	0x23
 1057 0132 36010000 		.4byte	0x136
 1058 0136 06       		.uleb128 0x6
 1059 0137 47040000 		.4byte	.LASF26
 1060 013b 44       		.byte	0x44
 1061 013c 07       		.byte	0x7
 1062 013d 57       		.byte	0x57
 1063 013e 27020000 		.4byte	0x227
 1064 0142 07       		.uleb128 0x7
 1065 0143 29040000 		.4byte	.LASF27
 1066 0147 07       		.byte	0x7
 1067 0148 58       		.byte	0x58
 1068 0149 48020000 		.4byte	0x248
 1069 014d 00       		.byte	0
 1070 014e 07       		.uleb128 0x7
 1071 014f C4030000 		.4byte	.LASF28
 1072 0153 07       		.byte	0x7
 1073 0154 5A       		.byte	0x5a
 1074 0155 48020000 		.4byte	0x248
 1075 0159 04       		.byte	0x4
 1076 015a 07       		.uleb128 0x7
 1077 015b B8000000 		.4byte	.LASF29
 1078 015f 07       		.byte	0x7
 1079 0160 5C       		.byte	0x5c
 1080 0161 FA000000 		.4byte	0xfa
 1081 0165 08       		.byte	0x8
 1082 0166 07       		.uleb128 0x7
 1083 0167 9C050000 		.4byte	.LASF30
ARM GAS  /var/folders/3j/4xdnk5197cv_b7cw3n33qk7r0000gn/T//ccdeHuBY.s 			page 20


 1084 016b 07       		.byte	0x7
 1085 016c 5D       		.byte	0x5d
 1086 016d 03030000 		.4byte	0x303
 1087 0171 0C       		.byte	0xc
 1088 0172 07       		.uleb128 0x7
 1089 0173 0A020000 		.4byte	.LASF31
 1090 0177 07       		.byte	0x7
 1091 0178 5F       		.byte	0x5f
 1092 0179 48020000 		.4byte	0x248
 1093 017d 10       		.byte	0x10
 1094 017e 07       		.uleb128 0x7
 1095 017f 74030000 		.4byte	.LASF32
 1096 0183 07       		.byte	0x7
 1097 0184 60       		.byte	0x60
 1098 0185 48020000 		.4byte	0x248
 1099 0189 14       		.byte	0x14
 1100 018a 07       		.uleb128 0x7
 1101 018b 70050000 		.4byte	.LASF33
 1102 018f 07       		.byte	0x7
 1103 0190 67       		.byte	0x67
 1104 0191 C5040000 		.4byte	0x4c5
 1105 0195 18       		.byte	0x18
 1106 0196 07       		.uleb128 0x7
 1107 0197 FD030000 		.4byte	.LASF34
 1108 019b 07       		.byte	0x7
 1109 019c 72       		.byte	0x72
 1110 019d D9000000 		.4byte	0xd9
 1111 01a1 1C       		.byte	0x1c
 1112 01a2 07       		.uleb128 0x7
 1113 01a3 3F040000 		.4byte	.LASF35
 1114 01a7 07       		.byte	0x7
 1115 01a8 76       		.byte	0x76
 1116 01a9 CE000000 		.4byte	0xce
 1117 01ad 1D       		.byte	0x1d
 1118 01ae 07       		.uleb128 0x7
 1119 01af 4A050000 		.4byte	.LASF36
 1120 01b3 07       		.byte	0x7
 1121 01b4 7B       		.byte	0x7b
 1122 01b5 E4000000 		.4byte	0xe4
 1123 01b9 1E       		.byte	0x1e
 1124 01ba 07       		.uleb128 0x7
 1125 01bb 05040000 		.4byte	.LASF37
 1126 01bf 07       		.byte	0x7
 1127 01c0 81       		.byte	0x81
 1128 01c1 EF000000 		.4byte	0xef
 1129 01c5 1F       		.byte	0x1f
 1130 01c6 07       		.uleb128 0x7
 1131 01c7 69050000 		.4byte	.LASF38
 1132 01cb 07       		.byte	0x7
 1133 01cc 88       		.byte	0x88
 1134 01cd 26010000 		.4byte	0x126
 1135 01d1 20       		.byte	0x20
 1136 01d2 08       		.uleb128 0x8
 1137 01d3 705F7500 		.ascii	"p_u\000"
 1138 01d7 07       		.byte	0x7
 1139 01d8 AD       		.byte	0xad
 1140 01d9 90040000 		.4byte	0x490
ARM GAS  /var/folders/3j/4xdnk5197cv_b7cw3n33qk7r0000gn/T//ccdeHuBY.s 			page 21


 1141 01dd 24       		.byte	0x24
 1142 01de 07       		.uleb128 0x7
 1143 01df A2050000 		.4byte	.LASF39
 1144 01e3 07       		.byte	0x7
 1145 01e4 B2       		.byte	0xb2
 1146 01e5 6E020000 		.4byte	0x26e
 1147 01e9 28       		.byte	0x28
 1148 01ea 07       		.uleb128 0x7
 1149 01eb 23050000 		.4byte	.LASF40
 1150 01ef 07       		.byte	0x7
 1151 01f0 B8       		.byte	0xb8
 1152 01f1 4E020000 		.4byte	0x24e
 1153 01f5 2C       		.byte	0x2c
 1154 01f6 07       		.uleb128 0x7
 1155 01f7 60000000 		.4byte	.LASF41
 1156 01fb 07       		.byte	0x7
 1157 01fc BC       		.byte	0xbc
 1158 01fd 05010000 		.4byte	0x105
 1159 0201 34       		.byte	0x34
 1160 0202 07       		.uleb128 0x7
 1161 0203 69040000 		.4byte	.LASF42
 1162 0207 07       		.byte	0x7
 1163 0208 C2       		.byte	0xc2
 1164 0209 10010000 		.4byte	0x110
 1165 020d 38       		.byte	0x38
 1166 020e 07       		.uleb128 0x7
 1167 020f E9030000 		.4byte	.LASF43
 1168 0213 07       		.byte	0x7
 1169 0214 C9       		.byte	0xc9
 1170 0215 D7040000 		.4byte	0x4d7
 1171 0219 3C       		.byte	0x3c
 1172 021a 07       		.uleb128 0x7
 1173 021b E1040000 		.4byte	.LASF44
 1174 021f 07       		.byte	0x7
 1175 0220 CD       		.byte	0xcd
 1176 0221 FA000000 		.4byte	0xfa
 1177 0225 40       		.byte	0x40
 1178 0226 00       		.byte	0
 1179 0227 09       		.uleb128 0x9
 1180 0228 08       		.byte	0x8
 1181 0229 06       		.byte	0x6
 1182 022a 5A       		.byte	0x5a
 1183 022b 48020000 		.4byte	0x248
 1184 022f 07       		.uleb128 0x7
 1185 0230 29040000 		.4byte	.LASF27
 1186 0234 06       		.byte	0x6
 1187 0235 5B       		.byte	0x5b
 1188 0236 48020000 		.4byte	0x248
 1189 023a 00       		.byte	0
 1190 023b 07       		.uleb128 0x7
 1191 023c C4030000 		.4byte	.LASF28
 1192 0240 06       		.byte	0x6
 1193 0241 5D       		.byte	0x5d
 1194 0242 48020000 		.4byte	0x248
 1195 0246 04       		.byte	0x4
 1196 0247 00       		.byte	0
 1197 0248 0A       		.uleb128 0xa
ARM GAS  /var/folders/3j/4xdnk5197cv_b7cw3n33qk7r0000gn/T//ccdeHuBY.s 			page 22


 1198 0249 04       		.byte	0x4
 1199 024a 2B010000 		.4byte	0x12b
 1200 024e 04       		.uleb128 0x4
 1201 024f 82030000 		.4byte	.LASF45
 1202 0253 06       		.byte	0x6
 1203 0254 5F       		.byte	0x5f
 1204 0255 27020000 		.4byte	0x227
 1205 0259 09       		.uleb128 0x9
 1206 025a 04       		.byte	0x4
 1207 025b 06       		.byte	0x6
 1208 025c 64       		.byte	0x64
 1209 025d 6E020000 		.4byte	0x26e
 1210 0261 07       		.uleb128 0x7
 1211 0262 29040000 		.4byte	.LASF27
 1212 0266 06       		.byte	0x6
 1213 0267 66       		.byte	0x66
 1214 0268 48020000 		.4byte	0x248
 1215 026c 00       		.byte	0
 1216 026d 00       		.byte	0
 1217 026e 04       		.uleb128 0x4
 1218 026f F8020000 		.4byte	.LASF46
 1219 0273 06       		.byte	0x6
 1220 0274 69       		.byte	0x69
 1221 0275 59020000 		.4byte	0x259
 1222 0279 04       		.uleb128 0x4
 1223 027a 23030000 		.4byte	.LASF47
 1224 027e 08       		.byte	0x8
 1225 027f 9D       		.byte	0x9d
 1226 0280 B8000000 		.4byte	0xb8
 1227 0284 04       		.uleb128 0x4
 1228 0285 3E020000 		.4byte	.LASF48
 1229 0289 08       		.byte	0x8
 1230 028a A2       		.byte	0xa2
 1231 028b 8F020000 		.4byte	0x28f
 1232 028f 0B       		.uleb128 0xb
 1233 0290 04       		.byte	0x4
 1234 0291 06       		.uleb128 0x6
 1235 0292 1C050000 		.4byte	.LASF49
 1236 0296 24       		.byte	0x24
 1237 0297 08       		.byte	0x8
 1238 0298 B9       		.byte	0xb9
 1239 0299 03030000 		.4byte	0x303
 1240 029d 08       		.uleb128 0x8
 1241 029e 723400   		.ascii	"r4\000"
 1242 02a1 08       		.byte	0x8
 1243 02a2 BA       		.byte	0xba
 1244 02a3 84020000 		.4byte	0x284
 1245 02a7 00       		.byte	0
 1246 02a8 08       		.uleb128 0x8
 1247 02a9 723500   		.ascii	"r5\000"
 1248 02ac 08       		.byte	0x8
 1249 02ad BB       		.byte	0xbb
 1250 02ae 84020000 		.4byte	0x284
 1251 02b2 04       		.byte	0x4
 1252 02b3 08       		.uleb128 0x8
 1253 02b4 723600   		.ascii	"r6\000"
 1254 02b7 08       		.byte	0x8
ARM GAS  /var/folders/3j/4xdnk5197cv_b7cw3n33qk7r0000gn/T//ccdeHuBY.s 			page 23


 1255 02b8 BC       		.byte	0xbc
 1256 02b9 84020000 		.4byte	0x284
 1257 02bd 08       		.byte	0x8
 1258 02be 08       		.uleb128 0x8
 1259 02bf 723700   		.ascii	"r7\000"
 1260 02c2 08       		.byte	0x8
 1261 02c3 BD       		.byte	0xbd
 1262 02c4 84020000 		.4byte	0x284
 1263 02c8 0C       		.byte	0xc
 1264 02c9 08       		.uleb128 0x8
 1265 02ca 723800   		.ascii	"r8\000"
 1266 02cd 08       		.byte	0x8
 1267 02ce BE       		.byte	0xbe
 1268 02cf 84020000 		.4byte	0x284
 1269 02d3 10       		.byte	0x10
 1270 02d4 08       		.uleb128 0x8
 1271 02d5 723900   		.ascii	"r9\000"
 1272 02d8 08       		.byte	0x8
 1273 02d9 BF       		.byte	0xbf
 1274 02da 84020000 		.4byte	0x284
 1275 02de 14       		.byte	0x14
 1276 02df 08       		.uleb128 0x8
 1277 02e0 72313000 		.ascii	"r10\000"
 1278 02e4 08       		.byte	0x8
 1279 02e5 C0       		.byte	0xc0
 1280 02e6 84020000 		.4byte	0x284
 1281 02ea 18       		.byte	0x18
 1282 02eb 08       		.uleb128 0x8
 1283 02ec 72313100 		.ascii	"r11\000"
 1284 02f0 08       		.byte	0x8
 1285 02f1 C1       		.byte	0xc1
 1286 02f2 84020000 		.4byte	0x284
 1287 02f6 1C       		.byte	0x1c
 1288 02f7 08       		.uleb128 0x8
 1289 02f8 6C7200   		.ascii	"lr\000"
 1290 02fb 08       		.byte	0x8
 1291 02fc C2       		.byte	0xc2
 1292 02fd 84020000 		.4byte	0x284
 1293 0301 20       		.byte	0x20
 1294 0302 00       		.byte	0
 1295 0303 06       		.uleb128 0x6
 1296 0304 A3020000 		.4byte	.LASF50
 1297 0308 04       		.byte	0x4
 1298 0309 08       		.byte	0x8
 1299 030a CA       		.byte	0xca
 1300 030b 1C030000 		.4byte	0x31c
 1301 030f 08       		.uleb128 0x8
 1302 0310 72313300 		.ascii	"r13\000"
 1303 0314 08       		.byte	0x8
 1304 0315 CB       		.byte	0xcb
 1305 0316 1C030000 		.4byte	0x31c
 1306 031a 00       		.byte	0
 1307 031b 00       		.byte	0
 1308 031c 0A       		.uleb128 0xa
 1309 031d 04       		.byte	0x4
 1310 031e 91020000 		.4byte	0x291
 1311 0322 04       		.uleb128 0x4
ARM GAS  /var/folders/3j/4xdnk5197cv_b7cw3n33qk7r0000gn/T//ccdeHuBY.s 			page 24


 1312 0323 8C020000 		.4byte	.LASF51
 1313 0327 09       		.byte	0x9
 1314 0328 4E       		.byte	0x4e
 1315 0329 2D030000 		.4byte	0x32d
 1316 032d 0A       		.uleb128 0xa
 1317 032e 04       		.byte	0x4
 1318 032f 33030000 		.4byte	0x333
 1319 0333 0C       		.uleb128 0xc
 1320 0334 3E030000 		.4byte	0x33e
 1321 0338 0D       		.uleb128 0xd
 1322 0339 8F020000 		.4byte	0x28f
 1323 033d 00       		.byte	0
 1324 033e 04       		.uleb128 0x4
 1325 033f 91040000 		.4byte	.LASF52
 1326 0343 09       		.byte	0x9
 1327 0344 53       		.byte	0x53
 1328 0345 49030000 		.4byte	0x349
 1329 0349 06       		.uleb128 0x6
 1330 034a 91040000 		.4byte	.LASF52
 1331 034e 14       		.byte	0x14
 1332 034f 09       		.byte	0x9
 1333 0350 5A       		.byte	0x5a
 1334 0351 92030000 		.4byte	0x392
 1335 0355 07       		.uleb128 0x7
 1336 0356 69020000 		.4byte	.LASF53
 1337 035a 09       		.byte	0x9
 1338 035b 5B       		.byte	0x5b
 1339 035c 92030000 		.4byte	0x392
 1340 0360 00       		.byte	0
 1341 0361 07       		.uleb128 0x7
 1342 0362 47020000 		.4byte	.LASF54
 1343 0366 09       		.byte	0x9
 1344 0367 5D       		.byte	0x5d
 1345 0368 92030000 		.4byte	0x392
 1346 036c 04       		.byte	0x4
 1347 036d 07       		.uleb128 0x7
 1348 036e 42030000 		.4byte	.LASF55
 1349 0372 09       		.byte	0x9
 1350 0373 5F       		.byte	0x5f
 1351 0374 1B010000 		.4byte	0x11b
 1352 0378 08       		.byte	0x8
 1353 0379 07       		.uleb128 0x7
 1354 037a 4A030000 		.4byte	.LASF56
 1355 037e 09       		.byte	0x9
 1356 037f 60       		.byte	0x60
 1357 0380 22030000 		.4byte	0x322
 1358 0384 0C       		.byte	0xc
 1359 0385 07       		.uleb128 0x7
 1360 0386 2E050000 		.4byte	.LASF57
 1361 038a 09       		.byte	0x9
 1362 038b 62       		.byte	0x62
 1363 038c 8F020000 		.4byte	0x28f
 1364 0390 10       		.byte	0x10
 1365 0391 00       		.byte	0
 1366 0392 0A       		.uleb128 0xa
 1367 0393 04       		.byte	0x4
 1368 0394 3E030000 		.4byte	0x33e
ARM GAS  /var/folders/3j/4xdnk5197cv_b7cw3n33qk7r0000gn/T//ccdeHuBY.s 			page 25


 1369 0398 09       		.uleb128 0x9
 1370 0399 10       		.byte	0x10
 1371 039a 09       		.byte	0x9
 1372 039b 6C       		.byte	0x6c
 1373 039c D1030000 		.4byte	0x3d1
 1374 03a0 07       		.uleb128 0x7
 1375 03a1 69020000 		.4byte	.LASF53
 1376 03a5 09       		.byte	0x9
 1377 03a6 6D       		.byte	0x6d
 1378 03a7 92030000 		.4byte	0x392
 1379 03ab 00       		.byte	0
 1380 03ac 07       		.uleb128 0x7
 1381 03ad 47020000 		.4byte	.LASF54
 1382 03b1 09       		.byte	0x9
 1383 03b2 6F       		.byte	0x6f
 1384 03b3 92030000 		.4byte	0x392
 1385 03b7 04       		.byte	0x4
 1386 03b8 07       		.uleb128 0x7
 1387 03b9 42030000 		.4byte	.LASF55
 1388 03bd 09       		.byte	0x9
 1389 03be 71       		.byte	0x71
 1390 03bf 1B010000 		.4byte	0x11b
 1391 03c3 08       		.byte	0x8
 1392 03c4 07       		.uleb128 0x7
 1393 03c5 77050000 		.4byte	.LASF58
 1394 03c9 09       		.byte	0x9
 1395 03ca 72       		.byte	0x72
 1396 03cb 26010000 		.4byte	0x126
 1397 03cf 0C       		.byte	0xc
 1398 03d0 00       		.byte	0
 1399 03d1 04       		.uleb128 0x4
 1400 03d2 8D050000 		.4byte	.LASF59
 1401 03d6 09       		.byte	0x9
 1402 03d7 73       		.byte	0x73
 1403 03d8 98030000 		.4byte	0x398
 1404 03dc 0E       		.uleb128 0xe
 1405 03dd 77000000 		.4byte	.LASF67
 1406 03e1 09       		.byte	0x9
 1407 03e2 D1       		.byte	0xd1
 1408 03e3 D1030000 		.4byte	0x3d1
 1409 03e7 09       		.uleb128 0x9
 1410 03e8 1C       		.byte	0x1c
 1411 03e9 0A       		.byte	0xa
 1412 03ea 57       		.byte	0x57
 1413 03eb 38040000 		.4byte	0x438
 1414 03ef 07       		.uleb128 0x7
 1415 03f0 89040000 		.4byte	.LASF60
 1416 03f4 0A       		.byte	0xa
 1417 03f5 58       		.byte	0x58
 1418 03f6 4E020000 		.4byte	0x24e
 1419 03fa 00       		.byte	0
 1420 03fb 07       		.uleb128 0x7
 1421 03fc 1B040000 		.4byte	.LASF61
 1422 0400 0A       		.byte	0xa
 1423 0401 59       		.byte	0x59
 1424 0402 FA000000 		.4byte	0xfa
 1425 0406 08       		.byte	0x8
ARM GAS  /var/folders/3j/4xdnk5197cv_b7cw3n33qk7r0000gn/T//ccdeHuBY.s 			page 26


 1426 0407 07       		.uleb128 0x7
 1427 0408 7C030000 		.4byte	.LASF62
 1428 040c 0A       		.byte	0xa
 1429 040d 5B       		.byte	0x5b
 1430 040e 03030000 		.4byte	0x303
 1431 0412 0C       		.byte	0xc
 1432 0413 07       		.uleb128 0x7
 1433 0414 D1020000 		.4byte	.LASF63
 1434 0418 0A       		.byte	0xa
 1435 0419 5E       		.byte	0x5e
 1436 041a 48020000 		.4byte	0x248
 1437 041e 10       		.byte	0x10
 1438 041f 07       		.uleb128 0x7
 1439 0420 A9030000 		.4byte	.LASF64
 1440 0424 0A       		.byte	0xa
 1441 0425 5F       		.byte	0x5f
 1442 0426 48020000 		.4byte	0x248
 1443 042a 14       		.byte	0x14
 1444 042b 07       		.uleb128 0x7
 1445 042c 9F030000 		.4byte	.LASF65
 1446 0430 0A       		.byte	0xa
 1447 0431 62       		.byte	0x62
 1448 0432 48020000 		.4byte	0x248
 1449 0436 18       		.byte	0x18
 1450 0437 00       		.byte	0
 1451 0438 04       		.uleb128 0x4
 1452 0439 51050000 		.4byte	.LASF66
 1453 043d 0A       		.byte	0xa
 1454 043e 64       		.byte	0x64
 1455 043f E7030000 		.4byte	0x3e7
 1456 0443 0E       		.uleb128 0xe
 1457 0444 5B050000 		.4byte	.LASF68
 1458 0448 0A       		.byte	0xa
 1459 0449 68       		.byte	0x68
 1460 044a 38040000 		.4byte	0x438
 1461 044e 06       		.uleb128 0x6
 1462 044f 1D030000 		.4byte	.LASF69
 1463 0453 10       		.byte	0x10
 1464 0454 0B       		.byte	0xb
 1465 0455 25       		.byte	0x25
 1466 0456 7F040000 		.4byte	0x47f
 1467 045a 07       		.uleb128 0x7
 1468 045b 0A010000 		.4byte	.LASF70
 1469 045f 0B       		.byte	0xb
 1470 0460 26       		.byte	0x26
 1471 0461 4E020000 		.4byte	0x24e
 1472 0465 00       		.byte	0
 1473 0466 07       		.uleb128 0x7
 1474 0467 94050000 		.4byte	.LASF71
 1475 046b 0B       		.byte	0xb
 1476 046c 28       		.byte	0x28
 1477 046d 48020000 		.4byte	0x248
 1478 0471 08       		.byte	0x8
 1479 0472 07       		.uleb128 0x7
 1480 0473 D0040000 		.4byte	.LASF72
 1481 0477 0B       		.byte	0xb
 1482 0478 2A       		.byte	0x2a
ARM GAS  /var/folders/3j/4xdnk5197cv_b7cw3n33qk7r0000gn/T//ccdeHuBY.s 			page 27


 1483 0479 7F040000 		.4byte	0x47f
 1484 047d 0C       		.byte	0xc
 1485 047e 00       		.byte	0
 1486 047f 0A       		.uleb128 0xa
 1487 0480 04       		.byte	0x4
 1488 0481 4E040000 		.4byte	0x44e
 1489 0485 04       		.uleb128 0x4
 1490 0486 1D030000 		.4byte	.LASF69
 1491 048a 0B       		.byte	0xb
 1492 048b 2C       		.byte	0x2c
 1493 048c 4E040000 		.4byte	0x44e
 1494 0490 0F       		.uleb128 0xf
 1495 0491 04       		.byte	0x4
 1496 0492 07       		.byte	0x7
 1497 0493 8F       		.byte	0x8f
 1498 0494 C5040000 		.4byte	0x4c5
 1499 0498 10       		.uleb128 0x10
 1500 0499 66000000 		.4byte	.LASF73
 1501 049d 07       		.byte	0x7
 1502 049e 96       		.byte	0x96
 1503 049f 05010000 		.4byte	0x105
 1504 04a3 10       		.uleb128 0x10
 1505 04a4 A3000000 		.4byte	.LASF74
 1506 04a8 07       		.byte	0x7
 1507 04a9 9D       		.byte	0x9d
 1508 04aa 05010000 		.4byte	0x105
 1509 04ae 10       		.uleb128 0x10
 1510 04af 12010000 		.4byte	.LASF75
 1511 04b3 07       		.byte	0x7
 1512 04b4 A4       		.byte	0xa4
 1513 04b5 8F020000 		.4byte	0x28f
 1514 04b9 10       		.uleb128 0x10
 1515 04ba 22040000 		.4byte	.LASF76
 1516 04be 07       		.byte	0x7
 1517 04bf AB       		.byte	0xab
 1518 04c0 10010000 		.4byte	0x110
 1519 04c4 00       		.byte	0
 1520 04c5 0A       		.uleb128 0xa
 1521 04c6 04       		.byte	0x4
 1522 04c7 D2040000 		.4byte	0x4d2
 1523 04cb 03       		.uleb128 0x3
 1524 04cc 01       		.byte	0x1
 1525 04cd 08       		.byte	0x8
 1526 04ce A8040000 		.4byte	.LASF77
 1527 04d2 11       		.uleb128 0x11
 1528 04d3 CB040000 		.4byte	0x4cb
 1529 04d7 0A       		.uleb128 0xa
 1530 04d8 04       		.byte	0x4
 1531 04d9 85040000 		.4byte	0x485
 1532 04dd 09       		.uleb128 0x9
 1533 04de 16       		.byte	0x16
 1534 04df 0C       		.byte	0xc
 1535 04e0 25       		.byte	0x25
 1536 04e1 BE050000 		.4byte	0x5be
 1537 04e5 07       		.uleb128 0x7
 1538 04e6 95020000 		.4byte	.LASF78
 1539 04ea 0C       		.byte	0xc
ARM GAS  /var/folders/3j/4xdnk5197cv_b7cw3n33qk7r0000gn/T//ccdeHuBY.s 			page 28


 1540 04eb 26       		.byte	0x26
 1541 04ec BE050000 		.4byte	0x5be
 1542 04f0 00       		.byte	0
 1543 04f1 07       		.uleb128 0x7
 1544 04f2 2E030000 		.4byte	.LASF79
 1545 04f6 0C       		.byte	0xc
 1546 04f7 27       		.byte	0x27
 1547 04f8 97000000 		.4byte	0x97
 1548 04fc 04       		.byte	0x4
 1549 04fd 07       		.uleb128 0x7
 1550 04fe 8F030000 		.4byte	.LASF80
 1551 0502 0C       		.byte	0xc
 1552 0503 28       		.byte	0x28
 1553 0504 97000000 		.4byte	0x97
 1554 0508 05       		.byte	0x5
 1555 0509 07       		.uleb128 0x7
 1556 050a 82050000 		.4byte	.LASF81
 1557 050e 0C       		.byte	0xc
 1558 050f 29       		.byte	0x29
 1559 0510 A2000000 		.4byte	0xa2
 1560 0514 06       		.byte	0x6
 1561 0515 07       		.uleb128 0x7
 1562 0516 B9030000 		.4byte	.LASF82
 1563 051a 0C       		.byte	0xc
 1564 051b 2A       		.byte	0x2a
 1565 051c 97000000 		.4byte	0x97
 1566 0520 08       		.byte	0x8
 1567 0521 07       		.uleb128 0x7
 1568 0522 52030000 		.4byte	.LASF83
 1569 0526 0C       		.byte	0xc
 1570 0527 2B       		.byte	0x2b
 1571 0528 97000000 		.4byte	0x97
 1572 052c 09       		.byte	0x9
 1573 052d 07       		.uleb128 0x7
 1574 052e 95000000 		.4byte	.LASF84
 1575 0532 0C       		.byte	0xc
 1576 0533 2C       		.byte	0x2c
 1577 0534 97000000 		.4byte	0x97
 1578 0538 0A       		.byte	0xa
 1579 0539 07       		.uleb128 0x7
 1580 053a 7D040000 		.4byte	.LASF85
 1581 053e 0C       		.byte	0xc
 1582 053f 2D       		.byte	0x2d
 1583 0540 97000000 		.4byte	0x97
 1584 0544 0B       		.byte	0xb
 1585 0545 07       		.uleb128 0x7
 1586 0546 3F050000 		.4byte	.LASF86
 1587 054a 0C       		.byte	0xc
 1588 054b 2E       		.byte	0x2e
 1589 054c 97000000 		.4byte	0x97
 1590 0550 0C       		.byte	0xc
 1591 0551 07       		.uleb128 0x7
 1592 0552 4E040000 		.4byte	.LASF87
 1593 0556 0C       		.byte	0xc
 1594 0557 2F       		.byte	0x2f
 1595 0558 97000000 		.4byte	0x97
 1596 055c 0D       		.byte	0xd
ARM GAS  /var/folders/3j/4xdnk5197cv_b7cw3n33qk7r0000gn/T//ccdeHuBY.s 			page 29


 1597 055d 07       		.uleb128 0x7
 1598 055e 53000000 		.4byte	.LASF88
 1599 0562 0C       		.byte	0xc
 1600 0563 30       		.byte	0x30
 1601 0564 97000000 		.4byte	0x97
 1602 0568 0E       		.byte	0xe
 1603 0569 07       		.uleb128 0x7
 1604 056a 5E030000 		.4byte	.LASF89
 1605 056e 0C       		.byte	0xc
 1606 056f 31       		.byte	0x31
 1607 0570 97000000 		.4byte	0x97
 1608 0574 0F       		.byte	0xf
 1609 0575 07       		.uleb128 0x7
 1610 0576 E6000000 		.4byte	.LASF90
 1611 057a 0C       		.byte	0xc
 1612 057b 32       		.byte	0x32
 1613 057c 97000000 		.4byte	0x97
 1614 0580 10       		.byte	0x10
 1615 0581 07       		.uleb128 0x7
 1616 0582 BF000000 		.4byte	.LASF91
 1617 0586 0C       		.byte	0xc
 1618 0587 34       		.byte	0x34
 1619 0588 97000000 		.4byte	0x97
 1620 058c 11       		.byte	0x11
 1621 058d 07       		.uleb128 0x7
 1622 058e F6000000 		.4byte	.LASF92
 1623 0592 0C       		.byte	0xc
 1624 0593 35       		.byte	0x35
 1625 0594 97000000 		.4byte	0x97
 1626 0598 12       		.byte	0x12
 1627 0599 07       		.uleb128 0x7
 1628 059a 36030000 		.4byte	.LASF93
 1629 059e 0C       		.byte	0xc
 1630 059f 36       		.byte	0x36
 1631 05a0 97000000 		.4byte	0x97
 1632 05a4 13       		.byte	0x13
 1633 05a5 07       		.uleb128 0x7
 1634 05a6 30040000 		.4byte	.LASF94
 1635 05aa 0C       		.byte	0xc
 1636 05ab 37       		.byte	0x37
 1637 05ac 97000000 		.4byte	0x97
 1638 05b0 14       		.byte	0x14
 1639 05b1 07       		.uleb128 0x7
 1640 05b2 0F040000 		.4byte	.LASF95
 1641 05b6 0C       		.byte	0xc
 1642 05b7 39       		.byte	0x39
 1643 05b8 97000000 		.4byte	0x97
 1644 05bc 15       		.byte	0x15
 1645 05bd 00       		.byte	0
 1646 05be 12       		.uleb128 0x12
 1647 05bf CB040000 		.4byte	0x4cb
 1648 05c3 CE050000 		.4byte	0x5ce
 1649 05c7 13       		.uleb128 0x13
 1650 05c8 2C000000 		.4byte	0x2c
 1651 05cc 03       		.byte	0x3
 1652 05cd 00       		.byte	0
 1653 05ce 04       		.uleb128 0x4
ARM GAS  /var/folders/3j/4xdnk5197cv_b7cw3n33qk7r0000gn/T//ccdeHuBY.s 			page 30


 1654 05cf F2010000 		.4byte	.LASF96
 1655 05d3 0C       		.byte	0xc
 1656 05d4 3A       		.byte	0x3a
 1657 05d5 DD040000 		.4byte	0x4dd
 1658 05d9 11       		.uleb128 0x11
 1659 05da CE050000 		.4byte	0x5ce
 1660 05de 0E       		.uleb128 0xe
 1661 05df 83020000 		.4byte	.LASF97
 1662 05e3 0C       		.byte	0xc
 1663 05e4 77       		.byte	0x77
 1664 05e5 D9050000 		.4byte	0x5d9
 1665 05e9 12       		.uleb128 0x12
 1666 05ea 79020000 		.4byte	0x279
 1667 05ee F9050000 		.4byte	0x5f9
 1668 05f2 13       		.uleb128 0x13
 1669 05f3 2C000000 		.4byte	0x2c
 1670 05f7 26       		.byte	0x26
 1671 05f8 00       		.byte	0
 1672 05f9 0E       		.uleb128 0xe
 1673 05fa 12020000 		.4byte	.LASF98
 1674 05fe 0D       		.byte	0xd
 1675 05ff 82       		.byte	0x82
 1676 0600 E9050000 		.4byte	0x5e9
 1677 0604 14       		.uleb128 0x14
 1678 0605 D9020000 		.4byte	.LASF103
 1679 0609 01       		.byte	0x1
 1680 060a 6F01     		.2byte	0x16f
 1681 060c 00000000 		.4byte	.LFB14
 1682 0610 84000000 		.4byte	.LFE14-.LFB14
 1683 0614 01       		.uleb128 0x1
 1684 0615 9C       		.byte	0x9c
 1685 0616 9B060000 		.4byte	0x69b
 1686 061a 15       		.uleb128 0x15
 1687 061b 63747000 		.ascii	"ctp\000"
 1688 061f 01       		.byte	0x1
 1689 0620 7001     		.2byte	0x170
 1690 0622 48020000 		.4byte	0x248
 1691 0626 01       		.uleb128 0x1
 1692 0627 54       		.byte	0x54
 1693 0628 16       		.uleb128 0x16
 1694 0629 1C000000 		.4byte	.LBB90
 1695 062d 48000000 		.4byte	.LBE90-.LBB90
 1696 0631 91060000 		.4byte	0x691
 1697 0635 17       		.uleb128 0x17
 1698 0636 756D7000 		.ascii	"ump\000"
 1699 063a 01       		.byte	0x1
 1700 063b 7501     		.2byte	0x175
 1701 063d D7040000 		.4byte	0x4d7
 1702 0641 00000000 		.4byte	.LLST29
 1703 0645 18       		.uleb128 0x18
 1704 0646 3C000000 		.4byte	.LBB91
 1705 064a 28000000 		.4byte	.LBE91-.LBB91
 1706 064e 19       		.uleb128 0x19
 1707 064f 747000   		.ascii	"tp\000"
 1708 0652 01       		.byte	0x1
 1709 0653 7801     		.2byte	0x178
 1710 0655 48020000 		.4byte	0x248
ARM GAS  /var/folders/3j/4xdnk5197cv_b7cw3n33qk7r0000gn/T//ccdeHuBY.s 			page 31


 1711 0659 1A       		.uleb128 0x1a
 1712 065a 1E0A0000 		.4byte	0xa1e
 1713 065e 40000000 		.4byte	.LBB92
 1714 0662 38010000 		.4byte	.Ldebug_ranges0+0x138
 1715 0666 01       		.byte	0x1
 1716 0667 7801     		.2byte	0x178
 1717 0669 86060000 		.4byte	0x686
 1718 066d 1B       		.uleb128 0x1b
 1719 066e 2E0A0000 		.4byte	0xa2e
 1720 0672 14000000 		.4byte	.LLST30
 1721 0676 1C       		.uleb128 0x1c
 1722 0677 38010000 		.4byte	.Ldebug_ranges0+0x138
 1723 067b 1D       		.uleb128 0x1d
 1724 067c 390A0000 		.4byte	0xa39
 1725 0680 27000000 		.4byte	.LLST31
 1726 0684 00       		.byte	0
 1727 0685 00       		.byte	0
 1728 0686 1E       		.uleb128 0x1e
 1729 0687 60000000 		.4byte	.LVL78
 1730 068b A60A0000 		.4byte	0xaa6
 1731 068f 00       		.byte	0
 1732 0690 00       		.byte	0
 1733 0691 1E       		.uleb128 0x1e
 1734 0692 78000000 		.4byte	.LVL79
 1735 0696 B10A0000 		.4byte	0xab1
 1736 069a 00       		.byte	0
 1737 069b 1F       		.uleb128 0x1f
 1738 069c 4F020000 		.4byte	.LASF100
 1739 06a0 01       		.byte	0x1
 1740 06a1 3601     		.2byte	0x136
 1741 06a3 D7040000 		.4byte	0x4d7
 1742 06a7 00000000 		.4byte	.LFB13
 1743 06ab 98000000 		.4byte	.LFE13-.LFB13
 1744 06af 01       		.uleb128 0x1
 1745 06b0 9C       		.byte	0x9c
 1746 06b1 3E070000 		.4byte	0x73e
 1747 06b5 17       		.uleb128 0x17
 1748 06b6 63747000 		.ascii	"ctp\000"
 1749 06ba 01       		.byte	0x1
 1750 06bb 3701     		.2byte	0x137
 1751 06bd 48020000 		.4byte	0x248
 1752 06c1 3A000000 		.4byte	.LLST24
 1753 06c5 15       		.uleb128 0x15
 1754 06c6 756D7000 		.ascii	"ump\000"
 1755 06ca 01       		.byte	0x1
 1756 06cb 3801     		.2byte	0x138
 1757 06cd D7040000 		.4byte	0x4d7
 1758 06d1 01       		.uleb128 0x1
 1759 06d2 54       		.byte	0x54
 1760 06d3 17       		.uleb128 0x17
 1761 06d4 6D7000   		.ascii	"mp\000"
 1762 06d7 01       		.byte	0x1
 1763 06d8 3801     		.2byte	0x138
 1764 06da D7040000 		.4byte	0x4d7
 1765 06de 58000000 		.4byte	.LLST25
 1766 06e2 18       		.uleb128 0x18
 1767 06e3 24000000 		.4byte	.LBB83
ARM GAS  /var/folders/3j/4xdnk5197cv_b7cw3n33qk7r0000gn/T//ccdeHuBY.s 			page 32


 1768 06e7 58000000 		.4byte	.LBE83-.LBB83
 1769 06eb 19       		.uleb128 0x19
 1770 06ec 747000   		.ascii	"tp\000"
 1771 06ef 01       		.byte	0x1
 1772 06f0 4801     		.2byte	0x148
 1773 06f2 48020000 		.4byte	0x248
 1774 06f6 20       		.uleb128 0x20
 1775 06f7 E8020000 		.4byte	.LASF99
 1776 06fb 01       		.byte	0x1
 1777 06fc 4C01     		.2byte	0x14c
 1778 06fe FA000000 		.4byte	0xfa
 1779 0702 6B000000 		.4byte	.LLST26
 1780 0706 1A       		.uleb128 0x1a
 1781 0707 1E0A0000 		.4byte	0xa1e
 1782 070b 58000000 		.4byte	.LBB84
 1783 070f 18010000 		.4byte	.Ldebug_ranges0+0x118
 1784 0713 01       		.byte	0x1
 1785 0714 5901     		.2byte	0x159
 1786 0716 33070000 		.4byte	0x733
 1787 071a 1B       		.uleb128 0x1b
 1788 071b 2E0A0000 		.4byte	0xa2e
 1789 071f 7E000000 		.4byte	.LLST27
 1790 0723 1C       		.uleb128 0x1c
 1791 0724 18010000 		.4byte	.Ldebug_ranges0+0x118
 1792 0728 1D       		.uleb128 0x1d
 1793 0729 390A0000 		.4byte	0xa39
 1794 072d 91000000 		.4byte	.LLST28
 1795 0731 00       		.byte	0
 1796 0732 00       		.byte	0
 1797 0733 1E       		.uleb128 0x1e
 1798 0734 7C000000 		.4byte	.LVL69
 1799 0738 A60A0000 		.4byte	0xaa6
 1800 073c 00       		.byte	0
 1801 073d 00       		.byte	0
 1802 073e 21       		.uleb128 0x21
 1803 073f AC000000 		.4byte	.LASF101
 1804 0743 01       		.byte	0x1
 1805 0744 FA       		.byte	0xfa
 1806 0745 D7040000 		.4byte	0x4d7
 1807 0749 00000000 		.4byte	.LFB12
 1808 074d A0000000 		.4byte	.LFE12-.LFB12
 1809 0751 01       		.uleb128 0x1
 1810 0752 9C       		.byte	0x9c
 1811 0753 E3070000 		.4byte	0x7e3
 1812 0757 22       		.uleb128 0x22
 1813 0758 63747000 		.ascii	"ctp\000"
 1814 075c 01       		.byte	0x1
 1815 075d FB       		.byte	0xfb
 1816 075e 48020000 		.4byte	0x248
 1817 0762 A4000000 		.4byte	.LLST19
 1818 0766 23       		.uleb128 0x23
 1819 0767 756D7000 		.ascii	"ump\000"
 1820 076b 01       		.byte	0x1
 1821 076c FC       		.byte	0xfc
 1822 076d D7040000 		.4byte	0x4d7
 1823 0771 01       		.uleb128 0x1
 1824 0772 54       		.byte	0x54
ARM GAS  /var/folders/3j/4xdnk5197cv_b7cw3n33qk7r0000gn/T//ccdeHuBY.s 			page 33


 1825 0773 22       		.uleb128 0x22
 1826 0774 6D7000   		.ascii	"mp\000"
 1827 0777 01       		.byte	0x1
 1828 0778 FC       		.byte	0xfc
 1829 0779 D7040000 		.4byte	0x4d7
 1830 077d C2000000 		.4byte	.LLST20
 1831 0781 18       		.uleb128 0x18
 1832 0782 28000000 		.4byte	.LBB76
 1833 0786 5C000000 		.4byte	.LBE76-.LBB76
 1834 078a 19       		.uleb128 0x19
 1835 078b 747000   		.ascii	"tp\000"
 1836 078e 01       		.byte	0x1
 1837 078f 0B01     		.2byte	0x10b
 1838 0791 48020000 		.4byte	0x248
 1839 0795 20       		.uleb128 0x20
 1840 0796 E8020000 		.4byte	.LASF99
 1841 079a 01       		.byte	0x1
 1842 079b 0F01     		.2byte	0x10f
 1843 079d FA000000 		.4byte	0xfa
 1844 07a1 D5000000 		.4byte	.LLST21
 1845 07a5 1A       		.uleb128 0x1a
 1846 07a6 1E0A0000 		.4byte	0xa1e
 1847 07aa 5C000000 		.4byte	.LBB77
 1848 07ae F8000000 		.4byte	.Ldebug_ranges0+0xf8
 1849 07b2 01       		.byte	0x1
 1850 07b3 1E01     		.2byte	0x11e
 1851 07b5 D2070000 		.4byte	0x7d2
 1852 07b9 1B       		.uleb128 0x1b
 1853 07ba 2E0A0000 		.4byte	0xa2e
 1854 07be E8000000 		.4byte	.LLST22
 1855 07c2 1C       		.uleb128 0x1c
 1856 07c3 F8000000 		.4byte	.Ldebug_ranges0+0xf8
 1857 07c7 1D       		.uleb128 0x1d
 1858 07c8 390A0000 		.4byte	0xa39
 1859 07cc FB000000 		.4byte	.LLST23
 1860 07d0 00       		.byte	0
 1861 07d1 00       		.byte	0
 1862 07d2 24       		.uleb128 0x24
 1863 07d3 84000000 		.4byte	.LVL58
 1864 07d7 BC0A0000 		.4byte	0xabc
 1865 07db 25       		.uleb128 0x25
 1866 07dc 01       		.uleb128 0x1
 1867 07dd 51       		.byte	0x51
 1868 07de 01       		.uleb128 0x1
 1869 07df 30       		.byte	0x30
 1870 07e0 00       		.byte	0
 1871 07e1 00       		.byte	0
 1872 07e2 00       		.byte	0
 1873 07e3 26       		.uleb128 0x26
 1874 07e4 FC010000 		.4byte	.LASF116
 1875 07e8 01       		.byte	0x1
 1876 07e9 E3       		.byte	0xe3
 1877 07ea C3000000 		.4byte	0xc3
 1878 07ee 01       		.byte	0x1
 1879 07ef FE070000 		.4byte	0x7fe
 1880 07f3 27       		.uleb128 0x27
 1881 07f4 6D7000   		.ascii	"mp\000"
ARM GAS  /var/folders/3j/4xdnk5197cv_b7cw3n33qk7r0000gn/T//ccdeHuBY.s 			page 34


 1882 07f7 01       		.byte	0x1
 1883 07f8 E3       		.byte	0xe3
 1884 07f9 D7040000 		.4byte	0x4d7
 1885 07fd 00       		.byte	0
 1886 07fe 21       		.uleb128 0x21
 1887 07ff 10030000 		.4byte	.LASF102
 1888 0803 01       		.byte	0x1
 1889 0804 C7       		.byte	0xc7
 1890 0805 C3000000 		.4byte	0xc3
 1891 0809 00000000 		.4byte	.LFB10
 1892 080d 3C000000 		.4byte	.LFE10-.LFB10
 1893 0811 01       		.uleb128 0x1
 1894 0812 9C       		.byte	0x9c
 1895 0813 5B080000 		.4byte	0x85b
 1896 0817 28       		.uleb128 0x28
 1897 0818 6D7000   		.ascii	"mp\000"
 1898 081b 01       		.byte	0x1
 1899 081c C7       		.byte	0xc7
 1900 081d D7040000 		.4byte	0x4d7
 1901 0821 0E010000 		.4byte	.LLST14
 1902 0825 29       		.uleb128 0x29
 1903 0826 6200     		.ascii	"b\000"
 1904 0828 01       		.byte	0x1
 1905 0829 C8       		.byte	0xc8
 1906 082a C3000000 		.4byte	0xc3
 1907 082e 2A       		.uleb128 0x2a
 1908 082f E3070000 		.4byte	0x7e3
 1909 0833 08000000 		.4byte	.LBB64
 1910 0837 28000000 		.4byte	.LBE64-.LBB64
 1911 083b 01       		.byte	0x1
 1912 083c CC       		.byte	0xcc
 1913 083d 1B       		.uleb128 0x1b
 1914 083e F3070000 		.4byte	0x7f3
 1915 0842 2C010000 		.4byte	.LLST15
 1916 0846 2B       		.uleb128 0x2b
 1917 0847 E3070000 		.4byte	0x7e3
 1918 084b C8000000 		.4byte	.Ldebug_ranges0+0xc8
 1919 084f 1B       		.uleb128 0x1b
 1920 0850 F3070000 		.4byte	0x7f3
 1921 0854 4A010000 		.4byte	.LLST16
 1922 0858 00       		.byte	0
 1923 0859 00       		.byte	0
 1924 085a 00       		.byte	0
 1925 085b 2C       		.uleb128 0x2c
 1926 085c DE010000 		.4byte	.LASF104
 1927 0860 01       		.byte	0x1
 1928 0861 72       		.byte	0x72
 1929 0862 00000000 		.4byte	.LFB9
 1930 0866 9C010000 		.4byte	.LFE9-.LFB9
 1931 086a 01       		.uleb128 0x1
 1932 086b 9C       		.byte	0x9c
 1933 086c AC090000 		.4byte	0x9ac
 1934 0870 28       		.uleb128 0x28
 1935 0871 6D7000   		.ascii	"mp\000"
 1936 0874 01       		.byte	0x1
 1937 0875 72       		.byte	0x72
 1938 0876 D7040000 		.4byte	0x4d7
ARM GAS  /var/folders/3j/4xdnk5197cv_b7cw3n33qk7r0000gn/T//ccdeHuBY.s 			page 35


 1939 087a 68010000 		.4byte	.LLST0
 1940 087e 22       		.uleb128 0x22
 1941 087f 63747000 		.ascii	"ctp\000"
 1942 0883 01       		.byte	0x1
 1943 0884 73       		.byte	0x73
 1944 0885 48020000 		.4byte	0x248
 1945 0889 F0010000 		.4byte	.LLST1
 1946 088d 1C       		.uleb128 0x1c
 1947 088e 00000000 		.4byte	.Ldebug_ranges0+0
 1948 0892 22       		.uleb128 0x22
 1949 0893 747000   		.ascii	"tp\000"
 1950 0896 01       		.byte	0x1
 1951 0897 7D       		.byte	0x7d
 1952 0898 48020000 		.4byte	0x248
 1953 089c 1A020000 		.4byte	.LLST2
 1954 08a0 2D       		.uleb128 0x2d
 1955 08a1 4A0A0000 		.4byte	0xa4a
 1956 08a5 58000000 		.4byte	.LBB28
 1957 08a9 20000000 		.4byte	.Ldebug_ranges0+0x20
 1958 08ad 01       		.byte	0x1
 1959 08ae A6       		.byte	0xa6
 1960 08af D5080000 		.4byte	0x8d5
 1961 08b3 1B       		.uleb128 0x1b
 1962 08b4 600A0000 		.4byte	0xa60
 1963 08b8 4E020000 		.4byte	.LLST3
 1964 08bc 1B       		.uleb128 0x1b
 1965 08bd 560A0000 		.4byte	0xa56
 1966 08c1 82020000 		.4byte	.LLST4
 1967 08c5 1C       		.uleb128 0x1c
 1968 08c6 20000000 		.4byte	.Ldebug_ranges0+0x20
 1969 08ca 1D       		.uleb128 0x1d
 1970 08cb 6B0A0000 		.4byte	0xa6b
 1971 08cf A0020000 		.4byte	.LLST5
 1972 08d3 00       		.byte	0
 1973 08d4 00       		.byte	0
 1974 08d5 2D       		.uleb128 0x2d
 1975 08d6 030A0000 		.4byte	0xa03
 1976 08da 98000000 		.4byte	.LBB33
 1977 08de 40000000 		.4byte	.Ldebug_ranges0+0x40
 1978 08e2 01       		.byte	0x1
 1979 08e3 97       		.byte	0x97
 1980 08e4 F2080000 		.4byte	0x8f2
 1981 08e8 1B       		.uleb128 0x1b
 1982 08e9 130A0000 		.4byte	0xa13
 1983 08ed C9020000 		.4byte	.LLST6
 1984 08f1 00       		.byte	0
 1985 08f2 2D       		.uleb128 0x2d
 1986 08f3 4A0A0000 		.4byte	0xa4a
 1987 08f7 B8000000 		.4byte	.LBB39
 1988 08fb 60000000 		.4byte	.Ldebug_ranges0+0x60
 1989 08ff 01       		.byte	0x1
 1990 0900 97       		.byte	0x97
 1991 0901 23090000 		.4byte	0x923
 1992 0905 1B       		.uleb128 0x1b
 1993 0906 600A0000 		.4byte	0xa60
 1994 090a DC020000 		.4byte	.LLST7
 1995 090e 2E       		.uleb128 0x2e
ARM GAS  /var/folders/3j/4xdnk5197cv_b7cw3n33qk7r0000gn/T//ccdeHuBY.s 			page 36


 1996 090f 560A0000 		.4byte	0xa56
 1997 0913 1C       		.uleb128 0x1c
 1998 0914 60000000 		.4byte	.Ldebug_ranges0+0x60
 1999 0918 1D       		.uleb128 0x1d
 2000 0919 6B0A0000 		.4byte	0xa6b
 2001 091d 1D030000 		.4byte	.LLST8
 2002 0921 00       		.byte	0
 2003 0922 00       		.byte	0
 2004 0923 2D       		.uleb128 0x2d
 2005 0924 030A0000 		.4byte	0xa03
 2006 0928 EC000000 		.4byte	.LBB42
 2007 092c 78000000 		.4byte	.Ldebug_ranges0+0x78
 2008 0930 01       		.byte	0x1
 2009 0931 A0       		.byte	0xa0
 2010 0932 40090000 		.4byte	0x940
 2011 0936 1B       		.uleb128 0x1b
 2012 0937 130A0000 		.4byte	0xa13
 2013 093b 3B030000 		.4byte	.LLST9
 2014 093f 00       		.byte	0
 2015 0940 2D       		.uleb128 0x2d
 2016 0941 030A0000 		.4byte	0xa03
 2017 0945 24010000 		.4byte	.LBB47
 2018 0949 90000000 		.4byte	.Ldebug_ranges0+0x90
 2019 094d 01       		.byte	0x1
 2020 094e 87       		.byte	0x87
 2021 094f 5D090000 		.4byte	0x95d
 2022 0953 1B       		.uleb128 0x1b
 2023 0954 130A0000 		.4byte	0xa13
 2024 0958 59030000 		.4byte	.LLST10
 2025 095c 00       		.byte	0
 2026 095d 2D       		.uleb128 0x2d
 2027 095e 4A0A0000 		.4byte	0xa4a
 2028 0962 44010000 		.4byte	.LBB53
 2029 0966 B0000000 		.4byte	.Ldebug_ranges0+0xb0
 2030 096a 01       		.byte	0x1
 2031 096b 87       		.byte	0x87
 2032 096c 8E090000 		.4byte	0x98e
 2033 0970 1B       		.uleb128 0x1b
 2034 0971 600A0000 		.4byte	0xa60
 2035 0975 6C030000 		.4byte	.LLST11
 2036 0979 2E       		.uleb128 0x2e
 2037 097a 560A0000 		.4byte	0xa56
 2038 097e 1C       		.uleb128 0x1c
 2039 097f B0000000 		.4byte	.Ldebug_ranges0+0xb0
 2040 0983 1D       		.uleb128 0x1d
 2041 0984 6B0A0000 		.4byte	0xa6b
 2042 0988 8A030000 		.4byte	.LLST12
 2043 098c 00       		.byte	0
 2044 098d 00       		.byte	0
 2045 098e 2F       		.uleb128 0x2f
 2046 098f 98000000 		.4byte	.LVL13
 2047 0993 C70A0000 		.4byte	0xac7
 2048 0997 A1090000 		.4byte	0x9a1
 2049 099b 25       		.uleb128 0x25
 2050 099c 01       		.uleb128 0x1
 2051 099d 50       		.byte	0x50
 2052 099e 01       		.uleb128 0x1
ARM GAS  /var/folders/3j/4xdnk5197cv_b7cw3n33qk7r0000gn/T//ccdeHuBY.s 			page 37


 2053 099f 34       		.byte	0x34
 2054 09a0 00       		.byte	0
 2055 09a1 1E       		.uleb128 0x1e
 2056 09a2 04010000 		.4byte	.LVL23
 2057 09a6 A60A0000 		.4byte	0xaa6
 2058 09aa 00       		.byte	0
 2059 09ab 00       		.byte	0
 2060 09ac 2C       		.uleb128 0x2c
 2061 09ad 6A030000 		.4byte	.LASF105
 2062 09b1 01       		.byte	0x1
 2063 09b2 60       		.byte	0x60
 2064 09b3 00000000 		.4byte	.LFB8
 2065 09b7 14000000 		.4byte	.LFE8-.LFB8
 2066 09bb 01       		.uleb128 0x1
 2067 09bc 9C       		.byte	0x9c
 2068 09bd E1090000 		.4byte	0x9e1
 2069 09c1 28       		.uleb128 0x28
 2070 09c2 6D7000   		.ascii	"mp\000"
 2071 09c5 01       		.byte	0x1
 2072 09c6 60       		.byte	0x60
 2073 09c7 D7040000 		.4byte	0x4d7
 2074 09cb 9D030000 		.4byte	.LLST13
 2075 09cf 24       		.uleb128 0x24
 2076 09d0 0C000000 		.4byte	.LVL38
 2077 09d4 5B080000 		.4byte	0x85b
 2078 09d8 25       		.uleb128 0x25
 2079 09d9 01       		.uleb128 0x1
 2080 09da 50       		.byte	0x50
 2081 09db 03       		.uleb128 0x3
 2082 09dc F3       		.byte	0xf3
 2083 09dd 01       		.uleb128 0x1
 2084 09de 50       		.byte	0x50
 2085 09df 00       		.byte	0
 2086 09e0 00       		.byte	0
 2087 09e1 2C       		.uleb128 0x2c
 2088 09e2 35050000 		.4byte	.LASF106
 2089 09e6 01       		.byte	0x1
 2090 09e7 4F       		.byte	0x4f
 2091 09e8 00000000 		.4byte	.LFB7
 2092 09ec 14000000 		.4byte	.LFE7-.LFB7
 2093 09f0 01       		.uleb128 0x1
 2094 09f1 9C       		.byte	0x9c
 2095 09f2 030A0000 		.4byte	0xa03
 2096 09f6 30       		.uleb128 0x30
 2097 09f7 6D7000   		.ascii	"mp\000"
 2098 09fa 01       		.byte	0x1
 2099 09fb 4F       		.byte	0x4f
 2100 09fc D7040000 		.4byte	0x4d7
 2101 0a00 01       		.uleb128 0x1
 2102 0a01 50       		.byte	0x50
 2103 0a02 00       		.byte	0
 2104 0a03 31       		.uleb128 0x31
 2105 0a04 97030000 		.4byte	.LASF107
 2106 0a08 02       		.byte	0x2
 2107 0a09 42       		.byte	0x42
 2108 0a0a 48020000 		.4byte	0x248
 2109 0a0e 03       		.byte	0x3
ARM GAS  /var/folders/3j/4xdnk5197cv_b7cw3n33qk7r0000gn/T//ccdeHuBY.s 			page 38


 2110 0a0f 1E0A0000 		.4byte	0xa1e
 2111 0a13 27       		.uleb128 0x27
 2112 0a14 747000   		.ascii	"tp\000"
 2113 0a17 02       		.byte	0x2
 2114 0a18 42       		.byte	0x42
 2115 0a19 48020000 		.4byte	0x248
 2116 0a1d 00       		.byte	0
 2117 0a1e 31       		.uleb128 0x31
 2118 0a1f AD040000 		.4byte	.LASF108
 2119 0a23 02       		.byte	0x2
 2120 0a24 34       		.byte	0x34
 2121 0a25 48020000 		.4byte	0x248
 2122 0a29 03       		.byte	0x3
 2123 0a2a 440A0000 		.4byte	0xa44
 2124 0a2e 27       		.uleb128 0x27
 2125 0a2f 74717000 		.ascii	"tqp\000"
 2126 0a33 02       		.byte	0x2
 2127 0a34 34       		.byte	0x34
 2128 0a35 440A0000 		.4byte	0xa44
 2129 0a39 29       		.uleb128 0x29
 2130 0a3a 747000   		.ascii	"tp\000"
 2131 0a3d 02       		.byte	0x2
 2132 0a3e 35       		.byte	0x35
 2133 0a3f 48020000 		.4byte	0x248
 2134 0a43 00       		.byte	0
 2135 0a44 0A       		.uleb128 0xa
 2136 0a45 04       		.byte	0x4
 2137 0a46 4E020000 		.4byte	0x24e
 2138 0a4a 32       		.uleb128 0x32
 2139 0a4b F6040000 		.4byte	.LASF117
 2140 0a4f 02       		.byte	0x2
 2141 0a50 22       		.byte	0x22
 2142 0a51 03       		.byte	0x3
 2143 0a52 760A0000 		.4byte	0xa76
 2144 0a56 27       		.uleb128 0x27
 2145 0a57 747000   		.ascii	"tp\000"
 2146 0a5a 02       		.byte	0x2
 2147 0a5b 22       		.byte	0x22
 2148 0a5c 48020000 		.4byte	0x248
 2149 0a60 27       		.uleb128 0x27
 2150 0a61 74717000 		.ascii	"tqp\000"
 2151 0a65 02       		.byte	0x2
 2152 0a66 22       		.byte	0x22
 2153 0a67 440A0000 		.4byte	0xa44
 2154 0a6b 29       		.uleb128 0x29
 2155 0a6c 637000   		.ascii	"cp\000"
 2156 0a6f 02       		.byte	0x2
 2157 0a70 24       		.byte	0x24
 2158 0a71 48020000 		.4byte	0x248
 2159 0a75 00       		.byte	0
 2160 0a76 33       		.uleb128 0x33
 2161 0a77 E3070000 		.4byte	0x7e3
 2162 0a7b 00000000 		.4byte	.LFB11
 2163 0a7f 34000000 		.4byte	.LFE11-.LFB11
 2164 0a83 01       		.uleb128 0x1
 2165 0a84 9C       		.byte	0x9c
 2166 0a85 A60A0000 		.4byte	0xaa6
ARM GAS  /var/folders/3j/4xdnk5197cv_b7cw3n33qk7r0000gn/T//ccdeHuBY.s 			page 39


 2167 0a89 1B       		.uleb128 0x1b
 2168 0a8a F3070000 		.4byte	0x7f3
 2169 0a8e BE030000 		.4byte	.LLST17
 2170 0a92 2B       		.uleb128 0x2b
 2171 0a93 E3070000 		.4byte	0x7e3
 2172 0a97 E0000000 		.4byte	.Ldebug_ranges0+0xe0
 2173 0a9b 1B       		.uleb128 0x1b
 2174 0a9c F3070000 		.4byte	0x7f3
 2175 0aa0 DC030000 		.4byte	.LLST18
 2176 0aa4 00       		.byte	0
 2177 0aa5 00       		.byte	0
 2178 0aa6 34       		.uleb128 0x34
 2179 0aa7 C4040000 		.4byte	.LASF109
 2180 0aab C4040000 		.4byte	.LASF109
 2181 0aaf 0A       		.byte	0xa
 2182 0ab0 89       		.byte	0x89
 2183 0ab1 34       		.uleb128 0x34
 2184 0ab2 22020000 		.4byte	.LASF110
 2185 0ab6 22020000 		.4byte	.LASF110
 2186 0aba 0A       		.byte	0xa
 2187 0abb 95       		.byte	0x95
 2188 0abc 34       		.uleb128 0x34
 2189 0abd BE020000 		.4byte	.LASF111
 2190 0ac1 BE020000 		.4byte	.LASF111
 2191 0ac5 0A       		.byte	0xa
 2192 0ac6 92       		.byte	0x92
 2193 0ac7 34       		.uleb128 0x34
 2194 0ac8 5B040000 		.4byte	.LASF112
 2195 0acc 5B040000 		.4byte	.LASF112
 2196 0ad0 0A       		.byte	0xa
 2197 0ad1 8C       		.byte	0x8c
 2198 0ad2 00       		.byte	0
 2199              		.section	.debug_abbrev,"",%progbits
 2200              	.Ldebug_abbrev0:
 2201 0000 01       		.uleb128 0x1
 2202 0001 11       		.uleb128 0x11
 2203 0002 01       		.byte	0x1
 2204 0003 25       		.uleb128 0x25
 2205 0004 0E       		.uleb128 0xe
 2206 0005 13       		.uleb128 0x13
 2207 0006 0B       		.uleb128 0xb
 2208 0007 03       		.uleb128 0x3
 2209 0008 0E       		.uleb128 0xe
 2210 0009 1B       		.uleb128 0x1b
 2211 000a 0E       		.uleb128 0xe
 2212 000b 55       		.uleb128 0x55
 2213 000c 17       		.uleb128 0x17
 2214 000d 11       		.uleb128 0x11
 2215 000e 01       		.uleb128 0x1
 2216 000f 10       		.uleb128 0x10
 2217 0010 17       		.uleb128 0x17
 2218 0011 00       		.byte	0
 2219 0012 00       		.byte	0
 2220 0013 02       		.uleb128 0x2
 2221 0014 24       		.uleb128 0x24
 2222 0015 00       		.byte	0
 2223 0016 0B       		.uleb128 0xb
ARM GAS  /var/folders/3j/4xdnk5197cv_b7cw3n33qk7r0000gn/T//ccdeHuBY.s 			page 40


 2224 0017 0B       		.uleb128 0xb
 2225 0018 3E       		.uleb128 0x3e
 2226 0019 0B       		.uleb128 0xb
 2227 001a 03       		.uleb128 0x3
 2228 001b 08       		.uleb128 0x8
 2229 001c 00       		.byte	0
 2230 001d 00       		.byte	0
 2231 001e 03       		.uleb128 0x3
 2232 001f 24       		.uleb128 0x24
 2233 0020 00       		.byte	0
 2234 0021 0B       		.uleb128 0xb
 2235 0022 0B       		.uleb128 0xb
 2236 0023 3E       		.uleb128 0x3e
 2237 0024 0B       		.uleb128 0xb
 2238 0025 03       		.uleb128 0x3
 2239 0026 0E       		.uleb128 0xe
 2240 0027 00       		.byte	0
 2241 0028 00       		.byte	0
 2242 0029 04       		.uleb128 0x4
 2243 002a 16       		.uleb128 0x16
 2244 002b 00       		.byte	0
 2245 002c 03       		.uleb128 0x3
 2246 002d 0E       		.uleb128 0xe
 2247 002e 3A       		.uleb128 0x3a
 2248 002f 0B       		.uleb128 0xb
 2249 0030 3B       		.uleb128 0x3b
 2250 0031 0B       		.uleb128 0xb
 2251 0032 49       		.uleb128 0x49
 2252 0033 13       		.uleb128 0x13
 2253 0034 00       		.byte	0
 2254 0035 00       		.byte	0
 2255 0036 05       		.uleb128 0x5
 2256 0037 35       		.uleb128 0x35
 2257 0038 00       		.byte	0
 2258 0039 49       		.uleb128 0x49
 2259 003a 13       		.uleb128 0x13
 2260 003b 00       		.byte	0
 2261 003c 00       		.byte	0
 2262 003d 06       		.uleb128 0x6
 2263 003e 13       		.uleb128 0x13
 2264 003f 01       		.byte	0x1
 2265 0040 03       		.uleb128 0x3
 2266 0041 0E       		.uleb128 0xe
 2267 0042 0B       		.uleb128 0xb
 2268 0043 0B       		.uleb128 0xb
 2269 0044 3A       		.uleb128 0x3a
 2270 0045 0B       		.uleb128 0xb
 2271 0046 3B       		.uleb128 0x3b
 2272 0047 0B       		.uleb128 0xb
 2273 0048 01       		.uleb128 0x1
 2274 0049 13       		.uleb128 0x13
 2275 004a 00       		.byte	0
 2276 004b 00       		.byte	0
 2277 004c 07       		.uleb128 0x7
 2278 004d 0D       		.uleb128 0xd
 2279 004e 00       		.byte	0
 2280 004f 03       		.uleb128 0x3
ARM GAS  /var/folders/3j/4xdnk5197cv_b7cw3n33qk7r0000gn/T//ccdeHuBY.s 			page 41


 2281 0050 0E       		.uleb128 0xe
 2282 0051 3A       		.uleb128 0x3a
 2283 0052 0B       		.uleb128 0xb
 2284 0053 3B       		.uleb128 0x3b
 2285 0054 0B       		.uleb128 0xb
 2286 0055 49       		.uleb128 0x49
 2287 0056 13       		.uleb128 0x13
 2288 0057 38       		.uleb128 0x38
 2289 0058 0B       		.uleb128 0xb
 2290 0059 00       		.byte	0
 2291 005a 00       		.byte	0
 2292 005b 08       		.uleb128 0x8
 2293 005c 0D       		.uleb128 0xd
 2294 005d 00       		.byte	0
 2295 005e 03       		.uleb128 0x3
 2296 005f 08       		.uleb128 0x8
 2297 0060 3A       		.uleb128 0x3a
 2298 0061 0B       		.uleb128 0xb
 2299 0062 3B       		.uleb128 0x3b
 2300 0063 0B       		.uleb128 0xb
 2301 0064 49       		.uleb128 0x49
 2302 0065 13       		.uleb128 0x13
 2303 0066 38       		.uleb128 0x38
 2304 0067 0B       		.uleb128 0xb
 2305 0068 00       		.byte	0
 2306 0069 00       		.byte	0
 2307 006a 09       		.uleb128 0x9
 2308 006b 13       		.uleb128 0x13
 2309 006c 01       		.byte	0x1
 2310 006d 0B       		.uleb128 0xb
 2311 006e 0B       		.uleb128 0xb
 2312 006f 3A       		.uleb128 0x3a
 2313 0070 0B       		.uleb128 0xb
 2314 0071 3B       		.uleb128 0x3b
 2315 0072 0B       		.uleb128 0xb
 2316 0073 01       		.uleb128 0x1
 2317 0074 13       		.uleb128 0x13
 2318 0075 00       		.byte	0
 2319 0076 00       		.byte	0
 2320 0077 0A       		.uleb128 0xa
 2321 0078 0F       		.uleb128 0xf
 2322 0079 00       		.byte	0
 2323 007a 0B       		.uleb128 0xb
 2324 007b 0B       		.uleb128 0xb
 2325 007c 49       		.uleb128 0x49
 2326 007d 13       		.uleb128 0x13
 2327 007e 00       		.byte	0
 2328 007f 00       		.byte	0
 2329 0080 0B       		.uleb128 0xb
 2330 0081 0F       		.uleb128 0xf
 2331 0082 00       		.byte	0
 2332 0083 0B       		.uleb128 0xb
 2333 0084 0B       		.uleb128 0xb
 2334 0085 00       		.byte	0
 2335 0086 00       		.byte	0
 2336 0087 0C       		.uleb128 0xc
 2337 0088 15       		.uleb128 0x15
ARM GAS  /var/folders/3j/4xdnk5197cv_b7cw3n33qk7r0000gn/T//ccdeHuBY.s 			page 42


 2338 0089 01       		.byte	0x1
 2339 008a 27       		.uleb128 0x27
 2340 008b 19       		.uleb128 0x19
 2341 008c 01       		.uleb128 0x1
 2342 008d 13       		.uleb128 0x13
 2343 008e 00       		.byte	0
 2344 008f 00       		.byte	0
 2345 0090 0D       		.uleb128 0xd
 2346 0091 05       		.uleb128 0x5
 2347 0092 00       		.byte	0
 2348 0093 49       		.uleb128 0x49
 2349 0094 13       		.uleb128 0x13
 2350 0095 00       		.byte	0
 2351 0096 00       		.byte	0
 2352 0097 0E       		.uleb128 0xe
 2353 0098 34       		.uleb128 0x34
 2354 0099 00       		.byte	0
 2355 009a 03       		.uleb128 0x3
 2356 009b 0E       		.uleb128 0xe
 2357 009c 3A       		.uleb128 0x3a
 2358 009d 0B       		.uleb128 0xb
 2359 009e 3B       		.uleb128 0x3b
 2360 009f 0B       		.uleb128 0xb
 2361 00a0 49       		.uleb128 0x49
 2362 00a1 13       		.uleb128 0x13
 2363 00a2 3F       		.uleb128 0x3f
 2364 00a3 19       		.uleb128 0x19
 2365 00a4 3C       		.uleb128 0x3c
 2366 00a5 19       		.uleb128 0x19
 2367 00a6 00       		.byte	0
 2368 00a7 00       		.byte	0
 2369 00a8 0F       		.uleb128 0xf
 2370 00a9 17       		.uleb128 0x17
 2371 00aa 01       		.byte	0x1
 2372 00ab 0B       		.uleb128 0xb
 2373 00ac 0B       		.uleb128 0xb
 2374 00ad 3A       		.uleb128 0x3a
 2375 00ae 0B       		.uleb128 0xb
 2376 00af 3B       		.uleb128 0x3b
 2377 00b0 0B       		.uleb128 0xb
 2378 00b1 01       		.uleb128 0x1
 2379 00b2 13       		.uleb128 0x13
 2380 00b3 00       		.byte	0
 2381 00b4 00       		.byte	0
 2382 00b5 10       		.uleb128 0x10
 2383 00b6 0D       		.uleb128 0xd
 2384 00b7 00       		.byte	0
 2385 00b8 03       		.uleb128 0x3
 2386 00b9 0E       		.uleb128 0xe
 2387 00ba 3A       		.uleb128 0x3a
 2388 00bb 0B       		.uleb128 0xb
 2389 00bc 3B       		.uleb128 0x3b
 2390 00bd 0B       		.uleb128 0xb
 2391 00be 49       		.uleb128 0x49
 2392 00bf 13       		.uleb128 0x13
 2393 00c0 00       		.byte	0
 2394 00c1 00       		.byte	0
ARM GAS  /var/folders/3j/4xdnk5197cv_b7cw3n33qk7r0000gn/T//ccdeHuBY.s 			page 43


 2395 00c2 11       		.uleb128 0x11
 2396 00c3 26       		.uleb128 0x26
 2397 00c4 00       		.byte	0
 2398 00c5 49       		.uleb128 0x49
 2399 00c6 13       		.uleb128 0x13
 2400 00c7 00       		.byte	0
 2401 00c8 00       		.byte	0
 2402 00c9 12       		.uleb128 0x12
 2403 00ca 01       		.uleb128 0x1
 2404 00cb 01       		.byte	0x1
 2405 00cc 49       		.uleb128 0x49
 2406 00cd 13       		.uleb128 0x13
 2407 00ce 01       		.uleb128 0x1
 2408 00cf 13       		.uleb128 0x13
 2409 00d0 00       		.byte	0
 2410 00d1 00       		.byte	0
 2411 00d2 13       		.uleb128 0x13
 2412 00d3 21       		.uleb128 0x21
 2413 00d4 00       		.byte	0
 2414 00d5 49       		.uleb128 0x49
 2415 00d6 13       		.uleb128 0x13
 2416 00d7 2F       		.uleb128 0x2f
 2417 00d8 0B       		.uleb128 0xb
 2418 00d9 00       		.byte	0
 2419 00da 00       		.byte	0
 2420 00db 14       		.uleb128 0x14
 2421 00dc 2E       		.uleb128 0x2e
 2422 00dd 01       		.byte	0x1
 2423 00de 3F       		.uleb128 0x3f
 2424 00df 19       		.uleb128 0x19
 2425 00e0 03       		.uleb128 0x3
 2426 00e1 0E       		.uleb128 0xe
 2427 00e2 3A       		.uleb128 0x3a
 2428 00e3 0B       		.uleb128 0xb
 2429 00e4 3B       		.uleb128 0x3b
 2430 00e5 05       		.uleb128 0x5
 2431 00e6 27       		.uleb128 0x27
 2432 00e7 19       		.uleb128 0x19
 2433 00e8 11       		.uleb128 0x11
 2434 00e9 01       		.uleb128 0x1
 2435 00ea 12       		.uleb128 0x12
 2436 00eb 06       		.uleb128 0x6
 2437 00ec 40       		.uleb128 0x40
 2438 00ed 18       		.uleb128 0x18
 2439 00ee 9742     		.uleb128 0x2117
 2440 00f0 19       		.uleb128 0x19
 2441 00f1 01       		.uleb128 0x1
 2442 00f2 13       		.uleb128 0x13
 2443 00f3 00       		.byte	0
 2444 00f4 00       		.byte	0
 2445 00f5 15       		.uleb128 0x15
 2446 00f6 34       		.uleb128 0x34
 2447 00f7 00       		.byte	0
 2448 00f8 03       		.uleb128 0x3
 2449 00f9 08       		.uleb128 0x8
 2450 00fa 3A       		.uleb128 0x3a
 2451 00fb 0B       		.uleb128 0xb
ARM GAS  /var/folders/3j/4xdnk5197cv_b7cw3n33qk7r0000gn/T//ccdeHuBY.s 			page 44


 2452 00fc 3B       		.uleb128 0x3b
 2453 00fd 05       		.uleb128 0x5
 2454 00fe 49       		.uleb128 0x49
 2455 00ff 13       		.uleb128 0x13
 2456 0100 02       		.uleb128 0x2
 2457 0101 18       		.uleb128 0x18
 2458 0102 00       		.byte	0
 2459 0103 00       		.byte	0
 2460 0104 16       		.uleb128 0x16
 2461 0105 0B       		.uleb128 0xb
 2462 0106 01       		.byte	0x1
 2463 0107 11       		.uleb128 0x11
 2464 0108 01       		.uleb128 0x1
 2465 0109 12       		.uleb128 0x12
 2466 010a 06       		.uleb128 0x6
 2467 010b 01       		.uleb128 0x1
 2468 010c 13       		.uleb128 0x13
 2469 010d 00       		.byte	0
 2470 010e 00       		.byte	0
 2471 010f 17       		.uleb128 0x17
 2472 0110 34       		.uleb128 0x34
 2473 0111 00       		.byte	0
 2474 0112 03       		.uleb128 0x3
 2475 0113 08       		.uleb128 0x8
 2476 0114 3A       		.uleb128 0x3a
 2477 0115 0B       		.uleb128 0xb
 2478 0116 3B       		.uleb128 0x3b
 2479 0117 05       		.uleb128 0x5
 2480 0118 49       		.uleb128 0x49
 2481 0119 13       		.uleb128 0x13
 2482 011a 02       		.uleb128 0x2
 2483 011b 17       		.uleb128 0x17
 2484 011c 00       		.byte	0
 2485 011d 00       		.byte	0
 2486 011e 18       		.uleb128 0x18
 2487 011f 0B       		.uleb128 0xb
 2488 0120 01       		.byte	0x1
 2489 0121 11       		.uleb128 0x11
 2490 0122 01       		.uleb128 0x1
 2491 0123 12       		.uleb128 0x12
 2492 0124 06       		.uleb128 0x6
 2493 0125 00       		.byte	0
 2494 0126 00       		.byte	0
 2495 0127 19       		.uleb128 0x19
 2496 0128 34       		.uleb128 0x34
 2497 0129 00       		.byte	0
 2498 012a 03       		.uleb128 0x3
 2499 012b 08       		.uleb128 0x8
 2500 012c 3A       		.uleb128 0x3a
 2501 012d 0B       		.uleb128 0xb
 2502 012e 3B       		.uleb128 0x3b
 2503 012f 05       		.uleb128 0x5
 2504 0130 49       		.uleb128 0x49
 2505 0131 13       		.uleb128 0x13
 2506 0132 00       		.byte	0
 2507 0133 00       		.byte	0
 2508 0134 1A       		.uleb128 0x1a
ARM GAS  /var/folders/3j/4xdnk5197cv_b7cw3n33qk7r0000gn/T//ccdeHuBY.s 			page 45


 2509 0135 1D       		.uleb128 0x1d
 2510 0136 01       		.byte	0x1
 2511 0137 31       		.uleb128 0x31
 2512 0138 13       		.uleb128 0x13
 2513 0139 52       		.uleb128 0x52
 2514 013a 01       		.uleb128 0x1
 2515 013b 55       		.uleb128 0x55
 2516 013c 17       		.uleb128 0x17
 2517 013d 58       		.uleb128 0x58
 2518 013e 0B       		.uleb128 0xb
 2519 013f 59       		.uleb128 0x59
 2520 0140 05       		.uleb128 0x5
 2521 0141 01       		.uleb128 0x1
 2522 0142 13       		.uleb128 0x13
 2523 0143 00       		.byte	0
 2524 0144 00       		.byte	0
 2525 0145 1B       		.uleb128 0x1b
 2526 0146 05       		.uleb128 0x5
 2527 0147 00       		.byte	0
 2528 0148 31       		.uleb128 0x31
 2529 0149 13       		.uleb128 0x13
 2530 014a 02       		.uleb128 0x2
 2531 014b 17       		.uleb128 0x17
 2532 014c 00       		.byte	0
 2533 014d 00       		.byte	0
 2534 014e 1C       		.uleb128 0x1c
 2535 014f 0B       		.uleb128 0xb
 2536 0150 01       		.byte	0x1
 2537 0151 55       		.uleb128 0x55
 2538 0152 17       		.uleb128 0x17
 2539 0153 00       		.byte	0
 2540 0154 00       		.byte	0
 2541 0155 1D       		.uleb128 0x1d
 2542 0156 34       		.uleb128 0x34
 2543 0157 00       		.byte	0
 2544 0158 31       		.uleb128 0x31
 2545 0159 13       		.uleb128 0x13
 2546 015a 02       		.uleb128 0x2
 2547 015b 17       		.uleb128 0x17
 2548 015c 00       		.byte	0
 2549 015d 00       		.byte	0
 2550 015e 1E       		.uleb128 0x1e
 2551 015f 898201   		.uleb128 0x4109
 2552 0162 00       		.byte	0
 2553 0163 11       		.uleb128 0x11
 2554 0164 01       		.uleb128 0x1
 2555 0165 31       		.uleb128 0x31
 2556 0166 13       		.uleb128 0x13
 2557 0167 00       		.byte	0
 2558 0168 00       		.byte	0
 2559 0169 1F       		.uleb128 0x1f
 2560 016a 2E       		.uleb128 0x2e
 2561 016b 01       		.byte	0x1
 2562 016c 3F       		.uleb128 0x3f
 2563 016d 19       		.uleb128 0x19
 2564 016e 03       		.uleb128 0x3
 2565 016f 0E       		.uleb128 0xe
ARM GAS  /var/folders/3j/4xdnk5197cv_b7cw3n33qk7r0000gn/T//ccdeHuBY.s 			page 46


 2566 0170 3A       		.uleb128 0x3a
 2567 0171 0B       		.uleb128 0xb
 2568 0172 3B       		.uleb128 0x3b
 2569 0173 05       		.uleb128 0x5
 2570 0174 27       		.uleb128 0x27
 2571 0175 19       		.uleb128 0x19
 2572 0176 49       		.uleb128 0x49
 2573 0177 13       		.uleb128 0x13
 2574 0178 11       		.uleb128 0x11
 2575 0179 01       		.uleb128 0x1
 2576 017a 12       		.uleb128 0x12
 2577 017b 06       		.uleb128 0x6
 2578 017c 40       		.uleb128 0x40
 2579 017d 18       		.uleb128 0x18
 2580 017e 9742     		.uleb128 0x2117
 2581 0180 19       		.uleb128 0x19
 2582 0181 01       		.uleb128 0x1
 2583 0182 13       		.uleb128 0x13
 2584 0183 00       		.byte	0
 2585 0184 00       		.byte	0
 2586 0185 20       		.uleb128 0x20
 2587 0186 34       		.uleb128 0x34
 2588 0187 00       		.byte	0
 2589 0188 03       		.uleb128 0x3
 2590 0189 0E       		.uleb128 0xe
 2591 018a 3A       		.uleb128 0x3a
 2592 018b 0B       		.uleb128 0xb
 2593 018c 3B       		.uleb128 0x3b
 2594 018d 05       		.uleb128 0x5
 2595 018e 49       		.uleb128 0x49
 2596 018f 13       		.uleb128 0x13
 2597 0190 02       		.uleb128 0x2
 2598 0191 17       		.uleb128 0x17
 2599 0192 00       		.byte	0
 2600 0193 00       		.byte	0
 2601 0194 21       		.uleb128 0x21
 2602 0195 2E       		.uleb128 0x2e
 2603 0196 01       		.byte	0x1
 2604 0197 3F       		.uleb128 0x3f
 2605 0198 19       		.uleb128 0x19
 2606 0199 03       		.uleb128 0x3
 2607 019a 0E       		.uleb128 0xe
 2608 019b 3A       		.uleb128 0x3a
 2609 019c 0B       		.uleb128 0xb
 2610 019d 3B       		.uleb128 0x3b
 2611 019e 0B       		.uleb128 0xb
 2612 019f 27       		.uleb128 0x27
 2613 01a0 19       		.uleb128 0x19
 2614 01a1 49       		.uleb128 0x49
 2615 01a2 13       		.uleb128 0x13
 2616 01a3 11       		.uleb128 0x11
 2617 01a4 01       		.uleb128 0x1
 2618 01a5 12       		.uleb128 0x12
 2619 01a6 06       		.uleb128 0x6
 2620 01a7 40       		.uleb128 0x40
 2621 01a8 18       		.uleb128 0x18
 2622 01a9 9742     		.uleb128 0x2117
ARM GAS  /var/folders/3j/4xdnk5197cv_b7cw3n33qk7r0000gn/T//ccdeHuBY.s 			page 47


 2623 01ab 19       		.uleb128 0x19
 2624 01ac 01       		.uleb128 0x1
 2625 01ad 13       		.uleb128 0x13
 2626 01ae 00       		.byte	0
 2627 01af 00       		.byte	0
 2628 01b0 22       		.uleb128 0x22
 2629 01b1 34       		.uleb128 0x34
 2630 01b2 00       		.byte	0
 2631 01b3 03       		.uleb128 0x3
 2632 01b4 08       		.uleb128 0x8
 2633 01b5 3A       		.uleb128 0x3a
 2634 01b6 0B       		.uleb128 0xb
 2635 01b7 3B       		.uleb128 0x3b
 2636 01b8 0B       		.uleb128 0xb
 2637 01b9 49       		.uleb128 0x49
 2638 01ba 13       		.uleb128 0x13
 2639 01bb 02       		.uleb128 0x2
 2640 01bc 17       		.uleb128 0x17
 2641 01bd 00       		.byte	0
 2642 01be 00       		.byte	0
 2643 01bf 23       		.uleb128 0x23
 2644 01c0 34       		.uleb128 0x34
 2645 01c1 00       		.byte	0
 2646 01c2 03       		.uleb128 0x3
 2647 01c3 08       		.uleb128 0x8
 2648 01c4 3A       		.uleb128 0x3a
 2649 01c5 0B       		.uleb128 0xb
 2650 01c6 3B       		.uleb128 0x3b
 2651 01c7 0B       		.uleb128 0xb
 2652 01c8 49       		.uleb128 0x49
 2653 01c9 13       		.uleb128 0x13
 2654 01ca 02       		.uleb128 0x2
 2655 01cb 18       		.uleb128 0x18
 2656 01cc 00       		.byte	0
 2657 01cd 00       		.byte	0
 2658 01ce 24       		.uleb128 0x24
 2659 01cf 898201   		.uleb128 0x4109
 2660 01d2 01       		.byte	0x1
 2661 01d3 11       		.uleb128 0x11
 2662 01d4 01       		.uleb128 0x1
 2663 01d5 31       		.uleb128 0x31
 2664 01d6 13       		.uleb128 0x13
 2665 01d7 00       		.byte	0
 2666 01d8 00       		.byte	0
 2667 01d9 25       		.uleb128 0x25
 2668 01da 8A8201   		.uleb128 0x410a
 2669 01dd 00       		.byte	0
 2670 01de 02       		.uleb128 0x2
 2671 01df 18       		.uleb128 0x18
 2672 01e0 9142     		.uleb128 0x2111
 2673 01e2 18       		.uleb128 0x18
 2674 01e3 00       		.byte	0
 2675 01e4 00       		.byte	0
 2676 01e5 26       		.uleb128 0x26
 2677 01e6 2E       		.uleb128 0x2e
 2678 01e7 01       		.byte	0x1
 2679 01e8 3F       		.uleb128 0x3f
ARM GAS  /var/folders/3j/4xdnk5197cv_b7cw3n33qk7r0000gn/T//ccdeHuBY.s 			page 48


 2680 01e9 19       		.uleb128 0x19
 2681 01ea 03       		.uleb128 0x3
 2682 01eb 0E       		.uleb128 0xe
 2683 01ec 3A       		.uleb128 0x3a
 2684 01ed 0B       		.uleb128 0xb
 2685 01ee 3B       		.uleb128 0x3b
 2686 01ef 0B       		.uleb128 0xb
 2687 01f0 27       		.uleb128 0x27
 2688 01f1 19       		.uleb128 0x19
 2689 01f2 49       		.uleb128 0x49
 2690 01f3 13       		.uleb128 0x13
 2691 01f4 20       		.uleb128 0x20
 2692 01f5 0B       		.uleb128 0xb
 2693 01f6 01       		.uleb128 0x1
 2694 01f7 13       		.uleb128 0x13
 2695 01f8 00       		.byte	0
 2696 01f9 00       		.byte	0
 2697 01fa 27       		.uleb128 0x27
 2698 01fb 05       		.uleb128 0x5
 2699 01fc 00       		.byte	0
 2700 01fd 03       		.uleb128 0x3
 2701 01fe 08       		.uleb128 0x8
 2702 01ff 3A       		.uleb128 0x3a
 2703 0200 0B       		.uleb128 0xb
 2704 0201 3B       		.uleb128 0x3b
 2705 0202 0B       		.uleb128 0xb
 2706 0203 49       		.uleb128 0x49
 2707 0204 13       		.uleb128 0x13
 2708 0205 00       		.byte	0
 2709 0206 00       		.byte	0
 2710 0207 28       		.uleb128 0x28
 2711 0208 05       		.uleb128 0x5
 2712 0209 00       		.byte	0
 2713 020a 03       		.uleb128 0x3
 2714 020b 08       		.uleb128 0x8
 2715 020c 3A       		.uleb128 0x3a
 2716 020d 0B       		.uleb128 0xb
 2717 020e 3B       		.uleb128 0x3b
 2718 020f 0B       		.uleb128 0xb
 2719 0210 49       		.uleb128 0x49
 2720 0211 13       		.uleb128 0x13
 2721 0212 02       		.uleb128 0x2
 2722 0213 17       		.uleb128 0x17
 2723 0214 00       		.byte	0
 2724 0215 00       		.byte	0
 2725 0216 29       		.uleb128 0x29
 2726 0217 34       		.uleb128 0x34
 2727 0218 00       		.byte	0
 2728 0219 03       		.uleb128 0x3
 2729 021a 08       		.uleb128 0x8
 2730 021b 3A       		.uleb128 0x3a
 2731 021c 0B       		.uleb128 0xb
 2732 021d 3B       		.uleb128 0x3b
 2733 021e 0B       		.uleb128 0xb
 2734 021f 49       		.uleb128 0x49
 2735 0220 13       		.uleb128 0x13
 2736 0221 00       		.byte	0
ARM GAS  /var/folders/3j/4xdnk5197cv_b7cw3n33qk7r0000gn/T//ccdeHuBY.s 			page 49


 2737 0222 00       		.byte	0
 2738 0223 2A       		.uleb128 0x2a
 2739 0224 1D       		.uleb128 0x1d
 2740 0225 01       		.byte	0x1
 2741 0226 31       		.uleb128 0x31
 2742 0227 13       		.uleb128 0x13
 2743 0228 11       		.uleb128 0x11
 2744 0229 01       		.uleb128 0x1
 2745 022a 12       		.uleb128 0x12
 2746 022b 06       		.uleb128 0x6
 2747 022c 58       		.uleb128 0x58
 2748 022d 0B       		.uleb128 0xb
 2749 022e 59       		.uleb128 0x59
 2750 022f 0B       		.uleb128 0xb
 2751 0230 00       		.byte	0
 2752 0231 00       		.byte	0
 2753 0232 2B       		.uleb128 0x2b
 2754 0233 0B       		.uleb128 0xb
 2755 0234 01       		.byte	0x1
 2756 0235 31       		.uleb128 0x31
 2757 0236 13       		.uleb128 0x13
 2758 0237 55       		.uleb128 0x55
 2759 0238 17       		.uleb128 0x17
 2760 0239 00       		.byte	0
 2761 023a 00       		.byte	0
 2762 023b 2C       		.uleb128 0x2c
 2763 023c 2E       		.uleb128 0x2e
 2764 023d 01       		.byte	0x1
 2765 023e 3F       		.uleb128 0x3f
 2766 023f 19       		.uleb128 0x19
 2767 0240 03       		.uleb128 0x3
 2768 0241 0E       		.uleb128 0xe
 2769 0242 3A       		.uleb128 0x3a
 2770 0243 0B       		.uleb128 0xb
 2771 0244 3B       		.uleb128 0x3b
 2772 0245 0B       		.uleb128 0xb
 2773 0246 27       		.uleb128 0x27
 2774 0247 19       		.uleb128 0x19
 2775 0248 11       		.uleb128 0x11
 2776 0249 01       		.uleb128 0x1
 2777 024a 12       		.uleb128 0x12
 2778 024b 06       		.uleb128 0x6
 2779 024c 40       		.uleb128 0x40
 2780 024d 18       		.uleb128 0x18
 2781 024e 9742     		.uleb128 0x2117
 2782 0250 19       		.uleb128 0x19
 2783 0251 01       		.uleb128 0x1
 2784 0252 13       		.uleb128 0x13
 2785 0253 00       		.byte	0
 2786 0254 00       		.byte	0
 2787 0255 2D       		.uleb128 0x2d
 2788 0256 1D       		.uleb128 0x1d
 2789 0257 01       		.byte	0x1
 2790 0258 31       		.uleb128 0x31
 2791 0259 13       		.uleb128 0x13
 2792 025a 52       		.uleb128 0x52
 2793 025b 01       		.uleb128 0x1
ARM GAS  /var/folders/3j/4xdnk5197cv_b7cw3n33qk7r0000gn/T//ccdeHuBY.s 			page 50


 2794 025c 55       		.uleb128 0x55
 2795 025d 17       		.uleb128 0x17
 2796 025e 58       		.uleb128 0x58
 2797 025f 0B       		.uleb128 0xb
 2798 0260 59       		.uleb128 0x59
 2799 0261 0B       		.uleb128 0xb
 2800 0262 01       		.uleb128 0x1
 2801 0263 13       		.uleb128 0x13
 2802 0264 00       		.byte	0
 2803 0265 00       		.byte	0
 2804 0266 2E       		.uleb128 0x2e
 2805 0267 05       		.uleb128 0x5
 2806 0268 00       		.byte	0
 2807 0269 31       		.uleb128 0x31
 2808 026a 13       		.uleb128 0x13
 2809 026b 00       		.byte	0
 2810 026c 00       		.byte	0
 2811 026d 2F       		.uleb128 0x2f
 2812 026e 898201   		.uleb128 0x4109
 2813 0271 01       		.byte	0x1
 2814 0272 11       		.uleb128 0x11
 2815 0273 01       		.uleb128 0x1
 2816 0274 9542     		.uleb128 0x2115
 2817 0276 19       		.uleb128 0x19
 2818 0277 31       		.uleb128 0x31
 2819 0278 13       		.uleb128 0x13
 2820 0279 01       		.uleb128 0x1
 2821 027a 13       		.uleb128 0x13
 2822 027b 00       		.byte	0
 2823 027c 00       		.byte	0
 2824 027d 30       		.uleb128 0x30
 2825 027e 05       		.uleb128 0x5
 2826 027f 00       		.byte	0
 2827 0280 03       		.uleb128 0x3
 2828 0281 08       		.uleb128 0x8
 2829 0282 3A       		.uleb128 0x3a
 2830 0283 0B       		.uleb128 0xb
 2831 0284 3B       		.uleb128 0x3b
 2832 0285 0B       		.uleb128 0xb
 2833 0286 49       		.uleb128 0x49
 2834 0287 13       		.uleb128 0x13
 2835 0288 02       		.uleb128 0x2
 2836 0289 18       		.uleb128 0x18
 2837 028a 00       		.byte	0
 2838 028b 00       		.byte	0
 2839 028c 31       		.uleb128 0x31
 2840 028d 2E       		.uleb128 0x2e
 2841 028e 01       		.byte	0x1
 2842 028f 03       		.uleb128 0x3
 2843 0290 0E       		.uleb128 0xe
 2844 0291 3A       		.uleb128 0x3a
 2845 0292 0B       		.uleb128 0xb
 2846 0293 3B       		.uleb128 0x3b
 2847 0294 0B       		.uleb128 0xb
 2848 0295 27       		.uleb128 0x27
 2849 0296 19       		.uleb128 0x19
 2850 0297 49       		.uleb128 0x49
ARM GAS  /var/folders/3j/4xdnk5197cv_b7cw3n33qk7r0000gn/T//ccdeHuBY.s 			page 51


 2851 0298 13       		.uleb128 0x13
 2852 0299 20       		.uleb128 0x20
 2853 029a 0B       		.uleb128 0xb
 2854 029b 01       		.uleb128 0x1
 2855 029c 13       		.uleb128 0x13
 2856 029d 00       		.byte	0
 2857 029e 00       		.byte	0
 2858 029f 32       		.uleb128 0x32
 2859 02a0 2E       		.uleb128 0x2e
 2860 02a1 01       		.byte	0x1
 2861 02a2 03       		.uleb128 0x3
 2862 02a3 0E       		.uleb128 0xe
 2863 02a4 3A       		.uleb128 0x3a
 2864 02a5 0B       		.uleb128 0xb
 2865 02a6 3B       		.uleb128 0x3b
 2866 02a7 0B       		.uleb128 0xb
 2867 02a8 27       		.uleb128 0x27
 2868 02a9 19       		.uleb128 0x19
 2869 02aa 20       		.uleb128 0x20
 2870 02ab 0B       		.uleb128 0xb
 2871 02ac 01       		.uleb128 0x1
 2872 02ad 13       		.uleb128 0x13
 2873 02ae 00       		.byte	0
 2874 02af 00       		.byte	0
 2875 02b0 33       		.uleb128 0x33
 2876 02b1 2E       		.uleb128 0x2e
 2877 02b2 01       		.byte	0x1
 2878 02b3 31       		.uleb128 0x31
 2879 02b4 13       		.uleb128 0x13
 2880 02b5 11       		.uleb128 0x11
 2881 02b6 01       		.uleb128 0x1
 2882 02b7 12       		.uleb128 0x12
 2883 02b8 06       		.uleb128 0x6
 2884 02b9 40       		.uleb128 0x40
 2885 02ba 18       		.uleb128 0x18
 2886 02bb 9742     		.uleb128 0x2117
 2887 02bd 19       		.uleb128 0x19
 2888 02be 01       		.uleb128 0x1
 2889 02bf 13       		.uleb128 0x13
 2890 02c0 00       		.byte	0
 2891 02c1 00       		.byte	0
 2892 02c2 34       		.uleb128 0x34
 2893 02c3 2E       		.uleb128 0x2e
 2894 02c4 00       		.byte	0
 2895 02c5 3F       		.uleb128 0x3f
 2896 02c6 19       		.uleb128 0x19
 2897 02c7 3C       		.uleb128 0x3c
 2898 02c8 19       		.uleb128 0x19
 2899 02c9 6E       		.uleb128 0x6e
 2900 02ca 0E       		.uleb128 0xe
 2901 02cb 03       		.uleb128 0x3
 2902 02cc 0E       		.uleb128 0xe
 2903 02cd 3A       		.uleb128 0x3a
 2904 02ce 0B       		.uleb128 0xb
 2905 02cf 3B       		.uleb128 0x3b
 2906 02d0 0B       		.uleb128 0xb
 2907 02d1 00       		.byte	0
ARM GAS  /var/folders/3j/4xdnk5197cv_b7cw3n33qk7r0000gn/T//ccdeHuBY.s 			page 52


 2908 02d2 00       		.byte	0
 2909 02d3 00       		.byte	0
 2910              		.section	.debug_loc,"",%progbits
 2911              	.Ldebug_loc0:
 2912              	.LLST29:
 2913 0000 20000000 		.4byte	.LVL73
 2914 0004 30000000 		.4byte	.LVL75
 2915 0008 0200     		.2byte	0x2
 2916 000a 74       		.byte	0x74
 2917 000b 3C       		.sleb128 60
 2918 000c 00000000 		.4byte	0
 2919 0010 00000000 		.4byte	0
 2920              	.LLST30:
 2921 0014 20000000 		.4byte	.LVL73
 2922 0018 38000000 		.4byte	.LVL76
 2923 001c 0100     		.2byte	0x1
 2924 001e 53       		.byte	0x53
 2925 001f 00000000 		.4byte	0
 2926 0023 00000000 		.4byte	0
 2927              	.LLST31:
 2928 0027 24000000 		.4byte	.LVL74
 2929 002b 50000000 		.4byte	.LVL77
 2930 002f 0100     		.2byte	0x1
 2931 0031 52       		.byte	0x52
 2932 0032 00000000 		.4byte	0
 2933 0036 00000000 		.4byte	0
 2934              	.LLST24:
 2935 003a 0C000000 		.4byte	.LVL60
 2936 003e 68000000 		.4byte	.LVL67
 2937 0042 0100     		.2byte	0x1
 2938 0044 50       		.byte	0x50
 2939 0045 84000000 		.4byte	.LVL70
 2940 0049 8C000000 		.4byte	.LVL71
 2941 004d 0100     		.2byte	0x1
 2942 004f 50       		.byte	0x50
 2943 0050 00000000 		.4byte	0
 2944 0054 00000000 		.4byte	0
 2945              	.LLST25:
 2946 0058 2C000000 		.4byte	.LVL62
 2947 005c 5C000000 		.4byte	.LVL65
 2948 0060 0100     		.2byte	0x1
 2949 0062 53       		.byte	0x53
 2950 0063 00000000 		.4byte	0
 2951 0067 00000000 		.4byte	0
 2952              	.LLST26:
 2953 006b 2C000000 		.4byte	.LVL62
 2954 006f 7B000000 		.4byte	.LVL69-1
 2955 0073 0100     		.2byte	0x1
 2956 0075 51       		.byte	0x51
 2957 0076 00000000 		.4byte	0
 2958 007a 00000000 		.4byte	0
 2959              	.LLST27:
 2960 007e 60000000 		.4byte	.LVL66
 2961 0082 6C000000 		.4byte	.LVL68
 2962 0086 0100     		.2byte	0x1
 2963 0088 54       		.byte	0x54
 2964 0089 00000000 		.4byte	0
ARM GAS  /var/folders/3j/4xdnk5197cv_b7cw3n33qk7r0000gn/T//ccdeHuBY.s 			page 53


 2965 008d 00000000 		.4byte	0
 2966              	.LLST28:
 2967 0091 60000000 		.4byte	.LVL66
 2968 0095 6C000000 		.4byte	.LVL68
 2969 0099 0100     		.2byte	0x1
 2970 009b 5C       		.byte	0x5c
 2971 009c 00000000 		.4byte	0
 2972 00a0 00000000 		.4byte	0
 2973              	.LLST19:
 2974 00a4 0C000000 		.4byte	.LVL48
 2975 00a8 6C000000 		.4byte	.LVL55
 2976 00ac 0100     		.2byte	0x1
 2977 00ae 50       		.byte	0x50
 2978 00af 90000000 		.4byte	.LVL59
 2979 00b3 A0000000 		.4byte	.LFE12
 2980 00b7 0100     		.2byte	0x1
 2981 00b9 50       		.byte	0x50
 2982 00ba 00000000 		.4byte	0
 2983 00be 00000000 		.4byte	0
 2984              	.LLST20:
 2985 00c2 30000000 		.4byte	.LVL50
 2986 00c6 60000000 		.4byte	.LVL53
 2987 00ca 0100     		.2byte	0x1
 2988 00cc 53       		.byte	0x53
 2989 00cd 00000000 		.4byte	0
 2990 00d1 00000000 		.4byte	0
 2991              	.LLST21:
 2992 00d5 30000000 		.4byte	.LVL50
 2993 00d9 74000000 		.4byte	.LVL57
 2994 00dd 0100     		.2byte	0x1
 2995 00df 51       		.byte	0x51
 2996 00e0 00000000 		.4byte	0
 2997 00e4 00000000 		.4byte	0
 2998              	.LLST22:
 2999 00e8 64000000 		.4byte	.LVL54
 3000 00ec 70000000 		.4byte	.LVL56
 3001 00f0 0100     		.2byte	0x1
 3002 00f2 54       		.byte	0x54
 3003 00f3 00000000 		.4byte	0
 3004 00f7 00000000 		.4byte	0
 3005              	.LLST23:
 3006 00fb 64000000 		.4byte	.LVL54
 3007 00ff 70000000 		.4byte	.LVL56
 3008 0103 0100     		.2byte	0x1
 3009 0105 5C       		.byte	0x5c
 3010 0106 00000000 		.4byte	0
 3011 010a 00000000 		.4byte	0
 3012              	.LLST14:
 3013 010e 00000000 		.4byte	.LVL39
 3014 0112 18000000 		.4byte	.LVL42
 3015 0116 0100     		.2byte	0x1
 3016 0118 50       		.byte	0x50
 3017 0119 18000000 		.4byte	.LVL42
 3018 011d 3C000000 		.4byte	.LFE10
 3019 0121 0100     		.2byte	0x1
 3020 0123 53       		.byte	0x53
 3021 0124 00000000 		.4byte	0
ARM GAS  /var/folders/3j/4xdnk5197cv_b7cw3n33qk7r0000gn/T//ccdeHuBY.s 			page 54


 3022 0128 00000000 		.4byte	0
 3023              	.LLST15:
 3024 012c 08000000 		.4byte	.LVL40
 3025 0130 18000000 		.4byte	.LVL42
 3026 0134 0100     		.2byte	0x1
 3027 0136 50       		.byte	0x50
 3028 0137 18000000 		.4byte	.LVL42
 3029 013b 30000000 		.4byte	.LVL43
 3030 013f 0100     		.2byte	0x1
 3031 0141 53       		.byte	0x53
 3032 0142 00000000 		.4byte	0
 3033 0146 00000000 		.4byte	0
 3034              	.LLST16:
 3035 014a 10000000 		.4byte	.LVL41
 3036 014e 18000000 		.4byte	.LVL42
 3037 0152 0100     		.2byte	0x1
 3038 0154 50       		.byte	0x50
 3039 0155 18000000 		.4byte	.LVL42
 3040 0159 30000000 		.4byte	.LVL43
 3041 015d 0100     		.2byte	0x1
 3042 015f 53       		.byte	0x53
 3043 0160 00000000 		.4byte	0
 3044 0164 00000000 		.4byte	0
 3045              	.LLST0:
 3046 0168 00000000 		.4byte	.LVL1
 3047 016c 2C000000 		.4byte	.LVL4
 3048 0170 0100     		.2byte	0x1
 3049 0172 50       		.byte	0x50
 3050 0173 2C000000 		.4byte	.LVL4
 3051 0177 58000000 		.4byte	.LVL7
 3052 017b 0100     		.2byte	0x1
 3053 017d 55       		.byte	0x55
 3054 017e 58000000 		.4byte	.LVL7
 3055 0182 74000000 		.4byte	.LVL9
 3056 0186 0100     		.2byte	0x1
 3057 0188 50       		.byte	0x50
 3058 0189 74000000 		.4byte	.LVL9
 3059 018d 94000000 		.4byte	.LVL12
 3060 0191 0100     		.2byte	0x1
 3061 0193 55       		.byte	0x55
 3062 0194 94000000 		.4byte	.LVL12
 3063 0198 97000000 		.4byte	.LVL13-1
 3064 019c 0500     		.2byte	0x5
 3065 019e 73       		.byte	0x73
 3066 019f 00       		.sleb128 0
 3067 01a0 06       		.byte	0x6
 3068 01a1 23       		.byte	0x23
 3069 01a2 24       		.uleb128 0x24
 3070 01a3 97000000 		.4byte	.LVL13-1
 3071 01a7 98000000 		.4byte	.LVL13
 3072 01ab 0400     		.2byte	0x4
 3073 01ad F3       		.byte	0xf3
 3074 01ae 01       		.uleb128 0x1
 3075 01af 50       		.byte	0x50
 3076 01b0 9F       		.byte	0x9f
 3077 01b1 98000000 		.4byte	.LVL13
 3078 01b5 08010000 		.4byte	.LVL24
ARM GAS  /var/folders/3j/4xdnk5197cv_b7cw3n33qk7r0000gn/T//ccdeHuBY.s 			page 55


 3079 01b9 0100     		.2byte	0x1
 3080 01bb 55       		.byte	0x55
 3081 01bc 08010000 		.4byte	.LVL24
 3082 01c0 0C010000 		.4byte	.LVL25
 3083 01c4 0100     		.2byte	0x1
 3084 01c6 50       		.byte	0x50
 3085 01c7 0C010000 		.4byte	.LVL25
 3086 01cb 10010000 		.4byte	.LVL26
 3087 01cf 0100     		.2byte	0x1
 3088 01d1 55       		.byte	0x55
 3089 01d2 10010000 		.4byte	.LVL26
 3090 01d6 24010000 		.4byte	.LVL27
 3091 01da 0100     		.2byte	0x1
 3092 01dc 50       		.byte	0x50
 3093 01dd 24010000 		.4byte	.LVL27
 3094 01e1 9C010000 		.4byte	.LFE9
 3095 01e5 0100     		.2byte	0x1
 3096 01e7 55       		.byte	0x55
 3097 01e8 00000000 		.4byte	0
 3098 01ec 00000000 		.4byte	0
 3099              	.LLST1:
 3100 01f0 14000000 		.4byte	.LVL2
 3101 01f4 94000000 		.4byte	.LVL12
 3102 01f8 0100     		.2byte	0x1
 3103 01fa 54       		.byte	0x54
 3104 01fb 94000000 		.4byte	.LVL12
 3105 01ff 97000000 		.4byte	.LVL13-1
 3106 0203 0200     		.2byte	0x2
 3107 0205 73       		.byte	0x73
 3108 0206 00       		.sleb128 0
 3109 0207 98000000 		.4byte	.LVL13
 3110 020b 9C010000 		.4byte	.LFE9
 3111 020f 0100     		.2byte	0x1
 3112 0211 54       		.byte	0x54
 3113 0212 00000000 		.4byte	0
 3114 0216 00000000 		.4byte	0
 3115              	.LLST2:
 3116 021a 24000000 		.4byte	.LVL3
 3117 021e 4C000000 		.4byte	.LVL5
 3118 0222 0100     		.2byte	0x1
 3119 0224 53       		.byte	0x53
 3120 0225 98000000 		.4byte	.LVL13
 3121 0229 FC000000 		.4byte	.LVL21
 3122 022d 0100     		.2byte	0x1
 3123 022f 53       		.byte	0x53
 3124 0230 FC000000 		.4byte	.LVL21
 3125 0234 03010000 		.4byte	.LVL23-1
 3126 0238 0100     		.2byte	0x1
 3127 023a 50       		.byte	0x50
 3128 023b 24010000 		.4byte	.LVL27
 3129 023f 9C010000 		.4byte	.LFE9
 3130 0243 0100     		.2byte	0x1
 3131 0245 53       		.byte	0x53
 3132 0246 00000000 		.4byte	0
 3133 024a 00000000 		.4byte	0
 3134              	.LLST3:
 3135 024e 50000000 		.4byte	.LVL6
ARM GAS  /var/folders/3j/4xdnk5197cv_b7cw3n33qk7r0000gn/T//ccdeHuBY.s 			page 56


 3136 0252 74000000 		.4byte	.LVL9
 3137 0256 0100     		.2byte	0x1
 3138 0258 50       		.byte	0x50
 3139 0259 74000000 		.4byte	.LVL9
 3140 025d 8C000000 		.4byte	.LVL11
 3141 0261 0100     		.2byte	0x1
 3142 0263 55       		.byte	0x55
 3143 0264 08010000 		.4byte	.LVL24
 3144 0268 0C010000 		.4byte	.LVL25
 3145 026c 0100     		.2byte	0x1
 3146 026e 50       		.byte	0x50
 3147 026f 0C010000 		.4byte	.LVL25
 3148 0273 10010000 		.4byte	.LVL26
 3149 0277 0100     		.2byte	0x1
 3150 0279 55       		.byte	0x55
 3151 027a 00000000 		.4byte	0
 3152 027e 00000000 		.4byte	0
 3153              	.LLST4:
 3154 0282 50000000 		.4byte	.LVL6
 3155 0286 8C000000 		.4byte	.LVL11
 3156 028a 0100     		.2byte	0x1
 3157 028c 54       		.byte	0x54
 3158 028d 08010000 		.4byte	.LVL24
 3159 0291 10010000 		.4byte	.LVL26
 3160 0295 0100     		.2byte	0x1
 3161 0297 54       		.byte	0x54
 3162 0298 00000000 		.4byte	0
 3163 029c 00000000 		.4byte	0
 3164              	.LLST5:
 3165 02a0 50000000 		.4byte	.LVL6
 3166 02a4 58000000 		.4byte	.LVL7
 3167 02a8 0100     		.2byte	0x1
 3168 02aa 50       		.byte	0x50
 3169 02ab 58000000 		.4byte	.LVL7
 3170 02af 78000000 		.4byte	.LVL10
 3171 02b3 0100     		.2byte	0x1
 3172 02b5 53       		.byte	0x53
 3173 02b6 08010000 		.4byte	.LVL24
 3174 02ba 10010000 		.4byte	.LVL26
 3175 02be 0100     		.2byte	0x1
 3176 02c0 53       		.byte	0x53
 3177 02c1 00000000 		.4byte	0
 3178 02c5 00000000 		.4byte	0
 3179              	.LLST6:
 3180 02c9 98000000 		.4byte	.LVL13
 3181 02cd B4000000 		.4byte	.LVL14
 3182 02d1 0100     		.2byte	0x1
 3183 02d3 53       		.byte	0x53
 3184 02d4 00000000 		.4byte	0
 3185 02d8 00000000 		.4byte	0
 3186              	.LLST7:
 3187 02dc B4000000 		.4byte	.LVL14
 3188 02e0 B8000000 		.4byte	.LVL15
 3189 02e4 0100     		.2byte	0x1
 3190 02e6 52       		.byte	0x52
 3191 02e7 B8000000 		.4byte	.LVL15
 3192 02eb D0000000 		.4byte	.LVL18
ARM GAS  /var/folders/3j/4xdnk5197cv_b7cw3n33qk7r0000gn/T//ccdeHuBY.s 			page 57


 3193 02ef 0100     		.2byte	0x1
 3194 02f1 5C       		.byte	0x5c
 3195 02f2 D0000000 		.4byte	.LVL18
 3196 02f6 EC000000 		.4byte	.LVL20
 3197 02fa 0200     		.2byte	0x2
 3198 02fc 73       		.byte	0x73
 3199 02fd 24       		.sleb128 36
 3200 02fe 90010000 		.4byte	.LVL35
 3201 0302 94010000 		.4byte	.LVL36
 3202 0306 0100     		.2byte	0x1
 3203 0308 5C       		.byte	0x5c
 3204 0309 94010000 		.4byte	.LVL36
 3205 030d 9C010000 		.4byte	.LFE9
 3206 0311 0200     		.2byte	0x2
 3207 0313 73       		.byte	0x73
 3208 0314 24       		.sleb128 36
 3209 0315 00000000 		.4byte	0
 3210 0319 00000000 		.4byte	0
 3211              	.LLST8:
 3212 031d B8000000 		.4byte	.LVL15
 3213 0321 D4000000 		.4byte	.LVL19
 3214 0325 0100     		.2byte	0x1
 3215 0327 52       		.byte	0x52
 3216 0328 90010000 		.4byte	.LVL35
 3217 032c 9C010000 		.4byte	.LFE9
 3218 0330 0100     		.2byte	0x1
 3219 0332 52       		.byte	0x52
 3220 0333 00000000 		.4byte	0
 3221 0337 00000000 		.4byte	0
 3222              	.LLST9:
 3223 033b EC000000 		.4byte	.LVL20
 3224 033f FC000000 		.4byte	.LVL21
 3225 0343 0100     		.2byte	0x1
 3226 0345 53       		.byte	0x53
 3227 0346 FC000000 		.4byte	.LVL21
 3228 034a 00010000 		.4byte	.LVL22
 3229 034e 0100     		.2byte	0x1
 3230 0350 50       		.byte	0x50
 3231 0351 00000000 		.4byte	0
 3232 0355 00000000 		.4byte	0
 3233              	.LLST10:
 3234 0359 24010000 		.4byte	.LVL27
 3235 035d 40010000 		.4byte	.LVL28
 3236 0361 0100     		.2byte	0x1
 3237 0363 53       		.byte	0x53
 3238 0364 00000000 		.4byte	0
 3239 0368 00000000 		.4byte	0
 3240              	.LLST11:
 3241 036c 40010000 		.4byte	.LVL28
 3242 0370 44010000 		.4byte	.LVL29
 3243 0374 0100     		.2byte	0x1
 3244 0376 52       		.byte	0x52
 3245 0377 44010000 		.4byte	.LVL29
 3246 037b 7C010000 		.4byte	.LVL33
 3247 037f 0100     		.2byte	0x1
 3248 0381 5C       		.byte	0x5c
 3249 0382 00000000 		.4byte	0
ARM GAS  /var/folders/3j/4xdnk5197cv_b7cw3n33qk7r0000gn/T//ccdeHuBY.s 			page 58


 3250 0386 00000000 		.4byte	0
 3251              	.LLST12:
 3252 038a 44010000 		.4byte	.LVL29
 3253 038e 60010000 		.4byte	.LVL32
 3254 0392 0100     		.2byte	0x1
 3255 0394 52       		.byte	0x52
 3256 0395 00000000 		.4byte	0
 3257 0399 00000000 		.4byte	0
 3258              	.LLST13:
 3259 039d 00000000 		.4byte	.LVL37
 3260 03a1 0B000000 		.4byte	.LVL38-1
 3261 03a5 0100     		.2byte	0x1
 3262 03a7 50       		.byte	0x50
 3263 03a8 0B000000 		.4byte	.LVL38-1
 3264 03ac 14000000 		.4byte	.LFE8
 3265 03b0 0400     		.2byte	0x4
 3266 03b2 F3       		.byte	0xf3
 3267 03b3 01       		.uleb128 0x1
 3268 03b4 50       		.byte	0x50
 3269 03b5 9F       		.byte	0x9f
 3270 03b6 00000000 		.4byte	0
 3271 03ba 00000000 		.4byte	0
 3272              	.LLST17:
 3273 03be 00000000 		.4byte	.LVL44
 3274 03c2 14000000 		.4byte	.LVL46
 3275 03c6 0100     		.2byte	0x1
 3276 03c8 50       		.byte	0x50
 3277 03c9 14000000 		.4byte	.LVL46
 3278 03cd 34000000 		.4byte	.LFE11
 3279 03d1 0100     		.2byte	0x1
 3280 03d3 53       		.byte	0x53
 3281 03d4 00000000 		.4byte	0
 3282 03d8 00000000 		.4byte	0
 3283              	.LLST18:
 3284 03dc 0C000000 		.4byte	.LVL45
 3285 03e0 14000000 		.4byte	.LVL46
 3286 03e4 0100     		.2byte	0x1
 3287 03e6 50       		.byte	0x50
 3288 03e7 14000000 		.4byte	.LVL46
 3289 03eb 2C000000 		.4byte	.LVL47
 3290 03ef 0100     		.2byte	0x1
 3291 03f1 53       		.byte	0x53
 3292 03f2 00000000 		.4byte	0
 3293 03f6 00000000 		.4byte	0
 3294              		.section	.debug_aranges,"",%progbits
 3295 0000 54000000 		.4byte	0x54
 3296 0004 0200     		.2byte	0x2
 3297 0006 00000000 		.4byte	.Ldebug_info0
 3298 000a 04       		.byte	0x4
 3299 000b 00       		.byte	0
 3300 000c 0000     		.2byte	0
 3301 000e 0000     		.2byte	0
 3302 0010 00000000 		.4byte	.LFB7
 3303 0014 14000000 		.4byte	.LFE7-.LFB7
 3304 0018 00000000 		.4byte	.LFB9
 3305 001c 9C010000 		.4byte	.LFE9-.LFB9
 3306 0020 00000000 		.4byte	.LFB8
ARM GAS  /var/folders/3j/4xdnk5197cv_b7cw3n33qk7r0000gn/T//ccdeHuBY.s 			page 59


 3307 0024 14000000 		.4byte	.LFE8-.LFB8
 3308 0028 00000000 		.4byte	.LFB10
 3309 002c 3C000000 		.4byte	.LFE10-.LFB10
 3310 0030 00000000 		.4byte	.LFB11
 3311 0034 34000000 		.4byte	.LFE11-.LFB11
 3312 0038 00000000 		.4byte	.LFB12
 3313 003c A0000000 		.4byte	.LFE12-.LFB12
 3314 0040 00000000 		.4byte	.LFB13
 3315 0044 98000000 		.4byte	.LFE13-.LFB13
 3316 0048 00000000 		.4byte	.LFB14
 3317 004c 84000000 		.4byte	.LFE14-.LFB14
 3318 0050 00000000 		.4byte	0
 3319 0054 00000000 		.4byte	0
 3320              		.section	.debug_ranges,"",%progbits
 3321              	.Ldebug_ranges0:
 3322 0000 18000000 		.4byte	.LBB27
 3323 0004 90000000 		.4byte	.LBE27
 3324 0008 94000000 		.4byte	.LBB58
 3325 000c 10010000 		.4byte	.LBE58
 3326 0010 24010000 		.4byte	.LBB59
 3327 0014 9C010000 		.4byte	.LBE59
 3328 0018 00000000 		.4byte	0
 3329 001c 00000000 		.4byte	0
 3330 0020 58000000 		.4byte	.LBB28
 3331 0024 84000000 		.4byte	.LBE28
 3332 0028 88000000 		.4byte	.LBB32
 3333 002c 8C000000 		.4byte	.LBE32
 3334 0030 08010000 		.4byte	.LBB46
 3335 0034 10010000 		.4byte	.LBE46
 3336 0038 00000000 		.4byte	0
 3337 003c 00000000 		.4byte	0
 3338 0040 98000000 		.4byte	.LBB33
 3339 0044 A0000000 		.4byte	.LBE33
 3340 0048 A4000000 		.4byte	.LBB37
 3341 004c AC000000 		.4byte	.LBE37
 3342 0050 B0000000 		.4byte	.LBB38
 3343 0054 B8000000 		.4byte	.LBE38
 3344 0058 00000000 		.4byte	0
 3345 005c 00000000 		.4byte	0
 3346 0060 B8000000 		.4byte	.LBB39
 3347 0064 EC000000 		.4byte	.LBE39
 3348 0068 90010000 		.4byte	.LBB57
 3349 006c 9C010000 		.4byte	.LBE57
 3350 0070 00000000 		.4byte	0
 3351 0074 00000000 		.4byte	0
 3352 0078 EC000000 		.4byte	.LBB42
 3353 007c F4000000 		.4byte	.LBE42
 3354 0080 F8000000 		.4byte	.LBB45
 3355 0084 00010000 		.4byte	.LBE45
 3356 0088 00000000 		.4byte	0
 3357 008c 00000000 		.4byte	0
 3358 0090 24010000 		.4byte	.LBB47
 3359 0094 2C010000 		.4byte	.LBE47
 3360 0098 30010000 		.4byte	.LBB51
 3361 009c 38010000 		.4byte	.LBE51
 3362 00a0 3C010000 		.4byte	.LBB52
 3363 00a4 44010000 		.4byte	.LBE52
ARM GAS  /var/folders/3j/4xdnk5197cv_b7cw3n33qk7r0000gn/T//ccdeHuBY.s 			page 60


 3364 00a8 00000000 		.4byte	0
 3365 00ac 00000000 		.4byte	0
 3366 00b0 44010000 		.4byte	.LBB53
 3367 00b4 74010000 		.4byte	.LBE53
 3368 00b8 78010000 		.4byte	.LBB56
 3369 00bc 7C010000 		.4byte	.LBE56
 3370 00c0 00000000 		.4byte	0
 3371 00c4 00000000 		.4byte	0
 3372 00c8 10000000 		.4byte	.LBB66
 3373 00cc 1C000000 		.4byte	.LBE66
 3374 00d0 20000000 		.4byte	.LBB69
 3375 00d4 30000000 		.4byte	.LBE69
 3376 00d8 00000000 		.4byte	0
 3377 00dc 00000000 		.4byte	0
 3378 00e0 0C000000 		.4byte	.LBB72
 3379 00e4 18000000 		.4byte	.LBE72
 3380 00e8 1C000000 		.4byte	.LBB75
 3381 00ec 2C000000 		.4byte	.LBE75
 3382 00f0 00000000 		.4byte	0
 3383 00f4 00000000 		.4byte	0
 3384 00f8 5C000000 		.4byte	.LBB77
 3385 00fc 60000000 		.4byte	.LBE77
 3386 0100 64000000 		.4byte	.LBB81
 3387 0104 68000000 		.4byte	.LBE81
 3388 0108 6C000000 		.4byte	.LBB82
 3389 010c 70000000 		.4byte	.LBE82
 3390 0110 00000000 		.4byte	0
 3391 0114 00000000 		.4byte	0
 3392 0118 58000000 		.4byte	.LBB84
 3393 011c 5C000000 		.4byte	.LBE84
 3394 0120 60000000 		.4byte	.LBB88
 3395 0124 64000000 		.4byte	.LBE88
 3396 0128 68000000 		.4byte	.LBB89
 3397 012c 6C000000 		.4byte	.LBE89
 3398 0130 00000000 		.4byte	0
 3399 0134 00000000 		.4byte	0
 3400 0138 40000000 		.4byte	.LBB92
 3401 013c 44000000 		.4byte	.LBE92
 3402 0140 48000000 		.4byte	.LBB95
 3403 0144 50000000 		.4byte	.LBE95
 3404 0148 00000000 		.4byte	0
 3405 014c 00000000 		.4byte	0
 3406 0150 00000000 		.4byte	.LFB7
 3407 0154 14000000 		.4byte	.LFE7
 3408 0158 00000000 		.4byte	.LFB9
 3409 015c 9C010000 		.4byte	.LFE9
 3410 0160 00000000 		.4byte	.LFB8
 3411 0164 14000000 		.4byte	.LFE8
 3412 0168 00000000 		.4byte	.LFB10
 3413 016c 3C000000 		.4byte	.LFE10
 3414 0170 00000000 		.4byte	.LFB11
 3415 0174 34000000 		.4byte	.LFE11
 3416 0178 00000000 		.4byte	.LFB12
 3417 017c A0000000 		.4byte	.LFE12
 3418 0180 00000000 		.4byte	.LFB13
 3419 0184 98000000 		.4byte	.LFE13
 3420 0188 00000000 		.4byte	.LFB14
ARM GAS  /var/folders/3j/4xdnk5197cv_b7cw3n33qk7r0000gn/T//ccdeHuBY.s 			page 61


 3421 018c 84000000 		.4byte	.LFE14
 3422 0190 00000000 		.4byte	0
 3423 0194 00000000 		.4byte	0
 3424              		.section	.debug_line,"",%progbits
 3425              	.Ldebug_line0:
 3426 0000 B1030000 		.section	.debug_str,"MS",%progbits,1
 3426      02008A01 
 3426      00000201 
 3426      FB0E0D00 
 3426      01010101 
 3427              	.LASF115:
 3428 0000 2F557365 		.ascii	"/Users/kevinmalmsten/development_raspberry_pi/Backu"
 3428      72732F6B 
 3428      6576696E 
 3428      6D616C6D 
 3428      7374656E 
 3429 0033 7053656E 		.ascii	"pSensor_ChibiOS/__Backup_System\000"
 3429      736F725F 
 3429      43686962 
 3429      694F532F 
 3429      5F5F4261 
 3430              	.LASF88:
 3431 0053 63665F6F 		.ascii	"cf_off_older\000"
 3431      66665F6F 
 3431      6C646572 
 3431      00
 3432              	.LASF41:
 3433 0060 705F6D73 		.ascii	"p_msg\000"
 3433      6700
 3434              	.LASF73:
 3435 0066 7264796D 		.ascii	"rdymsg\000"
 3435      736700
 3436              	.LASF4:
 3437 006d 5F5F7569 		.ascii	"__uint8_t\000"
 3437      6E74385F 
 3437      7400
 3438              	.LASF67:
 3439 0077 76746C69 		.ascii	"vtlist\000"
 3439      737400
 3440              	.LASF12:
 3441 007e 6C6F6E67 		.ascii	"long long unsigned int\000"
 3441      206C6F6E 
 3441      6720756E 
 3441      7369676E 
 3441      65642069 
 3442              	.LASF84:
 3443 0095 63685F74 		.ascii	"ch_threadsize\000"
 3443      68726561 
 3443      6473697A 
 3443      6500
 3444              	.LASF74:
 3445 00a3 65786974 		.ascii	"exitcode\000"
 3445      636F6465 
 3445      00
 3446              	.LASF101:
 3447 00ac 63684D74 		.ascii	"chMtxUnlock\000"
 3447      78556E6C 
ARM GAS  /var/folders/3j/4xdnk5197cv_b7cw3n33qk7r0000gn/T//ccdeHuBY.s 			page 62


 3447      6F636B00 
 3448              	.LASF29:
 3449 00b8 705F7072 		.ascii	"p_prio\000"
 3449      696F00
 3450              	.LASF91:
 3451 00bf 63665F6F 		.ascii	"cf_off_state\000"
 3451      66665F73 
 3451      74617465 
 3451      00
 3452              	.LASF11:
 3453 00cc 6C6F6E67 		.ascii	"long long int\000"
 3453      206C6F6E 
 3453      6720696E 
 3453      7400
 3454              	.LASF1:
 3455 00da 7369676E 		.ascii	"signed char\000"
 3455      65642063 
 3455      68617200 
 3456              	.LASF90:
 3457 00e6 63665F6F 		.ascii	"cf_off_stklimit\000"
 3457      66665F73 
 3457      746B6C69 
 3457      6D697400 
 3458              	.LASF92:
 3459 00f6 63665F6F 		.ascii	"cf_off_flags\000"
 3459      66665F66 
 3459      6C616773 
 3459      00
 3460              	.LASF17:
 3461 0103 626F6F6C 		.ascii	"bool_t\000"
 3461      5F7400
 3462              	.LASF70:
 3463 010a 6D5F7175 		.ascii	"m_queue\000"
 3463      65756500 
 3464              	.LASF75:
 3465 0112 77746F62 		.ascii	"wtobjp\000"
 3465      6A7000
 3466              	.LASF113:
 3467 0119 474E5520 		.ascii	"GNU C11 7.3.1 20180622 (release) [ARM/embedded-7-br"
 3467      43313120 
 3467      372E332E 
 3467      31203230 
 3467      31383036 
 3468 014c 616E6368 		.ascii	"anch revision 261907] -mcpu=arm1176jz-s -mno-thumb-"
 3468      20726576 
 3468      6973696F 
 3468      6E203236 
 3468      31393037 
 3469 017f 696E7465 		.ascii	"interwork -ggdb -O2 -fomit-frame-pointer -ffunction"
 3469      72776F72 
 3469      6B202D67 
 3469      67646220 
 3469      2D4F3220 
 3470 01b2 2D736563 		.ascii	"-sections -fdata-sections\000"
 3470      74696F6E 
 3470      73202D66 
 3470      64617461 
ARM GAS  /var/folders/3j/4xdnk5197cv_b7cw3n33qk7r0000gn/T//ccdeHuBY.s 			page 63


 3470      2D736563 
 3471              	.LASF8:
 3472 01cc 6C6F6E67 		.ascii	"long int\000"
 3472      20696E74 
 3472      00
 3473              	.LASF19:
 3474 01d5 74737461 		.ascii	"tstate_t\000"
 3474      74655F74 
 3474      00
 3475              	.LASF104:
 3476 01de 63684D74 		.ascii	"chMtxLockS\000"
 3476      784C6F63 
 3476      6B5300
 3477              	.LASF14:
 3478 01e9 75696E74 		.ascii	"uint16_t\000"
 3478      31365F74 
 3478      00
 3479              	.LASF96:
 3480 01f2 63686465 		.ascii	"chdebug_t\000"
 3480      6275675F 
 3480      7400
 3481              	.LASF116:
 3482 01fc 63684D74 		.ascii	"chMtxTryLockS\000"
 3482      78547279 
 3482      4C6F636B 
 3482      5300
 3483              	.LASF31:
 3484 020a 705F6E65 		.ascii	"p_newer\000"
 3484      77657200 
 3485              	.LASF98:
 3486 0212 5F69646C 		.ascii	"_idle_thread_wa\000"
 3486      655F7468 
 3486      72656164 
 3486      5F776100 
 3487              	.LASF110:
 3488 0222 63685363 		.ascii	"chSchRescheduleS\000"
 3488      68526573 
 3488      63686564 
 3488      756C6553 
 3488      00
 3489              	.LASF9:
 3490 0233 5F5F7569 		.ascii	"__uint32_t\000"
 3490      6E743332 
 3490      5F7400
 3491              	.LASF48:
 3492 023e 72656761 		.ascii	"regarm_t\000"
 3492      726D5F74 
 3492      00
 3493              	.LASF54:
 3494 0247 76745F70 		.ascii	"vt_prev\000"
 3494      72657600 
 3495              	.LASF100:
 3496 024f 63684D74 		.ascii	"chMtxUnlockS\000"
 3496      78556E6C 
 3496      6F636B53 
 3496      00
 3497              	.LASF0:
ARM GAS  /var/folders/3j/4xdnk5197cv_b7cw3n33qk7r0000gn/T//ccdeHuBY.s 			page 64


 3498 025c 756E7369 		.ascii	"unsigned int\000"
 3498      676E6564 
 3498      20696E74 
 3498      00
 3499              	.LASF53:
 3500 0269 76745F6E 		.ascii	"vt_next\000"
 3500      65787400 
 3501              	.LASF10:
 3502 0271 6C6F6E67 		.ascii	"long unsigned int\000"
 3502      20756E73 
 3502      69676E65 
 3502      6420696E 
 3502      7400
 3503              	.LASF97:
 3504 0283 63685F64 		.ascii	"ch_debug\000"
 3504      65627567 
 3504      00
 3505              	.LASF51:
 3506 028c 76746675 		.ascii	"vtfunc_t\000"
 3506      6E635F74 
 3506      00
 3507              	.LASF78:
 3508 0295 63685F69 		.ascii	"ch_identifier\000"
 3508      64656E74 
 3508      69666965 
 3508      7200
 3509              	.LASF50:
 3510 02a3 636F6E74 		.ascii	"context\000"
 3510      65787400 
 3511              	.LASF6:
 3512 02ab 73686F72 		.ascii	"short unsigned int\000"
 3512      7420756E 
 3512      7369676E 
 3512      65642069 
 3512      6E7400
 3513              	.LASF111:
 3514 02be 63685363 		.ascii	"chSchWakeupS\000"
 3514      6857616B 
 3514      65757053 
 3514      00
 3515              	.LASF23:
 3516 02cb 6D73675F 		.ascii	"msg_t\000"
 3516      7400
 3517              	.LASF63:
 3518 02d1 725F6E65 		.ascii	"r_newer\000"
 3518      77657200 
 3519              	.LASF103:
 3520 02d9 63684D74 		.ascii	"chMtxUnlockAll\000"
 3520      78556E6C 
 3520      6F636B41 
 3520      6C6C00
 3521              	.LASF99:
 3522 02e8 6E657770 		.ascii	"newprio\000"
 3522      72696F00 
 3523              	.LASF18:
 3524 02f0 746D6F64 		.ascii	"tmode_t\000"
 3524      655F7400 
ARM GAS  /var/folders/3j/4xdnk5197cv_b7cw3n33qk7r0000gn/T//ccdeHuBY.s 			page 65


 3525              	.LASF46:
 3526 02f8 54687265 		.ascii	"ThreadsList\000"
 3526      6164734C 
 3526      69737400 
 3527              	.LASF24:
 3528 0304 6576656E 		.ascii	"eventmask_t\000"
 3528      746D6173 
 3528      6B5F7400 
 3529              	.LASF102:
 3530 0310 63684D74 		.ascii	"chMtxTryLock\000"
 3530      78547279 
 3530      4C6F636B 
 3530      00
 3531              	.LASF69:
 3532 031d 4D757465 		.ascii	"Mutex\000"
 3532      7800
 3533              	.LASF47:
 3534 0323 73746B61 		.ascii	"stkalign_t\000"
 3534      6C69676E 
 3534      5F7400
 3535              	.LASF79:
 3536 032e 63685F7A 		.ascii	"ch_zero\000"
 3536      65726F00 
 3537              	.LASF93:
 3538 0336 63665F6F 		.ascii	"cf_off_refs\000"
 3538      66665F72 
 3538      65667300 
 3539              	.LASF55:
 3540 0342 76745F74 		.ascii	"vt_time\000"
 3540      696D6500 
 3541              	.LASF56:
 3542 034a 76745F66 		.ascii	"vt_func\000"
 3542      756E6300 
 3543              	.LASF83:
 3544 0352 63685F74 		.ascii	"ch_timesize\000"
 3544      696D6573 
 3544      697A6500 
 3545              	.LASF89:
 3546 035e 63665F6F 		.ascii	"cf_off_name\000"
 3546      66665F6E 
 3546      616D6500 
 3547              	.LASF105:
 3548 036a 63684D74 		.ascii	"chMtxLock\000"
 3548      784C6F63 
 3548      6B00
 3549              	.LASF32:
 3550 0374 705F6F6C 		.ascii	"p_older\000"
 3550      64657200 
 3551              	.LASF62:
 3552 037c 725F6374 		.ascii	"r_ctx\000"
 3552      7800
 3553              	.LASF45:
 3554 0382 54687265 		.ascii	"ThreadsQueue\000"
 3554      61647351 
 3554      75657565 
 3554      00
 3555              	.LASF80:
ARM GAS  /var/folders/3j/4xdnk5197cv_b7cw3n33qk7r0000gn/T//ccdeHuBY.s 			page 66


 3556 038f 63685F73 		.ascii	"ch_size\000"
 3556      697A6500 
 3557              	.LASF107:
 3558 0397 64657175 		.ascii	"dequeue\000"
 3558      65756500 
 3559              	.LASF65:
 3560 039f 725F6375 		.ascii	"r_current\000"
 3560      7272656E 
 3560      7400
 3561              	.LASF64:
 3562 03a9 725F6F6C 		.ascii	"r_older\000"
 3562      64657200 
 3563              	.LASF20:
 3564 03b1 74726566 		.ascii	"trefs_t\000"
 3564      735F7400 
 3565              	.LASF82:
 3566 03b9 63685F70 		.ascii	"ch_ptrsize\000"
 3566      74727369 
 3566      7A6500
 3567              	.LASF28:
 3568 03c4 705F7072 		.ascii	"p_prev\000"
 3568      657600
 3569              	.LASF22:
 3570 03cb 74707269 		.ascii	"tprio_t\000"
 3570      6F5F7400 
 3571              	.LASF15:
 3572 03d3 696E7433 		.ascii	"int32_t\000"
 3572      325F7400 
 3573              	.LASF2:
 3574 03db 756E7369 		.ascii	"unsigned char\000"
 3574      676E6564 
 3574      20636861 
 3574      7200
 3575              	.LASF43:
 3576 03e9 705F6D74 		.ascii	"p_mtxlist\000"
 3576      786C6973 
 3576      7400
 3577              	.LASF3:
 3578 03f3 73686F72 		.ascii	"short int\000"
 3578      7420696E 
 3578      7400
 3579              	.LASF34:
 3580 03fd 705F7374 		.ascii	"p_state\000"
 3580      61746500 
 3581              	.LASF37:
 3582 0405 705F7072 		.ascii	"p_preempt\000"
 3582      65656D70 
 3582      7400
 3583              	.LASF95:
 3584 040f 63665F6F 		.ascii	"cf_off_time\000"
 3584      66665F74 
 3584      696D6500 
 3585              	.LASF61:
 3586 041b 725F7072 		.ascii	"r_prio\000"
 3586      696F00
 3587              	.LASF76:
 3588 0422 65776D61 		.ascii	"ewmask\000"
ARM GAS  /var/folders/3j/4xdnk5197cv_b7cw3n33qk7r0000gn/T//ccdeHuBY.s 			page 67


 3588      736B00
 3589              	.LASF27:
 3590 0429 705F6E65 		.ascii	"p_next\000"
 3590      787400
 3591              	.LASF94:
 3592 0430 63665F6F 		.ascii	"cf_off_preempt\000"
 3592      66665F70 
 3592      7265656D 
 3592      707400
 3593              	.LASF35:
 3594 043f 705F666C 		.ascii	"p_flags\000"
 3594      61677300 
 3595              	.LASF26:
 3596 0447 54687265 		.ascii	"Thread\000"
 3596      616400
 3597              	.LASF87:
 3598 044e 63665F6F 		.ascii	"cf_off_newer\000"
 3598      66665F6E 
 3598      65776572 
 3598      00
 3599              	.LASF112:
 3600 045b 63685363 		.ascii	"chSchGoSleepS\000"
 3600      68476F53 
 3600      6C656570 
 3600      5300
 3601              	.LASF42:
 3602 0469 705F6570 		.ascii	"p_epending\000"
 3602      656E6469 
 3602      6E6700
 3603              	.LASF16:
 3604 0474 75696E74 		.ascii	"uint32_t\000"
 3604      33325F74 
 3604      00
 3605              	.LASF85:
 3606 047d 63665F6F 		.ascii	"cf_off_prio\000"
 3606      66665F70 
 3606      72696F00 
 3607              	.LASF60:
 3608 0489 725F7175 		.ascii	"r_queue\000"
 3608      65756500 
 3609              	.LASF52:
 3610 0491 56697274 		.ascii	"VirtualTimer\000"
 3610      75616C54 
 3610      696D6572 
 3610      00
 3611              	.LASF21:
 3612 049e 74736C69 		.ascii	"tslices_t\000"
 3612      6365735F 
 3612      7400
 3613              	.LASF77:
 3614 04a8 63686172 		.ascii	"char\000"
 3614      00
 3615              	.LASF108:
 3616 04ad 6669666F 		.ascii	"fifo_remove\000"
 3616      5F72656D 
 3616      6F766500 
 3617              	.LASF5:
ARM GAS  /var/folders/3j/4xdnk5197cv_b7cw3n33qk7r0000gn/T//ccdeHuBY.s 			page 68


 3618 04b9 5F5F7569 		.ascii	"__uint16_t\000"
 3618      6E743136 
 3618      5F7400
 3619              	.LASF109:
 3620 04c4 63685363 		.ascii	"chSchReadyI\000"
 3620      68526561 
 3620      64794900 
 3621              	.LASF72:
 3622 04d0 6D5F6E65 		.ascii	"m_next\000"
 3622      787400
 3623              	.LASF25:
 3624 04d7 73797374 		.ascii	"systime_t\000"
 3624      696D655F 
 3624      7400
 3625              	.LASF44:
 3626 04e1 705F7265 		.ascii	"p_realprio\000"
 3626      616C7072 
 3626      696F00
 3627              	.LASF7:
 3628 04ec 5F5F696E 		.ascii	"__int32_t\000"
 3628      7433325F 
 3628      7400
 3629              	.LASF117:
 3630 04f6 7072696F 		.ascii	"prio_insert\000"
 3630      5F696E73 
 3630      65727400 
 3631              	.LASF114:
 3632 0502 2E2E2F2F 		.ascii	"..//os/kernel/src/chmtx.c\000"
 3632      6F732F6B 
 3632      65726E65 
 3632      6C2F7372 
 3632      632F6368 
 3633              	.LASF49:
 3634 051c 696E7463 		.ascii	"intctx\000"
 3634      747800
 3635              	.LASF40:
 3636 0523 705F6D73 		.ascii	"p_msgqueue\000"
 3636      67717565 
 3636      756500
 3637              	.LASF57:
 3638 052e 76745F70 		.ascii	"vt_par\000"
 3638      617200
 3639              	.LASF106:
 3640 0535 63684D74 		.ascii	"chMtxInit\000"
 3640      78496E69 
 3640      7400
 3641              	.LASF86:
 3642 053f 63665F6F 		.ascii	"cf_off_ctx\000"
 3642      66665F63 
 3642      747800
 3643              	.LASF36:
 3644 054a 705F7265 		.ascii	"p_refs\000"
 3644      667300
 3645              	.LASF66:
 3646 0551 52656164 		.ascii	"ReadyList\000"
 3646      794C6973 
 3646      7400
ARM GAS  /var/folders/3j/4xdnk5197cv_b7cw3n33qk7r0000gn/T//ccdeHuBY.s 			page 69


 3647              	.LASF68:
 3648 055b 726C6973 		.ascii	"rlist\000"
 3648      7400
 3649              	.LASF13:
 3650 0561 75696E74 		.ascii	"uint8_t\000"
 3650      385F7400 
 3651              	.LASF38:
 3652 0569 705F7469 		.ascii	"p_time\000"
 3652      6D6500
 3653              	.LASF33:
 3654 0570 705F6E61 		.ascii	"p_name\000"
 3654      6D6500
 3655              	.LASF58:
 3656 0577 76745F73 		.ascii	"vt_systime\000"
 3656      79737469 
 3656      6D6500
 3657              	.LASF81:
 3658 0582 63685F76 		.ascii	"ch_version\000"
 3658      65727369 
 3658      6F6E00
 3659              	.LASF59:
 3660 058d 56544C69 		.ascii	"VTList\000"
 3660      737400
 3661              	.LASF71:
 3662 0594 6D5F6F77 		.ascii	"m_owner\000"
 3662      6E657200 
 3663              	.LASF30:
 3664 059c 705F6374 		.ascii	"p_ctx\000"
 3664      7800
 3665              	.LASF39:
 3666 05a2 705F7761 		.ascii	"p_waiting\000"
 3666      6974696E 
 3666      6700
 3667              		.ident	"GCC: (GNU Tools for Arm Embedded Processors 7-2018-q2-update) 7.3.1 20180622 (release) [AR
ARM GAS  /var/folders/3j/4xdnk5197cv_b7cw3n33qk7r0000gn/T//ccdeHuBY.s 			page 70


DEFINED SYMBOLS
                            *ABS*:0000000000000000 chmtx.c
/var/folders/3j/4xdnk5197cv_b7cw3n33qk7r0000gn/T//ccdeHuBY.s:16     .text.chMtxInit:0000000000000000 $a
/var/folders/3j/4xdnk5197cv_b7cw3n33qk7r0000gn/T//ccdeHuBY.s:22     .text.chMtxInit:0000000000000000 chMtxInit
/var/folders/3j/4xdnk5197cv_b7cw3n33qk7r0000gn/T//ccdeHuBY.s:44     .text.chMtxLockS:0000000000000000 $a
/var/folders/3j/4xdnk5197cv_b7cw3n33qk7r0000gn/T//ccdeHuBY.s:50     .text.chMtxLockS:0000000000000000 chMtxLockS
/var/folders/3j/4xdnk5197cv_b7cw3n33qk7r0000gn/T//ccdeHuBY.s:353    .text.chMtxLockS:0000000000000198 $d
/var/folders/3j/4xdnk5197cv_b7cw3n33qk7r0000gn/T//ccdeHuBY.s:361    .text.chMtxLock:0000000000000000 $a
/var/folders/3j/4xdnk5197cv_b7cw3n33qk7r0000gn/T//ccdeHuBY.s:367    .text.chMtxLock:0000000000000000 chMtxLock
/var/folders/3j/4xdnk5197cv_b7cw3n33qk7r0000gn/T//ccdeHuBY.s:401    .text.chMtxTryLock:0000000000000000 $a
/var/folders/3j/4xdnk5197cv_b7cw3n33qk7r0000gn/T//ccdeHuBY.s:407    .text.chMtxTryLock:0000000000000000 chMtxTryLock
/var/folders/3j/4xdnk5197cv_b7cw3n33qk7r0000gn/T//ccdeHuBY.s:471    .text.chMtxTryLock:0000000000000038 $d
/var/folders/3j/4xdnk5197cv_b7cw3n33qk7r0000gn/T//ccdeHuBY.s:476    .text.chMtxTryLockS:0000000000000000 $a
/var/folders/3j/4xdnk5197cv_b7cw3n33qk7r0000gn/T//ccdeHuBY.s:482    .text.chMtxTryLockS:0000000000000000 chMtxTryLockS
/var/folders/3j/4xdnk5197cv_b7cw3n33qk7r0000gn/T//ccdeHuBY.s:527    .text.chMtxTryLockS:0000000000000030 $d
/var/folders/3j/4xdnk5197cv_b7cw3n33qk7r0000gn/T//ccdeHuBY.s:532    .text.chMtxUnlock:0000000000000000 $a
/var/folders/3j/4xdnk5197cv_b7cw3n33qk7r0000gn/T//ccdeHuBY.s:538    .text.chMtxUnlock:0000000000000000 chMtxUnlock
/var/folders/3j/4xdnk5197cv_b7cw3n33qk7r0000gn/T//ccdeHuBY.s:660    .text.chMtxUnlock:000000000000009c $d
/var/folders/3j/4xdnk5197cv_b7cw3n33qk7r0000gn/T//ccdeHuBY.s:665    .text.chMtxUnlockS:0000000000000000 $a
/var/folders/3j/4xdnk5197cv_b7cw3n33qk7r0000gn/T//ccdeHuBY.s:671    .text.chMtxUnlockS:0000000000000000 chMtxUnlockS
/var/folders/3j/4xdnk5197cv_b7cw3n33qk7r0000gn/T//ccdeHuBY.s:780    .text.chMtxUnlockS:0000000000000094 $d
/var/folders/3j/4xdnk5197cv_b7cw3n33qk7r0000gn/T//ccdeHuBY.s:785    .text.chMtxUnlockAll:0000000000000000 $a
/var/folders/3j/4xdnk5197cv_b7cw3n33qk7r0000gn/T//ccdeHuBY.s:791    .text.chMtxUnlockAll:0000000000000000 chMtxUnlockAll
/var/folders/3j/4xdnk5197cv_b7cw3n33qk7r0000gn/T//ccdeHuBY.s:895    .text.chMtxUnlockAll:0000000000000080 $d

UNDEFINED SYMBOLS
chSchGoSleepS
chSchReadyI
rlist
chSchWakeupS
chSchRescheduleS
