ARM GAS  /var/folders/3j/4xdnk5197cv_b7cw3n33qk7r0000gn/T//ccdeHuBY.s 			page 1


   1              		.cpu arm1176jz-s
   2              		.eabi_attribute 20, 1
   3              		.eabi_attribute 21, 1
   4              		.eabi_attribute 23, 3
   5              		.eabi_attribute 24, 1
   6              		.eabi_attribute 25, 1
   7              		.eabi_attribute 26, 1
   8              		.eabi_attribute 30, 2
   9              		.eabi_attribute 34, 1
  10              		.eabi_attribute 18, 4
  11              		.file	"chmtx.c"
  12              		.text
  13              	.Ltext0:
  14              		.cfi_sections	.debug_frame
  15              		.section	.text.chMtxInit,"ax",%progbits
  16              		.align	2
  17              		.global	chMtxInit
  18              		.syntax unified
  19              		.arm
  20              		.fpu softvfp
  21              		.type	chMtxInit, %function
  22              	chMtxInit:
  23              	.LFB7:
  24              		.file 1 "..//os/kernel/src/chmtx.c"
  25              		.loc 1 79 0
  26              		.cfi_startproc
  27              		@ args = 0, pretend = 0, frame = 0
  28              		@ frame_needed = 0, uses_anonymous_args = 0
  29              		@ link register save eliminated.
  30              	.LVL0:
  31              		.loc 1 84 0
  32 0000 0030A0E3 		mov	r3, #0
  33              		.loc 1 83 0
  34 0004 040080E5 		str	r0, [r0, #4]
  35 0008 000080E5 		str	r0, [r0]
  36              		.loc 1 84 0
  37 000c 083080E5 		str	r3, [r0, #8]
  38              		.loc 1 85 0
  39 0010 1EFF2FE1 		bx	lr
  40              		.cfi_endproc
  41              	.LFE7:
  42              		.size	chMtxInit, .-chMtxInit
  43              		.section	.text.chMtxLockS,"ax",%progbits
  44              		.align	2
  45              		.global	chMtxLockS
  46              		.syntax unified
  47              		.arm
  48              		.fpu softvfp
  49              		.type	chMtxLockS, %function
  50              	chMtxLockS:
  51              	.LFB9:
  52              		.loc 1 114 0
  53              		.cfi_startproc
  54              		@ args = 0, pretend = 0, frame = 0
  55              		@ frame_needed = 0, uses_anonymous_args = 0
  56              	.LVL1:
  57              		.loc 1 121 0
ARM GAS  /var/folders/3j/4xdnk5197cv_b7cw3n33qk7r0000gn/T//ccdeHuBY.s 			page 2


  58 0000 083090E5 		ldr	r3, [r0, #8]
  59              		.loc 1 115 0
  60 0004 8C219FE5 		ldr	r2, .L33
  61              		.loc 1 121 0
  62 0008 000053E3 		cmp	r3, #0
  63              		.loc 1 114 0
  64 000c 70402DE9 		push	{r4, r5, r6, lr}
  65              		.cfi_def_cfa_offset 16
  66              		.cfi_offset 4, -16
  67              		.cfi_offset 5, -12
  68              		.cfi_offset 6, -8
  69              		.cfi_offset 14, -4
  70              		.loc 1 115 0
  71 0010 184092E5 		ldr	r4, [r2, #24]
  72              	.LVL2:
  73              		.loc 1 121 0
  74 0014 3D00000A 		beq	.L26
  75              	.LBB27:
  76              		.loc 1 128 0
  77 0018 081094E5 		ldr	r1, [r4, #8]
  78 001c 082093E5 		ldr	r2, [r3, #8]
  79 0020 0050A0E1 		mov	r5, r0
  80              	.LVL3:
  81 0024 020051E1 		cmp	r1, r2
  82 0028 0700009A 		bls	.L6
  83              	.LVL4:
  84              	.L12:
  85              		.loc 1 132 0
  86 002c 1C20D3E5 		ldrb	r2, [r3, #28]	@ zero_extendqisi2
  87              		.loc 1 130 0
  88 0030 081083E5 		str	r1, [r3, #8]
  89              		.loc 1 132 0
  90 0034 040052E3 		cmp	r2, #4
  91 0038 3900000A 		beq	.L7
  92 003c 050052E3 		cmp	r2, #5
  93 0040 1400000A 		beq	.L8
  94 0044 000052E3 		cmp	r2, #0
  95 0048 2700000A 		beq	.L27
  96              	.LVL5:
  97              	.L6:
  98              		.loc 1 166 0
  99 004c 0500A0E1 		mov	r0, r5
 100              	.LVL6:
 101 0050 0530A0E1 		mov	r3, r5
 102 0054 030000EA 		b	.L17
 103              	.LVL7:
 104              	.L29:
 105              	.LBB28:
 106              	.LBB29:
 107              		.file 2 "..//os/kernel/include/chinline.h"
 108              		.loc 2 39 0
 109 0058 081093E5 		ldr	r1, [r3, #8]
 110 005c 082094E5 		ldr	r2, [r4, #8]
 111 0060 020051E1 		cmp	r1, r2
 112 0064 2700003A 		bcc	.L28
 113              	.L17:
 114              		.loc 2 38 0
ARM GAS  /var/folders/3j/4xdnk5197cv_b7cw3n33qk7r0000gn/T//ccdeHuBY.s 			page 3


 115 0068 003093E5 		ldr	r3, [r3]
 116              	.LVL8:
 117              		.loc 2 39 0
 118 006c 030055E1 		cmp	r5, r3
 119 0070 F8FFFF1A 		bne	.L29
 120              	.LVL9:
 121              	.L16:
 122              		.loc 2 41 0
 123 0074 043090E5 		ldr	r3, [r0, #4]
 124              	.LVL10:
 125 0078 090084E8 		stm	r4, {r0, r3}
 126              		.loc 2 42 0
 127 007c 044080E5 		str	r4, [r0, #4]
 128 0080 043094E5 		ldr	r3, [r4, #4]
 129              	.LBE29:
 130              	.LBE28:
 131              		.loc 1 168 0
 132 0084 0400A0E3 		mov	r0, #4
 133              	.LBB32:
 134              	.LBB30:
 135              		.loc 2 42 0
 136 0088 004083E5 		str	r4, [r3]
 137              	.LVL11:
 138              	.LBE30:
 139              	.LBE32:
 140              		.loc 1 167 0
 141 008c 245084E5 		str	r5, [r4, #36]
 142              	.LBE27:
 143              		.loc 1 180 0
 144 0090 7040BDE8 		pop	{r4, r5, r6, lr}
 145              		.cfi_remember_state
 146              		.cfi_restore 14
 147              		.cfi_restore 6
 148              		.cfi_restore 5
 149              		.cfi_restore 4
 150              		.cfi_def_cfa_offset 0
 151              	.LVL12:
 152              	.LBB58:
 153              		.loc 1 168 0
 154 0094 FEFFFFEA 		b	chSchGoSleepS
 155              	.LVL13:
 156              	.L8:
 157              		.cfi_restore_state
 158              	.LBB33:
 159              	.LBB34:
 160              		.loc 2 68 0
 161 0098 00E093E5 		ldr	lr, [r3]
 162 009c 040093E5 		ldr	r0, [r3, #4]
 163              	.LBE34:
 164              	.LBE33:
 165              		.loc 1 151 0
 166 00a0 24C093E5 		ldr	ip, [r3, #36]
 167              	.LBB37:
 168              	.LBB35:
 169              		.loc 2 68 0
 170 00a4 00E080E5 		str	lr, [r0]
 171              		.loc 2 69 0
ARM GAS  /var/folders/3j/4xdnk5197cv_b7cw3n33qk7r0000gn/T//ccdeHuBY.s 			page 4


 172 00a8 00E093E5 		ldr	lr, [r3]
 173              	.LBE35:
 174              	.LBE37:
 175              		.loc 1 151 0
 176 00ac 0C20A0E1 		mov	r2, ip
 177              	.LBB38:
 178              	.LBB36:
 179              		.loc 2 69 0
 180 00b0 04008EE5 		str	r0, [lr, #4]
 181              	.LVL14:
 182 00b4 020000EA 		b	.L14
 183              	.LVL15:
 184              	.L31:
 185              	.LBE36:
 186              	.LBE38:
 187              	.LBB39:
 188              	.LBB40:
 189              		.loc 2 39 0
 190 00b8 080092E5 		ldr	r0, [r2, #8]
 191 00bc 010050E1 		cmp	r0, r1
 192 00c0 3200003A 		bcc	.L30
 193              	.LVL16:
 194              	.L14:
 195              		.loc 2 38 0
 196 00c4 002092E5 		ldr	r2, [r2]
 197              	.LVL17:
 198              		.loc 2 39 0
 199 00c8 02005CE1 		cmp	ip, r2
 200 00cc F9FFFF1A 		bne	.L31
 201              	.LVL18:
 202              	.L13:
 203              		.loc 2 41 0
 204 00d0 04209CE5 		ldr	r2, [ip, #4]
 205              	.LVL19:
 206              		.loc 2 40 0
 207 00d4 00C083E5 		str	ip, [r3]
 208              		.loc 2 41 0
 209 00d8 042083E5 		str	r2, [r3, #4]
 210              		.loc 2 42 0
 211 00dc 04308CE5 		str	r3, [ip, #4]
 212 00e0 042093E5 		ldr	r2, [r3, #4]
 213 00e4 003082E5 		str	r3, [r2]
 214 00e8 D7FFFFEA 		b	.L6
 215              	.LVL20:
 216              	.L27:
 217              	.LBE40:
 218              	.LBE39:
 219              	.LBB42:
 220              	.LBB43:
 221              		.loc 2 68 0
 222 00ec 060093E8 		ldm	r3, {r1, r2}
 223 00f0 001082E5 		str	r1, [r2]
 224              	.LBE43:
 225              	.LBE42:
 226              		.loc 1 160 0
 227 00f4 0300A0E1 		mov	r0, r3
 228              	.LBB45:
ARM GAS  /var/folders/3j/4xdnk5197cv_b7cw3n33qk7r0000gn/T//ccdeHuBY.s 			page 5


 229              	.LBB44:
 230              		.loc 2 69 0
 231 00f8 003093E5 		ldr	r3, [r3]
 232              	.LVL21:
 233 00fc 042083E5 		str	r2, [r3, #4]
 234              	.LVL22:
 235              	.LBE44:
 236              	.LBE45:
 237              		.loc 1 160 0
 238 0100 FEFFFFEB 		bl	chSchReadyI
 239              	.LVL23:
 240              		.loc 1 161 0
 241 0104 D0FFFFEA 		b	.L6
 242              	.LVL24:
 243              	.L28:
 244              	.LBB46:
 245              	.LBB31:
 246              		.loc 2 38 0
 247 0108 0300A0E1 		mov	r0, r3
 248              	.LVL25:
 249 010c D8FFFFEA 		b	.L16
 250              	.LVL26:
 251              	.L26:
 252              	.LBE31:
 253              	.LBE46:
 254              	.LBE58:
 255              		.loc 1 177 0
 256 0110 3C3094E5 		ldr	r3, [r4, #60]
 257              		.loc 1 176 0
 258 0114 084080E5 		str	r4, [r0, #8]
 259              		.loc 1 177 0
 260 0118 0C3080E5 		str	r3, [r0, #12]
 261              		.loc 1 178 0
 262 011c 3C0084E5 		str	r0, [r4, #60]
 263              		.loc 1 180 0
 264 0120 7080BDE8 		pop	{r4, r5, r6, pc}
 265              	.LVL27:
 266              	.L7:
 267              	.LBB59:
 268              	.LBB47:
 269              	.LBB48:
 270              		.loc 2 68 0
 271 0124 00E093E5 		ldr	lr, [r3]
 272 0128 040093E5 		ldr	r0, [r3, #4]
 273              	.LBE48:
 274              	.LBE47:
 275              		.loc 1 135 0
 276 012c 24C093E5 		ldr	ip, [r3, #36]
 277              	.LBB51:
 278              	.LBB49:
 279              		.loc 2 68 0
 280 0130 00E080E5 		str	lr, [r0]
 281              		.loc 2 69 0
 282 0134 00E093E5 		ldr	lr, [r3]
 283              	.LBE49:
 284              	.LBE51:
 285              		.loc 1 135 0
ARM GAS  /var/folders/3j/4xdnk5197cv_b7cw3n33qk7r0000gn/T//ccdeHuBY.s 			page 6


 286 0138 0C20A0E1 		mov	r2, ip
 287              	.LBB52:
 288              	.LBB50:
 289              		.loc 2 69 0
 290 013c 04008EE5 		str	r0, [lr, #4]
 291              	.LVL28:
 292 0140 020000EA 		b	.L11
 293              	.LVL29:
 294              	.L32:
 295              	.LBE50:
 296              	.LBE52:
 297              	.LBB53:
 298              	.LBB54:
 299              		.loc 2 39 0
 300 0144 080092E5 		ldr	r0, [r2, #8]
 301 0148 010050E1 		cmp	r0, r1
 302 014c 0300003A 		bcc	.L10
 303              	.LVL30:
 304              	.L11:
 305              		.loc 2 38 0
 306 0150 002092E5 		ldr	r2, [r2]
 307              	.LVL31:
 308              		.loc 2 39 0
 309 0154 02005CE1 		cmp	ip, r2
 310 0158 F9FFFF1A 		bne	.L32
 311 015c 0C20A0E1 		mov	r2, ip
 312              	.LVL32:
 313              	.L10:
 314              		.loc 2 41 0
 315 0160 041092E5 		ldr	r1, [r2, #4]
 316              		.loc 2 40 0
 317 0164 002083E5 		str	r2, [r3]
 318              		.loc 2 41 0
 319 0168 041083E5 		str	r1, [r3, #4]
 320              		.loc 2 42 0
 321 016c 043082E5 		str	r3, [r2, #4]
 322 0170 042093E5 		ldr	r2, [r3, #4]
 323              	.LBE54:
 324              	.LBE53:
 325              		.loc 1 128 0
 326 0174 081094E5 		ldr	r1, [r4, #8]
 327              	.LBB56:
 328              	.LBB55:
 329              		.loc 2 42 0
 330 0178 003082E5 		str	r3, [r2]
 331              	.LVL33:
 332              	.LBE55:
 333              	.LBE56:
 334              		.loc 1 136 0
 335 017c 08309CE5 		ldr	r3, [ip, #8]
 336              	.LVL34:
 337              		.loc 1 128 0
 338 0180 082093E5 		ldr	r2, [r3, #8]
 339 0184 010052E1 		cmp	r2, r1
 340 0188 A7FFFF3A 		bcc	.L12
 341 018c AEFFFFEA 		b	.L6
 342              	.LVL35:
ARM GAS  /var/folders/3j/4xdnk5197cv_b7cw3n33qk7r0000gn/T//ccdeHuBY.s 			page 7


 343              	.L30:
 344              	.LBB57:
 345              	.LBB41:
 346              		.loc 2 38 0
 347 0190 02C0A0E1 		mov	ip, r2
 348              	.LVL36:
 349 0194 CDFFFFEA 		b	.L13
 350              	.L34:
 351              		.align	2
 352              	.L33:
 353 0198 00000000 		.word	rlist
 354              	.LBE41:
 355              	.LBE57:
 356              	.LBE59:
 357              		.cfi_endproc
 358              	.LFE9:
 359              		.size	chMtxLockS, .-chMtxLockS
 360              		.section	.text.chMtxLock,"ax",%progbits
 361              		.align	2
 362              		.global	chMtxLock
 363              		.syntax unified
 364              		.arm
 365              		.fpu softvfp
 366              		.type	chMtxLock, %function
 367              	chMtxLock:
 368              	.LFB8:
 369              		.loc 1 96 0
 370              		.cfi_startproc
 371              		@ args = 0, pretend = 0, frame = 0
 372              		@ frame_needed = 0, uses_anonymous_args = 0
 373              	.LVL37:
 374 0000 10402DE9 		push	{r4, lr}
 375              		.cfi_def_cfa_offset 8
 376              		.cfi_offset 4, -8
 377              		.cfi_offset 14, -4
 378              		.loc 1 98 0
 379              		.syntax divided
 380              	@ 98 "..//os/kernel/src/chmtx.c" 1
 381 0004 9FF021E3 		msr     CPSR_c, #0x9F
 382              	@ 0 "" 2
 383              		.loc 1 100 0
 384              		.arm
 385              		.syntax unified
 386 0008 FEFFFFEB 		bl	chMtxLockS
 387              	.LVL38:
 388              		.loc 1 102 0
 389              		.syntax divided
 390              	@ 102 "..//os/kernel/src/chmtx.c" 1
 391 000c 1FF021E3 		msr     CPSR_c, #0x1F
 392              	@ 0 "" 2
 393              		.loc 1 103 0
 394              		.arm
 395              		.syntax unified
 396 0010 1080BDE8 		pop	{r4, pc}
 397              		.cfi_endproc
 398              	.LFE8:
 399              		.size	chMtxLock, .-chMtxLock
ARM GAS  /var/folders/3j/4xdnk5197cv_b7cw3n33qk7r0000gn/T//ccdeHuBY.s 			page 8


 400              		.section	.text.chMtxTryLock,"ax",%progbits
 401              		.align	2
 402              		.global	chMtxTryLock
 403              		.syntax unified
 404              		.arm
 405              		.fpu softvfp
 406              		.type	chMtxTryLock, %function
 407              	chMtxTryLock:
 408              	.LFB10:
 409              		.loc 1 199 0
 410              		.cfi_startproc
 411              		@ args = 0, pretend = 0, frame = 0
 412              		@ frame_needed = 0, uses_anonymous_args = 0
 413              		@ link register save eliminated.
 414              	.LVL39:
 415              		.loc 1 199 0
 416 0000 0030A0E1 		mov	r3, r0
 417              		.loc 1 202 0
 418              		.syntax divided
 419              	@ 202 "..//os/kernel/src/chmtx.c" 1
 420 0004 9FF021E3 		msr     CPSR_c, #0x9F
 421              	@ 0 "" 2
 422              	.LVL40:
 423              		.arm
 424              		.syntax unified
 425              	.LBB64:
 426              	.LBB65:
 427              		.loc 1 232 0
 428 0008 082090E5 		ldr	r2, [r0, #8]
 429 000c 000052E3 		cmp	r2, #0
 430              	.LVL41:
 431              	.LBB66:
 432              	.LBB67:
 433              		.loc 1 234 0
 434 0010 20209F05 		ldreq	r2, .L40
 435              		.loc 1 236 0
 436 0014 0100A003 		moveq	r0, #1
 437              	.LVL42:
 438              		.loc 1 234 0
 439 0018 18209205 		ldreq	r2, [r2, #24]
 440              	.LBE67:
 441              	.LBE66:
 442              		.loc 1 233 0
 443 001c 0000A013 		movne	r0, #0
 444              	.LBB69:
 445              	.LBB68:
 446              		.loc 1 235 0
 447 0020 3C109205 		ldreq	r1, [r2, #60]
 448              		.loc 1 234 0
 449 0024 08208305 		streq	r2, [r3, #8]
 450              		.loc 1 235 0
 451 0028 0C108305 		streq	r1, [r3, #12]
 452              		.loc 1 236 0
 453 002c 3C308205 		streq	r3, [r2, #60]
 454              	.LVL43:
 455              	.LBE68:
 456              	.LBE69:
ARM GAS  /var/folders/3j/4xdnk5197cv_b7cw3n33qk7r0000gn/T//ccdeHuBY.s 			page 9


 457              	.LBE65:
 458              	.LBE64:
 459              		.loc 1 206 0
 460              		.syntax divided
 461              	@ 206 "..//os/kernel/src/chmtx.c" 1
 462 0030 1FF021E3 		msr     CPSR_c, #0x1F
 463              	@ 0 "" 2
 464              		.loc 1 208 0
 465              		.arm
 466              		.syntax unified
 467 0034 1EFF2FE1 		bx	lr
 468              	.L41:
 469              		.align	2
 470              	.L40:
 471 0038 00000000 		.word	rlist
 472              		.cfi_endproc
 473              	.LFE10:
 474              		.size	chMtxTryLock, .-chMtxTryLock
 475              		.section	.text.chMtxTryLockS,"ax",%progbits
 476              		.align	2
 477              		.global	chMtxTryLockS
 478              		.syntax unified
 479              		.arm
 480              		.fpu softvfp
 481              		.type	chMtxTryLockS, %function
 482              	chMtxTryLockS:
 483              	.LFB11:
 484              		.loc 1 227 0
 485              		.cfi_startproc
 486              		@ args = 0, pretend = 0, frame = 0
 487              		@ frame_needed = 0, uses_anonymous_args = 0
 488              		@ link register save eliminated.
 489              	.LVL44:
 490              		.loc 1 227 0
 491 0000 0030A0E1 		mov	r3, r0
 492              		.loc 1 232 0
 493 0004 082090E5 		ldr	r2, [r0, #8]
 494 0008 000052E3 		cmp	r2, #0
 495              	.LVL45:
 496              	.LBB72:
 497              	.LBB73:
 498              		.loc 1 234 0
 499 000c 1C209F05 		ldreq	r2, .L45
 500              		.loc 1 236 0
 501 0010 0100A003 		moveq	r0, #1
 502              	.LVL46:
 503              		.loc 1 234 0
 504 0014 18209205 		ldreq	r2, [r2, #24]
 505              	.LBE73:
 506              	.LBE72:
 507              		.loc 1 233 0
 508 0018 0000A013 		movne	r0, #0
 509              	.LBB75:
 510              	.LBB74:
 511              		.loc 1 235 0
 512 001c 3C109205 		ldreq	r1, [r2, #60]
 513              		.loc 1 234 0
ARM GAS  /var/folders/3j/4xdnk5197cv_b7cw3n33qk7r0000gn/T//ccdeHuBY.s 			page 10


 514 0020 08208305 		streq	r2, [r3, #8]
 515              		.loc 1 235 0
 516 0024 0C108305 		streq	r1, [r3, #12]
 517              		.loc 1 236 0
 518 0028 3C308205 		streq	r3, [r2, #60]
 519              	.LVL47:
 520              	.LBE74:
 521              	.LBE75:
 522              		.loc 1 238 0
 523 002c 1EFF2FE1 		bx	lr
 524              	.L46:
 525              		.align	2
 526              	.L45:
 527 0030 00000000 		.word	rlist
 528              		.cfi_endproc
 529              	.LFE11:
 530              		.size	chMtxTryLockS, .-chMtxTryLockS
 531              		.section	.text.chMtxUnlock,"ax",%progbits
 532              		.align	2
 533              		.global	chMtxUnlock
 534              		.syntax unified
 535              		.arm
 536              		.fpu softvfp
 537              		.type	chMtxUnlock, %function
 538              	chMtxUnlock:
 539              	.LFB12:
 540              		.loc 1 250 0
 541              		.cfi_startproc
 542              		@ args = 0, pretend = 0, frame = 0
 543              		@ frame_needed = 0, uses_anonymous_args = 0
 544              		.loc 1 251 0
 545 0000 94309FE5 		ldr	r3, .L58
 546              		.loc 1 250 0
 547 0004 10402DE9 		push	{r4, lr}
 548              		.cfi_def_cfa_offset 8
 549              		.cfi_offset 4, -8
 550              		.cfi_offset 14, -4
 551              		.loc 1 251 0
 552 0008 180093E5 		ldr	r0, [r3, #24]
 553              	.LVL48:
 554              		.loc 1 254 0
 555              		.syntax divided
 556              	@ 254 "..//os/kernel/src/chmtx.c" 1
 557 000c 9FF021E3 		msr     CPSR_c, #0x9F
 558              	@ 0 "" 2
 559              		.loc 1 255 0
 560              		.arm
 561              		.syntax unified
 562 0010 3C4090E5 		ldr	r4, [r0, #60]
 563              	.LVL49:
 564              		.loc 1 266 0
 565 0014 00C094E5 		ldr	ip, [r4]
 566              		.loc 1 264 0
 567 0018 0C3094E5 		ldr	r3, [r4, #12]
 568              		.loc 1 266 0
 569 001c 04005CE1 		cmp	ip, r4
 570              		.loc 1 264 0
ARM GAS  /var/folders/3j/4xdnk5197cv_b7cw3n33qk7r0000gn/T//ccdeHuBY.s 			page 11


 571 0020 3C3080E5 		str	r3, [r0, #60]
 572              		.loc 1 266 0
 573 0024 1900000A 		beq	.L48
 574              	.LBB76:
 575              		.loc 1 273 0
 576 0028 000053E3 		cmp	r3, #0
 577              		.loc 1 271 0
 578 002c 401090E5 		ldr	r1, [r0, #64]
 579              	.LVL50:
 580              		.loc 1 273 0
 581 0030 0800000A 		beq	.L49
 582              	.L51:
 583              		.loc 1 277 0
 584 0034 002093E5 		ldr	r2, [r3]
 585 0038 030052E1 		cmp	r2, r3
 586 003c 0200000A 		beq	.L50
 587 0040 082092E5 		ldr	r2, [r2, #8]
 588 0044 020051E1 		cmp	r1, r2
 589 0048 0210A031 		movcc	r1, r2
 590              	.LVL51:
 591              	.L50:
 592              		.loc 1 279 0
 593 004c 0C3093E5 		ldr	r3, [r3, #12]
 594              	.LVL52:
 595              		.loc 1 273 0
 596 0050 000053E3 		cmp	r3, #0
 597 0054 F6FFFF1A 		bne	.L51
 598              	.L49:
 599              		.loc 1 288 0
 600 0058 3C209CE5 		ldr	r2, [ip, #60]
 601              	.LBB77:
 602              	.LBB78:
 603              		.loc 2 55 0
 604 005c 00309CE5 		ldr	r3, [ip]
 605              	.LVL53:
 606              	.LBE78:
 607              	.LBE77:
 608              		.loc 1 283 0
 609 0060 081080E5 		str	r1, [r0, #8]
 610              	.LVL54:
 611              	.LBB81:
 612              	.LBB79:
 613              		.loc 2 55 0
 614 0064 003084E5 		str	r3, [r4]
 615              	.LBE79:
 616              	.LBE81:
 617              		.loc 1 290 0
 618 0068 0C00A0E1 		mov	r0, ip
 619              	.LVL55:
 620              	.LBB82:
 621              	.LBB80:
 622              		.loc 2 55 0
 623 006c 044083E5 		str	r4, [r3, #4]
 624              	.LVL56:
 625              	.LBE80:
 626              	.LBE82:
 627              		.loc 1 290 0
ARM GAS  /var/folders/3j/4xdnk5197cv_b7cw3n33qk7r0000gn/T//ccdeHuBY.s 			page 12


 628 0070 0010A0E3 		mov	r1, #0
 629              	.LVL57:
 630              		.loc 1 287 0
 631 0074 08C084E5 		str	ip, [r4, #8]
 632              		.loc 1 288 0
 633 0078 0C2084E5 		str	r2, [r4, #12]
 634              		.loc 1 289 0
 635 007c 3C408CE5 		str	r4, [ip, #60]
 636              		.loc 1 290 0
 637 0080 FEFFFFEB 		bl	chSchWakeupS
 638              	.LVL58:
 639              	.L52:
 640              	.LBE76:
 641              		.loc 1 294 0
 642              		.syntax divided
 643              	@ 294 "..//os/kernel/src/chmtx.c" 1
 644 0084 1FF021E3 		msr     CPSR_c, #0x1F
 645              	@ 0 "" 2
 646              		.loc 1 296 0
 647              		.arm
 648              		.syntax unified
 649 0088 0400A0E1 		mov	r0, r4
 650 008c 1080BDE8 		pop	{r4, pc}
 651              	.LVL59:
 652              	.L48:
 653              		.loc 1 293 0
 654 0090 0030A0E3 		mov	r3, #0
 655 0094 083084E5 		str	r3, [r4, #8]
 656 0098 F9FFFFEA 		b	.L52
 657              	.L59:
 658              		.align	2
 659              	.L58:
 660 009c 00000000 		.word	rlist
 661              		.cfi_endproc
 662              	.LFE12:
 663              		.size	chMtxUnlock, .-chMtxUnlock
 664              		.section	.text.chMtxUnlockS,"ax",%progbits
 665              		.align	2
 666              		.global	chMtxUnlockS
 667              		.syntax unified
 668              		.arm
 669              		.fpu softvfp
 670              		.type	chMtxUnlockS, %function
 671              	chMtxUnlockS:
 672              	.LFB13:
 673              		.loc 1 310 0
 674              		.cfi_startproc
 675              		@ args = 0, pretend = 0, frame = 0
 676              		@ frame_needed = 0, uses_anonymous_args = 0
 677              		.loc 1 311 0
 678 0000 8C309FE5 		ldr	r3, .L71
 679              		.loc 1 310 0
 680 0004 10402DE9 		push	{r4, lr}
 681              		.cfi_def_cfa_offset 8
 682              		.cfi_offset 4, -8
 683              		.cfi_offset 14, -4
 684              		.loc 1 311 0
ARM GAS  /var/folders/3j/4xdnk5197cv_b7cw3n33qk7r0000gn/T//ccdeHuBY.s 			page 13


 685 0008 180093E5 		ldr	r0, [r3, #24]
 686              	.LVL60:
 687              		.loc 1 315 0
 688 000c 3C4090E5 		ldr	r4, [r0, #60]
 689              	.LVL61:
 690              		.loc 1 327 0
 691 0010 00C094E5 		ldr	ip, [r4]
 692              		.loc 1 325 0
 693 0014 0C3094E5 		ldr	r3, [r4, #12]
 694              		.loc 1 327 0
 695 0018 04005CE1 		cmp	ip, r4
 696              		.loc 1 325 0
 697 001c 3C3080E5 		str	r3, [r0, #60]
 698              		.loc 1 327 0
 699 0020 1700000A 		beq	.L61
 700              	.LBB83:
 701              		.loc 1 334 0
 702 0024 000053E3 		cmp	r3, #0
 703              		.loc 1 332 0
 704 0028 401090E5 		ldr	r1, [r0, #64]
 705              	.LVL62:
 706              		.loc 1 334 0
 707 002c 0800000A 		beq	.L62
 708              	.L64:
 709              		.loc 1 338 0
 710 0030 002093E5 		ldr	r2, [r3]
 711 0034 030052E1 		cmp	r2, r3
 712 0038 0200000A 		beq	.L63
 713 003c 082092E5 		ldr	r2, [r2, #8]
 714 0040 020051E1 		cmp	r1, r2
 715 0044 0210A031 		movcc	r1, r2
 716              	.LVL63:
 717              	.L63:
 718              		.loc 1 340 0
 719 0048 0C3093E5 		ldr	r3, [r3, #12]
 720              	.LVL64:
 721              		.loc 1 334 0
 722 004c 000053E3 		cmp	r3, #0
 723 0050 F6FFFF1A 		bne	.L64
 724              	.L62:
 725              		.loc 1 347 0
 726 0054 3C209CE5 		ldr	r2, [ip, #60]
 727              	.LBB84:
 728              	.LBB85:
 729              		.loc 2 55 0
 730 0058 00309CE5 		ldr	r3, [ip]
 731              	.LVL65:
 732              	.LBE85:
 733              	.LBE84:
 734              		.loc 1 342 0
 735 005c 081080E5 		str	r1, [r0, #8]
 736              	.LVL66:
 737              	.LBB88:
 738              	.LBB86:
 739              		.loc 2 55 0
 740 0060 003084E5 		str	r3, [r4]
 741              	.LBE86:
ARM GAS  /var/folders/3j/4xdnk5197cv_b7cw3n33qk7r0000gn/T//ccdeHuBY.s 			page 14


 742              	.LBE88:
 743              		.loc 1 349 0
 744 0064 0C00A0E1 		mov	r0, ip
 745              	.LVL67:
 746              	.LBB89:
 747              	.LBB87:
 748              		.loc 2 55 0
 749 0068 044083E5 		str	r4, [r3, #4]
 750              	.LVL68:
 751              	.LBE87:
 752              	.LBE89:
 753              		.loc 1 346 0
 754 006c 08C084E5 		str	ip, [r4, #8]
 755              		.loc 1 347 0
 756 0070 0C2084E5 		str	r2, [r4, #12]
 757              		.loc 1 348 0
 758 0074 3C408CE5 		str	r4, [ip, #60]
 759              		.loc 1 349 0
 760 0078 FEFFFFEB 		bl	chSchReadyI
 761              	.LVL69:
 762              	.LBE83:
 763              		.loc 1 354 0
 764 007c 0400A0E1 		mov	r0, r4
 765 0080 1080BDE8 		pop	{r4, pc}
 766              	.LVL70:
 767              	.L61:
 768              		.loc 1 352 0
 769 0084 0030A0E3 		mov	r3, #0
 770              		.loc 1 354 0
 771 0088 0400A0E1 		mov	r0, r4
 772              	.LVL71:
 773              		.loc 1 352 0
 774 008c 083084E5 		str	r3, [r4, #8]
 775              		.loc 1 354 0
 776 0090 1080BDE8 		pop	{r4, pc}
 777              	.L72:
 778              		.align	2
 779              	.L71:
 780 0094 00000000 		.word	rlist
 781              		.cfi_endproc
 782              	.LFE13:
 783              		.size	chMtxUnlockS, .-chMtxUnlockS
 784              		.section	.text.chMtxUnlockAll,"ax",%progbits
 785              		.align	2
 786              		.global	chMtxUnlockAll
 787              		.syntax unified
 788              		.arm
 789              		.fpu softvfp
 790              		.type	chMtxUnlockAll, %function
 791              	chMtxUnlockAll:
 792              	.LFB14:
 793              		.loc 1 367 0
 794              		.cfi_startproc
 795              		@ args = 0, pretend = 0, frame = 0
 796              		@ frame_needed = 0, uses_anonymous_args = 0
 797              		.loc 1 368 0
 798 0000 78309FE5 		ldr	r3, .L83
ARM GAS  /var/folders/3j/4xdnk5197cv_b7cw3n33qk7r0000gn/T//ccdeHuBY.s 			page 15


 799              		.loc 1 367 0
 800 0004 70402DE9 		push	{r4, r5, r6, lr}
 801              		.cfi_def_cfa_offset 16
 802              		.cfi_offset 4, -16
 803              		.cfi_offset 5, -12
 804              		.cfi_offset 6, -8
 805              		.cfi_offset 14, -4
 806              		.loc 1 368 0
 807 0008 184093E5 		ldr	r4, [r3, #24]
 808              	.LVL72:
 809              		.loc 1 370 0
 810              		.syntax divided
 811              	@ 370 "..//os/kernel/src/chmtx.c" 1
 812 000c 9FF021E3 		msr     CPSR_c, #0x9F
 813              	@ 0 "" 2
 814              		.loc 1 371 0
 815              		.arm
 816              		.syntax unified
 817 0010 3C3094E5 		ldr	r3, [r4, #60]
 818 0014 000053E3 		cmp	r3, #0
 819 0018 1600000A 		beq	.L74
 820              	.LBB90:
 821              		.loc 1 383 0
 822 001c 0050A0E3 		mov	r5, #0
 823              	.L77:
 824              	.LVL73:
 825              		.loc 1 375 0
 826 0020 002093E5 		ldr	r2, [r3]
 827              	.LVL74:
 828              		.loc 1 374 0
 829 0024 0C1093E5 		ldr	r1, [r3, #12]
 830              		.loc 1 375 0
 831 0028 030052E1 		cmp	r2, r3
 832              		.loc 1 374 0
 833 002c 3C1084E5 		str	r1, [r4, #60]
 834              	.LVL75:
 835              		.loc 1 383 0
 836 0030 08508305 		streq	r5, [r3, #8]
 837 0034 0130A001 		moveq	r3, r1
 838              	.LVL76:
 839              		.loc 1 375 0
 840 0038 0900000A 		beq	.L76
 841              	.LBB91:
 842              		.loc 1 378 0
 843 003c 3CC092E5 		ldr	ip, [r2, #60]
 844              	.LBB92:
 845              	.LBB93:
 846              		.loc 2 55 0
 847 0040 001092E5 		ldr	r1, [r2]
 848              	.LBE93:
 849              	.LBE92:
 850              		.loc 1 380 0
 851 0044 0200A0E1 		mov	r0, r2
 852              	.LBB95:
 853              	.LBB94:
 854              		.loc 2 55 0
 855 0048 001083E5 		str	r1, [r3]
ARM GAS  /var/folders/3j/4xdnk5197cv_b7cw3n33qk7r0000gn/T//ccdeHuBY.s 			page 16


 856 004c 043081E5 		str	r3, [r1, #4]
 857              	.LVL77:
 858              	.LBE94:
 859              	.LBE95:
 860              		.loc 1 377 0
 861 0050 082083E5 		str	r2, [r3, #8]
 862              		.loc 1 378 0
 863 0054 0CC083E5 		str	ip, [r3, #12]
 864              		.loc 1 379 0
 865 0058 3C3082E5 		str	r3, [r2, #60]
 866              		.loc 1 380 0
 867 005c FEFFFFEB 		bl	chSchReadyI
 868              	.LVL78:
 869 0060 3C3094E5 		ldr	r3, [r4, #60]
 870              	.L76:
 871              	.LBE91:
 872              	.LBE90:
 873              		.loc 1 384 0
 874 0064 000053E3 		cmp	r3, #0
 875 0068 ECFFFF1A 		bne	.L77
 876              		.loc 1 385 0
 877 006c 403094E5 		ldr	r3, [r4, #64]
 878 0070 083084E5 		str	r3, [r4, #8]
 879              		.loc 1 386 0
 880 0074 FEFFFFEB 		bl	chSchRescheduleS
 881              	.LVL79:
 882              	.L74:
 883              		.loc 1 388 0
 884              		.syntax divided
 885              	@ 388 "..//os/kernel/src/chmtx.c" 1
 886 0078 1FF021E3 		msr     CPSR_c, #0x1F
 887              	@ 0 "" 2
 888              		.loc 1 389 0
 889              		.arm
 890              		.syntax unified
 891 007c 7080BDE8 		pop	{r4, r5, r6, pc}
 892              	.L84:
 893              		.align	2
 894              	.L83:
 895 0080 00000000 		.word	rlist
 896              		.cfi_endproc
 897              	.LFE14:
 898              		.size	chMtxUnlockAll, .-chMtxUnlockAll
 899              		.text
 900              	.Letext0:
 901              		.file 3 "/usr/local/Cellar/gcc-arm-none-eabi/20180627/arm-none-eabi/include/machine/_default_types
 902              		.file 4 "/usr/local/Cellar/gcc-arm-none-eabi/20180627/arm-none-eabi/include/sys/_stdint.h"
 903              		.file 5 "..//os/ports/GCC/ARM/chtypes.h"
 904              		.file 6 "..//os/kernel/include/chlists.h"
 905              		.file 7 "..//os/kernel/include/chthreads.h"
 906              		.file 8 "..//os/ports/GCC/ARM/chcore.h"
 907              		.file 9 "..//os/kernel/include/chvt.h"
 908              		.file 10 "..//os/kernel/include/chschd.h"
 909              		.file 11 "..//os/kernel/include/chmtx.h"
 910              		.file 12 "..//os/kernel/include/chregistry.h"
 911              		.file 13 "..//os/kernel/include/ch.h"