ARM GAS  /var/folders/3j/4xdnk5197cv_b7cw3n33qk7r0000gn/T//ccgbYUOY.s 			page 1


   1              		.cpu arm1176jz-s
   2              		.eabi_attribute 20, 1
   3              		.eabi_attribute 21, 1
   4              		.eabi_attribute 23, 3
   5              		.eabi_attribute 24, 1
   6              		.eabi_attribute 25, 1
   7              		.eabi_attribute 26, 1
   8              		.eabi_attribute 30, 2
   9              		.eabi_attribute 34, 1
  10              		.eabi_attribute 18, 4
  11              		.file	"chprintf.c"
  12              		.text
  13              	.Ltext0:
  14              		.cfi_sections	.debug_frame
  15              		.global	__aeabi_d2f
  16              		.global	__aeabi_fcmplt
  17              		.global	__aeabi_f2d
  18              		.global	__aeabi_f2iz
  19              		.global	__aeabi_i2d
  20              		.global	__aeabi_dsub
  21              		.global	__aeabi_dmul
  22              		.global	__aeabi_d2iz
  23              		.global	__aeabi_uidivmod
  24              		.section	.text.chprintf,"ax",%progbits
  25              		.align	2
  26              		.global	chprintf
  27              		.syntax unified
  28              		.arm
  29              		.fpu softvfp
  30              		.type	chprintf, %function
  31              	chprintf:
  32              	.LFB10:
  33              		.file 1 "..//os/various/chprintf.c"
  34              		.loc 1 112 0
  35              		.cfi_startproc
  36              		@ args = 4, pretend = 12, frame = 48
  37              		@ frame_needed = 0, uses_anonymous_args = 1
  38              	.LVL0:
  39 0000 0E002DE9 		push	{r1, r2, r3}
  40              		.cfi_def_cfa_offset 12
  41              		.cfi_offset 1, -12
  42              		.cfi_offset 2, -8
  43              		.cfi_offset 3, -4
  44 0004 F04F2DE9 		push	{r4, r5, r6, r7, r8, r9, r10, fp, lr}
  45              		.cfi_def_cfa_offset 48
  46              		.cfi_offset 4, -48
  47              		.cfi_offset 5, -44
  48              		.cfi_offset 6, -40
  49              		.cfi_offset 7, -36
  50              		.cfi_offset 8, -32
  51              		.cfi_offset 9, -28
  52              		.cfi_offset 10, -24
  53              		.cfi_offset 11, -20
  54              		.cfi_offset 14, -16
  55 0008 0050A0E1 		mov	r5, r0
  56 000c 30D04DE2 		sub	sp, sp, #48
  57              		.cfi_def_cfa_offset 96
ARM GAS  /var/folders/3j/4xdnk5197cv_b7cw3n33qk7r0000gn/T//ccgbYUOY.s 			page 2


  58              		.loc 1 125 0
  59 0010 58308DE2 		add	r3, sp, #88
  60              		.loc 1 112 0
  61 0014 54909DE5 		ldr	r9, [sp, #84]
  62              	.LBB26:
  63              	.LBB27:
  64              	.LBB28:
  65              	.LBB29:
  66              		.loc 1 57 0
  67 0018 B8A79FE5 		ldr	r10, .L128
  68              	.LBE29:
  69              	.LBE28:
  70              	.LBE27:
  71              	.LBE26:
  72              		.loc 1 125 0
  73 001c 14308DE5 		str	r3, [sp, #20]
  74              	.LVL1:
  75              	.L2:
  76              		.loc 1 127 0
  77 0020 0010D9E5 		ldrb	r1, [r9]	@ zero_extendqisi2
  78 0024 012089E2 		add	r2, r9, #1
  79              	.LVL2:
  80              		.loc 1 128 0
  81 0028 000051E3 		cmp	r1, #0
  82 002c 0A00000A 		beq	.L108
  83              	.L118:
  84              		.loc 1 132 0
  85 0030 250051E3 		cmp	r1, #37
  86 0034 0C00000A 		beq	.L4
  87              		.loc 1 127 0
  88 0038 0290A0E1 		mov	r9, r2
  89              		.loc 1 133 0
  90 003c 003095E5 		ldr	r3, [r5]
  91 0040 0500A0E1 		mov	r0, r5
  92 0044 083093E5 		ldr	r3, [r3, #8]
  93 0048 33FF2FE1 		blx	r3
  94              	.LVL3:
  95              		.loc 1 127 0
  96 004c 0010D9E5 		ldrb	r1, [r9]	@ zero_extendqisi2
  97 0050 012089E2 		add	r2, r9, #1
  98              	.LVL4:
  99              		.loc 1 128 0
 100 0054 000051E3 		cmp	r1, #0
 101 0058 F4FFFF1A 		bne	.L118
 102              	.L108:
 103              		.loc 1 263 0
 104 005c 30D08DE2 		add	sp, sp, #48
 105              		.cfi_remember_state
 106              		.cfi_def_cfa_offset 48
 107              		@ sp needed
 108 0060 F04FBDE8 		pop	{r4, r5, r6, r7, r8, r9, r10, fp, lr}
 109              		.cfi_restore 14
 110              		.cfi_restore 11
 111              		.cfi_restore 10
 112              		.cfi_restore 9
 113              		.cfi_restore 8
 114              		.cfi_restore 7
ARM GAS  /var/folders/3j/4xdnk5197cv_b7cw3n33qk7r0000gn/T//ccgbYUOY.s 			page 3


 115              		.cfi_restore 6
 116              		.cfi_restore 5
 117              		.cfi_restore 4
 118              		.cfi_def_cfa_offset 12
 119              	.LVL5:
 120 0064 0CD08DE2 		add	sp, sp, #12
 121              		.cfi_restore 3
 122              		.cfi_restore 2
 123              		.cfi_restore 1
 124              		.cfi_def_cfa_offset 0
 125 0068 1EFF2FE1 		bx	lr
 126              	.LVL6:
 127              	.L4:
 128              		.cfi_restore_state
 129              		.loc 1 146 0
 130 006c 0060A0E3 		mov	r6, #0
 131              		.loc 1 139 0
 132 0070 0110D9E5 		ldrb	r1, [r9, #1]	@ zero_extendqisi2
 133              	.LVL7:
 134              		.loc 1 148 0
 135 0074 0640A0E1 		mov	r4, r6
 136              		.loc 1 139 0
 137 0078 2D0051E3 		cmp	r1, #45
 138 007c 0210D905 		ldrbeq	r1, [r9, #2]	@ zero_extendqisi2
 139              		.loc 1 140 0
 140 0080 02208902 		addeq	r2, r9, #2
 141              	.LVL8:
 142              		.loc 1 141 0
 143 0084 0180A003 		moveq	r8, #1
 144              		.loc 1 138 0
 145 0088 0080A013 		movne	r8, #0
 146              	.LVL9:
 147              		.loc 1 144 0
 148 008c 2E0051E3 		cmp	r1, #46
 149 0090 0110D205 		ldrbeq	r1, [r2, #1]	@ zero_extendqisi2
 150              		.loc 1 145 0
 151 0094 01208202 		addeq	r2, r2, #1
 152              	.LVL10:
 153              		.loc 1 146 0
 154 0098 3070A003 		moveq	r7, #48
 155              		.loc 1 143 0
 156 009c 2070A013 		movne	r7, #32
 157              	.LVL11:
 158 00a0 14E09DE5 		ldr	lr, [sp, #20]
 159 00a4 012082E2 		add	r2, r2, #1
 160              	.LVL12:
 161 00a8 040000EA 		b	.L10
 162              	.LVL13:
 163              	.L119:
 164              		.loc 1 154 0
 165 00ac 0160A0E3 		mov	r6, #1
 166 00b0 0030DEE5 		ldrb	r3, [lr]	@ zero_extendqisi2
 167              	.LVL14:
 168 00b4 04E08EE2 		add	lr, lr, #4
 169              	.LVL15:
 170              	.L8:
 171 00b8 0110D2E4 		ldrb	r1, [r2], #1	@ zero_extendqisi2
ARM GAS  /var/folders/3j/4xdnk5197cv_b7cw3n33qk7r0000gn/T//ccgbYUOY.s 			page 4


 172              	.LVL16:
 173              		.loc 1 157 0
 174 00bc 804083E0 		add	r4, r3, r0, lsl #1
 175              	.LVL17:
 176              	.L10:
 177              		.loc 1 151 0
 178 00c0 303041E2 		sub	r3, r1, #48
 179 00c4 7330EFE6 		uxtb	r3, r3
 180 00c8 090053E3 		cmp	r3, #9
 181              		.loc 1 157 0
 182 00cc 040184E0 		add	r0, r4, r4, lsl #2
 183              		.loc 1 150 0
 184 00d0 02C0A0E1 		mov	ip, r2
 185              	.LVL18:
 186              		.loc 1 151 0
 187 00d4 F7FFFF9A 		bls	.L8
 188              		.loc 1 153 0
 189 00d8 2A0051E3 		cmp	r1, #42
 190 00dc F2FFFF0A 		beq	.L119
 191 00e0 000056E3 		cmp	r6, #0
 192 00e4 14E08D15 		strne	lr, [sp, #20]
 193              	.LVL19:
 194              		.loc 1 160 0
 195 00e8 2E0051E3 		cmp	r1, #46
 196              		.loc 1 159 0
 197 00ec 0020A013 		movne	r2, #0
 198              	.LVL20:
 199              		.loc 1 160 0
 200 00f0 5C01000A 		beq	.L120
 201              	.LVL21:
 202              	.L12:
 203              		.loc 1 174 0
 204 00f4 DF3001E2 		and	r3, r1, #223
 205 00f8 4C0053E3 		cmp	r3, #76
 206 00fc 01908CE2 		add	r9, ip, #1
 207 0100 3C00001A 		bne	.L17
 208              	.LVL22:
 209              		.loc 1 176 0
 210 0104 0030DCE5 		ldrb	r3, [ip]	@ zero_extendqisi2
 211 0108 000053E3 		cmp	r3, #0
 212 010c 0130A001 		moveq	r3, r1
 213              		.loc 1 183 0
 214 0110 441043E2 		sub	r1, r3, #68
 215              	.LVL23:
 216              		.loc 1 176 0
 217 0114 0C90A001 		moveq	r9, ip
 218              	.LVL24:
 219              		.loc 1 183 0
 220 0118 340051E3 		cmp	r1, #52
 221 011c 01F19F97 		ldrls	pc, [pc, r1, asl #2]
 222 0120 480100EA 		b	.L20
 223              	.LVL25:
 224              	.L65:
 225 0124 D0060000 		.word	.L92
 226 0128 48060000 		.word	.L20
 227 012c 48060000 		.word	.L20
 228 0130 48060000 		.word	.L20
ARM GAS  /var/folders/3j/4xdnk5197cv_b7cw3n33qk7r0000gn/T//ccgbYUOY.s 			page 5


 229 0134 48060000 		.word	.L20
 230 0138 48060000 		.word	.L20
 231 013c 48060000 		.word	.L20
 232 0140 48060000 		.word	.L20
 233 0144 48060000 		.word	.L20
 234 0148 48060000 		.word	.L20
 235 014c 48060000 		.word	.L20
 236 0150 38060000 		.word	.L23
 237 0154 48060000 		.word	.L20
 238 0158 48060000 		.word	.L20
 239 015c 48060000 		.word	.L20
 240 0160 48060000 		.word	.L20
 241 0164 48060000 		.word	.L20
 242 0168 A0050000 		.word	.L24
 243 016c 48060000 		.word	.L20
 244 0170 48060000 		.word	.L20
 245 0174 5C070000 		.word	.L84
 246 0178 48060000 		.word	.L20
 247 017c 48060000 		.word	.L20
 248 0180 48060000 		.word	.L20
 249 0184 48060000 		.word	.L20
 250 0188 48060000 		.word	.L20
 251 018c 48060000 		.word	.L20
 252 0190 48060000 		.word	.L20
 253 0194 48060000 		.word	.L20
 254 0198 48060000 		.word	.L20
 255 019c 48060000 		.word	.L20
 256 01a0 74050000 		.word	.L26
 257 01a4 D0060000 		.word	.L92
 258 01a8 48060000 		.word	.L20
 259 01ac 58030000 		.word	.L27
 260 01b0 48060000 		.word	.L20
 261 01b4 48060000 		.word	.L20
 262 01b8 48060000 		.word	.L20
 263 01bc 48060000 		.word	.L20
 264 01c0 48060000 		.word	.L20
 265 01c4 48060000 		.word	.L20
 266 01c8 48060000 		.word	.L20
 267 01cc 48060000 		.word	.L20
 268 01d0 38060000 		.word	.L23
 269 01d4 48060000 		.word	.L20
 270 01d8 48060000 		.word	.L20
 271 01dc 48060000 		.word	.L20
 272 01e0 E8020000 		.word	.L28
 273 01e4 48060000 		.word	.L20
 274 01e8 A0050000 		.word	.L24
 275 01ec 48060000 		.word	.L20
 276 01f0 48060000 		.word	.L20
 277 01f4 5C070000 		.word	.L84
 278              	.L17:
 279              		.loc 1 180 0
 280 01f8 413041E2 		sub	r3, r1, #65
 281              		.loc 1 183 0
 282 01fc 440041E2 		sub	r0, r1, #68
 283              		.loc 1 180 0
 284 0200 7330EFE6 		uxtb	r3, r3
 285              	.LVL26:
ARM GAS  /var/folders/3j/4xdnk5197cv_b7cw3n33qk7r0000gn/T//ccgbYUOY.s 			page 6


 286              		.loc 1 183 0
 287 0204 340050E3 		cmp	r0, #52
 288 0208 00F19F97 		ldrls	pc, [pc, r0, asl #2]
 289 020c 0B0100EA 		b	.L71
 290              	.L22:
 291 0210 64070000 		.word	.L21
 292 0214 40060000 		.word	.L71
 293 0218 40060000 		.word	.L71
 294 021c 40060000 		.word	.L71
 295 0220 40060000 		.word	.L71
 296 0224 40060000 		.word	.L71
 297 0228 40060000 		.word	.L71
 298 022c 40060000 		.word	.L71
 299 0230 40060000 		.word	.L71
 300 0234 40060000 		.word	.L71
 301 0238 40060000 		.word	.L71
 302 023c 34060000 		.word	.L72
 303 0240 40060000 		.word	.L71
 304 0244 40060000 		.word	.L71
 305 0248 40060000 		.word	.L71
 306 024c 40060000 		.word	.L71
 307 0250 40060000 		.word	.L71
 308 0254 9C050000 		.word	.L73
 309 0258 40060000 		.word	.L71
 310 025c 40060000 		.word	.L71
 311 0260 C4060000 		.word	.L74
 312 0264 40060000 		.word	.L71
 313 0268 40060000 		.word	.L71
 314 026c 40060000 		.word	.L71
 315 0270 40060000 		.word	.L71
 316 0274 40060000 		.word	.L71
 317 0278 40060000 		.word	.L71
 318 027c 40060000 		.word	.L71
 319 0280 40060000 		.word	.L71
 320 0284 40060000 		.word	.L71
 321 0288 40060000 		.word	.L71
 322 028c 70050000 		.word	.L75
 323 0290 64070000 		.word	.L21
 324 0294 40060000 		.word	.L71
 325 0298 54030000 		.word	.L76
 326 029c 40060000 		.word	.L71
 327 02a0 40060000 		.word	.L71
 328 02a4 40060000 		.word	.L71
 329 02a8 40060000 		.word	.L71
 330 02ac 40060000 		.word	.L71
 331 02b0 40060000 		.word	.L71
 332 02b4 40060000 		.word	.L71
 333 02b8 40060000 		.word	.L71
 334 02bc 34060000 		.word	.L72
 335 02c0 40060000 		.word	.L71
 336 02c4 40060000 		.word	.L71
 337 02c8 40060000 		.word	.L71
 338 02cc E4020000 		.word	.L77
 339 02d0 40060000 		.word	.L71
 340 02d4 9C050000 		.word	.L73
 341 02d8 40060000 		.word	.L71
 342 02dc 40060000 		.word	.L71
ARM GAS  /var/folders/3j/4xdnk5197cv_b7cw3n33qk7r0000gn/T//ccgbYUOY.s 			page 7


 343 02e0 C4060000 		.word	.L74
 344              	.L77:
 345 02e4 0C90A0E1 		mov	r9, ip
 346              	.LVL27:
 347              	.L28:
 348              		.loc 1 190 0
 349 02e8 14309DE5 		ldr	r3, [sp, #20]
 350 02ec 006093E5 		ldr	r6, [r3]
 351              	.LVL28:
 352 02f0 043083E2 		add	r3, r3, #4
 353 02f4 000056E3 		cmp	r6, #0
 354 02f8 14308DE5 		str	r3, [sp, #20]
 355 02fc 2001000A 		beq	.L30
 356              	.LVL29:
 357              		.loc 1 192 0
 358 0300 000052E3 		cmp	r2, #0
 359 0304 0030D6E5 		ldrb	r3, [r6]	@ zero_extendqisi2
 360 0308 06B0A0E1 		mov	fp, r6
 361 030c 2201001A 		bne	.L121
 362              	.LVL30:
 363              		.loc 1 194 0
 364 0310 000053E3 		cmp	r3, #0
 365 0314 00B0E003 		mvneq	fp, #0
 366              		.loc 1 189 0
 367 0318 2070A003 		moveq	r7, #32
 368              		.loc 1 194 0
 369 031c 6C00000A 		beq	.L54
 370              	.LVL31:
 371              	.L115:
 372 0320 B4249FE5 		ldr	r2, .L128+4
 373              	.L66:
 374              		.loc 1 194 0 is_stmt 0 discriminator 4
 375 0324 0630A0E1 		mov	r3, r6
 376 0328 010000EA 		b	.L34
 377              	.LVL32:
 378              	.L33:
 379              		.loc 1 194 0 discriminator 3
 380 032c 012052E2 		subs	r2, r2, #1
 381              	.LVL33:
 382 0330 0200004A 		bmi	.L116
 383              	.LVL34:
 384              	.L34:
 385              		.loc 1 194 0 discriminator 4
 386 0334 0110F3E5 		ldrb	r1, [r3, #1]!	@ zero_extendqisi2
 387              	.LVL35:
 388 0338 000051E3 		cmp	r1, #0
 389 033c FAFFFF1A 		bne	.L33
 390              	.LVL36:
 391              	.L116:
 392 0340 0B3043E0 		sub	r3, r3, fp
 393              	.LVL37:
 394 0344 034044E0 		sub	r4, r4, r3
 395              	.LVL38:
 396 0348 01B043E2 		sub	fp, r3, #1
 397              		.loc 1 189 0 is_stmt 1
 398 034c 2070A0E3 		mov	r7, #32
 399 0350 5D0000EA 		b	.L29
ARM GAS  /var/folders/3j/4xdnk5197cv_b7cw3n33qk7r0000gn/T//ccgbYUOY.s 			page 8


 400              	.LVL39:
 401              	.L76:
 402              		.loc 1 183 0
 403 0354 0C90A0E1 		mov	r9, ip
 404              	.LVL40:
 405              	.L27:
 406              		.loc 1 211 0
 407 0358 14309DE5 		ldr	r3, [sp, #20]
 408 035c 073083E2 		add	r3, r3, #7
 409 0360 0730C3E3 		bic	r3, r3, #7
 410 0364 082083E2 		add	r2, r3, #8
 411              	.LVL41:
 412 0368 D000C3E1 		ldrd	r0, [r3]
 413 036c 14208DE5 		str	r2, [sp, #20]
 414 0370 FEFFFFEB 		bl	__aeabi_d2f
 415              	.LVL42:
 416              		.loc 1 212 0
 417 0374 0010A0E3 		mov	r1, #0
 418              		.loc 1 211 0
 419 0378 00B0A0E1 		mov	fp, r0
 420              	.LVL43:
 421              		.loc 1 212 0
 422 037c FEFFFFEB 		bl	__aeabi_fcmplt
 423              	.LVL44:
 424 0380 000050E3 		cmp	r0, #0
 425              	.LVL45:
 426              		.loc 1 136 0
 427 0384 18608D02 		addeq	r6, sp, #24
 428              		.loc 1 213 0
 429 0388 2D30A013 		movne	r3, #45
 430              		.loc 1 136 0
 431 038c 0620A001 		moveq	r2, r6
 432              		.loc 1 214 0
 433 0390 02B18B12 		addne	fp, fp, #-2147483648
 434              	.LVL46:
 435              		.loc 1 213 0
 436 0394 19208D12 		addne	r2, sp, #25
 437              		.loc 1 216 0
 438 0398 0B00A0E1 		mov	r0, fp
 439              		.loc 1 213 0
 440 039c 1830CD15 		strbne	r3, [sp, #24]
 441 03a0 0C208DE5 		str	r2, [sp, #12]
 442              	.LVL47:
 443 03a4 18608D12 		addne	r6, sp, #24
 444              		.loc 1 216 0
 445 03a8 FEFFFFEB 		bl	__aeabi_f2d
 446              	.LVL48:
 447 03ac F000CDE1 		strd	r0, [sp]
 448              	.LVL49:
 449              	.LBB41:
 450              	.LBB40:
 451              		.loc 1 83 0
 452 03b0 0B00A0E1 		mov	r0, fp
 453              	.LVL50:
 454 03b4 FEFFFFEB 		bl	__aeabi_f2iz
 455              	.LVL51:
 456              	.LBB32:
ARM GAS  /var/folders/3j/4xdnk5197cv_b7cw3n33qk7r0000gn/T//ccgbYUOY.s 			page 9


 457              	.LBB30:
 458              		.loc 1 55 0
 459 03b8 0C209DE5 		ldr	r2, [sp, #12]
 460              	.LBE30:
 461              	.LBE32:
 462              		.loc 1 83 0
 463 03bc 00B0A0E1 		mov	fp, r0
 464              	.LVL52:
 465              	.LBB33:
 466              	.LBB31:
 467              		.loc 1 55 0
 468 03c0 0BE082E2 		add	lr, r2, #11
 469              	.LVL53:
 470              		.loc 1 48 0
 471 03c4 0030A0E1 		mov	r3, r0
 472              		.loc 1 55 0
 473 03c8 0EC0A0E1 		mov	ip, lr
 474              	.LVL54:
 475              	.L44:
 476              		.loc 1 57 0
 477 03cc 930A81E0 		umull	r0, r1, r3, r10
 478              	.LVL55:
 479 03d0 A111A0E1 		lsr	r1, r1, #3
 480 03d4 0100A0E1 		mov	r0, r1
 481 03d8 011181E0 		add	r1, r1, r1, lsl #2
 482 03dc 811043E0 		sub	r1, r3, r1, lsl #1
 483              	.LVL56:
 484              		.loc 1 58 0
 485 03e0 301081E2 		add	r1, r1, #48
 486              	.LVL57:
 487              		.loc 1 61 0
 488 03e4 7110EFE6 		uxtb	r1, r1
 489              	.LVL58:
 490              		.loc 1 63 0
 491 03e8 003050E2 		subs	r3, r0, #0
 492              	.LVL59:
 493              		.loc 1 61 0
 494 03ec 01106CE5 		strb	r1, [ip, #-1]!
 495              	.LVL60:
 496              		.loc 1 63 0
 497 03f0 F5FFFF1A 		bne	.L44
 498              		.loc 1 65 0
 499 03f4 0CE04EE0 		sub	lr, lr, ip
 500              	.LVL61:
 501 03f8 0C00A0E1 		mov	r0, ip
 502              	.LVL62:
 503 03fc 0230A0E1 		mov	r3, r2
 504              	.LVL63:
 505 0400 0EC082E0 		add	ip, r2, lr
 506              	.LVL64:
 507 0404 000000EA 		b	.L46
 508              	.LVL65:
 509              	.L122:
 510 0408 0110F0E5 		ldrb	r1, [r0, #1]!	@ zero_extendqisi2
 511              	.LVL66:
 512              	.L46:
 513              		.loc 1 67 0
ARM GAS  /var/folders/3j/4xdnk5197cv_b7cw3n33qk7r0000gn/T//ccgbYUOY.s 			page 10


 514 040c 0110C3E4 		strb	r1, [r3], #1
 515              	.LVL67:
 516              		.loc 1 68 0
 517 0410 0C0053E1 		cmp	r3, ip
 518 0414 FBFFFF1A 		bne	.L122
 519              	.LBE31:
 520              	.LBE33:
 521              		.loc 1 85 0
 522 0418 2E10A0E3 		mov	r1, #46
 523 041c 01E04EE2 		sub	lr, lr, #1
 524              		.loc 1 86 0
 525 0420 0B00A0E1 		mov	r0, fp
 526              		.loc 1 85 0
 527 0424 0010C3E5 		strb	r1, [r3]
 528 0428 0EB082E0 		add	fp, r2, lr
 529              	.LVL68:
 530              		.loc 1 86 0
 531 042c FEFFFFEB 		bl	__aeabi_i2d
 532              	.LVL69:
 533 0430 0020A0E1 		mov	r2, r0
 534 0434 0130A0E1 		mov	r3, r1
 535 0438 D000CDE1 		ldrd	r0, [sp]
 536 043c FEFFFFEB 		bl	__aeabi_dsub
 537              	.LVL70:
 538 0440 0020A0E3 		mov	r2, #0
 539 0444 94339FE5 		ldr	r3, .L128+8
 540 0448 FEFFFFEB 		bl	__aeabi_dmul
 541              	.LVL71:
 542 044c FEFFFFEB 		bl	__aeabi_d2iz
 543              	.LVL72:
 544              	.LBB34:
 545              	.LBB35:
 546              		.loc 1 55 0
 547 0450 0DE08BE2 		add	lr, fp, #13
 548              	.LBE35:
 549              	.LBE34:
 550              		.loc 1 86 0
 551 0454 0020A0E1 		mov	r2, r0
 552              	.LBB38:
 553              	.LBB36:
 554              		.loc 1 55 0
 555 0458 0E30A0E1 		mov	r3, lr
 556              	.LBE36:
 557              	.LBE38:
 558              		.loc 1 85 0
 559 045c 02108BE2 		add	r1, fp, #2
 560 0460 00108DE5 		str	r1, [sp]
 561              	.LVL73:
 562 0464 08C08BE2 		add	ip, fp, #8
 563              	.LVL74:
 564              	.L47:
 565              	.LBB39:
 566              	.LBB37:
 567              		.loc 1 57 0
 568 0468 920A81E0 		umull	r0, r1, r2, r10
 569 046c A111A0E1 		lsr	r1, r1, #3
 570 0470 0100A0E1 		mov	r0, r1
ARM GAS  /var/folders/3j/4xdnk5197cv_b7cw3n33qk7r0000gn/T//ccgbYUOY.s 			page 11


 571 0474 011181E0 		add	r1, r1, r1, lsl #2
 572 0478 811042E0 		sub	r1, r2, r1, lsl #1
 573              	.LVL75:
 574              		.loc 1 58 0
 575 047c 301081E2 		add	r1, r1, #48
 576              	.LVL76:
 577              		.loc 1 61 0
 578 0480 7110EFE6 		uxtb	r1, r1
 579              	.LVL77:
 580 0484 011063E5 		strb	r1, [r3, #-1]!
 581              	.LVL78:
 582              		.loc 1 63 0
 583 0488 0C0053E1 		cmp	r3, ip
 584              		.loc 1 62 0
 585 048c 0020A0E1 		mov	r2, r0
 586              	.LVL79:
 587              		.loc 1 63 0
 588 0490 F4FFFF1A 		bne	.L47
 589              	.LVL80:
 590              		.loc 1 65 0
 591 0494 03E04EE0 		sub	lr, lr, r3
 592              	.LVL81:
 593 0498 02008EE2 		add	r0, lr, #2
 594 049c 00209DE5 		ldr	r2, [sp]
 595 04a0 00B08BE0 		add	fp, fp, r0
 596              	.LVL82:
 597 04a4 000000EA 		b	.L49
 598              	.LVL83:
 599              	.L48:
 600 04a8 0110F3E5 		ldrb	r1, [r3, #1]!	@ zero_extendqisi2
 601              	.LVL84:
 602              	.L49:
 603              		.loc 1 67 0
 604 04ac 0110C2E4 		strb	r1, [r2], #1
 605              	.LVL85:
 606              		.loc 1 68 0
 607 04b0 0B0052E1 		cmp	r2, fp
 608 04b4 FBFFFF1A 		bne	.L48
 609 04b8 00309DE5 		ldr	r3, [sp]
 610 04bc 0EB083E0 		add	fp, r3, lr
 611 04c0 06B04BE0 		sub	fp, fp, r6
 612 04c4 0B4044E0 		sub	r4, r4, fp
 613              	.LVL86:
 614 04c8 01B04BE2 		sub	fp, fp, #1
 615              	.LVL87:
 616              	.L29:
 617              	.LBE37:
 618              	.LBE39:
 619              	.LBE40:
 620              	.LBE41:
 621              		.loc 1 242 0
 622 04cc 000054E3 		cmp	r4, #0
 623 04d0 510000BA 		blt	.L123
 624              	.LVL88:
 625              	.L54:
 626              		.loc 1 244 0
 627 04d4 000058E3 		cmp	r8, #0
ARM GAS  /var/folders/3j/4xdnk5197cv_b7cw3n33qk7r0000gn/T//ccgbYUOY.s 			page 12


 628 04d8 5F00001A 		bne	.L57
 629              		.loc 1 246 0
 630 04dc 000054E3 		cmp	r4, #0
 631              		.loc 1 245 0
 632 04e0 004064E2 		rsb	r4, r4, #0
 633              	.LVL89:
 634              		.loc 1 246 0
 635 04e4 5C00000A 		beq	.L57
 636              		.loc 1 247 0
 637 04e8 0020D6E5 		ldrb	r2, [r6]	@ zero_extendqisi2
 638 04ec 003095E5 		ldr	r3, [r5]
 639 04f0 2D0052E3 		cmp	r2, #45
 640 04f4 30005703 		cmpeq	r7, #48
 641 04f8 083093E5 		ldr	r3, [r3, #8]
 642 04fc 0200001A 		bne	.L60
 643 0500 AA0000EA 		b	.L124
 644              	.LVL90:
 645              	.L125:
 646 0504 003095E5 		ldr	r3, [r5]
 647 0508 083093E5 		ldr	r3, [r3, #8]
 648              	.L60:
 649              		.loc 1 252 0 discriminator 1
 650 050c 0710A0E1 		mov	r1, r7
 651 0510 0500A0E1 		mov	r0, r5
 652 0514 33FF2FE1 		blx	r3
 653              	.LVL91:
 654              		.loc 1 253 0 discriminator 1
 655 0518 014094E2 		adds	r4, r4, #1
 656              	.LVL92:
 657 051c F8FFFF1A 		bne	.L125
 658              	.LVL93:
 659              		.loc 1 255 0
 660 0520 00005BE3 		cmp	fp, #0
 661 0524 BDFEFFBA 		blt	.L2
 662              	.LVL94:
 663              	.L61:
 664              		.loc 1 256 0
 665 0528 003095E5 		ldr	r3, [r5]
 666              		.loc 1 255 0
 667 052c 01B04BE2 		sub	fp, fp, #1
 668              	.LVL95:
 669              		.loc 1 256 0
 670 0530 083093E5 		ldr	r3, [r3, #8]
 671 0534 0110D6E4 		ldrb	r1, [r6], #1	@ zero_extendqisi2
 672              	.LVL96:
 673 0538 0500A0E1 		mov	r0, r5
 674 053c 33FF2FE1 		blx	r3
 675              	.LVL97:
 676              		.loc 1 255 0
 677 0540 01007BE3 		cmn	fp, #1
 678 0544 F7FFFF1A 		bne	.L61
 679              	.LVL98:
 680              	.L62:
 681              		.loc 1 258 0
 682 0548 000054E3 		cmp	r4, #0
 683 054c B3FEFF0A 		beq	.L2
 684              	.L64:
ARM GAS  /var/folders/3j/4xdnk5197cv_b7cw3n33qk7r0000gn/T//ccgbYUOY.s 			page 13


 685              		.loc 1 259 0
 686 0550 003095E5 		ldr	r3, [r5]
 687 0554 0710A0E1 		mov	r1, r7
 688 0558 083093E5 		ldr	r3, [r3, #8]
 689 055c 0500A0E1 		mov	r0, r5
 690 0560 33FF2FE1 		blx	r3
 691              	.LVL99:
 692              		.loc 1 258 0
 693 0564 014054E2 		subs	r4, r4, #1
 694              	.LVL100:
 695 0568 F8FFFF1A 		bne	.L64
 696 056c ABFEFFEA 		b	.L2
 697              	.LVL101:
 698              	.L75:
 699              		.loc 1 183 0
 700 0570 0C90A0E1 		mov	r9, ip
 701              	.LVL102:
 702              	.L26:
 703              		.loc 1 186 0
 704 0574 14309DE5 		ldr	r3, [sp, #20]
 705 0578 30608DE2 		add	r6, sp, #48
 706 057c 002093E5 		ldr	r2, [r3]
 707              	.LVL103:
 708 0580 043083E2 		add	r3, r3, #4
 709 0584 014044E2 		sub	r4, r4, #1
 710              	.LVL104:
 711 0588 14308DE5 		str	r3, [sp, #20]
 712              	.LVL105:
 713 058c 182066E5 		strb	r2, [r6, #-24]!
 714              		.loc 1 187 0
 715 0590 00B0A0E3 		mov	fp, #0
 716              		.loc 1 185 0
 717 0594 2070A0E3 		mov	r7, #32
 718              		.loc 1 187 0
 719 0598 CBFFFFEA 		b	.L29
 720              	.LVL106:
 721              	.L73:
 722              		.loc 1 183 0
 723 059c 0C90A0E1 		mov	r9, ip
 724              	.LVL107:
 725              	.L24:
 726              		.loc 1 226 0
 727 05a0 0A60A0E3 		mov	r6, #10
 728              	.LVL108:
 729              	.L25:
 730 05a4 14309DE5 		ldr	r3, [sp, #20]
 731              	.LBB42:
 732              	.LBB43:
 733              	.LBB44:
 734              		.loc 1 55 0
 735 05a8 23B08DE2 		add	fp, sp, #35
 736 05ac 040093E4 		ldr	r0, [r3], #4
 737              	.LBE44:
 738              	.LBE43:
 739              	.LBE42:
 740              		.loc 1 234 0
 741 05b0 14308DE5 		str	r3, [sp, #20]
ARM GAS  /var/folders/3j/4xdnk5197cv_b7cw3n33qk7r0000gn/T//ccgbYUOY.s 			page 14


 742              	.LVL109:
 743 05b4 000000EA 		b	.L51
 744              	.LVL110:
 745              	.L80:
 746              	.LBB47:
 747              	.LBB46:
 748              	.LBB45:
 749              		.loc 1 63 0
 750 05b8 02B0A0E1 		mov	fp, r2
 751              	.LVL111:
 752              	.L51:
 753 05bc 0610A0E1 		mov	r1, r6
 754 05c0 FEFFFFEB 		bl	__aeabi_uidivmod
 755              	.LVL112:
 756              		.loc 1 58 0
 757 05c4 303081E2 		add	r3, r1, #48
 758              	.LVL113:
 759              		.loc 1 59 0
 760 05c8 390053E3 		cmp	r3, #57
 761              		.loc 1 60 0
 762 05cc 373081C2 		addgt	r3, r1, #55
 763              	.LVL114:
 764              		.loc 1 61 0
 765 05d0 7330EFE6 		uxtb	r3, r3
 766              	.LVL115:
 767              		.loc 1 63 0
 768 05d4 000050E3 		cmp	r0, #0
 769              	.LVL116:
 770              		.loc 1 61 0
 771 05d8 01304BE5 		strb	r3, [fp, #-1]
 772 05dc 01204BE2 		sub	r2, fp, #1
 773              	.LVL117:
 774              		.loc 1 63 0
 775 05e0 F4FFFF1A 		bne	.L80
 776              		.loc 1 65 0
 777 05e4 23008DE2 		add	r0, sp, #35
 778              	.LVL118:
 779 05e8 18608DE2 		add	r6, sp, #24
 780              	.LVL119:
 781 05ec 020040E0 		sub	r0, r0, r2
 782              	.LVL120:
 783 05f0 0610A0E1 		mov	r1, r6
 784 05f4 002082E0 		add	r2, r2, r0
 785              	.LVL121:
 786 05f8 000000EA 		b	.L53
 787              	.LVL122:
 788              	.L52:
 789 05fc 0130DBE4 		ldrb	r3, [fp], #1	@ zero_extendqisi2
 790              	.LVL123:
 791              	.L53:
 792              		.loc 1 68 0
 793 0600 0B0052E1 		cmp	r2, fp
 794              		.loc 1 67 0
 795 0604 0130C1E4 		strb	r3, [r1], #1
 796              	.LVL124:
 797              		.loc 1 68 0
 798 0608 FBFFFF1A 		bne	.L52
ARM GAS  /var/folders/3j/4xdnk5197cv_b7cw3n33qk7r0000gn/T//ccgbYUOY.s 			page 15


 799 060c 004044E0 		sub	r4, r4, r0
 800              	.LVL125:
 801              	.LBE45:
 802              	.LBE46:
 803              	.LBE47:
 804              		.loc 1 242 0
 805 0610 000054E3 		cmp	r4, #0
 806 0614 01B040E2 		sub	fp, r0, #1
 807              	.LVL126:
 808 0618 ADFFFFAA 		bge	.L54
 809              	.LVL127:
 810              	.L123:
 811              		.loc 1 244 0
 812 061c 000058E3 		cmp	r8, #0
 813 0620 2300001A 		bne	.L126
 814              		.loc 1 255 0
 815 0624 00005BE3 		cmp	fp, #0
 816              		.loc 1 245 0
 817 0628 0840A0A1 		movge	r4, r8
 818              		.loc 1 255 0
 819 062c BDFFFFAA 		bge	.L61
 820 0630 7AFEFFEA 		b	.L2
 821              	.LVL128:
 822              	.L72:
 823              		.loc 1 183 0
 824 0634 0C90A0E1 		mov	r9, ip
 825              	.LVL129:
 826              	.L23:
 827              		.loc 1 227 0
 828 0638 0860A0E3 		mov	r6, #8
 829 063c D8FFFFEA 		b	.L25
 830              	.LVL130:
 831              	.L71:
 832              		.loc 1 183 0
 833 0640 0130A0E1 		mov	r3, r1
 834              	.LVL131:
 835 0644 0C90A0E1 		mov	r9, ip
 836              	.LVL132:
 837              	.L20:
 838              		.loc 1 238 0
 839 0648 30608DE2 		add	r6, sp, #48
 840              		.loc 1 239 0
 841 064c 00B0A0E3 		mov	fp, #0
 842 0650 014044E2 		sub	r4, r4, #1
 843              	.LVL133:
 844              		.loc 1 238 0
 845 0654 183066E5 		strb	r3, [r6, #-24]!
 846              		.loc 1 239 0
 847 0658 9BFFFFEA 		b	.L29
 848              	.LVL134:
 849              	.L57:
 850              		.loc 1 255 0
 851 065c 00005BE3 		cmp	fp, #0
 852 0660 B0FFFFAA 		bge	.L61
 853 0664 B7FFFFEA 		b	.L62
 854              	.LVL135:
 855              	.L120:
ARM GAS  /var/folders/3j/4xdnk5197cv_b7cw3n33qk7r0000gn/T//ccgbYUOY.s 			page 16


 856              		.loc 1 160 0
 857 0668 0060A0E3 		mov	r6, #0
 858 066c 14E09DE5 		ldr	lr, [sp, #20]
 859              		.loc 1 159 0
 860 0670 0620A0E1 		mov	r2, r6
 861 0674 030000EA 		b	.L15
 862              	.LVL136:
 863              	.L127:
 864              		.loc 1 166 0
 865 0678 0160A0E3 		mov	r6, #1
 866 067c 0030DEE5 		ldrb	r3, [lr]	@ zero_extendqisi2
 867              	.LVL137:
 868 0680 04E08EE2 		add	lr, lr, #4
 869              	.LVL138:
 870              	.L13:
 871              		.loc 1 170 0
 872 0684 802083E0 		add	r2, r3, r0, lsl #1
 873              	.LVL139:
 874              	.L15:
 875              		.loc 1 162 0
 876 0688 0110DCE4 		ldrb	r1, [ip], #1	@ zero_extendqisi2
 877              	.LVL140:
 878              		.loc 1 169 0
 879 068c 020182E0 		add	r0, r2, r2, lsl #2
 880              		.loc 1 163 0
 881 0690 303041E2 		sub	r3, r1, #48
 882 0694 7330EFE6 		uxtb	r3, r3
 883 0698 090053E3 		cmp	r3, #9
 884 069c F8FFFF9A 		bls	.L13
 885              		.loc 1 165 0
 886 06a0 2A0051E3 		cmp	r1, #42
 887 06a4 F3FFFF0A 		beq	.L127
 888 06a8 000056E3 		cmp	r6, #0
 889 06ac 14E08D15 		strne	lr, [sp, #20]
 890 06b0 8FFEFFEA 		b	.L12
 891              	.LVL141:
 892              	.L126:
 893              		.loc 1 255 0
 894 06b4 00005BE3 		cmp	fp, #0
 895              		.loc 1 243 0
 896 06b8 0040A0A3 		movge	r4, #0
 897              		.loc 1 255 0
 898 06bc 99FFFFAA 		bge	.L61
 899 06c0 56FEFFEA 		b	.L2
 900              	.LVL142:
 901              	.L74:
 902              		.loc 1 183 0
 903 06c4 0C90A0E1 		mov	r9, ip
 904 06c8 1060A0E3 		mov	r6, #16
 905 06cc B4FFFFEA 		b	.L25
 906              	.LVL143:
 907              	.L92:
 908 06d0 14209DE5 		ldr	r2, [sp, #20]
 909              	.LVL144:
 910              	.L36:
 911              		.loc 1 200 0
 912 06d4 043082E2 		add	r3, r2, #4
ARM GAS  /var/folders/3j/4xdnk5197cv_b7cw3n33qk7r0000gn/T//ccgbYUOY.s 			page 17


 913 06d8 00E092E5 		ldr	lr, [r2]
 914 06dc 14308DE5 		str	r3, [sp, #20]
 915              	.L37:
 916              	.LVL145:
 917              		.loc 1 203 0
 918 06e0 00005EE3 		cmp	lr, #0
 919              	.LVL146:
 920              		.loc 1 136 0
 921 06e4 18608DA2 		addge	r6, sp, #24
 922 06e8 06C0A0A1 		movge	ip, r6
 923              		.loc 1 204 0
 924 06ec 19C08DB2 		addlt	ip, sp, #25
 925 06f0 2D30A0B3 		movlt	r3, #45
 926              	.LBB48:
 927              	.LBB49:
 928              	.LBB50:
 929              		.loc 1 55 0
 930 06f4 0BB08CE2 		add	fp, ip, #11
 931 06f8 0B20A0E1 		mov	r2, fp
 932              	.LBE50:
 933              	.LBE49:
 934              	.LBE48:
 935              		.loc 1 205 0
 936 06fc 00E06EB2 		rsblt	lr, lr, #0
 937              	.LVL147:
 938              		.loc 1 204 0
 939 0700 1830CDB5 		strblt	r3, [sp, #24]
 940 0704 18608DB2 		addlt	r6, sp, #24
 941              	.LVL148:
 942              	.L39:
 943              	.LBB53:
 944              	.LBB52:
 945              	.LBB51:
 946              		.loc 1 57 0
 947 0708 9E0A81E0 		umull	r0, r1, lr, r10
 948 070c A131A0E1 		lsr	r3, r1, #3
 949 0710 0310A0E1 		mov	r1, r3
 950 0714 033183E0 		add	r3, r3, r3, lsl #2
 951 0718 83304EE0 		sub	r3, lr, r3, lsl #1
 952              	.LVL149:
 953              		.loc 1 58 0
 954 071c 303083E2 		add	r3, r3, #48
 955              	.LVL150:
 956              		.loc 1 61 0
 957 0720 7330EFE6 		uxtb	r3, r3
 958              	.LVL151:
 959              		.loc 1 63 0
 960 0724 00E051E2 		subs	lr, r1, #0
 961              	.LVL152:
 962              		.loc 1 61 0
 963 0728 013062E5 		strb	r3, [r2, #-1]!
 964              	.LVL153:
 965              		.loc 1 63 0
 966 072c F5FFFF1A 		bne	.L39
 967              	.LVL154:
 968              		.loc 1 65 0
 969 0730 02104BE0 		sub	r1, fp, r2
ARM GAS  /var/folders/3j/4xdnk5197cv_b7cw3n33qk7r0000gn/T//ccgbYUOY.s 			page 18


 970              	.LVL155:
 971 0734 01108CE0 		add	r1, ip, r1
 972 0738 000000EA 		b	.L41
 973              	.LVL156:
 974              	.L40:
 975 073c 0130F2E5 		ldrb	r3, [r2, #1]!	@ zero_extendqisi2
 976              	.LVL157:
 977              	.L41:
 978              		.loc 1 67 0
 979 0740 0130CCE4 		strb	r3, [ip], #1
 980              	.LVL158:
 981              		.loc 1 68 0
 982 0744 01005CE1 		cmp	ip, r1
 983 0748 FBFFFF1A 		bne	.L40
 984 074c 06C04CE0 		sub	ip, ip, r6
 985              	.LVL159:
 986 0750 0C4044E0 		sub	r4, r4, ip
 987              	.LVL160:
 988 0754 01B04CE2 		sub	fp, ip, #1
 989              	.LVL161:
 990 0758 5BFFFFEA 		b	.L29
 991              	.LVL162:
 992              	.L84:
 993              	.LBE51:
 994              	.LBE52:
 995              	.LBE53:
 996              		.loc 1 183 0
 997 075c 1060A0E3 		mov	r6, #16
 998 0760 8FFFFFEA 		b	.L25
 999              	.LVL163:
 1000              	.L21:
 1001 0764 14209DE5 		ldr	r2, [sp, #20]
 1002              	.LVL164:
 1003              		.loc 1 199 0
 1004 0768 190053E3 		cmp	r3, #25
 1005 076c 0230A0E1 		mov	r3, r2
 1006              	.LVL165:
 1007 0770 04E093E4 		ldr	lr, [r3], #4
 1008 0774 0C90A0E1 		mov	r9, ip
 1009              		.loc 1 202 0
 1010 0778 14308D85 		strhi	r3, [sp, #20]
 1011              		.loc 1 199 0
 1012 077c D7FFFF8A 		bhi	.L37
 1013              	.LVL166:
 1014 0780 D3FFFFEA 		b	.L36
 1015              	.LVL167:
 1016              	.L30:
 1017              		.loc 1 192 0
 1018 0784 000052E3 		cmp	r2, #0
 1019 0788 54B09FE5 		ldr	fp, .L128+12
 1020 078c 0F00000A 		beq	.L86
 1021 0790 0B60A0E1 		mov	r6, fp
 1022              	.LVL168:
 1023              	.L67:
 1024              		.loc 1 194 0
 1025 0794 012042E2 		sub	r2, r2, #1
 1026              	.LVL169:
ARM GAS  /var/folders/3j/4xdnk5197cv_b7cw3n33qk7r0000gn/T//ccgbYUOY.s 			page 19


 1027 0798 E1FEFFEA 		b	.L66
 1028              	.LVL170:
 1029              	.L121:
 1030 079c 000053E3 		cmp	r3, #0
 1031 07a0 00B0E003 		mvneq	fp, #0
 1032              		.loc 1 189 0
 1033 07a4 2070A003 		moveq	r7, #32
 1034              		.loc 1 194 0
 1035 07a8 F9FFFF1A 		bne	.L67
 1036 07ac 46FFFFEA 		b	.L29
 1037              	.LVL171:
 1038              	.L124:
 1039              		.loc 1 248 0
 1040 07b0 2D10A0E3 		mov	r1, #45
 1041 07b4 0500A0E1 		mov	r0, r5
 1042 07b8 33FF2FE1 		blx	r3
 1043              	.LVL172:
 1044 07bc 003095E5 		ldr	r3, [r5]
 1045 07c0 016086E2 		add	r6, r6, #1
 1046              	.LVL173:
 1047 07c4 083093E5 		ldr	r3, [r3, #8]
 1048 07c8 01B04BE2 		sub	fp, fp, #1
 1049 07cc 4EFFFFEA 		b	.L60
 1050              	.LVL174:
 1051              	.L86:
 1052              		.loc 1 192 0
 1053 07d0 0C609FE5 		ldr	r6, .L128+12
 1054 07d4 D1FEFFEA 		b	.L115
 1055              	.L129:
 1056              		.align	2
 1057              	.L128:
 1058 07d8 CDCCCCCC 		.word	-858993459
 1059 07dc FE7F0000 		.word	32766
 1060 07e0 006AF840 		.word	1090021888
 1061 07e4 00000000 		.word	.LC0
 1062              		.cfi_endproc
 1063              	.LFE10:
 1064              		.size	chprintf, .-chprintf
 1065              		.section	.rodata.chprintf.str1.4,"aMS",%progbits,1
 1066              		.align	2
 1067              	.LC0:
 1068 0000 286E756C 		.ascii	"(null)\000"
 1068      6C2900
 1069              		.text
 1070              	.Letext0:
 1071              		.file 2 "/usr/local/Cellar/gcc-arm-none-eabi/20180627/lib/gcc/arm-none-eabi/7.3.1/include/stdarg.h
 1072              		.file 3 "/usr/local/Cellar/gcc-arm-none-eabi/20180627/lib/gcc/arm-none-eabi/7.3.1/include/stddef.h
 1073              		.file 4 "/usr/local/Cellar/gcc-arm-none-eabi/20180627/arm-none-eabi/include/machine/_default_types
 1074              		.file 5 "/usr/local/Cellar/gcc-arm-none-eabi/20180627/arm-none-eabi/include/sys/_stdint.h"
 1075              		.file 6 "..//os/ports/GCC/ARM/chtypes.h"
 1076              		.file 7 "..//os/kernel/include/chlists.h"
 1077              		.file 8 "<built-in>"
 1078              		.file 9 "..//os/kernel/include/chthreads.h"
 1079              		.file 10 "..//os/ports/GCC/ARM/chcore.h"
 1080              		.file 11 "..//os/kernel/include/chvt.h"
 1081              		.file 12 "..//os/kernel/include/chschd.h"
 1082              		.file 13 "..//os/kernel/include/chmtx.h"
ARM GAS  /var/folders/3j/4xdnk5197cv_b7cw3n33qk7r0000gn/T//ccgbYUOY.s 			page 20


 1083              		.file 14 "..//os/kernel/include/chregistry.h"
 1084              		.file 15 "..//os/kernel/include/chstreams.h"
 1085              		.file 16 "..//os/kernel/include/ch.h"
 1086              		.section	.debug_info,"",%progbits
 1087              	.Ldebug_info0:
 1088 0000 6A0B0000 		.4byte	0xb6a
 1089 0004 0400     		.2byte	0x4
 1090 0006 00000000 		.4byte	.Ldebug_abbrev0
 1091 000a 04       		.byte	0x4
 1092 000b 01       		.uleb128 0x1
 1093 000c 27010000 		.4byte	.LASF120
 1094 0010 0C       		.byte	0xc
 1095 0011 B7030000 		.4byte	.LASF121
 1096 0015 00000000 		.4byte	.LASF122
 1097 0019 88000000 		.4byte	.Ldebug_ranges0+0x88
 1098 001d 00000000 		.4byte	0
 1099 0021 00000000 		.4byte	.Ldebug_line0
 1100 0025 02       		.uleb128 0x2
 1101 0026 67030000 		.4byte	.LASF0
 1102 002a 02       		.byte	0x2
 1103 002b 28       		.byte	0x28
 1104 002c 30000000 		.4byte	0x30
 1105 0030 03       		.uleb128 0x3
 1106 0031 EC010000 		.4byte	.LASF30
 1107 0035 04       		.byte	0x4
 1108 0036 08       		.byte	0x8
 1109 0037 00       		.byte	0
 1110 0038 47000000 		.4byte	0x47
 1111 003c 04       		.uleb128 0x4
 1112 003d 1D050000 		.4byte	.LASF77
 1113 0041 47000000 		.4byte	0x47
 1114 0045 00       		.byte	0
 1115 0046 00       		.byte	0
 1116 0047 05       		.uleb128 0x5
 1117 0048 04       		.byte	0x4
 1118 0049 02       		.uleb128 0x2
 1119 004a 84000000 		.4byte	.LASF1
 1120 004e 02       		.byte	0x2
 1121 004f 63       		.byte	0x63
 1122 0050 25000000 		.4byte	0x25
 1123 0054 06       		.uleb128 0x6
 1124 0055 04       		.byte	0x4
 1125 0056 05       		.byte	0x5
 1126 0057 696E7400 		.ascii	"int\000"
 1127 005b 02       		.uleb128 0x2
 1128 005c 66000000 		.4byte	.LASF2
 1129 0060 03       		.byte	0x3
 1130 0061 D8       		.byte	0xd8
 1131 0062 66000000 		.4byte	0x66
 1132 0066 07       		.uleb128 0x7
 1133 0067 04       		.byte	0x4
 1134 0068 07       		.byte	0x7
 1135 0069 78020000 		.4byte	.LASF3
 1136 006d 07       		.uleb128 0x7
 1137 006e 01       		.byte	0x1
 1138 006f 06       		.byte	0x6
 1139 0070 E8000000 		.4byte	.LASF4
ARM GAS  /var/folders/3j/4xdnk5197cv_b7cw3n33qk7r0000gn/T//ccgbYUOY.s 			page 21


 1140 0074 02       		.uleb128 0x2
 1141 0075 7A000000 		.4byte	.LASF5
 1142 0079 04       		.byte	0x4
 1143 007a 2B       		.byte	0x2b
 1144 007b 7F000000 		.4byte	0x7f
 1145 007f 07       		.uleb128 0x7
 1146 0080 01       		.byte	0x1
 1147 0081 08       		.byte	0x8
 1148 0082 FB030000 		.4byte	.LASF6
 1149 0086 07       		.uleb128 0x7
 1150 0087 02       		.byte	0x2
 1151 0088 05       		.byte	0x5
 1152 0089 13040000 		.4byte	.LASF7
 1153 008d 02       		.uleb128 0x2
 1154 008e C4040000 		.4byte	.LASF8
 1155 0092 04       		.byte	0x4
 1156 0093 39       		.byte	0x39
 1157 0094 98000000 		.4byte	0x98
 1158 0098 07       		.uleb128 0x7
 1159 0099 02       		.byte	0x2
 1160 009a 07       		.byte	0x7
 1161 009b D8020000 		.4byte	.LASF9
 1162 009f 02       		.uleb128 0x2
 1163 00a0 0D050000 		.4byte	.LASF10
 1164 00a4 04       		.byte	0x4
 1165 00a5 4D       		.byte	0x4d
 1166 00a6 AA000000 		.4byte	0xaa
 1167 00aa 07       		.uleb128 0x7
 1168 00ab 04       		.byte	0x4
 1169 00ac 05       		.byte	0x5
 1170 00ad DA010000 		.4byte	.LASF11
 1171 00b1 02       		.uleb128 0x2
 1172 00b2 38020000 		.4byte	.LASF12
 1173 00b6 04       		.byte	0x4
 1174 00b7 4F       		.byte	0x4f
 1175 00b8 BC000000 		.4byte	0xbc
 1176 00bc 07       		.uleb128 0x7
 1177 00bd 04       		.byte	0x4
 1178 00be 07       		.byte	0x7
 1179 00bf 8D020000 		.4byte	.LASF13
 1180 00c3 07       		.uleb128 0x7
 1181 00c4 08       		.byte	0x8
 1182 00c5 05       		.byte	0x5
 1183 00c6 DA000000 		.4byte	.LASF14
 1184 00ca 07       		.uleb128 0x7
 1185 00cb 08       		.byte	0x8
 1186 00cc 07       		.byte	0x7
 1187 00cd 98000000 		.4byte	.LASF15
 1188 00d1 02       		.uleb128 0x2
 1189 00d2 64050000 		.4byte	.LASF16
 1190 00d6 05       		.byte	0x5
 1191 00d7 18       		.byte	0x18
 1192 00d8 74000000 		.4byte	0x74
 1193 00dc 08       		.uleb128 0x8
 1194 00dd D1000000 		.4byte	0xd1
 1195 00e1 02       		.uleb128 0x2
 1196 00e2 F6010000 		.4byte	.LASF17
ARM GAS  /var/folders/3j/4xdnk5197cv_b7cw3n33qk7r0000gn/T//ccgbYUOY.s 			page 22


 1197 00e6 05       		.byte	0x5
 1198 00e7 24       		.byte	0x24
 1199 00e8 8D000000 		.4byte	0x8d
 1200 00ec 02       		.uleb128 0x2
 1201 00ed F3030000 		.4byte	.LASF18
 1202 00f1 05       		.byte	0x5
 1203 00f2 2C       		.byte	0x2c
 1204 00f3 9F000000 		.4byte	0x9f
 1205 00f7 02       		.uleb128 0x2
 1206 00f8 86040000 		.4byte	.LASF19
 1207 00fc 05       		.byte	0x5
 1208 00fd 30       		.byte	0x30
 1209 00fe B1000000 		.4byte	0xb1
 1210 0102 02       		.uleb128 0x2
 1211 0103 11010000 		.4byte	.LASF20
 1212 0107 06       		.byte	0x6
 1213 0108 29       		.byte	0x29
 1214 0109 EC000000 		.4byte	0xec
 1215 010d 02       		.uleb128 0x2
 1216 010e F9020000 		.4byte	.LASF21
 1217 0112 06       		.byte	0x6
 1218 0113 2A       		.byte	0x2a
 1219 0114 D1000000 		.4byte	0xd1
 1220 0118 02       		.uleb128 0x2
 1221 0119 E3010000 		.4byte	.LASF22
 1222 011d 06       		.byte	0x6
 1223 011e 2B       		.byte	0x2b
 1224 011f D1000000 		.4byte	0xd1
 1225 0123 02       		.uleb128 0x2
 1226 0124 D1030000 		.4byte	.LASF23
 1227 0128 06       		.byte	0x6
 1228 0129 2C       		.byte	0x2c
 1229 012a D1000000 		.4byte	0xd1
 1230 012e 02       		.uleb128 0x2
 1231 012f B0040000 		.4byte	.LASF24
 1232 0133 06       		.byte	0x6
 1233 0134 2D       		.byte	0x2d
 1234 0135 D1000000 		.4byte	0xd1
 1235 0139 02       		.uleb128 0x2
 1236 013a EB030000 		.4byte	.LASF25
 1237 013e 06       		.byte	0x6
 1238 013f 2E       		.byte	0x2e
 1239 0140 F7000000 		.4byte	0xf7
 1240 0144 02       		.uleb128 0x2
 1241 0145 EB020000 		.4byte	.LASF26
 1242 0149 06       		.byte	0x6
 1243 014a 2F       		.byte	0x2f
 1244 014b EC000000 		.4byte	0xec
 1245 014f 02       		.uleb128 0x2
 1246 0150 0D030000 		.4byte	.LASF27
 1247 0154 06       		.byte	0x6
 1248 0155 31       		.byte	0x31
 1249 0156 F7000000 		.4byte	0xf7
 1250 015a 02       		.uleb128 0x2
 1251 015b F8040000 		.4byte	.LASF28
 1252 015f 06       		.byte	0x6
 1253 0160 33       		.byte	0x33
ARM GAS  /var/folders/3j/4xdnk5197cv_b7cw3n33qk7r0000gn/T//ccgbYUOY.s 			page 23


 1254 0161 F7000000 		.4byte	0xf7
 1255 0165 09       		.uleb128 0x9
 1256 0166 5A010000 		.4byte	0x15a
 1257 016a 02       		.uleb128 0x2
 1258 016b 67040000 		.4byte	.LASF29
 1259 016f 07       		.byte	0x7
 1260 0170 23       		.byte	0x23
 1261 0171 75010000 		.4byte	0x175
 1262 0175 03       		.uleb128 0x3
 1263 0176 67040000 		.4byte	.LASF29
 1264 017a 44       		.byte	0x44
 1265 017b 09       		.byte	0x9
 1266 017c 57       		.byte	0x57
 1267 017d 66020000 		.4byte	0x266
 1268 0181 0A       		.uleb128 0xa
 1269 0182 49040000 		.4byte	.LASF31
 1270 0186 09       		.byte	0x9
 1271 0187 58       		.byte	0x58
 1272 0188 87020000 		.4byte	0x287
 1273 018c 00       		.byte	0
 1274 018d 0A       		.uleb128 0xa
 1275 018e E4030000 		.4byte	.LASF32
 1276 0192 09       		.byte	0x9
 1277 0193 5A       		.byte	0x5a
 1278 0194 87020000 		.4byte	0x287
 1279 0198 04       		.byte	0x4
 1280 0199 0A       		.uleb128 0xa
 1281 019a C6000000 		.4byte	.LASF33
 1282 019e 09       		.byte	0x9
 1283 019f 5C       		.byte	0x5c
 1284 01a0 39010000 		.4byte	0x139
 1285 01a4 08       		.byte	0x8
 1286 01a5 0A       		.uleb128 0xa
 1287 01a6 C1050000 		.4byte	.LASF34
 1288 01aa 09       		.byte	0x9
 1289 01ab 5D       		.byte	0x5d
 1290 01ac 40030000 		.4byte	0x340
 1291 01b0 0C       		.byte	0xc
 1292 01b1 0A       		.uleb128 0xa
 1293 01b2 20020000 		.4byte	.LASF35
 1294 01b6 09       		.byte	0x9
 1295 01b7 5F       		.byte	0x5f
 1296 01b8 87020000 		.4byte	0x287
 1297 01bc 10       		.byte	0x10
 1298 01bd 0A       		.uleb128 0xa
 1299 01be 82030000 		.4byte	.LASF36
 1300 01c2 09       		.byte	0x9
 1301 01c3 60       		.byte	0x60
 1302 01c4 87020000 		.4byte	0x287
 1303 01c8 14       		.byte	0x14
 1304 01c9 0A       		.uleb128 0xa
 1305 01ca 79050000 		.4byte	.LASF37
 1306 01ce 09       		.byte	0x9
 1307 01cf 67       		.byte	0x67
 1308 01d0 02050000 		.4byte	0x502
 1309 01d4 18       		.byte	0x18
 1310 01d5 0A       		.uleb128 0xa
ARM GAS  /var/folders/3j/4xdnk5197cv_b7cw3n33qk7r0000gn/T//ccgbYUOY.s 			page 24


 1311 01d6 1D040000 		.4byte	.LASF38
 1312 01da 09       		.byte	0x9
 1313 01db 72       		.byte	0x72
 1314 01dc 18010000 		.4byte	0x118
 1315 01e0 1C       		.byte	0x1c
 1316 01e1 0A       		.uleb128 0xa
 1317 01e2 5F040000 		.4byte	.LASF39
 1318 01e6 09       		.byte	0x9
 1319 01e7 76       		.byte	0x76
 1320 01e8 0D010000 		.4byte	0x10d
 1321 01ec 1D       		.byte	0x1d
 1322 01ed 0A       		.uleb128 0xa
 1323 01ee 4D050000 		.4byte	.LASF40
 1324 01f2 09       		.byte	0x9
 1325 01f3 7B       		.byte	0x7b
 1326 01f4 23010000 		.4byte	0x123
 1327 01f8 1E       		.byte	0x1e
 1328 01f9 0A       		.uleb128 0xa
 1329 01fa 25040000 		.4byte	.LASF41
 1330 01fe 09       		.byte	0x9
 1331 01ff 81       		.byte	0x81
 1332 0200 2E010000 		.4byte	0x12e
 1333 0204 1F       		.byte	0x1f
 1334 0205 0A       		.uleb128 0xa
 1335 0206 22050000 		.4byte	.LASF42
 1336 020a 09       		.byte	0x9
 1337 020b 88       		.byte	0x88
 1338 020c 65010000 		.4byte	0x165
 1339 0210 20       		.byte	0x20
 1340 0211 0B       		.uleb128 0xb
 1341 0212 705F7500 		.ascii	"p_u\000"
 1342 0216 09       		.byte	0x9
 1343 0217 AD       		.byte	0xad
 1344 0218 CD040000 		.4byte	0x4cd
 1345 021c 24       		.byte	0x24
 1346 021d 0A       		.uleb128 0xa
 1347 021e C7050000 		.4byte	.LASF43
 1348 0222 09       		.byte	0x9
 1349 0223 B2       		.byte	0xb2
 1350 0224 AD020000 		.4byte	0x2ad
 1351 0228 28       		.byte	0x28
 1352 0229 0A       		.uleb128 0xa
 1353 022a 30050000 		.4byte	.LASF44
 1354 022e 09       		.byte	0x9
 1355 022f B8       		.byte	0xb8
 1356 0230 8D020000 		.4byte	0x28d
 1357 0234 2C       		.byte	0x2c
 1358 0235 0A       		.uleb128 0xa
 1359 0236 60000000 		.4byte	.LASF45
 1360 023a 09       		.byte	0x9
 1361 023b BC       		.byte	0xbc
 1362 023c 44010000 		.4byte	0x144
 1363 0240 34       		.byte	0x34
 1364 0241 0A       		.uleb128 0xa
 1365 0242 7B040000 		.4byte	.LASF46
 1366 0246 09       		.byte	0x9
 1367 0247 C2       		.byte	0xc2
ARM GAS  /var/folders/3j/4xdnk5197cv_b7cw3n33qk7r0000gn/T//ccgbYUOY.s 			page 25


 1368 0248 4F010000 		.4byte	0x14f
 1369 024c 38       		.byte	0x38
 1370 024d 0A       		.uleb128 0xa
 1371 024e 09040000 		.4byte	.LASF47
 1372 0252 09       		.byte	0x9
 1373 0253 C9       		.byte	0xc9
 1374 0254 14050000 		.4byte	0x514
 1375 0258 3C       		.byte	0x3c
 1376 0259 0A       		.uleb128 0xa
 1377 025a 02050000 		.4byte	.LASF48
 1378 025e 09       		.byte	0x9
 1379 025f CD       		.byte	0xcd
 1380 0260 39010000 		.4byte	0x139
 1381 0264 40       		.byte	0x40
 1382 0265 00       		.byte	0
 1383 0266 0C       		.uleb128 0xc
 1384 0267 08       		.byte	0x8
 1385 0268 07       		.byte	0x7
 1386 0269 5A       		.byte	0x5a
 1387 026a 87020000 		.4byte	0x287
 1388 026e 0A       		.uleb128 0xa
 1389 026f 49040000 		.4byte	.LASF31
 1390 0273 07       		.byte	0x7
 1391 0274 5B       		.byte	0x5b
 1392 0275 87020000 		.4byte	0x287
 1393 0279 00       		.byte	0
 1394 027a 0A       		.uleb128 0xa
 1395 027b E4030000 		.4byte	.LASF32
 1396 027f 07       		.byte	0x7
 1397 0280 5D       		.byte	0x5d
 1398 0281 87020000 		.4byte	0x287
 1399 0285 04       		.byte	0x4
 1400 0286 00       		.byte	0
 1401 0287 0D       		.uleb128 0xd
 1402 0288 04       		.byte	0x4
 1403 0289 6A010000 		.4byte	0x16a
 1404 028d 02       		.uleb128 0x2
 1405 028e 90030000 		.4byte	.LASF49
 1406 0292 07       		.byte	0x7
 1407 0293 5F       		.byte	0x5f
 1408 0294 66020000 		.4byte	0x266
 1409 0298 0C       		.uleb128 0xc
 1410 0299 04       		.byte	0x4
 1411 029a 07       		.byte	0x7
 1412 029b 64       		.byte	0x64
 1413 029c AD020000 		.4byte	0x2ad
 1414 02a0 0A       		.uleb128 0xa
 1415 02a1 49040000 		.4byte	.LASF31
 1416 02a5 07       		.byte	0x7
 1417 02a6 66       		.byte	0x66
 1418 02a7 87020000 		.4byte	0x287
 1419 02ab 00       		.byte	0
 1420 02ac 00       		.byte	0
 1421 02ad 02       		.uleb128 0x2
 1422 02ae 01030000 		.4byte	.LASF50
 1423 02b2 07       		.byte	0x7
 1424 02b3 69       		.byte	0x69
ARM GAS  /var/folders/3j/4xdnk5197cv_b7cw3n33qk7r0000gn/T//ccgbYUOY.s 			page 26


 1425 02b4 98020000 		.4byte	0x298
 1426 02b8 02       		.uleb128 0x2
 1427 02b9 24030000 		.4byte	.LASF51
 1428 02bd 0A       		.byte	0xa
 1429 02be 9D       		.byte	0x9d
 1430 02bf F7000000 		.4byte	0xf7
 1431 02c3 02       		.uleb128 0x2
 1432 02c4 43020000 		.4byte	.LASF52
 1433 02c8 0A       		.byte	0xa
 1434 02c9 A2       		.byte	0xa2
 1435 02ca 47000000 		.4byte	0x47
 1436 02ce 03       		.uleb128 0x3
 1437 02cf 29050000 		.4byte	.LASF53
 1438 02d3 24       		.byte	0x24
 1439 02d4 0A       		.byte	0xa
 1440 02d5 B9       		.byte	0xb9
 1441 02d6 40030000 		.4byte	0x340
 1442 02da 0B       		.uleb128 0xb
 1443 02db 723400   		.ascii	"r4\000"
 1444 02de 0A       		.byte	0xa
 1445 02df BA       		.byte	0xba
 1446 02e0 C3020000 		.4byte	0x2c3
 1447 02e4 00       		.byte	0
 1448 02e5 0B       		.uleb128 0xb
 1449 02e6 723500   		.ascii	"r5\000"
 1450 02e9 0A       		.byte	0xa
 1451 02ea BB       		.byte	0xbb
 1452 02eb C3020000 		.4byte	0x2c3
 1453 02ef 04       		.byte	0x4
 1454 02f0 0B       		.uleb128 0xb
 1455 02f1 723600   		.ascii	"r6\000"
 1456 02f4 0A       		.byte	0xa
 1457 02f5 BC       		.byte	0xbc
 1458 02f6 C3020000 		.4byte	0x2c3
 1459 02fa 08       		.byte	0x8
 1460 02fb 0B       		.uleb128 0xb
 1461 02fc 723700   		.ascii	"r7\000"
 1462 02ff 0A       		.byte	0xa
 1463 0300 BD       		.byte	0xbd
 1464 0301 C3020000 		.4byte	0x2c3
 1465 0305 0C       		.byte	0xc
 1466 0306 0B       		.uleb128 0xb
 1467 0307 723800   		.ascii	"r8\000"
 1468 030a 0A       		.byte	0xa
 1469 030b BE       		.byte	0xbe
 1470 030c C3020000 		.4byte	0x2c3
 1471 0310 10       		.byte	0x10
 1472 0311 0B       		.uleb128 0xb
 1473 0312 723900   		.ascii	"r9\000"
 1474 0315 0A       		.byte	0xa
 1475 0316 BF       		.byte	0xbf
 1476 0317 C3020000 		.4byte	0x2c3
 1477 031b 14       		.byte	0x14
 1478 031c 0B       		.uleb128 0xb
 1479 031d 72313000 		.ascii	"r10\000"
 1480 0321 0A       		.byte	0xa
 1481 0322 C0       		.byte	0xc0
ARM GAS  /var/folders/3j/4xdnk5197cv_b7cw3n33qk7r0000gn/T//ccgbYUOY.s 			page 27


 1482 0323 C3020000 		.4byte	0x2c3
 1483 0327 18       		.byte	0x18
 1484 0328 0B       		.uleb128 0xb
 1485 0329 72313100 		.ascii	"r11\000"
 1486 032d 0A       		.byte	0xa
 1487 032e C1       		.byte	0xc1
 1488 032f C3020000 		.4byte	0x2c3
 1489 0333 1C       		.byte	0x1c
 1490 0334 0B       		.uleb128 0xb
 1491 0335 6C7200   		.ascii	"lr\000"
 1492 0338 0A       		.byte	0xa
 1493 0339 C2       		.byte	0xc2
 1494 033a C3020000 		.4byte	0x2c3
 1495 033e 20       		.byte	0x20
 1496 033f 00       		.byte	0
 1497 0340 03       		.uleb128 0x3
 1498 0341 D0020000 		.4byte	.LASF54
 1499 0345 04       		.byte	0x4
 1500 0346 0A       		.byte	0xa
 1501 0347 CA       		.byte	0xca
 1502 0348 59030000 		.4byte	0x359
 1503 034c 0B       		.uleb128 0xb
 1504 034d 72313300 		.ascii	"r13\000"
 1505 0351 0A       		.byte	0xa
 1506 0352 CB       		.byte	0xcb
 1507 0353 59030000 		.4byte	0x359
 1508 0357 00       		.byte	0
 1509 0358 00       		.byte	0
 1510 0359 0D       		.uleb128 0xd
 1511 035a 04       		.byte	0x4
 1512 035b CE020000 		.4byte	0x2ce
 1513 035f 02       		.uleb128 0x2
 1514 0360 B3020000 		.4byte	.LASF55
 1515 0364 0B       		.byte	0xb
 1516 0365 4E       		.byte	0x4e
 1517 0366 6A030000 		.4byte	0x36a
 1518 036a 0D       		.uleb128 0xd
 1519 036b 04       		.byte	0x4
 1520 036c 70030000 		.4byte	0x370
 1521 0370 0E       		.uleb128 0xe
 1522 0371 7B030000 		.4byte	0x37b
 1523 0375 0F       		.uleb128 0xf
 1524 0376 47000000 		.4byte	0x47
 1525 037a 00       		.byte	0
 1526 037b 02       		.uleb128 0x2
 1527 037c A3040000 		.4byte	.LASF56
 1528 0380 0B       		.byte	0xb
 1529 0381 53       		.byte	0x53
 1530 0382 86030000 		.4byte	0x386
 1531 0386 03       		.uleb128 0x3
 1532 0387 A3040000 		.4byte	.LASF56
 1533 038b 14       		.byte	0x14
 1534 038c 0B       		.byte	0xb
 1535 038d 5A       		.byte	0x5a
 1536 038e CF030000 		.4byte	0x3cf
 1537 0392 0A       		.uleb128 0xa
 1538 0393 85020000 		.4byte	.LASF57
ARM GAS  /var/folders/3j/4xdnk5197cv_b7cw3n33qk7r0000gn/T//ccgbYUOY.s 			page 28


 1539 0397 0B       		.byte	0xb
 1540 0398 5B       		.byte	0x5b
 1541 0399 CF030000 		.4byte	0x3cf
 1542 039d 00       		.byte	0
 1543 039e 0A       		.uleb128 0xa
 1544 039f 4C020000 		.4byte	.LASF58
 1545 03a3 0B       		.byte	0xb
 1546 03a4 5D       		.byte	0x5d
 1547 03a5 CF030000 		.4byte	0x3cf
 1548 03a9 04       		.byte	0x4
 1549 03aa 0A       		.uleb128 0xa
 1550 03ab 43030000 		.4byte	.LASF59
 1551 03af 0B       		.byte	0xb
 1552 03b0 5F       		.byte	0x5f
 1553 03b1 5A010000 		.4byte	0x15a
 1554 03b5 08       		.byte	0x8
 1555 03b6 0A       		.uleb128 0xa
 1556 03b7 4B030000 		.4byte	.LASF60
 1557 03bb 0B       		.byte	0xb
 1558 03bc 60       		.byte	0x60
 1559 03bd 5F030000 		.4byte	0x35f
 1560 03c1 0C       		.byte	0xc
 1561 03c2 0A       		.uleb128 0xa
 1562 03c3 3B050000 		.4byte	.LASF61
 1563 03c7 0B       		.byte	0xb
 1564 03c8 62       		.byte	0x62
 1565 03c9 47000000 		.4byte	0x47
 1566 03cd 10       		.byte	0x10
 1567 03ce 00       		.byte	0
 1568 03cf 0D       		.uleb128 0xd
 1569 03d0 04       		.byte	0x4
 1570 03d1 7B030000 		.4byte	0x37b
 1571 03d5 0C       		.uleb128 0xc
 1572 03d6 10       		.byte	0x10
 1573 03d7 0B       		.byte	0xb
 1574 03d8 6C       		.byte	0x6c
 1575 03d9 0E040000 		.4byte	0x40e
 1576 03dd 0A       		.uleb128 0xa
 1577 03de 85020000 		.4byte	.LASF57
 1578 03e2 0B       		.byte	0xb
 1579 03e3 6D       		.byte	0x6d
 1580 03e4 CF030000 		.4byte	0x3cf
 1581 03e8 00       		.byte	0
 1582 03e9 0A       		.uleb128 0xa
 1583 03ea 4C020000 		.4byte	.LASF58
 1584 03ee 0B       		.byte	0xb
 1585 03ef 6F       		.byte	0x6f
 1586 03f0 CF030000 		.4byte	0x3cf
 1587 03f4 04       		.byte	0x4
 1588 03f5 0A       		.uleb128 0xa
 1589 03f6 43030000 		.4byte	.LASF59
 1590 03fa 0B       		.byte	0xb
 1591 03fb 71       		.byte	0x71
 1592 03fc 5A010000 		.4byte	0x15a
 1593 0400 08       		.byte	0x8
 1594 0401 0A       		.uleb128 0xa
 1595 0402 9C050000 		.4byte	.LASF62
ARM GAS  /var/folders/3j/4xdnk5197cv_b7cw3n33qk7r0000gn/T//ccgbYUOY.s 			page 29


 1596 0406 0B       		.byte	0xb
 1597 0407 72       		.byte	0x72
 1598 0408 65010000 		.4byte	0x165
 1599 040c 0C       		.byte	0xc
 1600 040d 00       		.byte	0
 1601 040e 02       		.uleb128 0x2
 1602 040f B2050000 		.4byte	.LASF63
 1603 0413 0B       		.byte	0xb
 1604 0414 73       		.byte	0x73
 1605 0415 D5030000 		.4byte	0x3d5
 1606 0419 10       		.uleb128 0x10
 1607 041a 8C000000 		.4byte	.LASF71
 1608 041e 0B       		.byte	0xb
 1609 041f D1       		.byte	0xd1
 1610 0420 0E040000 		.4byte	0x40e
 1611 0424 0C       		.uleb128 0xc
 1612 0425 1C       		.byte	0x1c
 1613 0426 0C       		.byte	0xc
 1614 0427 57       		.byte	0x57
 1615 0428 75040000 		.4byte	0x475
 1616 042c 0A       		.uleb128 0xa
 1617 042d 9B040000 		.4byte	.LASF64
 1618 0431 0C       		.byte	0xc
 1619 0432 58       		.byte	0x58
 1620 0433 8D020000 		.4byte	0x28d
 1621 0437 00       		.byte	0
 1622 0438 0A       		.uleb128 0xa
 1623 0439 3B040000 		.4byte	.LASF65
 1624 043d 0C       		.byte	0xc
 1625 043e 59       		.byte	0x59
 1626 043f 39010000 		.4byte	0x139
 1627 0443 08       		.byte	0x8
 1628 0444 0A       		.uleb128 0xa
 1629 0445 8A030000 		.4byte	.LASF66
 1630 0449 0C       		.byte	0xc
 1631 044a 5B       		.byte	0x5b
 1632 044b 40030000 		.4byte	0x340
 1633 044f 0C       		.byte	0xc
 1634 0450 0A       		.uleb128 0xa
 1635 0451 F1020000 		.4byte	.LASF67
 1636 0455 0C       		.byte	0xc
 1637 0456 5E       		.byte	0x5e
 1638 0457 87020000 		.4byte	0x287
 1639 045b 10       		.byte	0x10
 1640 045c 0A       		.uleb128 0xa
 1641 045d AF030000 		.4byte	.LASF68
 1642 0461 0C       		.byte	0xc
 1643 0462 5F       		.byte	0x5f
 1644 0463 87020000 		.4byte	0x287
 1645 0467 14       		.byte	0x14
 1646 0468 0A       		.uleb128 0xa
 1647 0469 A5030000 		.4byte	.LASF69
 1648 046d 0C       		.byte	0xc
 1649 046e 62       		.byte	0x62
 1650 046f 87020000 		.4byte	0x287
 1651 0473 18       		.byte	0x18
 1652 0474 00       		.byte	0
ARM GAS  /var/folders/3j/4xdnk5197cv_b7cw3n33qk7r0000gn/T//ccgbYUOY.s 			page 30


 1653 0475 02       		.uleb128 0x2
 1654 0476 54050000 		.4byte	.LASF70
 1655 047a 0C       		.byte	0xc
 1656 047b 64       		.byte	0x64
 1657 047c 24040000 		.4byte	0x424
 1658 0480 10       		.uleb128 0x10
 1659 0481 5E050000 		.4byte	.LASF72
 1660 0485 0C       		.byte	0xc
 1661 0486 68       		.byte	0x68
 1662 0487 75040000 		.4byte	0x475
 1663 048b 03       		.uleb128 0x3
 1664 048c 19030000 		.4byte	.LASF73
 1665 0490 10       		.byte	0x10
 1666 0491 0D       		.byte	0xd
 1667 0492 25       		.byte	0x25
 1668 0493 BC040000 		.4byte	0x4bc
 1669 0497 0A       		.uleb128 0xa
 1670 0498 18010000 		.4byte	.LASF74
 1671 049c 0D       		.byte	0xd
 1672 049d 26       		.byte	0x26
 1673 049e 8D020000 		.4byte	0x28d
 1674 04a2 00       		.byte	0
 1675 04a3 0A       		.uleb128 0xa
 1676 04a4 B9050000 		.4byte	.LASF75
 1677 04a8 0D       		.byte	0xd
 1678 04a9 28       		.byte	0x28
 1679 04aa 87020000 		.4byte	0x287
 1680 04ae 08       		.byte	0x8
 1681 04af 0A       		.uleb128 0xa
 1682 04b0 F1040000 		.4byte	.LASF76
 1683 04b4 0D       		.byte	0xd
 1684 04b5 2A       		.byte	0x2a
 1685 04b6 BC040000 		.4byte	0x4bc
 1686 04ba 0C       		.byte	0xc
 1687 04bb 00       		.byte	0
 1688 04bc 0D       		.uleb128 0xd
 1689 04bd 04       		.byte	0x4
 1690 04be 8B040000 		.4byte	0x48b
 1691 04c2 02       		.uleb128 0x2
 1692 04c3 19030000 		.4byte	.LASF73
 1693 04c7 0D       		.byte	0xd
 1694 04c8 2C       		.byte	0x2c
 1695 04c9 8B040000 		.4byte	0x48b
 1696 04cd 11       		.uleb128 0x11
 1697 04ce 04       		.byte	0x4
 1698 04cf 09       		.byte	0x9
 1699 04d0 8F       		.byte	0x8f
 1700 04d1 02050000 		.4byte	0x502
 1701 04d5 12       		.uleb128 0x12
 1702 04d6 6D000000 		.4byte	.LASF78
 1703 04da 09       		.byte	0x9
 1704 04db 96       		.byte	0x96
 1705 04dc 44010000 		.4byte	0x144
 1706 04e0 12       		.uleb128 0x12
 1707 04e1 BD000000 		.4byte	.LASF79
 1708 04e5 09       		.byte	0x9
 1709 04e6 9D       		.byte	0x9d
ARM GAS  /var/folders/3j/4xdnk5197cv_b7cw3n33qk7r0000gn/T//ccgbYUOY.s 			page 31


 1710 04e7 44010000 		.4byte	0x144
 1711 04eb 12       		.uleb128 0x12
 1712 04ec 72050000 		.4byte	.LASF80
 1713 04f0 09       		.byte	0x9
 1714 04f1 A4       		.byte	0xa4
 1715 04f2 47000000 		.4byte	0x47
 1716 04f6 12       		.uleb128 0x12
 1717 04f7 42040000 		.4byte	.LASF81
 1718 04fb 09       		.byte	0x9
 1719 04fc AB       		.byte	0xab
 1720 04fd 4F010000 		.4byte	0x14f
 1721 0501 00       		.byte	0
 1722 0502 0D       		.uleb128 0xd
 1723 0503 04       		.byte	0x4
 1724 0504 0F050000 		.4byte	0x50f
 1725 0508 07       		.uleb128 0x7
 1726 0509 01       		.byte	0x1
 1727 050a 08       		.byte	0x8
 1728 050b BF040000 		.4byte	.LASF82
 1729 050f 08       		.uleb128 0x8
 1730 0510 08050000 		.4byte	0x508
 1731 0514 0D       		.uleb128 0xd
 1732 0515 04       		.byte	0x4
 1733 0516 C2040000 		.4byte	0x4c2
 1734 051a 0D       		.uleb128 0xd
 1735 051b 04       		.byte	0x4
 1736 051c 20050000 		.4byte	0x520
 1737 0520 13       		.uleb128 0x13
 1738 0521 44010000 		.4byte	0x144
 1739 0525 2F050000 		.4byte	0x52f
 1740 0529 0F       		.uleb128 0xf
 1741 052a 47000000 		.4byte	0x47
 1742 052e 00       		.byte	0
 1743 052f 0C       		.uleb128 0xc
 1744 0530 16       		.byte	0x16
 1745 0531 0E       		.byte	0xe
 1746 0532 25       		.byte	0x25
 1747 0533 10060000 		.4byte	0x610
 1748 0537 0A       		.uleb128 0xa
 1749 0538 BC020000 		.4byte	.LASF83
 1750 053c 0E       		.byte	0xe
 1751 053d 26       		.byte	0x26
 1752 053e 10060000 		.4byte	0x610
 1753 0542 00       		.byte	0
 1754 0543 0A       		.uleb128 0xa
 1755 0544 2F030000 		.4byte	.LASF84
 1756 0548 0E       		.byte	0xe
 1757 0549 27       		.byte	0x27
 1758 054a D1000000 		.4byte	0xd1
 1759 054e 04       		.byte	0x4
 1760 054f 0A       		.uleb128 0xa
 1761 0550 9D030000 		.4byte	.LASF85
 1762 0554 0E       		.byte	0xe
 1763 0555 28       		.byte	0x28
 1764 0556 D1000000 		.4byte	0xd1
 1765 055a 05       		.byte	0x5
 1766 055b 0A       		.uleb128 0xa
ARM GAS  /var/folders/3j/4xdnk5197cv_b7cw3n33qk7r0000gn/T//ccgbYUOY.s 			page 32


 1767 055c A7050000 		.4byte	.LASF86
 1768 0560 0E       		.byte	0xe
 1769 0561 29       		.byte	0x29
 1770 0562 E1000000 		.4byte	0xe1
 1771 0566 06       		.byte	0x6
 1772 0567 0A       		.uleb128 0xa
 1773 0568 D9030000 		.4byte	.LASF87
 1774 056c 0E       		.byte	0xe
 1775 056d 2A       		.byte	0x2a
 1776 056e D1000000 		.4byte	0xd1
 1777 0572 08       		.byte	0x8
 1778 0573 0A       		.uleb128 0xa
 1779 0574 53030000 		.4byte	.LASF88
 1780 0578 0E       		.byte	0xe
 1781 0579 2B       		.byte	0x2b
 1782 057a D1000000 		.4byte	0xd1
 1783 057e 09       		.byte	0x9
 1784 057f 0A       		.uleb128 0xa
 1785 0580 AF000000 		.4byte	.LASF89
 1786 0584 0E       		.byte	0xe
 1787 0585 2C       		.byte	0x2c
 1788 0586 D1000000 		.4byte	0xd1
 1789 058a 0A       		.byte	0xa
 1790 058b 0A       		.uleb128 0xa
 1791 058c 8F040000 		.4byte	.LASF90
 1792 0590 0E       		.byte	0xe
 1793 0591 2D       		.byte	0x2d
 1794 0592 D1000000 		.4byte	0xd1
 1795 0596 0B       		.byte	0xb
 1796 0597 0A       		.uleb128 0xa
 1797 0598 42050000 		.4byte	.LASF91
 1798 059c 0E       		.byte	0xe
 1799 059d 2E       		.byte	0x2e
 1800 059e D1000000 		.4byte	0xd1
 1801 05a2 0C       		.byte	0xc
 1802 05a3 0A       		.uleb128 0xa
 1803 05a4 6E040000 		.4byte	.LASF92
 1804 05a8 0E       		.byte	0xe
 1805 05a9 2F       		.byte	0x2f
 1806 05aa D1000000 		.4byte	0xd1
 1807 05ae 0D       		.byte	0xd
 1808 05af 0A       		.uleb128 0xa
 1809 05b0 53000000 		.4byte	.LASF93
 1810 05b4 0E       		.byte	0xe
 1811 05b5 30       		.byte	0x30
 1812 05b6 D1000000 		.4byte	0xd1
 1813 05ba 0E       		.byte	0xe
 1814 05bb 0A       		.uleb128 0xa
 1815 05bc 76030000 		.4byte	.LASF94
 1816 05c0 0E       		.byte	0xe
 1817 05c1 31       		.byte	0x31
 1818 05c2 D1000000 		.4byte	0xd1
 1819 05c6 0F       		.byte	0xf
 1820 05c7 0A       		.uleb128 0xa
 1821 05c8 F4000000 		.4byte	.LASF95
 1822 05cc 0E       		.byte	0xe
 1823 05cd 32       		.byte	0x32
ARM GAS  /var/folders/3j/4xdnk5197cv_b7cw3n33qk7r0000gn/T//ccgbYUOY.s 			page 33


 1824 05ce D1000000 		.4byte	0xd1
 1825 05d2 10       		.byte	0x10
 1826 05d3 0A       		.uleb128 0xa
 1827 05d4 CD000000 		.4byte	.LASF96
 1828 05d8 0E       		.byte	0xe
 1829 05d9 34       		.byte	0x34
 1830 05da D1000000 		.4byte	0xd1
 1831 05de 11       		.byte	0x11
 1832 05df 0A       		.uleb128 0xa
 1833 05e0 04010000 		.4byte	.LASF97
 1834 05e4 0E       		.byte	0xe
 1835 05e5 35       		.byte	0x35
 1836 05e6 D1000000 		.4byte	0xd1
 1837 05ea 12       		.byte	0x12
 1838 05eb 0A       		.uleb128 0xa
 1839 05ec 37030000 		.4byte	.LASF98
 1840 05f0 0E       		.byte	0xe
 1841 05f1 36       		.byte	0x36
 1842 05f2 D1000000 		.4byte	0xd1
 1843 05f6 13       		.byte	0x13
 1844 05f7 0A       		.uleb128 0xa
 1845 05f8 50040000 		.4byte	.LASF99
 1846 05fc 0E       		.byte	0xe
 1847 05fd 37       		.byte	0x37
 1848 05fe D1000000 		.4byte	0xd1
 1849 0602 14       		.byte	0x14
 1850 0603 0A       		.uleb128 0xa
 1851 0604 2F040000 		.4byte	.LASF100
 1852 0608 0E       		.byte	0xe
 1853 0609 39       		.byte	0x39
 1854 060a D1000000 		.4byte	0xd1
 1855 060e 15       		.byte	0x15
 1856 060f 00       		.byte	0
 1857 0610 14       		.uleb128 0x14
 1858 0611 08050000 		.4byte	0x508
 1859 0615 20060000 		.4byte	0x620
 1860 0619 15       		.uleb128 0x15
 1861 061a 66000000 		.4byte	0x66
 1862 061e 03       		.byte	0x3
 1863 061f 00       		.byte	0
 1864 0620 02       		.uleb128 0x2
 1865 0621 06020000 		.4byte	.LASF101
 1866 0625 0E       		.byte	0xe
 1867 0626 3A       		.byte	0x3a
 1868 0627 2F050000 		.4byte	0x52f
 1869 062b 08       		.uleb128 0x8
 1870 062c 20060000 		.4byte	0x620
 1871 0630 10       		.uleb128 0x10
 1872 0631 9F020000 		.4byte	.LASF102
 1873 0635 0E       		.byte	0xe
 1874 0636 77       		.byte	0x77
 1875 0637 2B060000 		.4byte	0x62b
 1876 063b 0D       		.uleb128 0xd
 1877 063c 04       		.byte	0x4
 1878 063d D1000000 		.4byte	0xd1
 1879 0641 03       		.uleb128 0x3
 1880 0642 D9040000 		.4byte	.LASF103
ARM GAS  /var/folders/3j/4xdnk5197cv_b7cw3n33qk7r0000gn/T//ccgbYUOY.s 			page 34


 1881 0646 10       		.byte	0x10
 1882 0647 0F       		.byte	0xf
 1883 0648 41       		.byte	0x41
 1884 0649 7E060000 		.4byte	0x67e
 1885 064d 0A       		.uleb128 0xa
 1886 064e 74000000 		.4byte	.LASF104
 1887 0652 0F       		.byte	0xf
 1888 0653 42       		.byte	0x42
 1889 0654 A2060000 		.4byte	0x6a2
 1890 0658 00       		.byte	0
 1891 0659 0A       		.uleb128 0xa
 1892 065a BA040000 		.4byte	.LASF105
 1893 065e 0F       		.byte	0xf
 1894 065f 42       		.byte	0x42
 1895 0660 C1060000 		.4byte	0x6c1
 1896 0664 04       		.byte	0x4
 1897 0665 0B       		.uleb128 0xb
 1898 0666 70757400 		.ascii	"put\000"
 1899 066a 0F       		.byte	0xf
 1900 066b 42       		.byte	0x42
 1901 066c DB060000 		.4byte	0x6db
 1902 0670 08       		.byte	0x8
 1903 0671 0B       		.uleb128 0xb
 1904 0672 67657400 		.ascii	"get\000"
 1905 0676 0F       		.byte	0xf
 1906 0677 42       		.byte	0x42
 1907 0678 1A050000 		.4byte	0x51a
 1908 067c 0C       		.byte	0xc
 1909 067d 00       		.byte	0
 1910 067e 08       		.uleb128 0x8
 1911 067f 41060000 		.4byte	0x641
 1912 0683 13       		.uleb128 0x13
 1913 0684 5B000000 		.4byte	0x5b
 1914 0688 9C060000 		.4byte	0x69c
 1915 068c 0F       		.uleb128 0xf
 1916 068d 47000000 		.4byte	0x47
 1917 0691 0F       		.uleb128 0xf
 1918 0692 9C060000 		.4byte	0x69c
 1919 0696 0F       		.uleb128 0xf
 1920 0697 5B000000 		.4byte	0x5b
 1921 069b 00       		.byte	0
 1922 069c 0D       		.uleb128 0xd
 1923 069d 04       		.byte	0x4
 1924 069e DC000000 		.4byte	0xdc
 1925 06a2 0D       		.uleb128 0xd
 1926 06a3 04       		.byte	0x4
 1927 06a4 83060000 		.4byte	0x683
 1928 06a8 13       		.uleb128 0x13
 1929 06a9 5B000000 		.4byte	0x5b
 1930 06ad C1060000 		.4byte	0x6c1
 1931 06b1 0F       		.uleb128 0xf
 1932 06b2 47000000 		.4byte	0x47
 1933 06b6 0F       		.uleb128 0xf
 1934 06b7 3B060000 		.4byte	0x63b
 1935 06bb 0F       		.uleb128 0xf
 1936 06bc 5B000000 		.4byte	0x5b
 1937 06c0 00       		.byte	0
ARM GAS  /var/folders/3j/4xdnk5197cv_b7cw3n33qk7r0000gn/T//ccgbYUOY.s 			page 35


 1938 06c1 0D       		.uleb128 0xd
 1939 06c2 04       		.byte	0x4
 1940 06c3 A8060000 		.4byte	0x6a8
 1941 06c7 13       		.uleb128 0x13
 1942 06c8 44010000 		.4byte	0x144
 1943 06cc DB060000 		.4byte	0x6db
 1944 06d0 0F       		.uleb128 0xf
 1945 06d1 47000000 		.4byte	0x47
 1946 06d5 0F       		.uleb128 0xf
 1947 06d6 D1000000 		.4byte	0xd1
 1948 06da 00       		.byte	0
 1949 06db 0D       		.uleb128 0xd
 1950 06dc 04       		.byte	0x4
 1951 06dd C7060000 		.4byte	0x6c7
 1952 06e1 0C       		.uleb128 0xc
 1953 06e2 04       		.byte	0x4
 1954 06e3 0F       		.byte	0xf
 1955 06e4 4A       		.byte	0x4a
 1956 06e5 F6060000 		.4byte	0x6f6
 1957 06e9 0B       		.uleb128 0xb
 1958 06ea 766D7400 		.ascii	"vmt\000"
 1959 06ee 0F       		.byte	0xf
 1960 06ef 4C       		.byte	0x4c
 1961 06f0 F6060000 		.4byte	0x6f6
 1962 06f4 00       		.byte	0
 1963 06f5 00       		.byte	0
 1964 06f6 0D       		.uleb128 0xd
 1965 06f7 04       		.byte	0x4
 1966 06f8 7E060000 		.4byte	0x67e
 1967 06fc 02       		.uleb128 0x2
 1968 06fd 63020000 		.4byte	.LASF106
 1969 0701 0F       		.byte	0xf
 1970 0702 4E       		.byte	0x4e
 1971 0703 E1060000 		.4byte	0x6e1
 1972 0707 14       		.uleb128 0x14
 1973 0708 B8020000 		.4byte	0x2b8
 1974 070c 17070000 		.4byte	0x717
 1975 0710 15       		.uleb128 0x15
 1976 0711 66000000 		.4byte	0x66
 1977 0715 26       		.byte	0x26
 1978 0716 00       		.byte	0
 1979 0717 10       		.uleb128 0x10
 1980 0718 28020000 		.4byte	.LASF107
 1981 071c 10       		.byte	0x10
 1982 071d 82       		.byte	0x82
 1983 071e 07070000 		.4byte	0x707
 1984 0722 16       		.uleb128 0x16
 1985 0723 D1050000 		.4byte	.LASF123
 1986 0727 01       		.byte	0x1
 1987 0728 70       		.byte	0x70
 1988 0729 00000000 		.4byte	.LFB10
 1989 072d E8070000 		.4byte	.LFE10-.LFB10
 1990 0731 01       		.uleb128 0x1
 1991 0732 9C       		.byte	0x9c
 1992 0733 7E0A0000 		.4byte	0xa7e
 1993 0737 17       		.uleb128 0x17
 1994 0738 63687000 		.ascii	"chp\000"
ARM GAS  /var/folders/3j/4xdnk5197cv_b7cw3n33qk7r0000gn/T//ccgbYUOY.s 			page 36


 1995 073c 01       		.byte	0x1
 1996 073d 70       		.byte	0x70
 1997 073e 7E0A0000 		.4byte	0xa7e
 1998 0742 00000000 		.4byte	.LLST0
 1999 0746 17       		.uleb128 0x17
 2000 0747 666D7400 		.ascii	"fmt\000"
 2001 074b 01       		.byte	0x1
 2002 074c 70       		.byte	0x70
 2003 074d 02050000 		.4byte	0x502
 2004 0751 37000000 		.4byte	.LLST1
 2005 0755 18       		.uleb128 0x18
 2006 0756 19       		.uleb128 0x19
 2007 0757 617000   		.ascii	"ap\000"
 2008 075a 01       		.byte	0x1
 2009 075b 71       		.byte	0x71
 2010 075c 49000000 		.4byte	0x49
 2011 0760 03       		.uleb128 0x3
 2012 0761 91       		.byte	0x91
 2013 0762 B47F     		.sleb128 -76
 2014 0764 1A       		.uleb128 0x1a
 2015 0765 7000     		.ascii	"p\000"
 2016 0767 01       		.byte	0x1
 2017 0768 72       		.byte	0x72
 2018 0769 840A0000 		.4byte	0xa84
 2019 076d A2010000 		.4byte	.LLST2
 2020 0771 1A       		.uleb128 0x1a
 2021 0772 7300     		.ascii	"s\000"
 2022 0774 01       		.byte	0x1
 2023 0775 72       		.byte	0x72
 2024 0776 840A0000 		.4byte	0xa84
 2025 077a D6020000 		.4byte	.LLST3
 2026 077e 1A       		.uleb128 0x1a
 2027 077f 6300     		.ascii	"c\000"
 2028 0781 01       		.byte	0x1
 2029 0782 72       		.byte	0x72
 2030 0783 08050000 		.4byte	0x508
 2031 0787 B7030000 		.4byte	.LLST4
 2032 078b 1B       		.uleb128 0x1b
 2033 078c 54020000 		.4byte	.LASF108
 2034 0790 01       		.byte	0x1
 2035 0791 72       		.byte	0x72
 2036 0792 08050000 		.4byte	0x508
 2037 0796 B5040000 		.4byte	.LLST5
 2038 079a 1A       		.uleb128 0x1a
 2039 079b 6900     		.ascii	"i\000"
 2040 079d 01       		.byte	0x1
 2041 079e 73       		.byte	0x73
 2042 079f 54000000 		.4byte	0x54
 2043 07a3 2A050000 		.4byte	.LLST6
 2044 07a7 1B       		.uleb128 0x1b
 2045 07a8 CF040000 		.4byte	.LASF109
 2046 07ac 01       		.byte	0x1
 2047 07ad 73       		.byte	0x73
 2048 07ae 54000000 		.4byte	0x54
 2049 07b2 55050000 		.4byte	.LLST7
 2050 07b6 1B       		.uleb128 0x1b
 2051 07b7 CA020000 		.4byte	.LASF110
ARM GAS  /var/folders/3j/4xdnk5197cv_b7cw3n33qk7r0000gn/T//ccgbYUOY.s 			page 37


 2052 07bb 01       		.byte	0x1
 2053 07bc 73       		.byte	0x73
 2054 07bd 54000000 		.4byte	0x54
 2055 07c1 48060000 		.4byte	.LLST8
 2056 07c5 1B       		.uleb128 0x1b
 2057 07c6 5B020000 		.4byte	.LASF111
 2058 07ca 01       		.byte	0x1
 2059 07cb 74       		.byte	0x74
 2060 07cc 02010000 		.4byte	0x102
 2061 07d0 2D070000 		.4byte	.LLST9
 2062 07d4 1B       		.uleb128 0x1b
 2063 07d5 A8020000 		.4byte	.LASF112
 2064 07d9 01       		.byte	0x1
 2065 07da 74       		.byte	0x74
 2066 07db 02010000 		.4byte	0x102
 2067 07df 2D080000 		.4byte	.LLST10
 2068 07e3 1A       		.uleb128 0x1a
 2069 07e4 6C00     		.ascii	"l\000"
 2070 07e6 01       		.byte	0x1
 2071 07e7 75       		.byte	0x75
 2072 07e8 AA000000 		.4byte	0xaa
 2073 07ec 58080000 		.4byte	.LLST11
 2074 07f0 1A       		.uleb128 0x1a
 2075 07f1 6600     		.ascii	"f\000"
 2076 07f3 01       		.byte	0x1
 2077 07f4 77       		.byte	0x77
 2078 07f5 8A0A0000 		.4byte	0xa8a
 2079 07f9 76080000 		.4byte	.LLST12
 2080 07fd 1C       		.uleb128 0x1c
 2081 07fe 20010000 		.4byte	.LASF113
 2082 0802 01       		.byte	0x1
 2083 0803 78       		.byte	0x78
 2084 0804 910A0000 		.4byte	0xa91
 2085 0808 03       		.uleb128 0x3
 2086 0809 91       		.byte	0x91
 2087 080a B87F     		.sleb128 -72
 2088 080c 1D       		.uleb128 0x1d
 2089 080d 10020000 		.4byte	.LASF124
 2090 0811 01       		.byte	0x1
 2091 0812 E6       		.byte	0xe6
 2092 0813 A4050000 		.4byte	.L25
 2093 0817 1E       		.uleb128 0x1e
 2094 0818 A10A0000 		.4byte	0xaa1
 2095 081c 18000000 		.4byte	.LBB26
 2096 0820 00000000 		.4byte	.Ldebug_ranges0+0
 2097 0824 01       		.byte	0x1
 2098 0825 D8       		.byte	0xd8
 2099 0826 0D090000 		.4byte	0x90d
 2100 082a 1F       		.uleb128 0x1f
 2101 082b BA0A0000 		.4byte	0xaba
 2102 082f 94080000 		.4byte	.LLST13
 2103 0833 1F       		.uleb128 0x1f
 2104 0834 B10A0000 		.4byte	0xab1
 2105 0838 B8080000 		.4byte	.LLST14
 2106 083c 20       		.uleb128 0x20
 2107 083d 00000000 		.4byte	.Ldebug_ranges0+0
 2108 0841 21       		.uleb128 0x21
ARM GAS  /var/folders/3j/4xdnk5197cv_b7cw3n33qk7r0000gn/T//ccgbYUOY.s 			page 38


 2109 0842 C50A0000 		.4byte	0xac5
 2110 0846 E4080000 		.4byte	.LLST15
 2111 084a 21       		.uleb128 0x21
 2112 084b CE0A0000 		.4byte	0xace
 2113 084f 0D090000 		.4byte	.LLST16
 2114 0853 1E       		.uleb128 0x1e
 2115 0854 110B0000 		.4byte	0xb11
 2116 0858 18000000 		.4byte	.LBB28
 2117 085c 18000000 		.4byte	.Ldebug_ranges0+0x18
 2118 0860 01       		.byte	0x1
 2119 0861 54       		.byte	0x54
 2120 0862 B5080000 		.4byte	0x8b5
 2121 0866 1F       		.uleb128 0x1f
 2122 0867 3C0B0000 		.4byte	0xb3c
 2123 086b 25090000 		.4byte	.LLST17
 2124 086f 1F       		.uleb128 0x1f
 2125 0870 310B0000 		.4byte	0xb31
 2126 0874 39090000 		.4byte	.LLST18
 2127 0878 1F       		.uleb128 0x1f
 2128 0879 260B0000 		.4byte	0xb26
 2129 087d 4D090000 		.4byte	.LLST19
 2130 0881 1F       		.uleb128 0x1f
 2131 0882 1D0B0000 		.4byte	0xb1d
 2132 0886 6B090000 		.4byte	.LLST20
 2133 088a 20       		.uleb128 0x20
 2134 088b 18000000 		.4byte	.Ldebug_ranges0+0x18
 2135 088f 21       		.uleb128 0x21
 2136 0890 470B0000 		.4byte	0xb47
 2137 0894 A5090000 		.4byte	.LLST21
 2138 0898 21       		.uleb128 0x21
 2139 0899 500B0000 		.4byte	0xb50
 2140 089d E9090000 		.4byte	.LLST22
 2141 08a1 21       		.uleb128 0x21
 2142 08a2 590B0000 		.4byte	0xb59
 2143 08a6 2A0A0000 		.4byte	.LLST23
 2144 08aa 21       		.uleb128 0x21
 2145 08ab 620B0000 		.4byte	0xb62
 2146 08af 2A0A0000 		.4byte	.LLST23
 2147 08b3 00       		.byte	0
 2148 08b4 00       		.byte	0
 2149 08b5 22       		.uleb128 0x22
 2150 08b6 110B0000 		.4byte	0xb11
 2151 08ba 50040000 		.4byte	.LBB34
 2152 08be 38000000 		.4byte	.Ldebug_ranges0+0x38
 2153 08c2 01       		.byte	0x1
 2154 08c3 57       		.byte	0x57
 2155 08c4 1F       		.uleb128 0x1f
 2156 08c5 310B0000 		.4byte	0xb31
 2157 08c9 5E0A0000 		.4byte	.LLST25
 2158 08cd 1F       		.uleb128 0x1f
 2159 08ce 3C0B0000 		.4byte	0xb3c
 2160 08d2 720A0000 		.4byte	.LLST26
 2161 08d6 23       		.uleb128 0x23
 2162 08d7 260B0000 		.4byte	0xb26
 2163 08db 1F       		.uleb128 0x1f
 2164 08dc 1D0B0000 		.4byte	0xb1d
 2165 08e0 880A0000 		.4byte	.LLST27
ARM GAS  /var/folders/3j/4xdnk5197cv_b7cw3n33qk7r0000gn/T//ccgbYUOY.s 			page 39


 2166 08e4 20       		.uleb128 0x20
 2167 08e5 38000000 		.4byte	.Ldebug_ranges0+0x38
 2168 08e9 21       		.uleb128 0x21
 2169 08ea 470B0000 		.4byte	0xb47
 2170 08ee CC0A0000 		.4byte	.LLST28
 2171 08f2 21       		.uleb128 0x21
 2172 08f3 500B0000 		.4byte	0xb50
 2173 08f7 390B0000 		.4byte	.LLST29
 2174 08fb 24       		.uleb128 0x24
 2175 08fc 590B0000 		.4byte	0xb59
 2176 0900 21       		.uleb128 0x21
 2177 0901 620B0000 		.4byte	0xb62
 2178 0905 640B0000 		.4byte	.LLST30
 2179 0909 00       		.byte	0
 2180 090a 00       		.byte	0
 2181 090b 00       		.byte	0
 2182 090c 00       		.byte	0
 2183 090d 1E       		.uleb128 0x1e
 2184 090e E10A0000 		.4byte	0xae1
 2185 0912 A8050000 		.4byte	.LBB42
 2186 0916 58000000 		.4byte	.Ldebug_ranges0+0x58
 2187 091a 01       		.byte	0x1
 2188 091b EB       		.byte	0xeb
 2189 091c 92090000 		.4byte	0x992
 2190 0920 23       		.uleb128 0x23
 2191 0921 050B0000 		.4byte	0xb05
 2192 0925 1F       		.uleb128 0x1f
 2193 0926 FA0A0000 		.4byte	0xafa
 2194 092a 7A0B0000 		.4byte	.LLST31
 2195 092e 1F       		.uleb128 0x1f
 2196 092f F10A0000 		.4byte	0xaf1
 2197 0933 8D0B0000 		.4byte	.LLST32
 2198 0937 22       		.uleb128 0x22
 2199 0938 110B0000 		.4byte	0xb11
 2200 093c A8050000 		.4byte	.LBB43
 2201 0940 58000000 		.4byte	.Ldebug_ranges0+0x58
 2202 0944 01       		.byte	0x1
 2203 0945 4B       		.byte	0x4b
 2204 0946 1F       		.uleb128 0x1f
 2205 0947 3C0B0000 		.4byte	0xb3c
 2206 094b AE0B0000 		.4byte	.LLST33
 2207 094f 23       		.uleb128 0x23
 2208 0950 310B0000 		.4byte	0xb31
 2209 0954 1F       		.uleb128 0x1f
 2210 0955 260B0000 		.4byte	0xb26
 2211 0959 7A0B0000 		.4byte	.LLST31
 2212 095d 1F       		.uleb128 0x1f
 2213 095e 1D0B0000 		.4byte	0xb1d
 2214 0962 C20B0000 		.4byte	.LLST35
 2215 0966 20       		.uleb128 0x20
 2216 0967 58000000 		.4byte	.Ldebug_ranges0+0x58
 2217 096b 21       		.uleb128 0x21
 2218 096c 470B0000 		.4byte	0xb47
 2219 0970 080C0000 		.4byte	.LLST36
 2220 0974 21       		.uleb128 0x21
 2221 0975 500B0000 		.4byte	0xb50
 2222 0979 630C0000 		.4byte	.LLST37
ARM GAS  /var/folders/3j/4xdnk5197cv_b7cw3n33qk7r0000gn/T//ccgbYUOY.s 			page 40


 2223 097d 21       		.uleb128 0x21
 2224 097e 590B0000 		.4byte	0xb59
 2225 0982 A40C0000 		.4byte	.LLST38
 2226 0986 21       		.uleb128 0x21
 2227 0987 620B0000 		.4byte	0xb62
 2228 098b A40C0000 		.4byte	.LLST38
 2229 098f 00       		.byte	0
 2230 0990 00       		.byte	0
 2231 0991 00       		.byte	0
 2232 0992 1E       		.uleb128 0x1e
 2233 0993 E10A0000 		.4byte	0xae1
 2234 0997 F4060000 		.4byte	.LBB48
 2235 099b 70000000 		.4byte	.Ldebug_ranges0+0x70
 2236 099f 01       		.byte	0x1
 2237 09a0 CF       		.byte	0xcf
 2238 09a1 1F0A0000 		.4byte	0xa1f
 2239 09a5 1F       		.uleb128 0x1f
 2240 09a6 050B0000 		.4byte	0xb05
 2241 09aa C20C0000 		.4byte	.LLST40
 2242 09ae 1F       		.uleb128 0x1f
 2243 09af FA0A0000 		.4byte	0xafa
 2244 09b3 D60C0000 		.4byte	.LLST41
 2245 09b7 1F       		.uleb128 0x1f
 2246 09b8 F10A0000 		.4byte	0xaf1
 2247 09bc E90C0000 		.4byte	.LLST42
 2248 09c0 22       		.uleb128 0x22
 2249 09c1 110B0000 		.4byte	0xb11
 2250 09c5 F4060000 		.4byte	.LBB49
 2251 09c9 70000000 		.4byte	.Ldebug_ranges0+0x70
 2252 09cd 01       		.byte	0x1
 2253 09ce 4B       		.byte	0x4b
 2254 09cf 1F       		.uleb128 0x1f
 2255 09d0 3C0B0000 		.4byte	0xb3c
 2256 09d4 090D0000 		.4byte	.LLST43
 2257 09d8 1F       		.uleb128 0x1f
 2258 09d9 310B0000 		.4byte	0xb31
 2259 09dd C20C0000 		.4byte	.LLST40
 2260 09e1 1F       		.uleb128 0x1f
 2261 09e2 260B0000 		.4byte	0xb26
 2262 09e6 D60C0000 		.4byte	.LLST41
 2263 09ea 1F       		.uleb128 0x1f
 2264 09eb 1D0B0000 		.4byte	0xb1d
 2265 09ef 1D0D0000 		.4byte	.LLST46
 2266 09f3 20       		.uleb128 0x20
 2267 09f4 70000000 		.4byte	.Ldebug_ranges0+0x70
 2268 09f8 21       		.uleb128 0x21
 2269 09f9 470B0000 		.4byte	0xb47
 2270 09fd 550D0000 		.4byte	.LLST47
 2271 0a01 21       		.uleb128 0x21
 2272 0a02 500B0000 		.4byte	0xb50
 2273 0a06 9E0D0000 		.4byte	.LLST48
 2274 0a0a 21       		.uleb128 0x21
 2275 0a0b 590B0000 		.4byte	0xb59
 2276 0a0f C90D0000 		.4byte	.LLST49
 2277 0a13 21       		.uleb128 0x21
 2278 0a14 620B0000 		.4byte	0xb62
 2279 0a18 C90D0000 		.4byte	.LLST49
ARM GAS  /var/folders/3j/4xdnk5197cv_b7cw3n33qk7r0000gn/T//ccgbYUOY.s 			page 41


 2280 0a1c 00       		.byte	0
 2281 0a1d 00       		.byte	0
 2282 0a1e 00       		.byte	0
 2283 0a1f 25       		.uleb128 0x25
 2284 0a20 4C000000 		.4byte	.LVL3
 2285 0a24 2F0A0000 		.4byte	0xa2f
 2286 0a28 26       		.uleb128 0x26
 2287 0a29 01       		.uleb128 0x1
 2288 0a2a 50       		.byte	0x50
 2289 0a2b 02       		.uleb128 0x2
 2290 0a2c 75       		.byte	0x75
 2291 0a2d 00       		.sleb128 0
 2292 0a2e 00       		.byte	0
 2293 0a2f 25       		.uleb128 0x25
 2294 0a30 18050000 		.4byte	.LVL91
 2295 0a34 450A0000 		.4byte	0xa45
 2296 0a38 26       		.uleb128 0x26
 2297 0a39 01       		.uleb128 0x1
 2298 0a3a 50       		.byte	0x50
 2299 0a3b 02       		.uleb128 0x2
 2300 0a3c 75       		.byte	0x75
 2301 0a3d 00       		.sleb128 0
 2302 0a3e 26       		.uleb128 0x26
 2303 0a3f 01       		.uleb128 0x1
 2304 0a40 51       		.byte	0x51
 2305 0a41 02       		.uleb128 0x2
 2306 0a42 77       		.byte	0x77
 2307 0a43 00       		.sleb128 0
 2308 0a44 00       		.byte	0
 2309 0a45 25       		.uleb128 0x25
 2310 0a46 40050000 		.4byte	.LVL97
 2311 0a4a 550A0000 		.4byte	0xa55
 2312 0a4e 26       		.uleb128 0x26
 2313 0a4f 01       		.uleb128 0x1
 2314 0a50 50       		.byte	0x50
 2315 0a51 02       		.uleb128 0x2
 2316 0a52 75       		.byte	0x75
 2317 0a53 00       		.sleb128 0
 2318 0a54 00       		.byte	0
 2319 0a55 25       		.uleb128 0x25
 2320 0a56 64050000 		.4byte	.LVL99
 2321 0a5a 6B0A0000 		.4byte	0xa6b
 2322 0a5e 26       		.uleb128 0x26
 2323 0a5f 01       		.uleb128 0x1
 2324 0a60 50       		.byte	0x50
 2325 0a61 02       		.uleb128 0x2
 2326 0a62 75       		.byte	0x75
 2327 0a63 00       		.sleb128 0
 2328 0a64 26       		.uleb128 0x26
 2329 0a65 01       		.uleb128 0x1
 2330 0a66 51       		.byte	0x51
 2331 0a67 02       		.uleb128 0x2
 2332 0a68 77       		.byte	0x77
 2333 0a69 00       		.sleb128 0
 2334 0a6a 00       		.byte	0
 2335 0a6b 27       		.uleb128 0x27
 2336 0a6c BC070000 		.4byte	.LVL172
ARM GAS  /var/folders/3j/4xdnk5197cv_b7cw3n33qk7r0000gn/T//ccgbYUOY.s 			page 42


 2337 0a70 26       		.uleb128 0x26
 2338 0a71 01       		.uleb128 0x1
 2339 0a72 50       		.byte	0x50
 2340 0a73 02       		.uleb128 0x2
 2341 0a74 75       		.byte	0x75
 2342 0a75 00       		.sleb128 0
 2343 0a76 26       		.uleb128 0x26
 2344 0a77 01       		.uleb128 0x1
 2345 0a78 51       		.byte	0x51
 2346 0a79 02       		.uleb128 0x2
 2347 0a7a 08       		.byte	0x8
 2348 0a7b 2D       		.byte	0x2d
 2349 0a7c 00       		.byte	0
 2350 0a7d 00       		.byte	0
 2351 0a7e 0D       		.uleb128 0xd
 2352 0a7f 04       		.byte	0x4
 2353 0a80 FC060000 		.4byte	0x6fc
 2354 0a84 0D       		.uleb128 0xd
 2355 0a85 04       		.byte	0x4
 2356 0a86 08050000 		.4byte	0x508
 2357 0a8a 07       		.uleb128 0x7
 2358 0a8b 04       		.byte	0x4
 2359 0a8c 04       		.byte	0x4
 2360 0a8d 6C050000 		.4byte	.LASF114
 2361 0a91 14       		.uleb128 0x14
 2362 0a92 08050000 		.4byte	0x508
 2363 0a96 A10A0000 		.4byte	0xaa1
 2364 0a9a 15       		.uleb128 0x15
 2365 0a9b 66000000 		.4byte	0x66
 2366 0a9f 16       		.byte	0x16
 2367 0aa0 00       		.byte	0
 2368 0aa1 28       		.uleb128 0x28
 2369 0aa2 93000000 		.4byte	.LASF116
 2370 0aa6 01       		.byte	0x1
 2371 0aa7 4F       		.byte	0x4f
 2372 0aa8 840A0000 		.4byte	0xa84
 2373 0aac 01       		.byte	0x1
 2374 0aad DA0A0000 		.4byte	0xada
 2375 0ab1 29       		.uleb128 0x29
 2376 0ab2 7000     		.ascii	"p\000"
 2377 0ab4 01       		.byte	0x1
 2378 0ab5 4F       		.byte	0x4f
 2379 0ab6 840A0000 		.4byte	0xa84
 2380 0aba 29       		.uleb128 0x29
 2381 0abb 6E756D00 		.ascii	"num\000"
 2382 0abf 01       		.byte	0x1
 2383 0ac0 4F       		.byte	0x4f
 2384 0ac1 DA0A0000 		.4byte	0xada
 2385 0ac5 2A       		.uleb128 0x2a
 2386 0ac6 6C00     		.ascii	"l\000"
 2387 0ac8 01       		.byte	0x1
 2388 0ac9 50       		.byte	0x50
 2389 0aca AA000000 		.4byte	0xaa
 2390 0ace 2B       		.uleb128 0x2b
 2391 0acf CF040000 		.4byte	.LASF109
 2392 0ad3 01       		.byte	0x1
 2393 0ad4 51       		.byte	0x51
ARM GAS  /var/folders/3j/4xdnk5197cv_b7cw3n33qk7r0000gn/T//ccgbYUOY.s 			page 43


 2394 0ad5 BC000000 		.4byte	0xbc
 2395 0ad9 00       		.byte	0
 2396 0ada 07       		.uleb128 0x7
 2397 0adb 08       		.byte	0x8
 2398 0adc 04       		.byte	0x4
 2399 0add FF010000 		.4byte	.LASF115
 2400 0ae1 28       		.uleb128 0x28
 2401 0ae2 1F030000 		.4byte	.LASF117
 2402 0ae6 01       		.byte	0x1
 2403 0ae7 49       		.byte	0x49
 2404 0ae8 840A0000 		.4byte	0xa84
 2405 0aec 01       		.byte	0x1
 2406 0aed 110B0000 		.4byte	0xb11
 2407 0af1 29       		.uleb128 0x29
 2408 0af2 7000     		.ascii	"p\000"
 2409 0af4 01       		.byte	0x1
 2410 0af5 49       		.byte	0x49
 2411 0af6 840A0000 		.4byte	0xa84
 2412 0afa 29       		.uleb128 0x29
 2413 0afb 6E756D00 		.ascii	"num\000"
 2414 0aff 01       		.byte	0x1
 2415 0b00 49       		.byte	0x49
 2416 0b01 AA000000 		.4byte	0xaa
 2417 0b05 2C       		.uleb128 0x2c
 2418 0b06 17050000 		.4byte	.LASF118
 2419 0b0a 01       		.byte	0x1
 2420 0b0b 49       		.byte	0x49
 2421 0b0c 66000000 		.4byte	0x66
 2422 0b10 00       		.byte	0
 2423 0b11 2D       		.uleb128 0x2d
 2424 0b12 80050000 		.4byte	.LASF125
 2425 0b16 01       		.byte	0x1
 2426 0b17 28       		.byte	0x28
 2427 0b18 840A0000 		.4byte	0xa84
 2428 0b1c 01       		.byte	0x1
 2429 0b1d 29       		.uleb128 0x29
 2430 0b1e 7000     		.ascii	"p\000"
 2431 0b20 01       		.byte	0x1
 2432 0b21 28       		.byte	0x28
 2433 0b22 840A0000 		.4byte	0xa84
 2434 0b26 29       		.uleb128 0x29
 2435 0b27 6E756D00 		.ascii	"num\000"
 2436 0b2b 01       		.byte	0x1
 2437 0b2c 29       		.byte	0x29
 2438 0b2d AA000000 		.4byte	0xaa
 2439 0b31 2C       		.uleb128 0x2c
 2440 0b32 17050000 		.4byte	.LASF118
 2441 0b36 01       		.byte	0x1
 2442 0b37 2A       		.byte	0x2a
 2443 0b38 66000000 		.4byte	0x66
 2444 0b3c 2C       		.uleb128 0x2c
 2445 0b3d 5F030000 		.4byte	.LASF119
 2446 0b41 01       		.byte	0x1
 2447 0b42 2B       		.byte	0x2b
 2448 0b43 AA000000 		.4byte	0xaa
 2449 0b47 2A       		.uleb128 0x2a
 2450 0b48 6900     		.ascii	"i\000"
ARM GAS  /var/folders/3j/4xdnk5197cv_b7cw3n33qk7r0000gn/T//ccgbYUOY.s 			page 44


 2451 0b4a 01       		.byte	0x1
 2452 0b4b 2C       		.byte	0x2c
 2453 0b4c 54000000 		.4byte	0x54
 2454 0b50 2A       		.uleb128 0x2a
 2455 0b51 7100     		.ascii	"q\000"
 2456 0b53 01       		.byte	0x1
 2457 0b54 2D       		.byte	0x2d
 2458 0b55 840A0000 		.4byte	0xa84
 2459 0b59 2A       		.uleb128 0x2a
 2460 0b5a 6C00     		.ascii	"l\000"
 2461 0b5c 01       		.byte	0x1
 2462 0b5d 2E       		.byte	0x2e
 2463 0b5e AA000000 		.4byte	0xaa
 2464 0b62 2A       		.uleb128 0x2a
 2465 0b63 6C6C00   		.ascii	"ll\000"
 2466 0b66 01       		.byte	0x1
 2467 0b67 2E       		.byte	0x2e
 2468 0b68 AA000000 		.4byte	0xaa
 2469 0b6c 00       		.byte	0
 2470 0b6d 00       		.byte	0
 2471              		.section	.debug_abbrev,"",%progbits
 2472              	.Ldebug_abbrev0:
 2473 0000 01       		.uleb128 0x1
 2474 0001 11       		.uleb128 0x11
 2475 0002 01       		.byte	0x1
 2476 0003 25       		.uleb128 0x25
 2477 0004 0E       		.uleb128 0xe
 2478 0005 13       		.uleb128 0x13
 2479 0006 0B       		.uleb128 0xb
 2480 0007 03       		.uleb128 0x3
 2481 0008 0E       		.uleb128 0xe
 2482 0009 1B       		.uleb128 0x1b
 2483 000a 0E       		.uleb128 0xe
 2484 000b 55       		.uleb128 0x55
 2485 000c 17       		.uleb128 0x17
 2486 000d 11       		.uleb128 0x11
 2487 000e 01       		.uleb128 0x1
 2488 000f 10       		.uleb128 0x10
 2489 0010 17       		.uleb128 0x17
 2490 0011 00       		.byte	0
 2491 0012 00       		.byte	0
 2492 0013 02       		.uleb128 0x2
 2493 0014 16       		.uleb128 0x16
 2494 0015 00       		.byte	0
 2495 0016 03       		.uleb128 0x3
 2496 0017 0E       		.uleb128 0xe
 2497 0018 3A       		.uleb128 0x3a
 2498 0019 0B       		.uleb128 0xb
 2499 001a 3B       		.uleb128 0x3b
 2500 001b 0B       		.uleb128 0xb
 2501 001c 49       		.uleb128 0x49
 2502 001d 13       		.uleb128 0x13
 2503 001e 00       		.byte	0
 2504 001f 00       		.byte	0
 2505 0020 03       		.uleb128 0x3
 2506 0021 13       		.uleb128 0x13
 2507 0022 01       		.byte	0x1
ARM GAS  /var/folders/3j/4xdnk5197cv_b7cw3n33qk7r0000gn/T//ccgbYUOY.s 			page 45


 2508 0023 03       		.uleb128 0x3
 2509 0024 0E       		.uleb128 0xe
 2510 0025 0B       		.uleb128 0xb
 2511 0026 0B       		.uleb128 0xb
 2512 0027 3A       		.uleb128 0x3a
 2513 0028 0B       		.uleb128 0xb
 2514 0029 3B       		.uleb128 0x3b
 2515 002a 0B       		.uleb128 0xb
 2516 002b 01       		.uleb128 0x1
 2517 002c 13       		.uleb128 0x13
 2518 002d 00       		.byte	0
 2519 002e 00       		.byte	0
 2520 002f 04       		.uleb128 0x4
 2521 0030 0D       		.uleb128 0xd
 2522 0031 00       		.byte	0
 2523 0032 03       		.uleb128 0x3
 2524 0033 0E       		.uleb128 0xe
 2525 0034 49       		.uleb128 0x49
 2526 0035 13       		.uleb128 0x13
 2527 0036 38       		.uleb128 0x38
 2528 0037 0B       		.uleb128 0xb
 2529 0038 34       		.uleb128 0x34
 2530 0039 19       		.uleb128 0x19
 2531 003a 00       		.byte	0
 2532 003b 00       		.byte	0
 2533 003c 05       		.uleb128 0x5
 2534 003d 0F       		.uleb128 0xf
 2535 003e 00       		.byte	0
 2536 003f 0B       		.uleb128 0xb
 2537 0040 0B       		.uleb128 0xb
 2538 0041 00       		.byte	0
 2539 0042 00       		.byte	0
 2540 0043 06       		.uleb128 0x6
 2541 0044 24       		.uleb128 0x24
 2542 0045 00       		.byte	0
 2543 0046 0B       		.uleb128 0xb
 2544 0047 0B       		.uleb128 0xb
 2545 0048 3E       		.uleb128 0x3e
 2546 0049 0B       		.uleb128 0xb
 2547 004a 03       		.uleb128 0x3
 2548 004b 08       		.uleb128 0x8
 2549 004c 00       		.byte	0
 2550 004d 00       		.byte	0
 2551 004e 07       		.uleb128 0x7
 2552 004f 24       		.uleb128 0x24
 2553 0050 00       		.byte	0
 2554 0051 0B       		.uleb128 0xb
 2555 0052 0B       		.uleb128 0xb
 2556 0053 3E       		.uleb128 0x3e
 2557 0054 0B       		.uleb128 0xb
 2558 0055 03       		.uleb128 0x3
 2559 0056 0E       		.uleb128 0xe
 2560 0057 00       		.byte	0
 2561 0058 00       		.byte	0
 2562 0059 08       		.uleb128 0x8
 2563 005a 26       		.uleb128 0x26
 2564 005b 00       		.byte	0
ARM GAS  /var/folders/3j/4xdnk5197cv_b7cw3n33qk7r0000gn/T//ccgbYUOY.s 			page 46


 2565 005c 49       		.uleb128 0x49
 2566 005d 13       		.uleb128 0x13
 2567 005e 00       		.byte	0
 2568 005f 00       		.byte	0
 2569 0060 09       		.uleb128 0x9
 2570 0061 35       		.uleb128 0x35
 2571 0062 00       		.byte	0
 2572 0063 49       		.uleb128 0x49
 2573 0064 13       		.uleb128 0x13
 2574 0065 00       		.byte	0
 2575 0066 00       		.byte	0
 2576 0067 0A       		.uleb128 0xa
 2577 0068 0D       		.uleb128 0xd
 2578 0069 00       		.byte	0
 2579 006a 03       		.uleb128 0x3
 2580 006b 0E       		.uleb128 0xe
 2581 006c 3A       		.uleb128 0x3a
 2582 006d 0B       		.uleb128 0xb
 2583 006e 3B       		.uleb128 0x3b
 2584 006f 0B       		.uleb128 0xb
 2585 0070 49       		.uleb128 0x49
 2586 0071 13       		.uleb128 0x13
 2587 0072 38       		.uleb128 0x38
 2588 0073 0B       		.uleb128 0xb
 2589 0074 00       		.byte	0
 2590 0075 00       		.byte	0
 2591 0076 0B       		.uleb128 0xb
 2592 0077 0D       		.uleb128 0xd
 2593 0078 00       		.byte	0
 2594 0079 03       		.uleb128 0x3
 2595 007a 08       		.uleb128 0x8
 2596 007b 3A       		.uleb128 0x3a
 2597 007c 0B       		.uleb128 0xb
 2598 007d 3B       		.uleb128 0x3b
 2599 007e 0B       		.uleb128 0xb
 2600 007f 49       		.uleb128 0x49
 2601 0080 13       		.uleb128 0x13
 2602 0081 38       		.uleb128 0x38
 2603 0082 0B       		.uleb128 0xb
 2604 0083 00       		.byte	0
 2605 0084 00       		.byte	0
 2606 0085 0C       		.uleb128 0xc
 2607 0086 13       		.uleb128 0x13
 2608 0087 01       		.byte	0x1
 2609 0088 0B       		.uleb128 0xb
 2610 0089 0B       		.uleb128 0xb
 2611 008a 3A       		.uleb128 0x3a
 2612 008b 0B       		.uleb128 0xb
 2613 008c 3B       		.uleb128 0x3b
 2614 008d 0B       		.uleb128 0xb
 2615 008e 01       		.uleb128 0x1
 2616 008f 13       		.uleb128 0x13
 2617 0090 00       		.byte	0
 2618 0091 00       		.byte	0
 2619 0092 0D       		.uleb128 0xd
 2620 0093 0F       		.uleb128 0xf
 2621 0094 00       		.byte	0
ARM GAS  /var/folders/3j/4xdnk5197cv_b7cw3n33qk7r0000gn/T//ccgbYUOY.s 			page 47


 2622 0095 0B       		.uleb128 0xb
 2623 0096 0B       		.uleb128 0xb
 2624 0097 49       		.uleb128 0x49
 2625 0098 13       		.uleb128 0x13
 2626 0099 00       		.byte	0
 2627 009a 00       		.byte	0
 2628 009b 0E       		.uleb128 0xe
 2629 009c 15       		.uleb128 0x15
 2630 009d 01       		.byte	0x1
 2631 009e 27       		.uleb128 0x27
 2632 009f 19       		.uleb128 0x19
 2633 00a0 01       		.uleb128 0x1
 2634 00a1 13       		.uleb128 0x13
 2635 00a2 00       		.byte	0
 2636 00a3 00       		.byte	0
 2637 00a4 0F       		.uleb128 0xf
 2638 00a5 05       		.uleb128 0x5
 2639 00a6 00       		.byte	0
 2640 00a7 49       		.uleb128 0x49
 2641 00a8 13       		.uleb128 0x13
 2642 00a9 00       		.byte	0
 2643 00aa 00       		.byte	0
 2644 00ab 10       		.uleb128 0x10
 2645 00ac 34       		.uleb128 0x34
 2646 00ad 00       		.byte	0
 2647 00ae 03       		.uleb128 0x3
 2648 00af 0E       		.uleb128 0xe
 2649 00b0 3A       		.uleb128 0x3a
 2650 00b1 0B       		.uleb128 0xb
 2651 00b2 3B       		.uleb128 0x3b
 2652 00b3 0B       		.uleb128 0xb
 2653 00b4 49       		.uleb128 0x49
 2654 00b5 13       		.uleb128 0x13
 2655 00b6 3F       		.uleb128 0x3f
 2656 00b7 19       		.uleb128 0x19
 2657 00b8 3C       		.uleb128 0x3c
 2658 00b9 19       		.uleb128 0x19
 2659 00ba 00       		.byte	0
 2660 00bb 00       		.byte	0
 2661 00bc 11       		.uleb128 0x11
 2662 00bd 17       		.uleb128 0x17
 2663 00be 01       		.byte	0x1
 2664 00bf 0B       		.uleb128 0xb
 2665 00c0 0B       		.uleb128 0xb
 2666 00c1 3A       		.uleb128 0x3a
 2667 00c2 0B       		.uleb128 0xb
 2668 00c3 3B       		.uleb128 0x3b
 2669 00c4 0B       		.uleb128 0xb
 2670 00c5 01       		.uleb128 0x1
 2671 00c6 13       		.uleb128 0x13
 2672 00c7 00       		.byte	0
 2673 00c8 00       		.byte	0
 2674 00c9 12       		.uleb128 0x12
 2675 00ca 0D       		.uleb128 0xd
 2676 00cb 00       		.byte	0
 2677 00cc 03       		.uleb128 0x3
 2678 00cd 0E       		.uleb128 0xe
ARM GAS  /var/folders/3j/4xdnk5197cv_b7cw3n33qk7r0000gn/T//ccgbYUOY.s 			page 48


 2679 00ce 3A       		.uleb128 0x3a
 2680 00cf 0B       		.uleb128 0xb
 2681 00d0 3B       		.uleb128 0x3b
 2682 00d1 0B       		.uleb128 0xb
 2683 00d2 49       		.uleb128 0x49
 2684 00d3 13       		.uleb128 0x13
 2685 00d4 00       		.byte	0
 2686 00d5 00       		.byte	0
 2687 00d6 13       		.uleb128 0x13
 2688 00d7 15       		.uleb128 0x15
 2689 00d8 01       		.byte	0x1
 2690 00d9 27       		.uleb128 0x27
 2691 00da 19       		.uleb128 0x19
 2692 00db 49       		.uleb128 0x49
 2693 00dc 13       		.uleb128 0x13
 2694 00dd 01       		.uleb128 0x1
 2695 00de 13       		.uleb128 0x13
 2696 00df 00       		.byte	0
 2697 00e0 00       		.byte	0
 2698 00e1 14       		.uleb128 0x14
 2699 00e2 01       		.uleb128 0x1
 2700 00e3 01       		.byte	0x1
 2701 00e4 49       		.uleb128 0x49
 2702 00e5 13       		.uleb128 0x13
 2703 00e6 01       		.uleb128 0x1
 2704 00e7 13       		.uleb128 0x13
 2705 00e8 00       		.byte	0
 2706 00e9 00       		.byte	0
 2707 00ea 15       		.uleb128 0x15
 2708 00eb 21       		.uleb128 0x21
 2709 00ec 00       		.byte	0
 2710 00ed 49       		.uleb128 0x49
 2711 00ee 13       		.uleb128 0x13
 2712 00ef 2F       		.uleb128 0x2f
 2713 00f0 0B       		.uleb128 0xb
 2714 00f1 00       		.byte	0
 2715 00f2 00       		.byte	0
 2716 00f3 16       		.uleb128 0x16
 2717 00f4 2E       		.uleb128 0x2e
 2718 00f5 01       		.byte	0x1
 2719 00f6 3F       		.uleb128 0x3f
 2720 00f7 19       		.uleb128 0x19
 2721 00f8 03       		.uleb128 0x3
 2722 00f9 0E       		.uleb128 0xe
 2723 00fa 3A       		.uleb128 0x3a
 2724 00fb 0B       		.uleb128 0xb
 2725 00fc 3B       		.uleb128 0x3b
 2726 00fd 0B       		.uleb128 0xb
 2727 00fe 27       		.uleb128 0x27
 2728 00ff 19       		.uleb128 0x19
 2729 0100 11       		.uleb128 0x11
 2730 0101 01       		.uleb128 0x1
 2731 0102 12       		.uleb128 0x12
 2732 0103 06       		.uleb128 0x6
 2733 0104 40       		.uleb128 0x40
 2734 0105 18       		.uleb128 0x18
 2735 0106 9642     		.uleb128 0x2116
ARM GAS  /var/folders/3j/4xdnk5197cv_b7cw3n33qk7r0000gn/T//ccgbYUOY.s 			page 49


 2736 0108 19       		.uleb128 0x19
 2737 0109 01       		.uleb128 0x1
 2738 010a 13       		.uleb128 0x13
 2739 010b 00       		.byte	0
 2740 010c 00       		.byte	0
 2741 010d 17       		.uleb128 0x17
 2742 010e 05       		.uleb128 0x5
 2743 010f 00       		.byte	0
 2744 0110 03       		.uleb128 0x3
 2745 0111 08       		.uleb128 0x8
 2746 0112 3A       		.uleb128 0x3a
 2747 0113 0B       		.uleb128 0xb
 2748 0114 3B       		.uleb128 0x3b
 2749 0115 0B       		.uleb128 0xb
 2750 0116 49       		.uleb128 0x49
 2751 0117 13       		.uleb128 0x13
 2752 0118 02       		.uleb128 0x2
 2753 0119 17       		.uleb128 0x17
 2754 011a 00       		.byte	0
 2755 011b 00       		.byte	0
 2756 011c 18       		.uleb128 0x18
 2757 011d 18       		.uleb128 0x18
 2758 011e 00       		.byte	0
 2759 011f 00       		.byte	0
 2760 0120 00       		.byte	0
 2761 0121 19       		.uleb128 0x19
 2762 0122 34       		.uleb128 0x34
 2763 0123 00       		.byte	0
 2764 0124 03       		.uleb128 0x3
 2765 0125 08       		.uleb128 0x8
 2766 0126 3A       		.uleb128 0x3a
 2767 0127 0B       		.uleb128 0xb
 2768 0128 3B       		.uleb128 0x3b
 2769 0129 0B       		.uleb128 0xb
 2770 012a 49       		.uleb128 0x49
 2771 012b 13       		.uleb128 0x13
 2772 012c 02       		.uleb128 0x2
 2773 012d 18       		.uleb128 0x18
 2774 012e 00       		.byte	0
 2775 012f 00       		.byte	0
 2776 0130 1A       		.uleb128 0x1a
 2777 0131 34       		.uleb128 0x34
 2778 0132 00       		.byte	0
 2779 0133 03       		.uleb128 0x3
 2780 0134 08       		.uleb128 0x8
 2781 0135 3A       		.uleb128 0x3a
 2782 0136 0B       		.uleb128 0xb
 2783 0137 3B       		.uleb128 0x3b
 2784 0138 0B       		.uleb128 0xb
 2785 0139 49       		.uleb128 0x49
 2786 013a 13       		.uleb128 0x13
 2787 013b 02       		.uleb128 0x2
 2788 013c 17       		.uleb128 0x17
 2789 013d 00       		.byte	0
 2790 013e 00       		.byte	0
 2791 013f 1B       		.uleb128 0x1b
 2792 0140 34       		.uleb128 0x34
ARM GAS  /var/folders/3j/4xdnk5197cv_b7cw3n33qk7r0000gn/T//ccgbYUOY.s 			page 50


 2793 0141 00       		.byte	0
 2794 0142 03       		.uleb128 0x3
 2795 0143 0E       		.uleb128 0xe
 2796 0144 3A       		.uleb128 0x3a
 2797 0145 0B       		.uleb128 0xb
 2798 0146 3B       		.uleb128 0x3b
 2799 0147 0B       		.uleb128 0xb
 2800 0148 49       		.uleb128 0x49
 2801 0149 13       		.uleb128 0x13
 2802 014a 02       		.uleb128 0x2
 2803 014b 17       		.uleb128 0x17
 2804 014c 00       		.byte	0
 2805 014d 00       		.byte	0
 2806 014e 1C       		.uleb128 0x1c
 2807 014f 34       		.uleb128 0x34
 2808 0150 00       		.byte	0
 2809 0151 03       		.uleb128 0x3
 2810 0152 0E       		.uleb128 0xe
 2811 0153 3A       		.uleb128 0x3a
 2812 0154 0B       		.uleb128 0xb
 2813 0155 3B       		.uleb128 0x3b
 2814 0156 0B       		.uleb128 0xb
 2815 0157 49       		.uleb128 0x49
 2816 0158 13       		.uleb128 0x13
 2817 0159 02       		.uleb128 0x2
 2818 015a 18       		.uleb128 0x18
 2819 015b 00       		.byte	0
 2820 015c 00       		.byte	0
 2821 015d 1D       		.uleb128 0x1d
 2822 015e 0A       		.uleb128 0xa
 2823 015f 00       		.byte	0
 2824 0160 03       		.uleb128 0x3
 2825 0161 0E       		.uleb128 0xe
 2826 0162 3A       		.uleb128 0x3a
 2827 0163 0B       		.uleb128 0xb
 2828 0164 3B       		.uleb128 0x3b
 2829 0165 0B       		.uleb128 0xb
 2830 0166 11       		.uleb128 0x11
 2831 0167 01       		.uleb128 0x1
 2832 0168 00       		.byte	0
 2833 0169 00       		.byte	0
 2834 016a 1E       		.uleb128 0x1e
 2835 016b 1D       		.uleb128 0x1d
 2836 016c 01       		.byte	0x1
 2837 016d 31       		.uleb128 0x31
 2838 016e 13       		.uleb128 0x13
 2839 016f 52       		.uleb128 0x52
 2840 0170 01       		.uleb128 0x1
 2841 0171 55       		.uleb128 0x55
 2842 0172 17       		.uleb128 0x17
 2843 0173 58       		.uleb128 0x58
 2844 0174 0B       		.uleb128 0xb
 2845 0175 59       		.uleb128 0x59
 2846 0176 0B       		.uleb128 0xb
 2847 0177 01       		.uleb128 0x1
 2848 0178 13       		.uleb128 0x13
 2849 0179 00       		.byte	0
ARM GAS  /var/folders/3j/4xdnk5197cv_b7cw3n33qk7r0000gn/T//ccgbYUOY.s 			page 51


 2850 017a 00       		.byte	0
 2851 017b 1F       		.uleb128 0x1f
 2852 017c 05       		.uleb128 0x5
 2853 017d 00       		.byte	0
 2854 017e 31       		.uleb128 0x31
 2855 017f 13       		.uleb128 0x13
 2856 0180 02       		.uleb128 0x2
 2857 0181 17       		.uleb128 0x17
 2858 0182 00       		.byte	0
 2859 0183 00       		.byte	0
 2860 0184 20       		.uleb128 0x20
 2861 0185 0B       		.uleb128 0xb
 2862 0186 01       		.byte	0x1
 2863 0187 55       		.uleb128 0x55
 2864 0188 17       		.uleb128 0x17
 2865 0189 00       		.byte	0
 2866 018a 00       		.byte	0
 2867 018b 21       		.uleb128 0x21
 2868 018c 34       		.uleb128 0x34
 2869 018d 00       		.byte	0
 2870 018e 31       		.uleb128 0x31
 2871 018f 13       		.uleb128 0x13
 2872 0190 02       		.uleb128 0x2
 2873 0191 17       		.uleb128 0x17
 2874 0192 00       		.byte	0
 2875 0193 00       		.byte	0
 2876 0194 22       		.uleb128 0x22
 2877 0195 1D       		.uleb128 0x1d
 2878 0196 01       		.byte	0x1
 2879 0197 31       		.uleb128 0x31
 2880 0198 13       		.uleb128 0x13
 2881 0199 52       		.uleb128 0x52
 2882 019a 01       		.uleb128 0x1
 2883 019b 55       		.uleb128 0x55
 2884 019c 17       		.uleb128 0x17
 2885 019d 58       		.uleb128 0x58
 2886 019e 0B       		.uleb128 0xb
 2887 019f 59       		.uleb128 0x59
 2888 01a0 0B       		.uleb128 0xb
 2889 01a1 00       		.byte	0
 2890 01a2 00       		.byte	0
 2891 01a3 23       		.uleb128 0x23
 2892 01a4 05       		.uleb128 0x5
 2893 01a5 00       		.byte	0
 2894 01a6 31       		.uleb128 0x31
 2895 01a7 13       		.uleb128 0x13
 2896 01a8 00       		.byte	0
 2897 01a9 00       		.byte	0
 2898 01aa 24       		.uleb128 0x24
 2899 01ab 34       		.uleb128 0x34
 2900 01ac 00       		.byte	0
 2901 01ad 31       		.uleb128 0x31
 2902 01ae 13       		.uleb128 0x13
 2903 01af 00       		.byte	0
 2904 01b0 00       		.byte	0
 2905 01b1 25       		.uleb128 0x25
 2906 01b2 898201   		.uleb128 0x4109
ARM GAS  /var/folders/3j/4xdnk5197cv_b7cw3n33qk7r0000gn/T//ccgbYUOY.s 			page 52


 2907 01b5 01       		.byte	0x1
 2908 01b6 11       		.uleb128 0x11
 2909 01b7 01       		.uleb128 0x1
 2910 01b8 01       		.uleb128 0x1
 2911 01b9 13       		.uleb128 0x13
 2912 01ba 00       		.byte	0
 2913 01bb 00       		.byte	0
 2914 01bc 26       		.uleb128 0x26
 2915 01bd 8A8201   		.uleb128 0x410a
 2916 01c0 00       		.byte	0
 2917 01c1 02       		.uleb128 0x2
 2918 01c2 18       		.uleb128 0x18
 2919 01c3 9142     		.uleb128 0x2111
 2920 01c5 18       		.uleb128 0x18
 2921 01c6 00       		.byte	0
 2922 01c7 00       		.byte	0
 2923 01c8 27       		.uleb128 0x27
 2924 01c9 898201   		.uleb128 0x4109
 2925 01cc 01       		.byte	0x1
 2926 01cd 11       		.uleb128 0x11
 2927 01ce 01       		.uleb128 0x1
 2928 01cf 00       		.byte	0
 2929 01d0 00       		.byte	0
 2930 01d1 28       		.uleb128 0x28
 2931 01d2 2E       		.uleb128 0x2e
 2932 01d3 01       		.byte	0x1
 2933 01d4 03       		.uleb128 0x3
 2934 01d5 0E       		.uleb128 0xe
 2935 01d6 3A       		.uleb128 0x3a
 2936 01d7 0B       		.uleb128 0xb
 2937 01d8 3B       		.uleb128 0x3b
 2938 01d9 0B       		.uleb128 0xb
 2939 01da 27       		.uleb128 0x27
 2940 01db 19       		.uleb128 0x19
 2941 01dc 49       		.uleb128 0x49
 2942 01dd 13       		.uleb128 0x13
 2943 01de 20       		.uleb128 0x20
 2944 01df 0B       		.uleb128 0xb
 2945 01e0 01       		.uleb128 0x1
 2946 01e1 13       		.uleb128 0x13
 2947 01e2 00       		.byte	0
 2948 01e3 00       		.byte	0
 2949 01e4 29       		.uleb128 0x29
 2950 01e5 05       		.uleb128 0x5
 2951 01e6 00       		.byte	0
 2952 01e7 03       		.uleb128 0x3
 2953 01e8 08       		.uleb128 0x8
 2954 01e9 3A       		.uleb128 0x3a
 2955 01ea 0B       		.uleb128 0xb
 2956 01eb 3B       		.uleb128 0x3b
 2957 01ec 0B       		.uleb128 0xb
 2958 01ed 49       		.uleb128 0x49
 2959 01ee 13       		.uleb128 0x13
 2960 01ef 00       		.byte	0
 2961 01f0 00       		.byte	0
 2962 01f1 2A       		.uleb128 0x2a
 2963 01f2 34       		.uleb128 0x34
ARM GAS  /var/folders/3j/4xdnk5197cv_b7cw3n33qk7r0000gn/T//ccgbYUOY.s 			page 53


 2964 01f3 00       		.byte	0
 2965 01f4 03       		.uleb128 0x3
 2966 01f5 08       		.uleb128 0x8
 2967 01f6 3A       		.uleb128 0x3a
 2968 01f7 0B       		.uleb128 0xb
 2969 01f8 3B       		.uleb128 0x3b
 2970 01f9 0B       		.uleb128 0xb
 2971 01fa 49       		.uleb128 0x49
 2972 01fb 13       		.uleb128 0x13
 2973 01fc 00       		.byte	0
 2974 01fd 00       		.byte	0
 2975 01fe 2B       		.uleb128 0x2b
 2976 01ff 34       		.uleb128 0x34
 2977 0200 00       		.byte	0
 2978 0201 03       		.uleb128 0x3
 2979 0202 0E       		.uleb128 0xe
 2980 0203 3A       		.uleb128 0x3a
 2981 0204 0B       		.uleb128 0xb
 2982 0205 3B       		.uleb128 0x3b
 2983 0206 0B       		.uleb128 0xb
 2984 0207 49       		.uleb128 0x49
 2985 0208 13       		.uleb128 0x13
 2986 0209 00       		.byte	0
 2987 020a 00       		.byte	0
 2988 020b 2C       		.uleb128 0x2c
 2989 020c 05       		.uleb128 0x5
 2990 020d 00       		.byte	0
 2991 020e 03       		.uleb128 0x3
 2992 020f 0E       		.uleb128 0xe
 2993 0210 3A       		.uleb128 0x3a
 2994 0211 0B       		.uleb128 0xb
 2995 0212 3B       		.uleb128 0x3b
 2996 0213 0B       		.uleb128 0xb
 2997 0214 49       		.uleb128 0x49
 2998 0215 13       		.uleb128 0x13
 2999 0216 00       		.byte	0
 3000 0217 00       		.byte	0
 3001 0218 2D       		.uleb128 0x2d
 3002 0219 2E       		.uleb128 0x2e
 3003 021a 01       		.byte	0x1
 3004 021b 03       		.uleb128 0x3
 3005 021c 0E       		.uleb128 0xe
 3006 021d 3A       		.uleb128 0x3a
 3007 021e 0B       		.uleb128 0xb
 3008 021f 3B       		.uleb128 0x3b
 3009 0220 0B       		.uleb128 0xb
 3010 0221 27       		.uleb128 0x27
 3011 0222 19       		.uleb128 0x19
 3012 0223 49       		.uleb128 0x49
 3013 0224 13       		.uleb128 0x13
 3014 0225 20       		.uleb128 0x20
 3015 0226 0B       		.uleb128 0xb
 3016 0227 00       		.byte	0
 3017 0228 00       		.byte	0
 3018 0229 00       		.byte	0
 3019              		.section	.debug_loc,"",%progbits
 3020              	.Ldebug_loc0:
ARM GAS  /var/folders/3j/4xdnk5197cv_b7cw3n33qk7r0000gn/T//ccgbYUOY.s 			page 54


 3021              	.LLST0:
 3022 0000 00000000 		.4byte	.LVL0
 3023 0004 20000000 		.4byte	.LVL1
 3024 0008 0100     		.2byte	0x1
 3025 000a 50       		.byte	0x50
 3026 000b 20000000 		.4byte	.LVL1
 3027 000f 64000000 		.4byte	.LVL5
 3028 0013 0100     		.2byte	0x1
 3029 0015 55       		.byte	0x55
 3030 0016 64000000 		.4byte	.LVL5
 3031 001a 6C000000 		.4byte	.LVL6
 3032 001e 0400     		.2byte	0x4
 3033 0020 F3       		.byte	0xf3
 3034 0021 01       		.uleb128 0x1
 3035 0022 50       		.byte	0x50
 3036 0023 9F       		.byte	0x9f
 3037 0024 6C000000 		.4byte	.LVL6
 3038 0028 E8070000 		.4byte	.LFE10
 3039 002c 0100     		.2byte	0x1
 3040 002e 55       		.byte	0x55
 3041 002f 00000000 		.4byte	0
 3042 0033 00000000 		.4byte	0
 3043              	.LLST1:
 3044 0037 00000000 		.4byte	.LVL0
 3045 003b 20000000 		.4byte	.LVL1
 3046 003f 0200     		.2byte	0x2
 3047 0041 91       		.byte	0x91
 3048 0042 74       		.sleb128 -12
 3049 0043 20000000 		.4byte	.LVL1
 3050 0047 28000000 		.4byte	.LVL2
 3051 004b 0100     		.2byte	0x1
 3052 004d 59       		.byte	0x59
 3053 004e 28000000 		.4byte	.LVL2
 3054 0052 4B000000 		.4byte	.LVL3-1
 3055 0056 0100     		.2byte	0x1
 3056 0058 52       		.byte	0x52
 3057 0059 4B000000 		.4byte	.LVL3-1
 3058 005d 54000000 		.4byte	.LVL4
 3059 0061 0100     		.2byte	0x1
 3060 0063 59       		.byte	0x59
 3061 0064 54000000 		.4byte	.LVL4
 3062 0068 8C000000 		.4byte	.LVL9
 3063 006c 0100     		.2byte	0x1
 3064 006e 52       		.byte	0x52
 3065 006f 8C000000 		.4byte	.LVL9
 3066 0073 98000000 		.4byte	.LVL10
 3067 0077 0300     		.2byte	0x3
 3068 0079 72       		.byte	0x72
 3069 007a 01       		.sleb128 1
 3070 007b 9F       		.byte	0x9f
 3071 007c A0000000 		.4byte	.LVL11
 3072 0080 A8000000 		.4byte	.LVL12
 3073 0084 0100     		.2byte	0x1
 3074 0086 52       		.byte	0x52
 3075 0087 A8000000 		.4byte	.LVL12
 3076 008b AC000000 		.4byte	.LVL13
 3077 008f 0300     		.2byte	0x3
ARM GAS  /var/folders/3j/4xdnk5197cv_b7cw3n33qk7r0000gn/T//ccgbYUOY.s 			page 55


 3078 0091 72       		.byte	0x72
 3079 0092 7F       		.sleb128 -1
 3080 0093 9F       		.byte	0x9f
 3081 0094 AC000000 		.4byte	.LVL13
 3082 0098 BC000000 		.4byte	.LVL16
 3083 009c 0100     		.2byte	0x1
 3084 009e 52       		.byte	0x52
 3085 009f BC000000 		.4byte	.LVL16
 3086 00a3 C0000000 		.4byte	.LVL17
 3087 00a7 0100     		.2byte	0x1
 3088 00a9 5C       		.byte	0x5c
 3089 00aa C0000000 		.4byte	.LVL17
 3090 00ae D4000000 		.4byte	.LVL18
 3091 00b2 0300     		.2byte	0x3
 3092 00b4 72       		.byte	0x72
 3093 00b5 7F       		.sleb128 -1
 3094 00b6 9F       		.byte	0x9f
 3095 00b7 D4000000 		.4byte	.LVL18
 3096 00bb F0000000 		.4byte	.LVL20
 3097 00bf 0100     		.2byte	0x1
 3098 00c1 52       		.byte	0x52
 3099 00c2 F0000000 		.4byte	.LVL20
 3100 00c6 18010000 		.4byte	.LVL24
 3101 00ca 0100     		.2byte	0x1
 3102 00cc 5C       		.byte	0x5c
 3103 00cd 24010000 		.4byte	.LVL25
 3104 00d1 E8020000 		.4byte	.LVL27
 3105 00d5 0100     		.2byte	0x1
 3106 00d7 5C       		.byte	0x5c
 3107 00d8 54030000 		.4byte	.LVL39
 3108 00dc 58030000 		.4byte	.LVL40
 3109 00e0 0100     		.2byte	0x1
 3110 00e2 5C       		.byte	0x5c
 3111 00e3 70050000 		.4byte	.LVL101
 3112 00e7 74050000 		.4byte	.LVL102
 3113 00eb 0100     		.2byte	0x1
 3114 00ed 5C       		.byte	0x5c
 3115 00ee 9C050000 		.4byte	.LVL106
 3116 00f2 A0050000 		.4byte	.LVL107
 3117 00f6 0100     		.2byte	0x1
 3118 00f8 5C       		.byte	0x5c
 3119 00f9 34060000 		.4byte	.LVL128
 3120 00fd 38060000 		.4byte	.LVL129
 3121 0101 0100     		.2byte	0x1
 3122 0103 5C       		.byte	0x5c
 3123 0104 40060000 		.4byte	.LVL130
 3124 0108 48060000 		.4byte	.LVL132
 3125 010c 0100     		.2byte	0x1
 3126 010e 5C       		.byte	0x5c
 3127 010f 68060000 		.4byte	.LVL135
 3128 0113 78060000 		.4byte	.LVL136
 3129 0117 0100     		.2byte	0x1
 3130 0119 5C       		.byte	0x5c
 3131 011a 78060000 		.4byte	.LVL136
 3132 011e 88060000 		.4byte	.LVL139
 3133 0122 0300     		.2byte	0x3
 3134 0124 7C       		.byte	0x7c
ARM GAS  /var/folders/3j/4xdnk5197cv_b7cw3n33qk7r0000gn/T//ccgbYUOY.s 			page 56


 3135 0125 7F       		.sleb128 -1
 3136 0126 9F       		.byte	0x9f
 3137 0127 88060000 		.4byte	.LVL139
 3138 012b 8C060000 		.4byte	.LVL140
 3139 012f 0100     		.2byte	0x1
 3140 0131 5C       		.byte	0x5c
 3141 0132 8C060000 		.4byte	.LVL140
 3142 0136 B4060000 		.4byte	.LVL141
 3143 013a 0300     		.2byte	0x3
 3144 013c 7C       		.byte	0x7c
 3145 013d 7F       		.sleb128 -1
 3146 013e 9F       		.byte	0x9f
 3147 013f C4060000 		.4byte	.LVL142
 3148 0143 D0060000 		.4byte	.LVL143
 3149 0147 0100     		.2byte	0x1
 3150 0149 5C       		.byte	0x5c
 3151 014a D0060000 		.4byte	.LVL143
 3152 014e D4060000 		.4byte	.LVL144
 3153 0152 1300     		.2byte	0x13
 3154 0154 7C       		.byte	0x7c
 3155 0155 01       		.sleb128 1
 3156 0156 7C       		.byte	0x7c
 3157 0157 00       		.sleb128 0
 3158 0158 7C       		.byte	0x7c
 3159 0159 00       		.sleb128 0
 3160 015a 94       		.byte	0x94
 3161 015b 01       		.byte	0x1
 3162 015c 08       		.byte	0x8
 3163 015d FF       		.byte	0xff
 3164 015e 1A       		.byte	0x1a
 3165 015f 30       		.byte	0x30
 3166 0160 2E       		.byte	0x2e
 3167 0161 28       		.byte	0x28
 3168 0162 0100     		.2byte	0x1
 3169 0164 16       		.byte	0x16
 3170 0165 13       		.byte	0x13
 3171 0166 9F       		.byte	0x9f
 3172 0167 5C070000 		.4byte	.LVL162
 3173 016b 64070000 		.4byte	.LVL163
 3174 016f 1300     		.2byte	0x13
 3175 0171 7C       		.byte	0x7c
 3176 0172 01       		.sleb128 1
 3177 0173 7C       		.byte	0x7c
 3178 0174 00       		.sleb128 0
 3179 0175 7C       		.byte	0x7c
 3180 0176 00       		.sleb128 0
 3181 0177 94       		.byte	0x94
 3182 0178 01       		.byte	0x1
 3183 0179 08       		.byte	0x8
 3184 017a FF       		.byte	0xff
 3185 017b 1A       		.byte	0x1a
 3186 017c 30       		.byte	0x30
 3187 017d 2E       		.byte	0x2e
 3188 017e 28       		.byte	0x28
 3189 017f 0100     		.2byte	0x1
 3190 0181 16       		.byte	0x16
 3191 0182 13       		.byte	0x13
ARM GAS  /var/folders/3j/4xdnk5197cv_b7cw3n33qk7r0000gn/T//ccgbYUOY.s 			page 57


 3192 0183 9F       		.byte	0x9f
 3193 0184 64070000 		.4byte	.LVL163
 3194 0188 80070000 		.4byte	.LVL166
 3195 018c 0100     		.2byte	0x1
 3196 018e 5C       		.byte	0x5c
 3197 018f 80070000 		.4byte	.LVL166
 3198 0193 84070000 		.4byte	.LVL167
 3199 0197 0100     		.2byte	0x1
 3200 0199 59       		.byte	0x59
 3201 019a 00000000 		.4byte	0
 3202 019e 00000000 		.4byte	0
 3203              	.LLST2:
 3204 01a2 6C000000 		.4byte	.LVL6
 3205 01a6 10030000 		.4byte	.LVL30
 3206 01aa 0400     		.2byte	0x4
 3207 01ac 91       		.byte	0x91
 3208 01ad 987F     		.sleb128 -104
 3209 01af 9F       		.byte	0x9f
 3210 01b0 10030000 		.4byte	.LVL30
 3211 01b4 20030000 		.4byte	.LVL31
 3212 01b8 0100     		.2byte	0x1
 3213 01ba 56       		.byte	0x56
 3214 01bb 2C030000 		.4byte	.LVL32
 3215 01bf 34030000 		.4byte	.LVL34
 3216 01c3 0300     		.2byte	0x3
 3217 01c5 73       		.byte	0x73
 3218 01c6 7F       		.sleb128 -1
 3219 01c7 9F       		.byte	0x9f
 3220 01c8 34030000 		.4byte	.LVL34
 3221 01cc 38030000 		.4byte	.LVL35
 3222 01d0 0100     		.2byte	0x1
 3223 01d2 53       		.byte	0x53
 3224 01d3 38030000 		.4byte	.LVL35
 3225 01d7 44030000 		.4byte	.LVL37
 3226 01db 0300     		.2byte	0x3
 3227 01dd 73       		.byte	0x73
 3228 01de 7F       		.sleb128 -1
 3229 01df 9F       		.byte	0x9f
 3230 01e0 54030000 		.4byte	.LVL39
 3231 01e4 84030000 		.4byte	.LVL45
 3232 01e8 0400     		.2byte	0x4
 3233 01ea 91       		.byte	0x91
 3234 01eb 987F     		.sleb128 -104
 3235 01ed 9F       		.byte	0x9f
 3236 01ee 84030000 		.4byte	.LVL45
 3237 01f2 A4030000 		.4byte	.LVL47
 3238 01f6 0400     		.2byte	0x4
 3239 01f8 91       		.byte	0x91
 3240 01f9 997F     		.sleb128 -103
 3241 01fb 9F       		.byte	0x9f
 3242 01fc A4030000 		.4byte	.LVL47
 3243 0200 AB030000 		.4byte	.LVL48-1
 3244 0204 0100     		.2byte	0x1
 3245 0206 52       		.byte	0x52
 3246 0207 AB030000 		.4byte	.LVL48-1
 3247 020b CC040000 		.4byte	.LVL87
 3248 020f 0300     		.2byte	0x3
ARM GAS  /var/folders/3j/4xdnk5197cv_b7cw3n33qk7r0000gn/T//ccgbYUOY.s 			page 58


 3249 0211 91       		.byte	0x91
 3250 0212 8C7F     		.sleb128 -116
 3251 0214 70050000 		.4byte	.LVL101
 3252 0218 8C050000 		.4byte	.LVL105
 3253 021c 0400     		.2byte	0x4
 3254 021e 91       		.byte	0x91
 3255 021f 987F     		.sleb128 -104
 3256 0221 9F       		.byte	0x9f
 3257 0222 8C050000 		.4byte	.LVL105
 3258 0226 9C050000 		.4byte	.LVL106
 3259 022a 0400     		.2byte	0x4
 3260 022c 91       		.byte	0x91
 3261 022d 997F     		.sleb128 -103
 3262 022f 9F       		.byte	0x9f
 3263 0230 9C050000 		.4byte	.LVL106
 3264 0234 EC050000 		.4byte	.LVL119
 3265 0238 0400     		.2byte	0x4
 3266 023a 91       		.byte	0x91
 3267 023b 987F     		.sleb128 -104
 3268 023d 9F       		.byte	0x9f
 3269 023e EC050000 		.4byte	.LVL119
 3270 0242 18060000 		.4byte	.LVL126
 3271 0246 0100     		.2byte	0x1
 3272 0248 56       		.byte	0x56
 3273 0249 34060000 		.4byte	.LVL128
 3274 024d 48060000 		.4byte	.LVL132
 3275 0251 0400     		.2byte	0x4
 3276 0253 91       		.byte	0x91
 3277 0254 987F     		.sleb128 -104
 3278 0256 9F       		.byte	0x9f
 3279 0257 48060000 		.4byte	.LVL132
 3280 025b 5C060000 		.4byte	.LVL134
 3281 025f 0400     		.2byte	0x4
 3282 0261 91       		.byte	0x91
 3283 0262 997F     		.sleb128 -103
 3284 0264 9F       		.byte	0x9f
 3285 0265 68060000 		.4byte	.LVL135
 3286 0269 B4060000 		.4byte	.LVL141
 3287 026d 0400     		.2byte	0x4
 3288 026f 91       		.byte	0x91
 3289 0270 987F     		.sleb128 -104
 3290 0272 9F       		.byte	0x9f
 3291 0273 C4060000 		.4byte	.LVL142
 3292 0277 E4060000 		.4byte	.LVL146
 3293 027b 0400     		.2byte	0x4
 3294 027d 91       		.byte	0x91
 3295 027e 987F     		.sleb128 -104
 3296 0280 9F       		.byte	0x9f
 3297 0281 E4060000 		.4byte	.LVL146
 3298 0285 00070000 		.4byte	.LVL147
 3299 0289 0400     		.2byte	0x4
 3300 028b 91       		.byte	0x91
 3301 028c 997F     		.sleb128 -103
 3302 028e 9F       		.byte	0x9f
 3303 028f 00070000 		.4byte	.LVL147
 3304 0293 3C070000 		.4byte	.LVL156
 3305 0297 0100     		.2byte	0x1
ARM GAS  /var/folders/3j/4xdnk5197cv_b7cw3n33qk7r0000gn/T//ccgbYUOY.s 			page 59


 3306 0299 5C       		.byte	0x5c
 3307 029a 3C070000 		.4byte	.LVL156
 3308 029e 58070000 		.4byte	.LVL161
 3309 02a2 0300     		.2byte	0x3
 3310 02a4 7B       		.byte	0x7b
 3311 02a5 75       		.sleb128 -11
 3312 02a6 9F       		.byte	0x9f
 3313 02a7 5C070000 		.4byte	.LVL162
 3314 02ab 94070000 		.4byte	.LVL168
 3315 02af 0400     		.2byte	0x4
 3316 02b1 91       		.byte	0x91
 3317 02b2 987F     		.sleb128 -104
 3318 02b4 9F       		.byte	0x9f
 3319 02b5 94070000 		.4byte	.LVL168
 3320 02b9 B0070000 		.4byte	.LVL171
 3321 02bd 0100     		.2byte	0x1
 3322 02bf 56       		.byte	0x56
 3323 02c0 D0070000 		.4byte	.LVL174
 3324 02c4 E8070000 		.4byte	.LFE10
 3325 02c8 0400     		.2byte	0x4
 3326 02ca 91       		.byte	0x91
 3327 02cb 987F     		.sleb128 -104
 3328 02cd 9F       		.byte	0x9f
 3329 02ce 00000000 		.4byte	0
 3330 02d2 00000000 		.4byte	0
 3331              	.LLST3:
 3332 02d6 6C000000 		.4byte	.LVL6
 3333 02da F0020000 		.4byte	.LVL28
 3334 02de 0400     		.2byte	0x4
 3335 02e0 91       		.byte	0x91
 3336 02e1 987F     		.sleb128 -104
 3337 02e3 9F       		.byte	0x9f
 3338 02e4 00030000 		.4byte	.LVL29
 3339 02e8 20030000 		.4byte	.LVL31
 3340 02ec 0100     		.2byte	0x1
 3341 02ee 56       		.byte	0x56
 3342 02ef 54030000 		.4byte	.LVL39
 3343 02f3 CC040000 		.4byte	.LVL87
 3344 02f7 0400     		.2byte	0x4
 3345 02f9 91       		.byte	0x91
 3346 02fa 987F     		.sleb128 -104
 3347 02fc 9F       		.byte	0x9f
 3348 02fd CC040000 		.4byte	.LVL87
 3349 0301 04050000 		.4byte	.LVL90
 3350 0305 0100     		.2byte	0x1
 3351 0307 56       		.byte	0x56
 3352 0308 20050000 		.4byte	.LVL93
 3353 030c 38050000 		.4byte	.LVL96
 3354 0310 0100     		.2byte	0x1
 3355 0312 56       		.byte	0x56
 3356 0313 38050000 		.4byte	.LVL96
 3357 0317 40050000 		.4byte	.LVL97
 3358 031b 0300     		.2byte	0x3
 3359 031d 76       		.byte	0x76
 3360 031e 7F       		.sleb128 -1
 3361 031f 9F       		.byte	0x9f
 3362 0320 40050000 		.4byte	.LVL97
ARM GAS  /var/folders/3j/4xdnk5197cv_b7cw3n33qk7r0000gn/T//ccgbYUOY.s 			page 60


 3363 0324 70050000 		.4byte	.LVL101
 3364 0328 0100     		.2byte	0x1
 3365 032a 56       		.byte	0x56
 3366 032b 70050000 		.4byte	.LVL101
 3367 032f EC050000 		.4byte	.LVL119
 3368 0333 0400     		.2byte	0x4
 3369 0335 91       		.byte	0x91
 3370 0336 987F     		.sleb128 -104
 3371 0338 9F       		.byte	0x9f
 3372 0339 EC050000 		.4byte	.LVL119
 3373 033d 34060000 		.4byte	.LVL128
 3374 0341 0100     		.2byte	0x1
 3375 0343 56       		.byte	0x56
 3376 0344 34060000 		.4byte	.LVL128
 3377 0348 5C060000 		.4byte	.LVL134
 3378 034c 0400     		.2byte	0x4
 3379 034e 91       		.byte	0x91
 3380 034f 987F     		.sleb128 -104
 3381 0351 9F       		.byte	0x9f
 3382 0352 5C060000 		.4byte	.LVL134
 3383 0356 68060000 		.4byte	.LVL135
 3384 035a 0100     		.2byte	0x1
 3385 035c 56       		.byte	0x56
 3386 035d 68060000 		.4byte	.LVL135
 3387 0361 B4060000 		.4byte	.LVL141
 3388 0365 0400     		.2byte	0x4
 3389 0367 91       		.byte	0x91
 3390 0368 987F     		.sleb128 -104
 3391 036a 9F       		.byte	0x9f
 3392 036b B4060000 		.4byte	.LVL141
 3393 036f C4060000 		.4byte	.LVL142
 3394 0373 0100     		.2byte	0x1
 3395 0375 56       		.byte	0x56
 3396 0376 C4060000 		.4byte	.LVL142
 3397 037a 84070000 		.4byte	.LVL167
 3398 037e 0400     		.2byte	0x4
 3399 0380 91       		.byte	0x91
 3400 0381 987F     		.sleb128 -104
 3401 0383 9F       		.byte	0x9f
 3402 0384 84070000 		.4byte	.LVL167
 3403 0388 94070000 		.4byte	.LVL168
 3404 038c 0600     		.2byte	0x6
 3405 038e 03       		.byte	0x3
 3406 038f 00000000 		.4byte	.LC0
 3407 0393 9F       		.byte	0x9f
 3408 0394 9C070000 		.4byte	.LVL170
 3409 0398 D0070000 		.4byte	.LVL174
 3410 039c 0100     		.2byte	0x1
 3411 039e 56       		.byte	0x56
 3412 039f D0070000 		.4byte	.LVL174
 3413 03a3 E8070000 		.4byte	.LFE10
 3414 03a7 0600     		.2byte	0x6
 3415 03a9 03       		.byte	0x3
 3416 03aa 00000000 		.4byte	.LC0
 3417 03ae 9F       		.byte	0x9f
 3418 03af 00000000 		.4byte	0
 3419 03b3 00000000 		.4byte	0
ARM GAS  /var/folders/3j/4xdnk5197cv_b7cw3n33qk7r0000gn/T//ccgbYUOY.s 			page 61


 3420              	.LLST4:
 3421 03b7 28000000 		.4byte	.LVL2
 3422 03bb 4B000000 		.4byte	.LVL3-1
 3423 03bf 0100     		.2byte	0x1
 3424 03c1 51       		.byte	0x51
 3425 03c2 54000000 		.4byte	.LVL4
 3426 03c6 74000000 		.4byte	.LVL7
 3427 03ca 0100     		.2byte	0x1
 3428 03cc 51       		.byte	0x51
 3429 03cd AC000000 		.4byte	.LVL13
 3430 03d1 B4000000 		.4byte	.LVL14
 3431 03d5 0200     		.2byte	0x2
 3432 03d7 72       		.byte	0x72
 3433 03d8 7F       		.sleb128 -1
 3434 03d9 B4000000 		.4byte	.LVL14
 3435 03dd C0000000 		.4byte	.LVL17
 3436 03e1 0100     		.2byte	0x1
 3437 03e3 53       		.byte	0x53
 3438 03e4 D4000000 		.4byte	.LVL18
 3439 03e8 E8000000 		.4byte	.LVL19
 3440 03ec 0200     		.2byte	0x2
 3441 03ee 72       		.byte	0x72
 3442 03ef 7F       		.sleb128 -1
 3443 03f0 F4000000 		.4byte	.LVL21
 3444 03f4 14010000 		.4byte	.LVL23
 3445 03f8 0100     		.2byte	0x1
 3446 03fa 51       		.byte	0x51
 3447 03fb 18010000 		.4byte	.LVL24
 3448 03ff 24010000 		.4byte	.LVL25
 3449 0403 0100     		.2byte	0x1
 3450 0405 53       		.byte	0x53
 3451 0406 24010000 		.4byte	.LVL25
 3452 040a E8020000 		.4byte	.LVL27
 3453 040e 0100     		.2byte	0x1
 3454 0410 51       		.byte	0x51
 3455 0411 54030000 		.4byte	.LVL39
 3456 0415 58030000 		.4byte	.LVL40
 3457 0419 0100     		.2byte	0x1
 3458 041b 51       		.byte	0x51
 3459 041c 70050000 		.4byte	.LVL101
 3460 0420 74050000 		.4byte	.LVL102
 3461 0424 0100     		.2byte	0x1
 3462 0426 51       		.byte	0x51
 3463 0427 9C050000 		.4byte	.LVL106
 3464 042b A0050000 		.4byte	.LVL107
 3465 042f 0100     		.2byte	0x1
 3466 0431 51       		.byte	0x51
 3467 0432 A0050000 		.4byte	.LVL107
 3468 0436 A4050000 		.4byte	.LVL108
 3469 043a 0200     		.2byte	0x2
 3470 043c 3A       		.byte	0x3a
 3471 043d 9F       		.byte	0x9f
 3472 043e 34060000 		.4byte	.LVL128
 3473 0442 38060000 		.4byte	.LVL129
 3474 0446 0100     		.2byte	0x1
 3475 0448 51       		.byte	0x51
 3476 0449 38060000 		.4byte	.LVL129
ARM GAS  /var/folders/3j/4xdnk5197cv_b7cw3n33qk7r0000gn/T//ccgbYUOY.s 			page 62


 3477 044d 40060000 		.4byte	.LVL130
 3478 0451 0200     		.2byte	0x2
 3479 0453 38       		.byte	0x38
 3480 0454 9F       		.byte	0x9f
 3481 0455 40060000 		.4byte	.LVL130
 3482 0459 48060000 		.4byte	.LVL132
 3483 045d 0100     		.2byte	0x1
 3484 045f 51       		.byte	0x51
 3485 0460 78060000 		.4byte	.LVL136
 3486 0464 80060000 		.4byte	.LVL137
 3487 0468 0100     		.2byte	0x1
 3488 046a 51       		.byte	0x51
 3489 046b 80060000 		.4byte	.LVL137
 3490 046f 88060000 		.4byte	.LVL139
 3491 0473 0100     		.2byte	0x1
 3492 0475 53       		.byte	0x53
 3493 0476 8C060000 		.4byte	.LVL140
 3494 047a B4060000 		.4byte	.LVL141
 3495 047e 0100     		.2byte	0x1
 3496 0480 51       		.byte	0x51
 3497 0481 C4060000 		.4byte	.LVL142
 3498 0485 D0060000 		.4byte	.LVL143
 3499 0489 0100     		.2byte	0x1
 3500 048b 51       		.byte	0x51
 3501 048c D0060000 		.4byte	.LVL143
 3502 0490 D4060000 		.4byte	.LVL144
 3503 0494 0100     		.2byte	0x1
 3504 0496 53       		.byte	0x53
 3505 0497 5C070000 		.4byte	.LVL162
 3506 049b 64070000 		.4byte	.LVL163
 3507 049f 0100     		.2byte	0x1
 3508 04a1 53       		.byte	0x53
 3509 04a2 64070000 		.4byte	.LVL163
 3510 04a6 84070000 		.4byte	.LVL167
 3511 04aa 0100     		.2byte	0x1
 3512 04ac 51       		.byte	0x51
 3513 04ad 00000000 		.4byte	0
 3514 04b1 00000000 		.4byte	0
 3515              	.LLST5:
 3516 04b5 8C000000 		.4byte	.LVL9
 3517 04b9 A0000000 		.4byte	.LVL11
 3518 04bd 0300     		.2byte	0x3
 3519 04bf 08       		.byte	0x8
 3520 04c0 30       		.byte	0x30
 3521 04c1 9F       		.byte	0x9f
 3522 04c2 A0000000 		.4byte	.LVL11
 3523 04c6 E8020000 		.4byte	.LVL27
 3524 04ca 0100     		.2byte	0x1
 3525 04cc 57       		.byte	0x57
 3526 04cd E8020000 		.4byte	.LVL27
 3527 04d1 54030000 		.4byte	.LVL39
 3528 04d5 0300     		.2byte	0x3
 3529 04d7 08       		.byte	0x8
 3530 04d8 20       		.byte	0x20
 3531 04d9 9F       		.byte	0x9f
 3532 04da 54030000 		.4byte	.LVL39
 3533 04de 74050000 		.4byte	.LVL102
ARM GAS  /var/folders/3j/4xdnk5197cv_b7cw3n33qk7r0000gn/T//ccgbYUOY.s 			page 63


 3534 04e2 0100     		.2byte	0x1
 3535 04e4 57       		.byte	0x57
 3536 04e5 74050000 		.4byte	.LVL102
 3537 04e9 9C050000 		.4byte	.LVL106
 3538 04ed 0300     		.2byte	0x3
 3539 04ef 08       		.byte	0x8
 3540 04f0 20       		.byte	0x20
 3541 04f1 9F       		.byte	0x9f
 3542 04f2 9C050000 		.4byte	.LVL106
 3543 04f6 84070000 		.4byte	.LVL167
 3544 04fa 0100     		.2byte	0x1
 3545 04fc 57       		.byte	0x57
 3546 04fd 84070000 		.4byte	.LVL167
 3547 0501 B0070000 		.4byte	.LVL171
 3548 0505 0300     		.2byte	0x3
 3549 0507 08       		.byte	0x8
 3550 0508 20       		.byte	0x20
 3551 0509 9F       		.byte	0x9f
 3552 050a B0070000 		.4byte	.LVL171
 3553 050e D0070000 		.4byte	.LVL174
 3554 0512 0100     		.2byte	0x1
 3555 0514 57       		.byte	0x57
 3556 0515 D0070000 		.4byte	.LVL174
 3557 0519 E8070000 		.4byte	.LFE10
 3558 051d 0300     		.2byte	0x3
 3559 051f 08       		.byte	0x8
 3560 0520 20       		.byte	0x20
 3561 0521 9F       		.byte	0x9f
 3562 0522 00000000 		.4byte	0
 3563 0526 00000000 		.4byte	0
 3564              	.LLST6:
 3565 052a 28050000 		.4byte	.LVL94
 3566 052e 30050000 		.4byte	.LVL95
 3567 0532 0100     		.2byte	0x1
 3568 0534 5B       		.byte	0x5b
 3569 0535 30050000 		.4byte	.LVL95
 3570 0539 40050000 		.4byte	.LVL97
 3571 053d 0300     		.2byte	0x3
 3572 053f 7B       		.byte	0x7b
 3573 0540 01       		.sleb128 1
 3574 0541 9F       		.byte	0x9f
 3575 0542 40050000 		.4byte	.LVL97
 3576 0546 48050000 		.4byte	.LVL98
 3577 054a 0100     		.2byte	0x1
 3578 054c 5B       		.byte	0x5b
 3579 054d 00000000 		.4byte	0
 3580 0551 00000000 		.4byte	0
 3581              	.LLST7:
 3582 0555 E8000000 		.4byte	.LVL19
 3583 0559 F4000000 		.4byte	.LVL21
 3584 055d 0200     		.2byte	0x2
 3585 055f 30       		.byte	0x30
 3586 0560 9F       		.byte	0x9f
 3587 0561 F4000000 		.4byte	.LVL21
 3588 0565 10030000 		.4byte	.LVL30
 3589 0569 0100     		.2byte	0x1
 3590 056b 52       		.byte	0x52
ARM GAS  /var/folders/3j/4xdnk5197cv_b7cw3n33qk7r0000gn/T//ccgbYUOY.s 			page 64


 3591 056c 10030000 		.4byte	.LVL30
 3592 0570 20030000 		.4byte	.LVL31
 3593 0574 0400     		.2byte	0x4
 3594 0576 0A       		.byte	0xa
 3595 0577 FF7F     		.2byte	0x7fff
 3596 0579 9F       		.byte	0x9f
 3597 057a 2C030000 		.4byte	.LVL32
 3598 057e 30030000 		.4byte	.LVL33
 3599 0582 0300     		.2byte	0x3
 3600 0584 72       		.byte	0x72
 3601 0585 7F       		.sleb128 -1
 3602 0586 9F       		.byte	0x9f
 3603 0587 30030000 		.4byte	.LVL33
 3604 058b 34030000 		.4byte	.LVL34
 3605 058f 0100     		.2byte	0x1
 3606 0591 52       		.byte	0x52
 3607 0592 34030000 		.4byte	.LVL34
 3608 0596 40030000 		.4byte	.LVL36
 3609 059a 0300     		.2byte	0x3
 3610 059c 72       		.byte	0x72
 3611 059d 7F       		.sleb128 -1
 3612 059e 9F       		.byte	0x9f
 3613 059f 54030000 		.4byte	.LVL39
 3614 05a3 68030000 		.4byte	.LVL41
 3615 05a7 0100     		.2byte	0x1
 3616 05a9 52       		.byte	0x52
 3617 05aa 70050000 		.4byte	.LVL101
 3618 05ae 80050000 		.4byte	.LVL103
 3619 05b2 0100     		.2byte	0x1
 3620 05b4 52       		.byte	0x52
 3621 05b5 9C050000 		.4byte	.LVL106
 3622 05b9 B8050000 		.4byte	.LVL110
 3623 05bd 0100     		.2byte	0x1
 3624 05bf 52       		.byte	0x52
 3625 05c0 34060000 		.4byte	.LVL128
 3626 05c4 5C060000 		.4byte	.LVL134
 3627 05c8 0100     		.2byte	0x1
 3628 05ca 52       		.byte	0x52
 3629 05cb 68060000 		.4byte	.LVL135
 3630 05cf 78060000 		.4byte	.LVL136
 3631 05d3 0200     		.2byte	0x2
 3632 05d5 30       		.byte	0x30
 3633 05d6 9F       		.byte	0x9f
 3634 05d7 78060000 		.4byte	.LVL136
 3635 05db 84060000 		.4byte	.LVL138
 3636 05df 0100     		.2byte	0x1
 3637 05e1 52       		.byte	0x52
 3638 05e2 84060000 		.4byte	.LVL138
 3639 05e6 88060000 		.4byte	.LVL139
 3640 05ea 0500     		.2byte	0x5
 3641 05ec 70       		.byte	0x70
 3642 05ed 00       		.sleb128 0
 3643 05ee 31       		.byte	0x31
 3644 05ef 24       		.byte	0x24
 3645 05f0 9F       		.byte	0x9f
 3646 05f1 88060000 		.4byte	.LVL139
 3647 05f5 B4060000 		.4byte	.LVL141
ARM GAS  /var/folders/3j/4xdnk5197cv_b7cw3n33qk7r0000gn/T//ccgbYUOY.s 			page 65


 3648 05f9 0100     		.2byte	0x1
 3649 05fb 52       		.byte	0x52
 3650 05fc C4060000 		.4byte	.LVL142
 3651 0600 D4060000 		.4byte	.LVL144
 3652 0604 0100     		.2byte	0x1
 3653 0606 52       		.byte	0x52
 3654 0607 5C070000 		.4byte	.LVL162
 3655 060b 68070000 		.4byte	.LVL164
 3656 060f 0100     		.2byte	0x1
 3657 0611 52       		.byte	0x52
 3658 0612 84070000 		.4byte	.LVL167
 3659 0616 98070000 		.4byte	.LVL169
 3660 061a 0100     		.2byte	0x1
 3661 061c 52       		.byte	0x52
 3662 061d 98070000 		.4byte	.LVL169
 3663 0621 9C070000 		.4byte	.LVL170
 3664 0625 0300     		.2byte	0x3
 3665 0627 72       		.byte	0x72
 3666 0628 01       		.sleb128 1
 3667 0629 9F       		.byte	0x9f
 3668 062a 9C070000 		.4byte	.LVL170
 3669 062e B0070000 		.4byte	.LVL171
 3670 0632 0100     		.2byte	0x1
 3671 0634 52       		.byte	0x52
 3672 0635 D0070000 		.4byte	.LVL174
 3673 0639 E8070000 		.4byte	.LFE10
 3674 063d 0100     		.2byte	0x1
 3675 063f 52       		.byte	0x52
 3676 0640 00000000 		.4byte	0
 3677 0644 00000000 		.4byte	0
 3678              	.LLST8:
 3679 0648 A0000000 		.4byte	.LVL11
 3680 064c AC000000 		.4byte	.LVL13
 3681 0650 0200     		.2byte	0x2
 3682 0652 30       		.byte	0x30
 3683 0653 9F       		.byte	0x9f
 3684 0654 AC000000 		.4byte	.LVL13
 3685 0658 48030000 		.4byte	.LVL38
 3686 065c 0100     		.2byte	0x1
 3687 065e 54       		.byte	0x54
 3688 065f 54030000 		.4byte	.LVL39
 3689 0663 C8040000 		.4byte	.LVL86
 3690 0667 0100     		.2byte	0x1
 3691 0669 54       		.byte	0x54
 3692 066a E4040000 		.4byte	.LVL89
 3693 066e 18050000 		.4byte	.LVL91
 3694 0672 0100     		.2byte	0x1
 3695 0674 54       		.byte	0x54
 3696 0675 18050000 		.4byte	.LVL91
 3697 0679 1C050000 		.4byte	.LVL92
 3698 067d 0300     		.2byte	0x3
 3699 067f 74       		.byte	0x74
 3700 0680 01       		.sleb128 1
 3701 0681 9F       		.byte	0x9f
 3702 0682 1C050000 		.4byte	.LVL92
 3703 0686 20050000 		.4byte	.LVL93
 3704 068a 0100     		.2byte	0x1
ARM GAS  /var/folders/3j/4xdnk5197cv_b7cw3n33qk7r0000gn/T//ccgbYUOY.s 			page 66


 3705 068c 54       		.byte	0x54
 3706 068d 20050000 		.4byte	.LVL93
 3707 0691 28050000 		.4byte	.LVL94
 3708 0695 0200     		.2byte	0x2
 3709 0697 30       		.byte	0x30
 3710 0698 9F       		.byte	0x9f
 3711 0699 48050000 		.4byte	.LVL98
 3712 069d 64050000 		.4byte	.LVL99
 3713 06a1 0100     		.2byte	0x1
 3714 06a3 54       		.byte	0x54
 3715 06a4 64050000 		.4byte	.LVL99
 3716 06a8 68050000 		.4byte	.LVL100
 3717 06ac 0300     		.2byte	0x3
 3718 06ae 74       		.byte	0x74
 3719 06af 7F       		.sleb128 -1
 3720 06b0 9F       		.byte	0x9f
 3721 06b1 68050000 		.4byte	.LVL100
 3722 06b5 88050000 		.4byte	.LVL104
 3723 06b9 0100     		.2byte	0x1
 3724 06bb 54       		.byte	0x54
 3725 06bc 88050000 		.4byte	.LVL104
 3726 06c0 9C050000 		.4byte	.LVL106
 3727 06c4 0300     		.2byte	0x3
 3728 06c6 74       		.byte	0x74
 3729 06c7 01       		.sleb128 1
 3730 06c8 9F       		.byte	0x9f
 3731 06c9 9C050000 		.4byte	.LVL106
 3732 06cd 10060000 		.4byte	.LVL125
 3733 06d1 0100     		.2byte	0x1
 3734 06d3 54       		.byte	0x54
 3735 06d4 1C060000 		.4byte	.LVL127
 3736 06d8 34060000 		.4byte	.LVL128
 3737 06dc 0200     		.2byte	0x2
 3738 06de 30       		.byte	0x30
 3739 06df 9F       		.byte	0x9f
 3740 06e0 34060000 		.4byte	.LVL128
 3741 06e4 54060000 		.4byte	.LVL133
 3742 06e8 0100     		.2byte	0x1
 3743 06ea 54       		.byte	0x54
 3744 06eb 54060000 		.4byte	.LVL133
 3745 06ef 5C060000 		.4byte	.LVL134
 3746 06f3 0300     		.2byte	0x3
 3747 06f5 74       		.byte	0x74
 3748 06f6 01       		.sleb128 1
 3749 06f7 9F       		.byte	0x9f
 3750 06f8 5C060000 		.4byte	.LVL134
 3751 06fc B4060000 		.4byte	.LVL141
 3752 0700 0100     		.2byte	0x1
 3753 0702 54       		.byte	0x54
 3754 0703 B4060000 		.4byte	.LVL141
 3755 0707 C4060000 		.4byte	.LVL142
 3756 070b 0200     		.2byte	0x2
 3757 070d 30       		.byte	0x30
 3758 070e 9F       		.byte	0x9f
 3759 070f C4060000 		.4byte	.LVL142
 3760 0713 54070000 		.4byte	.LVL160
 3761 0717 0100     		.2byte	0x1
ARM GAS  /var/folders/3j/4xdnk5197cv_b7cw3n33qk7r0000gn/T//ccgbYUOY.s 			page 67


 3762 0719 54       		.byte	0x54
 3763 071a 5C070000 		.4byte	.LVL162
 3764 071e E8070000 		.4byte	.LFE10
 3765 0722 0100     		.2byte	0x1
 3766 0724 54       		.byte	0x54
 3767 0725 00000000 		.4byte	0
 3768 0729 00000000 		.4byte	0
 3769              	.LLST9:
 3770 072d 04010000 		.4byte	.LVL22
 3771 0731 24010000 		.4byte	.LVL25
 3772 0735 0200     		.2byte	0x2
 3773 0737 31       		.byte	0x31
 3774 0738 9F       		.byte	0x9f
 3775 0739 04020000 		.4byte	.LVL26
 3776 073d E8020000 		.4byte	.LVL27
 3777 0741 0B00     		.2byte	0xb
 3778 0743 73       		.byte	0x73
 3779 0744 00       		.sleb128 0
 3780 0745 08       		.byte	0x8
 3781 0746 FF       		.byte	0xff
 3782 0747 1A       		.byte	0x1a
 3783 0748 49       		.byte	0x49
 3784 0749 2C       		.byte	0x2c
 3785 074a 08       		.byte	0x8
 3786 074b FF       		.byte	0xff
 3787 074c 1A       		.byte	0x1a
 3788 074d 9F       		.byte	0x9f
 3789 074e 54030000 		.4byte	.LVL39
 3790 0752 58030000 		.4byte	.LVL40
 3791 0756 0B00     		.2byte	0xb
 3792 0758 73       		.byte	0x73
 3793 0759 00       		.sleb128 0
 3794 075a 08       		.byte	0x8
 3795 075b FF       		.byte	0xff
 3796 075c 1A       		.byte	0x1a
 3797 075d 49       		.byte	0x49
 3798 075e 2C       		.byte	0x2c
 3799 075f 08       		.byte	0x8
 3800 0760 FF       		.byte	0xff
 3801 0761 1A       		.byte	0x1a
 3802 0762 9F       		.byte	0x9f
 3803 0763 70050000 		.4byte	.LVL101
 3804 0767 74050000 		.4byte	.LVL102
 3805 076b 0B00     		.2byte	0xb
 3806 076d 73       		.byte	0x73
 3807 076e 00       		.sleb128 0
 3808 076f 08       		.byte	0x8
 3809 0770 FF       		.byte	0xff
 3810 0771 1A       		.byte	0x1a
 3811 0772 49       		.byte	0x49
 3812 0773 2C       		.byte	0x2c
 3813 0774 08       		.byte	0x8
 3814 0775 FF       		.byte	0xff
 3815 0776 1A       		.byte	0x1a
 3816 0777 9F       		.byte	0x9f
 3817 0778 9C050000 		.4byte	.LVL106
 3818 077c A0050000 		.4byte	.LVL107
ARM GAS  /var/folders/3j/4xdnk5197cv_b7cw3n33qk7r0000gn/T//ccgbYUOY.s 			page 68


 3819 0780 0B00     		.2byte	0xb
 3820 0782 73       		.byte	0x73
 3821 0783 00       		.sleb128 0
 3822 0784 08       		.byte	0x8
 3823 0785 FF       		.byte	0xff
 3824 0786 1A       		.byte	0x1a
 3825 0787 49       		.byte	0x49
 3826 0788 2C       		.byte	0x2c
 3827 0789 08       		.byte	0x8
 3828 078a FF       		.byte	0xff
 3829 078b 1A       		.byte	0x1a
 3830 078c 9F       		.byte	0x9f
 3831 078d 34060000 		.4byte	.LVL128
 3832 0791 38060000 		.4byte	.LVL129
 3833 0795 0B00     		.2byte	0xb
 3834 0797 73       		.byte	0x73
 3835 0798 00       		.sleb128 0
 3836 0799 08       		.byte	0x8
 3837 079a FF       		.byte	0xff
 3838 079b 1A       		.byte	0x1a
 3839 079c 49       		.byte	0x49
 3840 079d 2C       		.byte	0x2c
 3841 079e 08       		.byte	0x8
 3842 079f FF       		.byte	0xff
 3843 07a0 1A       		.byte	0x1a
 3844 07a1 9F       		.byte	0x9f
 3845 07a2 40060000 		.4byte	.LVL130
 3846 07a6 44060000 		.4byte	.LVL131
 3847 07aa 0B00     		.2byte	0xb
 3848 07ac 73       		.byte	0x73
 3849 07ad 00       		.sleb128 0
 3850 07ae 08       		.byte	0x8
 3851 07af FF       		.byte	0xff
 3852 07b0 1A       		.byte	0x1a
 3853 07b1 49       		.byte	0x49
 3854 07b2 2C       		.byte	0x2c
 3855 07b3 08       		.byte	0x8
 3856 07b4 FF       		.byte	0xff
 3857 07b5 1A       		.byte	0x1a
 3858 07b6 9F       		.byte	0x9f
 3859 07b7 44060000 		.4byte	.LVL131
 3860 07bb 48060000 		.4byte	.LVL132
 3861 07bf 0C00     		.2byte	0xc
 3862 07c1 71       		.byte	0x71
 3863 07c2 BF7F     		.sleb128 -65
 3864 07c4 08       		.byte	0x8
 3865 07c5 FF       		.byte	0xff
 3866 07c6 1A       		.byte	0x1a
 3867 07c7 49       		.byte	0x49
 3868 07c8 2C       		.byte	0x2c
 3869 07c9 08       		.byte	0x8
 3870 07ca FF       		.byte	0xff
 3871 07cb 1A       		.byte	0x1a
 3872 07cc 9F       		.byte	0x9f
 3873 07cd C4060000 		.4byte	.LVL142
 3874 07d1 D0060000 		.4byte	.LVL143
 3875 07d5 0B00     		.2byte	0xb
ARM GAS  /var/folders/3j/4xdnk5197cv_b7cw3n33qk7r0000gn/T//ccgbYUOY.s 			page 69


 3876 07d7 73       		.byte	0x73
 3877 07d8 00       		.sleb128 0
 3878 07d9 08       		.byte	0x8
 3879 07da FF       		.byte	0xff
 3880 07db 1A       		.byte	0x1a
 3881 07dc 49       		.byte	0x49
 3882 07dd 2C       		.byte	0x2c
 3883 07de 08       		.byte	0x8
 3884 07df FF       		.byte	0xff
 3885 07e0 1A       		.byte	0x1a
 3886 07e1 9F       		.byte	0x9f
 3887 07e2 D0060000 		.4byte	.LVL143
 3888 07e6 D4060000 		.4byte	.LVL144
 3889 07ea 0200     		.2byte	0x2
 3890 07ec 31       		.byte	0x31
 3891 07ed 9F       		.byte	0x9f
 3892 07ee 5C070000 		.4byte	.LVL162
 3893 07f2 64070000 		.4byte	.LVL163
 3894 07f6 0200     		.2byte	0x2
 3895 07f8 31       		.byte	0x31
 3896 07f9 9F       		.byte	0x9f
 3897 07fa 64070000 		.4byte	.LVL163
 3898 07fe 70070000 		.4byte	.LVL165
 3899 0802 0B00     		.2byte	0xb
 3900 0804 73       		.byte	0x73
 3901 0805 00       		.sleb128 0
 3902 0806 08       		.byte	0x8
 3903 0807 FF       		.byte	0xff
 3904 0808 1A       		.byte	0x1a
 3905 0809 49       		.byte	0x49
 3906 080a 2C       		.byte	0x2c
 3907 080b 08       		.byte	0x8
 3908 080c FF       		.byte	0xff
 3909 080d 1A       		.byte	0x1a
 3910 080e 9F       		.byte	0x9f
 3911 080f 70070000 		.4byte	.LVL165
 3912 0813 84070000 		.4byte	.LVL167
 3913 0817 0C00     		.2byte	0xc
 3914 0819 71       		.byte	0x71
 3915 081a BF7F     		.sleb128 -65
 3916 081c 08       		.byte	0x8
 3917 081d FF       		.byte	0xff
 3918 081e 1A       		.byte	0x1a
 3919 081f 49       		.byte	0x49
 3920 0820 2C       		.byte	0x2c
 3921 0821 08       		.byte	0x8
 3922 0822 FF       		.byte	0xff
 3923 0823 1A       		.byte	0x1a
 3924 0824 9F       		.byte	0x9f
 3925 0825 00000000 		.4byte	0
 3926 0829 00000000 		.4byte	0
 3927              	.LLST10:
 3928 082d 6C000000 		.4byte	.LVL6
 3929 0831 84000000 		.4byte	.LVL8
 3930 0835 0200     		.2byte	0x2
 3931 0837 30       		.byte	0x30
 3932 0838 9F       		.byte	0x9f
ARM GAS  /var/folders/3j/4xdnk5197cv_b7cw3n33qk7r0000gn/T//ccgbYUOY.s 			page 70


 3933 0839 84000000 		.4byte	.LVL8
 3934 083d 8C000000 		.4byte	.LVL9
 3935 0841 0200     		.2byte	0x2
 3936 0843 31       		.byte	0x31
 3937 0844 9F       		.byte	0x9f
 3938 0845 8C000000 		.4byte	.LVL9
 3939 0849 E8070000 		.4byte	.LFE10
 3940 084d 0100     		.2byte	0x1
 3941 084f 58       		.byte	0x58
 3942 0850 00000000 		.4byte	0
 3943 0854 00000000 		.4byte	0
 3944              	.LLST11:
 3945 0858 B4050000 		.4byte	.LVL109
 3946 085c B8050000 		.4byte	.LVL110
 3947 0860 0100     		.2byte	0x1
 3948 0862 50       		.byte	0x50
 3949 0863 E0060000 		.4byte	.LVL145
 3950 0867 08070000 		.4byte	.LVL148
 3951 086b 0100     		.2byte	0x1
 3952 086d 5E       		.byte	0x5e
 3953 086e 00000000 		.4byte	0
 3954 0872 00000000 		.4byte	0
 3955              	.LLST12:
 3956 0876 7C030000 		.4byte	.LVL43
 3957 087a 7F030000 		.4byte	.LVL44-1
 3958 087e 0100     		.2byte	0x1
 3959 0880 50       		.byte	0x50
 3960 0881 7F030000 		.4byte	.LVL44-1
 3961 0885 C0030000 		.4byte	.LVL52
 3962 0889 0100     		.2byte	0x1
 3963 088b 5B       		.byte	0x5b
 3964 088c 00000000 		.4byte	0
 3965 0890 00000000 		.4byte	0
 3966              	.LLST13:
 3967 0894 B0030000 		.4byte	.LVL49
 3968 0898 B4030000 		.4byte	.LVL50
 3969 089c 0600     		.2byte	0x6
 3970 089e 50       		.byte	0x50
 3971 089f 93       		.byte	0x93
 3972 08a0 04       		.uleb128 0x4
 3973 08a1 51       		.byte	0x51
 3974 08a2 93       		.byte	0x93
 3975 08a3 04       		.uleb128 0x4
 3976 08a4 B4030000 		.4byte	.LVL50
 3977 08a8 64040000 		.4byte	.LVL73
 3978 08ac 0200     		.2byte	0x2
 3979 08ae 7D       		.byte	0x7d
 3980 08af 00       		.sleb128 0
 3981 08b0 00000000 		.4byte	0
 3982 08b4 00000000 		.4byte	0
 3983              	.LLST14:
 3984 08b8 B0030000 		.4byte	.LVL49
 3985 08bc 2C040000 		.4byte	.LVL68
 3986 08c0 0300     		.2byte	0x3
 3987 08c2 91       		.byte	0x91
 3988 08c3 8C7F     		.sleb128 -116
 3989 08c5 64040000 		.4byte	.LVL73
ARM GAS  /var/folders/3j/4xdnk5197cv_b7cw3n33qk7r0000gn/T//ccgbYUOY.s 			page 71


 3990 08c9 68040000 		.4byte	.LVL74
 3991 08cd 0100     		.2byte	0x1
 3992 08cf 51       		.byte	0x51
 3993 08d0 68040000 		.4byte	.LVL74
 3994 08d4 CC040000 		.4byte	.LVL87
 3995 08d8 0200     		.2byte	0x2
 3996 08da 7D       		.byte	0x7d
 3997 08db 00       		.sleb128 0
 3998 08dc 00000000 		.4byte	0
 3999 08e0 00000000 		.4byte	0
 4000              	.LLST15:
 4001 08e4 C0030000 		.4byte	.LVL52
 4002 08e8 CC030000 		.4byte	.LVL54
 4003 08ec 0100     		.2byte	0x1
 4004 08ee 50       		.byte	0x50
 4005 08ef CC030000 		.4byte	.LVL54
 4006 08f3 2C040000 		.4byte	.LVL68
 4007 08f7 0100     		.2byte	0x1
 4008 08f9 5B       		.byte	0x5b
 4009 08fa 2C040000 		.4byte	.LVL68
 4010 08fe 2F040000 		.4byte	.LVL69-1
 4011 0902 0100     		.2byte	0x1
 4012 0904 50       		.byte	0x50
 4013 0905 00000000 		.4byte	0
 4014 0909 00000000 		.4byte	0
 4015              	.LLST16:
 4016 090d B0030000 		.4byte	.LVL49
 4017 0911 CC040000 		.4byte	.LVL87
 4018 0915 0600     		.2byte	0x6
 4019 0917 0C       		.byte	0xc
 4020 0918 A0860100 		.4byte	0x186a0
 4021 091c 9F       		.byte	0x9f
 4022 091d 00000000 		.4byte	0
 4023 0921 00000000 		.4byte	0
 4024              	.LLST17:
 4025 0925 C0030000 		.4byte	.LVL52
 4026 0929 2C040000 		.4byte	.LVL68
 4027 092d 0200     		.2byte	0x2
 4028 092f 30       		.byte	0x30
 4029 0930 9F       		.byte	0x9f
 4030 0931 00000000 		.4byte	0
 4031 0935 00000000 		.4byte	0
 4032              	.LLST18:
 4033 0939 C0030000 		.4byte	.LVL52
 4034 093d 2C040000 		.4byte	.LVL68
 4035 0941 0200     		.2byte	0x2
 4036 0943 3A       		.byte	0x3a
 4037 0944 9F       		.byte	0x9f
 4038 0945 00000000 		.4byte	0
 4039 0949 00000000 		.4byte	0
 4040              	.LLST19:
 4041 094d C0030000 		.4byte	.LVL52
 4042 0951 CC030000 		.4byte	.LVL54
 4043 0955 0100     		.2byte	0x1
 4044 0957 50       		.byte	0x50
 4045 0958 CC030000 		.4byte	.LVL54
 4046 095c 2C040000 		.4byte	.LVL68
ARM GAS  /var/folders/3j/4xdnk5197cv_b7cw3n33qk7r0000gn/T//ccgbYUOY.s 			page 72


 4047 0960 0100     		.2byte	0x1
 4048 0962 5B       		.byte	0x5b
 4049 0963 00000000 		.4byte	0
 4050 0967 00000000 		.4byte	0
 4051              	.LLST20:
 4052 096b C0030000 		.4byte	.LVL52
 4053 096f 08040000 		.4byte	.LVL65
 4054 0973 0300     		.2byte	0x3
 4055 0975 91       		.byte	0x91
 4056 0976 8C7F     		.sleb128 -116
 4057 0978 08040000 		.4byte	.LVL65
 4058 097c 0C040000 		.4byte	.LVL66
 4059 0980 0300     		.2byte	0x3
 4060 0982 73       		.byte	0x73
 4061 0983 7F       		.sleb128 -1
 4062 0984 9F       		.byte	0x9f
 4063 0985 0C040000 		.4byte	.LVL66
 4064 0989 10040000 		.4byte	.LVL67
 4065 098d 0100     		.2byte	0x1
 4066 098f 53       		.byte	0x53
 4067 0990 10040000 		.4byte	.LVL67
 4068 0994 2C040000 		.4byte	.LVL68
 4069 0998 0300     		.2byte	0x3
 4070 099a 73       		.byte	0x73
 4071 099b 7F       		.sleb128 -1
 4072 099c 9F       		.byte	0x9f
 4073 099d 00000000 		.4byte	0
 4074 09a1 00000000 		.4byte	0
 4075              	.LLST21:
 4076 09a5 E0030000 		.4byte	.LVL56
 4077 09a9 E4030000 		.4byte	.LVL57
 4078 09ad 0300     		.2byte	0x3
 4079 09af 71       		.byte	0x71
 4080 09b0 30       		.sleb128 48
 4081 09b1 9F       		.byte	0x9f
 4082 09b2 E4030000 		.4byte	.LVL57
 4083 09b6 E8030000 		.4byte	.LVL58
 4084 09ba 0100     		.2byte	0x1
 4085 09bc 51       		.byte	0x51
 4086 09bd E8030000 		.4byte	.LVL58
 4087 09c1 EC030000 		.4byte	.LVL59
 4088 09c5 0F00     		.2byte	0xf
 4089 09c7 73       		.byte	0x73
 4090 09c8 00       		.sleb128 0
 4091 09c9 70       		.byte	0x70
 4092 09ca 00       		.sleb128 0
 4093 09cb 32       		.byte	0x32
 4094 09cc 24       		.byte	0x24
 4095 09cd 70       		.byte	0x70
 4096 09ce 00       		.sleb128 0
 4097 09cf 22       		.byte	0x22
 4098 09d0 31       		.byte	0x31
 4099 09d1 24       		.byte	0x24
 4100 09d2 1C       		.byte	0x1c
 4101 09d3 23       		.byte	0x23
 4102 09d4 30       		.uleb128 0x30
 4103 09d5 9F       		.byte	0x9f
ARM GAS  /var/folders/3j/4xdnk5197cv_b7cw3n33qk7r0000gn/T//ccgbYUOY.s 			page 73


 4104 09d6 F8030000 		.4byte	.LVL61
 4105 09da 08040000 		.4byte	.LVL65
 4106 09de 0100     		.2byte	0x1
 4107 09e0 5E       		.byte	0x5e
 4108 09e1 00000000 		.4byte	0
 4109 09e5 00000000 		.4byte	0
 4110              	.LLST22:
 4111 09e9 C4030000 		.4byte	.LVL53
 4112 09ed CC030000 		.4byte	.LVL54
 4113 09f1 0100     		.2byte	0x1
 4114 09f3 5E       		.byte	0x5e
 4115 09f4 CC030000 		.4byte	.LVL54
 4116 09f8 E0030000 		.4byte	.LVL56
 4117 09fc 0100     		.2byte	0x1
 4118 09fe 5C       		.byte	0x5c
 4119 09ff E0030000 		.4byte	.LVL56
 4120 0a03 F0030000 		.4byte	.LVL60
 4121 0a07 0300     		.2byte	0x3
 4122 0a09 7C       		.byte	0x7c
 4123 0a0a 7F       		.sleb128 -1
 4124 0a0b 9F       		.byte	0x9f
 4125 0a0c F0030000 		.4byte	.LVL60
 4126 0a10 04040000 		.4byte	.LVL64
 4127 0a14 0100     		.2byte	0x1
 4128 0a16 5C       		.byte	0x5c
 4129 0a17 04040000 		.4byte	.LVL64
 4130 0a1b 08040000 		.4byte	.LVL65
 4131 0a1f 0100     		.2byte	0x1
 4132 0a21 50       		.byte	0x50
 4133 0a22 00000000 		.4byte	0
 4134 0a26 00000000 		.4byte	0
 4135              	.LLST23:
 4136 0a2a C0030000 		.4byte	.LVL52
 4137 0a2e D0030000 		.4byte	.LVL55
 4138 0a32 0100     		.2byte	0x1
 4139 0a34 50       		.byte	0x50
 4140 0a35 D0030000 		.4byte	.LVL55
 4141 0a39 E0030000 		.4byte	.LVL56
 4142 0a3d 0100     		.2byte	0x1
 4143 0a3f 53       		.byte	0x53
 4144 0a40 E0030000 		.4byte	.LVL56
 4145 0a44 FC030000 		.4byte	.LVL62
 4146 0a48 0100     		.2byte	0x1
 4147 0a4a 50       		.byte	0x50
 4148 0a4b FC030000 		.4byte	.LVL62
 4149 0a4f 00040000 		.4byte	.LVL63
 4150 0a53 0100     		.2byte	0x1
 4151 0a55 53       		.byte	0x53
 4152 0a56 00000000 		.4byte	0
 4153 0a5a 00000000 		.4byte	0
 4154              	.LLST25:
 4155 0a5e 64040000 		.4byte	.LVL73
 4156 0a62 CC040000 		.4byte	.LVL87
 4157 0a66 0200     		.2byte	0x2
 4158 0a68 3A       		.byte	0x3a
 4159 0a69 9F       		.byte	0x9f
 4160 0a6a 00000000 		.4byte	0
ARM GAS  /var/folders/3j/4xdnk5197cv_b7cw3n33qk7r0000gn/T//ccgbYUOY.s 			page 74


 4161 0a6e 00000000 		.4byte	0
 4162              	.LLST26:
 4163 0a72 64040000 		.4byte	.LVL73
 4164 0a76 CC040000 		.4byte	.LVL87
 4165 0a7a 0400     		.2byte	0x4
 4166 0a7c 0A       		.byte	0xa
 4167 0a7d 1027     		.2byte	0x2710
 4168 0a7f 9F       		.byte	0x9f
 4169 0a80 00000000 		.4byte	0
 4170 0a84 00000000 		.4byte	0
 4171              	.LLST27:
 4172 0a88 64040000 		.4byte	.LVL73
 4173 0a8c 68040000 		.4byte	.LVL74
 4174 0a90 0100     		.2byte	0x1
 4175 0a92 51       		.byte	0x51
 4176 0a93 68040000 		.4byte	.LVL74
 4177 0a97 A8040000 		.4byte	.LVL83
 4178 0a9b 0200     		.2byte	0x2
 4179 0a9d 7D       		.byte	0x7d
 4180 0a9e 00       		.sleb128 0
 4181 0a9f A8040000 		.4byte	.LVL83
 4182 0aa3 AC040000 		.4byte	.LVL84
 4183 0aa7 0300     		.2byte	0x3
 4184 0aa9 72       		.byte	0x72
 4185 0aaa 7F       		.sleb128 -1
 4186 0aab 9F       		.byte	0x9f
 4187 0aac AC040000 		.4byte	.LVL84
 4188 0ab0 B0040000 		.4byte	.LVL85
 4189 0ab4 0100     		.2byte	0x1
 4190 0ab6 52       		.byte	0x52
 4191 0ab7 B0040000 		.4byte	.LVL85
 4192 0abb CC040000 		.4byte	.LVL87
 4193 0abf 0300     		.2byte	0x3
 4194 0ac1 72       		.byte	0x72
 4195 0ac2 7F       		.sleb128 -1
 4196 0ac3 9F       		.byte	0x9f
 4197 0ac4 00000000 		.4byte	0
 4198 0ac8 00000000 		.4byte	0
 4199              	.LLST28:
 4200 0acc 7C040000 		.4byte	.LVL75
 4201 0ad0 80040000 		.4byte	.LVL76
 4202 0ad4 0300     		.2byte	0x3
 4203 0ad6 71       		.byte	0x71
 4204 0ad7 30       		.sleb128 48
 4205 0ad8 9F       		.byte	0x9f
 4206 0ad9 80040000 		.4byte	.LVL76
 4207 0add 84040000 		.4byte	.LVL77
 4208 0ae1 0100     		.2byte	0x1
 4209 0ae3 51       		.byte	0x51
 4210 0ae4 84040000 		.4byte	.LVL77
 4211 0ae8 90040000 		.4byte	.LVL79
 4212 0aec 0F00     		.2byte	0xf
 4213 0aee 72       		.byte	0x72
 4214 0aef 00       		.sleb128 0
 4215 0af0 70       		.byte	0x70
 4216 0af1 00       		.sleb128 0
 4217 0af2 32       		.byte	0x32
ARM GAS  /var/folders/3j/4xdnk5197cv_b7cw3n33qk7r0000gn/T//ccgbYUOY.s 			page 75


 4218 0af3 24       		.byte	0x24
 4219 0af4 70       		.byte	0x70
 4220 0af5 00       		.sleb128 0
 4221 0af6 22       		.byte	0x22
 4222 0af7 31       		.byte	0x31
 4223 0af8 24       		.byte	0x24
 4224 0af9 1C       		.byte	0x1c
 4225 0afa 23       		.byte	0x23
 4226 0afb 30       		.uleb128 0x30
 4227 0afc 9F       		.byte	0x9f
 4228 0afd 94040000 		.4byte	.LVL80
 4229 0b01 98040000 		.4byte	.LVL81
 4230 0b05 0600     		.2byte	0x6
 4231 0b07 7E       		.byte	0x7e
 4232 0b08 00       		.sleb128 0
 4233 0b09 73       		.byte	0x73
 4234 0b0a 00       		.sleb128 0
 4235 0b0b 1C       		.byte	0x1c
 4236 0b0c 9F       		.byte	0x9f
 4237 0b0d 98040000 		.4byte	.LVL81
 4238 0b11 A4040000 		.4byte	.LVL82
 4239 0b15 0800     		.2byte	0x8
 4240 0b17 7B       		.byte	0x7b
 4241 0b18 00       		.sleb128 0
 4242 0b19 73       		.byte	0x73
 4243 0b1a 00       		.sleb128 0
 4244 0b1b 1C       		.byte	0x1c
 4245 0b1c 23       		.byte	0x23
 4246 0b1d 0D       		.uleb128 0xd
 4247 0b1e 9F       		.byte	0x9f
 4248 0b1f A4040000 		.4byte	.LVL82
 4249 0b23 A8040000 		.4byte	.LVL83
 4250 0b27 0800     		.2byte	0x8
 4251 0b29 7C       		.byte	0x7c
 4252 0b2a 00       		.sleb128 0
 4253 0b2b 73       		.byte	0x73
 4254 0b2c 00       		.sleb128 0
 4255 0b2d 1C       		.byte	0x1c
 4256 0b2e 23       		.byte	0x23
 4257 0b2f 05       		.uleb128 0x5
 4258 0b30 9F       		.byte	0x9f
 4259 0b31 00000000 		.4byte	0
 4260 0b35 00000000 		.4byte	0
 4261              	.LLST29:
 4262 0b39 64040000 		.4byte	.LVL73
 4263 0b3d 7C040000 		.4byte	.LVL75
 4264 0b41 0100     		.2byte	0x1
 4265 0b43 53       		.byte	0x53
 4266 0b44 7C040000 		.4byte	.LVL75
 4267 0b48 88040000 		.4byte	.LVL78
 4268 0b4c 0300     		.2byte	0x3
 4269 0b4e 73       		.byte	0x73
 4270 0b4f 7F       		.sleb128 -1
 4271 0b50 9F       		.byte	0x9f
 4272 0b51 88040000 		.4byte	.LVL78
 4273 0b55 A8040000 		.4byte	.LVL83
 4274 0b59 0100     		.2byte	0x1
ARM GAS  /var/folders/3j/4xdnk5197cv_b7cw3n33qk7r0000gn/T//ccgbYUOY.s 			page 76


 4275 0b5b 53       		.byte	0x53
 4276 0b5c 00000000 		.4byte	0
 4277 0b60 00000000 		.4byte	0
 4278              	.LLST30:
 4279 0b64 64040000 		.4byte	.LVL73
 4280 0b68 68040000 		.4byte	.LVL74
 4281 0b6c 0400     		.2byte	0x4
 4282 0b6e 0A       		.byte	0xa
 4283 0b6f 1027     		.2byte	0x2710
 4284 0b71 9F       		.byte	0x9f
 4285 0b72 00000000 		.4byte	0
 4286 0b76 00000000 		.4byte	0
 4287              	.LLST31:
 4288 0b7a B4050000 		.4byte	.LVL109
 4289 0b7e B8050000 		.4byte	.LVL110
 4290 0b82 0100     		.2byte	0x1
 4291 0b84 50       		.byte	0x50
 4292 0b85 00000000 		.4byte	0
 4293 0b89 00000000 		.4byte	0
 4294              	.LLST32:
 4295 0b8d B4050000 		.4byte	.LVL109
 4296 0b91 EC050000 		.4byte	.LVL119
 4297 0b95 0400     		.2byte	0x4
 4298 0b97 91       		.byte	0x91
 4299 0b98 987F     		.sleb128 -104
 4300 0b9a 9F       		.byte	0x9f
 4301 0b9b EC050000 		.4byte	.LVL119
 4302 0b9f 1C060000 		.4byte	.LVL127
 4303 0ba3 0100     		.2byte	0x1
 4304 0ba5 56       		.byte	0x56
 4305 0ba6 00000000 		.4byte	0
 4306 0baa 00000000 		.4byte	0
 4307              	.LLST33:
 4308 0bae B4050000 		.4byte	.LVL109
 4309 0bb2 1C060000 		.4byte	.LVL127
 4310 0bb6 0200     		.2byte	0x2
 4311 0bb8 30       		.byte	0x30
 4312 0bb9 9F       		.byte	0x9f
 4313 0bba 00000000 		.4byte	0
 4314 0bbe 00000000 		.4byte	0
 4315              	.LLST35:
 4316 0bc2 B4050000 		.4byte	.LVL109
 4317 0bc6 EC050000 		.4byte	.LVL119
 4318 0bca 0400     		.2byte	0x4
 4319 0bcc 91       		.byte	0x91
 4320 0bcd 987F     		.sleb128 -104
 4321 0bcf 9F       		.byte	0x9f
 4322 0bd0 EC050000 		.4byte	.LVL119
 4323 0bd4 FC050000 		.4byte	.LVL122
 4324 0bd8 0100     		.2byte	0x1
 4325 0bda 56       		.byte	0x56
 4326 0bdb FC050000 		.4byte	.LVL122
 4327 0bdf 00060000 		.4byte	.LVL123
 4328 0be3 0300     		.2byte	0x3
 4329 0be5 71       		.byte	0x71
 4330 0be6 7F       		.sleb128 -1
 4331 0be7 9F       		.byte	0x9f
ARM GAS  /var/folders/3j/4xdnk5197cv_b7cw3n33qk7r0000gn/T//ccgbYUOY.s 			page 77


 4332 0be8 00060000 		.4byte	.LVL123
 4333 0bec 08060000 		.4byte	.LVL124
 4334 0bf0 0100     		.2byte	0x1
 4335 0bf2 51       		.byte	0x51
 4336 0bf3 08060000 		.4byte	.LVL124
 4337 0bf7 1C060000 		.4byte	.LVL127
 4338 0bfb 0300     		.2byte	0x3
 4339 0bfd 71       		.byte	0x71
 4340 0bfe 7F       		.sleb128 -1
 4341 0bff 9F       		.byte	0x9f
 4342 0c00 00000000 		.4byte	0
 4343 0c04 00000000 		.4byte	0
 4344              	.LLST36:
 4345 0c08 B8050000 		.4byte	.LVL110
 4346 0c0c BC050000 		.4byte	.LVL111
 4347 0c10 0F00     		.2byte	0xf
 4348 0c12 71       		.byte	0x71
 4349 0c13 37       		.sleb128 55
 4350 0c14 71       		.byte	0x71
 4351 0c15 30       		.sleb128 48
 4352 0c16 71       		.byte	0x71
 4353 0c17 30       		.sleb128 48
 4354 0c18 08       		.byte	0x8
 4355 0c19 39       		.byte	0x39
 4356 0c1a 2B       		.byte	0x2b
 4357 0c1b 28       		.byte	0x28
 4358 0c1c 0100     		.2byte	0x1
 4359 0c1e 16       		.byte	0x16
 4360 0c1f 13       		.byte	0x13
 4361 0c20 9F       		.byte	0x9f
 4362 0c21 C4050000 		.4byte	.LVL112
 4363 0c25 C8050000 		.4byte	.LVL113
 4364 0c29 0100     		.2byte	0x1
 4365 0c2b 51       		.byte	0x51
 4366 0c2c C8050000 		.4byte	.LVL113
 4367 0c30 D4050000 		.4byte	.LVL115
 4368 0c34 0100     		.2byte	0x1
 4369 0c36 53       		.byte	0x53
 4370 0c37 D8050000 		.4byte	.LVL116
 4371 0c3b F0050000 		.4byte	.LVL120
 4372 0c3f 0F00     		.2byte	0xf
 4373 0c41 71       		.byte	0x71
 4374 0c42 37       		.sleb128 55
 4375 0c43 71       		.byte	0x71
 4376 0c44 30       		.sleb128 48
 4377 0c45 71       		.byte	0x71
 4378 0c46 30       		.sleb128 48
 4379 0c47 08       		.byte	0x8
 4380 0c48 39       		.byte	0x39
 4381 0c49 2B       		.byte	0x2b
 4382 0c4a 28       		.byte	0x28
 4383 0c4b 0100     		.2byte	0x1
 4384 0c4d 16       		.byte	0x16
 4385 0c4e 13       		.byte	0x13
 4386 0c4f 9F       		.byte	0x9f
 4387 0c50 F0050000 		.4byte	.LVL120
 4388 0c54 FC050000 		.4byte	.LVL122
ARM GAS  /var/folders/3j/4xdnk5197cv_b7cw3n33qk7r0000gn/T//ccgbYUOY.s 			page 78


 4389 0c58 0100     		.2byte	0x1
 4390 0c5a 50       		.byte	0x50
 4391 0c5b 00000000 		.4byte	0
 4392 0c5f 00000000 		.4byte	0
 4393              	.LLST37:
 4394 0c63 B4050000 		.4byte	.LVL109
 4395 0c67 B8050000 		.4byte	.LVL110
 4396 0c6b 0100     		.2byte	0x1
 4397 0c6d 5B       		.byte	0x5b
 4398 0c6e B8050000 		.4byte	.LVL110
 4399 0c72 BC050000 		.4byte	.LVL111
 4400 0c76 0100     		.2byte	0x1
 4401 0c78 52       		.byte	0x52
 4402 0c79 BC050000 		.4byte	.LVL111
 4403 0c7d E0050000 		.4byte	.LVL117
 4404 0c81 0100     		.2byte	0x1
 4405 0c83 5B       		.byte	0x5b
 4406 0c84 E0050000 		.4byte	.LVL117
 4407 0c88 F8050000 		.4byte	.LVL121
 4408 0c8c 0100     		.2byte	0x1
 4409 0c8e 52       		.byte	0x52
 4410 0c8f F8050000 		.4byte	.LVL121
 4411 0c93 FC050000 		.4byte	.LVL122
 4412 0c97 0300     		.2byte	0x3
 4413 0c99 7B       		.byte	0x7b
 4414 0c9a 7F       		.sleb128 -1
 4415 0c9b 9F       		.byte	0x9f
 4416 0c9c 00000000 		.4byte	0
 4417 0ca0 00000000 		.4byte	0
 4418              	.LLST38:
 4419 0ca4 B4050000 		.4byte	.LVL109
 4420 0ca8 C3050000 		.4byte	.LVL112-1
 4421 0cac 0100     		.2byte	0x1
 4422 0cae 50       		.byte	0x50
 4423 0caf E0050000 		.4byte	.LVL117
 4424 0cb3 E8050000 		.4byte	.LVL118
 4425 0cb7 0100     		.2byte	0x1
 4426 0cb9 50       		.byte	0x50
 4427 0cba 00000000 		.4byte	0
 4428 0cbe 00000000 		.4byte	0
 4429              	.LLST40:
 4430 0cc2 00070000 		.4byte	.LVL147
 4431 0cc6 5C070000 		.4byte	.LVL162
 4432 0cca 0200     		.2byte	0x2
 4433 0ccc 3A       		.byte	0x3a
 4434 0ccd 9F       		.byte	0x9f
 4435 0cce 00000000 		.4byte	0
 4436 0cd2 00000000 		.4byte	0
 4437              	.LLST41:
 4438 0cd6 00070000 		.4byte	.LVL147
 4439 0cda 08070000 		.4byte	.LVL148
 4440 0cde 0100     		.2byte	0x1
 4441 0ce0 5E       		.byte	0x5e
 4442 0ce1 00000000 		.4byte	0
 4443 0ce5 00000000 		.4byte	0
 4444              	.LLST42:
 4445 0ce9 00070000 		.4byte	.LVL147
ARM GAS  /var/folders/3j/4xdnk5197cv_b7cw3n33qk7r0000gn/T//ccgbYUOY.s 			page 79


 4446 0ced 3C070000 		.4byte	.LVL156
 4447 0cf1 0100     		.2byte	0x1
 4448 0cf3 5C       		.byte	0x5c
 4449 0cf4 3C070000 		.4byte	.LVL156
 4450 0cf8 58070000 		.4byte	.LVL161
 4451 0cfc 0300     		.2byte	0x3
 4452 0cfe 7B       		.byte	0x7b
 4453 0cff 75       		.sleb128 -11
 4454 0d00 9F       		.byte	0x9f
 4455 0d01 00000000 		.4byte	0
 4456 0d05 00000000 		.4byte	0
 4457              	.LLST43:
 4458 0d09 00070000 		.4byte	.LVL147
 4459 0d0d 5C070000 		.4byte	.LVL162
 4460 0d11 0200     		.2byte	0x2
 4461 0d13 30       		.byte	0x30
 4462 0d14 9F       		.byte	0x9f
 4463 0d15 00000000 		.4byte	0
 4464 0d19 00000000 		.4byte	0
 4465              	.LLST46:
 4466 0d1d 00070000 		.4byte	.LVL147
 4467 0d21 3C070000 		.4byte	.LVL156
 4468 0d25 0100     		.2byte	0x1
 4469 0d27 5C       		.byte	0x5c
 4470 0d28 3C070000 		.4byte	.LVL156
 4471 0d2c 40070000 		.4byte	.LVL157
 4472 0d30 0300     		.2byte	0x3
 4473 0d32 7C       		.byte	0x7c
 4474 0d33 7F       		.sleb128 -1
 4475 0d34 9F       		.byte	0x9f
 4476 0d35 40070000 		.4byte	.LVL157
 4477 0d39 44070000 		.4byte	.LVL158
 4478 0d3d 0100     		.2byte	0x1
 4479 0d3f 5C       		.byte	0x5c
 4480 0d40 44070000 		.4byte	.LVL158
 4481 0d44 50070000 		.4byte	.LVL159
 4482 0d48 0300     		.2byte	0x3
 4483 0d4a 7C       		.byte	0x7c
 4484 0d4b 7F       		.sleb128 -1
 4485 0d4c 9F       		.byte	0x9f
 4486 0d4d 00000000 		.4byte	0
 4487 0d51 00000000 		.4byte	0
 4488              	.LLST47:
 4489 0d55 1C070000 		.4byte	.LVL149
 4490 0d59 20070000 		.4byte	.LVL150
 4491 0d5d 0300     		.2byte	0x3
 4492 0d5f 73       		.byte	0x73
 4493 0d60 30       		.sleb128 48
 4494 0d61 9F       		.byte	0x9f
 4495 0d62 20070000 		.4byte	.LVL150
 4496 0d66 24070000 		.4byte	.LVL151
 4497 0d6a 0100     		.2byte	0x1
 4498 0d6c 53       		.byte	0x53
 4499 0d6d 24070000 		.4byte	.LVL151
 4500 0d71 28070000 		.4byte	.LVL152
 4501 0d75 0F00     		.2byte	0xf
 4502 0d77 7E       		.byte	0x7e
ARM GAS  /var/folders/3j/4xdnk5197cv_b7cw3n33qk7r0000gn/T//ccgbYUOY.s 			page 80


 4503 0d78 00       		.sleb128 0
 4504 0d79 71       		.byte	0x71
 4505 0d7a 00       		.sleb128 0
 4506 0d7b 32       		.byte	0x32
 4507 0d7c 24       		.byte	0x24
 4508 0d7d 71       		.byte	0x71
 4509 0d7e 00       		.sleb128 0
 4510 0d7f 22       		.byte	0x22
 4511 0d80 31       		.byte	0x31
 4512 0d81 24       		.byte	0x24
 4513 0d82 1C       		.byte	0x1c
 4514 0d83 23       		.byte	0x23
 4515 0d84 30       		.uleb128 0x30
 4516 0d85 9F       		.byte	0x9f
 4517 0d86 30070000 		.4byte	.LVL154
 4518 0d8a 3C070000 		.4byte	.LVL156
 4519 0d8e 0600     		.2byte	0x6
 4520 0d90 7B       		.byte	0x7b
 4521 0d91 00       		.sleb128 0
 4522 0d92 72       		.byte	0x72
 4523 0d93 00       		.sleb128 0
 4524 0d94 1C       		.byte	0x1c
 4525 0d95 9F       		.byte	0x9f
 4526 0d96 00000000 		.4byte	0
 4527 0d9a 00000000 		.4byte	0
 4528              	.LLST48:
 4529 0d9e 00070000 		.4byte	.LVL147
 4530 0da2 1C070000 		.4byte	.LVL149
 4531 0da6 0100     		.2byte	0x1
 4532 0da8 52       		.byte	0x52
 4533 0da9 1C070000 		.4byte	.LVL149
 4534 0dad 2C070000 		.4byte	.LVL153
 4535 0db1 0300     		.2byte	0x3
 4536 0db3 72       		.byte	0x72
 4537 0db4 7F       		.sleb128 -1
 4538 0db5 9F       		.byte	0x9f
 4539 0db6 2C070000 		.4byte	.LVL153
 4540 0dba 3C070000 		.4byte	.LVL156
 4541 0dbe 0100     		.2byte	0x1
 4542 0dc0 52       		.byte	0x52
 4543 0dc1 00000000 		.4byte	0
 4544 0dc5 00000000 		.4byte	0
 4545              	.LLST49:
 4546 0dc9 00070000 		.4byte	.LVL147
 4547 0dcd 1C070000 		.4byte	.LVL149
 4548 0dd1 0100     		.2byte	0x1
 4549 0dd3 5E       		.byte	0x5e
 4550 0dd4 1C070000 		.4byte	.LVL149
 4551 0dd8 34070000 		.4byte	.LVL155
 4552 0ddc 0100     		.2byte	0x1
 4553 0dde 51       		.byte	0x51
 4554 0ddf 34070000 		.4byte	.LVL155
 4555 0de3 5C070000 		.4byte	.LVL162
 4556 0de7 0100     		.2byte	0x1
 4557 0de9 5E       		.byte	0x5e
 4558 0dea 00000000 		.4byte	0
 4559 0dee 00000000 		.4byte	0
ARM GAS  /var/folders/3j/4xdnk5197cv_b7cw3n33qk7r0000gn/T//ccgbYUOY.s 			page 81


 4560              		.section	.debug_aranges,"",%progbits
 4561 0000 1C000000 		.4byte	0x1c
 4562 0004 0200     		.2byte	0x2
 4563 0006 00000000 		.4byte	.Ldebug_info0
 4564 000a 04       		.byte	0x4
 4565 000b 00       		.byte	0
 4566 000c 0000     		.2byte	0
 4567 000e 0000     		.2byte	0
 4568 0010 00000000 		.4byte	.LFB10
 4569 0014 E8070000 		.4byte	.LFE10-.LFB10
 4570 0018 00000000 		.4byte	0
 4571 001c 00000000 		.4byte	0
 4572              		.section	.debug_ranges,"",%progbits
 4573              	.Ldebug_ranges0:
 4574 0000 18000000 		.4byte	.LBB26
 4575 0004 1C000000 		.4byte	.LBE26
 4576 0008 B0030000 		.4byte	.LBB41
 4577 000c CC040000 		.4byte	.LBE41
 4578 0010 00000000 		.4byte	0
 4579 0014 00000000 		.4byte	0
 4580 0018 18000000 		.4byte	.LBB28
 4581 001c 1C000000 		.4byte	.LBE28
 4582 0020 B8030000 		.4byte	.LBB32
 4583 0024 BC030000 		.4byte	.LBE32
 4584 0028 C0030000 		.4byte	.LBB33
 4585 002c 18040000 		.4byte	.LBE33
 4586 0030 00000000 		.4byte	0
 4587 0034 00000000 		.4byte	0
 4588 0038 50040000 		.4byte	.LBB34
 4589 003c 54040000 		.4byte	.LBE34
 4590 0040 58040000 		.4byte	.LBB38
 4591 0044 5C040000 		.4byte	.LBE38
 4592 0048 68040000 		.4byte	.LBB39
 4593 004c CC040000 		.4byte	.LBE39
 4594 0050 00000000 		.4byte	0
 4595 0054 00000000 		.4byte	0
 4596 0058 A8050000 		.4byte	.LBB42
 4597 005c B0050000 		.4byte	.LBE42
 4598 0060 B8050000 		.4byte	.LBB47
 4599 0064 10060000 		.4byte	.LBE47
 4600 0068 00000000 		.4byte	0
 4601 006c 00000000 		.4byte	0
 4602 0070 F4060000 		.4byte	.LBB48
 4603 0074 FC060000 		.4byte	.LBE48
 4604 0078 08070000 		.4byte	.LBB53
 4605 007c 5C070000 		.4byte	.LBE53
 4606 0080 00000000 		.4byte	0
 4607 0084 00000000 		.4byte	0
 4608 0088 00000000 		.4byte	.LFB10
 4609 008c E8070000 		.4byte	.LFE10
 4610 0090 00000000 		.4byte	0
 4611 0094 00000000 		.4byte	0
 4612              		.section	.debug_line,"",%progbits
 4613              	.Ldebug_line0:
 4614 0000 86030000 		.section	.debug_str,"MS",%progbits,1
 4614      02000202 
 4614      00000201 
ARM GAS  /var/folders/3j/4xdnk5197cv_b7cw3n33qk7r0000gn/T//ccgbYUOY.s 			page 82


 4614      FB0E0D00 
 4614      01010101 
 4615              	.LASF122:
 4616 0000 2F557365 		.ascii	"/Users/kevinmalmsten/development_raspberry_pi/Backu"
 4616      72732F6B 
 4616      6576696E 
 4616      6D616C6D 
 4616      7374656E 
 4617 0033 7053656E 		.ascii	"pSensor_ChibiOS/__Backup_System\000"
 4617      736F725F 
 4617      43686962 
 4617      694F532F 
 4617      5F5F4261 
 4618              	.LASF93:
 4619 0053 63665F6F 		.ascii	"cf_off_older\000"
 4619      66665F6F 
 4619      6C646572 
 4619      00
 4620              	.LASF45:
 4621 0060 705F6D73 		.ascii	"p_msg\000"
 4621      6700
 4622              	.LASF2:
 4623 0066 73697A65 		.ascii	"size_t\000"
 4623      5F7400
 4624              	.LASF78:
 4625 006d 7264796D 		.ascii	"rdymsg\000"
 4625      736700
 4626              	.LASF104:
 4627 0074 77726974 		.ascii	"write\000"
 4627      6500
 4628              	.LASF5:
 4629 007a 5F5F7569 		.ascii	"__uint8_t\000"
 4629      6E74385F 
 4629      7400
 4630              	.LASF1:
 4631 0084 76615F6C 		.ascii	"va_list\000"
 4631      69737400 
 4632              	.LASF71:
 4633 008c 76746C69 		.ascii	"vtlist\000"
 4633      737400
 4634              	.LASF116:
 4635 0093 66746F61 		.ascii	"ftoa\000"
 4635      00
 4636              	.LASF15:
 4637 0098 6C6F6E67 		.ascii	"long long unsigned int\000"
 4637      206C6F6E 
 4637      6720756E 
 4637      7369676E 
 4637      65642069 
 4638              	.LASF89:
 4639 00af 63685F74 		.ascii	"ch_threadsize\000"
 4639      68726561 
 4639      6473697A 
 4639      6500
 4640              	.LASF79:
 4641 00bd 65786974 		.ascii	"exitcode\000"
 4641      636F6465 
ARM GAS  /var/folders/3j/4xdnk5197cv_b7cw3n33qk7r0000gn/T//ccgbYUOY.s 			page 83


 4641      00
 4642              	.LASF33:
 4643 00c6 705F7072 		.ascii	"p_prio\000"
 4643      696F00
 4644              	.LASF96:
 4645 00cd 63665F6F 		.ascii	"cf_off_state\000"
 4645      66665F73 
 4645      74617465 
 4645      00
 4646              	.LASF14:
 4647 00da 6C6F6E67 		.ascii	"long long int\000"
 4647      206C6F6E 
 4647      6720696E 
 4647      7400
 4648              	.LASF4:
 4649 00e8 7369676E 		.ascii	"signed char\000"
 4649      65642063 
 4649      68617200 
 4650              	.LASF95:
 4651 00f4 63665F6F 		.ascii	"cf_off_stklimit\000"
 4651      66665F73 
 4651      746B6C69 
 4651      6D697400 
 4652              	.LASF97:
 4653 0104 63665F6F 		.ascii	"cf_off_flags\000"
 4653      66665F66 
 4653      6C616773 
 4653      00
 4654              	.LASF20:
 4655 0111 626F6F6C 		.ascii	"bool_t\000"
 4655      5F7400
 4656              	.LASF74:
 4657 0118 6D5F7175 		.ascii	"m_queue\000"
 4657      65756500 
 4658              	.LASF113:
 4659 0120 746D7062 		.ascii	"tmpbuf\000"
 4659      756600
 4660              	.LASF120:
 4661 0127 474E5520 		.ascii	"GNU C11 7.3.1 20180622 (release) [ARM/embedded-7-br"
 4661      43313120 
 4661      372E332E 
 4661      31203230 
 4661      31383036 
 4662 015a 616E6368 		.ascii	"anch revision 261907] -mcpu=arm1176jz-s -mno-thumb-"
 4662      20726576 
 4662      6973696F 
 4662      6E203236 
 4662      31393037 
 4663 018d 696E7465 		.ascii	"interwork -ggdb -O2 -fomit-frame-pointer -ffunction"
 4663      72776F72 
 4663      6B202D67 
 4663      67646220 
 4663      2D4F3220 
 4664 01c0 2D736563 		.ascii	"-sections -fdata-sections\000"
 4664      74696F6E 
 4664      73202D66 
 4664      64617461 
ARM GAS  /var/folders/3j/4xdnk5197cv_b7cw3n33qk7r0000gn/T//ccgbYUOY.s 			page 84


 4664      2D736563 
 4665              	.LASF11:
 4666 01da 6C6F6E67 		.ascii	"long int\000"
 4666      20696E74 
 4666      00
 4667              	.LASF22:
 4668 01e3 74737461 		.ascii	"tstate_t\000"
 4668      74655F74 
 4668      00
 4669              	.LASF30:
 4670 01ec 5F5F7661 		.ascii	"__va_list\000"
 4670      5F6C6973 
 4670      7400
 4671              	.LASF17:
 4672 01f6 75696E74 		.ascii	"uint16_t\000"
 4672      31365F74 
 4672      00
 4673              	.LASF115:
 4674 01ff 646F7562 		.ascii	"double\000"
 4674      6C6500
 4675              	.LASF101:
 4676 0206 63686465 		.ascii	"chdebug_t\000"
 4676      6275675F 
 4676      7400
 4677              	.LASF124:
 4678 0210 756E7369 		.ascii	"unsigned_common\000"
 4678      676E6564 
 4678      5F636F6D 
 4678      6D6F6E00 
 4679              	.LASF35:
 4680 0220 705F6E65 		.ascii	"p_newer\000"
 4680      77657200 
 4681              	.LASF107:
 4682 0228 5F69646C 		.ascii	"_idle_thread_wa\000"
 4682      655F7468 
 4682      72656164 
 4682      5F776100 
 4683              	.LASF12:
 4684 0238 5F5F7569 		.ascii	"__uint32_t\000"
 4684      6E743332 
 4684      5F7400
 4685              	.LASF52:
 4686 0243 72656761 		.ascii	"regarm_t\000"
 4686      726D5F74 
 4686      00
 4687              	.LASF58:
 4688 024c 76745F70 		.ascii	"vt_prev\000"
 4688      72657600 
 4689              	.LASF108:
 4690 0254 66696C6C 		.ascii	"filler\000"
 4690      657200
 4691              	.LASF111:
 4692 025b 69735F6C 		.ascii	"is_long\000"
 4692      6F6E6700 
 4693              	.LASF106:
 4694 0263 42617365 		.ascii	"BaseSequentialStream\000"
 4694      53657175 
ARM GAS  /var/folders/3j/4xdnk5197cv_b7cw3n33qk7r0000gn/T//ccgbYUOY.s 			page 85


 4694      656E7469 
 4694      616C5374 
 4694      7265616D 
 4695              	.LASF3:
 4696 0278 756E7369 		.ascii	"unsigned int\000"
 4696      676E6564 
 4696      20696E74 
 4696      00
 4697              	.LASF57:
 4698 0285 76745F6E 		.ascii	"vt_next\000"
 4698      65787400 
 4699              	.LASF13:
 4700 028d 6C6F6E67 		.ascii	"long unsigned int\000"
 4700      20756E73 
 4700      69676E65 
 4700      6420696E 
 4700      7400
 4701              	.LASF102:
 4702 029f 63685F64 		.ascii	"ch_debug\000"
 4702      65627567 
 4702      00
 4703              	.LASF112:
 4704 02a8 6C656674 		.ascii	"left_align\000"
 4704      5F616C69 
 4704      676E00
 4705              	.LASF55:
 4706 02b3 76746675 		.ascii	"vtfunc_t\000"
 4706      6E635F74 
 4706      00
 4707              	.LASF83:
 4708 02bc 63685F69 		.ascii	"ch_identifier\000"
 4708      64656E74 
 4708      69666965 
 4708      7200
 4709              	.LASF110:
 4710 02ca 77696474 		.ascii	"width\000"
 4710      6800
 4711              	.LASF54:
 4712 02d0 636F6E74 		.ascii	"context\000"
 4712      65787400 
 4713              	.LASF9:
 4714 02d8 73686F72 		.ascii	"short unsigned int\000"
 4714      7420756E 
 4714      7369676E 
 4714      65642069 
 4714      6E7400
 4715              	.LASF26:
 4716 02eb 6D73675F 		.ascii	"msg_t\000"
 4716      7400
 4717              	.LASF67:
 4718 02f1 725F6E65 		.ascii	"r_newer\000"
 4718      77657200 
 4719              	.LASF21:
 4720 02f9 746D6F64 		.ascii	"tmode_t\000"
 4720      655F7400 
 4721              	.LASF50:
 4722 0301 54687265 		.ascii	"ThreadsList\000"
ARM GAS  /var/folders/3j/4xdnk5197cv_b7cw3n33qk7r0000gn/T//ccgbYUOY.s 			page 86


 4722      6164734C 
 4722      69737400 
 4723              	.LASF27:
 4724 030d 6576656E 		.ascii	"eventmask_t\000"
 4724      746D6173 
 4724      6B5F7400 
 4725              	.LASF73:
 4726 0319 4D757465 		.ascii	"Mutex\000"
 4726      7800
 4727              	.LASF117:
 4728 031f 6C746F61 		.ascii	"ltoa\000"
 4728      00
 4729              	.LASF51:
 4730 0324 73746B61 		.ascii	"stkalign_t\000"
 4730      6C69676E 
 4730      5F7400
 4731              	.LASF84:
 4732 032f 63685F7A 		.ascii	"ch_zero\000"
 4732      65726F00 
 4733              	.LASF98:
 4734 0337 63665F6F 		.ascii	"cf_off_refs\000"
 4734      66665F72 
 4734      65667300 
 4735              	.LASF59:
 4736 0343 76745F74 		.ascii	"vt_time\000"
 4736      696D6500 
 4737              	.LASF60:
 4738 034b 76745F66 		.ascii	"vt_func\000"
 4738      756E6300 
 4739              	.LASF88:
 4740 0353 63685F74 		.ascii	"ch_timesize\000"
 4740      696D6573 
 4740      697A6500 
 4741              	.LASF119:
 4742 035f 64697669 		.ascii	"divisor\000"
 4742      736F7200 
 4743              	.LASF0:
 4744 0367 5F5F676E 		.ascii	"__gnuc_va_list\000"
 4744      75635F76 
 4744      615F6C69 
 4744      737400
 4745              	.LASF94:
 4746 0376 63665F6F 		.ascii	"cf_off_name\000"
 4746      66665F6E 
 4746      616D6500 
 4747              	.LASF36:
 4748 0382 705F6F6C 		.ascii	"p_older\000"
 4748      64657200 
 4749              	.LASF66:
 4750 038a 725F6374 		.ascii	"r_ctx\000"
 4750      7800
 4751              	.LASF49:
 4752 0390 54687265 		.ascii	"ThreadsQueue\000"
 4752      61647351 
 4752      75657565 
 4752      00
 4753              	.LASF85:
ARM GAS  /var/folders/3j/4xdnk5197cv_b7cw3n33qk7r0000gn/T//ccgbYUOY.s 			page 87


 4754 039d 63685F73 		.ascii	"ch_size\000"
 4754      697A6500 
 4755              	.LASF69:
 4756 03a5 725F6375 		.ascii	"r_current\000"
 4756      7272656E 
 4756      7400
 4757              	.LASF68:
 4758 03af 725F6F6C 		.ascii	"r_older\000"
 4758      64657200 
 4759              	.LASF121:
 4760 03b7 2E2E2F2F 		.ascii	"..//os/various/chprintf.c\000"
 4760      6F732F76 
 4760      6172696F 
 4760      75732F63 
 4760      68707269 
 4761              	.LASF23:
 4762 03d1 74726566 		.ascii	"trefs_t\000"
 4762      735F7400 
 4763              	.LASF87:
 4764 03d9 63685F70 		.ascii	"ch_ptrsize\000"
 4764      74727369 
 4764      7A6500
 4765              	.LASF32:
 4766 03e4 705F7072 		.ascii	"p_prev\000"
 4766      657600
 4767              	.LASF25:
 4768 03eb 74707269 		.ascii	"tprio_t\000"
 4768      6F5F7400 
 4769              	.LASF18:
 4770 03f3 696E7433 		.ascii	"int32_t\000"
 4770      325F7400 
 4771              	.LASF6:
 4772 03fb 756E7369 		.ascii	"unsigned char\000"
 4772      676E6564 
 4772      20636861 
 4772      7200
 4773              	.LASF47:
 4774 0409 705F6D74 		.ascii	"p_mtxlist\000"
 4774      786C6973 
 4774      7400
 4775              	.LASF7:
 4776 0413 73686F72 		.ascii	"short int\000"
 4776      7420696E 
 4776      7400
 4777              	.LASF38:
 4778 041d 705F7374 		.ascii	"p_state\000"
 4778      61746500 
 4779              	.LASF41:
 4780 0425 705F7072 		.ascii	"p_preempt\000"
 4780      65656D70 
 4780      7400
 4781              	.LASF100:
 4782 042f 63665F6F 		.ascii	"cf_off_time\000"
 4782      66665F74 
 4782      696D6500 
 4783              	.LASF65:
 4784 043b 725F7072 		.ascii	"r_prio\000"
ARM GAS  /var/folders/3j/4xdnk5197cv_b7cw3n33qk7r0000gn/T//ccgbYUOY.s 			page 88


 4784      696F00
 4785              	.LASF81:
 4786 0442 65776D61 		.ascii	"ewmask\000"
 4786      736B00
 4787              	.LASF31:
 4788 0449 705F6E65 		.ascii	"p_next\000"
 4788      787400
 4789              	.LASF99:
 4790 0450 63665F6F 		.ascii	"cf_off_preempt\000"
 4790      66665F70 
 4790      7265656D 
 4790      707400
 4791              	.LASF39:
 4792 045f 705F666C 		.ascii	"p_flags\000"
 4792      61677300 
 4793              	.LASF29:
 4794 0467 54687265 		.ascii	"Thread\000"
 4794      616400
 4795              	.LASF92:
 4796 046e 63665F6F 		.ascii	"cf_off_newer\000"
 4796      66665F6E 
 4796      65776572 
 4796      00
 4797              	.LASF46:
 4798 047b 705F6570 		.ascii	"p_epending\000"
 4798      656E6469 
 4798      6E6700
 4799              	.LASF19:
 4800 0486 75696E74 		.ascii	"uint32_t\000"
 4800      33325F74 
 4800      00
 4801              	.LASF90:
 4802 048f 63665F6F 		.ascii	"cf_off_prio\000"
 4802      66665F70 
 4802      72696F00 
 4803              	.LASF64:
 4804 049b 725F7175 		.ascii	"r_queue\000"
 4804      65756500 
 4805              	.LASF56:
 4806 04a3 56697274 		.ascii	"VirtualTimer\000"
 4806      75616C54 
 4806      696D6572 
 4806      00
 4807              	.LASF24:
 4808 04b0 74736C69 		.ascii	"tslices_t\000"
 4808      6365735F 
 4808      7400
 4809              	.LASF105:
 4810 04ba 72656164 		.ascii	"read\000"
 4810      00
 4811              	.LASF82:
 4812 04bf 63686172 		.ascii	"char\000"
 4812      00
 4813              	.LASF8:
 4814 04c4 5F5F7569 		.ascii	"__uint16_t\000"
 4814      6E743136 
 4814      5F7400
ARM GAS  /var/folders/3j/4xdnk5197cv_b7cw3n33qk7r0000gn/T//ccgbYUOY.s 			page 89


 4815              	.LASF109:
 4816 04cf 70726563 		.ascii	"precision\000"
 4816      6973696F 
 4816      6E00
 4817              	.LASF103:
 4818 04d9 42617365 		.ascii	"BaseSequentialStreamVMT\000"
 4818      53657175 
 4818      656E7469 
 4818      616C5374 
 4818      7265616D 
 4819              	.LASF76:
 4820 04f1 6D5F6E65 		.ascii	"m_next\000"
 4820      787400
 4821              	.LASF28:
 4822 04f8 73797374 		.ascii	"systime_t\000"
 4822      696D655F 
 4822      7400
 4823              	.LASF48:
 4824 0502 705F7265 		.ascii	"p_realprio\000"
 4824      616C7072 
 4824      696F00
 4825              	.LASF10:
 4826 050d 5F5F696E 		.ascii	"__int32_t\000"
 4826      7433325F 
 4826      7400
 4827              	.LASF118:
 4828 0517 72616469 		.ascii	"radix\000"
 4828      7800
 4829              	.LASF77:
 4830 051d 5F5F6170 		.ascii	"__ap\000"
 4830      00
 4831              	.LASF42:
 4832 0522 705F7469 		.ascii	"p_time\000"
 4832      6D6500
 4833              	.LASF53:
 4834 0529 696E7463 		.ascii	"intctx\000"
 4834      747800
 4835              	.LASF44:
 4836 0530 705F6D73 		.ascii	"p_msgqueue\000"
 4836      67717565 
 4836      756500
 4837              	.LASF61:
 4838 053b 76745F70 		.ascii	"vt_par\000"
 4838      617200
 4839              	.LASF91:
 4840 0542 63665F6F 		.ascii	"cf_off_ctx\000"
 4840      66665F63 
 4840      747800
 4841              	.LASF40:
 4842 054d 705F7265 		.ascii	"p_refs\000"
 4842      667300
 4843              	.LASF70:
 4844 0554 52656164 		.ascii	"ReadyList\000"
 4844      794C6973 
 4844      7400
 4845              	.LASF72:
 4846 055e 726C6973 		.ascii	"rlist\000"
ARM GAS  /var/folders/3j/4xdnk5197cv_b7cw3n33qk7r0000gn/T//ccgbYUOY.s 			page 90


 4846      7400
 4847              	.LASF16:
 4848 0564 75696E74 		.ascii	"uint8_t\000"
 4848      385F7400 
 4849              	.LASF114:
 4850 056c 666C6F61 		.ascii	"float\000"
 4850      7400
 4851              	.LASF80:
 4852 0572 77746F62 		.ascii	"wtobjp\000"
 4852      6A7000
 4853              	.LASF37:
 4854 0579 705F6E61 		.ascii	"p_name\000"
 4854      6D6500
 4855              	.LASF125:
 4856 0580 6C6F6E67 		.ascii	"long_to_string_with_divisor\000"
 4856      5F746F5F 
 4856      73747269 
 4856      6E675F77 
 4856      6974685F 
 4857              	.LASF62:
 4858 059c 76745F73 		.ascii	"vt_systime\000"
 4858      79737469 
 4858      6D6500
 4859              	.LASF86:
 4860 05a7 63685F76 		.ascii	"ch_version\000"
 4860      65727369 
 4860      6F6E00
 4861              	.LASF63:
 4862 05b2 56544C69 		.ascii	"VTList\000"
 4862      737400
 4863              	.LASF75:
 4864 05b9 6D5F6F77 		.ascii	"m_owner\000"
 4864      6E657200 
 4865              	.LASF34:
 4866 05c1 705F6374 		.ascii	"p_ctx\000"
 4866      7800
 4867              	.LASF43:
 4868 05c7 705F7761 		.ascii	"p_waiting\000"
 4868      6974696E 
 4868      6700
 4869              	.LASF123:
 4870 05d1 63687072 		.ascii	"chprintf\000"
 4870      696E7466 
 4870      00
 4871              		.ident	"GCC: (GNU Tools for Arm Embedded Processors 7-2018-q2-update) 7.3.1 20180622 (release) [AR
ARM GAS  /var/folders/3j/4xdnk5197cv_b7cw3n33qk7r0000gn/T//ccgbYUOY.s 			page 91


DEFINED SYMBOLS
                            *ABS*:0000000000000000 chprintf.c
/var/folders/3j/4xdnk5197cv_b7cw3n33qk7r0000gn/T//ccgbYUOY.s:25     .text.chprintf:0000000000000000 $a
/var/folders/3j/4xdnk5197cv_b7cw3n33qk7r0000gn/T//ccgbYUOY.s:31     .text.chprintf:0000000000000000 chprintf
/var/folders/3j/4xdnk5197cv_b7cw3n33qk7r0000gn/T//ccgbYUOY.s:225    .text.chprintf:0000000000000124 $d
/var/folders/3j/4xdnk5197cv_b7cw3n33qk7r0000gn/T//ccgbYUOY.s:280    .text.chprintf:00000000000001f8 $a
/var/folders/3j/4xdnk5197cv_b7cw3n33qk7r0000gn/T//ccgbYUOY.s:291    .text.chprintf:0000000000000210 $d
/var/folders/3j/4xdnk5197cv_b7cw3n33qk7r0000gn/T//ccgbYUOY.s:345    .text.chprintf:00000000000002e4 $a
/var/folders/3j/4xdnk5197cv_b7cw3n33qk7r0000gn/T//ccgbYUOY.s:1058   .text.chprintf:00000000000007d8 $d
/var/folders/3j/4xdnk5197cv_b7cw3n33qk7r0000gn/T//ccgbYUOY.s:1066   .rodata.chprintf.str1.4:0000000000000000 $d

UNDEFINED SYMBOLS
__aeabi_d2f
__aeabi_fcmplt
__aeabi_f2d
__aeabi_f2iz
__aeabi_i2d
__aeabi_dsub
__aeabi_dmul
__aeabi_d2iz
__aeabi_uidivmod
