ARM GAS  /var/folders/3j/4xdnk5197cv_b7cw3n33qk7r0000gn/T//ccgbYUOY.s 			page 1


   1              		.cpu arm1176jz-s
   2              		.eabi_attribute 20, 1
   3              		.eabi_attribute 21, 1
   4              		.eabi_attribute 23, 3
   5              		.eabi_attribute 24, 1
   6              		.eabi_attribute 25, 1
   7              		.eabi_attribute 26, 1
   8              		.eabi_attribute 30, 2
   9              		.eabi_attribute 34, 1
  10              		.eabi_attribute 18, 4
  11              		.file	"chprintf.c"
  12              		.text
  13              	.Ltext0:
  14              		.cfi_sections	.debug_frame
  15              		.global	__aeabi_d2f
  16              		.global	__aeabi_fcmplt
  17              		.global	__aeabi_f2d
  18              		.global	__aeabi_f2iz
  19              		.global	__aeabi_i2d
  20              		.global	__aeabi_dsub
  21              		.global	__aeabi_dmul
  22              		.global	__aeabi_d2iz
  23              		.global	__aeabi_uidivmod
  24              		.section	.text.chprintf,"ax",%progbits
  25              		.align	2
  26              		.global	chprintf
  27              		.syntax unified
  28              		.arm
  29              		.fpu softvfp
  30              		.type	chprintf, %function
  31              	chprintf:
  32              	.LFB10:
  33              		.file 1 "..//os/various/chprintf.c"
  34              		.loc 1 112 0
  35              		.cfi_startproc
  36              		@ args = 4, pretend = 12, frame = 48
  37              		@ frame_needed = 0, uses_anonymous_args = 1
  38              	.LVL0:
  39 0000 0E002DE9 		push	{r1, r2, r3}
  40              		.cfi_def_cfa_offset 12
  41              		.cfi_offset 1, -12
  42              		.cfi_offset 2, -8
  43              		.cfi_offset 3, -4
  44 0004 F04F2DE9 		push	{r4, r5, r6, r7, r8, r9, r10, fp, lr}
  45              		.cfi_def_cfa_offset 48
  46              		.cfi_offset 4, -48
  47              		.cfi_offset 5, -44
  48              		.cfi_offset 6, -40
  49              		.cfi_offset 7, -36
  50              		.cfi_offset 8, -32
  51              		.cfi_offset 9, -28
  52              		.cfi_offset 10, -24
  53              		.cfi_offset 11, -20
  54              		.cfi_offset 14, -16
  55 0008 0050A0E1 		mov	r5, r0
  56 000c 30D04DE2 		sub	sp, sp, #48
  57              		.cfi_def_cfa_offset 96
ARM GAS  /var/folders/3j/4xdnk5197cv_b7cw3n33qk7r0000gn/T//ccgbYUOY.s 			page 2


  58              		.loc 1 125 0
  59 0010 58308DE2 		add	r3, sp, #88
  60              		.loc 1 112 0
  61 0014 54909DE5 		ldr	r9, [sp, #84]
  62              	.LBB26:
  63              	.LBB27:
  64              	.LBB28:
  65              	.LBB29:
  66              		.loc 1 57 0
  67 0018 B8A79FE5 		ldr	r10, .L128
  68              	.LBE29:
  69              	.LBE28:
  70              	.LBE27:
  71              	.LBE26:
  72              		.loc 1 125 0
  73 001c 14308DE5 		str	r3, [sp, #20]
  74              	.LVL1:
  75              	.L2:
  76              		.loc 1 127 0
  77 0020 0010D9E5 		ldrb	r1, [r9]	@ zero_extendqisi2
  78 0024 012089E2 		add	r2, r9, #1
  79              	.LVL2:
  80              		.loc 1 128 0
  81 0028 000051E3 		cmp	r1, #0
  82 002c 0A00000A 		beq	.L108
  83              	.L118:
  84              		.loc 1 132 0
  85 0030 250051E3 		cmp	r1, #37
  86 0034 0C00000A 		beq	.L4
  87              		.loc 1 127 0
  88 0038 0290A0E1 		mov	r9, r2
  89              		.loc 1 133 0
  90 003c 003095E5 		ldr	r3, [r5]
  91 0040 0500A0E1 		mov	r0, r5
  92 0044 083093E5 		ldr	r3, [r3, #8]
  93 0048 33FF2FE1 		blx	r3
  94              	.LVL3:
  95              		.loc 1 127 0
  96 004c 0010D9E5 		ldrb	r1, [r9]	@ zero_extendqisi2
  97 0050 012089E2 		add	r2, r9, #1
  98              	.LVL4:
  99              		.loc 1 128 0
 100 0054 000051E3 		cmp	r1, #0
 101 0058 F4FFFF1A 		bne	.L118
 102              	.L108:
 103              		.loc 1 263 0
 104 005c 30D08DE2 		add	sp, sp, #48
 105              		.cfi_remember_state
 106              		.cfi_def_cfa_offset 48
 107              		@ sp needed
 108 0060 F04FBDE8 		pop	{r4, r5, r6, r7, r8, r9, r10, fp, lr}
 109              		.cfi_restore 14
 110              		.cfi_restore 11
 111              		.cfi_restore 10
 112              		.cfi_restore 9
 113              		.cfi_restore 8
 114              		.cfi_restore 7
ARM GAS  /var/folders/3j/4xdnk5197cv_b7cw3n33qk7r0000gn/T//ccgbYUOY.s 			page 3


 115              		.cfi_restore 6
 116              		.cfi_restore 5
 117              		.cfi_restore 4
 118              		.cfi_def_cfa_offset 12
 119              	.LVL5:
 120 0064 0CD08DE2 		add	sp, sp, #12
 121              		.cfi_restore 3
 122              		.cfi_restore 2
 123              		.cfi_restore 1
 124              		.cfi_def_cfa_offset 0
 125 0068 1EFF2FE1 		bx	lr
 126              	.LVL6:
 127              	.L4:
 128              		.cfi_restore_state
 129              		.loc 1 146 0
 130 006c 0060A0E3 		mov	r6, #0
 131              		.loc 1 139 0
 132 0070 0110D9E5 		ldrb	r1, [r9, #1]	@ zero_extendqisi2
 133              	.LVL7:
 134              		.loc 1 148 0
 135 0074 0640A0E1 		mov	r4, r6
 136              		.loc 1 139 0
 137 0078 2D0051E3 		cmp	r1, #45
 138 007c 0210D905 		ldrbeq	r1, [r9, #2]	@ zero_extendqisi2
 139              		.loc 1 140 0
 140 0080 02208902 		addeq	r2, r9, #2
 141              	.LVL8:
 142              		.loc 1 141 0
 143 0084 0180A003 		moveq	r8, #1
 144              		.loc 1 138 0
 145 0088 0080A013 		movne	r8, #0
 146              	.LVL9:
 147              		.loc 1 144 0
 148 008c 2E0051E3 		cmp	r1, #46
 149 0090 0110D205 		ldrbeq	r1, [r2, #1]	@ zero_extendqisi2
 150              		.loc 1 145 0
 151 0094 01208202 		addeq	r2, r2, #1
 152              	.LVL10:
 153              		.loc 1 146 0
 154 0098 3070A003 		moveq	r7, #48
 155              		.loc 1 143 0
 156 009c 2070A013 		movne	r7, #32
 157              	.LVL11:
 158 00a0 14E09DE5 		ldr	lr, [sp, #20]
 159 00a4 012082E2 		add	r2, r2, #1
 160              	.LVL12:
 161 00a8 040000EA 		b	.L10
 162              	.LVL13:
 163              	.L119:
 164              		.loc 1 154 0
 165 00ac 0160A0E3 		mov	r6, #1
 166 00b0 0030DEE5 		ldrb	r3, [lr]	@ zero_extendqisi2
 167              	.LVL14:
 168 00b4 04E08EE2 		add	lr, lr, #4
 169              	.LVL15:
 170              	.L8:
 171 00b8 0110D2E4 		ldrb	r1, [r2], #1	@ zero_extendqisi2
ARM GAS  /var/folders/3j/4xdnk5197cv_b7cw3n33qk7r0000gn/T//ccgbYUOY.s 			page 4


 172              	.LVL16:
 173              		.loc 1 157 0
 174 00bc 804083E0 		add	r4, r3, r0, lsl #1
 175              	.LVL17:
 176              	.L10:
 177              		.loc 1 151 0
 178 00c0 303041E2 		sub	r3, r1, #48
 179 00c4 7330EFE6 		uxtb	r3, r3
 180 00c8 090053E3 		cmp	r3, #9
 181              		.loc 1 157 0
 182 00cc 040184E0 		add	r0, r4, r4, lsl #2
 183              		.loc 1 150 0
 184 00d0 02C0A0E1 		mov	ip, r2
 185              	.LVL18:
 186              		.loc 1 151 0
 187 00d4 F7FFFF9A 		bls	.L8
 188              		.loc 1 153 0
 189 00d8 2A0051E3 		cmp	r1, #42
 190 00dc F2FFFF0A 		beq	.L119
 191 00e0 000056E3 		cmp	r6, #0
 192 00e4 14E08D15 		strne	lr, [sp, #20]
 193              	.LVL19:
 194              		.loc 1 160 0
 195 00e8 2E0051E3 		cmp	r1, #46
 196              		.loc 1 159 0
 197 00ec 0020A013 		movne	r2, #0
 198              	.LVL20:
 199              		.loc 1 160 0
 200 00f0 5C01000A 		beq	.L120
 201              	.LVL21:
 202              	.L12:
 203              		.loc 1 174 0
 204 00f4 DF3001E2 		and	r3, r1, #223
 205 00f8 4C0053E3 		cmp	r3, #76
 206 00fc 01908CE2 		add	r9, ip, #1
 207 0100 3C00001A 		bne	.L17
 208              	.LVL22:
 209              		.loc 1 176 0
 210 0104 0030DCE5 		ldrb	r3, [ip]	@ zero_extendqisi2
 211 0108 000053E3 		cmp	r3, #0
 212 010c 0130A001 		moveq	r3, r1
 213              		.loc 1 183 0
 214 0110 441043E2 		sub	r1, r3, #68
 215              	.LVL23:
 216              		.loc 1 176 0
 217 0114 0C90A001 		moveq	r9, ip
 218              	.LVL24:
 219              		.loc 1 183 0
 220 0118 340051E3 		cmp	r1, #52
 221 011c 01F19F97 		ldrls	pc, [pc, r1, asl #2]
 222 0120 480100EA 		b	.L20
 223              	.LVL25:
 224              	.L65:
 225 0124 D0060000 		.word	.L92
 226 0128 48060000 		.word	.L20
 227 012c 48060000 		.word	.L20
 228 0130 48060000 		.word	.L20
ARM GAS  /var/folders/3j/4xdnk5197cv_b7cw3n33qk7r0000gn/T//ccgbYUOY.s 			page 5


 229 0134 48060000 		.word	.L20
 230 0138 48060000 		.word	.L20
 231 013c 48060000 		.word	.L20
 232 0140 48060000 		.word	.L20
 233 0144 48060000 		.word	.L20
 234 0148 48060000 		.word	.L20
 235 014c 48060000 		.word	.L20
 236 0150 38060000 		.word	.L23
 237 0154 48060000 		.word	.L20
 238 0158 48060000 		.word	.L20
 239 015c 48060000 		.word	.L20
 240 0160 48060000 		.word	.L20
 241 0164 48060000 		.word	.L20
 242 0168 A0050000 		.word	.L24
 243 016c 48060000 		.word	.L20
 244 0170 48060000 		.word	.L20
 245 0174 5C070000 		.word	.L84
 246 0178 48060000 		.word	.L20
 247 017c 48060000 		.word	.L20
 248 0180 48060000 		.word	.L20
 249 0184 48060000 		.word	.L20
 250 0188 48060000 		.word	.L20
 251 018c 48060000 		.word	.L20
 252 0190 48060000 		.word	.L20
 253 0194 48060000 		.word	.L20
 254 0198 48060000 		.word	.L20
 255 019c 48060000 		.word	.L20
 256 01a0 74050000 		.word	.L26
 257 01a4 D0060000 		.word	.L92
 258 01a8 48060000 		.word	.L20
 259 01ac 58030000 		.word	.L27
 260 01b0 48060000 		.word	.L20
 261 01b4 48060000 		.word	.L20
 262 01b8 48060000 		.word	.L20
 263 01bc 48060000 		.word	.L20
 264 01c0 48060000 		.word	.L20
 265 01c4 48060000 		.word	.L20
 266 01c8 48060000 		.word	.L20
 267 01cc 48060000 		.word	.L20
 268 01d0 38060000 		.word	.L23
 269 01d4 48060000 		.word	.L20
 270 01d8 48060000 		.word	.L20
 271 01dc 48060000 		.word	.L20
 272 01e0 E8020000 		.word	.L28
 273 01e4 48060000 		.word	.L20
 274 01e8 A0050000 		.word	.L24
 275 01ec 48060000 		.word	.L20
 276 01f0 48060000 		.word	.L20
 277 01f4 5C070000 		.word	.L84
 278              	.L17:
 279              		.loc 1 180 0
 280 01f8 413041E2 		sub	r3, r1, #65
 281              		.loc 1 183 0
 282 01fc 440041E2 		sub	r0, r1, #68
 283              		.loc 1 180 0
 284 0200 7330EFE6 		uxtb	r3, r3
 285              	.LVL26:
ARM GAS  /var/folders/3j/4xdnk5197cv_b7cw3n33qk7r0000gn/T//ccgbYUOY.s 			page 6


 286              		.loc 1 183 0
 287 0204 340050E3 		cmp	r0, #52
 288 0208 00F19F97 		ldrls	pc, [pc, r0, asl #2]
 289 020c 0B0100EA 		b	.L71
 290              	.L22:
 291 0210 64070000 		.word	.L21
 292 0214 40060000 		.word	.L71
 293 0218 40060000 		.word	.L71
 294 021c 40060000 		.word	.L71
 295 0220 40060000 		.word	.L71
 296 0224 40060000 		.word	.L71
 297 0228 40060000 		.word	.L71
 298 022c 40060000 		.word	.L71
 299 0230 40060000 		.word	.L71
 300 0234 40060000 		.word	.L71
 301 0238 40060000 		.word	.L71
 302 023c 34060000 		.word	.L72
 303 0240 40060000 		.word	.L71
 304 0244 40060000 		.word	.L71
 305 0248 40060000 		.word	.L71
 306 024c 40060000 		.word	.L71
 307 0250 40060000 		.word	.L71
 308 0254 9C050000 		.word	.L73
 309 0258 40060000 		.word	.L71
 310 025c 40060000 		.word	.L71
 311 0260 C4060000 		.word	.L74
 312 0264 40060000 		.word	.L71
 313 0268 40060000 		.word	.L71
 314 026c 40060000 		.word	.L71
 315 0270 40060000 		.word	.L71
 316 0274 40060000 		.word	.L71
 317 0278 40060000 		.word	.L71
 318 027c 40060000 		.word	.L71
 319 0280 40060000 		.word	.L71
 320 0284 40060000 		.word	.L71
 321 0288 40060000 		.word	.L71
 322 028c 70050000 		.word	.L75
 323 0290 64070000 		.word	.L21
 324 0294 40060000 		.word	.L71
 325 0298 54030000 		.word	.L76
 326 029c 40060000 		.word	.L71
 327 02a0 40060000 		.word	.L71
 328 02a4 40060000 		.word	.L71
 329 02a8 40060000 		.word	.L71
 330 02ac 40060000 		.word	.L71
 331 02b0 40060000 		.word	.L71
 332 02b4 40060000 		.word	.L71
 333 02b8 40060000 		.word	.L71
 334 02bc 34060000 		.word	.L72
 335 02c0 40060000 		.word	.L71
 336 02c4 40060000 		.word	.L71
 337 02c8 40060000 		.word	.L71
 338 02cc E4020000 		.word	.L77
 339 02d0 40060000 		.word	.L71
 340 02d4 9C050000 		.word	.L73
 341 02d8 40060000 		.word	.L71
 342 02dc 40060000 		.word	.L71
ARM GAS  /var/folders/3j/4xdnk5197cv_b7cw3n33qk7r0000gn/T//ccgbYUOY.s 			page 7


 343 02e0 C4060000 		.word	.L74
 344              	.L77:
 345 02e4 0C90A0E1 		mov	r9, ip
 346              	.LVL27:
 347              	.L28:
 348              		.loc 1 190 0
 349 02e8 14309DE5 		ldr	r3, [sp, #20]
 350 02ec 006093E5 		ldr	r6, [r3]
 351              	.LVL28:
 352 02f0 043083E2 		add	r3, r3, #4
 353 02f4 000056E3 		cmp	r6, #0
 354 02f8 14308DE5 		str	r3, [sp, #20]
 355 02fc 2001000A 		beq	.L30
 356              	.LVL29:
 357              		.loc 1 192 0
 358 0300 000052E3 		cmp	r2, #0
 359 0304 0030D6E5 		ldrb	r3, [r6]	@ zero_extendqisi2
 360 0308 06B0A0E1 		mov	fp, r6
 361 030c 2201001A 		bne	.L121
 362              	.LVL30:
 363              		.loc 1 194 0
 364 0310 000053E3 		cmp	r3, #0
 365 0314 00B0E003 		mvneq	fp, #0
 366              		.loc 1 189 0
 367 0318 2070A003 		moveq	r7, #32
 368              		.loc 1 194 0
 369 031c 6C00000A 		beq	.L54
 370              	.LVL31:
 371              	.L115:
 372 0320 B4249FE5 		ldr	r2, .L128+4
 373              	.L66:
 374              		.loc 1 194 0 is_stmt 0 discriminator 4
 375 0324 0630A0E1 		mov	r3, r6
 376 0328 010000EA 		b	.L34
 377              	.LVL32:
 378              	.L33:
 379              		.loc 1 194 0 discriminator 3
 380 032c 012052E2 		subs	r2, r2, #1
 381              	.LVL33:
 382 0330 0200004A 		bmi	.L116
 383              	.LVL34:
 384              	.L34:
 385              		.loc 1 194 0 discriminator 4
 386 0334 0110F3E5 		ldrb	r1, [r3, #1]!	@ zero_extendqisi2
 387              	.LVL35:
 388 0338 000051E3 		cmp	r1, #0
 389 033c FAFFFF1A 		bne	.L33
 390              	.LVL36:
 391              	.L116:
 392 0340 0B3043E0 		sub	r3, r3, fp
 393              	.LVL37:
 394 0344 034044E0 		sub	r4, r4, r3
 395              	.LVL38:
 396 0348 01B043E2 		sub	fp, r3, #1
 397              		.loc 1 189 0 is_stmt 1
 398 034c 2070A0E3 		mov	r7, #32
 399 0350 5D0000EA 		b	.L29
ARM GAS  /var/folders/3j/4xdnk5197cv_b7cw3n33qk7r0000gn/T//ccgbYUOY.s 			page 8


 400              	.LVL39:
 401              	.L76:
 402              		.loc 1 183 0
 403 0354 0C90A0E1 		mov	r9, ip
 404              	.LVL40:
 405              	.L27:
 406              		.loc 1 211 0
 407 0358 14309DE5 		ldr	r3, [sp, #20]
 408 035c 073083E2 		add	r3, r3, #7
 409 0360 0730C3E3 		bic	r3, r3, #7
 410 0364 082083E2 		add	r2, r3, #8
 411              	.LVL41:
 412 0368 D000C3E1 		ldrd	r0, [r3]
 413 036c 14208DE5 		str	r2, [sp, #20]
 414 0370 FEFFFFEB 		bl	__aeabi_d2f
 415              	.LVL42:
 416              		.loc 1 212 0
 417 0374 0010A0E3 		mov	r1, #0
 418              		.loc 1 211 0
 419 0378 00B0A0E1 		mov	fp, r0
 420              	.LVL43:
 421              		.loc 1 212 0
 422 037c FEFFFFEB 		bl	__aeabi_fcmplt
 423              	.LVL44:
 424 0380 000050E3 		cmp	r0, #0
 425              	.LVL45:
 426              		.loc 1 136 0
 427 0384 18608D02 		addeq	r6, sp, #24
 428              		.loc 1 213 0
 429 0388 2D30A013 		movne	r3, #45
 430              		.loc 1 136 0
 431 038c 0620A001 		moveq	r2, r6
 432              		.loc 1 214 0
 433 0390 02B18B12 		addne	fp, fp, #-2147483648
 434              	.LVL46:
 435              		.loc 1 213 0
 436 0394 19208D12 		addne	r2, sp, #25
 437              		.loc 1 216 0
 438 0398 0B00A0E1 		mov	r0, fp
 439              		.loc 1 213 0
 440 039c 1830CD15 		strbne	r3, [sp, #24]
 441 03a0 0C208DE5 		str	r2, [sp, #12]
 442              	.LVL47:
 443 03a4 18608D12 		addne	r6, sp, #24
 444              		.loc 1 216 0
 445 03a8 FEFFFFEB 		bl	__aeabi_f2d
 446              	.LVL48:
 447 03ac F000CDE1 		strd	r0, [sp]
 448              	.LVL49:
 449              	.LBB41:
 450              	.LBB40:
 451              		.loc 1 83 0
 452 03b0 0B00A0E1 		mov	r0, fp
 453              	.LVL50:
 454 03b4 FEFFFFEB 		bl	__aeabi_f2iz
 455              	.LVL51:
 456              	.LBB32:
ARM GAS  /var/folders/3j/4xdnk5197cv_b7cw3n33qk7r0000gn/T//ccgbYUOY.s 			page 9


 457              	.LBB30:
 458              		.loc 1 55 0
 459 03b8 0C209DE5 		ldr	r2, [sp, #12]
 460              	.LBE30:
 461              	.LBE32:
 462              		.loc 1 83 0
 463 03bc 00B0A0E1 		mov	fp, r0
 464              	.LVL52:
 465              	.LBB33:
 466              	.LBB31:
 467              		.loc 1 55 0
 468 03c0 0BE082E2 		add	lr, r2, #11
 469              	.LVL53:
 470              		.loc 1 48 0
 471 03c4 0030A0E1 		mov	r3, r0
 472              		.loc 1 55 0
 473 03c8 0EC0A0E1 		mov	ip, lr
 474              	.LVL54:
 475              	.L44:
 476              		.loc 1 57 0
 477 03cc 930A81E0 		umull	r0, r1, r3, r10
 478              	.LVL55:
 479 03d0 A111A0E1 		lsr	r1, r1, #3
 480 03d4 0100A0E1 		mov	r0, r1
 481 03d8 011181E0 		add	r1, r1, r1, lsl #2
 482 03dc 811043E0 		sub	r1, r3, r1, lsl #1
 483              	.LVL56:
 484              		.loc 1 58 0
 485 03e0 301081E2 		add	r1, r1, #48
 486              	.LVL57:
 487              		.loc 1 61 0
 488 03e4 7110EFE6 		uxtb	r1, r1
 489              	.LVL58:
 490              		.loc 1 63 0
 491 03e8 003050E2 		subs	r3, r0, #0
 492              	.LVL59:
 493              		.loc 1 61 0
 494 03ec 01106CE5 		strb	r1, [ip, #-1]!
 495              	.LVL60:
 496              		.loc 1 63 0
 497 03f0 F5FFFF1A 		bne	.L44
 498              		.loc 1 65 0
 499 03f4 0CE04EE0 		sub	lr, lr, ip
 500              	.LVL61:
 501 03f8 0C00A0E1 		mov	r0, ip
 502              	.LVL62:
 503 03fc 0230A0E1 		mov	r3, r2
 504              	.LVL63:
 505 0400 0EC082E0 		add	ip, r2, lr
 506              	.LVL64:
 507 0404 000000EA 		b	.L46
 508              	.LVL65:
 509              	.L122:
 510 0408 0110F0E5 		ldrb	r1, [r0, #1]!	@ zero_extendqisi2
 511              	.LVL66:
 512              	.L46:
 513              		.loc 1 67 0
ARM GAS  /var/folders/3j/4xdnk5197cv_b7cw3n33qk7r0000gn/T//ccgbYUOY.s 			page 10


 514 040c 0110C3E4 		strb	r1, [r3], #1
 515              	.LVL67:
 516              		.loc 1 68 0
 517 0410 0C0053E1 		cmp	r3, ip
 518 0414 FBFFFF1A 		bne	.L122
 519              	.LBE31:
 520              	.LBE33:
 521              		.loc 1 85 0
 522 0418 2E10A0E3 		mov	r1, #46
 523 041c 01E04EE2 		sub	lr, lr, #1
 524              		.loc 1 86 0
 525 0420 0B00A0E1 		mov	r0, fp
 526              		.loc 1 85 0
 527 0424 0010C3E5 		strb	r1, [r3]
 528 0428 0EB082E0 		add	fp, r2, lr
 529              	.LVL68:
 530              		.loc 1 86 0
 531 042c FEFFFFEB 		bl	__aeabi_i2d
 532              	.LVL69:
 533 0430 0020A0E1 		mov	r2, r0
 534 0434 0130A0E1 		mov	r3, r1
 535 0438 D000CDE1 		ldrd	r0, [sp]
 536 043c FEFFFFEB 		bl	__aeabi_dsub
 537              	.LVL70:
 538 0440 0020A0E3 		mov	r2, #0
 539 0444 94339FE5 		ldr	r3, .L128+8
 540 0448 FEFFFFEB 		bl	__aeabi_dmul
 541              	.LVL71:
 542 044c FEFFFFEB 		bl	__aeabi_d2iz
 543              	.LVL72:
 544              	.LBB34:
 545              	.LBB35:
 546              		.loc 1 55 0
 547 0450 0DE08BE2 		add	lr, fp, #13
 548              	.LBE35:
 549              	.LBE34:
 550              		.loc 1 86 0
 551 0454 0020A0E1 		mov	r2, r0
 552              	.LBB38:
 553              	.LBB36:
 554              		.loc 1 55 0
 555 0458 0E30A0E1 		mov	r3, lr
 556              	.LBE36:
 557              	.LBE38:
 558              		.loc 1 85 0
 559 045c 02108BE2 		add	r1, fp, #2
 560 0460 00108DE5 		str	r1, [sp]
 561              	.LVL73:
 562 0464 08C08BE2 		add	ip, fp, #8
 563              	.LVL74:
 564              	.L47:
 565              	.LBB39:
 566              	.LBB37:
 567              		.loc 1 57 0
 568 0468 920A81E0 		umull	r0, r1, r2, r10
 569 046c A111A0E1 		lsr	r1, r1, #3
 570 0470 0100A0E1 		mov	r0, r1
ARM GAS  /var/folders/3j/4xdnk5197cv_b7cw3n33qk7r0000gn/T//ccgbYUOY.s 			page 11


 571 0474 011181E0 		add	r1, r1, r1, lsl #2
 572 0478 811042E0 		sub	r1, r2, r1, lsl #1
 573              	.LVL75:
 574              		.loc 1 58 0
 575 047c 301081E2 		add	r1, r1, #48
 576              	.LVL76:
 577              		.loc 1 61 0
 578 0480 7110EFE6 		uxtb	r1, r1
 579              	.LVL77:
 580 0484 011063E5 		strb	r1, [r3, #-1]!
 581              	.LVL78:
 582              		.loc 1 63 0
 583 0488 0C0053E1 		cmp	r3, ip
 584              		.loc 1 62 0
 585 048c 0020A0E1 		mov	r2, r0
 586              	.LVL79:
 587              		.loc 1 63 0
 588 0490 F4FFFF1A 		bne	.L47
 589              	.LVL80:
 590              		.loc 1 65 0
 591 0494 03E04EE0 		sub	lr, lr, r3
 592              	.LVL81:
 593 0498 02008EE2 		add	r0, lr, #2
 594 049c 00209DE5 		ldr	r2, [sp]
 595 04a0 00B08BE0 		add	fp, fp, r0
 596              	.LVL82:
 597 04a4 000000EA 		b	.L49
 598              	.LVL83:
 599              	.L48:
 600 04a8 0110F3E5 		ldrb	r1, [r3, #1]!	@ zero_extendqisi2
 601              	.LVL84:
 602              	.L49:
 603              		.loc 1 67 0
 604 04ac 0110C2E4 		strb	r1, [r2], #1
 605              	.LVL85:
 606              		.loc 1 68 0
 607 04b0 0B0052E1 		cmp	r2, fp
 608 04b4 FBFFFF1A 		bne	.L48
 609 04b8 00309DE5 		ldr	r3, [sp]
 610 04bc 0EB083E0 		add	fp, r3, lr
 611 04c0 06B04BE0 		sub	fp, fp, r6
 612 04c4 0B4044E0 		sub	r4, r4, fp
 613              	.LVL86:
 614 04c8 01B04BE2 		sub	fp, fp, #1
 615              	.LVL87:
 616              	.L29:
 617              	.LBE37:
 618              	.LBE39:
 619              	.LBE40:
 620              	.LBE41:
 621              		.loc 1 242 0
 622 04cc 000054E3 		cmp	r4, #0
 623 04d0 510000BA 		blt	.L123
 624              	.LVL88:
 625              	.L54:
 626              		.loc 1 244 0
 627 04d4 000058E3 		cmp	r8, #0
ARM GAS  /var/folders/3j/4xdnk5197cv_b7cw3n33qk7r0000gn/T//ccgbYUOY.s 			page 12


 628 04d8 5F00001A 		bne	.L57
 629              		.loc 1 246 0
 630 04dc 000054E3 		cmp	r4, #0
 631              		.loc 1 245 0
 632 04e0 004064E2 		rsb	r4, r4, #0
 633              	.LVL89:
 634              		.loc 1 246 0
 635 04e4 5C00000A 		beq	.L57
 636              		.loc 1 247 0
 637 04e8 0020D6E5 		ldrb	r2, [r6]	@ zero_extendqisi2
 638 04ec 003095E5 		ldr	r3, [r5]
 639 04f0 2D0052E3 		cmp	r2, #45
 640 04f4 30005703 		cmpeq	r7, #48
 641 04f8 083093E5 		ldr	r3, [r3, #8]
 642 04fc 0200001A 		bne	.L60
 643 0500 AA0000EA 		b	.L124
 644              	.LVL90:
 645              	.L125:
 646 0504 003095E5 		ldr	r3, [r5]
 647 0508 083093E5 		ldr	r3, [r3, #8]
 648              	.L60:
 649              		.loc 1 252 0 discriminator 1
 650 050c 0710A0E1 		mov	r1, r7
 651 0510 0500A0E1 		mov	r0, r5
 652 0514 33FF2FE1 		blx	r3
 653              	.LVL91:
 654              		.loc 1 253 0 discriminator 1
 655 0518 014094E2 		adds	r4, r4, #1
 656              	.LVL92:
 657 051c F8FFFF1A 		bne	.L125
 658              	.LVL93:
 659              		.loc 1 255 0
 660 0520 00005BE3 		cmp	fp, #0
 661 0524 BDFEFFBA 		blt	.L2
 662              	.LVL94:
 663              	.L61:
 664              		.loc 1 256 0
 665 0528 003095E5 		ldr	r3, [r5]
 666              		.loc 1 255 0
 667 052c 01B04BE2 		sub	fp, fp, #1
 668              	.LVL95:
 669              		.loc 1 256 0
 670 0530 083093E5 		ldr	r3, [r3, #8]
 671 0534 0110D6E4 		ldrb	r1, [r6], #1	@ zero_extendqisi2
 672              	.LVL96:
 673 0538 0500A0E1 		mov	r0, r5
 674 053c 33FF2FE1 		blx	r3
 675              	.LVL97:
 676              		.loc 1 255 0
 677 0540 01007BE3 		cmn	fp, #1
 678 0544 F7FFFF1A 		bne	.L61
 679              	.LVL98:
 680              	.L62:
 681              		.loc 1 258 0
 682 0548 000054E3 		cmp	r4, #0
 683 054c B3FEFF0A 		beq	.L2
 684              	.L64:
ARM GAS  /var/folders/3j/4xdnk5197cv_b7cw3n33qk7r0000gn/T//ccgbYUOY.s 			page 13


 685              		.loc 1 259 0
 686 0550 003095E5 		ldr	r3, [r5]
 687 0554 0710A0E1 		mov	r1, r7
 688 0558 083093E5 		ldr	r3, [r3, #8]
 689 055c 0500A0E1 		mov	r0, r5
 690 0560 33FF2FE1 		blx	r3
 691              	.LVL99:
 692              		.loc 1 258 0
 693 0564 014054E2 		subs	r4, r4, #1
 694              	.LVL100:
 695 0568 F8FFFF1A 		bne	.L64
 696 056c ABFEFFEA 		b	.L2
 697              	.LVL101:
 698              	.L75:
 699              		.loc 1 183 0
 700 0570 0C90A0E1 		mov	r9, ip
 701              	.LVL102:
 702              	.L26:
 703              		.loc 1 186 0
 704 0574 14309DE5 		ldr	r3, [sp, #20]
 705 0578 30608DE2 		add	r6, sp, #48
 706 057c 002093E5 		ldr	r2, [r3]
 707              	.LVL103:
 708 0580 043083E2 		add	r3, r3, #4
 709 0584 014044E2 		sub	r4, r4, #1
 710              	.LVL104:
 711 0588 14308DE5 		str	r3, [sp, #20]
 712              	.LVL105:
 713 058c 182066E5 		strb	r2, [r6, #-24]!
 714              		.loc 1 187 0
 715 0590 00B0A0E3 		mov	fp, #0
 716              		.loc 1 185 0
 717 0594 2070A0E3 		mov	r7, #32
 718              		.loc 1 187 0
 719 0598 CBFFFFEA 		b	.L29
 720              	.LVL106:
 721              	.L73:
 722              		.loc 1 183 0
 723 059c 0C90A0E1 		mov	r9, ip
 724              	.LVL107:
 725              	.L24:
 726              		.loc 1 226 0
 727 05a0 0A60A0E3 		mov	r6, #10
 728              	.LVL108:
 729              	.L25:
 730 05a4 14309DE5 		ldr	r3, [sp, #20]
 731              	.LBB42:
 732              	.LBB43:
 733              	.LBB44:
 734              		.loc 1 55 0
 735 05a8 23B08DE2 		add	fp, sp, #35
 736 05ac 040093E4 		ldr	r0, [r3], #4
 737              	.LBE44:
 738              	.LBE43:
 739              	.LBE42:
 740              		.loc 1 234 0
 741 05b0 14308DE5 		str	r3, [sp, #20]
ARM GAS  /var/folders/3j/4xdnk5197cv_b7cw3n33qk7r0000gn/T//ccgbYUOY.s 			page 14


 742              	.LVL109:
 743 05b4 000000EA 		b	.L51
 744              	.LVL110:
 745              	.L80:
 746              	.LBB47:
 747              	.LBB46:
 748              	.LBB45:
 749              		.loc 1 63 0
 750 05b8 02B0A0E1 		mov	fp, r2
 751              	.LVL111:
 752              	.L51:
 753 05bc 0610A0E1 		mov	r1, r6
 754 05c0 FEFFFFEB 		bl	__aeabi_uidivmod
 755              	.LVL112:
 756              		.loc 1 58 0
 757 05c4 303081E2 		add	r3, r1, #48
 758              	.LVL113:
 759              		.loc 1 59 0
 760 05c8 390053E3 		cmp	r3, #57
 761              		.loc 1 60 0
 762 05cc 373081C2 		addgt	r3, r1, #55
 763              	.LVL114:
 764              		.loc 1 61 0
 765 05d0 7330EFE6 		uxtb	r3, r3
 766              	.LVL115:
 767              		.loc 1 63 0
 768 05d4 000050E3 		cmp	r0, #0
 769              	.LVL116:
 770              		.loc 1 61 0
 771 05d8 01304BE5 		strb	r3, [fp, #-1]
 772 05dc 01204BE2 		sub	r2, fp, #1
 773              	.LVL117:
 774              		.loc 1 63 0
 775 05e0 F4FFFF1A 		bne	.L80
 776              		.loc 1 65 0
 777 05e4 23008DE2 		add	r0, sp, #35
 778              	.LVL118:
 779 05e8 18608DE2 		add	r6, sp, #24
 780              	.LVL119:
 781 05ec 020040E0 		sub	r0, r0, r2
 782              	.LVL120:
 783 05f0 0610A0E1 		mov	r1, r6
 784 05f4 002082E0 		add	r2, r2, r0
 785              	.LVL121:
 786 05f8 000000EA 		b	.L53
 787              	.LVL122:
 788              	.L52:
 789 05fc 0130DBE4 		ldrb	r3, [fp], #1	@ zero_extendqisi2
 790              	.LVL123:
 791              	.L53:
 792              		.loc 1 68 0
 793 0600 0B0052E1 		cmp	r2, fp
 794              		.loc 1 67 0
 795 0604 0130C1E4 		strb	r3, [r1], #1
 796              	.LVL124:
 797              		.loc 1 68 0
 798 0608 FBFFFF1A 		bne	.L52
ARM GAS  /var/folders/3j/4xdnk5197cv_b7cw3n33qk7r0000gn/T//ccgbYUOY.s 			page 15


 799 060c 004044E0 		sub	r4, r4, r0
 800              	.LVL125:
 801              	.LBE45:
 802              	.LBE46:
 803              	.LBE47:
 804              		.loc 1 242 0
 805 0610 000054E3 		cmp	r4, #0
 806 0614 01B040E2 		sub	fp, r0, #1
 807              	.LVL126:
 808 0618 ADFFFFAA 		bge	.L54
 809              	.LVL127:
 810              	.L123:
 811              		.loc 1 244 0
 812 061c 000058E3 		cmp	r8, #0
 813 0620 2300001A 		bne	.L126
 814              		.loc 1 255 0
 815 0624 00005BE3 		cmp	fp, #0
 816              		.loc 1 245 0
 817 0628 0840A0A1 		movge	r4, r8
 818              		.loc 1 255 0
 819 062c BDFFFFAA 		bge	.L61
 820 0630 7AFEFFEA 		b	.L2
 821              	.LVL128:
 822              	.L72:
 823              		.loc 1 183 0
 824 0634 0C90A0E1 		mov	r9, ip
 825              	.LVL129:
 826              	.L23:
 827              		.loc 1 227 0
 828 0638 0860A0E3 		mov	r6, #8
 829 063c D8FFFFEA 		b	.L25
 830              	.LVL130:
 831              	.L71:
 832              		.loc 1 183 0
 833 0640 0130A0E1 		mov	r3, r1
 834              	.LVL131:
 835 0644 0C90A0E1 		mov	r9, ip
 836              	.LVL132:
 837              	.L20:
 838              		.loc 1 238 0
 839 0648 30608DE2 		add	r6, sp, #48
 840              		.loc 1 239 0
 841 064c 00B0A0E3 		mov	fp, #0
 842 0650 014044E2 		sub	r4, r4, #1
 843              	.LVL133:
 844              		.loc 1 238 0
 845 0654 183066E5 		strb	r3, [r6, #-24]!
 846              		.loc 1 239 0
 847 0658 9BFFFFEA 		b	.L29
 848              	.LVL134:
 849              	.L57:
 850              		.loc 1 255 0
 851 065c 00005BE3 		cmp	fp, #0
 852 0660 B0FFFFAA 		bge	.L61
 853 0664 B7FFFFEA 		b	.L62
 854              	.LVL135:
 855              	.L120:
ARM GAS  /var/folders/3j/4xdnk5197cv_b7cw3n33qk7r0000gn/T//ccgbYUOY.s 			page 16


 856              		.loc 1 160 0
 857 0668 0060A0E3 		mov	r6, #0
 858 066c 14E09DE5 		ldr	lr, [sp, #20]
 859              		.loc 1 159 0
 860 0670 0620A0E1 		mov	r2, r6
 861 0674 030000EA 		b	.L15
 862              	.LVL136:
 863              	.L127:
 864              		.loc 1 166 0
 865 0678 0160A0E3 		mov	r6, #1
 866 067c 0030DEE5 		ldrb	r3, [lr]	@ zero_extendqisi2
 867              	.LVL137:
 868 0680 04E08EE2 		add	lr, lr, #4
 869              	.LVL138:
 870              	.L13:
 871              		.loc 1 170 0
 872 0684 802083E0 		add	r2, r3, r0, lsl #1
 873              	.LVL139:
 874              	.L15:
 875              		.loc 1 162 0
 876 0688 0110DCE4 		ldrb	r1, [ip], #1	@ zero_extendqisi2
 877              	.LVL140:
 878              		.loc 1 169 0
 879 068c 020182E0 		add	r0, r2, r2, lsl #2
 880              		.loc 1 163 0
 881 0690 303041E2 		sub	r3, r1, #48
 882 0694 7330EFE6 		uxtb	r3, r3
 883 0698 090053E3 		cmp	r3, #9
 884 069c F8FFFF9A 		bls	.L13
 885              		.loc 1 165 0
 886 06a0 2A0051E3 		cmp	r1, #42
 887 06a4 F3FFFF0A 		beq	.L127
 888 06a8 000056E3 		cmp	r6, #0
 889 06ac 14E08D15 		strne	lr, [sp, #20]
 890 06b0 8FFEFFEA 		b	.L12
 891              	.LVL141:
 892              	.L126:
 893              		.loc 1 255 0
 894 06b4 00005BE3 		cmp	fp, #0
 895              		.loc 1 243 0
 896 06b8 0040A0A3 		movge	r4, #0
 897              		.loc 1 255 0
 898 06bc 99FFFFAA 		bge	.L61
 899 06c0 56FEFFEA 		b	.L2
 900              	.LVL142:
 901              	.L74:
 902              		.loc 1 183 0
 903 06c4 0C90A0E1 		mov	r9, ip
 904 06c8 1060A0E3 		mov	r6, #16
 905 06cc B4FFFFEA 		b	.L25
 906              	.LVL143:
 907              	.L92:
 908 06d0 14209DE5 		ldr	r2, [sp, #20]
 909              	.LVL144:
 910              	.L36:
 911              		.loc 1 200 0
 912 06d4 043082E2 		add	r3, r2, #4
ARM GAS  /var/folders/3j/4xdnk5197cv_b7cw3n33qk7r0000gn/T//ccgbYUOY.s 			page 17


 913 06d8 00E092E5 		ldr	lr, [r2]
 914 06dc 14308DE5 		str	r3, [sp, #20]
 915              	.L37:
 916              	.LVL145:
 917              		.loc 1 203 0
 918 06e0 00005EE3 		cmp	lr, #0
 919              	.LVL146:
 920              		.loc 1 136 0
 921 06e4 18608DA2 		addge	r6, sp, #24
 922 06e8 06C0A0A1 		movge	ip, r6
 923              		.loc 1 204 0
 924 06ec 19C08DB2 		addlt	ip, sp, #25
 925 06f0 2D30A0B3 		movlt	r3, #45
 926              	.LBB48:
 927              	.LBB49:
 928              	.LBB50:
 929              		.loc 1 55 0
 930 06f4 0BB08CE2 		add	fp, ip, #11
 931 06f8 0B20A0E1 		mov	r2, fp
 932              	.LBE50:
 933              	.LBE49:
 934              	.LBE48:
 935              		.loc 1 205 0
 936 06fc 00E06EB2 		rsblt	lr, lr, #0
 937              	.LVL147:
 938              		.loc 1 204 0
 939 0700 1830CDB5 		strblt	r3, [sp, #24]
 940 0704 18608DB2 		addlt	r6, sp, #24
 941              	.LVL148:
 942              	.L39:
 943              	.LBB53:
 944              	.LBB52:
 945              	.LBB51:
 946              		.loc 1 57 0
 947 0708 9E0A81E0 		umull	r0, r1, lr, r10
 948 070c A131A0E1 		lsr	r3, r1, #3
 949 0710 0310A0E1 		mov	r1, r3
 950 0714 033183E0 		add	r3, r3, r3, lsl #2
 951 0718 83304EE0 		sub	r3, lr, r3, lsl #1
 952              	.LVL149:
 953              		.loc 1 58 0
 954 071c 303083E2 		add	r3, r3, #48
 955              	.LVL150:
 956              		.loc 1 61 0
 957 0720 7330EFE6 		uxtb	r3, r3
 958              	.LVL151:
 959              		.loc 1 63 0
 960 0724 00E051E2 		subs	lr, r1, #0
 961              	.LVL152:
 962              		.loc 1 61 0
 963 0728 013062E5 		strb	r3, [r2, #-1]!
 964              	.LVL153:
 965              		.loc 1 63 0
 966 072c F5FFFF1A 		bne	.L39
 967              	.LVL154:
 968              		.loc 1 65 0
 969 0730 02104BE0 		sub	r1, fp, r2
ARM GAS  /var/folders/3j/4xdnk5197cv_b7cw3n33qk7r0000gn/T//ccgbYUOY.s 			page 18


 970              	.LVL155:
 971 0734 01108CE0 		add	r1, ip, r1
 972 0738 000000EA 		b	.L41
 973              	.LVL156:
 974              	.L40:
 975 073c 0130F2E5 		ldrb	r3, [r2, #1]!	@ zero_extendqisi2
 976              	.LVL157:
 977              	.L41:
 978              		.loc 1 67 0
 979 0740 0130CCE4 		strb	r3, [ip], #1
 980              	.LVL158:
 981              		.loc 1 68 0
 982 0744 01005CE1 		cmp	ip, r1
 983 0748 FBFFFF1A 		bne	.L40
 984 074c 06C04CE0 		sub	ip, ip, r6
 985              	.LVL159:
 986 0750 0C4044E0 		sub	r4, r4, ip
 987              	.LVL160:
 988 0754 01B04CE2 		sub	fp, ip, #1
 989              	.LVL161:
 990 0758 5BFFFFEA 		b	.L29
 991              	.LVL162:
 992              	.L84:
 993              	.LBE51:
 994              	.LBE52:
 995              	.LBE53:
 996              		.loc 1 183 0
 997 075c 1060A0E3 		mov	r6, #16
 998 0760 8FFFFFEA 		b	.L25
 999              	.LVL163:
 1000              	.L21:
 1001 0764 14209DE5 		ldr	r2, [sp, #20]
 1002              	.LVL164:
 1003              		.loc 1 199 0
 1004 0768 190053E3 		cmp	r3, #25
 1005 076c 0230A0E1 		mov	r3, r2
 1006              	.LVL165:
 1007 0770 04E093E4 		ldr	lr, [r3], #4
 1008 0774 0C90A0E1 		mov	r9, ip
 1009              		.loc 1 202 0
 1010 0778 14308D85 		strhi	r3, [sp, #20]
 1011              		.loc 1 199 0
 1012 077c D7FFFF8A 		bhi	.L37
 1013              	.LVL166:
 1014 0780 D3FFFFEA 		b	.L36
 1015              	.LVL167:
 1016              	.L30:
 1017              		.loc 1 192 0
 1018 0784 000052E3 		cmp	r2, #0
 1019 0788 54B09FE5 		ldr	fp, .L128+12
 1020 078c 0F00000A 		beq	.L86
 1021 0790 0B60A0E1 		mov	r6, fp
 1022              	.LVL168:
 1023              	.L67:
 1024              		.loc 1 194 0
 1025 0794 012042E2 		sub	r2, r2, #1
 1026              	.LVL169:
ARM GAS  /var/folders/3j/4xdnk5197cv_b7cw3n33qk7r0000gn/T//ccgbYUOY.s 			page 19


 1027 0798 E1FEFFEA 		b	.L66
 1028              	.LVL170:
 1029              	.L121:
 1030 079c 000053E3 		cmp	r3, #0
 1031 07a0 00B0E003 		mvneq	fp, #0
 1032              		.loc 1 189 0
 1033 07a4 2070A003 		moveq	r7, #32
 1034              		.loc 1 194 0
 1035 07a8 F9FFFF1A 		bne	.L67
 1036 07ac 46FFFFEA 		b	.L29
 1037              	.LVL171:
 1038              	.L124:
 1039              		.loc 1 248 0
 1040 07b0 2D10A0E3 		mov	r1, #45
 1041 07b4 0500A0E1 		mov	r0, r5
 1042 07b8 33FF2FE1 		blx	r3
 1043              	.LVL172:
 1044 07bc 003095E5 		ldr	r3, [r5]
 1045 07c0 016086E2 		add	r6, r6, #1
 1046              	.LVL173:
 1047 07c4 083093E5 		ldr	r3, [r3, #8]
 1048 07c8 01B04BE2 		sub	fp, fp, #1
 1049 07cc 4EFFFFEA 		b	.L60
 1050              	.LVL174:
 1051              	.L86:
 1052              		.loc 1 192 0
 1053 07d0 0C609FE5 		ldr	r6, .L128+12
 1054 07d4 D1FEFFEA 		b	.L115
 1055              	.L129:
 1056              		.align	2
 1057              	.L128:
 1058 07d8 CDCCCCCC 		.word	-858993459
 1059 07dc FE7F0000 		.word	32766
 1060 07e0 006AF840 		.word	1090021888
 1061 07e4 00000000 		.word	.LC0
 1062              		.cfi_endproc
 1063              	.LFE10:
 1064              		.size	chprintf, .-chprintf
 1065              		.section	.rodata.chprintf.str1.4,"aMS",%progbits,1
 1066              		.align	2
 1067              	.LC0:
 1068 0000 286E756C 		.ascii	"(null)\000"
 1068      6C2900
 1069              		.text
 1070              	.Letext0:
 1071              		.file 2 "/usr/local/Cellar/gcc-arm-none-eabi/20180627/lib/gcc/arm-none-eabi/7.3.1/include/stdarg.h
 1072              		.file 3 "/usr/local/Cellar/gcc-arm-none-eabi/20180627/lib/gcc/arm-none-eabi/7.3.1/include/stddef.h
 1073              		.file 4 "/usr/local/Cellar/gcc-arm-none-eabi/20180627/arm-none-eabi/include/machine/_default_types
 1074              		.file 5 "/usr/local/Cellar/gcc-arm-none-eabi/20180627/arm-none-eabi/include/sys/_stdint.h"
 1075              		.file 6 "..//os/ports/GCC/ARM/chtypes.h"
 1076              		.file 7 "..//os/kernel/include/chlists.h"
 1077              		.file 8 "<built-in>"
 1078              		.file 9 "..//os/kernel/include/chthreads.h"
 1079              		.file 10 "..//os/ports/GCC/ARM/chcore.h"
 1080              		.file 11 "..//os/kernel/include/chvt.h"
 1081              		.file 12 "..//os/kernel/include/chschd.h"
 1082              		.file 13 "..//os/kernel/include/chmtx.h"
ARM GAS  /var/folders/3j/4xdnk5197cv_b7cw3n33qk7r0000gn/T//ccgbYUOY.s 			page 20


 1083              		.file 14 "..//os/kernel/include/chregistry.h"
 1084              		.file 15 "..//os/kernel/include/chstreams.h"
 1085              		.file 16 "..//os/kernel/include/ch.h"