ARM GAS  /var/folders/3j/4xdnk5197cv_b7cw3n33qk7r0000gn/T//ccMhzYuE.s 			page 1


   1              		.cpu arm1176jz-s
   2              		.eabi_attribute 20, 1
   3              		.eabi_attribute 21, 1
   4              		.eabi_attribute 23, 3
   5              		.eabi_attribute 24, 1
   6              		.eabi_attribute 25, 1
   7              		.eabi_attribute 26, 1
   8              		.eabi_attribute 30, 2
   9              		.eabi_attribute 34, 1
  10              		.eabi_attribute 18, 4
  11              		.file	"chqueues.c"
  12              		.text
  13              	.Ltext0:
  14              		.cfi_sections	.debug_frame
  15              		.section	.text.qwait,"ax",%progbits
  16              		.align	2
  17              		.syntax unified
  18              		.arm
  19              		.fpu softvfp
  20              		.type	qwait, %function
  21              	qwait:
  22              	.LFB7:
  23              		.file 1 "..//os/kernel/src/chqueues.c"
  24              		.loc 1 63 0
  25              		.cfi_startproc
  26              		@ args = 0, pretend = 0, frame = 0
  27              		@ frame_needed = 0, uses_anonymous_args = 0
  28              		@ link register save eliminated.
  29              	.LVL0:
  30              		.loc 1 65 0
  31 0000 000051E3 		cmp	r1, #0
  32              		.loc 1 63 0
  33 0004 0020A0E1 		mov	r2, r0
  34              		.loc 1 65 0
  35 0008 0800000A 		beq	.L2
  36              		.loc 1 67 0
  37 000c 24309FE5 		ldr	r3, .L4
  38              	.LBB12:
  39              	.LBB13:
  40              		.file 2 "..//os/kernel/include/chinline.h"
  41              		.loc 2 48 0
  42 0010 04C090E5 		ldr	ip, [r0, #4]
  43              	.LBE13:
  44              	.LBE12:
  45              		.loc 1 67 0
  46 0014 183093E5 		ldr	r3, [r3, #24]
  47              		.loc 1 69 0
  48 0018 0D00A0E3 		mov	r0, #13
  49              	.LVL1:
  50              		.loc 1 67 0
  51 001c 242083E5 		str	r2, [r3, #36]
  52              	.LVL2:
  53              	.LBB15:
  54              	.LBB14:
  55              		.loc 2 48 0
  56 0020 041083E8 		stm	r3, {r2, ip}
  57              		.loc 2 49 0
ARM GAS  /var/folders/3j/4xdnk5197cv_b7cw3n33qk7r0000gn/T//ccMhzYuE.s 			page 2


  58 0024 043082E5 		str	r3, [r2, #4]
  59 0028 00308CE5 		str	r3, [ip]
  60              	.LVL3:
  61              	.LBE14:
  62              	.LBE15:
  63              		.loc 1 69 0
  64 002c FEFFFFEA 		b	chSchGoSleepTimeoutS
  65              	.LVL4:
  66              	.L2:
  67              		.loc 1 70 0
  68 0030 0000E0E3 		mvn	r0, #0
  69              	.LVL5:
  70 0034 1EFF2FE1 		bx	lr
  71              	.L5:
  72              		.align	2
  73              	.L4:
  74 0038 00000000 		.word	rlist
  75              		.cfi_endproc
  76              	.LFE7:
  77              		.size	qwait, .-qwait
  78              		.section	.text.chIQInit,"ax",%progbits
  79              		.align	2
  80              		.global	chIQInit
  81              		.syntax unified
  82              		.arm
  83              		.fpu softvfp
  84              		.type	chIQInit, %function
  85              	chIQInit:
  86              	.LFB8:
  87              		.loc 1 89 0
  88              		.cfi_startproc
  89              		@ args = 4, pretend = 0, frame = 0
  90              		@ frame_needed = 0, uses_anonymous_args = 0
  91              	.LVL6:
  92 0000 04E02DE5 		str	lr, [sp, #-4]!
  93              		.cfi_def_cfa_offset 4
  94              		.cfi_offset 14, -4
  95              		.loc 1 92 0
  96 0004 00E0A0E3 		mov	lr, #0
  97              		.loc 1 89 0
  98 0008 04C09DE5 		ldr	ip, [sp, #4]
  99              		.loc 1 94 0
 100 000c 022081E0 		add	r2, r1, r2
 101              	.LVL7:
 102 0010 102080E5 		str	r2, [r0, #16]
 103              		.loc 1 91 0
 104 0014 040080E5 		str	r0, [r0, #4]
 105 0018 000080E5 		str	r0, [r0]
 106              		.loc 1 93 0
 107 001c 141080E5 		str	r1, [r0, #20]
 108 0020 181080E5 		str	r1, [r0, #24]
 109 0024 0C1080E5 		str	r1, [r0, #12]
 110              		.loc 1 95 0
 111 0028 1C3080E5 		str	r3, [r0, #28]
 112              		.loc 1 92 0
 113 002c 08E080E5 		str	lr, [r0, #8]
 114              		.loc 1 96 0
ARM GAS  /var/folders/3j/4xdnk5197cv_b7cw3n33qk7r0000gn/T//ccMhzYuE.s 			page 3


 115 0030 20C080E5 		str	ip, [r0, #32]
 116              		.loc 1 97 0
 117 0034 04F09DE4 		ldr	pc, [sp], #4
 118              		.cfi_endproc
 119              	.LFE8:
 120              		.size	chIQInit, .-chIQInit
 121              		.section	.text.chIQResetI,"ax",%progbits
 122              		.align	2
 123              		.global	chIQResetI
 124              		.syntax unified
 125              		.arm
 126              		.fpu softvfp
 127              		.type	chIQResetI, %function
 128              	chIQResetI:
 129              	.LFB9:
 130              		.loc 1 110 0
 131              		.cfi_startproc
 132              		@ args = 0, pretend = 0, frame = 0
 133              		@ frame_needed = 0, uses_anonymous_args = 0
 134              	.LVL8:
 135              		.loc 1 115 0
 136 0000 0010A0E3 		mov	r1, #0
 137              		.loc 1 116 0
 138 0004 003090E5 		ldr	r3, [r0]
 139              		.loc 1 114 0
 140 0008 0C2090E5 		ldr	r2, [r0, #12]
 141              		.loc 1 116 0
 142 000c 030050E1 		cmp	r0, r3
 143              		.loc 1 115 0
 144 0010 081080E5 		str	r1, [r0, #8]
 145              		.loc 1 114 0
 146 0014 142080E5 		str	r2, [r0, #20]
 147 0018 182080E5 		str	r2, [r0, #24]
 148              		.loc 1 116 0
 149 001c 1EFF2F01 		bxeq	lr
 150              		.loc 1 110 0
 151 0020 70402DE9 		push	{r4, r5, r6, lr}
 152              		.cfi_def_cfa_offset 16
 153              		.cfi_offset 4, -16
 154              		.cfi_offset 5, -12
 155              		.cfi_offset 6, -8
 156              		.cfi_offset 14, -4
 157 0024 0040A0E1 		mov	r4, r0
 158              		.loc 1 117 0
 159 0028 0150E0E3 		mvn	r5, #1
 160              	.LVL9:
 161              	.L10:
 162              	.LBB16:
 163              	.LBB17:
 164              		.loc 2 55 0
 165 002c 002093E5 		ldr	r2, [r3]
 166              	.LBE17:
 167              	.LBE16:
 168              		.loc 1 117 0
 169 0030 0300A0E1 		mov	r0, r3
 170              	.LBB19:
 171              	.LBB18:
ARM GAS  /var/folders/3j/4xdnk5197cv_b7cw3n33qk7r0000gn/T//ccMhzYuE.s 			page 4


 172              		.loc 2 55 0
 173 0034 002084E5 		str	r2, [r4]
 174 0038 044082E5 		str	r4, [r2, #4]
 175              	.LVL10:
 176              	.LBE18:
 177              	.LBE19:
 178              		.loc 1 117 0
 179 003c FEFFFFEB 		bl	chSchReadyI
 180              	.LVL11:
 181              		.loc 1 116 0
 182 0040 003094E5 		ldr	r3, [r4]
 183              		.loc 1 117 0
 184 0044 245080E5 		str	r5, [r0, #36]
 185              		.loc 1 116 0
 186 0048 040053E1 		cmp	r3, r4
 187 004c F6FFFF1A 		bne	.L10
 188 0050 7080BDE8 		pop	{r4, r5, r6, pc}
 189              		.cfi_endproc
 190              	.LFE9:
 191              		.size	chIQResetI, .-chIQResetI
 192              		.section	.text.chIQPutI,"ax",%progbits
 193              		.align	2
 194              		.global	chIQPutI
 195              		.syntax unified
 196              		.arm
 197              		.fpu softvfp
 198              		.type	chIQPutI, %function
 199              	chIQPutI:
 200              	.LFB10:
 201              		.loc 1 133 0
 202              		.cfi_startproc
 203              		@ args = 0, pretend = 0, frame = 0
 204              		@ frame_needed = 0, uses_anonymous_args = 0
 205              	.LVL12:
 206              		.loc 1 137 0
 207 0000 D421C0E1 		ldrd	r2, [r0, #20]
 208 0004 030052E1 		cmp	r2, r3
 209 0008 083090E5 		ldr	r3, [r0, #8]
 210 000c 1900000A 		beq	.L26
 211              	.L17:
 212              		.loc 1 140 0
 213 0010 013083E2 		add	r3, r3, #1
 214              		.loc 1 141 0
 215 0014 01C082E2 		add	ip, r2, #1
 216 0018 14C080E5 		str	ip, [r0, #20]
 217              		.loc 1 140 0
 218 001c 083080E5 		str	r3, [r0, #8]
 219              		.loc 1 141 0
 220 0020 0010C2E5 		strb	r1, [r2]
 221              		.loc 1 142 0
 222 0024 142090E5 		ldr	r2, [r0, #20]
 223 0028 103090E5 		ldr	r3, [r0, #16]
 224 002c 030052E1 		cmp	r2, r3
 225              		.loc 1 143 0
 226 0030 0C309025 		ldrcs	r3, [r0, #12]
 227              		.loc 1 145 0
 228 0034 002090E5 		ldr	r2, [r0]
ARM GAS  /var/folders/3j/4xdnk5197cv_b7cw3n33qk7r0000gn/T//ccMhzYuE.s 			page 5


 229              		.loc 1 143 0
 230 0038 14308025 		strcs	r3, [r0, #20]
 231              		.loc 1 145 0
 232 003c 000052E1 		cmp	r2, r0
 233 0040 0A00000A 		beq	.L21
 234 0044 0030A0E1 		mov	r3, r0
 235              	.LVL13:
 236              	.LBB20:
 237              	.LBB21:
 238              		.loc 2 55 0
 239 0048 001092E5 		ldr	r1, [r2]
 240              	.LVL14:
 241              	.LBE21:
 242              	.LBE20:
 243              		.loc 1 133 0
 244 004c 10402DE9 		push	{r4, lr}
 245              		.cfi_def_cfa_offset 8
 246              		.cfi_offset 4, -8
 247              		.cfi_offset 14, -4
 248              		.loc 1 146 0
 249 0050 0200A0E1 		mov	r0, r2
 250              	.LVL15:
 251              	.LBB23:
 252              	.LBB22:
 253              		.loc 2 55 0
 254 0054 001083E5 		str	r1, [r3]
 255 0058 043081E5 		str	r3, [r1, #4]
 256              	.LVL16:
 257              	.LBE22:
 258              	.LBE23:
 259              		.loc 1 146 0
 260 005c FEFFFFEB 		bl	chSchReadyI
 261              	.LVL17:
 262 0060 0030A0E3 		mov	r3, #0
 263 0064 243080E5 		str	r3, [r0, #36]
 264              		.loc 1 148 0
 265 0068 0300A0E1 		mov	r0, r3
 266              		.loc 1 149 0
 267 006c 1080BDE8 		pop	{r4, pc}
 268              	.LVL18:
 269              	.L21:
 270              		.cfi_def_cfa_offset 0
 271              		.cfi_restore 4
 272              		.cfi_restore 14
 273              		.loc 1 148 0
 274 0070 0000A0E3 		mov	r0, #0
 275              	.LVL19:
 276              		.loc 1 149 0
 277 0074 1EFF2FE1 		bx	lr
 278              	.LVL20:
 279              	.L26:
 280              		.loc 1 137 0 discriminator 1
 281 0078 000053E3 		cmp	r3, #0
 282 007c E3FFFF0A 		beq	.L17
 283              		.loc 1 138 0
 284 0080 0300E0E3 		mvn	r0, #3
 285              	.LVL21:
ARM GAS  /var/folders/3j/4xdnk5197cv_b7cw3n33qk7r0000gn/T//ccMhzYuE.s 			page 6


 286 0084 1EFF2FE1 		bx	lr
 287              		.cfi_endproc
 288              	.LFE10:
 289              		.size	chIQPutI, .-chIQPutI
 290              		.section	.text.chIQGetTimeout,"ax",%progbits
 291              		.align	2
 292              		.global	chIQGetTimeout
 293              		.syntax unified
 294              		.arm
 295              		.fpu softvfp
 296              		.type	chIQGetTimeout, %function
 297              	chIQGetTimeout:
 298              	.LFB11:
 299              		.loc 1 171 0
 300              		.cfi_startproc
 301              		@ args = 0, pretend = 0, frame = 0
 302              		@ frame_needed = 0, uses_anonymous_args = 0
 303              	.LVL22:
 304 0000 70402DE9 		push	{r4, r5, r6, lr}
 305              		.cfi_def_cfa_offset 16
 306              		.cfi_offset 4, -16
 307              		.cfi_offset 5, -12
 308              		.cfi_offset 6, -8
 309              		.cfi_offset 14, -4
 310              		.loc 1 171 0
 311 0004 0150A0E1 		mov	r5, r1
 312 0008 0040A0E1 		mov	r4, r0
 313              		.loc 1 174 0
 314              		.syntax divided
 315              	@ 174 "..//os/kernel/src/chqueues.c" 1
 316 000c 9FF021E3 		msr     CPSR_c, #0x9F
 317              	@ 0 "" 2
 318              		.loc 1 175 0
 319              		.arm
 320              		.syntax unified
 321 0010 1C3090E5 		ldr	r3, [r0, #28]
 322 0014 000053E3 		cmp	r3, #0
 323 0018 0600000A 		beq	.L29
 324              		.loc 1 176 0
 325 001c 33FF2FE1 		blx	r3
 326              	.LVL23:
 327 0020 040000EA 		b	.L29
 328              	.L31:
 329              	.LBB24:
 330              		.loc 1 180 0
 331 0024 0510A0E1 		mov	r1, r5
 332 0028 0400A0E1 		mov	r0, r4
 333 002c FEFFFFEB 		bl	qwait
 334              	.LVL24:
 335 0030 000050E3 		cmp	r0, #0
 336 0034 0C0000BA 		blt	.L32
 337              	.LVL25:
 338              	.L29:
 339              	.LBE24:
 340              		.loc 1 178 0
 341 0038 083094E5 		ldr	r3, [r4, #8]
 342 003c 000053E3 		cmp	r3, #0
ARM GAS  /var/folders/3j/4xdnk5197cv_b7cw3n33qk7r0000gn/T//ccMhzYuE.s 			page 7


 343 0040 F7FFFF0A 		beq	.L31
 344              		.loc 1 187 0
 345 0044 182094E5 		ldr	r2, [r4, #24]
 346              		.loc 1 188 0
 347 0048 100094E5 		ldr	r0, [r4, #16]
 348              		.loc 1 187 0
 349 004c 011082E2 		add	r1, r2, #1
 350              		.loc 1 186 0
 351 0050 013043E2 		sub	r3, r3, #1
 352              		.loc 1 188 0
 353 0054 000051E1 		cmp	r1, r0
 354              		.loc 1 186 0
 355 0058 083084E5 		str	r3, [r4, #8]
 356              		.loc 1 189 0
 357 005c 0C309425 		ldrcs	r3, [r4, #12]
 358              		.loc 1 187 0
 359 0060 181084E5 		str	r1, [r4, #24]
 360 0064 0000D2E5 		ldrb	r0, [r2]	@ zero_extendqisi2
 361              	.LVL26:
 362              		.loc 1 189 0
 363 0068 18308425 		strcs	r3, [r4, #24]
 364              	.LVL27:
 365              	.L32:
 366              		.loc 1 191 0
 367              		.syntax divided
 368              	@ 191 "..//os/kernel/src/chqueues.c" 1
 369 006c 1FF021E3 		msr     CPSR_c, #0x1F
 370              	@ 0 "" 2
 371              		.loc 1 193 0
 372              		.arm
 373              		.syntax unified
 374 0070 7080BDE8 		pop	{r4, r5, r6, pc}
 375              		.cfi_endproc
 376              	.LFE11:
 377              		.size	chIQGetTimeout, .-chIQGetTimeout
 378              		.section	.text.chIQReadTimeout,"ax",%progbits
 379              		.align	2
 380              		.global	chIQReadTimeout
 381              		.syntax unified
 382              		.arm
 383              		.fpu softvfp
 384              		.type	chIQReadTimeout, %function
 385              	chIQReadTimeout:
 386              	.LFB12:
 387              		.loc 1 220 0
 388              		.cfi_startproc
 389              		@ args = 0, pretend = 0, frame = 0
 390              		@ frame_needed = 0, uses_anonymous_args = 0
 391              	.LVL28:
 392 0000 F0472DE9 		push	{r4, r5, r6, r7, r8, r9, r10, lr}
 393              		.cfi_def_cfa_offset 32
 394              		.cfi_offset 4, -32
 395              		.cfi_offset 5, -28
 396              		.cfi_offset 6, -24
 397              		.cfi_offset 7, -20
 398              		.cfi_offset 8, -16
 399              		.cfi_offset 9, -12
ARM GAS  /var/folders/3j/4xdnk5197cv_b7cw3n33qk7r0000gn/T//ccMhzYuE.s 			page 8


 400              		.cfi_offset 10, -8
 401              		.cfi_offset 14, -4
 402              		.loc 1 220 0
 403 0004 0040A0E1 		mov	r4, r0
 404 0008 0180A0E1 		mov	r8, r1
 405 000c 0290A0E1 		mov	r9, r2
 406 0010 0350A0E1 		mov	r5, r3
 407              		.loc 1 221 0
 408 0014 1C7090E5 		ldr	r7, [r0, #28]
 409              	.LVL29:
 410              		.loc 1 226 0
 411              		.syntax divided
 412              	@ 226 "..//os/kernel/src/chqueues.c" 1
 413 0018 9FF021E3 		msr     CPSR_c, #0x9F
 414              	@ 0 "" 2
 415              		.loc 1 222 0
 416              		.arm
 417              		.syntax unified
 418 001c 0060A0E3 		mov	r6, #0
 419              	.LVL30:
 420              	.L44:
 421              		.loc 1 228 0
 422 0020 000057E3 		cmp	r7, #0
 423 0024 0700000A 		beq	.L40
 424              		.loc 1 229 0
 425 0028 0400A0E1 		mov	r0, r4
 426 002c 37FF2FE1 		blx	r7
 427              	.LVL31:
 428 0030 040000EA 		b	.L40
 429              	.L42:
 430              		.loc 1 232 0
 431 0034 0510A0E1 		mov	r1, r5
 432 0038 0400A0E1 		mov	r0, r4
 433 003c FEFFFFEB 		bl	qwait
 434              	.LVL32:
 435 0040 000050E3 		cmp	r0, #0
 436 0044 1400001A 		bne	.L51
 437              	.L40:
 438              		.loc 1 231 0
 439 0048 083094E5 		ldr	r3, [r4, #8]
 440 004c 000053E3 		cmp	r3, #0
 441 0050 F7FFFF0A 		beq	.L42
 442              		.loc 1 239 0
 443 0054 182094E5 		ldr	r2, [r4, #24]
 444              		.loc 1 238 0
 445 0058 013043E2 		sub	r3, r3, #1
 446              		.loc 1 239 0
 447 005c 011082E2 		add	r1, r2, #1
 448 0060 181084E5 		str	r1, [r4, #24]
 449              		.loc 1 238 0
 450 0064 083084E5 		str	r3, [r4, #8]
 451              		.loc 1 239 0
 452 0068 0030D2E5 		ldrb	r3, [r2]	@ zero_extendqisi2
 453 006c 0130C8E4 		strb	r3, [r8], #1
 454              	.LVL33:
 455              		.loc 1 240 0
 456 0070 103094E5 		ldr	r3, [r4, #16]
ARM GAS  /var/folders/3j/4xdnk5197cv_b7cw3n33qk7r0000gn/T//ccMhzYuE.s 			page 9


 457 0074 182094E5 		ldr	r2, [r4, #24]
 458 0078 030052E1 		cmp	r2, r3
 459              		.loc 1 241 0
 460 007c 0C309425 		ldrcs	r3, [r4, #12]
 461 0080 18308425 		strcs	r3, [r4, #24]
 462              		.loc 1 243 0
 463              		.syntax divided
 464              	@ 243 "..//os/kernel/src/chqueues.c" 1
 465 0084 1FF021E3 		msr     CPSR_c, #0x1F
 466              	@ 0 "" 2
 467              		.loc 1 244 0
 468              		.arm
 469              		.syntax unified
 470 0088 016086E2 		add	r6, r6, #1
 471              	.LVL34:
 472              		.loc 1 245 0
 473 008c 060059E1 		cmp	r9, r6
 474 0090 0200000A 		beq	.L38
 475              		.loc 1 248 0
 476              		.syntax divided
 477              	@ 248 "..//os/kernel/src/chqueues.c" 1
 478 0094 9FF021E3 		msr     CPSR_c, #0x9F
 479              	@ 0 "" 2
 480              		.loc 1 228 0
 481              		.arm
 482              		.syntax unified
 483 0098 E0FFFFEA 		b	.L44
 484              	.LVL35:
 485              	.L51:
 486              		.loc 1 233 0
 487              		.syntax divided
 488              	@ 233 "..//os/kernel/src/chqueues.c" 1
 489 009c 1FF021E3 		msr     CPSR_c, #0x1F
 490              	@ 0 "" 2
 491              	.LVL36:
 492              		.arm
 493              		.syntax unified
 494              	.L38:
 495              		.loc 1 250 0
 496 00a0 0600A0E1 		mov	r0, r6
 497 00a4 F087BDE8 		pop	{r4, r5, r6, r7, r8, r9, r10, pc}
 498              		.cfi_endproc
 499              	.LFE12:
 500              		.size	chIQReadTimeout, .-chIQReadTimeout
 501              		.section	.text.chOQInit,"ax",%progbits
 502              		.align	2
 503              		.global	chOQInit
 504              		.syntax unified
 505              		.arm
 506              		.fpu softvfp
 507              		.type	chOQInit, %function
 508              	chOQInit:
 509              	.LFB13:
 510              		.loc 1 269 0
 511              		.cfi_startproc
 512              		@ args = 4, pretend = 0, frame = 0
 513              		@ frame_needed = 0, uses_anonymous_args = 0
ARM GAS  /var/folders/3j/4xdnk5197cv_b7cw3n33qk7r0000gn/T//ccMhzYuE.s 			page 10


 514              	.LVL37:
 515 0000 04E02DE5 		str	lr, [sp, #-4]!
 516              		.cfi_def_cfa_offset 4
 517              		.cfi_offset 14, -4
 518              		.loc 1 269 0
 519 0004 04C09DE5 		ldr	ip, [sp, #4]
 520              		.loc 1 274 0
 521 0008 02E081E0 		add	lr, r1, r2
 522              		.loc 1 271 0
 523 000c 040080E5 		str	r0, [r0, #4]
 524 0010 000080E5 		str	r0, [r0]
 525              		.loc 1 272 0
 526 0014 082080E5 		str	r2, [r0, #8]
 527              		.loc 1 274 0
 528 0018 10E080E5 		str	lr, [r0, #16]
 529              		.loc 1 273 0
 530 001c 141080E5 		str	r1, [r0, #20]
 531 0020 181080E5 		str	r1, [r0, #24]
 532 0024 0C1080E5 		str	r1, [r0, #12]
 533              		.loc 1 275 0
 534 0028 1C3080E5 		str	r3, [r0, #28]
 535              		.loc 1 276 0
 536 002c 20C080E5 		str	ip, [r0, #32]
 537              		.loc 1 277 0
 538 0030 04F09DE4 		ldr	pc, [sp], #4
 539              		.cfi_endproc
 540              	.LFE13:
 541              		.size	chOQInit, .-chOQInit
 542              		.section	.text.chOQResetI,"ax",%progbits
 543              		.align	2
 544              		.global	chOQResetI
 545              		.syntax unified
 546              		.arm
 547              		.fpu softvfp
 548              		.type	chOQResetI, %function
 549              	chOQResetI:
 550              	.LFB14:
 551              		.loc 1 290 0
 552              		.cfi_startproc
 553              		@ args = 0, pretend = 0, frame = 0
 554              		@ frame_needed = 0, uses_anonymous_args = 0
 555              	.LVL38:
 556              		.loc 1 294 0
 557 0000 0C1090E5 		ldr	r1, [r0, #12]
 558              		.loc 1 295 0
 559 0004 102090E5 		ldr	r2, [r0, #16]
 560              		.loc 1 296 0
 561 0008 003090E5 		ldr	r3, [r0]
 562              		.loc 1 295 0
 563 000c 012042E0 		sub	r2, r2, r1
 564              		.loc 1 296 0
 565 0010 030050E1 		cmp	r0, r3
 566              		.loc 1 294 0
 567 0014 141080E5 		str	r1, [r0, #20]
 568 0018 181080E5 		str	r1, [r0, #24]
 569              		.loc 1 295 0
 570 001c 082080E5 		str	r2, [r0, #8]
ARM GAS  /var/folders/3j/4xdnk5197cv_b7cw3n33qk7r0000gn/T//ccMhzYuE.s 			page 11


 571              		.loc 1 296 0
 572 0020 1EFF2F01 		bxeq	lr
 573              		.loc 1 290 0
 574 0024 70402DE9 		push	{r4, r5, r6, lr}
 575              		.cfi_def_cfa_offset 16
 576              		.cfi_offset 4, -16
 577              		.cfi_offset 5, -12
 578              		.cfi_offset 6, -8
 579              		.cfi_offset 14, -4
 580 0028 0040A0E1 		mov	r4, r0
 581              		.loc 1 297 0
 582 002c 0150E0E3 		mvn	r5, #1
 583              	.LVL39:
 584              	.L56:
 585              	.LBB25:
 586              	.LBB26:
 587              		.loc 2 55 0
 588 0030 002093E5 		ldr	r2, [r3]
 589              	.LBE26:
 590              	.LBE25:
 591              		.loc 1 297 0
 592 0034 0300A0E1 		mov	r0, r3
 593              	.LBB28:
 594              	.LBB27:
 595              		.loc 2 55 0
 596 0038 002084E5 		str	r2, [r4]
 597 003c 044082E5 		str	r4, [r2, #4]
 598              	.LVL40:
 599              	.LBE27:
 600              	.LBE28:
 601              		.loc 1 297 0
 602 0040 FEFFFFEB 		bl	chSchReadyI
 603              	.LVL41:
 604              		.loc 1 296 0
 605 0044 003094E5 		ldr	r3, [r4]
 606              		.loc 1 297 0
 607 0048 245080E5 		str	r5, [r0, #36]
 608              		.loc 1 296 0
 609 004c 040053E1 		cmp	r3, r4
 610 0050 F6FFFF1A 		bne	.L56
 611 0054 7080BDE8 		pop	{r4, r5, r6, pc}
 612              		.cfi_endproc
 613              	.LFE14:
 614              		.size	chOQResetI, .-chOQResetI
 615              		.section	.text.chOQPutTimeout,"ax",%progbits
 616              		.align	2
 617              		.global	chOQPutTimeout
 618              		.syntax unified
 619              		.arm
 620              		.fpu softvfp
 621              		.type	chOQPutTimeout, %function
 622              	chOQPutTimeout:
 623              	.LFB15:
 624              		.loc 1 322 0
 625              		.cfi_startproc
 626              		@ args = 0, pretend = 0, frame = 0
 627              		@ frame_needed = 0, uses_anonymous_args = 0
ARM GAS  /var/folders/3j/4xdnk5197cv_b7cw3n33qk7r0000gn/T//ccMhzYuE.s 			page 12


 628              	.LVL42:
 629 0000 70402DE9 		push	{r4, r5, r6, lr}
 630              		.cfi_def_cfa_offset 16
 631              		.cfi_offset 4, -16
 632              		.cfi_offset 5, -12
 633              		.cfi_offset 6, -8
 634              		.cfi_offset 14, -4
 635              		.loc 1 322 0
 636 0004 0040A0E1 		mov	r4, r0
 637 0008 0160A0E1 		mov	r6, r1
 638 000c 0250A0E1 		mov	r5, r2
 639              		.loc 1 324 0
 640              		.syntax divided
 641              	@ 324 "..//os/kernel/src/chqueues.c" 1
 642 0010 9FF021E3 		msr     CPSR_c, #0x9F
 643              	@ 0 "" 2
 644              		.loc 1 325 0
 645              		.arm
 646              		.syntax unified
 647 0014 040000EA 		b	.L63
 648              	.LVL43:
 649              	.L65:
 650              	.LBB29:
 651              		.loc 1 328 0
 652 0018 0510A0E1 		mov	r1, r5
 653 001c 0400A0E1 		mov	r0, r4
 654 0020 FEFFFFEB 		bl	qwait
 655              	.LVL44:
 656 0024 000050E3 		cmp	r0, #0
 657 0028 150000BA 		blt	.L73
 658              	.LVL45:
 659              	.L63:
 660              	.LBE29:
 661              		.loc 1 325 0
 662 002c 083094E5 		ldr	r3, [r4, #8]
 663 0030 000053E3 		cmp	r3, #0
 664 0034 F7FFFF0A 		beq	.L65
 665              		.loc 1 335 0
 666 0038 142094E5 		ldr	r2, [r4, #20]
 667              		.loc 1 334 0
 668 003c 013043E2 		sub	r3, r3, #1
 669              		.loc 1 335 0
 670 0040 011082E2 		add	r1, r2, #1
 671 0044 141084E5 		str	r1, [r4, #20]
 672              		.loc 1 334 0
 673 0048 083084E5 		str	r3, [r4, #8]
 674              		.loc 1 335 0
 675 004c 0060C2E5 		strb	r6, [r2]
 676              		.loc 1 336 0
 677 0050 103094E5 		ldr	r3, [r4, #16]
 678 0054 142094E5 		ldr	r2, [r4, #20]
 679 0058 030052E1 		cmp	r2, r3
 680              		.loc 1 337 0
 681 005c 0C309425 		ldrcs	r3, [r4, #12]
 682 0060 14308425 		strcs	r3, [r4, #20]
 683              		.loc 1 339 0
 684 0064 1C3094E5 		ldr	r3, [r4, #28]
ARM GAS  /var/folders/3j/4xdnk5197cv_b7cw3n33qk7r0000gn/T//ccMhzYuE.s 			page 13


 685 0068 000053E3 		cmp	r3, #0
 686 006c 0100000A 		beq	.L67
 687              		.loc 1 340 0
 688 0070 0400A0E1 		mov	r0, r4
 689 0074 33FF2FE1 		blx	r3
 690              	.LVL46:
 691              	.L67:
 692              		.loc 1 342 0
 693              		.syntax divided
 694              	@ 342 "..//os/kernel/src/chqueues.c" 1
 695 0078 1FF021E3 		msr     CPSR_c, #0x1F
 696              	@ 0 "" 2
 697              		.loc 1 343 0
 698              		.arm
 699              		.syntax unified
 700 007c 0000A0E3 		mov	r0, #0
 701              		.loc 1 344 0
 702 0080 7080BDE8 		pop	{r4, r5, r6, pc}
 703              	.LVL47:
 704              	.L73:
 705              	.LBB30:
 706              		.loc 1 329 0
 707              		.syntax divided
 708              	@ 329 "..//os/kernel/src/chqueues.c" 1
 709 0084 1FF021E3 		msr     CPSR_c, #0x1F
 710              	@ 0 "" 2
 711              		.loc 1 330 0
 712              		.arm
 713              		.syntax unified
 714 0088 7080BDE8 		pop	{r4, r5, r6, pc}
 715              	.LBE30:
 716              		.cfi_endproc
 717              	.LFE15:
 718              		.size	chOQPutTimeout, .-chOQPutTimeout
 719              		.section	.text.chOQGetI,"ax",%progbits
 720              		.align	2
 721              		.global	chOQGetI
 722              		.syntax unified
 723              		.arm
 724              		.fpu softvfp
 725              		.type	chOQGetI, %function
 726              	chOQGetI:
 727              	.LFB16:
 728              		.loc 1 356 0
 729              		.cfi_startproc
 730              		@ args = 0, pretend = 0, frame = 0
 731              		@ frame_needed = 0, uses_anonymous_args = 0
 732              	.LVL48:
 733              		.loc 1 361 0
 734 0000 182090E5 		ldr	r2, [r0, #24]
 735 0004 141090E5 		ldr	r1, [r0, #20]
 736 0008 083090E5 		ldr	r3, [r0, #8]
 737 000c 020051E1 		cmp	r1, r2
 738 0010 1600000A 		beq	.L83
 739              	.L75:
 740              		.loc 1 356 0
 741 0014 10402DE9 		push	{r4, lr}
ARM GAS  /var/folders/3j/4xdnk5197cv_b7cw3n33qk7r0000gn/T//ccMhzYuE.s 			page 14


 742              		.cfi_def_cfa_offset 8
 743              		.cfi_offset 4, -8
 744              		.cfi_offset 14, -4
 745              		.loc 1 366 0
 746 0018 10C090E5 		ldr	ip, [r0, #16]
 747              		.loc 1 364 0
 748 001c 013083E2 		add	r3, r3, #1
 749              		.loc 1 365 0
 750 0020 011082E2 		add	r1, r2, #1
 751              		.loc 1 366 0
 752 0024 0C0051E1 		cmp	r1, ip
 753              		.loc 1 364 0
 754 0028 083080E5 		str	r3, [r0, #8]
 755              		.loc 1 365 0
 756 002c 181080E5 		str	r1, [r0, #24]
 757 0030 0040D2E5 		ldrb	r4, [r2]	@ zero_extendqisi2
 758              	.LVL49:
 759              		.loc 1 367 0
 760 0034 0C309025 		ldrcs	r3, [r0, #12]
 761              		.loc 1 369 0
 762 0038 002090E5 		ldr	r2, [r0]
 763              		.loc 1 367 0
 764 003c 18308025 		strcs	r3, [r0, #24]
 765              		.loc 1 369 0
 766 0040 000052E1 		cmp	r2, r0
 767 0044 0700000A 		beq	.L78
 768 0048 0030A0E1 		mov	r3, r0
 769              	.LVL50:
 770              	.LBB31:
 771              	.LBB32:
 772              		.loc 2 55 0
 773 004c 001092E5 		ldr	r1, [r2]
 774              	.LBE32:
 775              	.LBE31:
 776              		.loc 1 370 0
 777 0050 0200A0E1 		mov	r0, r2
 778              	.LVL51:
 779              	.LBB34:
 780              	.LBB33:
 781              		.loc 2 55 0
 782 0054 001083E5 		str	r1, [r3]
 783 0058 043081E5 		str	r3, [r1, #4]
 784              	.LVL52:
 785              	.LBE33:
 786              	.LBE34:
 787              		.loc 1 370 0
 788 005c FEFFFFEB 		bl	chSchReadyI
 789              	.LVL53:
 790 0060 0030A0E3 		mov	r3, #0
 791 0064 243080E5 		str	r3, [r0, #36]
 792              	.L78:
 793              		.loc 1 372 0
 794 0068 0400A0E1 		mov	r0, r4
 795              		.loc 1 373 0
 796 006c 1080BDE8 		pop	{r4, pc}
 797              	.LVL54:
 798              	.L83:
ARM GAS  /var/folders/3j/4xdnk5197cv_b7cw3n33qk7r0000gn/T//ccMhzYuE.s 			page 15


 799              		.cfi_def_cfa_offset 0
 800              		.cfi_restore 4
 801              		.cfi_restore 14
 802              		.loc 1 361 0 discriminator 1
 803 0070 000053E3 		cmp	r3, #0
 804 0074 E6FFFF0A 		beq	.L75
 805              		.loc 1 362 0
 806 0078 0200E0E3 		mvn	r0, #2
 807              	.LVL55:
 808              		.loc 1 373 0
 809 007c 1EFF2FE1 		bx	lr
 810              		.cfi_endproc
 811              	.LFE16:
 812              		.size	chOQGetI, .-chOQGetI
 813              		.section	.text.chOQWriteTimeout,"ax",%progbits
 814              		.align	2
 815              		.global	chOQWriteTimeout
 816              		.syntax unified
 817              		.arm
 818              		.fpu softvfp
 819              		.type	chOQWriteTimeout, %function
 820              	chOQWriteTimeout:
 821              	.LFB17:
 822              		.loc 1 400 0
 823              		.cfi_startproc
 824              		@ args = 0, pretend = 0, frame = 0
 825              		@ frame_needed = 0, uses_anonymous_args = 0
 826              	.LVL56:
 827 0000 F0472DE9 		push	{r4, r5, r6, r7, r8, r9, r10, lr}
 828              		.cfi_def_cfa_offset 32
 829              		.cfi_offset 4, -32
 830              		.cfi_offset 5, -28
 831              		.cfi_offset 6, -24
 832              		.cfi_offset 7, -20
 833              		.cfi_offset 8, -16
 834              		.cfi_offset 9, -12
 835              		.cfi_offset 10, -8
 836              		.cfi_offset 14, -4
 837              		.loc 1 400 0
 838 0004 0040A0E1 		mov	r4, r0
 839 0008 0150A0E1 		mov	r5, r1
 840 000c 0260A0E1 		mov	r6, r2
 841 0010 0390A0E1 		mov	r9, r3
 842              		.loc 1 401 0
 843 0014 1C8090E5 		ldr	r8, [r0, #28]
 844              	.LVL57:
 845              		.loc 1 406 0
 846              		.syntax divided
 847              	@ 406 "..//os/kernel/src/chqueues.c" 1
 848 0018 9FF021E3 		msr     CPSR_c, #0x9F
 849              	@ 0 "" 2
 850              		.loc 1 402 0
 851              		.arm
 852              		.syntax unified
 853 001c 0070A0E3 		mov	r7, #0
 854              	.LVL58:
 855              	.L85:
ARM GAS  /var/folders/3j/4xdnk5197cv_b7cw3n33qk7r0000gn/T//ccMhzYuE.s 			page 16


 856              		.loc 1 408 0
 857 0020 083094E5 		ldr	r3, [r4, #8]
 858              		.loc 1 415 0
 859 0024 01A085E2 		add	r10, r5, #1
 860              	.LVL59:
 861              		.loc 1 408 0
 862 0028 000053E3 		cmp	r3, #0
 863              		.loc 1 414 0
 864 002c 012043E2 		sub	r2, r3, #1
 865              		.loc 1 408 0
 866 0030 1500000A 		beq	.L88
 867              		.loc 1 415 0
 868 0034 143094E5 		ldr	r3, [r4, #20]
 869              		.loc 1 414 0
 870 0038 082084E5 		str	r2, [r4, #8]
 871              		.loc 1 415 0
 872 003c 012083E2 		add	r2, r3, #1
 873 0040 142084E5 		str	r2, [r4, #20]
 874 0044 0020D5E5 		ldrb	r2, [r5]	@ zero_extendqisi2
 875 0048 0020C3E5 		strb	r2, [r3]
 876              		.loc 1 416 0
 877 004c 103094E5 		ldr	r3, [r4, #16]
 878 0050 142094E5 		ldr	r2, [r4, #20]
 879 0054 030052E1 		cmp	r2, r3
 880              		.loc 1 417 0
 881 0058 0C309425 		ldrcs	r3, [r4, #12]
 882 005c 14308425 		strcs	r3, [r4, #20]
 883              		.loc 1 419 0
 884 0060 000058E3 		cmp	r8, #0
 885 0064 0100000A 		beq	.L90
 886              		.loc 1 420 0
 887 0068 0400A0E1 		mov	r0, r4
 888 006c 38FF2FE1 		blx	r8
 889              	.LVL60:
 890              	.L90:
 891              		.loc 1 422 0
 892              		.syntax divided
 893              	@ 422 "..//os/kernel/src/chqueues.c" 1
 894 0070 1FF021E3 		msr     CPSR_c, #0x1F
 895              	@ 0 "" 2
 896              		.loc 1 424 0
 897              		.arm
 898              		.syntax unified
 899 0074 016056E2 		subs	r6, r6, #1
 900              	.LVL61:
 901              		.loc 1 423 0
 902 0078 017087E2 		add	r7, r7, #1
 903              	.LVL62:
 904              		.loc 1 424 0
 905 007c 0800000A 		beq	.L84
 906              		.loc 1 426 0
 907              		.syntax divided
 908              	@ 426 "..//os/kernel/src/chqueues.c" 1
 909 0080 9FF021E3 		msr     CPSR_c, #0x9F
 910              	@ 0 "" 2
 911              		.loc 1 415 0
 912              		.arm
ARM GAS  /var/folders/3j/4xdnk5197cv_b7cw3n33qk7r0000gn/T//ccMhzYuE.s 			page 17


 913              		.syntax unified
 914 0084 0A50A0E1 		mov	r5, r10
 915              		.loc 1 408 0
 916 0088 E4FFFFEA 		b	.L85
 917              	.LVL63:
 918              	.L88:
 919              		.loc 1 409 0
 920 008c 0910A0E1 		mov	r1, r9
 921 0090 0400A0E1 		mov	r0, r4
 922 0094 FEFFFFEB 		bl	qwait
 923              	.LVL64:
 924 0098 000050E3 		cmp	r0, #0
 925 009c DFFFFF0A 		beq	.L85
 926              		.loc 1 410 0
 927              		.syntax divided
 928              	@ 410 "..//os/kernel/src/chqueues.c" 1
 929 00a0 1FF021E3 		msr     CPSR_c, #0x1F
 930              	@ 0 "" 2
 931              	.LVL65:
 932              		.arm
 933              		.syntax unified
 934              	.L84:
 935              		.loc 1 428 0
 936 00a4 0700A0E1 		mov	r0, r7
 937 00a8 F087BDE8 		pop	{r4, r5, r6, r7, r8, r9, r10, pc}
 938              		.cfi_endproc
 939              	.LFE17:
 940              		.size	chOQWriteTimeout, .-chOQWriteTimeout
 941              		.text
 942              	.Letext0:
 943              		.file 3 "/usr/local/Cellar/gcc-arm-none-eabi/20180627/lib/gcc/arm-none-eabi/7.3.1/include/stddef.h
 944              		.file 4 "/usr/local/Cellar/gcc-arm-none-eabi/20180627/arm-none-eabi/include/machine/_default_types
 945              		.file 5 "/usr/local/Cellar/gcc-arm-none-eabi/20180627/arm-none-eabi/include/sys/_stdint.h"
 946              		.file 6 "..//os/ports/GCC/ARM/chtypes.h"
 947              		.file 7 "..//os/kernel/include/chlists.h"
 948              		.file 8 "..//os/kernel/include/chthreads.h"
 949              		.file 9 "..//os/ports/GCC/ARM/chcore.h"
 950              		.file 10 "..//os/kernel/include/chvt.h"
 951              		.file 11 "..//os/kernel/include/chschd.h"
 952              		.file 12 "..//os/kernel/include/chmtx.h"
 953              		.file 13 "..//os/kernel/include/chregistry.h"
 954              		.file 14 "..//os/kernel/include/chqueues.h"
 955              		.file 15 "..//os/kernel/include/ch.h"