ARM GAS  /var/folders/3j/4xdnk5197cv_b7cw3n33qk7r0000gn/T//ccMhzYuE.s 			page 1


   1              		.cpu arm1176jz-s
   2              		.eabi_attribute 20, 1
   3              		.eabi_attribute 21, 1
   4              		.eabi_attribute 23, 3
   5              		.eabi_attribute 24, 1
   6              		.eabi_attribute 25, 1
   7              		.eabi_attribute 26, 1
   8              		.eabi_attribute 30, 2
   9              		.eabi_attribute 34, 1
  10              		.eabi_attribute 18, 4
  11              		.file	"chqueues.c"
  12              		.text
  13              	.Ltext0:
  14              		.cfi_sections	.debug_frame
  15              		.section	.text.qwait,"ax",%progbits
  16              		.align	2
  17              		.syntax unified
  18              		.arm
  19              		.fpu softvfp
  20              		.type	qwait, %function
  21              	qwait:
  22              	.LFB7:
  23              		.file 1 "..//os/kernel/src/chqueues.c"
  24              		.loc 1 63 0
  25              		.cfi_startproc
  26              		@ args = 0, pretend = 0, frame = 0
  27              		@ frame_needed = 0, uses_anonymous_args = 0
  28              		@ link register save eliminated.
  29              	.LVL0:
  30              		.loc 1 65 0
  31 0000 000051E3 		cmp	r1, #0
  32              		.loc 1 63 0
  33 0004 0020A0E1 		mov	r2, r0
  34              		.loc 1 65 0
  35 0008 0800000A 		beq	.L2
  36              		.loc 1 67 0
  37 000c 24309FE5 		ldr	r3, .L4
  38              	.LBB12:
  39              	.LBB13:
  40              		.file 2 "..//os/kernel/include/chinline.h"
  41              		.loc 2 48 0
  42 0010 04C090E5 		ldr	ip, [r0, #4]
  43              	.LBE13:
  44              	.LBE12:
  45              		.loc 1 67 0
  46 0014 183093E5 		ldr	r3, [r3, #24]
  47              		.loc 1 69 0
  48 0018 0D00A0E3 		mov	r0, #13
  49              	.LVL1:
  50              		.loc 1 67 0
  51 001c 242083E5 		str	r2, [r3, #36]
  52              	.LVL2:
  53              	.LBB15:
  54              	.LBB14:
  55              		.loc 2 48 0
  56 0020 041083E8 		stm	r3, {r2, ip}
  57              		.loc 2 49 0
ARM GAS  /var/folders/3j/4xdnk5197cv_b7cw3n33qk7r0000gn/T//ccMhzYuE.s 			page 2


  58 0024 043082E5 		str	r3, [r2, #4]
  59 0028 00308CE5 		str	r3, [ip]
  60              	.LVL3:
  61              	.LBE14:
  62              	.LBE15:
  63              		.loc 1 69 0
  64 002c FEFFFFEA 		b	chSchGoSleepTimeoutS
  65              	.LVL4:
  66              	.L2:
  67              		.loc 1 70 0
  68 0030 0000E0E3 		mvn	r0, #0
  69              	.LVL5:
  70 0034 1EFF2FE1 		bx	lr
  71              	.L5:
  72              		.align	2
  73              	.L4:
  74 0038 00000000 		.word	rlist
  75              		.cfi_endproc
  76              	.LFE7:
  77              		.size	qwait, .-qwait
  78              		.section	.text.chIQInit,"ax",%progbits
  79              		.align	2
  80              		.global	chIQInit
  81              		.syntax unified
  82              		.arm
  83              		.fpu softvfp
  84              		.type	chIQInit, %function
  85              	chIQInit:
  86              	.LFB8:
  87              		.loc 1 89 0
  88              		.cfi_startproc
  89              		@ args = 4, pretend = 0, frame = 0
  90              		@ frame_needed = 0, uses_anonymous_args = 0
  91              	.LVL6:
  92 0000 04E02DE5 		str	lr, [sp, #-4]!
  93              		.cfi_def_cfa_offset 4
  94              		.cfi_offset 14, -4
  95              		.loc 1 92 0
  96 0004 00E0A0E3 		mov	lr, #0
  97              		.loc 1 89 0
  98 0008 04C09DE5 		ldr	ip, [sp, #4]
  99              		.loc 1 94 0
 100 000c 022081E0 		add	r2, r1, r2
 101              	.LVL7:
 102 0010 102080E5 		str	r2, [r0, #16]
 103              		.loc 1 91 0
 104 0014 040080E5 		str	r0, [r0, #4]
 105 0018 000080E5 		str	r0, [r0]
 106              		.loc 1 93 0
 107 001c 141080E5 		str	r1, [r0, #20]
 108 0020 181080E5 		str	r1, [r0, #24]
 109 0024 0C1080E5 		str	r1, [r0, #12]
 110              		.loc 1 95 0
 111 0028 1C3080E5 		str	r3, [r0, #28]
 112              		.loc 1 92 0
 113 002c 08E080E5 		str	lr, [r0, #8]
 114              		.loc 1 96 0
ARM GAS  /var/folders/3j/4xdnk5197cv_b7cw3n33qk7r0000gn/T//ccMhzYuE.s 			page 3


 115 0030 20C080E5 		str	ip, [r0, #32]
 116              		.loc 1 97 0
 117 0034 04F09DE4 		ldr	pc, [sp], #4
 118              		.cfi_endproc
 119              	.LFE8:
 120              		.size	chIQInit, .-chIQInit
 121              		.section	.text.chIQResetI,"ax",%progbits
 122              		.align	2
 123              		.global	chIQResetI
 124              		.syntax unified
 125              		.arm
 126              		.fpu softvfp
 127              		.type	chIQResetI, %function
 128              	chIQResetI:
 129              	.LFB9:
 130              		.loc 1 110 0
 131              		.cfi_startproc
 132              		@ args = 0, pretend = 0, frame = 0
 133              		@ frame_needed = 0, uses_anonymous_args = 0
 134              	.LVL8:
 135              		.loc 1 115 0
 136 0000 0010A0E3 		mov	r1, #0
 137              		.loc 1 116 0
 138 0004 003090E5 		ldr	r3, [r0]
 139              		.loc 1 114 0
 140 0008 0C2090E5 		ldr	r2, [r0, #12]
 141              		.loc 1 116 0
 142 000c 030050E1 		cmp	r0, r3
 143              		.loc 1 115 0
 144 0010 081080E5 		str	r1, [r0, #8]
 145              		.loc 1 114 0
 146 0014 142080E5 		str	r2, [r0, #20]
 147 0018 182080E5 		str	r2, [r0, #24]
 148              		.loc 1 116 0
 149 001c 1EFF2F01 		bxeq	lr
 150              		.loc 1 110 0
 151 0020 70402DE9 		push	{r4, r5, r6, lr}
 152              		.cfi_def_cfa_offset 16
 153              		.cfi_offset 4, -16
 154              		.cfi_offset 5, -12
 155              		.cfi_offset 6, -8
 156              		.cfi_offset 14, -4
 157 0024 0040A0E1 		mov	r4, r0
 158              		.loc 1 117 0
 159 0028 0150E0E3 		mvn	r5, #1
 160              	.LVL9:
 161              	.L10:
 162              	.LBB16:
 163              	.LBB17:
 164              		.loc 2 55 0
 165 002c 002093E5 		ldr	r2, [r3]
 166              	.LBE17:
 167              	.LBE16:
 168              		.loc 1 117 0
 169 0030 0300A0E1 		mov	r0, r3
 170              	.LBB19:
 171              	.LBB18:
ARM GAS  /var/folders/3j/4xdnk5197cv_b7cw3n33qk7r0000gn/T//ccMhzYuE.s 			page 4


 172              		.loc 2 55 0
 173 0034 002084E5 		str	r2, [r4]
 174 0038 044082E5 		str	r4, [r2, #4]
 175              	.LVL10:
 176              	.LBE18:
 177              	.LBE19:
 178              		.loc 1 117 0
 179 003c FEFFFFEB 		bl	chSchReadyI
 180              	.LVL11:
 181              		.loc 1 116 0
 182 0040 003094E5 		ldr	r3, [r4]
 183              		.loc 1 117 0
 184 0044 245080E5 		str	r5, [r0, #36]
 185              		.loc 1 116 0
 186 0048 040053E1 		cmp	r3, r4
 187 004c F6FFFF1A 		bne	.L10
 188 0050 7080BDE8 		pop	{r4, r5, r6, pc}
 189              		.cfi_endproc
 190              	.LFE9:
 191              		.size	chIQResetI, .-chIQResetI
 192              		.section	.text.chIQPutI,"ax",%progbits
 193              		.align	2
 194              		.global	chIQPutI
 195              		.syntax unified
 196              		.arm
 197              		.fpu softvfp
 198              		.type	chIQPutI, %function
 199              	chIQPutI:
 200              	.LFB10:
 201              		.loc 1 133 0
 202              		.cfi_startproc
 203              		@ args = 0, pretend = 0, frame = 0
 204              		@ frame_needed = 0, uses_anonymous_args = 0
 205              	.LVL12:
 206              		.loc 1 137 0
 207 0000 D421C0E1 		ldrd	r2, [r0, #20]
 208 0004 030052E1 		cmp	r2, r3
 209 0008 083090E5 		ldr	r3, [r0, #8]
 210 000c 1900000A 		beq	.L26
 211              	.L17:
 212              		.loc 1 140 0
 213 0010 013083E2 		add	r3, r3, #1
 214              		.loc 1 141 0
 215 0014 01C082E2 		add	ip, r2, #1
 216 0018 14C080E5 		str	ip, [r0, #20]
 217              		.loc 1 140 0
 218 001c 083080E5 		str	r3, [r0, #8]
 219              		.loc 1 141 0
 220 0020 0010C2E5 		strb	r1, [r2]
 221              		.loc 1 142 0
 222 0024 142090E5 		ldr	r2, [r0, #20]
 223 0028 103090E5 		ldr	r3, [r0, #16]
 224 002c 030052E1 		cmp	r2, r3
 225              		.loc 1 143 0
 226 0030 0C309025 		ldrcs	r3, [r0, #12]
 227              		.loc 1 145 0
 228 0034 002090E5 		ldr	r2, [r0]
ARM GAS  /var/folders/3j/4xdnk5197cv_b7cw3n33qk7r0000gn/T//ccMhzYuE.s 			page 5


 229              		.loc 1 143 0
 230 0038 14308025 		strcs	r3, [r0, #20]
 231              		.loc 1 145 0
 232 003c 000052E1 		cmp	r2, r0
 233 0040 0A00000A 		beq	.L21
 234 0044 0030A0E1 		mov	r3, r0
 235              	.LVL13:
 236              	.LBB20:
 237              	.LBB21:
 238              		.loc 2 55 0
 239 0048 001092E5 		ldr	r1, [r2]
 240              	.LVL14:
 241              	.LBE21:
 242              	.LBE20:
 243              		.loc 1 133 0
 244 004c 10402DE9 		push	{r4, lr}
 245              		.cfi_def_cfa_offset 8
 246              		.cfi_offset 4, -8
 247              		.cfi_offset 14, -4
 248              		.loc 1 146 0
 249 0050 0200A0E1 		mov	r0, r2
 250              	.LVL15:
 251              	.LBB23:
 252              	.LBB22:
 253              		.loc 2 55 0
 254 0054 001083E5 		str	r1, [r3]
 255 0058 043081E5 		str	r3, [r1, #4]
 256              	.LVL16:
 257              	.LBE22:
 258              	.LBE23:
 259              		.loc 1 146 0
 260 005c FEFFFFEB 		bl	chSchReadyI
 261              	.LVL17:
 262 0060 0030A0E3 		mov	r3, #0
 263 0064 243080E5 		str	r3, [r0, #36]
 264              		.loc 1 148 0
 265 0068 0300A0E1 		mov	r0, r3
 266              		.loc 1 149 0
 267 006c 1080BDE8 		pop	{r4, pc}
 268              	.LVL18:
 269              	.L21:
 270              		.cfi_def_cfa_offset 0
 271              		.cfi_restore 4
 272              		.cfi_restore 14
 273              		.loc 1 148 0
 274 0070 0000A0E3 		mov	r0, #0
 275              	.LVL19:
 276              		.loc 1 149 0
 277 0074 1EFF2FE1 		bx	lr
 278              	.LVL20:
 279              	.L26:
 280              		.loc 1 137 0 discriminator 1
 281 0078 000053E3 		cmp	r3, #0
 282 007c E3FFFF0A 		beq	.L17
 283              		.loc 1 138 0
 284 0080 0300E0E3 		mvn	r0, #3
 285              	.LVL21:
ARM GAS  /var/folders/3j/4xdnk5197cv_b7cw3n33qk7r0000gn/T//ccMhzYuE.s 			page 6


 286 0084 1EFF2FE1 		bx	lr
 287              		.cfi_endproc
 288              	.LFE10:
 289              		.size	chIQPutI, .-chIQPutI
 290              		.section	.text.chIQGetTimeout,"ax",%progbits
 291              		.align	2
 292              		.global	chIQGetTimeout
 293              		.syntax unified
 294              		.arm
 295              		.fpu softvfp
 296              		.type	chIQGetTimeout, %function
 297              	chIQGetTimeout:
 298              	.LFB11:
 299              		.loc 1 171 0
 300              		.cfi_startproc
 301              		@ args = 0, pretend = 0, frame = 0
 302              		@ frame_needed = 0, uses_anonymous_args = 0
 303              	.LVL22:
 304 0000 70402DE9 		push	{r4, r5, r6, lr}
 305              		.cfi_def_cfa_offset 16
 306              		.cfi_offset 4, -16
 307              		.cfi_offset 5, -12
 308              		.cfi_offset 6, -8
 309              		.cfi_offset 14, -4
 310              		.loc 1 171 0
 311 0004 0150A0E1 		mov	r5, r1
 312 0008 0040A0E1 		mov	r4, r0
 313              		.loc 1 174 0
 314              		.syntax divided
 315              	@ 174 "..//os/kernel/src/chqueues.c" 1
 316 000c 9FF021E3 		msr     CPSR_c, #0x9F
 317              	@ 0 "" 2
 318              		.loc 1 175 0
 319              		.arm
 320              		.syntax unified
 321 0010 1C3090E5 		ldr	r3, [r0, #28]
 322 0014 000053E3 		cmp	r3, #0
 323 0018 0600000A 		beq	.L29
 324              		.loc 1 176 0
 325 001c 33FF2FE1 		blx	r3
 326              	.LVL23:
 327 0020 040000EA 		b	.L29
 328              	.L31:
 329              	.LBB24:
 330              		.loc 1 180 0
 331 0024 0510A0E1 		mov	r1, r5
 332 0028 0400A0E1 		mov	r0, r4
 333 002c FEFFFFEB 		bl	qwait
 334              	.LVL24:
 335 0030 000050E3 		cmp	r0, #0
 336 0034 0C0000BA 		blt	.L32
 337              	.LVL25:
 338              	.L29:
 339              	.LBE24:
 340              		.loc 1 178 0
 341 0038 083094E5 		ldr	r3, [r4, #8]
 342 003c 000053E3 		cmp	r3, #0
ARM GAS  /var/folders/3j/4xdnk5197cv_b7cw3n33qk7r0000gn/T//ccMhzYuE.s 			page 7


 343 0040 F7FFFF0A 		beq	.L31
 344              		.loc 1 187 0
 345 0044 182094E5 		ldr	r2, [r4, #24]
 346              		.loc 1 188 0
 347 0048 100094E5 		ldr	r0, [r4, #16]
 348              		.loc 1 187 0
 349 004c 011082E2 		add	r1, r2, #1
 350              		.loc 1 186 0
 351 0050 013043E2 		sub	r3, r3, #1
 352              		.loc 1 188 0
 353 0054 000051E1 		cmp	r1, r0
 354              		.loc 1 186 0
 355 0058 083084E5 		str	r3, [r4, #8]
 356              		.loc 1 189 0
 357 005c 0C309425 		ldrcs	r3, [r4, #12]
 358              		.loc 1 187 0
 359 0060 181084E5 		str	r1, [r4, #24]
 360 0064 0000D2E5 		ldrb	r0, [r2]	@ zero_extendqisi2
 361              	.LVL26:
 362              		.loc 1 189 0
 363 0068 18308425 		strcs	r3, [r4, #24]
 364              	.LVL27:
 365              	.L32:
 366              		.loc 1 191 0
 367              		.syntax divided
 368              	@ 191 "..//os/kernel/src/chqueues.c" 1
 369 006c 1FF021E3 		msr     CPSR_c, #0x1F
 370              	@ 0 "" 2
 371              		.loc 1 193 0
 372              		.arm
 373              		.syntax unified
 374 0070 7080BDE8 		pop	{r4, r5, r6, pc}
 375              		.cfi_endproc
 376              	.LFE11:
 377              		.size	chIQGetTimeout, .-chIQGetTimeout
 378              		.section	.text.chIQReadTimeout,"ax",%progbits
 379              		.align	2
 380              		.global	chIQReadTimeout
 381              		.syntax unified
 382              		.arm
 383              		.fpu softvfp
 384              		.type	chIQReadTimeout, %function
 385              	chIQReadTimeout:
 386              	.LFB12:
 387              		.loc 1 220 0
 388              		.cfi_startproc
 389              		@ args = 0, pretend = 0, frame = 0
 390              		@ frame_needed = 0, uses_anonymous_args = 0
 391              	.LVL28:
 392 0000 F0472DE9 		push	{r4, r5, r6, r7, r8, r9, r10, lr}
 393              		.cfi_def_cfa_offset 32
 394              		.cfi_offset 4, -32
 395              		.cfi_offset 5, -28
 396              		.cfi_offset 6, -24
 397              		.cfi_offset 7, -20
 398              		.cfi_offset 8, -16
 399              		.cfi_offset 9, -12
ARM GAS  /var/folders/3j/4xdnk5197cv_b7cw3n33qk7r0000gn/T//ccMhzYuE.s 			page 8


 400              		.cfi_offset 10, -8
 401              		.cfi_offset 14, -4
 402              		.loc 1 220 0
 403 0004 0040A0E1 		mov	r4, r0
 404 0008 0180A0E1 		mov	r8, r1
 405 000c 0290A0E1 		mov	r9, r2
 406 0010 0350A0E1 		mov	r5, r3
 407              		.loc 1 221 0
 408 0014 1C7090E5 		ldr	r7, [r0, #28]
 409              	.LVL29:
 410              		.loc 1 226 0
 411              		.syntax divided
 412              	@ 226 "..//os/kernel/src/chqueues.c" 1
 413 0018 9FF021E3 		msr     CPSR_c, #0x9F
 414              	@ 0 "" 2
 415              		.loc 1 222 0
 416              		.arm
 417              		.syntax unified
 418 001c 0060A0E3 		mov	r6, #0
 419              	.LVL30:
 420              	.L44:
 421              		.loc 1 228 0
 422 0020 000057E3 		cmp	r7, #0
 423 0024 0700000A 		beq	.L40
 424              		.loc 1 229 0
 425 0028 0400A0E1 		mov	r0, r4
 426 002c 37FF2FE1 		blx	r7
 427              	.LVL31:
 428 0030 040000EA 		b	.L40
 429              	.L42:
 430              		.loc 1 232 0
 431 0034 0510A0E1 		mov	r1, r5
 432 0038 0400A0E1 		mov	r0, r4
 433 003c FEFFFFEB 		bl	qwait
 434              	.LVL32:
 435 0040 000050E3 		cmp	r0, #0
 436 0044 1400001A 		bne	.L51
 437              	.L40:
 438              		.loc 1 231 0
 439 0048 083094E5 		ldr	r3, [r4, #8]
 440 004c 000053E3 		cmp	r3, #0
 441 0050 F7FFFF0A 		beq	.L42
 442              		.loc 1 239 0
 443 0054 182094E5 		ldr	r2, [r4, #24]
 444              		.loc 1 238 0
 445 0058 013043E2 		sub	r3, r3, #1
 446              		.loc 1 239 0
 447 005c 011082E2 		add	r1, r2, #1
 448 0060 181084E5 		str	r1, [r4, #24]
 449              		.loc 1 238 0
 450 0064 083084E5 		str	r3, [r4, #8]
 451              		.loc 1 239 0
 452 0068 0030D2E5 		ldrb	r3, [r2]	@ zero_extendqisi2
 453 006c 0130C8E4 		strb	r3, [r8], #1
 454              	.LVL33:
 455              		.loc 1 240 0
 456 0070 103094E5 		ldr	r3, [r4, #16]
ARM GAS  /var/folders/3j/4xdnk5197cv_b7cw3n33qk7r0000gn/T//ccMhzYuE.s 			page 9


 457 0074 182094E5 		ldr	r2, [r4, #24]
 458 0078 030052E1 		cmp	r2, r3
 459              		.loc 1 241 0
 460 007c 0C309425 		ldrcs	r3, [r4, #12]
 461 0080 18308425 		strcs	r3, [r4, #24]
 462              		.loc 1 243 0
 463              		.syntax divided
 464              	@ 243 "..//os/kernel/src/chqueues.c" 1
 465 0084 1FF021E3 		msr     CPSR_c, #0x1F
 466              	@ 0 "" 2
 467              		.loc 1 244 0
 468              		.arm
 469              		.syntax unified
 470 0088 016086E2 		add	r6, r6, #1
 471              	.LVL34:
 472              		.loc 1 245 0
 473 008c 060059E1 		cmp	r9, r6
 474 0090 0200000A 		beq	.L38
 475              		.loc 1 248 0
 476              		.syntax divided
 477              	@ 248 "..//os/kernel/src/chqueues.c" 1
 478 0094 9FF021E3 		msr     CPSR_c, #0x9F
 479              	@ 0 "" 2
 480              		.loc 1 228 0
 481              		.arm
 482              		.syntax unified
 483 0098 E0FFFFEA 		b	.L44
 484              	.LVL35:
 485              	.L51:
 486              		.loc 1 233 0
 487              		.syntax divided
 488              	@ 233 "..//os/kernel/src/chqueues.c" 1
 489 009c 1FF021E3 		msr     CPSR_c, #0x1F
 490              	@ 0 "" 2
 491              	.LVL36:
 492              		.arm
 493              		.syntax unified
 494              	.L38:
 495              		.loc 1 250 0
 496 00a0 0600A0E1 		mov	r0, r6
 497 00a4 F087BDE8 		pop	{r4, r5, r6, r7, r8, r9, r10, pc}
 498              		.cfi_endproc
 499              	.LFE12:
 500              		.size	chIQReadTimeout, .-chIQReadTimeout
 501              		.section	.text.chOQInit,"ax",%progbits
 502              		.align	2
 503              		.global	chOQInit
 504              		.syntax unified
 505              		.arm
 506              		.fpu softvfp
 507              		.type	chOQInit, %function
 508              	chOQInit:
 509              	.LFB13:
 510              		.loc 1 269 0
 511              		.cfi_startproc
 512              		@ args = 4, pretend = 0, frame = 0
 513              		@ frame_needed = 0, uses_anonymous_args = 0
ARM GAS  /var/folders/3j/4xdnk5197cv_b7cw3n33qk7r0000gn/T//ccMhzYuE.s 			page 10


 514              	.LVL37:
 515 0000 04E02DE5 		str	lr, [sp, #-4]!
 516              		.cfi_def_cfa_offset 4
 517              		.cfi_offset 14, -4
 518              		.loc 1 269 0
 519 0004 04C09DE5 		ldr	ip, [sp, #4]
 520              		.loc 1 274 0
 521 0008 02E081E0 		add	lr, r1, r2
 522              		.loc 1 271 0
 523 000c 040080E5 		str	r0, [r0, #4]
 524 0010 000080E5 		str	r0, [r0]
 525              		.loc 1 272 0
 526 0014 082080E5 		str	r2, [r0, #8]
 527              		.loc 1 274 0
 528 0018 10E080E5 		str	lr, [r0, #16]
 529              		.loc 1 273 0
 530 001c 141080E5 		str	r1, [r0, #20]
 531 0020 181080E5 		str	r1, [r0, #24]
 532 0024 0C1080E5 		str	r1, [r0, #12]
 533              		.loc 1 275 0
 534 0028 1C3080E5 		str	r3, [r0, #28]
 535              		.loc 1 276 0
 536 002c 20C080E5 		str	ip, [r0, #32]
 537              		.loc 1 277 0
 538 0030 04F09DE4 		ldr	pc, [sp], #4
 539              		.cfi_endproc
 540              	.LFE13:
 541              		.size	chOQInit, .-chOQInit
 542              		.section	.text.chOQResetI,"ax",%progbits
 543              		.align	2
 544              		.global	chOQResetI
 545              		.syntax unified
 546              		.arm
 547              		.fpu softvfp
 548              		.type	chOQResetI, %function
 549              	chOQResetI:
 550              	.LFB14:
 551              		.loc 1 290 0
 552              		.cfi_startproc
 553              		@ args = 0, pretend = 0, frame = 0
 554              		@ frame_needed = 0, uses_anonymous_args = 0
 555              	.LVL38:
 556              		.loc 1 294 0
 557 0000 0C1090E5 		ldr	r1, [r0, #12]
 558              		.loc 1 295 0
 559 0004 102090E5 		ldr	r2, [r0, #16]
 560              		.loc 1 296 0
 561 0008 003090E5 		ldr	r3, [r0]
 562              		.loc 1 295 0
 563 000c 012042E0 		sub	r2, r2, r1
 564              		.loc 1 296 0
 565 0010 030050E1 		cmp	r0, r3
 566              		.loc 1 294 0
 567 0014 141080E5 		str	r1, [r0, #20]
 568 0018 181080E5 		str	r1, [r0, #24]
 569              		.loc 1 295 0
 570 001c 082080E5 		str	r2, [r0, #8]
ARM GAS  /var/folders/3j/4xdnk5197cv_b7cw3n33qk7r0000gn/T//ccMhzYuE.s 			page 11


 571              		.loc 1 296 0
 572 0020 1EFF2F01 		bxeq	lr
 573              		.loc 1 290 0
 574 0024 70402DE9 		push	{r4, r5, r6, lr}
 575              		.cfi_def_cfa_offset 16
 576              		.cfi_offset 4, -16
 577              		.cfi_offset 5, -12
 578              		.cfi_offset 6, -8
 579              		.cfi_offset 14, -4
 580 0028 0040A0E1 		mov	r4, r0
 581              		.loc 1 297 0
 582 002c 0150E0E3 		mvn	r5, #1
 583              	.LVL39:
 584              	.L56:
 585              	.LBB25:
 586              	.LBB26:
 587              		.loc 2 55 0
 588 0030 002093E5 		ldr	r2, [r3]
 589              	.LBE26:
 590              	.LBE25:
 591              		.loc 1 297 0
 592 0034 0300A0E1 		mov	r0, r3
 593              	.LBB28:
 594              	.LBB27:
 595              		.loc 2 55 0
 596 0038 002084E5 		str	r2, [r4]
 597 003c 044082E5 		str	r4, [r2, #4]
 598              	.LVL40:
 599              	.LBE27:
 600              	.LBE28:
 601              		.loc 1 297 0
 602 0040 FEFFFFEB 		bl	chSchReadyI
 603              	.LVL41:
 604              		.loc 1 296 0
 605 0044 003094E5 		ldr	r3, [r4]
 606              		.loc 1 297 0
 607 0048 245080E5 		str	r5, [r0, #36]
 608              		.loc 1 296 0
 609 004c 040053E1 		cmp	r3, r4
 610 0050 F6FFFF1A 		bne	.L56
 611 0054 7080BDE8 		pop	{r4, r5, r6, pc}
 612              		.cfi_endproc
 613              	.LFE14:
 614              		.size	chOQResetI, .-chOQResetI
 615              		.section	.text.chOQPutTimeout,"ax",%progbits
 616              		.align	2
 617              		.global	chOQPutTimeout
 618              		.syntax unified
 619              		.arm
 620              		.fpu softvfp
 621              		.type	chOQPutTimeout, %function
 622              	chOQPutTimeout:
 623              	.LFB15:
 624              		.loc 1 322 0
 625              		.cfi_startproc
 626              		@ args = 0, pretend = 0, frame = 0
 627              		@ frame_needed = 0, uses_anonymous_args = 0
ARM GAS  /var/folders/3j/4xdnk5197cv_b7cw3n33qk7r0000gn/T//ccMhzYuE.s 			page 12


 628              	.LVL42:
 629 0000 70402DE9 		push	{r4, r5, r6, lr}
 630              		.cfi_def_cfa_offset 16
 631              		.cfi_offset 4, -16
 632              		.cfi_offset 5, -12
 633              		.cfi_offset 6, -8
 634              		.cfi_offset 14, -4
 635              		.loc 1 322 0
 636 0004 0040A0E1 		mov	r4, r0
 637 0008 0160A0E1 		mov	r6, r1
 638 000c 0250A0E1 		mov	r5, r2
 639              		.loc 1 324 0
 640              		.syntax divided
 641              	@ 324 "..//os/kernel/src/chqueues.c" 1
 642 0010 9FF021E3 		msr     CPSR_c, #0x9F
 643              	@ 0 "" 2
 644              		.loc 1 325 0
 645              		.arm
 646              		.syntax unified
 647 0014 040000EA 		b	.L63
 648              	.LVL43:
 649              	.L65:
 650              	.LBB29:
 651              		.loc 1 328 0
 652 0018 0510A0E1 		mov	r1, r5
 653 001c 0400A0E1 		mov	r0, r4
 654 0020 FEFFFFEB 		bl	qwait
 655              	.LVL44:
 656 0024 000050E3 		cmp	r0, #0
 657 0028 150000BA 		blt	.L73
 658              	.LVL45:
 659              	.L63:
 660              	.LBE29:
 661              		.loc 1 325 0
 662 002c 083094E5 		ldr	r3, [r4, #8]
 663 0030 000053E3 		cmp	r3, #0
 664 0034 F7FFFF0A 		beq	.L65
 665              		.loc 1 335 0
 666 0038 142094E5 		ldr	r2, [r4, #20]
 667              		.loc 1 334 0
 668 003c 013043E2 		sub	r3, r3, #1
 669              		.loc 1 335 0
 670 0040 011082E2 		add	r1, r2, #1
 671 0044 141084E5 		str	r1, [r4, #20]
 672              		.loc 1 334 0
 673 0048 083084E5 		str	r3, [r4, #8]
 674              		.loc 1 335 0
 675 004c 0060C2E5 		strb	r6, [r2]
 676              		.loc 1 336 0
 677 0050 103094E5 		ldr	r3, [r4, #16]
 678 0054 142094E5 		ldr	r2, [r4, #20]
 679 0058 030052E1 		cmp	r2, r3
 680              		.loc 1 337 0
 681 005c 0C309425 		ldrcs	r3, [r4, #12]
 682 0060 14308425 		strcs	r3, [r4, #20]
 683              		.loc 1 339 0
 684 0064 1C3094E5 		ldr	r3, [r4, #28]
ARM GAS  /var/folders/3j/4xdnk5197cv_b7cw3n33qk7r0000gn/T//ccMhzYuE.s 			page 13


 685 0068 000053E3 		cmp	r3, #0
 686 006c 0100000A 		beq	.L67
 687              		.loc 1 340 0
 688 0070 0400A0E1 		mov	r0, r4
 689 0074 33FF2FE1 		blx	r3
 690              	.LVL46:
 691              	.L67:
 692              		.loc 1 342 0
 693              		.syntax divided
 694              	@ 342 "..//os/kernel/src/chqueues.c" 1
 695 0078 1FF021E3 		msr     CPSR_c, #0x1F
 696              	@ 0 "" 2
 697              		.loc 1 343 0
 698              		.arm
 699              		.syntax unified
 700 007c 0000A0E3 		mov	r0, #0
 701              		.loc 1 344 0
 702 0080 7080BDE8 		pop	{r4, r5, r6, pc}
 703              	.LVL47:
 704              	.L73:
 705              	.LBB30:
 706              		.loc 1 329 0
 707              		.syntax divided
 708              	@ 329 "..//os/kernel/src/chqueues.c" 1
 709 0084 1FF021E3 		msr     CPSR_c, #0x1F
 710              	@ 0 "" 2
 711              		.loc 1 330 0
 712              		.arm
 713              		.syntax unified
 714 0088 7080BDE8 		pop	{r4, r5, r6, pc}
 715              	.LBE30:
 716              		.cfi_endproc
 717              	.LFE15:
 718              		.size	chOQPutTimeout, .-chOQPutTimeout
 719              		.section	.text.chOQGetI,"ax",%progbits
 720              		.align	2
 721              		.global	chOQGetI
 722              		.syntax unified
 723              		.arm
 724              		.fpu softvfp
 725              		.type	chOQGetI, %function
 726              	chOQGetI:
 727              	.LFB16:
 728              		.loc 1 356 0
 729              		.cfi_startproc
 730              		@ args = 0, pretend = 0, frame = 0
 731              		@ frame_needed = 0, uses_anonymous_args = 0
 732              	.LVL48:
 733              		.loc 1 361 0
 734 0000 182090E5 		ldr	r2, [r0, #24]
 735 0004 141090E5 		ldr	r1, [r0, #20]
 736 0008 083090E5 		ldr	r3, [r0, #8]
 737 000c 020051E1 		cmp	r1, r2
 738 0010 1600000A 		beq	.L83
 739              	.L75:
 740              		.loc 1 356 0
 741 0014 10402DE9 		push	{r4, lr}
ARM GAS  /var/folders/3j/4xdnk5197cv_b7cw3n33qk7r0000gn/T//ccMhzYuE.s 			page 14


 742              		.cfi_def_cfa_offset 8
 743              		.cfi_offset 4, -8
 744              		.cfi_offset 14, -4
 745              		.loc 1 366 0
 746 0018 10C090E5 		ldr	ip, [r0, #16]
 747              		.loc 1 364 0
 748 001c 013083E2 		add	r3, r3, #1
 749              		.loc 1 365 0
 750 0020 011082E2 		add	r1, r2, #1
 751              		.loc 1 366 0
 752 0024 0C0051E1 		cmp	r1, ip
 753              		.loc 1 364 0
 754 0028 083080E5 		str	r3, [r0, #8]
 755              		.loc 1 365 0
 756 002c 181080E5 		str	r1, [r0, #24]
 757 0030 0040D2E5 		ldrb	r4, [r2]	@ zero_extendqisi2
 758              	.LVL49:
 759              		.loc 1 367 0
 760 0034 0C309025 		ldrcs	r3, [r0, #12]
 761              		.loc 1 369 0
 762 0038 002090E5 		ldr	r2, [r0]
 763              		.loc 1 367 0
 764 003c 18308025 		strcs	r3, [r0, #24]
 765              		.loc 1 369 0
 766 0040 000052E1 		cmp	r2, r0
 767 0044 0700000A 		beq	.L78
 768 0048 0030A0E1 		mov	r3, r0
 769              	.LVL50:
 770              	.LBB31:
 771              	.LBB32:
 772              		.loc 2 55 0
 773 004c 001092E5 		ldr	r1, [r2]
 774              	.LBE32:
 775              	.LBE31:
 776              		.loc 1 370 0
 777 0050 0200A0E1 		mov	r0, r2
 778              	.LVL51:
 779              	.LBB34:
 780              	.LBB33:
 781              		.loc 2 55 0
 782 0054 001083E5 		str	r1, [r3]
 783 0058 043081E5 		str	r3, [r1, #4]
 784              	.LVL52:
 785              	.LBE33:
 786              	.LBE34:
 787              		.loc 1 370 0
 788 005c FEFFFFEB 		bl	chSchReadyI
 789              	.LVL53:
 790 0060 0030A0E3 		mov	r3, #0
 791 0064 243080E5 		str	r3, [r0, #36]
 792              	.L78:
 793              		.loc 1 372 0
 794 0068 0400A0E1 		mov	r0, r4
 795              		.loc 1 373 0
 796 006c 1080BDE8 		pop	{r4, pc}
 797              	.LVL54:
 798              	.L83:
ARM GAS  /var/folders/3j/4xdnk5197cv_b7cw3n33qk7r0000gn/T//ccMhzYuE.s 			page 15


 799              		.cfi_def_cfa_offset 0
 800              		.cfi_restore 4
 801              		.cfi_restore 14
 802              		.loc 1 361 0 discriminator 1
 803 0070 000053E3 		cmp	r3, #0
 804 0074 E6FFFF0A 		beq	.L75
 805              		.loc 1 362 0
 806 0078 0200E0E3 		mvn	r0, #2
 807              	.LVL55:
 808              		.loc 1 373 0
 809 007c 1EFF2FE1 		bx	lr
 810              		.cfi_endproc
 811              	.LFE16:
 812              		.size	chOQGetI, .-chOQGetI
 813              		.section	.text.chOQWriteTimeout,"ax",%progbits
 814              		.align	2
 815              		.global	chOQWriteTimeout
 816              		.syntax unified
 817              		.arm
 818              		.fpu softvfp
 819              		.type	chOQWriteTimeout, %function
 820              	chOQWriteTimeout:
 821              	.LFB17:
 822              		.loc 1 400 0
 823              		.cfi_startproc
 824              		@ args = 0, pretend = 0, frame = 0
 825              		@ frame_needed = 0, uses_anonymous_args = 0
 826              	.LVL56:
 827 0000 F0472DE9 		push	{r4, r5, r6, r7, r8, r9, r10, lr}
 828              		.cfi_def_cfa_offset 32
 829              		.cfi_offset 4, -32
 830              		.cfi_offset 5, -28
 831              		.cfi_offset 6, -24
 832              		.cfi_offset 7, -20
 833              		.cfi_offset 8, -16
 834              		.cfi_offset 9, -12
 835              		.cfi_offset 10, -8
 836              		.cfi_offset 14, -4
 837              		.loc 1 400 0
 838 0004 0040A0E1 		mov	r4, r0
 839 0008 0150A0E1 		mov	r5, r1
 840 000c 0260A0E1 		mov	r6, r2
 841 0010 0390A0E1 		mov	r9, r3
 842              		.loc 1 401 0
 843 0014 1C8090E5 		ldr	r8, [r0, #28]
 844              	.LVL57:
 845              		.loc 1 406 0
 846              		.syntax divided
 847              	@ 406 "..//os/kernel/src/chqueues.c" 1
 848 0018 9FF021E3 		msr     CPSR_c, #0x9F
 849              	@ 0 "" 2
 850              		.loc 1 402 0
 851              		.arm
 852              		.syntax unified
 853 001c 0070A0E3 		mov	r7, #0
 854              	.LVL58:
 855              	.L85:
ARM GAS  /var/folders/3j/4xdnk5197cv_b7cw3n33qk7r0000gn/T//ccMhzYuE.s 			page 16


 856              		.loc 1 408 0
 857 0020 083094E5 		ldr	r3, [r4, #8]
 858              		.loc 1 415 0
 859 0024 01A085E2 		add	r10, r5, #1
 860              	.LVL59:
 861              		.loc 1 408 0
 862 0028 000053E3 		cmp	r3, #0
 863              		.loc 1 414 0
 864 002c 012043E2 		sub	r2, r3, #1
 865              		.loc 1 408 0
 866 0030 1500000A 		beq	.L88
 867              		.loc 1 415 0
 868 0034 143094E5 		ldr	r3, [r4, #20]
 869              		.loc 1 414 0
 870 0038 082084E5 		str	r2, [r4, #8]
 871              		.loc 1 415 0
 872 003c 012083E2 		add	r2, r3, #1
 873 0040 142084E5 		str	r2, [r4, #20]
 874 0044 0020D5E5 		ldrb	r2, [r5]	@ zero_extendqisi2
 875 0048 0020C3E5 		strb	r2, [r3]
 876              		.loc 1 416 0
 877 004c 103094E5 		ldr	r3, [r4, #16]
 878 0050 142094E5 		ldr	r2, [r4, #20]
 879 0054 030052E1 		cmp	r2, r3
 880              		.loc 1 417 0
 881 0058 0C309425 		ldrcs	r3, [r4, #12]
 882 005c 14308425 		strcs	r3, [r4, #20]
 883              		.loc 1 419 0
 884 0060 000058E3 		cmp	r8, #0
 885 0064 0100000A 		beq	.L90
 886              		.loc 1 420 0
 887 0068 0400A0E1 		mov	r0, r4
 888 006c 38FF2FE1 		blx	r8
 889              	.LVL60:
 890              	.L90:
 891              		.loc 1 422 0
 892              		.syntax divided
 893              	@ 422 "..//os/kernel/src/chqueues.c" 1
 894 0070 1FF021E3 		msr     CPSR_c, #0x1F
 895              	@ 0 "" 2
 896              		.loc 1 424 0
 897              		.arm
 898              		.syntax unified
 899 0074 016056E2 		subs	r6, r6, #1
 900              	.LVL61:
 901              		.loc 1 423 0
 902 0078 017087E2 		add	r7, r7, #1
 903              	.LVL62:
 904              		.loc 1 424 0
 905 007c 0800000A 		beq	.L84
 906              		.loc 1 426 0
 907              		.syntax divided
 908              	@ 426 "..//os/kernel/src/chqueues.c" 1
 909 0080 9FF021E3 		msr     CPSR_c, #0x9F
 910              	@ 0 "" 2
 911              		.loc 1 415 0
 912              		.arm
ARM GAS  /var/folders/3j/4xdnk5197cv_b7cw3n33qk7r0000gn/T//ccMhzYuE.s 			page 17


 913              		.syntax unified
 914 0084 0A50A0E1 		mov	r5, r10
 915              		.loc 1 408 0
 916 0088 E4FFFFEA 		b	.L85
 917              	.LVL63:
 918              	.L88:
 919              		.loc 1 409 0
 920 008c 0910A0E1 		mov	r1, r9
 921 0090 0400A0E1 		mov	r0, r4
 922 0094 FEFFFFEB 		bl	qwait
 923              	.LVL64:
 924 0098 000050E3 		cmp	r0, #0
 925 009c DFFFFF0A 		beq	.L85
 926              		.loc 1 410 0
 927              		.syntax divided
 928              	@ 410 "..//os/kernel/src/chqueues.c" 1
 929 00a0 1FF021E3 		msr     CPSR_c, #0x1F
 930              	@ 0 "" 2
 931              	.LVL65:
 932              		.arm
 933              		.syntax unified
 934              	.L84:
 935              		.loc 1 428 0
 936 00a4 0700A0E1 		mov	r0, r7
 937 00a8 F087BDE8 		pop	{r4, r5, r6, r7, r8, r9, r10, pc}
 938              		.cfi_endproc
 939              	.LFE17:
 940              		.size	chOQWriteTimeout, .-chOQWriteTimeout
 941              		.text
 942              	.Letext0:
 943              		.file 3 "/usr/local/Cellar/gcc-arm-none-eabi/20180627/lib/gcc/arm-none-eabi/7.3.1/include/stddef.h
 944              		.file 4 "/usr/local/Cellar/gcc-arm-none-eabi/20180627/arm-none-eabi/include/machine/_default_types
 945              		.file 5 "/usr/local/Cellar/gcc-arm-none-eabi/20180627/arm-none-eabi/include/sys/_stdint.h"
 946              		.file 6 "..//os/ports/GCC/ARM/chtypes.h"
 947              		.file 7 "..//os/kernel/include/chlists.h"
 948              		.file 8 "..//os/kernel/include/chthreads.h"
 949              		.file 9 "..//os/ports/GCC/ARM/chcore.h"
 950              		.file 10 "..//os/kernel/include/chvt.h"
 951              		.file 11 "..//os/kernel/include/chschd.h"
 952              		.file 12 "..//os/kernel/include/chmtx.h"
 953              		.file 13 "..//os/kernel/include/chregistry.h"
 954              		.file 14 "..//os/kernel/include/chqueues.h"
 955              		.file 15 "..//os/kernel/include/ch.h"
 956              		.section	.debug_info,"",%progbits
 957              	.Ldebug_info0:
 958 0000 330C0000 		.4byte	0xc33
 959 0004 0400     		.2byte	0x4
 960 0006 00000000 		.4byte	.Ldebug_abbrev0
 961 000a 04       		.byte	0x4
 962 000b 01       		.uleb128 0x1
 963 000c 47010000 		.4byte	.LASF129
 964 0010 0C       		.byte	0xc
 965 0011 94030000 		.4byte	.LASF130
 966 0015 00000000 		.4byte	.LASF131
 967 0019 90000000 		.4byte	.Ldebug_ranges0+0x90
 968 001d 00000000 		.4byte	0
 969 0021 00000000 		.4byte	.Ldebug_line0
ARM GAS  /var/folders/3j/4xdnk5197cv_b7cw3n33qk7r0000gn/T//ccMhzYuE.s 			page 18


 970 0025 02       		.uleb128 0x2
 971 0026 04       		.byte	0x4
 972 0027 05       		.byte	0x5
 973 0028 696E7400 		.ascii	"int\000"
 974 002c 03       		.uleb128 0x3
 975 002d 6B000000 		.4byte	.LASF2
 976 0031 03       		.byte	0x3
 977 0032 D8       		.byte	0xd8
 978 0033 37000000 		.4byte	0x37
 979 0037 04       		.uleb128 0x4
 980 0038 04       		.byte	0x4
 981 0039 07       		.byte	0x7
 982 003a 91020000 		.4byte	.LASF0
 983 003e 04       		.uleb128 0x4
 984 003f 01       		.byte	0x1
 985 0040 06       		.byte	0x6
 986 0041 0F010000 		.4byte	.LASF1
 987 0045 03       		.uleb128 0x3
 988 0046 8E000000 		.4byte	.LASF3
 989 004a 04       		.byte	0x4
 990 004b 2B       		.byte	0x2b
 991 004c 50000000 		.4byte	0x50
 992 0050 04       		.uleb128 0x4
 993 0051 01       		.byte	0x1
 994 0052 08       		.byte	0x8
 995 0053 59040000 		.4byte	.LASF4
 996 0057 04       		.uleb128 0x4
 997 0058 02       		.byte	0x2
 998 0059 05       		.byte	0x5
 999 005a 71040000 		.4byte	.LASF5
 1000 005e 03       		.uleb128 0x3
 1001 005f 2E050000 		.4byte	.LASF6
 1002 0063 04       		.byte	0x4
 1003 0064 39       		.byte	0x39
 1004 0065 69000000 		.4byte	0x69
 1005 0069 04       		.uleb128 0x4
 1006 006a 02       		.byte	0x2
 1007 006b 07       		.byte	0x7
 1008 006c F0020000 		.4byte	.LASF7
 1009 0070 03       		.uleb128 0x3
 1010 0071 61050000 		.4byte	.LASF8
 1011 0075 04       		.byte	0x4
 1012 0076 4D       		.byte	0x4d
 1013 0077 7B000000 		.4byte	0x7b
 1014 007b 04       		.uleb128 0x4
 1015 007c 04       		.byte	0x4
 1016 007d 05       		.byte	0x5
 1017 007e 09020000 		.4byte	.LASF9
 1018 0082 03       		.uleb128 0x3
 1019 0083 58020000 		.4byte	.LASF10
 1020 0087 04       		.byte	0x4
 1021 0088 4F       		.byte	0x4f
 1022 0089 8D000000 		.4byte	0x8d
 1023 008d 04       		.uleb128 0x4
 1024 008e 04       		.byte	0x4
 1025 008f 07       		.byte	0x7
 1026 0090 B1020000 		.4byte	.LASF11
ARM GAS  /var/folders/3j/4xdnk5197cv_b7cw3n33qk7r0000gn/T//ccMhzYuE.s 			page 19


 1027 0094 04       		.uleb128 0x4
 1028 0095 08       		.byte	0x8
 1029 0096 05       		.byte	0x5
 1030 0097 01010000 		.4byte	.LASF12
 1031 009b 04       		.uleb128 0x4
 1032 009c 08       		.byte	0x8
 1033 009d 07       		.byte	0x7
 1034 009e B5000000 		.4byte	.LASF13
 1035 00a2 03       		.uleb128 0x3
 1036 00a3 C1050000 		.4byte	.LASF14
 1037 00a7 05       		.byte	0x5
 1038 00a8 18       		.byte	0x18
 1039 00a9 45000000 		.4byte	0x45
 1040 00ad 05       		.uleb128 0x5
 1041 00ae A2000000 		.4byte	0xa2
 1042 00b2 03       		.uleb128 0x3
 1043 00b3 2D020000 		.4byte	.LASF15
 1044 00b7 05       		.byte	0x5
 1045 00b8 24       		.byte	0x24
 1046 00b9 5E000000 		.4byte	0x5e
 1047 00bd 03       		.uleb128 0x3
 1048 00be 51040000 		.4byte	.LASF16
 1049 00c2 05       		.byte	0x5
 1050 00c3 2C       		.byte	0x2c
 1051 00c4 70000000 		.4byte	0x70
 1052 00c8 03       		.uleb128 0x3
 1053 00c9 E9040000 		.4byte	.LASF17
 1054 00cd 05       		.byte	0x5
 1055 00ce 30       		.byte	0x30
 1056 00cf 82000000 		.4byte	0x82
 1057 00d3 03       		.uleb128 0x3
 1058 00d4 38010000 		.4byte	.LASF18
 1059 00d8 06       		.byte	0x6
 1060 00d9 29       		.byte	0x29
 1061 00da BD000000 		.4byte	0xbd
 1062 00de 03       		.uleb128 0x3
 1063 00df 1E030000 		.4byte	.LASF19
 1064 00e3 06       		.byte	0x6
 1065 00e4 2A       		.byte	0x2a
 1066 00e5 A2000000 		.4byte	0xa2
 1067 00e9 03       		.uleb128 0x3
 1068 00ea 12020000 		.4byte	.LASF20
 1069 00ee 06       		.byte	0x6
 1070 00ef 2B       		.byte	0x2b
 1071 00f0 A2000000 		.4byte	0xa2
 1072 00f4 03       		.uleb128 0x3
 1073 00f5 1D040000 		.4byte	.LASF21
 1074 00f9 06       		.byte	0x6
 1075 00fa 2C       		.byte	0x2c
 1076 00fb A2000000 		.4byte	0xa2
 1077 00ff 03       		.uleb128 0x3
 1078 0100 13050000 		.4byte	.LASF22
 1079 0104 06       		.byte	0x6
 1080 0105 2D       		.byte	0x2d
 1081 0106 A2000000 		.4byte	0xa2
 1082 010a 03       		.uleb128 0x3
 1083 010b 41040000 		.4byte	.LASF23
ARM GAS  /var/folders/3j/4xdnk5197cv_b7cw3n33qk7r0000gn/T//ccMhzYuE.s 			page 20


 1084 010f 06       		.byte	0x6
 1085 0110 2E       		.byte	0x2e
 1086 0111 C8000000 		.4byte	0xc8
 1087 0115 03       		.uleb128 0x3
 1088 0116 03030000 		.4byte	.LASF24
 1089 011a 06       		.byte	0x6
 1090 011b 2F       		.byte	0x2f
 1091 011c BD000000 		.4byte	0xbd
 1092 0120 03       		.uleb128 0x3
 1093 0121 32030000 		.4byte	.LASF25
 1094 0125 06       		.byte	0x6
 1095 0126 31       		.byte	0x31
 1096 0127 C8000000 		.4byte	0xc8
 1097 012b 03       		.uleb128 0x3
 1098 012c 4C050000 		.4byte	.LASF26
 1099 0130 06       		.byte	0x6
 1100 0131 33       		.byte	0x33
 1101 0132 C8000000 		.4byte	0xc8
 1102 0136 06       		.uleb128 0x6
 1103 0137 2B010000 		.4byte	0x12b
 1104 013b 03       		.uleb128 0x3
 1105 013c CA040000 		.4byte	.LASF27
 1106 0140 07       		.byte	0x7
 1107 0141 23       		.byte	0x23
 1108 0142 46010000 		.4byte	0x146
 1109 0146 07       		.uleb128 0x7
 1110 0147 CA040000 		.4byte	.LASF27
 1111 014b 44       		.byte	0x44
 1112 014c 08       		.byte	0x8
 1113 014d 57       		.byte	0x57
 1114 014e 37020000 		.4byte	0x237
 1115 0152 08       		.uleb128 0x8
 1116 0153 A7040000 		.4byte	.LASF28
 1117 0157 08       		.byte	0x8
 1118 0158 58       		.byte	0x58
 1119 0159 58020000 		.4byte	0x258
 1120 015d 00       		.byte	0
 1121 015e 08       		.uleb128 0x8
 1122 015f 3A040000 		.4byte	.LASF29
 1123 0163 08       		.byte	0x8
 1124 0164 5A       		.byte	0x5a
 1125 0165 58020000 		.4byte	0x258
 1126 0169 04       		.byte	0x4
 1127 016a 08       		.uleb128 0x8
 1128 016b E3000000 		.4byte	.LASF30
 1129 016f 08       		.byte	0x8
 1130 0170 5C       		.byte	0x5c
 1131 0171 0A010000 		.4byte	0x10a
 1132 0175 08       		.byte	0x8
 1133 0176 08       		.uleb128 0x8
 1134 0177 18060000 		.4byte	.LASF31
 1135 017b 08       		.byte	0x8
 1136 017c 5D       		.byte	0x5d
 1137 017d 13030000 		.4byte	0x313
 1138 0181 0C       		.byte	0xc
 1139 0182 08       		.uleb128 0x8
 1140 0183 40020000 		.4byte	.LASF32
ARM GAS  /var/folders/3j/4xdnk5197cv_b7cw3n33qk7r0000gn/T//ccMhzYuE.s 			page 21


 1141 0187 08       		.byte	0x8
 1142 0188 5F       		.byte	0x5f
 1143 0189 58020000 		.4byte	0x258
 1144 018d 10       		.byte	0x10
 1145 018e 08       		.uleb128 0x8
 1146 018f DB030000 		.4byte	.LASF33
 1147 0193 08       		.byte	0x8
 1148 0194 60       		.byte	0x60
 1149 0195 58020000 		.4byte	0x258
 1150 0199 14       		.byte	0x14
 1151 019a 08       		.uleb128 0x8
 1152 019b D0050000 		.4byte	.LASF34
 1153 019f 08       		.byte	0x8
 1154 01a0 67       		.byte	0x67
 1155 01a1 D5040000 		.4byte	0x4d5
 1156 01a5 18       		.byte	0x18
 1157 01a6 08       		.uleb128 0x8
 1158 01a7 7B040000 		.4byte	.LASF35
 1159 01ab 08       		.byte	0x8
 1160 01ac 72       		.byte	0x72
 1161 01ad E9000000 		.4byte	0xe9
 1162 01b1 1C       		.byte	0x1c
 1163 01b2 08       		.uleb128 0x8
 1164 01b3 C2040000 		.4byte	.LASF36
 1165 01b7 08       		.byte	0x8
 1166 01b8 76       		.byte	0x76
 1167 01b9 DE000000 		.4byte	0xde
 1168 01bd 1D       		.byte	0x1d
 1169 01be 08       		.uleb128 0x8
 1170 01bf A1050000 		.4byte	.LASF37
 1171 01c3 08       		.byte	0x8
 1172 01c4 7B       		.byte	0x7b
 1173 01c5 F4000000 		.4byte	0xf4
 1174 01c9 1E       		.byte	0x1e
 1175 01ca 08       		.uleb128 0x8
 1176 01cb 83040000 		.4byte	.LASF38
 1177 01cf 08       		.byte	0x8
 1178 01d0 81       		.byte	0x81
 1179 01d1 FF000000 		.4byte	0xff
 1180 01d5 1F       		.byte	0x1f
 1181 01d6 08       		.uleb128 0x8
 1182 01d7 76050000 		.4byte	.LASF39
 1183 01db 08       		.byte	0x8
 1184 01dc 88       		.byte	0x88
 1185 01dd 36010000 		.4byte	0x136
 1186 01e1 20       		.byte	0x20
 1187 01e2 09       		.uleb128 0x9
 1188 01e3 705F7500 		.ascii	"p_u\000"
 1189 01e7 08       		.byte	0x8
 1190 01e8 AD       		.byte	0xad
 1191 01e9 A0040000 		.4byte	0x4a0
 1192 01ed 24       		.byte	0x24
 1193 01ee 08       		.uleb128 0x8
 1194 01ef 1E060000 		.4byte	.LASF40
 1195 01f3 08       		.byte	0x8
 1196 01f4 B2       		.byte	0xb2
 1197 01f5 7E020000 		.4byte	0x27e
ARM GAS  /var/folders/3j/4xdnk5197cv_b7cw3n33qk7r0000gn/T//ccMhzYuE.s 			page 22


 1198 01f9 28       		.byte	0x28
 1199 01fa 08       		.uleb128 0x8
 1200 01fb 84050000 		.4byte	.LASF41
 1201 01ff 08       		.byte	0x8
 1202 0200 B8       		.byte	0xb8
 1203 0201 5E020000 		.4byte	0x25e
 1204 0205 2C       		.byte	0x2c
 1205 0206 08       		.uleb128 0x8
 1206 0207 60000000 		.4byte	.LASF42
 1207 020b 08       		.byte	0x8
 1208 020c BC       		.byte	0xbc
 1209 020d 15010000 		.4byte	0x115
 1210 0211 34       		.byte	0x34
 1211 0212 08       		.uleb128 0x8
 1212 0213 DE040000 		.4byte	.LASF43
 1213 0217 08       		.byte	0x8
 1214 0218 C2       		.byte	0xc2
 1215 0219 20010000 		.4byte	0x120
 1216 021d 38       		.byte	0x38
 1217 021e 08       		.uleb128 0x8
 1218 021f 67040000 		.4byte	.LASF44
 1219 0223 08       		.byte	0x8
 1220 0224 C9       		.byte	0xc9
 1221 0225 E7040000 		.4byte	0x4e7
 1222 0229 3C       		.byte	0x3c
 1223 022a 08       		.uleb128 0x8
 1224 022b 56050000 		.4byte	.LASF45
 1225 022f 08       		.byte	0x8
 1226 0230 CD       		.byte	0xcd
 1227 0231 0A010000 		.4byte	0x10a
 1228 0235 40       		.byte	0x40
 1229 0236 00       		.byte	0
 1230 0237 0A       		.uleb128 0xa
 1231 0238 08       		.byte	0x8
 1232 0239 07       		.byte	0x7
 1233 023a 5A       		.byte	0x5a
 1234 023b 58020000 		.4byte	0x258
 1235 023f 08       		.uleb128 0x8
 1236 0240 A7040000 		.4byte	.LASF28
 1237 0244 07       		.byte	0x7
 1238 0245 5B       		.byte	0x5b
 1239 0246 58020000 		.4byte	0x258
 1240 024a 00       		.byte	0
 1241 024b 08       		.uleb128 0x8
 1242 024c 3A040000 		.4byte	.LASF29
 1243 0250 07       		.byte	0x7
 1244 0251 5D       		.byte	0x5d
 1245 0252 58020000 		.4byte	0x258
 1246 0256 04       		.byte	0x4
 1247 0257 00       		.byte	0
 1248 0258 0B       		.uleb128 0xb
 1249 0259 04       		.byte	0x4
 1250 025a 3B010000 		.4byte	0x13b
 1251 025e 03       		.uleb128 0x3
 1252 025f F1030000 		.4byte	.LASF46
 1253 0263 07       		.byte	0x7
 1254 0264 5F       		.byte	0x5f
ARM GAS  /var/folders/3j/4xdnk5197cv_b7cw3n33qk7r0000gn/T//ccMhzYuE.s 			page 23


 1255 0265 37020000 		.4byte	0x237
 1256 0269 0A       		.uleb128 0xa
 1257 026a 04       		.byte	0x4
 1258 026b 07       		.byte	0x7
 1259 026c 64       		.byte	0x64
 1260 026d 7E020000 		.4byte	0x27e
 1261 0271 08       		.uleb128 0x8
 1262 0272 A7040000 		.4byte	.LASF28
 1263 0276 07       		.byte	0x7
 1264 0277 66       		.byte	0x66
 1265 0278 58020000 		.4byte	0x258
 1266 027c 00       		.byte	0
 1267 027d 00       		.byte	0
 1268 027e 03       		.uleb128 0x3
 1269 027f 26030000 		.4byte	.LASF47
 1270 0283 07       		.byte	0x7
 1271 0284 69       		.byte	0x69
 1272 0285 69020000 		.4byte	0x269
 1273 0289 03       		.uleb128 0x3
 1274 028a 5C030000 		.4byte	.LASF48
 1275 028e 09       		.byte	0x9
 1276 028f 9D       		.byte	0x9d
 1277 0290 C8000000 		.4byte	0xc8
 1278 0294 03       		.uleb128 0x3
 1279 0295 63020000 		.4byte	.LASF49
 1280 0299 09       		.byte	0x9
 1281 029a A2       		.byte	0xa2
 1282 029b 9F020000 		.4byte	0x29f
 1283 029f 0C       		.uleb128 0xc
 1284 02a0 04       		.byte	0x4
 1285 02a1 07       		.uleb128 0x7
 1286 02a2 7D050000 		.4byte	.LASF50
 1287 02a6 24       		.byte	0x24
 1288 02a7 09       		.byte	0x9
 1289 02a8 B9       		.byte	0xb9
 1290 02a9 13030000 		.4byte	0x313
 1291 02ad 09       		.uleb128 0x9
 1292 02ae 723400   		.ascii	"r4\000"
 1293 02b1 09       		.byte	0x9
 1294 02b2 BA       		.byte	0xba
 1295 02b3 94020000 		.4byte	0x294
 1296 02b7 00       		.byte	0
 1297 02b8 09       		.uleb128 0x9
 1298 02b9 723500   		.ascii	"r5\000"
 1299 02bc 09       		.byte	0x9
 1300 02bd BB       		.byte	0xbb
 1301 02be 94020000 		.4byte	0x294
 1302 02c2 04       		.byte	0x4
 1303 02c3 09       		.uleb128 0x9
 1304 02c4 723600   		.ascii	"r6\000"
 1305 02c7 09       		.byte	0x9
 1306 02c8 BC       		.byte	0xbc
 1307 02c9 94020000 		.4byte	0x294
 1308 02cd 08       		.byte	0x8
 1309 02ce 09       		.uleb128 0x9
 1310 02cf 723700   		.ascii	"r7\000"
 1311 02d2 09       		.byte	0x9
ARM GAS  /var/folders/3j/4xdnk5197cv_b7cw3n33qk7r0000gn/T//ccMhzYuE.s 			page 24


 1312 02d3 BD       		.byte	0xbd
 1313 02d4 94020000 		.4byte	0x294
 1314 02d8 0C       		.byte	0xc
 1315 02d9 09       		.uleb128 0x9
 1316 02da 723800   		.ascii	"r8\000"
 1317 02dd 09       		.byte	0x9
 1318 02de BE       		.byte	0xbe
 1319 02df 94020000 		.4byte	0x294
 1320 02e3 10       		.byte	0x10
 1321 02e4 09       		.uleb128 0x9
 1322 02e5 723900   		.ascii	"r9\000"
 1323 02e8 09       		.byte	0x9
 1324 02e9 BF       		.byte	0xbf
 1325 02ea 94020000 		.4byte	0x294
 1326 02ee 14       		.byte	0x14
 1327 02ef 09       		.uleb128 0x9
 1328 02f0 72313000 		.ascii	"r10\000"
 1329 02f4 09       		.byte	0x9
 1330 02f5 C0       		.byte	0xc0
 1331 02f6 94020000 		.4byte	0x294
 1332 02fa 18       		.byte	0x18
 1333 02fb 09       		.uleb128 0x9
 1334 02fc 72313100 		.ascii	"r11\000"
 1335 0300 09       		.byte	0x9
 1336 0301 C1       		.byte	0xc1
 1337 0302 94020000 		.4byte	0x294
 1338 0306 1C       		.byte	0x1c
 1339 0307 09       		.uleb128 0x9
 1340 0308 6C7200   		.ascii	"lr\000"
 1341 030b 09       		.byte	0x9
 1342 030c C2       		.byte	0xc2
 1343 030d 94020000 		.4byte	0x294
 1344 0311 20       		.byte	0x20
 1345 0312 00       		.byte	0
 1346 0313 07       		.uleb128 0x7
 1347 0314 E3020000 		.4byte	.LASF51
 1348 0318 04       		.byte	0x4
 1349 0319 09       		.byte	0x9
 1350 031a CA       		.byte	0xca
 1351 031b 2C030000 		.4byte	0x32c
 1352 031f 09       		.uleb128 0x9
 1353 0320 72313300 		.ascii	"r13\000"
 1354 0324 09       		.byte	0x9
 1355 0325 CB       		.byte	0xcb
 1356 0326 2C030000 		.4byte	0x32c
 1357 032a 00       		.byte	0
 1358 032b 00       		.byte	0
 1359 032c 0B       		.uleb128 0xb
 1360 032d 04       		.byte	0x4
 1361 032e A1020000 		.4byte	0x2a1
 1362 0332 03       		.uleb128 0x3
 1363 0333 CC020000 		.4byte	.LASF52
 1364 0337 0A       		.byte	0xa
 1365 0338 4E       		.byte	0x4e
 1366 0339 3D030000 		.4byte	0x33d
 1367 033d 0B       		.uleb128 0xb
 1368 033e 04       		.byte	0x4
ARM GAS  /var/folders/3j/4xdnk5197cv_b7cw3n33qk7r0000gn/T//ccMhzYuE.s 			page 25


 1369 033f 43030000 		.4byte	0x343
 1370 0343 0D       		.uleb128 0xd
 1371 0344 4E030000 		.4byte	0x34e
 1372 0348 0E       		.uleb128 0xe
 1373 0349 9F020000 		.4byte	0x29f
 1374 034d 00       		.byte	0
 1375 034e 03       		.uleb128 0x3
 1376 034f 06050000 		.4byte	.LASF53
 1377 0353 0A       		.byte	0xa
 1378 0354 53       		.byte	0x53
 1379 0355 59030000 		.4byte	0x359
 1380 0359 07       		.uleb128 0x7
 1381 035a 06050000 		.4byte	.LASF53
 1382 035e 14       		.byte	0x14
 1383 035f 0A       		.byte	0xa
 1384 0360 5A       		.byte	0x5a
 1385 0361 A2030000 		.4byte	0x3a2
 1386 0365 08       		.uleb128 0x8
 1387 0366 9E020000 		.4byte	.LASF54
 1388 036a 0A       		.byte	0xa
 1389 036b 5B       		.byte	0x5b
 1390 036c A2030000 		.4byte	0x3a2
 1391 0370 00       		.byte	0
 1392 0371 08       		.uleb128 0x8
 1393 0372 6C020000 		.4byte	.LASF55
 1394 0376 0A       		.byte	0xa
 1395 0377 5D       		.byte	0x5d
 1396 0378 A2030000 		.4byte	0x3a2
 1397 037c 04       		.byte	0x4
 1398 037d 08       		.uleb128 0x8
 1399 037e 8C030000 		.4byte	.LASF56
 1400 0382 0A       		.byte	0xa
 1401 0383 5F       		.byte	0x5f
 1402 0384 2B010000 		.4byte	0x12b
 1403 0388 08       		.byte	0x8
 1404 0389 08       		.uleb128 0x8
 1405 038a BB030000 		.4byte	.LASF57
 1406 038e 0A       		.byte	0xa
 1407 038f 60       		.byte	0x60
 1408 0390 32030000 		.4byte	0x332
 1409 0394 0C       		.byte	0xc
 1410 0395 08       		.uleb128 0x8
 1411 0396 8F050000 		.4byte	.LASF58
 1412 039a 0A       		.byte	0xa
 1413 039b 62       		.byte	0x62
 1414 039c 9F020000 		.4byte	0x29f
 1415 03a0 10       		.byte	0x10
 1416 03a1 00       		.byte	0
 1417 03a2 0B       		.uleb128 0xb
 1418 03a3 04       		.byte	0x4
 1419 03a4 4E030000 		.4byte	0x34e
 1420 03a8 0A       		.uleb128 0xa
 1421 03a9 10       		.byte	0x10
 1422 03aa 0A       		.byte	0xa
 1423 03ab 6C       		.byte	0x6c
 1424 03ac E1030000 		.4byte	0x3e1
 1425 03b0 08       		.uleb128 0x8
ARM GAS  /var/folders/3j/4xdnk5197cv_b7cw3n33qk7r0000gn/T//ccMhzYuE.s 			page 26


 1426 03b1 9E020000 		.4byte	.LASF54
 1427 03b5 0A       		.byte	0xa
 1428 03b6 6D       		.byte	0x6d
 1429 03b7 A2030000 		.4byte	0x3a2
 1430 03bb 00       		.byte	0
 1431 03bc 08       		.uleb128 0x8
 1432 03bd 6C020000 		.4byte	.LASF55
 1433 03c1 0A       		.byte	0xa
 1434 03c2 6F       		.byte	0x6f
 1435 03c3 A2030000 		.4byte	0x3a2
 1436 03c7 04       		.byte	0x4
 1437 03c8 08       		.uleb128 0x8
 1438 03c9 8C030000 		.4byte	.LASF56
 1439 03cd 0A       		.byte	0xa
 1440 03ce 71       		.byte	0x71
 1441 03cf 2B010000 		.4byte	0x12b
 1442 03d3 08       		.byte	0x8
 1443 03d4 08       		.uleb128 0x8
 1444 03d5 D7050000 		.4byte	.LASF59
 1445 03d9 0A       		.byte	0xa
 1446 03da 72       		.byte	0x72
 1447 03db 36010000 		.4byte	0x136
 1448 03df 0C       		.byte	0xc
 1449 03e0 00       		.byte	0
 1450 03e1 03       		.uleb128 0x3
 1451 03e2 02060000 		.4byte	.LASF60
 1452 03e6 0A       		.byte	0xa
 1453 03e7 73       		.byte	0x73
 1454 03e8 A8030000 		.4byte	0x3a8
 1455 03ec 0F       		.uleb128 0xf
 1456 03ed 98000000 		.4byte	.LASF68
 1457 03f1 0A       		.byte	0xa
 1458 03f2 D1       		.byte	0xd1
 1459 03f3 E1030000 		.4byte	0x3e1
 1460 03f7 0A       		.uleb128 0xa
 1461 03f8 1C       		.byte	0x1c
 1462 03f9 0B       		.byte	0xb
 1463 03fa 57       		.byte	0x57
 1464 03fb 48040000 		.4byte	0x448
 1465 03ff 08       		.uleb128 0x8
 1466 0400 FE040000 		.4byte	.LASF61
 1467 0404 0B       		.byte	0xb
 1468 0405 58       		.byte	0x58
 1469 0406 5E020000 		.4byte	0x25e
 1470 040a 00       		.byte	0
 1471 040b 08       		.uleb128 0x8
 1472 040c 99040000 		.4byte	.LASF62
 1473 0410 0B       		.byte	0xb
 1474 0411 59       		.byte	0x59
 1475 0412 0A010000 		.4byte	0x10a
 1476 0416 08       		.byte	0x8
 1477 0417 08       		.uleb128 0x8
 1478 0418 EB030000 		.4byte	.LASF63
 1479 041c 0B       		.byte	0xb
 1480 041d 5B       		.byte	0x5b
 1481 041e 13030000 		.4byte	0x313
 1482 0422 0C       		.byte	0xc
ARM GAS  /var/folders/3j/4xdnk5197cv_b7cw3n33qk7r0000gn/T//ccMhzYuE.s 			page 27


 1483 0423 08       		.uleb128 0x8
 1484 0424 09030000 		.4byte	.LASF64
 1485 0428 0B       		.byte	0xb
 1486 0429 5E       		.byte	0x5e
 1487 042a 58020000 		.4byte	0x258
 1488 042e 10       		.byte	0x10
 1489 042f 08       		.uleb128 0x8
 1490 0430 15040000 		.4byte	.LASF65
 1491 0434 0B       		.byte	0xb
 1492 0435 5F       		.byte	0x5f
 1493 0436 58020000 		.4byte	0x258
 1494 043a 14       		.byte	0x14
 1495 043b 08       		.uleb128 0x8
 1496 043c 0B040000 		.4byte	.LASF66
 1497 0440 0B       		.byte	0xb
 1498 0441 62       		.byte	0x62
 1499 0442 58020000 		.4byte	0x258
 1500 0446 18       		.byte	0x18
 1501 0447 00       		.byte	0
 1502 0448 03       		.uleb128 0x3
 1503 0449 A8050000 		.4byte	.LASF67
 1504 044d 0B       		.byte	0xb
 1505 044e 64       		.byte	0x64
 1506 044f F7030000 		.4byte	0x3f7
 1507 0453 0F       		.uleb128 0xf
 1508 0454 BB050000 		.4byte	.LASF69
 1509 0458 0B       		.byte	0xb
 1510 0459 68       		.byte	0x68
 1511 045a 48040000 		.4byte	0x448
 1512 045e 07       		.uleb128 0x7
 1513 045f 49030000 		.4byte	.LASF70
 1514 0463 10       		.byte	0x10
 1515 0464 0C       		.byte	0xc
 1516 0465 25       		.byte	0x25
 1517 0466 8F040000 		.4byte	0x48f
 1518 046a 08       		.uleb128 0x8
 1519 046b 3F010000 		.4byte	.LASF71
 1520 046f 0C       		.byte	0xc
 1521 0470 26       		.byte	0x26
 1522 0471 5E020000 		.4byte	0x25e
 1523 0475 00       		.byte	0
 1524 0476 08       		.uleb128 0x8
 1525 0477 10060000 		.4byte	.LASF72
 1526 047b 0C       		.byte	0xc
 1527 047c 28       		.byte	0x28
 1528 047d 58020000 		.4byte	0x258
 1529 0481 08       		.byte	0x8
 1530 0482 08       		.uleb128 0x8
 1531 0483 45050000 		.4byte	.LASF73
 1532 0487 0C       		.byte	0xc
 1533 0488 2A       		.byte	0x2a
 1534 0489 8F040000 		.4byte	0x48f
 1535 048d 0C       		.byte	0xc
 1536 048e 00       		.byte	0
 1537 048f 0B       		.uleb128 0xb
 1538 0490 04       		.byte	0x4
 1539 0491 5E040000 		.4byte	0x45e
ARM GAS  /var/folders/3j/4xdnk5197cv_b7cw3n33qk7r0000gn/T//ccMhzYuE.s 			page 28


 1540 0495 03       		.uleb128 0x3
 1541 0496 49030000 		.4byte	.LASF70
 1542 049a 0C       		.byte	0xc
 1543 049b 2C       		.byte	0x2c
 1544 049c 5E040000 		.4byte	0x45e
 1545 04a0 10       		.uleb128 0x10
 1546 04a1 04       		.byte	0x4
 1547 04a2 08       		.byte	0x8
 1548 04a3 8F       		.byte	0x8f
 1549 04a4 D5040000 		.4byte	0x4d5
 1550 04a8 11       		.uleb128 0x11
 1551 04a9 72000000 		.4byte	.LASF74
 1552 04ad 08       		.byte	0x8
 1553 04ae 96       		.byte	0x96
 1554 04af 15010000 		.4byte	0x115
 1555 04b3 11       		.uleb128 0x11
 1556 04b4 DA000000 		.4byte	.LASF75
 1557 04b8 08       		.byte	0x8
 1558 04b9 9D       		.byte	0x9d
 1559 04ba 15010000 		.4byte	0x115
 1560 04be 11       		.uleb128 0x11
 1561 04bf C9050000 		.4byte	.LASF76
 1562 04c3 08       		.byte	0x8
 1563 04c4 A4       		.byte	0xa4
 1564 04c5 9F020000 		.4byte	0x29f
 1565 04c9 11       		.uleb128 0x11
 1566 04ca A0040000 		.4byte	.LASF77
 1567 04ce 08       		.byte	0x8
 1568 04cf AB       		.byte	0xab
 1569 04d0 20010000 		.4byte	0x120
 1570 04d4 00       		.byte	0
 1571 04d5 0B       		.uleb128 0xb
 1572 04d6 04       		.byte	0x4
 1573 04d7 E2040000 		.4byte	0x4e2
 1574 04db 04       		.uleb128 0x4
 1575 04dc 01       		.byte	0x1
 1576 04dd 08       		.byte	0x8
 1577 04de 1D050000 		.4byte	.LASF78
 1578 04e2 05       		.uleb128 0x5
 1579 04e3 DB040000 		.4byte	0x4db
 1580 04e7 0B       		.uleb128 0xb
 1581 04e8 04       		.byte	0x4
 1582 04e9 95040000 		.4byte	0x495
 1583 04ed 0A       		.uleb128 0xa
 1584 04ee 16       		.byte	0x16
 1585 04ef 0D       		.byte	0xd
 1586 04f0 25       		.byte	0x25
 1587 04f1 CE050000 		.4byte	0x5ce
 1588 04f5 08       		.uleb128 0x8
 1589 04f6 D5020000 		.4byte	.LASF79
 1590 04fa 0D       		.byte	0xd
 1591 04fb 26       		.byte	0x26
 1592 04fc CE050000 		.4byte	0x5ce
 1593 0500 00       		.byte	0
 1594 0501 08       		.uleb128 0x8
 1595 0502 78030000 		.4byte	.LASF80
 1596 0506 0D       		.byte	0xd
ARM GAS  /var/folders/3j/4xdnk5197cv_b7cw3n33qk7r0000gn/T//ccMhzYuE.s 			page 29


 1597 0507 27       		.byte	0x27
 1598 0508 A2000000 		.4byte	0xa2
 1599 050c 04       		.byte	0x4
 1600 050d 08       		.uleb128 0x8
 1601 050e FE030000 		.4byte	.LASF81
 1602 0512 0D       		.byte	0xd
 1603 0513 28       		.byte	0x28
 1604 0514 A2000000 		.4byte	0xa2
 1605 0518 05       		.byte	0x5
 1606 0519 08       		.uleb128 0x8
 1607 051a F7050000 		.4byte	.LASF82
 1608 051e 0D       		.byte	0xd
 1609 051f 29       		.byte	0x29
 1610 0520 B2000000 		.4byte	0xb2
 1611 0524 06       		.byte	0x6
 1612 0525 08       		.uleb128 0x8
 1613 0526 25040000 		.4byte	.LASF83
 1614 052a 0D       		.byte	0xd
 1615 052b 2A       		.byte	0x2a
 1616 052c A2000000 		.4byte	0xa2
 1617 0530 08       		.byte	0x8
 1618 0531 08       		.uleb128 0x8
 1619 0532 C3030000 		.4byte	.LASF84
 1620 0536 0D       		.byte	0xd
 1621 0537 2B       		.byte	0x2b
 1622 0538 A2000000 		.4byte	0xa2
 1623 053c 09       		.byte	0x9
 1624 053d 08       		.uleb128 0x8
 1625 053e CC000000 		.4byte	.LASF85
 1626 0542 0D       		.byte	0xd
 1627 0543 2C       		.byte	0x2c
 1628 0544 A2000000 		.4byte	0xa2
 1629 0548 0A       		.byte	0xa
 1630 0549 08       		.uleb128 0x8
 1631 054a F2040000 		.4byte	.LASF86
 1632 054e 0D       		.byte	0xd
 1633 054f 2D       		.byte	0x2d
 1634 0550 A2000000 		.4byte	0xa2
 1635 0554 0B       		.byte	0xb
 1636 0555 08       		.uleb128 0x8
 1637 0556 96050000 		.4byte	.LASF87
 1638 055a 0D       		.byte	0xd
 1639 055b 2E       		.byte	0x2e
 1640 055c A2000000 		.4byte	0xa2
 1641 0560 0C       		.byte	0xc
 1642 0561 08       		.uleb128 0x8
 1643 0562 D1040000 		.4byte	.LASF88
 1644 0566 0D       		.byte	0xd
 1645 0567 2F       		.byte	0x2f
 1646 0568 A2000000 		.4byte	0xa2
 1647 056c 0D       		.byte	0xd
 1648 056d 08       		.uleb128 0x8
 1649 056e 53000000 		.4byte	.LASF89
 1650 0572 0D       		.byte	0xd
 1651 0573 30       		.byte	0x30
 1652 0574 A2000000 		.4byte	0xa2
 1653 0578 0E       		.byte	0xe
ARM GAS  /var/folders/3j/4xdnk5197cv_b7cw3n33qk7r0000gn/T//ccMhzYuE.s 			page 30


 1654 0579 08       		.uleb128 0x8
 1655 057a CF030000 		.4byte	.LASF90
 1656 057e 0D       		.byte	0xd
 1657 057f 31       		.byte	0x31
 1658 0580 A2000000 		.4byte	0xa2
 1659 0584 0F       		.byte	0xf
 1660 0585 08       		.uleb128 0x8
 1661 0586 1B010000 		.4byte	.LASF91
 1662 058a 0D       		.byte	0xd
 1663 058b 32       		.byte	0x32
 1664 058c A2000000 		.4byte	0xa2
 1665 0590 10       		.byte	0x10
 1666 0591 08       		.uleb128 0x8
 1667 0592 EA000000 		.4byte	.LASF92
 1668 0596 0D       		.byte	0xd
 1669 0597 34       		.byte	0x34
 1670 0598 A2000000 		.4byte	0xa2
 1671 059c 11       		.byte	0x11
 1672 059d 08       		.uleb128 0x8
 1673 059e 2B010000 		.4byte	.LASF93
 1674 05a2 0D       		.byte	0xd
 1675 05a3 35       		.byte	0x35
 1676 05a4 A2000000 		.4byte	0xa2
 1677 05a8 12       		.byte	0x12
 1678 05a9 08       		.uleb128 0x8
 1679 05aa 80030000 		.4byte	.LASF94
 1680 05ae 0D       		.byte	0xd
 1681 05af 36       		.byte	0x36
 1682 05b0 A2000000 		.4byte	0xa2
 1683 05b4 13       		.byte	0x13
 1684 05b5 08       		.uleb128 0x8
 1685 05b6 B3040000 		.4byte	.LASF95
 1686 05ba 0D       		.byte	0xd
 1687 05bb 37       		.byte	0x37
 1688 05bc A2000000 		.4byte	0xa2
 1689 05c0 14       		.byte	0x14
 1690 05c1 08       		.uleb128 0x8
 1691 05c2 8D040000 		.4byte	.LASF96
 1692 05c6 0D       		.byte	0xd
 1693 05c7 39       		.byte	0x39
 1694 05c8 A2000000 		.4byte	0xa2
 1695 05cc 15       		.byte	0x15
 1696 05cd 00       		.byte	0
 1697 05ce 12       		.uleb128 0x12
 1698 05cf DB040000 		.4byte	0x4db
 1699 05d3 DE050000 		.4byte	0x5de
 1700 05d7 13       		.uleb128 0x13
 1701 05d8 37000000 		.4byte	0x37
 1702 05dc 03       		.byte	0x3
 1703 05dd 00       		.byte	0
 1704 05de 03       		.uleb128 0x3
 1705 05df 36020000 		.4byte	.LASF97
 1706 05e3 0D       		.byte	0xd
 1707 05e4 3A       		.byte	0x3a
 1708 05e5 ED040000 		.4byte	0x4ed
 1709 05e9 05       		.uleb128 0x5
 1710 05ea DE050000 		.4byte	0x5de
ARM GAS  /var/folders/3j/4xdnk5197cv_b7cw3n33qk7r0000gn/T//ccMhzYuE.s 			page 31


 1711 05ee 0F       		.uleb128 0xf
 1712 05ef C3020000 		.4byte	.LASF98
 1713 05f3 0D       		.byte	0xd
 1714 05f4 77       		.byte	0x77
 1715 05f5 E9050000 		.4byte	0x5e9
 1716 05f9 03       		.uleb128 0x3
 1717 05fa 4F030000 		.4byte	.LASF99
 1718 05fe 0E       		.byte	0xe
 1719 05ff 30       		.byte	0x30
 1720 0600 04060000 		.4byte	0x604
 1721 0604 07       		.uleb128 0x7
 1722 0605 4F030000 		.4byte	.LASF99
 1723 0609 24       		.byte	0x24
 1724 060a 0E       		.byte	0xe
 1725 060b 3E       		.byte	0x3e
 1726 060c 71060000 		.4byte	0x671
 1727 0610 08       		.uleb128 0x8
 1728 0611 F7000000 		.4byte	.LASF100
 1729 0615 0E       		.byte	0xe
 1730 0616 3F       		.byte	0x3f
 1731 0617 5E020000 		.4byte	0x25e
 1732 061b 00       		.byte	0
 1733 061c 08       		.uleb128 0x8
 1734 061d B1030000 		.4byte	.LASF101
 1735 0621 0E       		.byte	0xe
 1736 0622 40       		.byte	0x40
 1737 0623 2C000000 		.4byte	0x2c
 1738 0627 08       		.byte	0x8
 1739 0628 08       		.uleb128 0x8
 1740 0629 24020000 		.4byte	.LASF102
 1741 062d 0E       		.byte	0xe
 1742 062e 41       		.byte	0x41
 1743 062f 93060000 		.4byte	0x693
 1744 0633 0C       		.byte	0xc
 1745 0634 08       		.uleb128 0x8
 1746 0635 AF000000 		.4byte	.LASF103
 1747 0639 0E       		.byte	0xe
 1748 063a 42       		.byte	0x42
 1749 063b 93060000 		.4byte	0x693
 1750 063f 10       		.byte	0x10
 1751 0640 08       		.uleb128 0x8
 1752 0641 E3030000 		.4byte	.LASF104
 1753 0645 0E       		.byte	0xe
 1754 0646 44       		.byte	0x44
 1755 0647 93060000 		.4byte	0x693
 1756 064b 14       		.byte	0x14
 1757 064c 08       		.uleb128 0x8
 1758 064d 49040000 		.4byte	.LASF105
 1759 0651 0E       		.byte	0xe
 1760 0652 45       		.byte	0x45
 1761 0653 93060000 		.4byte	0x693
 1762 0657 18       		.byte	0x18
 1763 0658 08       		.uleb128 0x8
 1764 0659 B2050000 		.4byte	.LASF106
 1765 065d 0E       		.byte	0xe
 1766 065e 46       		.byte	0x46
 1767 065f 71060000 		.4byte	0x671
ARM GAS  /var/folders/3j/4xdnk5197cv_b7cw3n33qk7r0000gn/T//ccMhzYuE.s 			page 32


 1768 0663 1C       		.byte	0x1c
 1769 0664 08       		.uleb128 0x8
 1770 0665 09060000 		.4byte	.LASF107
 1771 0669 0E       		.byte	0xe
 1772 066a 47       		.byte	0x47
 1773 066b 9F020000 		.4byte	0x29f
 1774 066f 20       		.byte	0x20
 1775 0670 00       		.byte	0
 1776 0671 03       		.uleb128 0x3
 1777 0672 30040000 		.4byte	.LASF108
 1778 0676 0E       		.byte	0xe
 1779 0677 33       		.byte	0x33
 1780 0678 7C060000 		.4byte	0x67c
 1781 067c 0B       		.uleb128 0xb
 1782 067d 04       		.byte	0x4
 1783 067e 82060000 		.4byte	0x682
 1784 0682 0D       		.uleb128 0xd
 1785 0683 8D060000 		.4byte	0x68d
 1786 0687 0E       		.uleb128 0xe
 1787 0688 8D060000 		.4byte	0x68d
 1788 068c 00       		.byte	0
 1789 068d 0B       		.uleb128 0xb
 1790 068e 04       		.byte	0x4
 1791 068f F9050000 		.4byte	0x5f9
 1792 0693 0B       		.uleb128 0xb
 1793 0694 04       		.byte	0x4
 1794 0695 A2000000 		.4byte	0xa2
 1795 0699 03       		.uleb128 0x3
 1796 069a 3E030000 		.4byte	.LASF109
 1797 069e 0E       		.byte	0xe
 1798 069f 7B       		.byte	0x7b
 1799 06a0 F9050000 		.4byte	0x5f9
 1800 06a4 03       		.uleb128 0x3
 1801 06a5 82000000 		.4byte	.LASF110
 1802 06a9 0E       		.byte	0xe
 1803 06aa EE       		.byte	0xee
 1804 06ab F9050000 		.4byte	0x5f9
 1805 06af 0B       		.uleb128 0xb
 1806 06b0 04       		.byte	0x4
 1807 06b1 AD000000 		.4byte	0xad
 1808 06b5 12       		.uleb128 0x12
 1809 06b6 89020000 		.4byte	0x289
 1810 06ba C5060000 		.4byte	0x6c5
 1811 06be 13       		.uleb128 0x13
 1812 06bf 37000000 		.4byte	0x37
 1813 06c3 26       		.byte	0x26
 1814 06c4 00       		.byte	0
 1815 06c5 0F       		.uleb128 0xf
 1816 06c6 48020000 		.4byte	.LASF111
 1817 06ca 0F       		.byte	0xf
 1818 06cb 82       		.byte	0x82
 1819 06cc B5060000 		.4byte	0x6b5
 1820 06d0 14       		.uleb128 0x14
 1821 06d1 67030000 		.4byte	.LASF113
 1822 06d5 01       		.byte	0x1
 1823 06d6 8F01     		.2byte	0x18f
 1824 06d8 2C000000 		.4byte	0x2c
ARM GAS  /var/folders/3j/4xdnk5197cv_b7cw3n33qk7r0000gn/T//ccMhzYuE.s 			page 33


 1825 06dc 00000000 		.4byte	.LFB17
 1826 06e0 AC000000 		.4byte	.LFE17-.LFB17
 1827 06e4 01       		.uleb128 0x1
 1828 06e5 9C       		.byte	0x9c
 1829 06e6 6D070000 		.4byte	0x76d
 1830 06ea 15       		.uleb128 0x15
 1831 06eb 6F717000 		.ascii	"oqp\000"
 1832 06ef 01       		.byte	0x1
 1833 06f0 8F01     		.2byte	0x18f
 1834 06f2 6D070000 		.4byte	0x76d
 1835 06f6 00000000 		.4byte	.LLST32
 1836 06fa 15       		.uleb128 0x15
 1837 06fb 627000   		.ascii	"bp\000"
 1838 06fe 01       		.byte	0x1
 1839 06ff 8F01     		.2byte	0x18f
 1840 0701 AF060000 		.4byte	0x6af
 1841 0705 1E000000 		.4byte	.LLST33
 1842 0709 15       		.uleb128 0x15
 1843 070a 6E00     		.ascii	"n\000"
 1844 070c 01       		.byte	0x1
 1845 070d 9001     		.2byte	0x190
 1846 070f 2C000000 		.4byte	0x2c
 1847 0713 47000000 		.4byte	.LLST34
 1848 0717 16       		.uleb128 0x16
 1849 0718 06040000 		.4byte	.LASF112
 1850 071c 01       		.byte	0x1
 1851 071d 9001     		.2byte	0x190
 1852 071f 2B010000 		.4byte	0x12b
 1853 0723 7D000000 		.4byte	.LLST35
 1854 0727 17       		.uleb128 0x17
 1855 0728 6E667900 		.ascii	"nfy\000"
 1856 072c 01       		.byte	0x1
 1857 072d 9101     		.2byte	0x191
 1858 072f 71060000 		.4byte	0x671
 1859 0733 01       		.uleb128 0x1
 1860 0734 58       		.byte	0x58
 1861 0735 18       		.uleb128 0x18
 1862 0736 7700     		.ascii	"w\000"
 1863 0738 01       		.byte	0x1
 1864 0739 9201     		.2byte	0x192
 1865 073b 2C000000 		.4byte	0x2c
 1866 073f 9B000000 		.4byte	.LLST36
 1867 0743 19       		.uleb128 0x19
 1868 0744 70000000 		.4byte	.LVL60
 1869 0748 02       		.uleb128 0x2
 1870 0749 78       		.byte	0x78
 1871 074a 00       		.sleb128 0
 1872 074b 56070000 		.4byte	0x756
 1873 074f 1A       		.uleb128 0x1a
 1874 0750 01       		.uleb128 0x1
 1875 0751 50       		.byte	0x50
 1876 0752 02       		.uleb128 0x2
 1877 0753 74       		.byte	0x74
 1878 0754 00       		.sleb128 0
 1879 0755 00       		.byte	0
 1880 0756 1B       		.uleb128 0x1b
 1881 0757 98000000 		.4byte	.LVL64
ARM GAS  /var/folders/3j/4xdnk5197cv_b7cw3n33qk7r0000gn/T//ccMhzYuE.s 			page 34


 1882 075b 5F0B0000 		.4byte	0xb5f
 1883 075f 1A       		.uleb128 0x1a
 1884 0760 01       		.uleb128 0x1
 1885 0761 50       		.byte	0x50
 1886 0762 02       		.uleb128 0x2
 1887 0763 74       		.byte	0x74
 1888 0764 00       		.sleb128 0
 1889 0765 1A       		.uleb128 0x1a
 1890 0766 01       		.uleb128 0x1
 1891 0767 51       		.byte	0x51
 1892 0768 02       		.uleb128 0x2
 1893 0769 79       		.byte	0x79
 1894 076a 00       		.sleb128 0
 1895 076b 00       		.byte	0
 1896 076c 00       		.byte	0
 1897 076d 0B       		.uleb128 0xb
 1898 076e 04       		.byte	0x4
 1899 076f A4060000 		.4byte	0x6a4
 1900 0773 14       		.uleb128 0x14
 1901 0774 1B020000 		.4byte	.LASF114
 1902 0778 01       		.byte	0x1
 1903 0779 6401     		.2byte	0x164
 1904 077b 15010000 		.4byte	0x115
 1905 077f 00000000 		.4byte	.LFB16
 1906 0783 80000000 		.4byte	.LFE16-.LFB16
 1907 0787 01       		.uleb128 0x1
 1908 0788 9C       		.byte	0x9c
 1909 0789 E2070000 		.4byte	0x7e2
 1910 078d 15       		.uleb128 0x15
 1911 078e 6F717000 		.ascii	"oqp\000"
 1912 0792 01       		.byte	0x1
 1913 0793 6401     		.2byte	0x164
 1914 0795 6D070000 		.4byte	0x76d
 1915 0799 BA000000 		.4byte	.LLST28
 1916 079d 18       		.uleb128 0x18
 1917 079e 6200     		.ascii	"b\000"
 1918 07a0 01       		.byte	0x1
 1919 07a1 6501     		.2byte	0x165
 1920 07a3 A2000000 		.4byte	0xa2
 1921 07a7 FF000000 		.4byte	.LLST29
 1922 07ab 1C       		.uleb128 0x1c
 1923 07ac D20B0000 		.4byte	0xbd2
 1924 07b0 4C000000 		.4byte	.LBB31
 1925 07b4 78000000 		.4byte	.Ldebug_ranges0+0x78
 1926 07b8 01       		.byte	0x1
 1927 07b9 7201     		.2byte	0x172
 1928 07bb D8070000 		.4byte	0x7d8
 1929 07bf 1D       		.uleb128 0x1d
 1930 07c0 E20B0000 		.4byte	0xbe2
 1931 07c4 12010000 		.4byte	.LLST30
 1932 07c8 1E       		.uleb128 0x1e
 1933 07c9 78000000 		.4byte	.Ldebug_ranges0+0x78
 1934 07cd 1F       		.uleb128 0x1f
 1935 07ce ED0B0000 		.4byte	0xbed
 1936 07d2 25010000 		.4byte	.LLST31
 1937 07d6 00       		.byte	0
 1938 07d7 00       		.byte	0
ARM GAS  /var/folders/3j/4xdnk5197cv_b7cw3n33qk7r0000gn/T//ccMhzYuE.s 			page 35


 1939 07d8 20       		.uleb128 0x20
 1940 07d9 60000000 		.4byte	.LVL53
 1941 07dd 200C0000 		.4byte	0xc20
 1942 07e1 00       		.byte	0
 1943 07e2 14       		.uleb128 0x14
 1944 07e3 79020000 		.4byte	.LASF115
 1945 07e7 01       		.byte	0x1
 1946 07e8 4201     		.2byte	0x142
 1947 07ea 15010000 		.4byte	0x115
 1948 07ee 00000000 		.4byte	.LFB15
 1949 07f2 8C000000 		.4byte	.LFE15-.LFB15
 1950 07f6 01       		.uleb128 0x1
 1951 07f7 9C       		.byte	0x9c
 1952 07f8 67080000 		.4byte	0x867
 1953 07fc 15       		.uleb128 0x15
 1954 07fd 6F717000 		.ascii	"oqp\000"
 1955 0801 01       		.byte	0x1
 1956 0802 4201     		.2byte	0x142
 1957 0804 6D070000 		.4byte	0x76d
 1958 0808 38010000 		.4byte	.LLST24
 1959 080c 15       		.uleb128 0x15
 1960 080d 6200     		.ascii	"b\000"
 1961 080f 01       		.byte	0x1
 1962 0810 4201     		.2byte	0x142
 1963 0812 A2000000 		.4byte	0xa2
 1964 0816 56010000 		.4byte	.LLST25
 1965 081a 16       		.uleb128 0x16
 1966 081b 06040000 		.4byte	.LASF112
 1967 081f 01       		.byte	0x1
 1968 0820 4201     		.2byte	0x142
 1969 0822 2B010000 		.4byte	0x12b
 1970 0826 77010000 		.4byte	.LLST26
 1971 082a 21       		.uleb128 0x21
 1972 082b 60000000 		.4byte	.Ldebug_ranges0+0x60
 1973 082f 5A080000 		.4byte	0x85a
 1974 0833 18       		.uleb128 0x18
 1975 0834 6D736700 		.ascii	"msg\000"
 1976 0838 01       		.byte	0x1
 1977 0839 4601     		.2byte	0x146
 1978 083b 15010000 		.4byte	0x115
 1979 083f 95010000 		.4byte	.LLST27
 1980 0843 1B       		.uleb128 0x1b
 1981 0844 24000000 		.4byte	.LVL44
 1982 0848 5F0B0000 		.4byte	0xb5f
 1983 084c 1A       		.uleb128 0x1a
 1984 084d 01       		.uleb128 0x1
 1985 084e 50       		.byte	0x50
 1986 084f 02       		.uleb128 0x2
 1987 0850 74       		.byte	0x74
 1988 0851 00       		.sleb128 0
 1989 0852 1A       		.uleb128 0x1a
 1990 0853 01       		.uleb128 0x1
 1991 0854 51       		.byte	0x51
 1992 0855 02       		.uleb128 0x2
 1993 0856 75       		.byte	0x75
 1994 0857 00       		.sleb128 0
 1995 0858 00       		.byte	0
ARM GAS  /var/folders/3j/4xdnk5197cv_b7cw3n33qk7r0000gn/T//ccMhzYuE.s 			page 36


 1996 0859 00       		.byte	0
 1997 085a 22       		.uleb128 0x22
 1998 085b 78000000 		.4byte	.LVL46
 1999 085f 1A       		.uleb128 0x1a
 2000 0860 01       		.uleb128 0x1
 2001 0861 50       		.byte	0x50
 2002 0862 02       		.uleb128 0x2
 2003 0863 74       		.byte	0x74
 2004 0864 00       		.sleb128 0
 2005 0865 00       		.byte	0
 2006 0866 00       		.byte	0
 2007 0867 23       		.uleb128 0x23
 2008 0868 6B050000 		.4byte	.LASF116
 2009 086c 01       		.byte	0x1
 2010 086d 2201     		.2byte	0x122
 2011 086f 00000000 		.4byte	.LFB14
 2012 0873 58000000 		.4byte	.LFE14-.LFB14
 2013 0877 01       		.uleb128 0x1
 2014 0878 9C       		.byte	0x9c
 2015 0879 C4080000 		.4byte	0x8c4
 2016 087d 15       		.uleb128 0x15
 2017 087e 6F717000 		.ascii	"oqp\000"
 2018 0882 01       		.byte	0x1
 2019 0883 2201     		.2byte	0x122
 2020 0885 6D070000 		.4byte	0x76d
 2021 0889 B3010000 		.4byte	.LLST21
 2022 088d 1C       		.uleb128 0x1c
 2023 088e D20B0000 		.4byte	0xbd2
 2024 0892 30000000 		.4byte	.LBB25
 2025 0896 48000000 		.4byte	.Ldebug_ranges0+0x48
 2026 089a 01       		.byte	0x1
 2027 089b 2901     		.2byte	0x129
 2028 089d BA080000 		.4byte	0x8ba
 2029 08a1 1D       		.uleb128 0x1d
 2030 08a2 E20B0000 		.4byte	0xbe2
 2031 08a6 D1010000 		.4byte	.LLST22
 2032 08aa 1E       		.uleb128 0x1e
 2033 08ab 48000000 		.4byte	.Ldebug_ranges0+0x48
 2034 08af 1F       		.uleb128 0x1f
 2035 08b0 ED0B0000 		.4byte	0xbed
 2036 08b4 E4010000 		.4byte	.LLST23
 2037 08b8 00       		.byte	0
 2038 08b9 00       		.byte	0
 2039 08ba 20       		.uleb128 0x20
 2040 08bb 44000000 		.4byte	.LVL41
 2041 08bf 200C0000 		.4byte	0xc20
 2042 08c3 00       		.byte	0
 2043 08c4 23       		.uleb128 0x23
 2044 08c5 00020000 		.4byte	.LASF117
 2045 08c9 01       		.byte	0x1
 2046 08ca 0C01     		.2byte	0x10c
 2047 08cc 00000000 		.4byte	.LFB13
 2048 08d0 34000000 		.4byte	.LFE13-.LFB13
 2049 08d4 01       		.uleb128 0x1
 2050 08d5 9C       		.byte	0x9c
 2051 08d6 21090000 		.4byte	0x921
 2052 08da 24       		.uleb128 0x24
ARM GAS  /var/folders/3j/4xdnk5197cv_b7cw3n33qk7r0000gn/T//ccMhzYuE.s 			page 37


 2053 08db 6F717000 		.ascii	"oqp\000"
 2054 08df 01       		.byte	0x1
 2055 08e0 0C01     		.2byte	0x10c
 2056 08e2 6D070000 		.4byte	0x76d
 2057 08e6 01       		.uleb128 0x1
 2058 08e7 50       		.byte	0x50
 2059 08e8 24       		.uleb128 0x24
 2060 08e9 627000   		.ascii	"bp\000"
 2061 08ec 01       		.byte	0x1
 2062 08ed 0C01     		.2byte	0x10c
 2063 08ef 93060000 		.4byte	0x693
 2064 08f3 01       		.uleb128 0x1
 2065 08f4 51       		.byte	0x51
 2066 08f5 25       		.uleb128 0x25
 2067 08f6 EB020000 		.4byte	.LASF118
 2068 08fa 01       		.byte	0x1
 2069 08fb 0C01     		.2byte	0x10c
 2070 08fd 2C000000 		.4byte	0x2c
 2071 0901 01       		.uleb128 0x1
 2072 0902 52       		.byte	0x52
 2073 0903 25       		.uleb128 0x25
 2074 0904 66000000 		.4byte	.LASF119
 2075 0908 01       		.byte	0x1
 2076 0909 0C01     		.2byte	0x10c
 2077 090b 71060000 		.4byte	0x671
 2078 090f 01       		.uleb128 0x1
 2079 0910 53       		.byte	0x53
 2080 0911 25       		.uleb128 0x25
 2081 0912 74020000 		.4byte	.LASF120
 2082 0916 01       		.byte	0x1
 2083 0917 0D01     		.2byte	0x10d
 2084 0919 9F020000 		.4byte	0x29f
 2085 091d 02       		.uleb128 0x2
 2086 091e 91       		.byte	0x91
 2087 091f 00       		.sleb128 0
 2088 0920 00       		.byte	0
 2089 0921 26       		.uleb128 0x26
 2090 0922 9F000000 		.4byte	.LASF121
 2091 0926 01       		.byte	0x1
 2092 0927 DB       		.byte	0xdb
 2093 0928 2C000000 		.4byte	0x2c
 2094 092c 00000000 		.4byte	.LFB12
 2095 0930 A8000000 		.4byte	.LFE12-.LFB12
 2096 0934 01       		.uleb128 0x1
 2097 0935 9C       		.byte	0x9c
 2098 0936 B7090000 		.4byte	0x9b7
 2099 093a 27       		.uleb128 0x27
 2100 093b 69717000 		.ascii	"iqp\000"
 2101 093f 01       		.byte	0x1
 2102 0940 DB       		.byte	0xdb
 2103 0941 B7090000 		.4byte	0x9b7
 2104 0945 F7010000 		.4byte	.LLST16
 2105 0949 27       		.uleb128 0x27
 2106 094a 627000   		.ascii	"bp\000"
 2107 094d 01       		.byte	0x1
 2108 094e DB       		.byte	0xdb
 2109 094f 93060000 		.4byte	0x693
ARM GAS  /var/folders/3j/4xdnk5197cv_b7cw3n33qk7r0000gn/T//ccMhzYuE.s 			page 38


 2110 0953 15020000 		.4byte	.LLST17
 2111 0957 27       		.uleb128 0x27
 2112 0958 6E00     		.ascii	"n\000"
 2113 095a 01       		.byte	0x1
 2114 095b DC       		.byte	0xdc
 2115 095c 2C000000 		.4byte	0x2c
 2116 0960 4B020000 		.4byte	.LLST18
 2117 0964 28       		.uleb128 0x28
 2118 0965 06040000 		.4byte	.LASF112
 2119 0969 01       		.byte	0x1
 2120 096a DC       		.byte	0xdc
 2121 096b 2B010000 		.4byte	0x12b
 2122 096f 6E020000 		.4byte	.LLST19
 2123 0973 29       		.uleb128 0x29
 2124 0974 6E667900 		.ascii	"nfy\000"
 2125 0978 01       		.byte	0x1
 2126 0979 DD       		.byte	0xdd
 2127 097a 71060000 		.4byte	0x671
 2128 097e 01       		.uleb128 0x1
 2129 097f 57       		.byte	0x57
 2130 0980 2A       		.uleb128 0x2a
 2131 0981 7200     		.ascii	"r\000"
 2132 0983 01       		.byte	0x1
 2133 0984 DE       		.byte	0xde
 2134 0985 2C000000 		.4byte	0x2c
 2135 0989 8C020000 		.4byte	.LLST20
 2136 098d 19       		.uleb128 0x19
 2137 098e 30000000 		.4byte	.LVL31
 2138 0992 02       		.uleb128 0x2
 2139 0993 77       		.byte	0x77
 2140 0994 00       		.sleb128 0
 2141 0995 A0090000 		.4byte	0x9a0
 2142 0999 1A       		.uleb128 0x1a
 2143 099a 01       		.uleb128 0x1
 2144 099b 50       		.byte	0x50
 2145 099c 02       		.uleb128 0x2
 2146 099d 74       		.byte	0x74
 2147 099e 00       		.sleb128 0
 2148 099f 00       		.byte	0
 2149 09a0 1B       		.uleb128 0x1b
 2150 09a1 40000000 		.4byte	.LVL32
 2151 09a5 5F0B0000 		.4byte	0xb5f
 2152 09a9 1A       		.uleb128 0x1a
 2153 09aa 01       		.uleb128 0x1
 2154 09ab 50       		.byte	0x50
 2155 09ac 02       		.uleb128 0x2
 2156 09ad 74       		.byte	0x74
 2157 09ae 00       		.sleb128 0
 2158 09af 1A       		.uleb128 0x1a
 2159 09b0 01       		.uleb128 0x1
 2160 09b1 51       		.byte	0x51
 2161 09b2 02       		.uleb128 0x2
 2162 09b3 75       		.byte	0x75
 2163 09b4 00       		.sleb128 0
 2164 09b5 00       		.byte	0
 2165 09b6 00       		.byte	0
 2166 09b7 0B       		.uleb128 0xb
ARM GAS  /var/folders/3j/4xdnk5197cv_b7cw3n33qk7r0000gn/T//ccMhzYuE.s 			page 39


 2167 09b8 04       		.byte	0x4
 2168 09b9 99060000 		.4byte	0x699
 2169 09bd 26       		.uleb128 0x26
 2170 09be 28060000 		.4byte	.LASF122
 2171 09c2 01       		.byte	0x1
 2172 09c3 AB       		.byte	0xab
 2173 09c4 15010000 		.4byte	0x115
 2174 09c8 00000000 		.4byte	.LFB11
 2175 09cc 74000000 		.4byte	.LFE11-.LFB11
 2176 09d0 01       		.uleb128 0x1
 2177 09d1 9C       		.byte	0x9c
 2178 09d2 410A0000 		.4byte	0xa41
 2179 09d6 27       		.uleb128 0x27
 2180 09d7 69717000 		.ascii	"iqp\000"
 2181 09db 01       		.byte	0x1
 2182 09dc AB       		.byte	0xab
 2183 09dd B7090000 		.4byte	0x9b7
 2184 09e1 AB020000 		.4byte	.LLST12
 2185 09e5 28       		.uleb128 0x28
 2186 09e6 06040000 		.4byte	.LASF112
 2187 09ea 01       		.byte	0x1
 2188 09eb AB       		.byte	0xab
 2189 09ec 2B010000 		.4byte	0x12b
 2190 09f0 C9020000 		.4byte	.LLST13
 2191 09f4 2A       		.uleb128 0x2a
 2192 09f5 6200     		.ascii	"b\000"
 2193 09f7 01       		.byte	0x1
 2194 09f8 AC       		.byte	0xac
 2195 09f9 A2000000 		.4byte	0xa2
 2196 09fd E7020000 		.4byte	.LLST14
 2197 0a01 2B       		.uleb128 0x2b
 2198 0a02 24000000 		.4byte	.LBB24
 2199 0a06 14000000 		.4byte	.LBE24-.LBB24
 2200 0a0a 340A0000 		.4byte	0xa34
 2201 0a0e 2A       		.uleb128 0x2a
 2202 0a0f 6D736700 		.ascii	"msg\000"
 2203 0a13 01       		.byte	0x1
 2204 0a14 B3       		.byte	0xb3
 2205 0a15 15010000 		.4byte	0x115
 2206 0a19 FA020000 		.4byte	.LLST15
 2207 0a1d 1B       		.uleb128 0x1b
 2208 0a1e 30000000 		.4byte	.LVL24
 2209 0a22 5F0B0000 		.4byte	0xb5f
 2210 0a26 1A       		.uleb128 0x1a
 2211 0a27 01       		.uleb128 0x1
 2212 0a28 50       		.byte	0x50
 2213 0a29 02       		.uleb128 0x2
 2214 0a2a 74       		.byte	0x74
 2215 0a2b 00       		.sleb128 0
 2216 0a2c 1A       		.uleb128 0x1a
 2217 0a2d 01       		.uleb128 0x1
 2218 0a2e 51       		.byte	0x51
 2219 0a2f 02       		.uleb128 0x2
 2220 0a30 75       		.byte	0x75
 2221 0a31 00       		.sleb128 0
 2222 0a32 00       		.byte	0
 2223 0a33 00       		.byte	0
ARM GAS  /var/folders/3j/4xdnk5197cv_b7cw3n33qk7r0000gn/T//ccMhzYuE.s 			page 40


 2224 0a34 22       		.uleb128 0x22
 2225 0a35 20000000 		.4byte	.LVL23
 2226 0a39 1A       		.uleb128 0x1a
 2227 0a3a 01       		.uleb128 0x1
 2228 0a3b 50       		.byte	0x50
 2229 0a3c 02       		.uleb128 0x2
 2230 0a3d 74       		.byte	0x74
 2231 0a3e 00       		.sleb128 0
 2232 0a3f 00       		.byte	0
 2233 0a40 00       		.byte	0
 2234 0a41 26       		.uleb128 0x26
 2235 0a42 88020000 		.4byte	.LASF123
 2236 0a46 01       		.byte	0x1
 2237 0a47 85       		.byte	0x85
 2238 0a48 15010000 		.4byte	0x115
 2239 0a4c 00000000 		.4byte	.LFB10
 2240 0a50 88000000 		.4byte	.LFE10-.LFB10
 2241 0a54 01       		.uleb128 0x1
 2242 0a55 9C       		.byte	0x9c
 2243 0a56 AC0A0000 		.4byte	0xaac
 2244 0a5a 27       		.uleb128 0x27
 2245 0a5b 69717000 		.ascii	"iqp\000"
 2246 0a5f 01       		.byte	0x1
 2247 0a60 85       		.byte	0x85
 2248 0a61 B7090000 		.4byte	0x9b7
 2249 0a65 0D030000 		.4byte	.LLST8
 2250 0a69 27       		.uleb128 0x27
 2251 0a6a 6200     		.ascii	"b\000"
 2252 0a6c 01       		.byte	0x1
 2253 0a6d 85       		.byte	0x85
 2254 0a6e A2000000 		.4byte	0xa2
 2255 0a72 6B030000 		.4byte	.LLST9
 2256 0a76 2C       		.uleb128 0x2c
 2257 0a77 D20B0000 		.4byte	0xbd2
 2258 0a7b 48000000 		.4byte	.LBB20
 2259 0a7f 30000000 		.4byte	.Ldebug_ranges0+0x30
 2260 0a83 01       		.byte	0x1
 2261 0a84 92       		.byte	0x92
 2262 0a85 A20A0000 		.4byte	0xaa2
 2263 0a89 1D       		.uleb128 0x1d
 2264 0a8a E20B0000 		.4byte	0xbe2
 2265 0a8e 97030000 		.4byte	.LLST10
 2266 0a92 1E       		.uleb128 0x1e
 2267 0a93 30000000 		.4byte	.Ldebug_ranges0+0x30
 2268 0a97 1F       		.uleb128 0x1f
 2269 0a98 ED0B0000 		.4byte	0xbed
 2270 0a9c AA030000 		.4byte	.LLST11
 2271 0aa0 00       		.byte	0
 2272 0aa1 00       		.byte	0
 2273 0aa2 20       		.uleb128 0x20
 2274 0aa3 60000000 		.4byte	.LVL17
 2275 0aa7 200C0000 		.4byte	0xc20
 2276 0aab 00       		.byte	0
 2277 0aac 2D       		.uleb128 0x2d
 2278 0aad A6020000 		.4byte	.LASF124
 2279 0ab1 01       		.byte	0x1
 2280 0ab2 6E       		.byte	0x6e
ARM GAS  /var/folders/3j/4xdnk5197cv_b7cw3n33qk7r0000gn/T//ccMhzYuE.s 			page 41


 2281 0ab3 00000000 		.4byte	.LFB9
 2282 0ab7 54000000 		.4byte	.LFE9-.LFB9
 2283 0abb 01       		.uleb128 0x1
 2284 0abc 9C       		.byte	0x9c
 2285 0abd 060B0000 		.4byte	0xb06
 2286 0ac1 27       		.uleb128 0x27
 2287 0ac2 69717000 		.ascii	"iqp\000"
 2288 0ac6 01       		.byte	0x1
 2289 0ac7 6E       		.byte	0x6e
 2290 0ac8 B7090000 		.4byte	0x9b7
 2291 0acc BD030000 		.4byte	.LLST5
 2292 0ad0 2C       		.uleb128 0x2c
 2293 0ad1 D20B0000 		.4byte	0xbd2
 2294 0ad5 2C000000 		.4byte	.LBB16
 2295 0ad9 18000000 		.4byte	.Ldebug_ranges0+0x18
 2296 0add 01       		.byte	0x1
 2297 0ade 75       		.byte	0x75
 2298 0adf FC0A0000 		.4byte	0xafc
 2299 0ae3 1D       		.uleb128 0x1d
 2300 0ae4 E20B0000 		.4byte	0xbe2
 2301 0ae8 DB030000 		.4byte	.LLST6
 2302 0aec 1E       		.uleb128 0x1e
 2303 0aed 18000000 		.4byte	.Ldebug_ranges0+0x18
 2304 0af1 1F       		.uleb128 0x1f
 2305 0af2 ED0B0000 		.4byte	0xbed
 2306 0af6 EE030000 		.4byte	.LLST7
 2307 0afa 00       		.byte	0
 2308 0afb 00       		.byte	0
 2309 0afc 20       		.uleb128 0x20
 2310 0afd 40000000 		.4byte	.LVL11
 2311 0b01 200C0000 		.4byte	0xc20
 2312 0b05 00       		.byte	0
 2313 0b06 2D       		.uleb128 0x2d
 2314 0b07 79000000 		.4byte	.LASF125
 2315 0b0b 01       		.byte	0x1
 2316 0b0c 58       		.byte	0x58
 2317 0b0d 00000000 		.4byte	.LFB8
 2318 0b11 38000000 		.4byte	.LFE8-.LFB8
 2319 0b15 01       		.uleb128 0x1
 2320 0b16 9C       		.byte	0x9c
 2321 0b17 5F0B0000 		.4byte	0xb5f
 2322 0b1b 2E       		.uleb128 0x2e
 2323 0b1c 69717000 		.ascii	"iqp\000"
 2324 0b20 01       		.byte	0x1
 2325 0b21 58       		.byte	0x58
 2326 0b22 B7090000 		.4byte	0x9b7
 2327 0b26 01       		.uleb128 0x1
 2328 0b27 50       		.byte	0x50
 2329 0b28 2E       		.uleb128 0x2e
 2330 0b29 627000   		.ascii	"bp\000"
 2331 0b2c 01       		.byte	0x1
 2332 0b2d 58       		.byte	0x58
 2333 0b2e 93060000 		.4byte	0x693
 2334 0b32 01       		.uleb128 0x1
 2335 0b33 51       		.byte	0x51
 2336 0b34 28       		.uleb128 0x28
 2337 0b35 EB020000 		.4byte	.LASF118
ARM GAS  /var/folders/3j/4xdnk5197cv_b7cw3n33qk7r0000gn/T//ccMhzYuE.s 			page 42


 2338 0b39 01       		.byte	0x1
 2339 0b3a 58       		.byte	0x58
 2340 0b3b 2C000000 		.4byte	0x2c
 2341 0b3f 01040000 		.4byte	.LLST4
 2342 0b43 2F       		.uleb128 0x2f
 2343 0b44 AE040000 		.4byte	.LASF126
 2344 0b48 01       		.byte	0x1
 2345 0b49 58       		.byte	0x58
 2346 0b4a 71060000 		.4byte	0x671
 2347 0b4e 01       		.uleb128 0x1
 2348 0b4f 53       		.byte	0x53
 2349 0b50 2F       		.uleb128 0x2f
 2350 0b51 74020000 		.4byte	.LASF120
 2351 0b55 01       		.byte	0x1
 2352 0b56 59       		.byte	0x59
 2353 0b57 9F020000 		.4byte	0x29f
 2354 0b5b 02       		.uleb128 0x2
 2355 0b5c 91       		.byte	0x91
 2356 0b5d 00       		.sleb128 0
 2357 0b5e 00       		.byte	0
 2358 0b5f 30       		.uleb128 0x30
 2359 0b60 FA010000 		.4byte	.LASF132
 2360 0b64 01       		.byte	0x1
 2361 0b65 3F       		.byte	0x3f
 2362 0b66 15010000 		.4byte	0x115
 2363 0b6a 00000000 		.4byte	.LFB7
 2364 0b6e 3C000000 		.4byte	.LFE7-.LFB7
 2365 0b72 01       		.uleb128 0x1
 2366 0b73 9C       		.byte	0x9c
 2367 0b74 D20B0000 		.4byte	0xbd2
 2368 0b78 27       		.uleb128 0x27
 2369 0b79 717000   		.ascii	"qp\000"
 2370 0b7c 01       		.byte	0x1
 2371 0b7d 3F       		.byte	0x3f
 2372 0b7e 8D060000 		.4byte	0x68d
 2373 0b82 22040000 		.4byte	.LLST0
 2374 0b86 28       		.uleb128 0x28
 2375 0b87 06040000 		.4byte	.LASF112
 2376 0b8b 01       		.byte	0x1
 2377 0b8c 3F       		.byte	0x3f
 2378 0b8d 2B010000 		.4byte	0x12b
 2379 0b91 64040000 		.4byte	.LLST1
 2380 0b95 2C       		.uleb128 0x2c
 2381 0b96 FE0B0000 		.4byte	0xbfe
 2382 0b9a 10000000 		.4byte	.LBB12
 2383 0b9e 00000000 		.4byte	.Ldebug_ranges0+0
 2384 0ba2 01       		.byte	0x1
 2385 0ba3 44       		.byte	0x44
 2386 0ba4 BB0B0000 		.4byte	0xbbb
 2387 0ba8 1D       		.uleb128 0x1d
 2388 0ba9 140C0000 		.4byte	0xc14
 2389 0bad 90040000 		.4byte	.LLST2
 2390 0bb1 1D       		.uleb128 0x1d
 2391 0bb2 0A0C0000 		.4byte	0xc0a
 2392 0bb6 A3040000 		.4byte	.LLST3
 2393 0bba 00       		.byte	0
 2394 0bbb 31       		.uleb128 0x31
ARM GAS  /var/folders/3j/4xdnk5197cv_b7cw3n33qk7r0000gn/T//ccMhzYuE.s 			page 43


 2395 0bbc 30000000 		.4byte	.LVL4
 2396 0bc0 2B0C0000 		.4byte	0xc2b
 2397 0bc4 1A       		.uleb128 0x1a
 2398 0bc5 01       		.uleb128 0x1
 2399 0bc6 50       		.byte	0x50
 2400 0bc7 01       		.uleb128 0x1
 2401 0bc8 3D       		.byte	0x3d
 2402 0bc9 1A       		.uleb128 0x1a
 2403 0bca 01       		.uleb128 0x1
 2404 0bcb 51       		.byte	0x51
 2405 0bcc 03       		.uleb128 0x3
 2406 0bcd F3       		.byte	0xf3
 2407 0bce 01       		.uleb128 0x1
 2408 0bcf 51       		.byte	0x51
 2409 0bd0 00       		.byte	0
 2410 0bd1 00       		.byte	0
 2411 0bd2 32       		.uleb128 0x32
 2412 0bd3 22050000 		.4byte	.LASF133
 2413 0bd7 02       		.byte	0x2
 2414 0bd8 34       		.byte	0x34
 2415 0bd9 58020000 		.4byte	0x258
 2416 0bdd 03       		.byte	0x3
 2417 0bde F80B0000 		.4byte	0xbf8
 2418 0be2 33       		.uleb128 0x33
 2419 0be3 74717000 		.ascii	"tqp\000"
 2420 0be7 02       		.byte	0x2
 2421 0be8 34       		.byte	0x34
 2422 0be9 F80B0000 		.4byte	0xbf8
 2423 0bed 34       		.uleb128 0x34
 2424 0bee 747000   		.ascii	"tp\000"
 2425 0bf1 02       		.byte	0x2
 2426 0bf2 35       		.byte	0x35
 2427 0bf3 58020000 		.4byte	0x258
 2428 0bf7 00       		.byte	0
 2429 0bf8 0B       		.uleb128 0xb
 2430 0bf9 04       		.byte	0x4
 2431 0bfa 5E020000 		.4byte	0x25e
 2432 0bfe 35       		.uleb128 0x35
 2433 0bff 11030000 		.4byte	.LASF134
 2434 0c03 02       		.byte	0x2
 2435 0c04 2D       		.byte	0x2d
 2436 0c05 03       		.byte	0x3
 2437 0c06 200C0000 		.4byte	0xc20
 2438 0c0a 33       		.uleb128 0x33
 2439 0c0b 747000   		.ascii	"tp\000"
 2440 0c0e 02       		.byte	0x2
 2441 0c0f 2D       		.byte	0x2d
 2442 0c10 58020000 		.4byte	0x258
 2443 0c14 33       		.uleb128 0x33
 2444 0c15 74717000 		.ascii	"tqp\000"
 2445 0c19 02       		.byte	0x2
 2446 0c1a 2D       		.byte	0x2d
 2447 0c1b F80B0000 		.4byte	0xbf8
 2448 0c1f 00       		.byte	0
 2449 0c20 36       		.uleb128 0x36
 2450 0c21 39050000 		.4byte	.LASF127
 2451 0c25 39050000 		.4byte	.LASF127
ARM GAS  /var/folders/3j/4xdnk5197cv_b7cw3n33qk7r0000gn/T//ccMhzYuE.s 			page 44


 2452 0c29 0B       		.byte	0xb
 2453 0c2a 89       		.byte	0x89
 2454 0c2b 36       		.uleb128 0x36
 2455 0c2c E2050000 		.4byte	.LASF128
 2456 0c30 E2050000 		.4byte	.LASF128
 2457 0c34 0B       		.byte	0xb
 2458 0c35 8F       		.byte	0x8f
 2459 0c36 00       		.byte	0
 2460              		.section	.debug_abbrev,"",%progbits
 2461              	.Ldebug_abbrev0:
 2462 0000 01       		.uleb128 0x1
 2463 0001 11       		.uleb128 0x11
 2464 0002 01       		.byte	0x1
 2465 0003 25       		.uleb128 0x25
 2466 0004 0E       		.uleb128 0xe
 2467 0005 13       		.uleb128 0x13
 2468 0006 0B       		.uleb128 0xb
 2469 0007 03       		.uleb128 0x3
 2470 0008 0E       		.uleb128 0xe
 2471 0009 1B       		.uleb128 0x1b
 2472 000a 0E       		.uleb128 0xe
 2473 000b 55       		.uleb128 0x55
 2474 000c 17       		.uleb128 0x17
 2475 000d 11       		.uleb128 0x11
 2476 000e 01       		.uleb128 0x1
 2477 000f 10       		.uleb128 0x10
 2478 0010 17       		.uleb128 0x17
 2479 0011 00       		.byte	0
 2480 0012 00       		.byte	0
 2481 0013 02       		.uleb128 0x2
 2482 0014 24       		.uleb128 0x24
 2483 0015 00       		.byte	0
 2484 0016 0B       		.uleb128 0xb
 2485 0017 0B       		.uleb128 0xb
 2486 0018 3E       		.uleb128 0x3e
 2487 0019 0B       		.uleb128 0xb
 2488 001a 03       		.uleb128 0x3
 2489 001b 08       		.uleb128 0x8
 2490 001c 00       		.byte	0
 2491 001d 00       		.byte	0
 2492 001e 03       		.uleb128 0x3
 2493 001f 16       		.uleb128 0x16
 2494 0020 00       		.byte	0
 2495 0021 03       		.uleb128 0x3
 2496 0022 0E       		.uleb128 0xe
 2497 0023 3A       		.uleb128 0x3a
 2498 0024 0B       		.uleb128 0xb
 2499 0025 3B       		.uleb128 0x3b
 2500 0026 0B       		.uleb128 0xb
 2501 0027 49       		.uleb128 0x49
 2502 0028 13       		.uleb128 0x13
 2503 0029 00       		.byte	0
 2504 002a 00       		.byte	0
 2505 002b 04       		.uleb128 0x4
 2506 002c 24       		.uleb128 0x24
 2507 002d 00       		.byte	0
 2508 002e 0B       		.uleb128 0xb
ARM GAS  /var/folders/3j/4xdnk5197cv_b7cw3n33qk7r0000gn/T//ccMhzYuE.s 			page 45


 2509 002f 0B       		.uleb128 0xb
 2510 0030 3E       		.uleb128 0x3e
 2511 0031 0B       		.uleb128 0xb
 2512 0032 03       		.uleb128 0x3
 2513 0033 0E       		.uleb128 0xe
 2514 0034 00       		.byte	0
 2515 0035 00       		.byte	0
 2516 0036 05       		.uleb128 0x5
 2517 0037 26       		.uleb128 0x26
 2518 0038 00       		.byte	0
 2519 0039 49       		.uleb128 0x49
 2520 003a 13       		.uleb128 0x13
 2521 003b 00       		.byte	0
 2522 003c 00       		.byte	0
 2523 003d 06       		.uleb128 0x6
 2524 003e 35       		.uleb128 0x35
 2525 003f 00       		.byte	0
 2526 0040 49       		.uleb128 0x49
 2527 0041 13       		.uleb128 0x13
 2528 0042 00       		.byte	0
 2529 0043 00       		.byte	0
 2530 0044 07       		.uleb128 0x7
 2531 0045 13       		.uleb128 0x13
 2532 0046 01       		.byte	0x1
 2533 0047 03       		.uleb128 0x3
 2534 0048 0E       		.uleb128 0xe
 2535 0049 0B       		.uleb128 0xb
 2536 004a 0B       		.uleb128 0xb
 2537 004b 3A       		.uleb128 0x3a
 2538 004c 0B       		.uleb128 0xb
 2539 004d 3B       		.uleb128 0x3b
 2540 004e 0B       		.uleb128 0xb
 2541 004f 01       		.uleb128 0x1
 2542 0050 13       		.uleb128 0x13
 2543 0051 00       		.byte	0
 2544 0052 00       		.byte	0
 2545 0053 08       		.uleb128 0x8
 2546 0054 0D       		.uleb128 0xd
 2547 0055 00       		.byte	0
 2548 0056 03       		.uleb128 0x3
 2549 0057 0E       		.uleb128 0xe
 2550 0058 3A       		.uleb128 0x3a
 2551 0059 0B       		.uleb128 0xb
 2552 005a 3B       		.uleb128 0x3b
 2553 005b 0B       		.uleb128 0xb
 2554 005c 49       		.uleb128 0x49
 2555 005d 13       		.uleb128 0x13
 2556 005e 38       		.uleb128 0x38
 2557 005f 0B       		.uleb128 0xb
 2558 0060 00       		.byte	0
 2559 0061 00       		.byte	0
 2560 0062 09       		.uleb128 0x9
 2561 0063 0D       		.uleb128 0xd
 2562 0064 00       		.byte	0
 2563 0065 03       		.uleb128 0x3
 2564 0066 08       		.uleb128 0x8
 2565 0067 3A       		.uleb128 0x3a
ARM GAS  /var/folders/3j/4xdnk5197cv_b7cw3n33qk7r0000gn/T//ccMhzYuE.s 			page 46


 2566 0068 0B       		.uleb128 0xb
 2567 0069 3B       		.uleb128 0x3b
 2568 006a 0B       		.uleb128 0xb
 2569 006b 49       		.uleb128 0x49
 2570 006c 13       		.uleb128 0x13
 2571 006d 38       		.uleb128 0x38
 2572 006e 0B       		.uleb128 0xb
 2573 006f 00       		.byte	0
 2574 0070 00       		.byte	0
 2575 0071 0A       		.uleb128 0xa
 2576 0072 13       		.uleb128 0x13
 2577 0073 01       		.byte	0x1
 2578 0074 0B       		.uleb128 0xb
 2579 0075 0B       		.uleb128 0xb
 2580 0076 3A       		.uleb128 0x3a
 2581 0077 0B       		.uleb128 0xb
 2582 0078 3B       		.uleb128 0x3b
 2583 0079 0B       		.uleb128 0xb
 2584 007a 01       		.uleb128 0x1
 2585 007b 13       		.uleb128 0x13
 2586 007c 00       		.byte	0
 2587 007d 00       		.byte	0
 2588 007e 0B       		.uleb128 0xb
 2589 007f 0F       		.uleb128 0xf
 2590 0080 00       		.byte	0
 2591 0081 0B       		.uleb128 0xb
 2592 0082 0B       		.uleb128 0xb
 2593 0083 49       		.uleb128 0x49
 2594 0084 13       		.uleb128 0x13
 2595 0085 00       		.byte	0
 2596 0086 00       		.byte	0
 2597 0087 0C       		.uleb128 0xc
 2598 0088 0F       		.uleb128 0xf
 2599 0089 00       		.byte	0
 2600 008a 0B       		.uleb128 0xb
 2601 008b 0B       		.uleb128 0xb
 2602 008c 00       		.byte	0
 2603 008d 00       		.byte	0
 2604 008e 0D       		.uleb128 0xd
 2605 008f 15       		.uleb128 0x15
 2606 0090 01       		.byte	0x1
 2607 0091 27       		.uleb128 0x27
 2608 0092 19       		.uleb128 0x19
 2609 0093 01       		.uleb128 0x1
 2610 0094 13       		.uleb128 0x13
 2611 0095 00       		.byte	0
 2612 0096 00       		.byte	0
 2613 0097 0E       		.uleb128 0xe
 2614 0098 05       		.uleb128 0x5
 2615 0099 00       		.byte	0
 2616 009a 49       		.uleb128 0x49
 2617 009b 13       		.uleb128 0x13
 2618 009c 00       		.byte	0
 2619 009d 00       		.byte	0
 2620 009e 0F       		.uleb128 0xf
 2621 009f 34       		.uleb128 0x34
 2622 00a0 00       		.byte	0
ARM GAS  /var/folders/3j/4xdnk5197cv_b7cw3n33qk7r0000gn/T//ccMhzYuE.s 			page 47


 2623 00a1 03       		.uleb128 0x3
 2624 00a2 0E       		.uleb128 0xe
 2625 00a3 3A       		.uleb128 0x3a
 2626 00a4 0B       		.uleb128 0xb
 2627 00a5 3B       		.uleb128 0x3b
 2628 00a6 0B       		.uleb128 0xb
 2629 00a7 49       		.uleb128 0x49
 2630 00a8 13       		.uleb128 0x13
 2631 00a9 3F       		.uleb128 0x3f
 2632 00aa 19       		.uleb128 0x19
 2633 00ab 3C       		.uleb128 0x3c
 2634 00ac 19       		.uleb128 0x19
 2635 00ad 00       		.byte	0
 2636 00ae 00       		.byte	0
 2637 00af 10       		.uleb128 0x10
 2638 00b0 17       		.uleb128 0x17
 2639 00b1 01       		.byte	0x1
 2640 00b2 0B       		.uleb128 0xb
 2641 00b3 0B       		.uleb128 0xb
 2642 00b4 3A       		.uleb128 0x3a
 2643 00b5 0B       		.uleb128 0xb
 2644 00b6 3B       		.uleb128 0x3b
 2645 00b7 0B       		.uleb128 0xb
 2646 00b8 01       		.uleb128 0x1
 2647 00b9 13       		.uleb128 0x13
 2648 00ba 00       		.byte	0
 2649 00bb 00       		.byte	0
 2650 00bc 11       		.uleb128 0x11
 2651 00bd 0D       		.uleb128 0xd
 2652 00be 00       		.byte	0
 2653 00bf 03       		.uleb128 0x3
 2654 00c0 0E       		.uleb128 0xe
 2655 00c1 3A       		.uleb128 0x3a
 2656 00c2 0B       		.uleb128 0xb
 2657 00c3 3B       		.uleb128 0x3b
 2658 00c4 0B       		.uleb128 0xb
 2659 00c5 49       		.uleb128 0x49
 2660 00c6 13       		.uleb128 0x13
 2661 00c7 00       		.byte	0
 2662 00c8 00       		.byte	0
 2663 00c9 12       		.uleb128 0x12
 2664 00ca 01       		.uleb128 0x1
 2665 00cb 01       		.byte	0x1
 2666 00cc 49       		.uleb128 0x49
 2667 00cd 13       		.uleb128 0x13
 2668 00ce 01       		.uleb128 0x1
 2669 00cf 13       		.uleb128 0x13
 2670 00d0 00       		.byte	0
 2671 00d1 00       		.byte	0
 2672 00d2 13       		.uleb128 0x13
 2673 00d3 21       		.uleb128 0x21
 2674 00d4 00       		.byte	0
 2675 00d5 49       		.uleb128 0x49
 2676 00d6 13       		.uleb128 0x13
 2677 00d7 2F       		.uleb128 0x2f
 2678 00d8 0B       		.uleb128 0xb
 2679 00d9 00       		.byte	0
ARM GAS  /var/folders/3j/4xdnk5197cv_b7cw3n33qk7r0000gn/T//ccMhzYuE.s 			page 48


 2680 00da 00       		.byte	0
 2681 00db 14       		.uleb128 0x14
 2682 00dc 2E       		.uleb128 0x2e
 2683 00dd 01       		.byte	0x1
 2684 00de 3F       		.uleb128 0x3f
 2685 00df 19       		.uleb128 0x19
 2686 00e0 03       		.uleb128 0x3
 2687 00e1 0E       		.uleb128 0xe
 2688 00e2 3A       		.uleb128 0x3a
 2689 00e3 0B       		.uleb128 0xb
 2690 00e4 3B       		.uleb128 0x3b
 2691 00e5 05       		.uleb128 0x5
 2692 00e6 27       		.uleb128 0x27
 2693 00e7 19       		.uleb128 0x19
 2694 00e8 49       		.uleb128 0x49
 2695 00e9 13       		.uleb128 0x13
 2696 00ea 11       		.uleb128 0x11
 2697 00eb 01       		.uleb128 0x1
 2698 00ec 12       		.uleb128 0x12
 2699 00ed 06       		.uleb128 0x6
 2700 00ee 40       		.uleb128 0x40
 2701 00ef 18       		.uleb128 0x18
 2702 00f0 9742     		.uleb128 0x2117
 2703 00f2 19       		.uleb128 0x19
 2704 00f3 01       		.uleb128 0x1
 2705 00f4 13       		.uleb128 0x13
 2706 00f5 00       		.byte	0
 2707 00f6 00       		.byte	0
 2708 00f7 15       		.uleb128 0x15
 2709 00f8 05       		.uleb128 0x5
 2710 00f9 00       		.byte	0
 2711 00fa 03       		.uleb128 0x3
 2712 00fb 08       		.uleb128 0x8
 2713 00fc 3A       		.uleb128 0x3a
 2714 00fd 0B       		.uleb128 0xb
 2715 00fe 3B       		.uleb128 0x3b
 2716 00ff 05       		.uleb128 0x5
 2717 0100 49       		.uleb128 0x49
 2718 0101 13       		.uleb128 0x13
 2719 0102 02       		.uleb128 0x2
 2720 0103 17       		.uleb128 0x17
 2721 0104 00       		.byte	0
 2722 0105 00       		.byte	0
 2723 0106 16       		.uleb128 0x16
 2724 0107 05       		.uleb128 0x5
 2725 0108 00       		.byte	0
 2726 0109 03       		.uleb128 0x3
 2727 010a 0E       		.uleb128 0xe
 2728 010b 3A       		.uleb128 0x3a
 2729 010c 0B       		.uleb128 0xb
 2730 010d 3B       		.uleb128 0x3b
 2731 010e 05       		.uleb128 0x5
 2732 010f 49       		.uleb128 0x49
 2733 0110 13       		.uleb128 0x13
 2734 0111 02       		.uleb128 0x2
 2735 0112 17       		.uleb128 0x17
 2736 0113 00       		.byte	0
ARM GAS  /var/folders/3j/4xdnk5197cv_b7cw3n33qk7r0000gn/T//ccMhzYuE.s 			page 49


 2737 0114 00       		.byte	0
 2738 0115 17       		.uleb128 0x17
 2739 0116 34       		.uleb128 0x34
 2740 0117 00       		.byte	0
 2741 0118 03       		.uleb128 0x3
 2742 0119 08       		.uleb128 0x8
 2743 011a 3A       		.uleb128 0x3a
 2744 011b 0B       		.uleb128 0xb
 2745 011c 3B       		.uleb128 0x3b
 2746 011d 05       		.uleb128 0x5
 2747 011e 49       		.uleb128 0x49
 2748 011f 13       		.uleb128 0x13
 2749 0120 02       		.uleb128 0x2
 2750 0121 18       		.uleb128 0x18
 2751 0122 00       		.byte	0
 2752 0123 00       		.byte	0
 2753 0124 18       		.uleb128 0x18
 2754 0125 34       		.uleb128 0x34
 2755 0126 00       		.byte	0
 2756 0127 03       		.uleb128 0x3
 2757 0128 08       		.uleb128 0x8
 2758 0129 3A       		.uleb128 0x3a
 2759 012a 0B       		.uleb128 0xb
 2760 012b 3B       		.uleb128 0x3b
 2761 012c 05       		.uleb128 0x5
 2762 012d 49       		.uleb128 0x49
 2763 012e 13       		.uleb128 0x13
 2764 012f 02       		.uleb128 0x2
 2765 0130 17       		.uleb128 0x17
 2766 0131 00       		.byte	0
 2767 0132 00       		.byte	0
 2768 0133 19       		.uleb128 0x19
 2769 0134 898201   		.uleb128 0x4109
 2770 0137 01       		.byte	0x1
 2771 0138 11       		.uleb128 0x11
 2772 0139 01       		.uleb128 0x1
 2773 013a 9342     		.uleb128 0x2113
 2774 013c 18       		.uleb128 0x18
 2775 013d 01       		.uleb128 0x1
 2776 013e 13       		.uleb128 0x13
 2777 013f 00       		.byte	0
 2778 0140 00       		.byte	0
 2779 0141 1A       		.uleb128 0x1a
 2780 0142 8A8201   		.uleb128 0x410a
 2781 0145 00       		.byte	0
 2782 0146 02       		.uleb128 0x2
 2783 0147 18       		.uleb128 0x18
 2784 0148 9142     		.uleb128 0x2111
 2785 014a 18       		.uleb128 0x18
 2786 014b 00       		.byte	0
 2787 014c 00       		.byte	0
 2788 014d 1B       		.uleb128 0x1b
 2789 014e 898201   		.uleb128 0x4109
 2790 0151 01       		.byte	0x1
 2791 0152 11       		.uleb128 0x11
 2792 0153 01       		.uleb128 0x1
 2793 0154 31       		.uleb128 0x31
ARM GAS  /var/folders/3j/4xdnk5197cv_b7cw3n33qk7r0000gn/T//ccMhzYuE.s 			page 50


 2794 0155 13       		.uleb128 0x13
 2795 0156 00       		.byte	0
 2796 0157 00       		.byte	0
 2797 0158 1C       		.uleb128 0x1c
 2798 0159 1D       		.uleb128 0x1d
 2799 015a 01       		.byte	0x1
 2800 015b 31       		.uleb128 0x31
 2801 015c 13       		.uleb128 0x13
 2802 015d 52       		.uleb128 0x52
 2803 015e 01       		.uleb128 0x1
 2804 015f 55       		.uleb128 0x55
 2805 0160 17       		.uleb128 0x17
 2806 0161 58       		.uleb128 0x58
 2807 0162 0B       		.uleb128 0xb
 2808 0163 59       		.uleb128 0x59
 2809 0164 05       		.uleb128 0x5
 2810 0165 01       		.uleb128 0x1
 2811 0166 13       		.uleb128 0x13
 2812 0167 00       		.byte	0
 2813 0168 00       		.byte	0
 2814 0169 1D       		.uleb128 0x1d
 2815 016a 05       		.uleb128 0x5
 2816 016b 00       		.byte	0
 2817 016c 31       		.uleb128 0x31
 2818 016d 13       		.uleb128 0x13
 2819 016e 02       		.uleb128 0x2
 2820 016f 17       		.uleb128 0x17
 2821 0170 00       		.byte	0
 2822 0171 00       		.byte	0
 2823 0172 1E       		.uleb128 0x1e
 2824 0173 0B       		.uleb128 0xb
 2825 0174 01       		.byte	0x1
 2826 0175 55       		.uleb128 0x55
 2827 0176 17       		.uleb128 0x17
 2828 0177 00       		.byte	0
 2829 0178 00       		.byte	0
 2830 0179 1F       		.uleb128 0x1f
 2831 017a 34       		.uleb128 0x34
 2832 017b 00       		.byte	0
 2833 017c 31       		.uleb128 0x31
 2834 017d 13       		.uleb128 0x13
 2835 017e 02       		.uleb128 0x2
 2836 017f 17       		.uleb128 0x17
 2837 0180 00       		.byte	0
 2838 0181 00       		.byte	0
 2839 0182 20       		.uleb128 0x20
 2840 0183 898201   		.uleb128 0x4109
 2841 0186 00       		.byte	0
 2842 0187 11       		.uleb128 0x11
 2843 0188 01       		.uleb128 0x1
 2844 0189 31       		.uleb128 0x31
 2845 018a 13       		.uleb128 0x13
 2846 018b 00       		.byte	0
 2847 018c 00       		.byte	0
 2848 018d 21       		.uleb128 0x21
 2849 018e 0B       		.uleb128 0xb
 2850 018f 01       		.byte	0x1
ARM GAS  /var/folders/3j/4xdnk5197cv_b7cw3n33qk7r0000gn/T//ccMhzYuE.s 			page 51


 2851 0190 55       		.uleb128 0x55
 2852 0191 17       		.uleb128 0x17
 2853 0192 01       		.uleb128 0x1
 2854 0193 13       		.uleb128 0x13
 2855 0194 00       		.byte	0
 2856 0195 00       		.byte	0
 2857 0196 22       		.uleb128 0x22
 2858 0197 898201   		.uleb128 0x4109
 2859 019a 01       		.byte	0x1
 2860 019b 11       		.uleb128 0x11
 2861 019c 01       		.uleb128 0x1
 2862 019d 00       		.byte	0
 2863 019e 00       		.byte	0
 2864 019f 23       		.uleb128 0x23
 2865 01a0 2E       		.uleb128 0x2e
 2866 01a1 01       		.byte	0x1
 2867 01a2 3F       		.uleb128 0x3f
 2868 01a3 19       		.uleb128 0x19
 2869 01a4 03       		.uleb128 0x3
 2870 01a5 0E       		.uleb128 0xe
 2871 01a6 3A       		.uleb128 0x3a
 2872 01a7 0B       		.uleb128 0xb
 2873 01a8 3B       		.uleb128 0x3b
 2874 01a9 05       		.uleb128 0x5
 2875 01aa 27       		.uleb128 0x27
 2876 01ab 19       		.uleb128 0x19
 2877 01ac 11       		.uleb128 0x11
 2878 01ad 01       		.uleb128 0x1
 2879 01ae 12       		.uleb128 0x12
 2880 01af 06       		.uleb128 0x6
 2881 01b0 40       		.uleb128 0x40
 2882 01b1 18       		.uleb128 0x18
 2883 01b2 9742     		.uleb128 0x2117
 2884 01b4 19       		.uleb128 0x19
 2885 01b5 01       		.uleb128 0x1
 2886 01b6 13       		.uleb128 0x13
 2887 01b7 00       		.byte	0
 2888 01b8 00       		.byte	0
 2889 01b9 24       		.uleb128 0x24
 2890 01ba 05       		.uleb128 0x5
 2891 01bb 00       		.byte	0
 2892 01bc 03       		.uleb128 0x3
 2893 01bd 08       		.uleb128 0x8
 2894 01be 3A       		.uleb128 0x3a
 2895 01bf 0B       		.uleb128 0xb
 2896 01c0 3B       		.uleb128 0x3b
 2897 01c1 05       		.uleb128 0x5
 2898 01c2 49       		.uleb128 0x49
 2899 01c3 13       		.uleb128 0x13
 2900 01c4 02       		.uleb128 0x2
 2901 01c5 18       		.uleb128 0x18
 2902 01c6 00       		.byte	0
 2903 01c7 00       		.byte	0
 2904 01c8 25       		.uleb128 0x25
 2905 01c9 05       		.uleb128 0x5
 2906 01ca 00       		.byte	0
 2907 01cb 03       		.uleb128 0x3
ARM GAS  /var/folders/3j/4xdnk5197cv_b7cw3n33qk7r0000gn/T//ccMhzYuE.s 			page 52


 2908 01cc 0E       		.uleb128 0xe
 2909 01cd 3A       		.uleb128 0x3a
 2910 01ce 0B       		.uleb128 0xb
 2911 01cf 3B       		.uleb128 0x3b
 2912 01d0 05       		.uleb128 0x5
 2913 01d1 49       		.uleb128 0x49
 2914 01d2 13       		.uleb128 0x13
 2915 01d3 02       		.uleb128 0x2
 2916 01d4 18       		.uleb128 0x18
 2917 01d5 00       		.byte	0
 2918 01d6 00       		.byte	0
 2919 01d7 26       		.uleb128 0x26
 2920 01d8 2E       		.uleb128 0x2e
 2921 01d9 01       		.byte	0x1
 2922 01da 3F       		.uleb128 0x3f
 2923 01db 19       		.uleb128 0x19
 2924 01dc 03       		.uleb128 0x3
 2925 01dd 0E       		.uleb128 0xe
 2926 01de 3A       		.uleb128 0x3a
 2927 01df 0B       		.uleb128 0xb
 2928 01e0 3B       		.uleb128 0x3b
 2929 01e1 0B       		.uleb128 0xb
 2930 01e2 27       		.uleb128 0x27
 2931 01e3 19       		.uleb128 0x19
 2932 01e4 49       		.uleb128 0x49
 2933 01e5 13       		.uleb128 0x13
 2934 01e6 11       		.uleb128 0x11
 2935 01e7 01       		.uleb128 0x1
 2936 01e8 12       		.uleb128 0x12
 2937 01e9 06       		.uleb128 0x6
 2938 01ea 40       		.uleb128 0x40
 2939 01eb 18       		.uleb128 0x18
 2940 01ec 9742     		.uleb128 0x2117
 2941 01ee 19       		.uleb128 0x19
 2942 01ef 01       		.uleb128 0x1
 2943 01f0 13       		.uleb128 0x13
 2944 01f1 00       		.byte	0
 2945 01f2 00       		.byte	0
 2946 01f3 27       		.uleb128 0x27
 2947 01f4 05       		.uleb128 0x5
 2948 01f5 00       		.byte	0
 2949 01f6 03       		.uleb128 0x3
 2950 01f7 08       		.uleb128 0x8
 2951 01f8 3A       		.uleb128 0x3a
 2952 01f9 0B       		.uleb128 0xb
 2953 01fa 3B       		.uleb128 0x3b
 2954 01fb 0B       		.uleb128 0xb
 2955 01fc 49       		.uleb128 0x49
 2956 01fd 13       		.uleb128 0x13
 2957 01fe 02       		.uleb128 0x2
 2958 01ff 17       		.uleb128 0x17
 2959 0200 00       		.byte	0
 2960 0201 00       		.byte	0
 2961 0202 28       		.uleb128 0x28
 2962 0203 05       		.uleb128 0x5
 2963 0204 00       		.byte	0
 2964 0205 03       		.uleb128 0x3
ARM GAS  /var/folders/3j/4xdnk5197cv_b7cw3n33qk7r0000gn/T//ccMhzYuE.s 			page 53


 2965 0206 0E       		.uleb128 0xe
 2966 0207 3A       		.uleb128 0x3a
 2967 0208 0B       		.uleb128 0xb
 2968 0209 3B       		.uleb128 0x3b
 2969 020a 0B       		.uleb128 0xb
 2970 020b 49       		.uleb128 0x49
 2971 020c 13       		.uleb128 0x13
 2972 020d 02       		.uleb128 0x2
 2973 020e 17       		.uleb128 0x17
 2974 020f 00       		.byte	0
 2975 0210 00       		.byte	0
 2976 0211 29       		.uleb128 0x29
 2977 0212 34       		.uleb128 0x34
 2978 0213 00       		.byte	0
 2979 0214 03       		.uleb128 0x3
 2980 0215 08       		.uleb128 0x8
 2981 0216 3A       		.uleb128 0x3a
 2982 0217 0B       		.uleb128 0xb
 2983 0218 3B       		.uleb128 0x3b
 2984 0219 0B       		.uleb128 0xb
 2985 021a 49       		.uleb128 0x49
 2986 021b 13       		.uleb128 0x13
 2987 021c 02       		.uleb128 0x2
 2988 021d 18       		.uleb128 0x18
 2989 021e 00       		.byte	0
 2990 021f 00       		.byte	0
 2991 0220 2A       		.uleb128 0x2a
 2992 0221 34       		.uleb128 0x34
 2993 0222 00       		.byte	0
 2994 0223 03       		.uleb128 0x3
 2995 0224 08       		.uleb128 0x8
 2996 0225 3A       		.uleb128 0x3a
 2997 0226 0B       		.uleb128 0xb
 2998 0227 3B       		.uleb128 0x3b
 2999 0228 0B       		.uleb128 0xb
 3000 0229 49       		.uleb128 0x49
 3001 022a 13       		.uleb128 0x13
 3002 022b 02       		.uleb128 0x2
 3003 022c 17       		.uleb128 0x17
 3004 022d 00       		.byte	0
 3005 022e 00       		.byte	0
 3006 022f 2B       		.uleb128 0x2b
 3007 0230 0B       		.uleb128 0xb
 3008 0231 01       		.byte	0x1
 3009 0232 11       		.uleb128 0x11
 3010 0233 01       		.uleb128 0x1
 3011 0234 12       		.uleb128 0x12
 3012 0235 06       		.uleb128 0x6
 3013 0236 01       		.uleb128 0x1
 3014 0237 13       		.uleb128 0x13
 3015 0238 00       		.byte	0
 3016 0239 00       		.byte	0
 3017 023a 2C       		.uleb128 0x2c
 3018 023b 1D       		.uleb128 0x1d
 3019 023c 01       		.byte	0x1
 3020 023d 31       		.uleb128 0x31
 3021 023e 13       		.uleb128 0x13
ARM GAS  /var/folders/3j/4xdnk5197cv_b7cw3n33qk7r0000gn/T//ccMhzYuE.s 			page 54


 3022 023f 52       		.uleb128 0x52
 3023 0240 01       		.uleb128 0x1
 3024 0241 55       		.uleb128 0x55
 3025 0242 17       		.uleb128 0x17
 3026 0243 58       		.uleb128 0x58
 3027 0244 0B       		.uleb128 0xb
 3028 0245 59       		.uleb128 0x59
 3029 0246 0B       		.uleb128 0xb
 3030 0247 01       		.uleb128 0x1
 3031 0248 13       		.uleb128 0x13
 3032 0249 00       		.byte	0
 3033 024a 00       		.byte	0
 3034 024b 2D       		.uleb128 0x2d
 3035 024c 2E       		.uleb128 0x2e
 3036 024d 01       		.byte	0x1
 3037 024e 3F       		.uleb128 0x3f
 3038 024f 19       		.uleb128 0x19
 3039 0250 03       		.uleb128 0x3
 3040 0251 0E       		.uleb128 0xe
 3041 0252 3A       		.uleb128 0x3a
 3042 0253 0B       		.uleb128 0xb
 3043 0254 3B       		.uleb128 0x3b
 3044 0255 0B       		.uleb128 0xb
 3045 0256 27       		.uleb128 0x27
 3046 0257 19       		.uleb128 0x19
 3047 0258 11       		.uleb128 0x11
 3048 0259 01       		.uleb128 0x1
 3049 025a 12       		.uleb128 0x12
 3050 025b 06       		.uleb128 0x6
 3051 025c 40       		.uleb128 0x40
 3052 025d 18       		.uleb128 0x18
 3053 025e 9742     		.uleb128 0x2117
 3054 0260 19       		.uleb128 0x19
 3055 0261 01       		.uleb128 0x1
 3056 0262 13       		.uleb128 0x13
 3057 0263 00       		.byte	0
 3058 0264 00       		.byte	0
 3059 0265 2E       		.uleb128 0x2e
 3060 0266 05       		.uleb128 0x5
 3061 0267 00       		.byte	0
 3062 0268 03       		.uleb128 0x3
 3063 0269 08       		.uleb128 0x8
 3064 026a 3A       		.uleb128 0x3a
 3065 026b 0B       		.uleb128 0xb
 3066 026c 3B       		.uleb128 0x3b
 3067 026d 0B       		.uleb128 0xb
 3068 026e 49       		.uleb128 0x49
 3069 026f 13       		.uleb128 0x13
 3070 0270 02       		.uleb128 0x2
 3071 0271 18       		.uleb128 0x18
 3072 0272 00       		.byte	0
 3073 0273 00       		.byte	0
 3074 0274 2F       		.uleb128 0x2f
 3075 0275 05       		.uleb128 0x5
 3076 0276 00       		.byte	0
 3077 0277 03       		.uleb128 0x3
 3078 0278 0E       		.uleb128 0xe
ARM GAS  /var/folders/3j/4xdnk5197cv_b7cw3n33qk7r0000gn/T//ccMhzYuE.s 			page 55


 3079 0279 3A       		.uleb128 0x3a
 3080 027a 0B       		.uleb128 0xb
 3081 027b 3B       		.uleb128 0x3b
 3082 027c 0B       		.uleb128 0xb
 3083 027d 49       		.uleb128 0x49
 3084 027e 13       		.uleb128 0x13
 3085 027f 02       		.uleb128 0x2
 3086 0280 18       		.uleb128 0x18
 3087 0281 00       		.byte	0
 3088 0282 00       		.byte	0
 3089 0283 30       		.uleb128 0x30
 3090 0284 2E       		.uleb128 0x2e
 3091 0285 01       		.byte	0x1
 3092 0286 03       		.uleb128 0x3
 3093 0287 0E       		.uleb128 0xe
 3094 0288 3A       		.uleb128 0x3a
 3095 0289 0B       		.uleb128 0xb
 3096 028a 3B       		.uleb128 0x3b
 3097 028b 0B       		.uleb128 0xb
 3098 028c 27       		.uleb128 0x27
 3099 028d 19       		.uleb128 0x19
 3100 028e 49       		.uleb128 0x49
 3101 028f 13       		.uleb128 0x13
 3102 0290 11       		.uleb128 0x11
 3103 0291 01       		.uleb128 0x1
 3104 0292 12       		.uleb128 0x12
 3105 0293 06       		.uleb128 0x6
 3106 0294 40       		.uleb128 0x40
 3107 0295 18       		.uleb128 0x18
 3108 0296 9742     		.uleb128 0x2117
 3109 0298 19       		.uleb128 0x19
 3110 0299 01       		.uleb128 0x1
 3111 029a 13       		.uleb128 0x13
 3112 029b 00       		.byte	0
 3113 029c 00       		.byte	0
 3114 029d 31       		.uleb128 0x31
 3115 029e 898201   		.uleb128 0x4109
 3116 02a1 01       		.byte	0x1
 3117 02a2 11       		.uleb128 0x11
 3118 02a3 01       		.uleb128 0x1
 3119 02a4 9542     		.uleb128 0x2115
 3120 02a6 19       		.uleb128 0x19
 3121 02a7 31       		.uleb128 0x31
 3122 02a8 13       		.uleb128 0x13
 3123 02a9 00       		.byte	0
 3124 02aa 00       		.byte	0
 3125 02ab 32       		.uleb128 0x32
 3126 02ac 2E       		.uleb128 0x2e
 3127 02ad 01       		.byte	0x1
 3128 02ae 03       		.uleb128 0x3
 3129 02af 0E       		.uleb128 0xe
 3130 02b0 3A       		.uleb128 0x3a
 3131 02b1 0B       		.uleb128 0xb
 3132 02b2 3B       		.uleb128 0x3b
 3133 02b3 0B       		.uleb128 0xb
 3134 02b4 27       		.uleb128 0x27
 3135 02b5 19       		.uleb128 0x19
ARM GAS  /var/folders/3j/4xdnk5197cv_b7cw3n33qk7r0000gn/T//ccMhzYuE.s 			page 56


 3136 02b6 49       		.uleb128 0x49
 3137 02b7 13       		.uleb128 0x13
 3138 02b8 20       		.uleb128 0x20
 3139 02b9 0B       		.uleb128 0xb
 3140 02ba 01       		.uleb128 0x1
 3141 02bb 13       		.uleb128 0x13
 3142 02bc 00       		.byte	0
 3143 02bd 00       		.byte	0
 3144 02be 33       		.uleb128 0x33
 3145 02bf 05       		.uleb128 0x5
 3146 02c0 00       		.byte	0
 3147 02c1 03       		.uleb128 0x3
 3148 02c2 08       		.uleb128 0x8
 3149 02c3 3A       		.uleb128 0x3a
 3150 02c4 0B       		.uleb128 0xb
 3151 02c5 3B       		.uleb128 0x3b
 3152 02c6 0B       		.uleb128 0xb
 3153 02c7 49       		.uleb128 0x49
 3154 02c8 13       		.uleb128 0x13
 3155 02c9 00       		.byte	0
 3156 02ca 00       		.byte	0
 3157 02cb 34       		.uleb128 0x34
 3158 02cc 34       		.uleb128 0x34
 3159 02cd 00       		.byte	0
 3160 02ce 03       		.uleb128 0x3
 3161 02cf 08       		.uleb128 0x8
 3162 02d0 3A       		.uleb128 0x3a
 3163 02d1 0B       		.uleb128 0xb
 3164 02d2 3B       		.uleb128 0x3b
 3165 02d3 0B       		.uleb128 0xb
 3166 02d4 49       		.uleb128 0x49
 3167 02d5 13       		.uleb128 0x13
 3168 02d6 00       		.byte	0
 3169 02d7 00       		.byte	0
 3170 02d8 35       		.uleb128 0x35
 3171 02d9 2E       		.uleb128 0x2e
 3172 02da 01       		.byte	0x1
 3173 02db 03       		.uleb128 0x3
 3174 02dc 0E       		.uleb128 0xe
 3175 02dd 3A       		.uleb128 0x3a
 3176 02de 0B       		.uleb128 0xb
 3177 02df 3B       		.uleb128 0x3b
 3178 02e0 0B       		.uleb128 0xb
 3179 02e1 27       		.uleb128 0x27
 3180 02e2 19       		.uleb128 0x19
 3181 02e3 20       		.uleb128 0x20
 3182 02e4 0B       		.uleb128 0xb
 3183 02e5 01       		.uleb128 0x1
 3184 02e6 13       		.uleb128 0x13
 3185 02e7 00       		.byte	0
 3186 02e8 00       		.byte	0
 3187 02e9 36       		.uleb128 0x36
 3188 02ea 2E       		.uleb128 0x2e
 3189 02eb 00       		.byte	0
 3190 02ec 3F       		.uleb128 0x3f
 3191 02ed 19       		.uleb128 0x19
 3192 02ee 3C       		.uleb128 0x3c
ARM GAS  /var/folders/3j/4xdnk5197cv_b7cw3n33qk7r0000gn/T//ccMhzYuE.s 			page 57


 3193 02ef 19       		.uleb128 0x19
 3194 02f0 6E       		.uleb128 0x6e
 3195 02f1 0E       		.uleb128 0xe
 3196 02f2 03       		.uleb128 0x3
 3197 02f3 0E       		.uleb128 0xe
 3198 02f4 3A       		.uleb128 0x3a
 3199 02f5 0B       		.uleb128 0xb
 3200 02f6 3B       		.uleb128 0x3b
 3201 02f7 0B       		.uleb128 0xb
 3202 02f8 00       		.byte	0
 3203 02f9 00       		.byte	0
 3204 02fa 00       		.byte	0
 3205              		.section	.debug_loc,"",%progbits
 3206              	.Ldebug_loc0:
 3207              	.LLST32:
 3208 0000 00000000 		.4byte	.LVL56
 3209 0004 20000000 		.4byte	.LVL58
 3210 0008 0100     		.2byte	0x1
 3211 000a 50       		.byte	0x50
 3212 000b 20000000 		.4byte	.LVL58
 3213 000f AC000000 		.4byte	.LFE17
 3214 0013 0100     		.2byte	0x1
 3215 0015 54       		.byte	0x54
 3216 0016 00000000 		.4byte	0
 3217 001a 00000000 		.4byte	0
 3218              	.LLST33:
 3219 001e 00000000 		.4byte	.LVL56
 3220 0022 20000000 		.4byte	.LVL58
 3221 0026 0100     		.2byte	0x1
 3222 0028 51       		.byte	0x51
 3223 0029 20000000 		.4byte	.LVL58
 3224 002d 28000000 		.4byte	.LVL59
 3225 0031 0100     		.2byte	0x1
 3226 0033 55       		.byte	0x55
 3227 0034 28000000 		.4byte	.LVL59
 3228 0038 AC000000 		.4byte	.LFE17
 3229 003c 0100     		.2byte	0x1
 3230 003e 5A       		.byte	0x5a
 3231 003f 00000000 		.4byte	0
 3232 0043 00000000 		.4byte	0
 3233              	.LLST34:
 3234 0047 00000000 		.4byte	.LVL56
 3235 004b 20000000 		.4byte	.LVL58
 3236 004f 0100     		.2byte	0x1
 3237 0051 52       		.byte	0x52
 3238 0052 20000000 		.4byte	.LVL58
 3239 0056 78000000 		.4byte	.LVL61
 3240 005a 0100     		.2byte	0x1
 3241 005c 56       		.byte	0x56
 3242 005d 78000000 		.4byte	.LVL61
 3243 0061 7C000000 		.4byte	.LVL62
 3244 0065 0300     		.2byte	0x3
 3245 0067 76       		.byte	0x76
 3246 0068 01       		.sleb128 1
 3247 0069 9F       		.byte	0x9f
 3248 006a 8C000000 		.4byte	.LVL63
 3249 006e A4000000 		.4byte	.LVL65
ARM GAS  /var/folders/3j/4xdnk5197cv_b7cw3n33qk7r0000gn/T//ccMhzYuE.s 			page 58


 3250 0072 0100     		.2byte	0x1
 3251 0074 56       		.byte	0x56
 3252 0075 00000000 		.4byte	0
 3253 0079 00000000 		.4byte	0
 3254              	.LLST35:
 3255 007d 00000000 		.4byte	.LVL56
 3256 0081 20000000 		.4byte	.LVL58
 3257 0085 0100     		.2byte	0x1
 3258 0087 53       		.byte	0x53
 3259 0088 20000000 		.4byte	.LVL58
 3260 008c AC000000 		.4byte	.LFE17
 3261 0090 0100     		.2byte	0x1
 3262 0092 59       		.byte	0x59
 3263 0093 00000000 		.4byte	0
 3264 0097 00000000 		.4byte	0
 3265              	.LLST36:
 3266 009b 18000000 		.4byte	.LVL57
 3267 009f 20000000 		.4byte	.LVL58
 3268 00a3 0200     		.2byte	0x2
 3269 00a5 30       		.byte	0x30
 3270 00a6 9F       		.byte	0x9f
 3271 00a7 20000000 		.4byte	.LVL58
 3272 00ab AC000000 		.4byte	.LFE17
 3273 00af 0100     		.2byte	0x1
 3274 00b1 57       		.byte	0x57
 3275 00b2 00000000 		.4byte	0
 3276 00b6 00000000 		.4byte	0
 3277              	.LLST28:
 3278 00ba 00000000 		.4byte	.LVL48
 3279 00be 54000000 		.4byte	.LVL51
 3280 00c2 0100     		.2byte	0x1
 3281 00c4 50       		.byte	0x50
 3282 00c5 54000000 		.4byte	.LVL51
 3283 00c9 5F000000 		.4byte	.LVL53-1
 3284 00cd 0100     		.2byte	0x1
 3285 00cf 53       		.byte	0x53
 3286 00d0 5F000000 		.4byte	.LVL53-1
 3287 00d4 70000000 		.4byte	.LVL54
 3288 00d8 0400     		.2byte	0x4
 3289 00da F3       		.byte	0xf3
 3290 00db 01       		.uleb128 0x1
 3291 00dc 50       		.byte	0x50
 3292 00dd 9F       		.byte	0x9f
 3293 00de 70000000 		.4byte	.LVL54
 3294 00e2 7C000000 		.4byte	.LVL55
 3295 00e6 0100     		.2byte	0x1
 3296 00e8 50       		.byte	0x50
 3297 00e9 7C000000 		.4byte	.LVL55
 3298 00ed 80000000 		.4byte	.LFE16
 3299 00f1 0400     		.2byte	0x4
 3300 00f3 F3       		.byte	0xf3
 3301 00f4 01       		.uleb128 0x1
 3302 00f5 50       		.byte	0x50
 3303 00f6 9F       		.byte	0x9f
 3304 00f7 00000000 		.4byte	0
 3305 00fb 00000000 		.4byte	0
 3306              	.LLST29:
ARM GAS  /var/folders/3j/4xdnk5197cv_b7cw3n33qk7r0000gn/T//ccMhzYuE.s 			page 59


 3307 00ff 34000000 		.4byte	.LVL49
 3308 0103 70000000 		.4byte	.LVL54
 3309 0107 0100     		.2byte	0x1
 3310 0109 54       		.byte	0x54
 3311 010a 00000000 		.4byte	0
 3312 010e 00000000 		.4byte	0
 3313              	.LLST30:
 3314 0112 4C000000 		.4byte	.LVL50
 3315 0116 5C000000 		.4byte	.LVL52
 3316 011a 0100     		.2byte	0x1
 3317 011c 53       		.byte	0x53
 3318 011d 00000000 		.4byte	0
 3319 0121 00000000 		.4byte	0
 3320              	.LLST31:
 3321 0125 4C000000 		.4byte	.LVL50
 3322 0129 5C000000 		.4byte	.LVL52
 3323 012d 0100     		.2byte	0x1
 3324 012f 52       		.byte	0x52
 3325 0130 00000000 		.4byte	0
 3326 0134 00000000 		.4byte	0
 3327              	.LLST24:
 3328 0138 00000000 		.4byte	.LVL42
 3329 013c 18000000 		.4byte	.LVL43
 3330 0140 0100     		.2byte	0x1
 3331 0142 50       		.byte	0x50
 3332 0143 18000000 		.4byte	.LVL43
 3333 0147 8C000000 		.4byte	.LFE15
 3334 014b 0100     		.2byte	0x1
 3335 014d 54       		.byte	0x54
 3336 014e 00000000 		.4byte	0
 3337 0152 00000000 		.4byte	0
 3338              	.LLST25:
 3339 0156 00000000 		.4byte	.LVL42
 3340 015a 18000000 		.4byte	.LVL43
 3341 015e 0100     		.2byte	0x1
 3342 0160 51       		.byte	0x51
 3343 0161 18000000 		.4byte	.LVL43
 3344 0165 8C000000 		.4byte	.LFE15
 3345 0169 0400     		.2byte	0x4
 3346 016b F3       		.byte	0xf3
 3347 016c 01       		.uleb128 0x1
 3348 016d 51       		.byte	0x51
 3349 016e 9F       		.byte	0x9f
 3350 016f 00000000 		.4byte	0
 3351 0173 00000000 		.4byte	0
 3352              	.LLST26:
 3353 0177 00000000 		.4byte	.LVL42
 3354 017b 18000000 		.4byte	.LVL43
 3355 017f 0100     		.2byte	0x1
 3356 0181 52       		.byte	0x52
 3357 0182 18000000 		.4byte	.LVL43
 3358 0186 8C000000 		.4byte	.LFE15
 3359 018a 0100     		.2byte	0x1
 3360 018c 55       		.byte	0x55
 3361 018d 00000000 		.4byte	0
 3362 0191 00000000 		.4byte	0
 3363              	.LLST27:
ARM GAS  /var/folders/3j/4xdnk5197cv_b7cw3n33qk7r0000gn/T//ccMhzYuE.s 			page 60


 3364 0195 24000000 		.4byte	.LVL44
 3365 0199 2C000000 		.4byte	.LVL45
 3366 019d 0100     		.2byte	0x1
 3367 019f 50       		.byte	0x50
 3368 01a0 84000000 		.4byte	.LVL47
 3369 01a4 8C000000 		.4byte	.LFE15
 3370 01a8 0100     		.2byte	0x1
 3371 01aa 50       		.byte	0x50
 3372 01ab 00000000 		.4byte	0
 3373 01af 00000000 		.4byte	0
 3374              	.LLST21:
 3375 01b3 00000000 		.4byte	.LVL38
 3376 01b7 30000000 		.4byte	.LVL39
 3377 01bb 0100     		.2byte	0x1
 3378 01bd 50       		.byte	0x50
 3379 01be 30000000 		.4byte	.LVL39
 3380 01c2 58000000 		.4byte	.LFE14
 3381 01c6 0100     		.2byte	0x1
 3382 01c8 54       		.byte	0x54
 3383 01c9 00000000 		.4byte	0
 3384 01cd 00000000 		.4byte	0
 3385              	.LLST22:
 3386 01d1 30000000 		.4byte	.LVL39
 3387 01d5 40000000 		.4byte	.LVL40
 3388 01d9 0100     		.2byte	0x1
 3389 01db 54       		.byte	0x54
 3390 01dc 00000000 		.4byte	0
 3391 01e0 00000000 		.4byte	0
 3392              	.LLST23:
 3393 01e4 30000000 		.4byte	.LVL39
 3394 01e8 40000000 		.4byte	.LVL40
 3395 01ec 0100     		.2byte	0x1
 3396 01ee 53       		.byte	0x53
 3397 01ef 00000000 		.4byte	0
 3398 01f3 00000000 		.4byte	0
 3399              	.LLST16:
 3400 01f7 00000000 		.4byte	.LVL28
 3401 01fb 20000000 		.4byte	.LVL30
 3402 01ff 0100     		.2byte	0x1
 3403 0201 50       		.byte	0x50
 3404 0202 20000000 		.4byte	.LVL30
 3405 0206 A8000000 		.4byte	.LFE12
 3406 020a 0100     		.2byte	0x1
 3407 020c 54       		.byte	0x54
 3408 020d 00000000 		.4byte	0
 3409 0211 00000000 		.4byte	0
 3410              	.LLST17:
 3411 0215 00000000 		.4byte	.LVL28
 3412 0219 20000000 		.4byte	.LVL30
 3413 021d 0100     		.2byte	0x1
 3414 021f 51       		.byte	0x51
 3415 0220 20000000 		.4byte	.LVL30
 3416 0224 70000000 		.4byte	.LVL33
 3417 0228 0100     		.2byte	0x1
 3418 022a 58       		.byte	0x58
 3419 022b 70000000 		.4byte	.LVL33
 3420 022f 9C000000 		.4byte	.LVL35
ARM GAS  /var/folders/3j/4xdnk5197cv_b7cw3n33qk7r0000gn/T//ccMhzYuE.s 			page 61


 3421 0233 0300     		.2byte	0x3
 3422 0235 78       		.byte	0x78
 3423 0236 7F       		.sleb128 -1
 3424 0237 9F       		.byte	0x9f
 3425 0238 9C000000 		.4byte	.LVL35
 3426 023c A0000000 		.4byte	.LVL36
 3427 0240 0100     		.2byte	0x1
 3428 0242 58       		.byte	0x58
 3429 0243 00000000 		.4byte	0
 3430 0247 00000000 		.4byte	0
 3431              	.LLST18:
 3432 024b 00000000 		.4byte	.LVL28
 3433 024f 20000000 		.4byte	.LVL30
 3434 0253 0100     		.2byte	0x1
 3435 0255 52       		.byte	0x52
 3436 0256 8C000000 		.4byte	.LVL34
 3437 025a 9C000000 		.4byte	.LVL35
 3438 025e 0600     		.2byte	0x6
 3439 0260 79       		.byte	0x79
 3440 0261 00       		.sleb128 0
 3441 0262 76       		.byte	0x76
 3442 0263 00       		.sleb128 0
 3443 0264 1C       		.byte	0x1c
 3444 0265 9F       		.byte	0x9f
 3445 0266 00000000 		.4byte	0
 3446 026a 00000000 		.4byte	0
 3447              	.LLST19:
 3448 026e 00000000 		.4byte	.LVL28
 3449 0272 20000000 		.4byte	.LVL30
 3450 0276 0100     		.2byte	0x1
 3451 0278 53       		.byte	0x53
 3452 0279 20000000 		.4byte	.LVL30
 3453 027d A8000000 		.4byte	.LFE12
 3454 0281 0100     		.2byte	0x1
 3455 0283 55       		.byte	0x55
 3456 0284 00000000 		.4byte	0
 3457 0288 00000000 		.4byte	0
 3458              	.LLST20:
 3459 028c 18000000 		.4byte	.LVL29
 3460 0290 20000000 		.4byte	.LVL30
 3461 0294 0200     		.2byte	0x2
 3462 0296 30       		.byte	0x30
 3463 0297 9F       		.byte	0x9f
 3464 0298 20000000 		.4byte	.LVL30
 3465 029c A8000000 		.4byte	.LFE12
 3466 02a0 0100     		.2byte	0x1
 3467 02a2 56       		.byte	0x56
 3468 02a3 00000000 		.4byte	0
 3469 02a7 00000000 		.4byte	0
 3470              	.LLST12:
 3471 02ab 00000000 		.4byte	.LVL22
 3472 02af 1F000000 		.4byte	.LVL23-1
 3473 02b3 0100     		.2byte	0x1
 3474 02b5 50       		.byte	0x50
 3475 02b6 1F000000 		.4byte	.LVL23-1
 3476 02ba 74000000 		.4byte	.LFE11
 3477 02be 0100     		.2byte	0x1
ARM GAS  /var/folders/3j/4xdnk5197cv_b7cw3n33qk7r0000gn/T//ccMhzYuE.s 			page 62


 3478 02c0 54       		.byte	0x54
 3479 02c1 00000000 		.4byte	0
 3480 02c5 00000000 		.4byte	0
 3481              	.LLST13:
 3482 02c9 00000000 		.4byte	.LVL22
 3483 02cd 1F000000 		.4byte	.LVL23-1
 3484 02d1 0100     		.2byte	0x1
 3485 02d3 51       		.byte	0x51
 3486 02d4 1F000000 		.4byte	.LVL23-1
 3487 02d8 74000000 		.4byte	.LFE11
 3488 02dc 0100     		.2byte	0x1
 3489 02de 55       		.byte	0x55
 3490 02df 00000000 		.4byte	0
 3491 02e3 00000000 		.4byte	0
 3492              	.LLST14:
 3493 02e7 68000000 		.4byte	.LVL26
 3494 02eb 6C000000 		.4byte	.LVL27
 3495 02ef 0100     		.2byte	0x1
 3496 02f1 50       		.byte	0x50
 3497 02f2 00000000 		.4byte	0
 3498 02f6 00000000 		.4byte	0
 3499              	.LLST15:
 3500 02fa 30000000 		.4byte	.LVL24
 3501 02fe 38000000 		.4byte	.LVL25
 3502 0302 0100     		.2byte	0x1
 3503 0304 50       		.byte	0x50
 3504 0305 00000000 		.4byte	0
 3505 0309 00000000 		.4byte	0
 3506              	.LLST8:
 3507 030d 00000000 		.4byte	.LVL12
 3508 0311 54000000 		.4byte	.LVL15
 3509 0315 0100     		.2byte	0x1
 3510 0317 50       		.byte	0x50
 3511 0318 54000000 		.4byte	.LVL15
 3512 031c 5F000000 		.4byte	.LVL17-1
 3513 0320 0100     		.2byte	0x1
 3514 0322 53       		.byte	0x53
 3515 0323 5F000000 		.4byte	.LVL17-1
 3516 0327 70000000 		.4byte	.LVL18
 3517 032b 0400     		.2byte	0x4
 3518 032d F3       		.byte	0xf3
 3519 032e 01       		.uleb128 0x1
 3520 032f 50       		.byte	0x50
 3521 0330 9F       		.byte	0x9f
 3522 0331 70000000 		.4byte	.LVL18
 3523 0335 74000000 		.4byte	.LVL19
 3524 0339 0100     		.2byte	0x1
 3525 033b 50       		.byte	0x50
 3526 033c 74000000 		.4byte	.LVL19
 3527 0340 78000000 		.4byte	.LVL20
 3528 0344 0400     		.2byte	0x4
 3529 0346 F3       		.byte	0xf3
 3530 0347 01       		.uleb128 0x1
 3531 0348 50       		.byte	0x50
 3532 0349 9F       		.byte	0x9f
 3533 034a 78000000 		.4byte	.LVL20
 3534 034e 84000000 		.4byte	.LVL21
ARM GAS  /var/folders/3j/4xdnk5197cv_b7cw3n33qk7r0000gn/T//ccMhzYuE.s 			page 63


 3535 0352 0100     		.2byte	0x1
 3536 0354 50       		.byte	0x50
 3537 0355 84000000 		.4byte	.LVL21
 3538 0359 88000000 		.4byte	.LFE10
 3539 035d 0400     		.2byte	0x4
 3540 035f F3       		.byte	0xf3
 3541 0360 01       		.uleb128 0x1
 3542 0361 50       		.byte	0x50
 3543 0362 9F       		.byte	0x9f
 3544 0363 00000000 		.4byte	0
 3545 0367 00000000 		.4byte	0
 3546              	.LLST9:
 3547 036b 00000000 		.4byte	.LVL12
 3548 036f 4C000000 		.4byte	.LVL14
 3549 0373 0100     		.2byte	0x1
 3550 0375 51       		.byte	0x51
 3551 0376 4C000000 		.4byte	.LVL14
 3552 037a 70000000 		.4byte	.LVL18
 3553 037e 0400     		.2byte	0x4
 3554 0380 F3       		.byte	0xf3
 3555 0381 01       		.uleb128 0x1
 3556 0382 51       		.byte	0x51
 3557 0383 9F       		.byte	0x9f
 3558 0384 70000000 		.4byte	.LVL18
 3559 0388 88000000 		.4byte	.LFE10
 3560 038c 0100     		.2byte	0x1
 3561 038e 51       		.byte	0x51
 3562 038f 00000000 		.4byte	0
 3563 0393 00000000 		.4byte	0
 3564              	.LLST10:
 3565 0397 48000000 		.4byte	.LVL13
 3566 039b 5C000000 		.4byte	.LVL16
 3567 039f 0100     		.2byte	0x1
 3568 03a1 53       		.byte	0x53
 3569 03a2 00000000 		.4byte	0
 3570 03a6 00000000 		.4byte	0
 3571              	.LLST11:
 3572 03aa 48000000 		.4byte	.LVL13
 3573 03ae 5C000000 		.4byte	.LVL16
 3574 03b2 0100     		.2byte	0x1
 3575 03b4 52       		.byte	0x52
 3576 03b5 00000000 		.4byte	0
 3577 03b9 00000000 		.4byte	0
 3578              	.LLST5:
 3579 03bd 00000000 		.4byte	.LVL8
 3580 03c1 2C000000 		.4byte	.LVL9
 3581 03c5 0100     		.2byte	0x1
 3582 03c7 50       		.byte	0x50
 3583 03c8 2C000000 		.4byte	.LVL9
 3584 03cc 54000000 		.4byte	.LFE9
 3585 03d0 0100     		.2byte	0x1
 3586 03d2 54       		.byte	0x54
 3587 03d3 00000000 		.4byte	0
 3588 03d7 00000000 		.4byte	0
 3589              	.LLST6:
 3590 03db 2C000000 		.4byte	.LVL9
 3591 03df 3C000000 		.4byte	.LVL10
ARM GAS  /var/folders/3j/4xdnk5197cv_b7cw3n33qk7r0000gn/T//ccMhzYuE.s 			page 64


 3592 03e3 0100     		.2byte	0x1
 3593 03e5 54       		.byte	0x54
 3594 03e6 00000000 		.4byte	0
 3595 03ea 00000000 		.4byte	0
 3596              	.LLST7:
 3597 03ee 2C000000 		.4byte	.LVL9
 3598 03f2 3C000000 		.4byte	.LVL10
 3599 03f6 0100     		.2byte	0x1
 3600 03f8 53       		.byte	0x53
 3601 03f9 00000000 		.4byte	0
 3602 03fd 00000000 		.4byte	0
 3603              	.LLST4:
 3604 0401 00000000 		.4byte	.LVL6
 3605 0405 10000000 		.4byte	.LVL7
 3606 0409 0100     		.2byte	0x1
 3607 040b 52       		.byte	0x52
 3608 040c 10000000 		.4byte	.LVL7
 3609 0410 38000000 		.4byte	.LFE8
 3610 0414 0400     		.2byte	0x4
 3611 0416 F3       		.byte	0xf3
 3612 0417 01       		.uleb128 0x1
 3613 0418 52       		.byte	0x52
 3614 0419 9F       		.byte	0x9f
 3615 041a 00000000 		.4byte	0
 3616 041e 00000000 		.4byte	0
 3617              	.LLST0:
 3618 0422 00000000 		.4byte	.LVL0
 3619 0426 1C000000 		.4byte	.LVL1
 3620 042a 0100     		.2byte	0x1
 3621 042c 50       		.byte	0x50
 3622 042d 1C000000 		.4byte	.LVL1
 3623 0431 2F000000 		.4byte	.LVL4-1
 3624 0435 0100     		.2byte	0x1
 3625 0437 52       		.byte	0x52
 3626 0438 2F000000 		.4byte	.LVL4-1
 3627 043c 30000000 		.4byte	.LVL4
 3628 0440 0400     		.2byte	0x4
 3629 0442 F3       		.byte	0xf3
 3630 0443 01       		.uleb128 0x1
 3631 0444 50       		.byte	0x50
 3632 0445 9F       		.byte	0x9f
 3633 0446 30000000 		.4byte	.LVL4
 3634 044a 34000000 		.4byte	.LVL5
 3635 044e 0100     		.2byte	0x1
 3636 0450 50       		.byte	0x50
 3637 0451 34000000 		.4byte	.LVL5
 3638 0455 3C000000 		.4byte	.LFE7
 3639 0459 0100     		.2byte	0x1
 3640 045b 52       		.byte	0x52
 3641 045c 00000000 		.4byte	0
 3642 0460 00000000 		.4byte	0
 3643              	.LLST1:
 3644 0464 00000000 		.4byte	.LVL0
 3645 0468 2F000000 		.4byte	.LVL4-1
 3646 046c 0100     		.2byte	0x1
 3647 046e 51       		.byte	0x51
 3648 046f 2F000000 		.4byte	.LVL4-1
ARM GAS  /var/folders/3j/4xdnk5197cv_b7cw3n33qk7r0000gn/T//ccMhzYuE.s 			page 65


 3649 0473 30000000 		.4byte	.LVL4
 3650 0477 0400     		.2byte	0x4
 3651 0479 F3       		.byte	0xf3
 3652 047a 01       		.uleb128 0x1
 3653 047b 51       		.byte	0x51
 3654 047c 9F       		.byte	0x9f
 3655 047d 30000000 		.4byte	.LVL4
 3656 0481 3C000000 		.4byte	.LFE7
 3657 0485 0100     		.2byte	0x1
 3658 0487 51       		.byte	0x51
 3659 0488 00000000 		.4byte	0
 3660 048c 00000000 		.4byte	0
 3661              	.LLST2:
 3662 0490 20000000 		.4byte	.LVL2
 3663 0494 2C000000 		.4byte	.LVL3
 3664 0498 0100     		.2byte	0x1
 3665 049a 52       		.byte	0x52
 3666 049b 00000000 		.4byte	0
 3667 049f 00000000 		.4byte	0
 3668              	.LLST3:
 3669 04a3 20000000 		.4byte	.LVL2
 3670 04a7 2C000000 		.4byte	.LVL3
 3671 04ab 0100     		.2byte	0x1
 3672 04ad 53       		.byte	0x53
 3673 04ae 00000000 		.4byte	0
 3674 04b2 00000000 		.4byte	0
 3675              		.section	.debug_aranges,"",%progbits
 3676 0000 6C000000 		.4byte	0x6c
 3677 0004 0200     		.2byte	0x2
 3678 0006 00000000 		.4byte	.Ldebug_info0
 3679 000a 04       		.byte	0x4
 3680 000b 00       		.byte	0
 3681 000c 0000     		.2byte	0
 3682 000e 0000     		.2byte	0
 3683 0010 00000000 		.4byte	.LFB7
 3684 0014 3C000000 		.4byte	.LFE7-.LFB7
 3685 0018 00000000 		.4byte	.LFB8
 3686 001c 38000000 		.4byte	.LFE8-.LFB8
 3687 0020 00000000 		.4byte	.LFB9
 3688 0024 54000000 		.4byte	.LFE9-.LFB9
 3689 0028 00000000 		.4byte	.LFB10
 3690 002c 88000000 		.4byte	.LFE10-.LFB10
 3691 0030 00000000 		.4byte	.LFB11
 3692 0034 74000000 		.4byte	.LFE11-.LFB11
 3693 0038 00000000 		.4byte	.LFB12
 3694 003c A8000000 		.4byte	.LFE12-.LFB12
 3695 0040 00000000 		.4byte	.LFB13
 3696 0044 34000000 		.4byte	.LFE13-.LFB13
 3697 0048 00000000 		.4byte	.LFB14
 3698 004c 58000000 		.4byte	.LFE14-.LFB14
 3699 0050 00000000 		.4byte	.LFB15
 3700 0054 8C000000 		.4byte	.LFE15-.LFB15
 3701 0058 00000000 		.4byte	.LFB16
 3702 005c 80000000 		.4byte	.LFE16-.LFB16
 3703 0060 00000000 		.4byte	.LFB17
 3704 0064 AC000000 		.4byte	.LFE17-.LFB17
 3705 0068 00000000 		.4byte	0
ARM GAS  /var/folders/3j/4xdnk5197cv_b7cw3n33qk7r0000gn/T//ccMhzYuE.s 			page 66


 3706 006c 00000000 		.4byte	0
 3707              		.section	.debug_ranges,"",%progbits
 3708              	.Ldebug_ranges0:
 3709 0000 10000000 		.4byte	.LBB12
 3710 0004 14000000 		.4byte	.LBE12
 3711 0008 20000000 		.4byte	.LBB15
 3712 000c 2C000000 		.4byte	.LBE15
 3713 0010 00000000 		.4byte	0
 3714 0014 00000000 		.4byte	0
 3715 0018 2C000000 		.4byte	.LBB16
 3716 001c 30000000 		.4byte	.LBE16
 3717 0020 34000000 		.4byte	.LBB19
 3718 0024 3C000000 		.4byte	.LBE19
 3719 0028 00000000 		.4byte	0
 3720 002c 00000000 		.4byte	0
 3721 0030 48000000 		.4byte	.LBB20
 3722 0034 4C000000 		.4byte	.LBE20
 3723 0038 54000000 		.4byte	.LBB23
 3724 003c 5C000000 		.4byte	.LBE23
 3725 0040 00000000 		.4byte	0
 3726 0044 00000000 		.4byte	0
 3727 0048 30000000 		.4byte	.LBB25
 3728 004c 34000000 		.4byte	.LBE25
 3729 0050 38000000 		.4byte	.LBB28
 3730 0054 40000000 		.4byte	.LBE28
 3731 0058 00000000 		.4byte	0
 3732 005c 00000000 		.4byte	0
 3733 0060 18000000 		.4byte	.LBB29
 3734 0064 2C000000 		.4byte	.LBE29
 3735 0068 84000000 		.4byte	.LBB30
 3736 006c 8C000000 		.4byte	.LBE30
 3737 0070 00000000 		.4byte	0
 3738 0074 00000000 		.4byte	0
 3739 0078 4C000000 		.4byte	.LBB31
 3740 007c 50000000 		.4byte	.LBE31
 3741 0080 54000000 		.4byte	.LBB34
 3742 0084 5C000000 		.4byte	.LBE34
 3743 0088 00000000 		.4byte	0
 3744 008c 00000000 		.4byte	0
 3745 0090 00000000 		.4byte	.LFB7
 3746 0094 3C000000 		.4byte	.LFE7
 3747 0098 00000000 		.4byte	.LFB8
 3748 009c 38000000 		.4byte	.LFE8
 3749 00a0 00000000 		.4byte	.LFB9
 3750 00a4 54000000 		.4byte	.LFE9
 3751 00a8 00000000 		.4byte	.LFB10
 3752 00ac 88000000 		.4byte	.LFE10
 3753 00b0 00000000 		.4byte	.LFB11
 3754 00b4 74000000 		.4byte	.LFE11
 3755 00b8 00000000 		.4byte	.LFB12
 3756 00bc A8000000 		.4byte	.LFE12
 3757 00c0 00000000 		.4byte	.LFB13
 3758 00c4 34000000 		.4byte	.LFE13
 3759 00c8 00000000 		.4byte	.LFB14
 3760 00cc 58000000 		.4byte	.LFE14
 3761 00d0 00000000 		.4byte	.LFB15
 3762 00d4 8C000000 		.4byte	.LFE15
ARM GAS  /var/folders/3j/4xdnk5197cv_b7cw3n33qk7r0000gn/T//ccMhzYuE.s 			page 67


 3763 00d8 00000000 		.4byte	.LFB16
 3764 00dc 80000000 		.4byte	.LFE16
 3765 00e0 00000000 		.4byte	.LFB17
 3766 00e4 AC000000 		.4byte	.LFE17
 3767 00e8 00000000 		.4byte	0
 3768 00ec 00000000 		.4byte	0
 3769              		.section	.debug_line,"",%progbits
 3770              	.Ldebug_line0:
 3771 0000 F0030000 		.section	.debug_str,"MS",%progbits,1
 3771      0200F801 
 3771      00000201 
 3771      FB0E0D00 
 3771      01010101 
 3772              	.LASF131:
 3773 0000 2F557365 		.ascii	"/Users/kevinmalmsten/development_raspberry_pi/Backu"
 3773      72732F6B 
 3773      6576696E 
 3773      6D616C6D 
 3773      7374656E 
 3774 0033 7053656E 		.ascii	"pSensor_ChibiOS/__Backup_System\000"
 3774      736F725F 
 3774      43686962 
 3774      694F532F 
 3774      5F5F4261 
 3775              	.LASF89:
 3776 0053 63665F6F 		.ascii	"cf_off_older\000"
 3776      66665F6F 
 3776      6C646572 
 3776      00
 3777              	.LASF42:
 3778 0060 705F6D73 		.ascii	"p_msg\000"
 3778      6700
 3779              	.LASF119:
 3780 0066 6F6E6679 		.ascii	"onfy\000"
 3780      00
 3781              	.LASF2:
 3782 006b 73697A65 		.ascii	"size_t\000"
 3782      5F7400
 3783              	.LASF74:
 3784 0072 7264796D 		.ascii	"rdymsg\000"
 3784      736700
 3785              	.LASF125:
 3786 0079 63684951 		.ascii	"chIQInit\000"
 3786      496E6974 
 3786      00
 3787              	.LASF110:
 3788 0082 4F757470 		.ascii	"OutputQueue\000"
 3788      75745175 
 3788      65756500 
 3789              	.LASF3:
 3790 008e 5F5F7569 		.ascii	"__uint8_t\000"
 3790      6E74385F 
 3790      7400
 3791              	.LASF68:
 3792 0098 76746C69 		.ascii	"vtlist\000"
 3792      737400
 3793              	.LASF121:
ARM GAS  /var/folders/3j/4xdnk5197cv_b7cw3n33qk7r0000gn/T//ccMhzYuE.s 			page 68


 3794 009f 63684951 		.ascii	"chIQReadTimeout\000"
 3794      52656164 
 3794      54696D65 
 3794      6F757400 
 3795              	.LASF103:
 3796 00af 715F746F 		.ascii	"q_top\000"
 3796      7000
 3797              	.LASF13:
 3798 00b5 6C6F6E67 		.ascii	"long long unsigned int\000"
 3798      206C6F6E 
 3798      6720756E 
 3798      7369676E 
 3798      65642069 
 3799              	.LASF85:
 3800 00cc 63685F74 		.ascii	"ch_threadsize\000"
 3800      68726561 
 3800      6473697A 
 3800      6500
 3801              	.LASF75:
 3802 00da 65786974 		.ascii	"exitcode\000"
 3802      636F6465 
 3802      00
 3803              	.LASF30:
 3804 00e3 705F7072 		.ascii	"p_prio\000"
 3804      696F00
 3805              	.LASF92:
 3806 00ea 63665F6F 		.ascii	"cf_off_state\000"
 3806      66665F73 
 3806      74617465 
 3806      00
 3807              	.LASF100:
 3808 00f7 715F7761 		.ascii	"q_waiting\000"
 3808      6974696E 
 3808      6700
 3809              	.LASF12:
 3810 0101 6C6F6E67 		.ascii	"long long int\000"
 3810      206C6F6E 
 3810      6720696E 
 3810      7400
 3811              	.LASF1:
 3812 010f 7369676E 		.ascii	"signed char\000"
 3812      65642063 
 3812      68617200 
 3813              	.LASF91:
 3814 011b 63665F6F 		.ascii	"cf_off_stklimit\000"
 3814      66665F73 
 3814      746B6C69 
 3814      6D697400 
 3815              	.LASF93:
 3816 012b 63665F6F 		.ascii	"cf_off_flags\000"
 3816      66665F66 
 3816      6C616773 
 3816      00
 3817              	.LASF18:
 3818 0138 626F6F6C 		.ascii	"bool_t\000"
 3818      5F7400
 3819              	.LASF71:
ARM GAS  /var/folders/3j/4xdnk5197cv_b7cw3n33qk7r0000gn/T//ccMhzYuE.s 			page 69


 3820 013f 6D5F7175 		.ascii	"m_queue\000"
 3820      65756500 
 3821              	.LASF129:
 3822 0147 474E5520 		.ascii	"GNU C11 7.3.1 20180622 (release) [ARM/embedded-7-br"
 3822      43313120 
 3822      372E332E 
 3822      31203230 
 3822      31383036 
 3823 017a 616E6368 		.ascii	"anch revision 261907] -mcpu=arm1176jz-s -mno-thumb-"
 3823      20726576 
 3823      6973696F 
 3823      6E203236 
 3823      31393037 
 3824 01ad 696E7465 		.ascii	"interwork -ggdb -O2 -fomit-frame-pointer -ffunction"
 3824      72776F72 
 3824      6B202D67 
 3824      67646220 
 3824      2D4F3220 
 3825 01e0 2D736563 		.ascii	"-sections -fdata-sections\000"
 3825      74696F6E 
 3825      73202D66 
 3825      64617461 
 3825      2D736563 
 3826              	.LASF132:
 3827 01fa 71776169 		.ascii	"qwait\000"
 3827      7400
 3828              	.LASF117:
 3829 0200 63684F51 		.ascii	"chOQInit\000"
 3829      496E6974 
 3829      00
 3830              	.LASF9:
 3831 0209 6C6F6E67 		.ascii	"long int\000"
 3831      20696E74 
 3831      00
 3832              	.LASF20:
 3833 0212 74737461 		.ascii	"tstate_t\000"
 3833      74655F74 
 3833      00
 3834              	.LASF114:
 3835 021b 63684F51 		.ascii	"chOQGetI\000"
 3835      47657449 
 3835      00
 3836              	.LASF102:
 3837 0224 715F6275 		.ascii	"q_buffer\000"
 3837      66666572 
 3837      00
 3838              	.LASF15:
 3839 022d 75696E74 		.ascii	"uint16_t\000"
 3839      31365F74 
 3839      00
 3840              	.LASF97:
 3841 0236 63686465 		.ascii	"chdebug_t\000"
 3841      6275675F 
 3841      7400
 3842              	.LASF32:
 3843 0240 705F6E65 		.ascii	"p_newer\000"
 3843      77657200 
ARM GAS  /var/folders/3j/4xdnk5197cv_b7cw3n33qk7r0000gn/T//ccMhzYuE.s 			page 70


 3844              	.LASF111:
 3845 0248 5F69646C 		.ascii	"_idle_thread_wa\000"
 3845      655F7468 
 3845      72656164 
 3845      5F776100 
 3846              	.LASF10:
 3847 0258 5F5F7569 		.ascii	"__uint32_t\000"
 3847      6E743332 
 3847      5F7400
 3848              	.LASF49:
 3849 0263 72656761 		.ascii	"regarm_t\000"
 3849      726D5F74 
 3849      00
 3850              	.LASF55:
 3851 026c 76745F70 		.ascii	"vt_prev\000"
 3851      72657600 
 3852              	.LASF120:
 3853 0274 6C696E6B 		.ascii	"link\000"
 3853      00
 3854              	.LASF115:
 3855 0279 63684F51 		.ascii	"chOQPutTimeout\000"
 3855      50757454 
 3855      696D656F 
 3855      757400
 3856              	.LASF123:
 3857 0288 63684951 		.ascii	"chIQPutI\000"
 3857      50757449 
 3857      00
 3858              	.LASF0:
 3859 0291 756E7369 		.ascii	"unsigned int\000"
 3859      676E6564 
 3859      20696E74 
 3859      00
 3860              	.LASF54:
 3861 029e 76745F6E 		.ascii	"vt_next\000"
 3861      65787400 
 3862              	.LASF124:
 3863 02a6 63684951 		.ascii	"chIQResetI\000"
 3863      52657365 
 3863      744900
 3864              	.LASF11:
 3865 02b1 6C6F6E67 		.ascii	"long unsigned int\000"
 3865      20756E73 
 3865      69676E65 
 3865      6420696E 
 3865      7400
 3866              	.LASF98:
 3867 02c3 63685F64 		.ascii	"ch_debug\000"
 3867      65627567 
 3867      00
 3868              	.LASF52:
 3869 02cc 76746675 		.ascii	"vtfunc_t\000"
 3869      6E635F74 
 3869      00
 3870              	.LASF79:
 3871 02d5 63685F69 		.ascii	"ch_identifier\000"
 3871      64656E74 
ARM GAS  /var/folders/3j/4xdnk5197cv_b7cw3n33qk7r0000gn/T//ccMhzYuE.s 			page 71


 3871      69666965 
 3871      7200
 3872              	.LASF51:
 3873 02e3 636F6E74 		.ascii	"context\000"
 3873      65787400 
 3874              	.LASF118:
 3875 02eb 73697A65 		.ascii	"size\000"
 3875      00
 3876              	.LASF7:
 3877 02f0 73686F72 		.ascii	"short unsigned int\000"
 3877      7420756E 
 3877      7369676E 
 3877      65642069 
 3877      6E7400
 3878              	.LASF24:
 3879 0303 6D73675F 		.ascii	"msg_t\000"
 3879      7400
 3880              	.LASF64:
 3881 0309 725F6E65 		.ascii	"r_newer\000"
 3881      77657200 
 3882              	.LASF134:
 3883 0311 71756575 		.ascii	"queue_insert\000"
 3883      655F696E 
 3883      73657274 
 3883      00
 3884              	.LASF19:
 3885 031e 746D6F64 		.ascii	"tmode_t\000"
 3885      655F7400 
 3886              	.LASF47:
 3887 0326 54687265 		.ascii	"ThreadsList\000"
 3887      6164734C 
 3887      69737400 
 3888              	.LASF25:
 3889 0332 6576656E 		.ascii	"eventmask_t\000"
 3889      746D6173 
 3889      6B5F7400 
 3890              	.LASF109:
 3891 033e 496E7075 		.ascii	"InputQueue\000"
 3891      74517565 
 3891      756500
 3892              	.LASF70:
 3893 0349 4D757465 		.ascii	"Mutex\000"
 3893      7800
 3894              	.LASF99:
 3895 034f 47656E65 		.ascii	"GenericQueue\000"
 3895      72696351 
 3895      75657565 
 3895      00
 3896              	.LASF48:
 3897 035c 73746B61 		.ascii	"stkalign_t\000"
 3897      6C69676E 
 3897      5F7400
 3898              	.LASF113:
 3899 0367 63684F51 		.ascii	"chOQWriteTimeout\000"
 3899      57726974 
 3899      6554696D 
 3899      656F7574 
ARM GAS  /var/folders/3j/4xdnk5197cv_b7cw3n33qk7r0000gn/T//ccMhzYuE.s 			page 72


 3899      00
 3900              	.LASF80:
 3901 0378 63685F7A 		.ascii	"ch_zero\000"
 3901      65726F00 
 3902              	.LASF94:
 3903 0380 63665F6F 		.ascii	"cf_off_refs\000"
 3903      66665F72 
 3903      65667300 
 3904              	.LASF56:
 3905 038c 76745F74 		.ascii	"vt_time\000"
 3905      696D6500 
 3906              	.LASF130:
 3907 0394 2E2E2F2F 		.ascii	"..//os/kernel/src/chqueues.c\000"
 3907      6F732F6B 
 3907      65726E65 
 3907      6C2F7372 
 3907      632F6368 
 3908              	.LASF101:
 3909 03b1 715F636F 		.ascii	"q_counter\000"
 3909      756E7465 
 3909      7200
 3910              	.LASF57:
 3911 03bb 76745F66 		.ascii	"vt_func\000"
 3911      756E6300 
 3912              	.LASF84:
 3913 03c3 63685F74 		.ascii	"ch_timesize\000"
 3913      696D6573 
 3913      697A6500 
 3914              	.LASF90:
 3915 03cf 63665F6F 		.ascii	"cf_off_name\000"
 3915      66665F6E 
 3915      616D6500 
 3916              	.LASF33:
 3917 03db 705F6F6C 		.ascii	"p_older\000"
 3917      64657200 
 3918              	.LASF104:
 3919 03e3 715F7772 		.ascii	"q_wrptr\000"
 3919      70747200 
 3920              	.LASF63:
 3921 03eb 725F6374 		.ascii	"r_ctx\000"
 3921      7800
 3922              	.LASF46:
 3923 03f1 54687265 		.ascii	"ThreadsQueue\000"
 3923      61647351 
 3923      75657565 
 3923      00
 3924              	.LASF81:
 3925 03fe 63685F73 		.ascii	"ch_size\000"
 3925      697A6500 
 3926              	.LASF112:
 3927 0406 74696D65 		.ascii	"time\000"
 3927      00
 3928              	.LASF66:
 3929 040b 725F6375 		.ascii	"r_current\000"
 3929      7272656E 
 3929      7400
 3930              	.LASF65:
ARM GAS  /var/folders/3j/4xdnk5197cv_b7cw3n33qk7r0000gn/T//ccMhzYuE.s 			page 73


 3931 0415 725F6F6C 		.ascii	"r_older\000"
 3931      64657200 
 3932              	.LASF21:
 3933 041d 74726566 		.ascii	"trefs_t\000"
 3933      735F7400 
 3934              	.LASF83:
 3935 0425 63685F70 		.ascii	"ch_ptrsize\000"
 3935      74727369 
 3935      7A6500
 3936              	.LASF108:
 3937 0430 716E6F74 		.ascii	"qnotify_t\000"
 3937      6966795F 
 3937      7400
 3938              	.LASF29:
 3939 043a 705F7072 		.ascii	"p_prev\000"
 3939      657600
 3940              	.LASF23:
 3941 0441 74707269 		.ascii	"tprio_t\000"
 3941      6F5F7400 
 3942              	.LASF105:
 3943 0449 715F7264 		.ascii	"q_rdptr\000"
 3943      70747200 
 3944              	.LASF16:
 3945 0451 696E7433 		.ascii	"int32_t\000"
 3945      325F7400 
 3946              	.LASF4:
 3947 0459 756E7369 		.ascii	"unsigned char\000"
 3947      676E6564 
 3947      20636861 
 3947      7200
 3948              	.LASF44:
 3949 0467 705F6D74 		.ascii	"p_mtxlist\000"
 3949      786C6973 
 3949      7400
 3950              	.LASF5:
 3951 0471 73686F72 		.ascii	"short int\000"
 3951      7420696E 
 3951      7400
 3952              	.LASF35:
 3953 047b 705F7374 		.ascii	"p_state\000"
 3953      61746500 
 3954              	.LASF38:
 3955 0483 705F7072 		.ascii	"p_preempt\000"
 3955      65656D70 
 3955      7400
 3956              	.LASF96:
 3957 048d 63665F6F 		.ascii	"cf_off_time\000"
 3957      66665F74 
 3957      696D6500 
 3958              	.LASF62:
 3959 0499 725F7072 		.ascii	"r_prio\000"
 3959      696F00
 3960              	.LASF77:
 3961 04a0 65776D61 		.ascii	"ewmask\000"
 3961      736B00
 3962              	.LASF28:
 3963 04a7 705F6E65 		.ascii	"p_next\000"
ARM GAS  /var/folders/3j/4xdnk5197cv_b7cw3n33qk7r0000gn/T//ccMhzYuE.s 			page 74


 3963      787400
 3964              	.LASF126:
 3965 04ae 696E6679 		.ascii	"infy\000"
 3965      00
 3966              	.LASF95:
 3967 04b3 63665F6F 		.ascii	"cf_off_preempt\000"
 3967      66665F70 
 3967      7265656D 
 3967      707400
 3968              	.LASF36:
 3969 04c2 705F666C 		.ascii	"p_flags\000"
 3969      61677300 
 3970              	.LASF27:
 3971 04ca 54687265 		.ascii	"Thread\000"
 3971      616400
 3972              	.LASF88:
 3973 04d1 63665F6F 		.ascii	"cf_off_newer\000"
 3973      66665F6E 
 3973      65776572 
 3973      00
 3974              	.LASF43:
 3975 04de 705F6570 		.ascii	"p_epending\000"
 3975      656E6469 
 3975      6E6700
 3976              	.LASF17:
 3977 04e9 75696E74 		.ascii	"uint32_t\000"
 3977      33325F74 
 3977      00
 3978              	.LASF86:
 3979 04f2 63665F6F 		.ascii	"cf_off_prio\000"
 3979      66665F70 
 3979      72696F00 
 3980              	.LASF61:
 3981 04fe 725F7175 		.ascii	"r_queue\000"
 3981      65756500 
 3982              	.LASF53:
 3983 0506 56697274 		.ascii	"VirtualTimer\000"
 3983      75616C54 
 3983      696D6572 
 3983      00
 3984              	.LASF22:
 3985 0513 74736C69 		.ascii	"tslices_t\000"
 3985      6365735F 
 3985      7400
 3986              	.LASF78:
 3987 051d 63686172 		.ascii	"char\000"
 3987      00
 3988              	.LASF133:
 3989 0522 6669666F 		.ascii	"fifo_remove\000"
 3989      5F72656D 
 3989      6F766500 
 3990              	.LASF6:
 3991 052e 5F5F7569 		.ascii	"__uint16_t\000"
 3991      6E743136 
 3991      5F7400
 3992              	.LASF127:
 3993 0539 63685363 		.ascii	"chSchReadyI\000"
ARM GAS  /var/folders/3j/4xdnk5197cv_b7cw3n33qk7r0000gn/T//ccMhzYuE.s 			page 75


 3993      68526561 
 3993      64794900 
 3994              	.LASF73:
 3995 0545 6D5F6E65 		.ascii	"m_next\000"
 3995      787400
 3996              	.LASF26:
 3997 054c 73797374 		.ascii	"systime_t\000"
 3997      696D655F 
 3997      7400
 3998              	.LASF45:
 3999 0556 705F7265 		.ascii	"p_realprio\000"
 3999      616C7072 
 3999      696F00
 4000              	.LASF8:
 4001 0561 5F5F696E 		.ascii	"__int32_t\000"
 4001      7433325F 
 4001      7400
 4002              	.LASF116:
 4003 056b 63684F51 		.ascii	"chOQResetI\000"
 4003      52657365 
 4003      744900
 4004              	.LASF39:
 4005 0576 705F7469 		.ascii	"p_time\000"
 4005      6D6500
 4006              	.LASF50:
 4007 057d 696E7463 		.ascii	"intctx\000"
 4007      747800
 4008              	.LASF41:
 4009 0584 705F6D73 		.ascii	"p_msgqueue\000"
 4009      67717565 
 4009      756500
 4010              	.LASF58:
 4011 058f 76745F70 		.ascii	"vt_par\000"
 4011      617200
 4012              	.LASF87:
 4013 0596 63665F6F 		.ascii	"cf_off_ctx\000"
 4013      66665F63 
 4013      747800
 4014              	.LASF37:
 4015 05a1 705F7265 		.ascii	"p_refs\000"
 4015      667300
 4016              	.LASF67:
 4017 05a8 52656164 		.ascii	"ReadyList\000"
 4017      794C6973 
 4017      7400
 4018              	.LASF106:
 4019 05b2 715F6E6F 		.ascii	"q_notify\000"
 4019      74696679 
 4019      00
 4020              	.LASF69:
 4021 05bb 726C6973 		.ascii	"rlist\000"
 4021      7400
 4022              	.LASF14:
 4023 05c1 75696E74 		.ascii	"uint8_t\000"
 4023      385F7400 
 4024              	.LASF76:
 4025 05c9 77746F62 		.ascii	"wtobjp\000"
ARM GAS  /var/folders/3j/4xdnk5197cv_b7cw3n33qk7r0000gn/T//ccMhzYuE.s 			page 76


 4025      6A7000
 4026              	.LASF34:
 4027 05d0 705F6E61 		.ascii	"p_name\000"
 4027      6D6500
 4028              	.LASF59:
 4029 05d7 76745F73 		.ascii	"vt_systime\000"
 4029      79737469 
 4029      6D6500
 4030              	.LASF128:
 4031 05e2 63685363 		.ascii	"chSchGoSleepTimeoutS\000"
 4031      68476F53 
 4031      6C656570 
 4031      54696D65 
 4031      6F757453 
 4032              	.LASF82:
 4033 05f7 63685F76 		.ascii	"ch_version\000"
 4033      65727369 
 4033      6F6E00
 4034              	.LASF60:
 4035 0602 56544C69 		.ascii	"VTList\000"
 4035      737400
 4036              	.LASF107:
 4037 0609 715F6C69 		.ascii	"q_link\000"
 4037      6E6B00
 4038              	.LASF72:
 4039 0610 6D5F6F77 		.ascii	"m_owner\000"
 4039      6E657200 
 4040              	.LASF31:
 4041 0618 705F6374 		.ascii	"p_ctx\000"
 4041      7800
 4042              	.LASF40:
 4043 061e 705F7761 		.ascii	"p_waiting\000"
 4043      6974696E 
 4043      6700
 4044              	.LASF122:
 4045 0628 63684951 		.ascii	"chIQGetTimeout\000"
 4045      47657454 
 4045      696D656F 
 4045      757400
 4046              		.ident	"GCC: (GNU Tools for Arm Embedded Processors 7-2018-q2-update) 7.3.1 20180622 (release) [AR
ARM GAS  /var/folders/3j/4xdnk5197cv_b7cw3n33qk7r0000gn/T//ccMhzYuE.s 			page 77


DEFINED SYMBOLS
                            *ABS*:0000000000000000 chqueues.c
/var/folders/3j/4xdnk5197cv_b7cw3n33qk7r0000gn/T//ccMhzYuE.s:16     .text.qwait:0000000000000000 $a
/var/folders/3j/4xdnk5197cv_b7cw3n33qk7r0000gn/T//ccMhzYuE.s:21     .text.qwait:0000000000000000 qwait
/var/folders/3j/4xdnk5197cv_b7cw3n33qk7r0000gn/T//ccMhzYuE.s:74     .text.qwait:0000000000000038 $d
/var/folders/3j/4xdnk5197cv_b7cw3n33qk7r0000gn/T//ccMhzYuE.s:79     .text.chIQInit:0000000000000000 $a
/var/folders/3j/4xdnk5197cv_b7cw3n33qk7r0000gn/T//ccMhzYuE.s:85     .text.chIQInit:0000000000000000 chIQInit
/var/folders/3j/4xdnk5197cv_b7cw3n33qk7r0000gn/T//ccMhzYuE.s:122    .text.chIQResetI:0000000000000000 $a
/var/folders/3j/4xdnk5197cv_b7cw3n33qk7r0000gn/T//ccMhzYuE.s:128    .text.chIQResetI:0000000000000000 chIQResetI
/var/folders/3j/4xdnk5197cv_b7cw3n33qk7r0000gn/T//ccMhzYuE.s:193    .text.chIQPutI:0000000000000000 $a
/var/folders/3j/4xdnk5197cv_b7cw3n33qk7r0000gn/T//ccMhzYuE.s:199    .text.chIQPutI:0000000000000000 chIQPutI
/var/folders/3j/4xdnk5197cv_b7cw3n33qk7r0000gn/T//ccMhzYuE.s:291    .text.chIQGetTimeout:0000000000000000 $a
/var/folders/3j/4xdnk5197cv_b7cw3n33qk7r0000gn/T//ccMhzYuE.s:297    .text.chIQGetTimeout:0000000000000000 chIQGetTimeout
/var/folders/3j/4xdnk5197cv_b7cw3n33qk7r0000gn/T//ccMhzYuE.s:379    .text.chIQReadTimeout:0000000000000000 $a
/var/folders/3j/4xdnk5197cv_b7cw3n33qk7r0000gn/T//ccMhzYuE.s:385    .text.chIQReadTimeout:0000000000000000 chIQReadTimeout
/var/folders/3j/4xdnk5197cv_b7cw3n33qk7r0000gn/T//ccMhzYuE.s:502    .text.chOQInit:0000000000000000 $a
/var/folders/3j/4xdnk5197cv_b7cw3n33qk7r0000gn/T//ccMhzYuE.s:508    .text.chOQInit:0000000000000000 chOQInit
/var/folders/3j/4xdnk5197cv_b7cw3n33qk7r0000gn/T//ccMhzYuE.s:543    .text.chOQResetI:0000000000000000 $a
/var/folders/3j/4xdnk5197cv_b7cw3n33qk7r0000gn/T//ccMhzYuE.s:549    .text.chOQResetI:0000000000000000 chOQResetI
/var/folders/3j/4xdnk5197cv_b7cw3n33qk7r0000gn/T//ccMhzYuE.s:616    .text.chOQPutTimeout:0000000000000000 $a
/var/folders/3j/4xdnk5197cv_b7cw3n33qk7r0000gn/T//ccMhzYuE.s:622    .text.chOQPutTimeout:0000000000000000 chOQPutTimeout
/var/folders/3j/4xdnk5197cv_b7cw3n33qk7r0000gn/T//ccMhzYuE.s:720    .text.chOQGetI:0000000000000000 $a
/var/folders/3j/4xdnk5197cv_b7cw3n33qk7r0000gn/T//ccMhzYuE.s:726    .text.chOQGetI:0000000000000000 chOQGetI
/var/folders/3j/4xdnk5197cv_b7cw3n33qk7r0000gn/T//ccMhzYuE.s:814    .text.chOQWriteTimeout:0000000000000000 $a
/var/folders/3j/4xdnk5197cv_b7cw3n33qk7r0000gn/T//ccMhzYuE.s:820    .text.chOQWriteTimeout:0000000000000000 chOQWriteTimeout

UNDEFINED SYMBOLS
chSchGoSleepTimeoutS
rlist
chSchReadyI
