ARM GAS  /var/folders/3j/4xdnk5197cv_b7cw3n33qk7r0000gn/T//ccjzjwHI.s 			page 1


   1              		.cpu arm1176jz-s
   2              		.eabi_attribute 20, 1
   3              		.eabi_attribute 21, 1
   4              		.eabi_attribute 23, 3
   5              		.eabi_attribute 24, 1
   6              		.eabi_attribute 25, 1
   7              		.eabi_attribute 26, 1
   8              		.eabi_attribute 30, 2
   9              		.eabi_attribute 34, 1
  10              		.eabi_attribute 18, 4
  11              		.file	"chschd.c"
  12              		.text
  13              	.Ltext0:
  14              		.cfi_sections	.debug_frame
  15              		.section	.text.wakeup,"ax",%progbits
  16              		.align	2
  17              		.syntax unified
  18              		.arm
  19              		.fpu softvfp
  20              		.type	wakeup, %function
  21              	wakeup:
  22              	.LFB10:
  23              		.file 1 "..//os/kernel/src/chschd.c"
  24              		.loc 1 129 0
  25              		.cfi_startproc
  26              		@ args = 0, pretend = 0, frame = 0
  27              		@ frame_needed = 0, uses_anonymous_args = 0
  28              		@ link register save eliminated.
  29              	.LVL0:
  30              		.loc 1 133 0
  31 0000 1C30D0E5 		ldrb	r3, [r0, #28]	@ zero_extendqisi2
  32 0004 0D0053E3 		cmp	r3, #13
  33 0008 03F19F97 		ldrls	pc, [pc, r3, asl #2]
  34 000c 150000EA 		b	.L2
  35              	.L4:
  36 0010 A8000000 		.word	.L1
  37 0014 68000000 		.word	.L2
  38 0018 68000000 		.word	.L2
  39 001c 48000000 		.word	.L5
  40 0020 68000000 		.word	.L2
  41 0024 58000000 		.word	.L6
  42 0028 68000000 		.word	.L2
  43 002c 68000000 		.word	.L2
  44 0030 68000000 		.word	.L2
  45 0034 68000000 		.word	.L2
  46 0038 68000000 		.word	.L2
  47 003c 68000000 		.word	.L2
  48 0040 68000000 		.word	.L2
  49 0044 58000000 		.word	.L6
  50              	.L5:
  51              		.loc 1 143 0
  52 0048 242090E5 		ldr	r2, [r0, #36]
  53 004c 083092E5 		ldr	r3, [r2, #8]
  54 0050 013083E2 		add	r3, r3, #1
  55 0054 083082E5 		str	r3, [r2, #8]
  56              	.L6:
  57              	.LVL1:
ARM GAS  /var/folders/3j/4xdnk5197cv_b7cw3n33qk7r0000gn/T//ccjzjwHI.s 			page 2


  58              	.LBB33:
  59              	.LBB34:
  60              		.file 2 "..//os/kernel/include/chinline.h"
  61              		.loc 2 68 0
  62 0058 D020C0E1 		ldrd	r2, [r0]
  63 005c 002083E5 		str	r2, [r3]
  64              		.loc 2 69 0
  65 0060 002090E5 		ldr	r2, [r0]
  66 0064 043082E5 		str	r3, [r2, #4]
  67              	.LVL2:
  68              	.L2:
  69              	.LBE34:
  70              	.LBE33:
  71              		.loc 1 156 0
  72 0068 00C0E0E3 		mvn	ip, #0
  73              	.LBB35:
  74              	.LBB36:
  75              		.loc 1 85 0
  76 006c 0020A0E3 		mov	r2, #0
  77              	.LBE36:
  78              	.LBE35:
  79              	.LBB38:
  80              	.LBB39:
  81              	.LBB40:
  82              	.LBB41:
  83              		.loc 1 89 0
  84 0070 081090E5 		ldr	r1, [r0, #8]
  85              		.loc 1 86 0
  86 0074 30309FE5 		ldr	r3, .L10
  87              	.LBE41:
  88              	.LBE40:
  89              	.LBE39:
  90              	.LBE38:
  91              		.loc 1 156 0
  92 0078 24C080E5 		str	ip, [r0, #36]
  93              	.LVL3:
  94              	.LBB45:
  95              	.LBB37:
  96              		.loc 1 85 0
  97 007c 1C20C0E5 		strb	r2, [r0, #28]
  98              	.LVL4:
  99              	.L7:
 100              	.LBE37:
 101              	.LBE45:
 102              	.LBB46:
 103              	.LBB44:
 104              	.LBB43:
 105              	.LBB42:
 106              		.loc 1 88 0
 107 0080 003093E5 		ldr	r3, [r3]
 108              	.LVL5:
 109              		.loc 1 89 0
 110 0084 082093E5 		ldr	r2, [r3, #8]
 111 0088 010052E1 		cmp	r2, r1
 112 008c FBFFFF2A 		bcs	.L7
 113              		.loc 1 92 0
 114 0090 042093E5 		ldr	r2, [r3, #4]
ARM GAS  /var/folders/3j/4xdnk5197cv_b7cw3n33qk7r0000gn/T//ccjzjwHI.s 			page 3


 115              		.loc 1 91 0
 116 0094 003080E5 		str	r3, [r0]
 117              		.loc 1 92 0
 118 0098 042080E5 		str	r2, [r0, #4]
 119              		.loc 1 93 0
 120 009c 040083E5 		str	r0, [r3, #4]
 121 00a0 043090E5 		ldr	r3, [r0, #4]
 122              	.LVL6:
 123 00a4 000083E5 		str	r0, [r3]
 124              	.LVL7:
 125              	.L1:
 126              	.LBE42:
 127              	.LBE43:
 128              	.LBE44:
 129              	.LBE46:
 130              		.loc 1 159 0
 131 00a8 1EFF2FE1 		bx	lr
 132              	.L11:
 133              		.align	2
 134              	.L10:
 135 00ac 00000000 		.word	rlist
 136              		.cfi_endproc
 137              	.LFE10:
 138              		.size	wakeup, .-wakeup
 139              		.section	.text._scheduler_init,"ax",%progbits
 140              		.align	2
 141              		.global	_scheduler_init
 142              		.syntax unified
 143              		.arm
 144              		.fpu softvfp
 145              		.type	_scheduler_init, %function
 146              	_scheduler_init:
 147              	.LFB7:
 148              		.loc 1 48 0
 149              		.cfi_startproc
 150              		@ args = 0, pretend = 0, frame = 0
 151              		@ frame_needed = 0, uses_anonymous_args = 0
 152              		@ link register save eliminated.
 153              		.loc 1 51 0
 154 0000 0020A0E3 		mov	r2, #0
 155              		.loc 1 50 0
 156 0004 14309FE5 		ldr	r3, .L13
 157              		.loc 1 51 0
 158 0008 082083E5 		str	r2, [r3, #8]
 159              		.loc 1 50 0
 160 000c 043083E5 		str	r3, [r3, #4]
 161 0010 003083E5 		str	r3, [r3]
 162              		.loc 1 53 0
 163 0014 143083E5 		str	r3, [r3, #20]
 164 0018 103083E5 		str	r3, [r3, #16]
 165              		.loc 1 55 0
 166 001c 1EFF2FE1 		bx	lr
 167              	.L14:
 168              		.align	2
 169              	.L13:
 170 0020 00000000 		.word	rlist
 171              		.cfi_endproc
ARM GAS  /var/folders/3j/4xdnk5197cv_b7cw3n33qk7r0000gn/T//ccjzjwHI.s 			page 4


 172              	.LFE7:
 173              		.size	_scheduler_init, .-_scheduler_init
 174              		.section	.text.chSchReadyI,"ax",%progbits
 175              		.align	2
 176              		.global	chSchReadyI
 177              		.syntax unified
 178              		.arm
 179              		.fpu softvfp
 180              		.type	chSchReadyI, %function
 181              	chSchReadyI:
 182              	.LFB8:
 183              		.loc 1 74 0
 184              		.cfi_startproc
 185              		@ args = 0, pretend = 0, frame = 0
 186              		@ frame_needed = 0, uses_anonymous_args = 0
 187              		@ link register save eliminated.
 188              	.LVL8:
 189              		.loc 1 74 0
 190 0000 0010A0E1 		mov	r1, r0
 191              		.loc 1 85 0
 192 0004 0020A0E3 		mov	r2, #0
 193              		.loc 1 86 0
 194 0008 34309FE5 		ldr	r3, .L18
 195              		.loc 1 89 0
 196 000c 080090E5 		ldr	r0, [r0, #8]
 197              	.LVL9:
 198              		.loc 1 85 0
 199 0010 1C20C1E5 		strb	r2, [r1, #28]
 200              	.LVL10:
 201              	.L16:
 202              		.loc 1 88 0 discriminator 1
 203 0014 003093E5 		ldr	r3, [r3]
 204              	.LVL11:
 205              		.loc 1 89 0 discriminator 1
 206 0018 082093E5 		ldr	r2, [r3, #8]
 207 001c 000052E1 		cmp	r2, r0
 208 0020 FBFFFF2A 		bcs	.L16
 209              		.loc 1 92 0
 210 0024 042093E5 		ldr	r2, [r3, #4]
 211              		.loc 1 91 0
 212 0028 003081E5 		str	r3, [r1]
 213              		.loc 1 92 0
 214 002c 042081E5 		str	r2, [r1, #4]
 215              		.loc 1 93 0
 216 0030 041083E5 		str	r1, [r3, #4]
 217 0034 043091E5 		ldr	r3, [r1, #4]
 218              	.LVL12:
 219              		.loc 1 95 0
 220 0038 0100A0E1 		mov	r0, r1
 221              		.loc 1 93 0
 222 003c 001083E5 		str	r1, [r3]
 223              	.LVL13:
 224              		.loc 1 95 0
 225 0040 1EFF2FE1 		bx	lr
 226              	.L19:
 227              		.align	2
 228              	.L18:
ARM GAS  /var/folders/3j/4xdnk5197cv_b7cw3n33qk7r0000gn/T//ccjzjwHI.s 			page 5


 229 0044 00000000 		.word	rlist
 230              		.cfi_endproc
 231              	.LFE8:
 232              		.size	chSchReadyI, .-chSchReadyI
 233              		.section	.text.chSchGoSleepS,"ax",%progbits
 234              		.align	2
 235              		.global	chSchGoSleepS
 236              		.syntax unified
 237              		.arm
 238              		.fpu softvfp
 239              		.type	chSchGoSleepS, %function
 240              	chSchGoSleepS:
 241              	.LFB9:
 242              		.loc 1 108 0
 243              		.cfi_startproc
 244              		@ args = 0, pretend = 0, frame = 0
 245              		@ frame_needed = 0, uses_anonymous_args = 0
 246              	.LVL14:
 247              		.loc 1 117 0
 248 0000 14C0A0E3 		mov	ip, #20
 249              		.loc 1 108 0
 250 0004 04E02DE5 		str	lr, [sp, #-4]!
 251              		.cfi_def_cfa_offset 4
 252              		.cfi_offset 14, -4
 253              		.loc 1 120 0
 254 0008 01E0A0E3 		mov	lr, #1
 255              		.loc 1 113 0
 256 000c 2C309FE5 		ldr	r3, .L22
 257 0010 181093E5 		ldr	r1, [r3, #24]
 258              	.LVL15:
 259              	.LBB47:
 260              	.LBB48:
 261              		.loc 2 53 0
 262 0014 002093E5 		ldr	r2, [r3]
 263              	.LBE48:
 264              	.LBE47:
 265              		.loc 1 113 0
 266 0018 1C00C1E5 		strb	r0, [r1, #28]
 267              		.loc 1 117 0
 268 001c 1FC0C1E5 		strb	ip, [r1, #31]
 269              	.LVL16:
 270              	.LBB52:
 271              	.LBB49:
 272              		.loc 2 55 0
 273 0020 00C092E5 		ldr	ip, [r2]
 274              	.LBE49:
 275              	.LBE52:
 276              		.loc 1 121 0
 277 0024 0200A0E1 		mov	r0, r2
 278              	.LVL17:
 279              	.LBB53:
 280              	.LBB50:
 281              		.loc 2 55 0
 282 0028 04308CE5 		str	r3, [ip, #4]
 283              	.LVL18:
 284              	.LBE50:
 285              	.LBE53:
ARM GAS  /var/folders/3j/4xdnk5197cv_b7cw3n33qk7r0000gn/T//ccjzjwHI.s 			page 6


 286              		.loc 1 120 0
 287 002c 1CE0C2E5 		strb	lr, [r2, #28]
 288              	.LBB54:
 289              	.LBB51:
 290              		.loc 2 55 0
 291 0030 00C083E5 		str	ip, [r3]
 292              	.LBE51:
 293              	.LBE54:
 294              		.loc 1 122 0
 295 0034 04E09DE4 		ldr	lr, [sp], #4
 296              		.cfi_restore 14
 297              		.cfi_def_cfa_offset 0
 298              		.loc 1 119 0
 299 0038 182083E5 		str	r2, [r3, #24]
 300              		.loc 1 121 0
 301 003c FEFFFFEA 		b	_port_switch_arm
 302              	.LVL19:
 303              	.L23:
 304              		.align	2
 305              	.L22:
 306 0040 00000000 		.word	rlist
 307              		.cfi_endproc
 308              	.LFE9:
 309              		.size	chSchGoSleepS, .-chSchGoSleepS
 310              		.section	.text.chSchGoSleepTimeoutS,"ax",%progbits
 311              		.align	2
 312              		.global	chSchGoSleepTimeoutS
 313              		.syntax unified
 314              		.arm
 315              		.fpu softvfp
 316              		.type	chSchGoSleepTimeoutS, %function
 317              	chSchGoSleepTimeoutS:
 318              	.LFB11:
 319              		.loc 1 182 0
 320              		.cfi_startproc
 321              		@ args = 0, pretend = 0, frame = 24
 322              		@ frame_needed = 0, uses_anonymous_args = 0
 323              	.LVL20:
 324 0000 30402DE9 		push	{r4, r5, lr}
 325              		.cfi_def_cfa_offset 12
 326              		.cfi_offset 4, -12
 327              		.cfi_offset 5, -8
 328              		.cfi_offset 14, -4
 329              		.loc 1 186 0
 330 0004 010071E3 		cmn	r1, #1
 331              		.loc 1 182 0
 332 0008 1CD04DE2 		sub	sp, sp, #28
 333              		.cfi_def_cfa_offset 40
 334              		.loc 1 186 0
 335 000c 1000000A 		beq	.L25
 336 0010 0050A0E1 		mov	r5, r0
 337              	.LBB55:
 338              		.loc 1 189 0
 339 0014 50409FE5 		ldr	r4, .L32
 340 0018 04008DE2 		add	r0, sp, #4
 341              	.LVL21:
 342 001c 183094E5 		ldr	r3, [r4, #24]
ARM GAS  /var/folders/3j/4xdnk5197cv_b7cw3n33qk7r0000gn/T//ccjzjwHI.s 			page 7


 343 0020 48209FE5 		ldr	r2, .L32+4
 344 0024 FEFFFFEB 		bl	chVTSetI
 345              	.LVL22:
 346              		.loc 1 190 0
 347 0028 0500A0E1 		mov	r0, r5
 348 002c FEFFFFEB 		bl	chSchGoSleepS
 349              	.LVL23:
 350              		.loc 1 191 0
 351 0030 10309DE5 		ldr	r3, [sp, #16]
 352 0034 000053E3 		cmp	r3, #0
 353 0038 0100000A 		beq	.L27
 354              		.loc 1 192 0
 355 003c 04008DE2 		add	r0, sp, #4
 356 0040 FEFFFFEB 		bl	chVTResetI
 357              	.LVL24:
 358              	.L27:
 359              	.LBE55:
 360              		.loc 1 196 0
 361 0044 183094E5 		ldr	r3, [r4, #24]
 362              		.loc 1 197 0
 363 0048 240093E5 		ldr	r0, [r3, #36]
 364 004c 1CD08DE2 		add	sp, sp, #28
 365              		.cfi_remember_state
 366              		.cfi_def_cfa_offset 12
 367              		@ sp needed
 368 0050 3080BDE8 		pop	{r4, r5, pc}
 369              	.LVL25:
 370              	.L25:
 371              		.cfi_restore_state
 372              		.loc 1 195 0
 373 0054 FEFFFFEB 		bl	chSchGoSleepS
 374              	.LVL26:
 375 0058 0C409FE5 		ldr	r4, .L32
 376              		.loc 1 196 0
 377 005c 183094E5 		ldr	r3, [r4, #24]
 378              		.loc 1 197 0
 379 0060 240093E5 		ldr	r0, [r3, #36]
 380 0064 1CD08DE2 		add	sp, sp, #28
 381              		.cfi_def_cfa_offset 12
 382              		@ sp needed
 383 0068 3080BDE8 		pop	{r4, r5, pc}
 384              	.L33:
 385              		.align	2
 386              	.L32:
 387 006c 00000000 		.word	rlist
 388 0070 00000000 		.word	wakeup
 389              		.cfi_endproc
 390              	.LFE11:
 391              		.size	chSchGoSleepTimeoutS, .-chSchGoSleepTimeoutS
 392              		.section	.text.chSchWakeupS,"ax",%progbits
 393              		.align	2
 394              		.global	chSchWakeupS
 395              		.syntax unified
 396              		.arm
 397              		.fpu softvfp
 398              		.type	chSchWakeupS, %function
 399              	chSchWakeupS:
ARM GAS  /var/folders/3j/4xdnk5197cv_b7cw3n33qk7r0000gn/T//ccjzjwHI.s 			page 8


 400              	.LFB12:
 401              		.loc 1 218 0
 402              		.cfi_startproc
 403              		@ args = 0, pretend = 0, frame = 0
 404              		@ frame_needed = 0, uses_anonymous_args = 0
 405              	.LVL27:
 406 0000 00C0A0E1 		mov	ip, r0
 407              		.loc 1 227 0
 408 0004 9C309FE5 		ldr	r3, .L43
 409              		.loc 1 218 0
 410 0008 10402DE9 		push	{r4, lr}
 411              		.cfi_def_cfa_offset 8
 412              		.cfi_offset 4, -8
 413              		.cfi_offset 14, -4
 414              		.loc 1 227 0
 415 000c 084090E5 		ldr	r4, [r0, #8]
 416 0010 180093E5 		ldr	r0, [r3, #24]
 417              	.LVL28:
 418              		.loc 1 222 0
 419 0014 24108CE5 		str	r1, [ip, #36]
 420              		.loc 1 227 0
 421 0018 08E090E5 		ldr	lr, [r0, #8]
 422 001c 0E0054E1 		cmp	r4, lr
 423 0020 0C00008A 		bhi	.L35
 424              	.LVL29:
 425              	.LBB56:
 426              	.LBB57:
 427              		.loc 1 85 0
 428 0024 0020A0E3 		mov	r2, #0
 429 0028 1C20CCE5 		strb	r2, [ip, #28]
 430              	.LVL30:
 431              	.L36:
 432              		.loc 1 88 0
 433 002c 003093E5 		ldr	r3, [r3]
 434              	.LVL31:
 435              		.loc 1 89 0
 436 0030 082093E5 		ldr	r2, [r3, #8]
 437 0034 020054E1 		cmp	r4, r2
 438 0038 FBFFFF9A 		bls	.L36
 439              		.loc 1 92 0
 440 003c 042093E5 		ldr	r2, [r3, #4]
 441              		.loc 1 91 0
 442 0040 00308CE5 		str	r3, [ip]
 443              		.loc 1 92 0
 444 0044 04208CE5 		str	r2, [ip, #4]
 445              		.loc 1 93 0
 446 0048 04C083E5 		str	ip, [r3, #4]
 447 004c 04309CE5 		ldr	r3, [ip, #4]
 448              	.LVL32:
 449 0050 00C083E5 		str	ip, [r3]
 450              	.LVL33:
 451              	.LBE57:
 452              	.LBE56:
 453              		.loc 1 235 0
 454 0054 1080BDE8 		pop	{r4, pc}
 455              	.LVL34:
 456              	.L35:
ARM GAS  /var/folders/3j/4xdnk5197cv_b7cw3n33qk7r0000gn/T//ccjzjwHI.s 			page 9


 457              	.LBB58:
 458              	.LBB59:
 459              	.LBB60:
 460              		.loc 1 85 0
 461 0058 0010A0E3 		mov	r1, #0
 462              	.LVL35:
 463              		.loc 1 86 0
 464 005c 0320A0E1 		mov	r2, r3
 465              		.loc 1 85 0
 466 0060 1C10C0E5 		strb	r1, [r0, #28]
 467              	.LVL36:
 468              	.L38:
 469              		.loc 1 88 0
 470 0064 002092E5 		ldr	r2, [r2]
 471              	.LVL37:
 472              		.loc 1 89 0
 473 0068 081092E5 		ldr	r1, [r2, #8]
 474 006c 01005EE1 		cmp	lr, r1
 475 0070 FBFFFF9A 		bls	.L38
 476              	.LBE60:
 477              	.LBE59:
 478              		.loc 1 232 0
 479 0074 01E0A0E3 		mov	lr, #1
 480              	.LBB63:
 481              	.LBB61:
 482              		.loc 1 92 0
 483 0078 041092E5 		ldr	r1, [r2, #4]
 484              		.loc 1 91 0
 485 007c 002080E5 		str	r2, [r0]
 486              		.loc 1 92 0
 487 0080 041080E5 		str	r1, [r0, #4]
 488              		.loc 1 93 0
 489 0084 040082E5 		str	r0, [r2, #4]
 490 0088 042090E5 		ldr	r2, [r0, #4]
 491              	.LVL38:
 492              	.LBE61:
 493              	.LBE63:
 494              		.loc 1 233 0
 495 008c 0010A0E1 		mov	r1, r0
 496              	.LBB64:
 497              	.LBB62:
 498              		.loc 1 93 0
 499 0090 000082E5 		str	r0, [r2]
 500              	.LVL39:
 501              	.LBE62:
 502              	.LBE64:
 503              		.loc 1 232 0
 504 0094 1CE0CCE5 		strb	lr, [ip, #28]
 505              		.loc 1 233 0
 506 0098 0C00A0E1 		mov	r0, ip
 507              	.LBE58:
 508              		.loc 1 235 0
 509 009c 1040BDE8 		pop	{r4, lr}
 510              		.cfi_restore 14
 511              		.cfi_restore 4
 512              		.cfi_def_cfa_offset 0
 513              	.LBB65:
ARM GAS  /var/folders/3j/4xdnk5197cv_b7cw3n33qk7r0000gn/T//ccjzjwHI.s 			page 10


 514              		.loc 1 231 0
 515 00a0 18C083E5 		str	ip, [r3, #24]
 516              		.loc 1 233 0
 517 00a4 FEFFFFEA 		b	_port_switch_arm
 518              	.LVL40:
 519              	.L44:
 520              		.align	2
 521              	.L43:
 522 00a8 00000000 		.word	rlist
 523              	.LBE65:
 524              		.cfi_endproc
 525              	.LFE12:
 526              		.size	chSchWakeupS, .-chSchWakeupS
 527              		.section	.text.chSchIsPreemptionRequired,"ax",%progbits
 528              		.align	2
 529              		.global	chSchIsPreemptionRequired
 530              		.syntax unified
 531              		.arm
 532              		.fpu softvfp
 533              		.type	chSchIsPreemptionRequired, %function
 534              	chSchIsPreemptionRequired:
 535              	.LFB14:
 536              		.loc 1 269 0
 537              		.cfi_startproc
 538              		@ args = 0, pretend = 0, frame = 0
 539              		@ frame_needed = 0, uses_anonymous_args = 0
 540              		@ link register save eliminated.
 541              		.loc 1 270 0
 542 0000 38209FE5 		ldr	r2, .L49
 543              		.loc 1 271 0
 544 0004 183092E5 		ldr	r3, [r2, #24]
 545              		.loc 1 270 0
 546 0008 001092E5 		ldr	r1, [r2]
 547              		.loc 1 277 0
 548 000c 1F20D3E5 		ldrb	r2, [r3, #31]	@ zero_extendqisi2
 549              		.loc 1 270 0
 550 0010 080091E5 		ldr	r0, [r1, #8]
 551              	.LVL41:
 552              		.loc 1 277 0
 553 0014 000052E3 		cmp	r2, #0
 554              		.loc 1 271 0
 555 0018 083093E5 		ldr	r3, [r3, #8]
 556              	.LVL42:
 557              		.loc 1 277 0
 558 001c 0300001A 		bne	.L48
 559              		.loc 1 277 0 is_stmt 0 discriminator 2
 560 0020 030050E1 		cmp	r0, r3
 561 0024 0000A033 		movcc	r0, #0
 562              	.LVL43:
 563 0028 0100A023 		movcs	r0, #1
 564              		.loc 1 283 0 is_stmt 1 discriminator 2
 565 002c 1EFF2FE1 		bx	lr
 566              	.LVL44:
 567              	.L48:
 568              		.loc 1 277 0 discriminator 1
 569 0030 030050E1 		cmp	r0, r3
 570 0034 0000A093 		movls	r0, #0
ARM GAS  /var/folders/3j/4xdnk5197cv_b7cw3n33qk7r0000gn/T//ccjzjwHI.s 			page 11


 571              	.LVL45:
 572 0038 0100A083 		movhi	r0, #1
 573 003c 1EFF2FE1 		bx	lr
 574              	.L50:
 575              		.align	2
 576              	.L49:
 577 0040 00000000 		.word	rlist
 578              		.cfi_endproc
 579              	.LFE14:
 580              		.size	chSchIsPreemptionRequired, .-chSchIsPreemptionRequired
 581              		.section	.text.chSchDoRescheduleBehind,"ax",%progbits
 582              		.align	2
 583              		.global	chSchDoRescheduleBehind
 584              		.syntax unified
 585              		.arm
 586              		.fpu softvfp
 587              		.type	chSchDoRescheduleBehind, %function
 588              	chSchDoRescheduleBehind:
 589              	.LFB15:
 590              		.loc 1 297 0
 591              		.cfi_startproc
 592              		@ args = 0, pretend = 0, frame = 0
 593              		@ frame_needed = 0, uses_anonymous_args = 0
 594 0000 30402DE9 		push	{r4, r5, lr}
 595              		.cfi_def_cfa_offset 12
 596              		.cfi_offset 4, -12
 597              		.cfi_offset 5, -8
 598              		.cfi_offset 14, -4
 599              		.loc 1 303 0
 600 0004 0150A0E3 		mov	r5, #1
 601              		.loc 1 305 0
 602 0008 1440A0E3 		mov	r4, #20
 603              	.LBB66:
 604              	.LBB67:
 605              		.loc 1 85 0
 606 000c 00E0A0E3 		mov	lr, #0
 607              	.LBE67:
 608              	.LBE66:
 609              		.loc 1 300 0
 610 0010 5C209FE5 		ldr	r2, .L56
 611              	.LBB72:
 612              	.LBB73:
 613              		.loc 2 53 0
 614 0014 000092E5 		ldr	r0, [r2]
 615              	.LBE73:
 616              	.LBE72:
 617              		.loc 1 300 0
 618 0018 181092E5 		ldr	r1, [r2, #24]
 619              	.LVL46:
 620              	.LBB77:
 621              	.LBB74:
 622              		.loc 2 55 0
 623 001c 00C090E5 		ldr	ip, [r0]
 624              	.LBE74:
 625              	.LBE77:
 626              	.LBB78:
 627              	.LBB68:
ARM GAS  /var/folders/3j/4xdnk5197cv_b7cw3n33qk7r0000gn/T//ccjzjwHI.s 			page 12


 628              		.loc 1 89 0
 629 0020 0030A0E1 		mov	r3, r0
 630              	.LBE68:
 631              	.LBE78:
 632              	.LBB79:
 633              	.LBB75:
 634              		.loc 2 55 0
 635 0024 04208CE5 		str	r2, [ip, #4]
 636              	.LVL47:
 637              	.LBE75:
 638              	.LBE79:
 639              		.loc 1 303 0
 640 0028 1C50C0E5 		strb	r5, [r0, #28]
 641              	.LBB80:
 642              	.LBB76:
 643              		.loc 2 55 0
 644 002c 00C082E5 		str	ip, [r2]
 645              	.LBE76:
 646              	.LBE80:
 647              		.loc 1 302 0
 648 0030 180082E5 		str	r0, [r2, #24]
 649              	.LBB81:
 650              	.LBB69:
 651              		.loc 1 89 0
 652 0034 08C091E5 		ldr	ip, [r1, #8]
 653              	.LBE69:
 654              	.LBE81:
 655              		.loc 1 305 0
 656 0038 1F40C1E5 		strb	r4, [r1, #31]
 657              	.LVL48:
 658              	.LBB82:
 659              	.LBB70:
 660              		.loc 1 85 0
 661 003c 1CE0C1E5 		strb	lr, [r1, #28]
 662              	.LVL49:
 663 0040 000000EA 		b	.L53
 664              	.LVL50:
 665              	.L55:
 666 0044 003093E5 		ldr	r3, [r3]
 667              	.L53:
 668              		.loc 1 89 0
 669 0048 082093E5 		ldr	r2, [r3, #8]
 670 004c 0C0052E1 		cmp	r2, ip
 671 0050 FBFFFF2A 		bcs	.L55
 672              	.LBE70:
 673              	.LBE82:
 674              		.loc 1 309 0
 675 0054 3040BDE8 		pop	{r4, r5, lr}
 676              		.cfi_restore 14
 677              		.cfi_restore 5
 678              		.cfi_restore 4
 679              		.cfi_def_cfa_offset 0
 680              	.LBB83:
 681              	.LBB71:
 682              		.loc 1 92 0
 683 0058 042093E5 		ldr	r2, [r3, #4]
 684              		.loc 1 91 0
ARM GAS  /var/folders/3j/4xdnk5197cv_b7cw3n33qk7r0000gn/T//ccjzjwHI.s 			page 13


 685 005c 003081E5 		str	r3, [r1]
 686              		.loc 1 92 0
 687 0060 042081E5 		str	r2, [r1, #4]
 688              		.loc 1 93 0
 689 0064 041083E5 		str	r1, [r3, #4]
 690 0068 043091E5 		ldr	r3, [r1, #4]
 691 006c 001083E5 		str	r1, [r3]
 692              	.LVL51:
 693              	.LBE71:
 694              	.LBE83:
 695              		.loc 1 308 0
 696 0070 FEFFFFEA 		b	_port_switch_arm
 697              	.LVL52:
 698              	.L57:
 699              		.align	2
 700              	.L56:
 701 0074 00000000 		.word	rlist
 702              		.cfi_endproc
 703              	.LFE15:
 704              		.size	chSchDoRescheduleBehind, .-chSchDoRescheduleBehind
 705              		.section	.text.chSchDoRescheduleAhead,"ax",%progbits
 706              		.align	2
 707              		.global	chSchDoRescheduleAhead
 708              		.syntax unified
 709              		.arm
 710              		.fpu softvfp
 711              		.type	chSchDoRescheduleAhead, %function
 712              	chSchDoRescheduleAhead:
 713              	.LFB16:
 714              		.loc 1 322 0
 715              		.cfi_startproc
 716              		@ args = 0, pretend = 0, frame = 0
 717              		@ frame_needed = 0, uses_anonymous_args = 0
 718 0000 10402DE9 		push	{r4, lr}
 719              		.cfi_def_cfa_offset 8
 720              		.cfi_offset 4, -8
 721              		.cfi_offset 14, -4
 722              		.loc 1 328 0
 723 0004 0140A0E3 		mov	r4, #1
 724              		.loc 1 330 0
 725 0008 00E0A0E3 		mov	lr, #0
 726              		.loc 1 325 0
 727 000c 58209FE5 		ldr	r2, .L63
 728              	.LBB84:
 729              	.LBB85:
 730              		.loc 2 53 0
 731 0010 000092E5 		ldr	r0, [r2]
 732              	.LBE85:
 733              	.LBE84:
 734              		.loc 1 325 0
 735 0014 181092E5 		ldr	r1, [r2, #24]
 736              	.LVL53:
 737              	.LBB89:
 738              	.LBB86:
 739              		.loc 2 55 0
 740 0018 00C090E5 		ldr	ip, [r0]
 741              	.LBE86:
ARM GAS  /var/folders/3j/4xdnk5197cv_b7cw3n33qk7r0000gn/T//ccjzjwHI.s 			page 14


 742              	.LBE89:
 743              		.loc 1 334 0
 744 001c 0030A0E1 		mov	r3, r0
 745              	.LBB90:
 746              	.LBB87:
 747              		.loc 2 55 0
 748 0020 04208CE5 		str	r2, [ip, #4]
 749              	.LVL54:
 750              	.LBE87:
 751              	.LBE90:
 752              		.loc 1 328 0
 753 0024 1C40C0E5 		strb	r4, [r0, #28]
 754              	.LBB91:
 755              	.LBB88:
 756              		.loc 2 55 0
 757 0028 00C082E5 		str	ip, [r2]
 758              	.LBE88:
 759              	.LBE91:
 760              		.loc 1 330 0
 761 002c 1CE0C1E5 		strb	lr, [r1, #28]
 762              	.LVL55:
 763              		.loc 1 334 0
 764 0030 08C091E5 		ldr	ip, [r1, #8]
 765              		.loc 1 327 0
 766 0034 180082E5 		str	r0, [r2, #24]
 767 0038 000000EA 		b	.L60
 768              	.LVL56:
 769              	.L62:
 770 003c 003093E5 		ldr	r3, [r3]
 771              	.L60:
 772              		.loc 1 334 0 discriminator 1
 773 0040 082093E5 		ldr	r2, [r3, #8]
 774 0044 0C0052E1 		cmp	r2, ip
 775 0048 FBFFFF8A 		bhi	.L62
 776              		.loc 1 341 0
 777 004c 1040BDE8 		pop	{r4, lr}
 778              		.cfi_restore 14
 779              		.cfi_restore 4
 780              		.cfi_def_cfa_offset 0
 781              		.loc 1 337 0
 782 0050 042093E5 		ldr	r2, [r3, #4]
 783              		.loc 1 336 0
 784 0054 003081E5 		str	r3, [r1]
 785              		.loc 1 337 0
 786 0058 042081E5 		str	r2, [r1, #4]
 787              		.loc 1 338 0
 788 005c 041083E5 		str	r1, [r3, #4]
 789 0060 043091E5 		ldr	r3, [r1, #4]
 790 0064 001083E5 		str	r1, [r3]
 791              		.loc 1 340 0
 792 0068 FEFFFFEA 		b	_port_switch_arm
 793              	.LVL57:
 794              	.L64:
 795              		.align	2
 796              	.L63:
 797 006c 00000000 		.word	rlist
 798              		.cfi_endproc
ARM GAS  /var/folders/3j/4xdnk5197cv_b7cw3n33qk7r0000gn/T//ccjzjwHI.s 			page 15


 799              	.LFE16:
 800              		.size	chSchDoRescheduleAhead, .-chSchDoRescheduleAhead
 801              		.section	.text.chSchRescheduleS,"ax",%progbits
 802              		.align	2
 803              		.global	chSchRescheduleS
 804              		.syntax unified
 805              		.arm
 806              		.fpu softvfp
 807              		.type	chSchRescheduleS, %function
 808              	chSchRescheduleS:
 809              	.LFB13:
 810              		.loc 1 246 0
 811              		.cfi_startproc
 812              		@ args = 0, pretend = 0, frame = 0
 813              		@ frame_needed = 0, uses_anonymous_args = 0
 814              		@ link register save eliminated.
 815              		.loc 1 250 0
 816 0000 18309FE5 		ldr	r3, .L67
 817 0004 002093E5 		ldr	r2, [r3]
 818 0008 183093E5 		ldr	r3, [r3, #24]
 819 000c 082092E5 		ldr	r2, [r2, #8]
 820 0010 083093E5 		ldr	r3, [r3, #8]
 821 0014 030052E1 		cmp	r2, r3
 822 0018 1EFF2F91 		bxls	lr
 823              		.loc 1 251 0
 824 001c FEFFFFEA 		b	chSchDoRescheduleAhead
 825              	.LVL58:
 826              	.L68:
 827              		.align	2
 828              	.L67:
 829 0020 00000000 		.word	rlist
 830              		.cfi_endproc
 831              	.LFE13:
 832              		.size	chSchRescheduleS, .-chSchRescheduleS
 833              		.section	.text.chSchDoReschedule,"ax",%progbits
 834              		.align	2
 835              		.global	chSchDoReschedule
 836              		.syntax unified
 837              		.arm
 838              		.fpu softvfp
 839              		.type	chSchDoReschedule, %function
 840              	chSchDoReschedule:
 841              	.LFB17:
 842              		.loc 1 355 0
 843              		.cfi_startproc
 844              		@ args = 0, pretend = 0, frame = 0
 845              		@ frame_needed = 0, uses_anonymous_args = 0
 846              		@ link register save eliminated.
 847              		.loc 1 360 0
 848 0000 14309FE5 		ldr	r3, .L72
 849 0004 183093E5 		ldr	r3, [r3, #24]
 850 0008 1F30D3E5 		ldrb	r3, [r3, #31]	@ zero_extendqisi2
 851 000c 000053E3 		cmp	r3, #0
 852 0010 0000000A 		beq	.L71
 853              		.loc 1 368 0
 854 0014 FEFFFFEA 		b	chSchDoRescheduleAhead
 855              	.LVL59:
ARM GAS  /var/folders/3j/4xdnk5197cv_b7cw3n33qk7r0000gn/T//ccjzjwHI.s 			page 16


 856              	.L71:
 857              		.loc 1 363 0
 858 0018 FEFFFFEA 		b	chSchDoRescheduleBehind
 859              	.LVL60:
 860              	.L73:
 861              		.align	2
 862              	.L72:
 863 001c 00000000 		.word	rlist
 864              		.cfi_endproc
 865              	.LFE17:
 866              		.size	chSchDoReschedule, .-chSchDoReschedule
 867              		.comm	rlist,28,4
 868              		.text
 869              	.Letext0:
 870              		.file 3 "/usr/local/Cellar/gcc-arm-none-eabi/20180627/arm-none-eabi/include/machine/_default_types
 871              		.file 4 "/usr/local/Cellar/gcc-arm-none-eabi/20180627/arm-none-eabi/include/sys/_stdint.h"
 872              		.file 5 "..//os/ports/GCC/ARM/chtypes.h"
 873              		.file 6 "..//os/kernel/include/chlists.h"
 874              		.file 7 "..//os/kernel/include/chthreads.h"
 875              		.file 8 "..//os/ports/GCC/ARM/chcore.h"
 876              		.file 9 "..//os/kernel/include/chvt.h"
 877              		.file 10 "..//os/kernel/include/chschd.h"
 878              		.file 11 "..//os/kernel/include/chsem.h"
 879              		.file 12 "..//os/kernel/include/chmtx.h"
 880              		.file 13 "..//os/kernel/include/chregistry.h"
 881              		.file 14 "..//os/kernel/include/ch.h"
 882              		.section	.debug_info,"",%progbits
 883              	.Ldebug_info0:
 884 0000 030B0000 		.4byte	0xb03
 885 0004 0400     		.2byte	0x4
 886 0006 00000000 		.4byte	.Ldebug_abbrev0
 887 000a 04       		.byte	0x4
 888 000b 01       		.uleb128 0x1
 889 000c 2D010000 		.4byte	.LASF118
 890 0010 0C       		.byte	0xc
 891 0011 E0010000 		.4byte	.LASF119
 892 0015 00000000 		.4byte	.LASF120
 893 0019 10010000 		.4byte	.Ldebug_ranges0+0x110
 894 001d 00000000 		.4byte	0
 895 0021 00000000 		.4byte	.Ldebug_line0
 896 0025 02       		.uleb128 0x2
 897 0026 04       		.byte	0x4
 898 0027 05       		.byte	0x5
 899 0028 696E7400 		.ascii	"int\000"
 900 002c 03       		.uleb128 0x3
 901 002d 04       		.byte	0x4
 902 002e 07       		.byte	0x7
 903 002f 9F020000 		.4byte	.LASF0
 904 0033 03       		.uleb128 0x3
 905 0034 01       		.byte	0x1
 906 0035 06       		.byte	0x6
 907 0036 F5000000 		.4byte	.LASF1
 908 003a 04       		.uleb128 0x4
 909 003b 84000000 		.4byte	.LASF4
 910 003f 03       		.byte	0x3
 911 0040 2B       		.byte	0x2b
 912 0041 45000000 		.4byte	0x45
ARM GAS  /var/folders/3j/4xdnk5197cv_b7cw3n33qk7r0000gn/T//ccjzjwHI.s 			page 17


 913 0045 03       		.uleb128 0x3
 914 0046 01       		.byte	0x1
 915 0047 08       		.byte	0x8
 916 0048 34040000 		.4byte	.LASF2
 917 004c 03       		.uleb128 0x3
 918 004d 02       		.byte	0x2
 919 004e 05       		.byte	0x5
 920 004f 55040000 		.4byte	.LASF3
 921 0053 04       		.uleb128 0x4
 922 0054 1B050000 		.4byte	.LASF5
 923 0058 03       		.byte	0x3
 924 0059 39       		.byte	0x39
 925 005a 5E000000 		.4byte	0x5e
 926 005e 03       		.uleb128 0x3
 927 005f 02       		.byte	0x2
 928 0060 07       		.byte	0x7
 929 0061 0C030000 		.4byte	.LASF6
 930 0065 04       		.uleb128 0x4
 931 0066 4E050000 		.4byte	.LASF7
 932 006a 03       		.byte	0x3
 933 006b 4D       		.byte	0x4d
 934 006c 70000000 		.4byte	0x70
 935 0070 03       		.uleb128 0x3
 936 0071 04       		.byte	0x4
 937 0072 05       		.byte	0x5
 938 0073 FB010000 		.4byte	.LASF8
 939 0077 04       		.uleb128 0x4
 940 0078 6B020000 		.4byte	.LASF9
 941 007c 03       		.byte	0x3
 942 007d 4F       		.byte	0x4f
 943 007e 82000000 		.4byte	0x82
 944 0082 03       		.uleb128 0x3
 945 0083 04       		.byte	0x4
 946 0084 07       		.byte	0x7
 947 0085 CC020000 		.4byte	.LASF10
 948 0089 03       		.uleb128 0x3
 949 008a 08       		.byte	0x8
 950 008b 05       		.byte	0x5
 951 008c E7000000 		.4byte	.LASF11
 952 0090 03       		.uleb128 0x3
 953 0091 08       		.byte	0x8
 954 0092 07       		.byte	0x7
 955 0093 95000000 		.4byte	.LASF12
 956 0097 04       		.uleb128 0x4
 957 0098 AF050000 		.4byte	.LASF13
 958 009c 04       		.byte	0x4
 959 009d 18       		.byte	0x18
 960 009e 3A000000 		.4byte	0x3a
 961 00a2 04       		.uleb128 0x4
 962 00a3 0D020000 		.4byte	.LASF14
 963 00a7 04       		.byte	0x4
 964 00a8 24       		.byte	0x24
 965 00a9 53000000 		.4byte	0x53
 966 00ad 04       		.uleb128 0x4
 967 00ae 2C040000 		.4byte	.LASF15
 968 00b2 04       		.byte	0x4
 969 00b3 2C       		.byte	0x2c
ARM GAS  /var/folders/3j/4xdnk5197cv_b7cw3n33qk7r0000gn/T//ccjzjwHI.s 			page 18


 970 00b4 65000000 		.4byte	0x65
 971 00b8 04       		.uleb128 0x4
 972 00b9 D6040000 		.4byte	.LASF16
 973 00bd 04       		.byte	0x4
 974 00be 30       		.byte	0x30
 975 00bf 77000000 		.4byte	0x77
 976 00c3 04       		.uleb128 0x4
 977 00c4 1E010000 		.4byte	.LASF17
 978 00c8 05       		.byte	0x5
 979 00c9 29       		.byte	0x29
 980 00ca AD000000 		.4byte	0xad
 981 00ce 04       		.uleb128 0x4
 982 00cf 3A030000 		.4byte	.LASF18
 983 00d3 05       		.byte	0x5
 984 00d4 2A       		.byte	0x2a
 985 00d5 97000000 		.4byte	0x97
 986 00d9 04       		.uleb128 0x4
 987 00da 04020000 		.4byte	.LASF19
 988 00de 05       		.byte	0x5
 989 00df 2B       		.byte	0x2b
 990 00e0 97000000 		.4byte	0x97
 991 00e4 04       		.uleb128 0x4
 992 00e5 0A040000 		.4byte	.LASF20
 993 00e9 05       		.byte	0x5
 994 00ea 2C       		.byte	0x2c
 995 00eb 97000000 		.4byte	0x97
 996 00ef 04       		.uleb128 0x4
 997 00f0 00050000 		.4byte	.LASF21
 998 00f4 05       		.byte	0x5
 999 00f5 2D       		.byte	0x2d
 1000 00f6 97000000 		.4byte	0x97
 1001 00fa 04       		.uleb128 0x4
 1002 00fb 24040000 		.4byte	.LASF22
 1003 00ff 05       		.byte	0x5
 1004 0100 2E       		.byte	0x2e
 1005 0101 B8000000 		.4byte	0xb8
 1006 0105 04       		.uleb128 0x4
 1007 0106 2C030000 		.4byte	.LASF23
 1008 010a 05       		.byte	0x5
 1009 010b 2F       		.byte	0x2f
 1010 010c AD000000 		.4byte	0xad
 1011 0110 04       		.uleb128 0x4
 1012 0111 4E030000 		.4byte	.LASF24
 1013 0115 05       		.byte	0x5
 1014 0116 31       		.byte	0x31
 1015 0117 B8000000 		.4byte	0xb8
 1016 011b 04       		.uleb128 0x4
 1017 011c 39050000 		.4byte	.LASF25
 1018 0120 05       		.byte	0x5
 1019 0121 33       		.byte	0x33
 1020 0122 B8000000 		.4byte	0xb8
 1021 0126 05       		.uleb128 0x5
 1022 0127 1B010000 		.4byte	0x11b
 1023 012b 04       		.uleb128 0x4
 1024 012c 99020000 		.4byte	.LASF26
 1025 0130 05       		.byte	0x5
 1026 0131 34       		.byte	0x34
ARM GAS  /var/folders/3j/4xdnk5197cv_b7cw3n33qk7r0000gn/T//ccjzjwHI.s 			page 19


 1027 0132 AD000000 		.4byte	0xad
 1028 0136 04       		.uleb128 0x4
 1029 0137 A9040000 		.4byte	.LASF27
 1030 013b 06       		.byte	0x6
 1031 013c 23       		.byte	0x23
 1032 013d 41010000 		.4byte	0x141
 1033 0141 06       		.uleb128 0x6
 1034 0142 A9040000 		.4byte	.LASF27
 1035 0146 44       		.byte	0x44
 1036 0147 07       		.byte	0x7
 1037 0148 57       		.byte	0x57
 1038 0149 32020000 		.4byte	0x232
 1039 014d 07       		.uleb128 0x7
 1040 014e 8B040000 		.4byte	.LASF28
 1041 0152 07       		.byte	0x7
 1042 0153 58       		.byte	0x58
 1043 0154 53020000 		.4byte	0x253
 1044 0158 00       		.byte	0
 1045 0159 07       		.uleb128 0x7
 1046 015a 1D040000 		.4byte	.LASF29
 1047 015e 07       		.byte	0x7
 1048 015f 5A       		.byte	0x5a
 1049 0160 53020000 		.4byte	0x253
 1050 0164 04       		.byte	0x4
 1051 0165 07       		.uleb128 0x7
 1052 0166 C3000000 		.4byte	.LASF30
 1053 016a 07       		.byte	0x7
 1054 016b 5C       		.byte	0x5c
 1055 016c FA000000 		.4byte	0xfa
 1056 0170 08       		.byte	0x8
 1057 0171 07       		.uleb128 0x7
 1058 0172 FF050000 		.4byte	.LASF31
 1059 0176 07       		.byte	0x7
 1060 0177 5D       		.byte	0x5d
 1061 0178 0E030000 		.4byte	0x30e
 1062 017c 0C       		.byte	0xc
 1063 017d 07       		.uleb128 0x7
 1064 017e 3A020000 		.4byte	.LASF32
 1065 0182 07       		.byte	0x7
 1066 0183 5F       		.byte	0x5f
 1067 0184 53020000 		.4byte	0x253
 1068 0188 10       		.byte	0x10
 1069 0189 07       		.uleb128 0x7
 1070 018a D0030000 		.4byte	.LASF33
 1071 018e 07       		.byte	0x7
 1072 018f 60       		.byte	0x60
 1073 0190 53020000 		.4byte	0x253
 1074 0194 14       		.byte	0x14
 1075 0195 07       		.uleb128 0x7
 1076 0196 BE050000 		.4byte	.LASF34
 1077 019a 07       		.byte	0x7
 1078 019b 67       		.byte	0x67
 1079 019c 00050000 		.4byte	0x500
 1080 01a0 18       		.byte	0x18
 1081 01a1 07       		.uleb128 0x7
 1082 01a2 5F040000 		.4byte	.LASF35
 1083 01a6 07       		.byte	0x7
ARM GAS  /var/folders/3j/4xdnk5197cv_b7cw3n33qk7r0000gn/T//ccjzjwHI.s 			page 20


 1084 01a7 72       		.byte	0x72
 1085 01a8 D9000000 		.4byte	0xd9
 1086 01ac 1C       		.byte	0x1c
 1087 01ad 07       		.uleb128 0x7
 1088 01ae A1040000 		.4byte	.LASF36
 1089 01b2 07       		.byte	0x7
 1090 01b3 76       		.byte	0x76
 1091 01b4 CE000000 		.4byte	0xce
 1092 01b8 1D       		.byte	0x1d
 1093 01b9 07       		.uleb128 0x7
 1094 01ba 8D050000 		.4byte	.LASF37
 1095 01be 07       		.byte	0x7
 1096 01bf 7B       		.byte	0x7b
 1097 01c0 E4000000 		.4byte	0xe4
 1098 01c4 1E       		.byte	0x1e
 1099 01c5 07       		.uleb128 0x7
 1100 01c6 67040000 		.4byte	.LASF38
 1101 01ca 07       		.byte	0x7
 1102 01cb 81       		.byte	0x81
 1103 01cc EF000000 		.4byte	0xef
 1104 01d0 1F       		.byte	0x1f
 1105 01d1 07       		.uleb128 0x7
 1106 01d2 58050000 		.4byte	.LASF39
 1107 01d6 07       		.byte	0x7
 1108 01d7 88       		.byte	0x88
 1109 01d8 26010000 		.4byte	0x126
 1110 01dc 20       		.byte	0x20
 1111 01dd 08       		.uleb128 0x8
 1112 01de 705F7500 		.ascii	"p_u\000"
 1113 01e2 07       		.byte	0x7
 1114 01e3 AD       		.byte	0xad
 1115 01e4 CB040000 		.4byte	0x4cb
 1116 01e8 24       		.byte	0x24
 1117 01e9 07       		.uleb128 0x7
 1118 01ea 05060000 		.4byte	.LASF40
 1119 01ee 07       		.byte	0x7
 1120 01ef B2       		.byte	0xb2
 1121 01f0 79020000 		.4byte	0x279
 1122 01f4 28       		.byte	0x28
 1123 01f5 07       		.uleb128 0x7
 1124 01f6 66050000 		.4byte	.LASF41
 1125 01fa 07       		.byte	0x7
 1126 01fb B8       		.byte	0xb8
 1127 01fc 59020000 		.4byte	0x259
 1128 0200 2C       		.byte	0x2c
 1129 0201 07       		.uleb128 0x7
 1130 0202 60000000 		.4byte	.LASF42
 1131 0206 07       		.byte	0x7
 1132 0207 BC       		.byte	0xbc
 1133 0208 05010000 		.4byte	0x105
 1134 020c 34       		.byte	0x34
 1135 020d 07       		.uleb128 0x7
 1136 020e CB040000 		.4byte	.LASF43
 1137 0212 07       		.byte	0x7
 1138 0213 C2       		.byte	0xc2
 1139 0214 10010000 		.4byte	0x110
 1140 0218 38       		.byte	0x38
ARM GAS  /var/folders/3j/4xdnk5197cv_b7cw3n33qk7r0000gn/T//ccjzjwHI.s 			page 21


 1141 0219 07       		.uleb128 0x7
 1142 021a 4B040000 		.4byte	.LASF44
 1143 021e 07       		.byte	0x7
 1144 021f C9       		.byte	0xc9
 1145 0220 12050000 		.4byte	0x512
 1146 0224 3C       		.byte	0x3c
 1147 0225 07       		.uleb128 0x7
 1148 0226 43050000 		.4byte	.LASF45
 1149 022a 07       		.byte	0x7
 1150 022b CD       		.byte	0xcd
 1151 022c FA000000 		.4byte	0xfa
 1152 0230 40       		.byte	0x40
 1153 0231 00       		.byte	0
 1154 0232 09       		.uleb128 0x9
 1155 0233 08       		.byte	0x8
 1156 0234 06       		.byte	0x6
 1157 0235 5A       		.byte	0x5a
 1158 0236 53020000 		.4byte	0x253
 1159 023a 07       		.uleb128 0x7
 1160 023b 8B040000 		.4byte	.LASF28
 1161 023f 06       		.byte	0x6
 1162 0240 5B       		.byte	0x5b
 1163 0241 53020000 		.4byte	0x253
 1164 0245 00       		.byte	0
 1165 0246 07       		.uleb128 0x7
 1166 0247 1D040000 		.4byte	.LASF29
 1167 024b 06       		.byte	0x6
 1168 024c 5D       		.byte	0x5d
 1169 024d 53020000 		.4byte	0x253
 1170 0251 04       		.byte	0x4
 1171 0252 00       		.byte	0
 1172 0253 0A       		.uleb128 0xa
 1173 0254 04       		.byte	0x4
 1174 0255 36010000 		.4byte	0x136
 1175 0259 04       		.uleb128 0x4
 1176 025a DE030000 		.4byte	.LASF46
 1177 025e 06       		.byte	0x6
 1178 025f 5F       		.byte	0x5f
 1179 0260 32020000 		.4byte	0x232
 1180 0264 09       		.uleb128 0x9
 1181 0265 04       		.byte	0x4
 1182 0266 06       		.byte	0x6
 1183 0267 64       		.byte	0x64
 1184 0268 79020000 		.4byte	0x279
 1185 026c 07       		.uleb128 0x7
 1186 026d 8B040000 		.4byte	.LASF28
 1187 0271 06       		.byte	0x6
 1188 0272 66       		.byte	0x66
 1189 0273 53020000 		.4byte	0x253
 1190 0277 00       		.byte	0
 1191 0278 00       		.byte	0
 1192 0279 04       		.uleb128 0x4
 1193 027a 42030000 		.4byte	.LASF47
 1194 027e 06       		.byte	0x6
 1195 027f 69       		.byte	0x69
 1196 0280 64020000 		.4byte	0x264
 1197 0284 04       		.uleb128 0x4
ARM GAS  /var/folders/3j/4xdnk5197cv_b7cw3n33qk7r0000gn/T//ccjzjwHI.s 			page 22


 1198 0285 60030000 		.4byte	.LASF48
 1199 0289 08       		.byte	0x8
 1200 028a 9D       		.byte	0x9d
 1201 028b B8000000 		.4byte	0xb8
 1202 028f 04       		.uleb128 0x4
 1203 0290 76020000 		.4byte	.LASF49
 1204 0294 08       		.byte	0x8
 1205 0295 A2       		.byte	0xa2
 1206 0296 9A020000 		.4byte	0x29a
 1207 029a 0B       		.uleb128 0xb
 1208 029b 04       		.byte	0x4
 1209 029c 06       		.uleb128 0x6
 1210 029d 5F050000 		.4byte	.LASF50
 1211 02a1 24       		.byte	0x24
 1212 02a2 08       		.byte	0x8
 1213 02a3 B9       		.byte	0xb9
 1214 02a4 0E030000 		.4byte	0x30e
 1215 02a8 08       		.uleb128 0x8
 1216 02a9 723400   		.ascii	"r4\000"
 1217 02ac 08       		.byte	0x8
 1218 02ad BA       		.byte	0xba
 1219 02ae 8F020000 		.4byte	0x28f
 1220 02b2 00       		.byte	0
 1221 02b3 08       		.uleb128 0x8
 1222 02b4 723500   		.ascii	"r5\000"
 1223 02b7 08       		.byte	0x8
 1224 02b8 BB       		.byte	0xbb
 1225 02b9 8F020000 		.4byte	0x28f
 1226 02bd 04       		.byte	0x4
 1227 02be 08       		.uleb128 0x8
 1228 02bf 723600   		.ascii	"r6\000"
 1229 02c2 08       		.byte	0x8
 1230 02c3 BC       		.byte	0xbc
 1231 02c4 8F020000 		.4byte	0x28f
 1232 02c8 08       		.byte	0x8
 1233 02c9 08       		.uleb128 0x8
 1234 02ca 723700   		.ascii	"r7\000"
 1235 02cd 08       		.byte	0x8
 1236 02ce BD       		.byte	0xbd
 1237 02cf 8F020000 		.4byte	0x28f
 1238 02d3 0C       		.byte	0xc
 1239 02d4 08       		.uleb128 0x8
 1240 02d5 723800   		.ascii	"r8\000"
 1241 02d8 08       		.byte	0x8
 1242 02d9 BE       		.byte	0xbe
 1243 02da 8F020000 		.4byte	0x28f
 1244 02de 10       		.byte	0x10
 1245 02df 08       		.uleb128 0x8
 1246 02e0 723900   		.ascii	"r9\000"
 1247 02e3 08       		.byte	0x8
 1248 02e4 BF       		.byte	0xbf
 1249 02e5 8F020000 		.4byte	0x28f
 1250 02e9 14       		.byte	0x14
 1251 02ea 08       		.uleb128 0x8
 1252 02eb 72313000 		.ascii	"r10\000"
 1253 02ef 08       		.byte	0x8
 1254 02f0 C0       		.byte	0xc0
ARM GAS  /var/folders/3j/4xdnk5197cv_b7cw3n33qk7r0000gn/T//ccjzjwHI.s 			page 23


 1255 02f1 8F020000 		.4byte	0x28f
 1256 02f5 18       		.byte	0x18
 1257 02f6 08       		.uleb128 0x8
 1258 02f7 72313100 		.ascii	"r11\000"
 1259 02fb 08       		.byte	0x8
 1260 02fc C1       		.byte	0xc1
 1261 02fd 8F020000 		.4byte	0x28f
 1262 0301 1C       		.byte	0x1c
 1263 0302 08       		.uleb128 0x8
 1264 0303 6C7200   		.ascii	"lr\000"
 1265 0306 08       		.byte	0x8
 1266 0307 C2       		.byte	0xc2
 1267 0308 8F020000 		.4byte	0x28f
 1268 030c 20       		.byte	0x20
 1269 030d 00       		.byte	0
 1270 030e 06       		.uleb128 0x6
 1271 030f 04030000 		.4byte	.LASF51
 1272 0313 04       		.byte	0x4
 1273 0314 08       		.byte	0x8
 1274 0315 CA       		.byte	0xca
 1275 0316 27030000 		.4byte	0x327
 1276 031a 08       		.uleb128 0x8
 1277 031b 72313300 		.ascii	"r13\000"
 1278 031f 08       		.byte	0x8
 1279 0320 CB       		.byte	0xcb
 1280 0321 27030000 		.4byte	0x327
 1281 0325 00       		.byte	0
 1282 0326 00       		.byte	0
 1283 0327 0A       		.uleb128 0xa
 1284 0328 04       		.byte	0x4
 1285 0329 9C020000 		.4byte	0x29c
 1286 032d 04       		.uleb128 0x4
 1287 032e E7020000 		.4byte	.LASF52
 1288 0332 09       		.byte	0x9
 1289 0333 4E       		.byte	0x4e
 1290 0334 38030000 		.4byte	0x338
 1291 0338 0A       		.uleb128 0xa
 1292 0339 04       		.byte	0x4
 1293 033a 3E030000 		.4byte	0x33e
 1294 033e 0C       		.uleb128 0xc
 1295 033f 49030000 		.4byte	0x349
 1296 0343 0D       		.uleb128 0xd
 1297 0344 9A020000 		.4byte	0x29a
 1298 0348 00       		.byte	0
 1299 0349 04       		.uleb128 0x4
 1300 034a F3040000 		.4byte	.LASF53
 1301 034e 09       		.byte	0x9
 1302 034f 53       		.byte	0x53
 1303 0350 54030000 		.4byte	0x354
 1304 0354 06       		.uleb128 0x6
 1305 0355 F3040000 		.4byte	.LASF53
 1306 0359 14       		.byte	0x14
 1307 035a 09       		.byte	0x9
 1308 035b 5A       		.byte	0x5a
 1309 035c 9D030000 		.4byte	0x39d
 1310 0360 07       		.uleb128 0x7
 1311 0361 B3020000 		.4byte	.LASF54
ARM GAS  /var/folders/3j/4xdnk5197cv_b7cw3n33qk7r0000gn/T//ccjzjwHI.s 			page 24


 1312 0365 09       		.byte	0x9
 1313 0366 5B       		.byte	0x5b
 1314 0367 9D030000 		.4byte	0x39d
 1315 036b 00       		.byte	0
 1316 036c 07       		.uleb128 0x7
 1317 036d 7F020000 		.4byte	.LASF55
 1318 0371 09       		.byte	0x9
 1319 0372 5D       		.byte	0x5d
 1320 0373 9D030000 		.4byte	0x39d
 1321 0377 04       		.byte	0x4
 1322 0378 07       		.uleb128 0x7
 1323 0379 7F030000 		.4byte	.LASF56
 1324 037d 09       		.byte	0x9
 1325 037e 5F       		.byte	0x5f
 1326 037f 1B010000 		.4byte	0x11b
 1327 0383 08       		.byte	0x8
 1328 0384 07       		.uleb128 0x7
 1329 0385 87030000 		.4byte	.LASF57
 1330 0389 09       		.byte	0x9
 1331 038a 60       		.byte	0x60
 1332 038b 2D030000 		.4byte	0x32d
 1333 038f 0C       		.byte	0xc
 1334 0390 07       		.uleb128 0x7
 1335 0391 71050000 		.4byte	.LASF58
 1336 0395 09       		.byte	0x9
 1337 0396 62       		.byte	0x62
 1338 0397 9A020000 		.4byte	0x29a
 1339 039b 10       		.byte	0x10
 1340 039c 00       		.byte	0
 1341 039d 0A       		.uleb128 0xa
 1342 039e 04       		.byte	0x4
 1343 039f 49030000 		.4byte	0x349
 1344 03a3 09       		.uleb128 0x9
 1345 03a4 10       		.byte	0x10
 1346 03a5 09       		.byte	0x9
 1347 03a6 6C       		.byte	0x6c
 1348 03a7 DC030000 		.4byte	0x3dc
 1349 03ab 07       		.uleb128 0x7
 1350 03ac B3020000 		.4byte	.LASF54
 1351 03b0 09       		.byte	0x9
 1352 03b1 6D       		.byte	0x6d
 1353 03b2 9D030000 		.4byte	0x39d
 1354 03b6 00       		.byte	0
 1355 03b7 07       		.uleb128 0x7
 1356 03b8 7F020000 		.4byte	.LASF55
 1357 03bc 09       		.byte	0x9
 1358 03bd 6F       		.byte	0x6f
 1359 03be 9D030000 		.4byte	0x39d
 1360 03c2 04       		.byte	0x4
 1361 03c3 07       		.uleb128 0x7
 1362 03c4 7F030000 		.4byte	.LASF56
 1363 03c8 09       		.byte	0x9
 1364 03c9 71       		.byte	0x71
 1365 03ca 1B010000 		.4byte	0x11b
 1366 03ce 08       		.byte	0x8
 1367 03cf 07       		.uleb128 0x7
 1368 03d0 C5050000 		.4byte	.LASF59
ARM GAS  /var/folders/3j/4xdnk5197cv_b7cw3n33qk7r0000gn/T//ccjzjwHI.s 			page 25


 1369 03d4 09       		.byte	0x9
 1370 03d5 72       		.byte	0x72
 1371 03d6 26010000 		.4byte	0x126
 1372 03da 0C       		.byte	0xc
 1373 03db 00       		.byte	0
 1374 03dc 04       		.uleb128 0x4
 1375 03dd F0050000 		.4byte	.LASF60
 1376 03e1 09       		.byte	0x9
 1377 03e2 73       		.byte	0x73
 1378 03e3 A3030000 		.4byte	0x3a3
 1379 03e7 0E       		.uleb128 0xe
 1380 03e8 8E000000 		.4byte	.LASF68
 1381 03ec 09       		.byte	0x9
 1382 03ed D1       		.byte	0xd1
 1383 03ee DC030000 		.4byte	0x3dc
 1384 03f2 09       		.uleb128 0x9
 1385 03f3 1C       		.byte	0x1c
 1386 03f4 0A       		.byte	0xa
 1387 03f5 57       		.byte	0x57
 1388 03f6 43040000 		.4byte	0x443
 1389 03fa 07       		.uleb128 0x7
 1390 03fb EB040000 		.4byte	.LASF61
 1391 03ff 0A       		.byte	0xa
 1392 0400 58       		.byte	0x58
 1393 0401 59020000 		.4byte	0x259
 1394 0405 00       		.byte	0
 1395 0406 07       		.uleb128 0x7
 1396 0407 7D040000 		.4byte	.LASF62
 1397 040b 0A       		.byte	0xa
 1398 040c 59       		.byte	0x59
 1399 040d FA000000 		.4byte	0xfa
 1400 0411 08       		.byte	0x8
 1401 0412 07       		.uleb128 0x7
 1402 0413 D8030000 		.4byte	.LASF63
 1403 0417 0A       		.byte	0xa
 1404 0418 5B       		.byte	0x5b
 1405 0419 0E030000 		.4byte	0x30e
 1406 041d 0C       		.byte	0xc
 1407 041e 07       		.uleb128 0x7
 1408 041f 32030000 		.4byte	.LASF64
 1409 0423 0A       		.byte	0xa
 1410 0424 5E       		.byte	0x5e
 1411 0425 53020000 		.4byte	0x253
 1412 0429 10       		.byte	0x10
 1413 042a 07       		.uleb128 0x7
 1414 042b 02040000 		.4byte	.LASF65
 1415 042f 0A       		.byte	0xa
 1416 0430 5F       		.byte	0x5f
 1417 0431 53020000 		.4byte	0x253
 1418 0435 14       		.byte	0x14
 1419 0436 07       		.uleb128 0x7
 1420 0437 F8030000 		.4byte	.LASF66
 1421 043b 0A       		.byte	0xa
 1422 043c 62       		.byte	0x62
 1423 043d 53020000 		.4byte	0x253
 1424 0441 18       		.byte	0x18
 1425 0442 00       		.byte	0
ARM GAS  /var/folders/3j/4xdnk5197cv_b7cw3n33qk7r0000gn/T//ccjzjwHI.s 			page 26


 1426 0443 04       		.uleb128 0x4
 1427 0444 9F050000 		.4byte	.LASF67
 1428 0448 0A       		.byte	0xa
 1429 0449 64       		.byte	0x64
 1430 044a F2030000 		.4byte	0x3f2
 1431 044e 0E       		.uleb128 0xe
 1432 044f A9050000 		.4byte	.LASF69
 1433 0453 0A       		.byte	0xa
 1434 0454 68       		.byte	0x68
 1435 0455 43040000 		.4byte	0x443
 1436 0459 06       		.uleb128 0x6
 1437 045a 78050000 		.4byte	.LASF70
 1438 045e 0C       		.byte	0xc
 1439 045f 0B       		.byte	0xb
 1440 0460 25       		.byte	0x25
 1441 0461 7E040000 		.4byte	0x47e
 1442 0465 07       		.uleb128 0x7
 1443 0466 52020000 		.4byte	.LASF71
 1444 046a 0B       		.byte	0xb
 1445 046b 26       		.byte	0x26
 1446 046c 59020000 		.4byte	0x259
 1447 0470 00       		.byte	0
 1448 0471 07       		.uleb128 0x7
 1449 0472 FE020000 		.4byte	.LASF72
 1450 0476 0B       		.byte	0xb
 1451 0477 28       		.byte	0x28
 1452 0478 2B010000 		.4byte	0x12b
 1453 047c 08       		.byte	0x8
 1454 047d 00       		.byte	0
 1455 047e 04       		.uleb128 0x4
 1456 047f 78050000 		.4byte	.LASF70
 1457 0483 0B       		.byte	0xb
 1458 0484 29       		.byte	0x29
 1459 0485 59040000 		.4byte	0x459
 1460 0489 06       		.uleb128 0x6
 1461 048a 5A030000 		.4byte	.LASF73
 1462 048e 10       		.byte	0x10
 1463 048f 0C       		.byte	0xc
 1464 0490 25       		.byte	0x25
 1465 0491 BA040000 		.4byte	0x4ba
 1466 0495 07       		.uleb128 0x7
 1467 0496 25010000 		.4byte	.LASF74
 1468 049a 0C       		.byte	0xc
 1469 049b 26       		.byte	0x26
 1470 049c 59020000 		.4byte	0x259
 1471 04a0 00       		.byte	0
 1472 04a1 07       		.uleb128 0x7
 1473 04a2 F7050000 		.4byte	.LASF75
 1474 04a6 0C       		.byte	0xc
 1475 04a7 28       		.byte	0x28
 1476 04a8 53020000 		.4byte	0x253
 1477 04ac 08       		.byte	0x8
 1478 04ad 07       		.uleb128 0x7
 1479 04ae 32050000 		.4byte	.LASF76
 1480 04b2 0C       		.byte	0xc
 1481 04b3 2A       		.byte	0x2a
 1482 04b4 BA040000 		.4byte	0x4ba
ARM GAS  /var/folders/3j/4xdnk5197cv_b7cw3n33qk7r0000gn/T//ccjzjwHI.s 			page 27


 1483 04b8 0C       		.byte	0xc
 1484 04b9 00       		.byte	0
 1485 04ba 0A       		.uleb128 0xa
 1486 04bb 04       		.byte	0x4
 1487 04bc 89040000 		.4byte	0x489
 1488 04c0 04       		.uleb128 0x4
 1489 04c1 5A030000 		.4byte	.LASF73
 1490 04c5 0C       		.byte	0xc
 1491 04c6 2C       		.byte	0x2c
 1492 04c7 89040000 		.4byte	0x489
 1493 04cb 0F       		.uleb128 0xf
 1494 04cc 04       		.byte	0x4
 1495 04cd 07       		.byte	0x7
 1496 04ce 8F       		.byte	0x8f
 1497 04cf 00050000 		.4byte	0x500
 1498 04d3 10       		.uleb128 0x10
 1499 04d4 66000000 		.4byte	.LASF77
 1500 04d8 07       		.byte	0x7
 1501 04d9 96       		.byte	0x96
 1502 04da 05010000 		.4byte	0x105
 1503 04de 10       		.uleb128 0x10
 1504 04df BA000000 		.4byte	.LASF78
 1505 04e3 07       		.byte	0x7
 1506 04e4 9D       		.byte	0x9d
 1507 04e5 05010000 		.4byte	0x105
 1508 04e9 10       		.uleb128 0x10
 1509 04ea B7050000 		.4byte	.LASF79
 1510 04ee 07       		.byte	0x7
 1511 04ef A4       		.byte	0xa4
 1512 04f0 9A020000 		.4byte	0x29a
 1513 04f4 10       		.uleb128 0x10
 1514 04f5 84040000 		.4byte	.LASF80
 1515 04f9 07       		.byte	0x7
 1516 04fa AB       		.byte	0xab
 1517 04fb 10010000 		.4byte	0x110
 1518 04ff 00       		.byte	0
 1519 0500 0A       		.uleb128 0xa
 1520 0501 04       		.byte	0x4
 1521 0502 0D050000 		.4byte	0x50d
 1522 0506 03       		.uleb128 0x3
 1523 0507 01       		.byte	0x1
 1524 0508 08       		.byte	0x8
 1525 0509 0A050000 		.4byte	.LASF81
 1526 050d 11       		.uleb128 0x11
 1527 050e 06050000 		.4byte	0x506
 1528 0512 0A       		.uleb128 0xa
 1529 0513 04       		.byte	0x4
 1530 0514 C0040000 		.4byte	0x4c0
 1531 0518 09       		.uleb128 0x9
 1532 0519 16       		.byte	0x16
 1533 051a 0D       		.byte	0xd
 1534 051b 25       		.byte	0x25
 1535 051c F9050000 		.4byte	0x5f9
 1536 0520 07       		.uleb128 0x7
 1537 0521 F0020000 		.4byte	.LASF82
 1538 0525 0D       		.byte	0xd
 1539 0526 26       		.byte	0x26
ARM GAS  /var/folders/3j/4xdnk5197cv_b7cw3n33qk7r0000gn/T//ccjzjwHI.s 			page 28


 1540 0527 F9050000 		.4byte	0x5f9
 1541 052b 00       		.byte	0
 1542 052c 07       		.uleb128 0x7
 1543 052d 6B030000 		.4byte	.LASF83
 1544 0531 0D       		.byte	0xd
 1545 0532 27       		.byte	0x27
 1546 0533 97000000 		.4byte	0x97
 1547 0537 04       		.byte	0x4
 1548 0538 07       		.uleb128 0x7
 1549 0539 EB030000 		.4byte	.LASF84
 1550 053d 0D       		.byte	0xd
 1551 053e 28       		.byte	0x28
 1552 053f 97000000 		.4byte	0x97
 1553 0543 05       		.byte	0x5
 1554 0544 07       		.uleb128 0x7
 1555 0545 E5050000 		.4byte	.LASF85
 1556 0549 0D       		.byte	0xd
 1557 054a 29       		.byte	0x29
 1558 054b A2000000 		.4byte	0xa2
 1559 054f 06       		.byte	0x6
 1560 0550 07       		.uleb128 0x7
 1561 0551 12040000 		.4byte	.LASF86
 1562 0555 0D       		.byte	0xd
 1563 0556 2A       		.byte	0x2a
 1564 0557 97000000 		.4byte	0x97
 1565 055b 08       		.byte	0x8
 1566 055c 07       		.uleb128 0x7
 1567 055d 8F030000 		.4byte	.LASF87
 1568 0561 0D       		.byte	0xd
 1569 0562 2B       		.byte	0x2b
 1570 0563 97000000 		.4byte	0x97
 1571 0567 09       		.byte	0x9
 1572 0568 07       		.uleb128 0x7
 1573 0569 AC000000 		.4byte	.LASF88
 1574 056d 0D       		.byte	0xd
 1575 056e 2C       		.byte	0x2c
 1576 056f 97000000 		.4byte	0x97
 1577 0573 0A       		.byte	0xa
 1578 0574 07       		.uleb128 0x7
 1579 0575 DF040000 		.4byte	.LASF89
 1580 0579 0D       		.byte	0xd
 1581 057a 2D       		.byte	0x2d
 1582 057b 97000000 		.4byte	0x97
 1583 057f 0B       		.byte	0xb
 1584 0580 07       		.uleb128 0x7
 1585 0581 82050000 		.4byte	.LASF90
 1586 0585 0D       		.byte	0xd
 1587 0586 2E       		.byte	0x2e
 1588 0587 97000000 		.4byte	0x97
 1589 058b 0C       		.byte	0xc
 1590 058c 07       		.uleb128 0x7
 1591 058d B0040000 		.4byte	.LASF91
 1592 0591 0D       		.byte	0xd
 1593 0592 2F       		.byte	0x2f
 1594 0593 97000000 		.4byte	0x97
 1595 0597 0D       		.byte	0xd
 1596 0598 07       		.uleb128 0x7
ARM GAS  /var/folders/3j/4xdnk5197cv_b7cw3n33qk7r0000gn/T//ccjzjwHI.s 			page 29


 1597 0599 53000000 		.4byte	.LASF92
 1598 059d 0D       		.byte	0xd
 1599 059e 30       		.byte	0x30
 1600 059f 97000000 		.4byte	0x97
 1601 05a3 0E       		.byte	0xe
 1602 05a4 07       		.uleb128 0x7
 1603 05a5 BB030000 		.4byte	.LASF93
 1604 05a9 0D       		.byte	0xd
 1605 05aa 31       		.byte	0x31
 1606 05ab 97000000 		.4byte	0x97
 1607 05af 0F       		.byte	0xf
 1608 05b0 07       		.uleb128 0x7
 1609 05b1 01010000 		.4byte	.LASF94
 1610 05b5 0D       		.byte	0xd
 1611 05b6 32       		.byte	0x32
 1612 05b7 97000000 		.4byte	0x97
 1613 05bb 10       		.byte	0x10
 1614 05bc 07       		.uleb128 0x7
 1615 05bd CA000000 		.4byte	.LASF95
 1616 05c1 0D       		.byte	0xd
 1617 05c2 34       		.byte	0x34
 1618 05c3 97000000 		.4byte	0x97
 1619 05c7 11       		.byte	0x11
 1620 05c8 07       		.uleb128 0x7
 1621 05c9 11010000 		.4byte	.LASF96
 1622 05cd 0D       		.byte	0xd
 1623 05ce 35       		.byte	0x35
 1624 05cf 97000000 		.4byte	0x97
 1625 05d3 12       		.byte	0x12
 1626 05d4 07       		.uleb128 0x7
 1627 05d5 73030000 		.4byte	.LASF97
 1628 05d9 0D       		.byte	0xd
 1629 05da 36       		.byte	0x36
 1630 05db 97000000 		.4byte	0x97
 1631 05df 13       		.byte	0x13
 1632 05e0 07       		.uleb128 0x7
 1633 05e1 92040000 		.4byte	.LASF98
 1634 05e5 0D       		.byte	0xd
 1635 05e6 37       		.byte	0x37
 1636 05e7 97000000 		.4byte	0x97
 1637 05eb 14       		.byte	0x14
 1638 05ec 07       		.uleb128 0x7
 1639 05ed 71040000 		.4byte	.LASF99
 1640 05f1 0D       		.byte	0xd
 1641 05f2 39       		.byte	0x39
 1642 05f3 97000000 		.4byte	0x97
 1643 05f7 15       		.byte	0x15
 1644 05f8 00       		.byte	0
 1645 05f9 12       		.uleb128 0x12
 1646 05fa 06050000 		.4byte	0x506
 1647 05fe 09060000 		.4byte	0x609
 1648 0602 13       		.uleb128 0x13
 1649 0603 2C000000 		.4byte	0x2c
 1650 0607 03       		.byte	0x3
 1651 0608 00       		.byte	0
 1652 0609 04       		.uleb128 0x4
 1653 060a 16020000 		.4byte	.LASF100
ARM GAS  /var/folders/3j/4xdnk5197cv_b7cw3n33qk7r0000gn/T//ccjzjwHI.s 			page 30


 1654 060e 0D       		.byte	0xd
 1655 060f 3A       		.byte	0x3a
 1656 0610 18050000 		.4byte	0x518
 1657 0614 11       		.uleb128 0x11
 1658 0615 09060000 		.4byte	0x609
 1659 0619 0E       		.uleb128 0xe
 1660 061a DE020000 		.4byte	.LASF101
 1661 061e 0D       		.byte	0xd
 1662 061f 77       		.byte	0x77
 1663 0620 14060000 		.4byte	0x614
 1664 0624 12       		.uleb128 0x12
 1665 0625 84020000 		.4byte	0x284
 1666 0629 34060000 		.4byte	0x634
 1667 062d 13       		.uleb128 0x13
 1668 062e 2C000000 		.4byte	0x2c
 1669 0632 26       		.byte	0x26
 1670 0633 00       		.byte	0
 1671 0634 0E       		.uleb128 0xe
 1672 0635 42020000 		.4byte	.LASF102
 1673 0639 0E       		.byte	0xe
 1674 063a 82       		.byte	0x82
 1675 063b 24060000 		.4byte	0x624
 1676 063f 14       		.uleb128 0x14
 1677 0640 4E040000 		.4byte	0x44e
 1678 0644 01       		.byte	0x1
 1679 0645 28       		.byte	0x28
 1680 0646 05       		.uleb128 0x5
 1681 0647 03       		.byte	0x3
 1682 0648 00000000 		.4byte	rlist
 1683 064c 15       		.uleb128 0x15
 1684 064d 87020000 		.4byte	.LASF103
 1685 0651 01       		.byte	0x1
 1686 0652 6301     		.2byte	0x163
 1687 0654 00000000 		.4byte	.LFB17
 1688 0658 20000000 		.4byte	.LFE17-.LFB17
 1689 065c 01       		.uleb128 0x1
 1690 065d 9C       		.byte	0x9c
 1691 065e 75060000 		.4byte	0x675
 1692 0662 16       		.uleb128 0x16
 1693 0663 18000000 		.4byte	.LVL59
 1694 0667 75060000 		.4byte	0x675
 1695 066b 16       		.uleb128 0x16
 1696 066c 1C000000 		.4byte	.LVL60
 1697 0670 E1060000 		.4byte	0x6e1
 1698 0674 00       		.byte	0
 1699 0675 15       		.uleb128 0x15
 1700 0676 6D000000 		.4byte	.LASF104
 1701 067a 01       		.byte	0x1
 1702 067b 4201     		.2byte	0x142
 1703 067d 00000000 		.4byte	.LFB16
 1704 0681 70000000 		.4byte	.LFE16-.LFB16
 1705 0685 01       		.uleb128 0x1
 1706 0686 9C       		.byte	0x9c
 1707 0687 E1060000 		.4byte	0x6e1
 1708 068b 17       		.uleb128 0x17
 1709 068c 6F747000 		.ascii	"otp\000"
 1710 0690 01       		.byte	0x1
ARM GAS  /var/folders/3j/4xdnk5197cv_b7cw3n33qk7r0000gn/T//ccjzjwHI.s 			page 31


 1711 0691 4301     		.2byte	0x143
 1712 0693 53020000 		.4byte	0x253
 1713 0697 00000000 		.4byte	.LLST22
 1714 069b 17       		.uleb128 0x17
 1715 069c 637000   		.ascii	"cp\000"
 1716 069f 01       		.byte	0x1
 1717 06a0 4301     		.2byte	0x143
 1718 06a2 53020000 		.4byte	0x253
 1719 06a6 13000000 		.4byte	.LLST23
 1720 06aa 18       		.uleb128 0x18
 1721 06ab E5090000 		.4byte	0x9e5
 1722 06af 10000000 		.4byte	.LBB84
 1723 06b3 E8000000 		.4byte	.Ldebug_ranges0+0xe8
 1724 06b7 01       		.byte	0x1
 1725 06b8 4701     		.2byte	0x147
 1726 06ba D7060000 		.4byte	0x6d7
 1727 06be 19       		.uleb128 0x19
 1728 06bf F5090000 		.4byte	0x9f5
 1729 06c3 2B000000 		.4byte	.LLST24
 1730 06c7 1A       		.uleb128 0x1a
 1731 06c8 E8000000 		.4byte	.Ldebug_ranges0+0xe8
 1732 06cc 1B       		.uleb128 0x1b
 1733 06cd 000A0000 		.4byte	0xa00
 1734 06d1 43000000 		.4byte	.LLST25
 1735 06d5 00       		.byte	0
 1736 06d6 00       		.byte	0
 1737 06d7 16       		.uleb128 0x16
 1738 06d8 6C000000 		.4byte	.LVL57
 1739 06dc E40A0000 		.4byte	0xae4
 1740 06e0 00       		.byte	0
 1741 06e1 15       		.uleb128 0x15
 1742 06e2 A3030000 		.4byte	.LASF105
 1743 06e6 01       		.byte	0x1
 1744 06e7 2901     		.2byte	0x129
 1745 06e9 00000000 		.4byte	.LFB15
 1746 06ed 78000000 		.4byte	.LFE15-.LFB15
 1747 06f1 01       		.uleb128 0x1
 1748 06f2 9C       		.byte	0x9c
 1749 06f3 67070000 		.4byte	0x767
 1750 06f7 17       		.uleb128 0x17
 1751 06f8 6F747000 		.ascii	"otp\000"
 1752 06fc 01       		.byte	0x1
 1753 06fd 2A01     		.2byte	0x12a
 1754 06ff 53020000 		.4byte	0x253
 1755 0703 56000000 		.4byte	.LLST18
 1756 0707 18       		.uleb128 0x18
 1757 0708 94090000 		.4byte	0x994
 1758 070c 0C000000 		.4byte	.LBB66
 1759 0710 90000000 		.4byte	.Ldebug_ranges0+0x90
 1760 0714 01       		.byte	0x1
 1761 0715 3301     		.2byte	0x133
 1762 0717 30070000 		.4byte	0x730
 1763 071b 19       		.uleb128 0x19
 1764 071c A4090000 		.4byte	0x9a4
 1765 0720 69000000 		.4byte	.LLST19
 1766 0724 1A       		.uleb128 0x1a
 1767 0725 90000000 		.4byte	.Ldebug_ranges0+0x90
ARM GAS  /var/folders/3j/4xdnk5197cv_b7cw3n33qk7r0000gn/T//ccjzjwHI.s 			page 32


 1768 0729 1C       		.uleb128 0x1c
 1769 072a DA0A0000 		.4byte	0xada
 1770 072e 00       		.byte	0
 1771 072f 00       		.byte	0
 1772 0730 18       		.uleb128 0x18
 1773 0731 E5090000 		.4byte	0x9e5
 1774 0735 14000000 		.4byte	.LBB72
 1775 0739 C0000000 		.4byte	.Ldebug_ranges0+0xc0
 1776 073d 01       		.byte	0x1
 1777 073e 2E01     		.2byte	0x12e
 1778 0740 5D070000 		.4byte	0x75d
 1779 0744 19       		.uleb128 0x19
 1780 0745 F5090000 		.4byte	0x9f5
 1781 0749 7C000000 		.4byte	.LLST20
 1782 074d 1A       		.uleb128 0x1a
 1783 074e C0000000 		.4byte	.Ldebug_ranges0+0xc0
 1784 0752 1B       		.uleb128 0x1b
 1785 0753 000A0000 		.4byte	0xa00
 1786 0757 94000000 		.4byte	.LLST21
 1787 075b 00       		.byte	0
 1788 075c 00       		.byte	0
 1789 075d 16       		.uleb128 0x16
 1790 075e 74000000 		.4byte	.LVL52
 1791 0762 E40A0000 		.4byte	0xae4
 1792 0766 00       		.byte	0
 1793 0767 1D       		.uleb128 0x1d
 1794 0768 20020000 		.4byte	.LASF108
 1795 076c 01       		.byte	0x1
 1796 076d 0D01     		.2byte	0x10d
 1797 076f C3000000 		.4byte	0xc3
 1798 0773 00000000 		.4byte	.LFB14
 1799 0777 44000000 		.4byte	.LFE14-.LFB14
 1800 077b 01       		.uleb128 0x1
 1801 077c 9C       		.byte	0x9c
 1802 077d 9E070000 		.4byte	0x79e
 1803 0781 17       		.uleb128 0x17
 1804 0782 703100   		.ascii	"p1\000"
 1805 0785 01       		.byte	0x1
 1806 0786 0E01     		.2byte	0x10e
 1807 0788 FA000000 		.4byte	0xfa
 1808 078c A7000000 		.4byte	.LLST17
 1809 0790 1E       		.uleb128 0x1e
 1810 0791 703200   		.ascii	"p2\000"
 1811 0794 01       		.byte	0x1
 1812 0795 0F01     		.2byte	0x10f
 1813 0797 FA000000 		.4byte	0xfa
 1814 079b 01       		.uleb128 0x1
 1815 079c 53       		.byte	0x53
 1816 079d 00       		.byte	0
 1817 079e 1F       		.uleb128 0x1f
 1818 079f 5A020000 		.4byte	.LASF106
 1819 07a3 01       		.byte	0x1
 1820 07a4 F6       		.byte	0xf6
 1821 07a5 00000000 		.4byte	.LFB13
 1822 07a9 24000000 		.4byte	.LFE13-.LFB13
 1823 07ad 01       		.uleb128 0x1
 1824 07ae 9C       		.byte	0x9c
ARM GAS  /var/folders/3j/4xdnk5197cv_b7cw3n33qk7r0000gn/T//ccjzjwHI.s 			page 33


 1825 07af BD070000 		.4byte	0x7bd
 1826 07b3 16       		.uleb128 0x16
 1827 07b4 20000000 		.4byte	.LVL58
 1828 07b8 75060000 		.4byte	0x675
 1829 07bc 00       		.byte	0
 1830 07bd 1F       		.uleb128 0x1f
 1831 07be 1F030000 		.4byte	.LASF107
 1832 07c2 01       		.byte	0x1
 1833 07c3 DA       		.byte	0xda
 1834 07c4 00000000 		.4byte	.LFB12
 1835 07c8 AC000000 		.4byte	.LFE12-.LFB12
 1836 07cc 01       		.uleb128 0x1
 1837 07cd 9C       		.byte	0x9c
 1838 07ce 67080000 		.4byte	0x867
 1839 07d2 20       		.uleb128 0x20
 1840 07d3 6E747000 		.ascii	"ntp\000"
 1841 07d7 01       		.byte	0x1
 1842 07d8 DA       		.byte	0xda
 1843 07d9 53020000 		.4byte	0x253
 1844 07dd DD000000 		.4byte	.LLST13
 1845 07e1 20       		.uleb128 0x20
 1846 07e2 6D736700 		.ascii	"msg\000"
 1847 07e6 01       		.byte	0x1
 1848 07e7 DA       		.byte	0xda
 1849 07e8 05010000 		.4byte	0x105
 1850 07ec 09010000 		.4byte	.LLST14
 1851 07f0 21       		.uleb128 0x21
 1852 07f1 58000000 		.4byte	.Ldebug_ranges0+0x58
 1853 07f5 3E080000 		.4byte	0x83e
 1854 07f9 22       		.uleb128 0x22
 1855 07fa 6F747000 		.ascii	"otp\000"
 1856 07fe 01       		.byte	0x1
 1857 07ff E6       		.byte	0xe6
 1858 0800 53020000 		.4byte	0x253
 1859 0804 23       		.uleb128 0x23
 1860 0805 94090000 		.4byte	0x994
 1861 0809 58000000 		.4byte	.LBB59
 1862 080d 70000000 		.4byte	.Ldebug_ranges0+0x70
 1863 0811 01       		.byte	0x1
 1864 0812 E6       		.byte	0xe6
 1865 0813 2C080000 		.4byte	0x82c
 1866 0817 19       		.uleb128 0x19
 1867 0818 A4090000 		.4byte	0x9a4
 1868 081c 36010000 		.4byte	.LLST16
 1869 0820 1A       		.uleb128 0x1a
 1870 0821 70000000 		.4byte	.Ldebug_ranges0+0x70
 1871 0825 1C       		.uleb128 0x1c
 1872 0826 DA0A0000 		.4byte	0xada
 1873 082a 00       		.byte	0
 1874 082b 00       		.byte	0
 1875 082c 24       		.uleb128 0x24
 1876 082d A8000000 		.4byte	.LVL40
 1877 0831 E40A0000 		.4byte	0xae4
 1878 0835 25       		.uleb128 0x25
 1879 0836 01       		.uleb128 0x1
 1880 0837 50       		.byte	0x50
 1881 0838 03       		.uleb128 0x3
ARM GAS  /var/folders/3j/4xdnk5197cv_b7cw3n33qk7r0000gn/T//ccjzjwHI.s 			page 34


 1882 0839 F3       		.byte	0xf3
 1883 083a 01       		.uleb128 0x1
 1884 083b 50       		.byte	0x50
 1885 083c 00       		.byte	0
 1886 083d 00       		.byte	0
 1887 083e 26       		.uleb128 0x26
 1888 083f 94090000 		.4byte	0x994
 1889 0843 24000000 		.4byte	.LBB56
 1890 0847 30000000 		.4byte	.LBE56-.LBB56
 1891 084b 01       		.byte	0x1
 1892 084c E4       		.byte	0xe4
 1893 084d 19       		.uleb128 0x19
 1894 084e A4090000 		.4byte	0x9a4
 1895 0852 49010000 		.4byte	.LLST15
 1896 0856 27       		.uleb128 0x27
 1897 0857 24000000 		.4byte	.LBB57
 1898 085b 30000000 		.4byte	.LBE57-.LBB57
 1899 085f 1C       		.uleb128 0x1c
 1900 0860 DA0A0000 		.4byte	0xada
 1901 0864 00       		.byte	0
 1902 0865 00       		.byte	0
 1903 0866 00       		.byte	0
 1904 0867 28       		.uleb128 0x28
 1905 0868 D0050000 		.4byte	.LASF109
 1906 086c 01       		.byte	0x1
 1907 086d B6       		.byte	0xb6
 1908 086e 05010000 		.4byte	0x105
 1909 0872 00000000 		.4byte	.LFB11
 1910 0876 74000000 		.4byte	.LFE11-.LFB11
 1911 087a 01       		.uleb128 0x1
 1912 087b 9C       		.byte	0x9c
 1913 087c 0B090000 		.4byte	0x90b
 1914 0880 29       		.uleb128 0x29
 1915 0881 42040000 		.4byte	.LASF110
 1916 0885 01       		.byte	0x1
 1917 0886 B6       		.byte	0xb6
 1918 0887 D9000000 		.4byte	0xd9
 1919 088b 5C010000 		.4byte	.LLST11
 1920 088f 29       		.uleb128 0x29
 1921 0890 F3030000 		.4byte	.LASF111
 1922 0894 01       		.byte	0x1
 1923 0895 B6       		.byte	0xb6
 1924 0896 1B010000 		.4byte	0x11b
 1925 089a 96010000 		.4byte	.LLST12
 1926 089e 2A       		.uleb128 0x2a
 1927 089f 14000000 		.4byte	.LBB55
 1928 08a3 30000000 		.4byte	.LBE55-.LBB55
 1929 08a7 01090000 		.4byte	0x901
 1930 08ab 2B       		.uleb128 0x2b
 1931 08ac 767400   		.ascii	"vt\000"
 1932 08af 01       		.byte	0x1
 1933 08b0 BB       		.byte	0xbb
 1934 08b1 49030000 		.4byte	0x349
 1935 08b5 02       		.uleb128 0x2
 1936 08b6 91       		.byte	0x91
 1937 08b7 5C       		.sleb128 -36
 1938 08b8 2C       		.uleb128 0x2c
ARM GAS  /var/folders/3j/4xdnk5197cv_b7cw3n33qk7r0000gn/T//ccjzjwHI.s 			page 35


 1939 08b9 28000000 		.4byte	.LVL22
 1940 08bd F00A0000 		.4byte	0xaf0
 1941 08c1 DC080000 		.4byte	0x8dc
 1942 08c5 25       		.uleb128 0x25
 1943 08c6 01       		.uleb128 0x1
 1944 08c7 50       		.byte	0x50
 1945 08c8 02       		.uleb128 0x2
 1946 08c9 91       		.byte	0x91
 1947 08ca 54       		.sleb128 -44
 1948 08cb 25       		.uleb128 0x25
 1949 08cc 01       		.uleb128 0x1
 1950 08cd 51       		.byte	0x51
 1951 08ce 03       		.uleb128 0x3
 1952 08cf F3       		.byte	0xf3
 1953 08d0 01       		.uleb128 0x1
 1954 08d1 51       		.byte	0x51
 1955 08d2 25       		.uleb128 0x25
 1956 08d3 01       		.uleb128 0x1
 1957 08d4 52       		.byte	0x52
 1958 08d5 05       		.uleb128 0x5
 1959 08d6 03       		.byte	0x3
 1960 08d7 00000000 		.4byte	wakeup
 1961 08db 00       		.byte	0
 1962 08dc 2C       		.uleb128 0x2c
 1963 08dd 30000000 		.4byte	.LVL23
 1964 08e1 2B090000 		.4byte	0x92b
 1965 08e5 F0080000 		.4byte	0x8f0
 1966 08e9 25       		.uleb128 0x25
 1967 08ea 01       		.uleb128 0x1
 1968 08eb 50       		.byte	0x50
 1969 08ec 02       		.uleb128 0x2
 1970 08ed 75       		.byte	0x75
 1971 08ee 00       		.sleb128 0
 1972 08ef 00       		.byte	0
 1973 08f0 2D       		.uleb128 0x2d
 1974 08f1 44000000 		.4byte	.LVL24
 1975 08f5 FB0A0000 		.4byte	0xafb
 1976 08f9 25       		.uleb128 0x25
 1977 08fa 01       		.uleb128 0x1
 1978 08fb 50       		.byte	0x50
 1979 08fc 02       		.uleb128 0x2
 1980 08fd 91       		.byte	0x91
 1981 08fe 54       		.sleb128 -44
 1982 08ff 00       		.byte	0
 1983 0900 00       		.byte	0
 1984 0901 2E       		.uleb128 0x2e
 1985 0902 58000000 		.4byte	.LVL26
 1986 0906 2B090000 		.4byte	0x92b
 1987 090a 00       		.byte	0
 1988 090b 2F       		.uleb128 0x2f
 1989 090c AC020000 		.4byte	.LASF121
 1990 0910 01       		.byte	0x1
 1991 0911 81       		.byte	0x81
 1992 0912 01       		.byte	0x1
 1993 0913 2B090000 		.4byte	0x92b
 1994 0917 30       		.uleb128 0x30
 1995 0918 7000     		.ascii	"p\000"
ARM GAS  /var/folders/3j/4xdnk5197cv_b7cw3n33qk7r0000gn/T//ccjzjwHI.s 			page 36


 1996 091a 01       		.byte	0x1
 1997 091b 81       		.byte	0x81
 1998 091c 9A020000 		.4byte	0x29a
 1999 0920 22       		.uleb128 0x22
 2000 0921 747000   		.ascii	"tp\000"
 2001 0924 01       		.byte	0x1
 2002 0925 82       		.byte	0x82
 2003 0926 53020000 		.4byte	0x253
 2004 092a 00       		.byte	0
 2005 092b 1F       		.uleb128 0x1f
 2006 092c BD040000 		.4byte	.LASF112
 2007 0930 01       		.byte	0x1
 2008 0931 6C       		.byte	0x6c
 2009 0932 00000000 		.4byte	.LFB9
 2010 0936 44000000 		.4byte	.LFE9-.LFB9
 2011 093a 01       		.uleb128 0x1
 2012 093b 9C       		.byte	0x9c
 2013 093c 94090000 		.4byte	0x994
 2014 0940 29       		.uleb128 0x29
 2015 0941 42040000 		.4byte	.LASF110
 2016 0945 01       		.byte	0x1
 2017 0946 6C       		.byte	0x6c
 2018 0947 D9000000 		.4byte	0xd9
 2019 094b D0010000 		.4byte	.LLST7
 2020 094f 31       		.uleb128 0x31
 2021 0950 6F747000 		.ascii	"otp\000"
 2022 0954 01       		.byte	0x1
 2023 0955 6D       		.byte	0x6d
 2024 0956 53020000 		.4byte	0x253
 2025 095a FD010000 		.4byte	.LLST8
 2026 095e 23       		.uleb128 0x23
 2027 095f E5090000 		.4byte	0x9e5
 2028 0963 14000000 		.4byte	.LBB47
 2029 0967 30000000 		.4byte	.Ldebug_ranges0+0x30
 2030 096b 01       		.byte	0x1
 2031 096c 77       		.byte	0x77
 2032 096d 8A090000 		.4byte	0x98a
 2033 0971 19       		.uleb128 0x19
 2034 0972 F5090000 		.4byte	0x9f5
 2035 0976 10020000 		.4byte	.LLST9
 2036 097a 1A       		.uleb128 0x1a
 2037 097b 30000000 		.4byte	.Ldebug_ranges0+0x30
 2038 097f 1B       		.uleb128 0x1b
 2039 0980 000A0000 		.4byte	0xa00
 2040 0984 28020000 		.4byte	.LLST10
 2041 0988 00       		.byte	0
 2042 0989 00       		.byte	0
 2043 098a 16       		.uleb128 0x16
 2044 098b 40000000 		.4byte	.LVL19
 2045 098f E40A0000 		.4byte	0xae4
 2046 0993 00       		.byte	0
 2047 0994 32       		.uleb128 0x32
 2048 0995 26050000 		.4byte	.LASF122
 2049 0999 01       		.byte	0x1
 2050 099a 4A       		.byte	0x4a
 2051 099b 53020000 		.4byte	0x253
 2052 099f 01       		.byte	0x1
ARM GAS  /var/folders/3j/4xdnk5197cv_b7cw3n33qk7r0000gn/T//ccjzjwHI.s 			page 37


 2053 09a0 B9090000 		.4byte	0x9b9
 2054 09a4 30       		.uleb128 0x30
 2055 09a5 747000   		.ascii	"tp\000"
 2056 09a8 01       		.byte	0x1
 2057 09a9 4A       		.byte	0x4a
 2058 09aa 53020000 		.4byte	0x253
 2059 09ae 22       		.uleb128 0x22
 2060 09af 637000   		.ascii	"cp\000"
 2061 09b2 01       		.byte	0x1
 2062 09b3 4B       		.byte	0x4b
 2063 09b4 53020000 		.4byte	0x253
 2064 09b8 00       		.byte	0
 2065 09b9 33       		.uleb128 0x33
 2066 09ba D7000000 		.4byte	.LASF123
 2067 09be 01       		.byte	0x1
 2068 09bf 30       		.byte	0x30
 2069 09c0 00000000 		.4byte	.LFB7
 2070 09c4 24000000 		.4byte	.LFE7-.LFB7
 2071 09c8 01       		.uleb128 0x1
 2072 09c9 9C       		.byte	0x9c
 2073 09ca 34       		.uleb128 0x34
 2074 09cb 9B030000 		.4byte	.LASF113
 2075 09cf 02       		.byte	0x2
 2076 09d0 42       		.byte	0x42
 2077 09d1 53020000 		.4byte	0x253
 2078 09d5 03       		.byte	0x3
 2079 09d6 E5090000 		.4byte	0x9e5
 2080 09da 30       		.uleb128 0x30
 2081 09db 747000   		.ascii	"tp\000"
 2082 09de 02       		.byte	0x2
 2083 09df 42       		.byte	0x42
 2084 09e0 53020000 		.4byte	0x253
 2085 09e4 00       		.byte	0
 2086 09e5 34       		.uleb128 0x34
 2087 09e6 0F050000 		.4byte	.LASF114
 2088 09ea 02       		.byte	0x2
 2089 09eb 34       		.byte	0x34
 2090 09ec 53020000 		.4byte	0x253
 2091 09f0 03       		.byte	0x3
 2092 09f1 0B0A0000 		.4byte	0xa0b
 2093 09f5 30       		.uleb128 0x30
 2094 09f6 74717000 		.ascii	"tqp\000"
 2095 09fa 02       		.byte	0x2
 2096 09fb 34       		.byte	0x34
 2097 09fc 0B0A0000 		.4byte	0xa0b
 2098 0a00 22       		.uleb128 0x22
 2099 0a01 747000   		.ascii	"tp\000"
 2100 0a04 02       		.byte	0x2
 2101 0a05 35       		.byte	0x35
 2102 0a06 53020000 		.4byte	0x253
 2103 0a0a 00       		.byte	0
 2104 0a0b 0A       		.uleb128 0xa
 2105 0a0c 04       		.byte	0x4
 2106 0a0d 59020000 		.4byte	0x259
 2107 0a11 35       		.uleb128 0x35
 2108 0a12 0B090000 		.4byte	0x90b
 2109 0a16 00000000 		.4byte	.LFB10
ARM GAS  /var/folders/3j/4xdnk5197cv_b7cw3n33qk7r0000gn/T//ccjzjwHI.s 			page 38


 2110 0a1a B0000000 		.4byte	.LFE10-.LFB10
 2111 0a1e 01       		.uleb128 0x1
 2112 0a1f 9C       		.byte	0x9c
 2113 0a20 BE0A0000 		.4byte	0xabe
 2114 0a24 36       		.uleb128 0x36
 2115 0a25 17090000 		.4byte	0x917
 2116 0a29 01       		.uleb128 0x1
 2117 0a2a 50       		.byte	0x50
 2118 0a2b 37       		.uleb128 0x37
 2119 0a2c 20090000 		.4byte	0x920
 2120 0a30 01       		.uleb128 0x1
 2121 0a31 50       		.byte	0x50
 2122 0a32 38       		.uleb128 0x38
 2123 0a33 CA090000 		.4byte	0x9ca
 2124 0a37 58000000 		.4byte	.LBB33
 2125 0a3b 10000000 		.4byte	.LBE33-.LBB33
 2126 0a3f 01       		.byte	0x1
 2127 0a40 99       		.byte	0x99
 2128 0a41 4F0A0000 		.4byte	0xa4f
 2129 0a45 19       		.uleb128 0x19
 2130 0a46 DA090000 		.4byte	0x9da
 2131 0a4a 3B020000 		.4byte	.LLST0
 2132 0a4e 00       		.byte	0
 2133 0a4f 23       		.uleb128 0x23
 2134 0a50 94090000 		.4byte	0x994
 2135 0a54 6C000000 		.4byte	.LBB35
 2136 0a58 00000000 		.4byte	.Ldebug_ranges0+0
 2137 0a5c 01       		.byte	0x1
 2138 0a5d 9D       		.byte	0x9d
 2139 0a5e 7B0A0000 		.4byte	0xa7b
 2140 0a62 19       		.uleb128 0x19
 2141 0a63 A4090000 		.4byte	0x9a4
 2142 0a67 4E020000 		.4byte	.LLST1
 2143 0a6b 1A       		.uleb128 0x1a
 2144 0a6c 00000000 		.4byte	.Ldebug_ranges0+0
 2145 0a70 1B       		.uleb128 0x1b
 2146 0a71 AE090000 		.4byte	0x9ae
 2147 0a75 61020000 		.4byte	.LLST2
 2148 0a79 00       		.byte	0
 2149 0a7a 00       		.byte	0
 2150 0a7b 39       		.uleb128 0x39
 2151 0a7c 0B090000 		.4byte	0x90b
 2152 0a80 18000000 		.4byte	.Ldebug_ranges0+0x18
 2153 0a84 19       		.uleb128 0x19
 2154 0a85 17090000 		.4byte	0x917
 2155 0a89 79020000 		.4byte	.LLST3
 2156 0a8d 1A       		.uleb128 0x1a
 2157 0a8e 18000000 		.4byte	.Ldebug_ranges0+0x18
 2158 0a92 1C       		.uleb128 0x1c
 2159 0a93 2B0A0000 		.4byte	0xa2b
 2160 0a97 3A       		.uleb128 0x3a
 2161 0a98 94090000 		.4byte	0x994
 2162 0a9c 70000000 		.4byte	.LBB40
 2163 0aa0 18000000 		.4byte	.Ldebug_ranges0+0x18
 2164 0aa4 01       		.byte	0x1
 2165 0aa5 9D       		.byte	0x9d
 2166 0aa6 3B       		.uleb128 0x3b
ARM GAS  /var/folders/3j/4xdnk5197cv_b7cw3n33qk7r0000gn/T//ccjzjwHI.s 			page 39


 2167 0aa7 A4090000 		.4byte	0x9a4
 2168 0aab 1A       		.uleb128 0x1a
 2169 0aac 18000000 		.4byte	.Ldebug_ranges0+0x18
 2170 0ab0 1B       		.uleb128 0x1b
 2171 0ab1 AE090000 		.4byte	0x9ae
 2172 0ab5 8C020000 		.4byte	.LLST4
 2173 0ab9 00       		.byte	0
 2174 0aba 00       		.byte	0
 2175 0abb 00       		.byte	0
 2176 0abc 00       		.byte	0
 2177 0abd 00       		.byte	0
 2178 0abe 35       		.uleb128 0x35
 2179 0abf 94090000 		.4byte	0x994
 2180 0ac3 00000000 		.4byte	.LFB8
 2181 0ac7 48000000 		.4byte	.LFE8-.LFB8
 2182 0acb 01       		.uleb128 0x1
 2183 0acc 9C       		.byte	0x9c
 2184 0acd E40A0000 		.4byte	0xae4
 2185 0ad1 19       		.uleb128 0x19
 2186 0ad2 A4090000 		.4byte	0x9a4
 2187 0ad6 AB020000 		.4byte	.LLST5
 2188 0ada 1B       		.uleb128 0x1b
 2189 0adb AE090000 		.4byte	0x9ae
 2190 0adf C9020000 		.4byte	.LLST6
 2191 0ae3 00       		.byte	0
 2192 0ae4 3C       		.uleb128 0x3c
 2193 0ae5 BB020000 		.4byte	.LASF115
 2194 0ae9 BB020000 		.4byte	.LASF115
 2195 0aed 08       		.byte	0x8
 2196 0aee DA01     		.2byte	0x1da
 2197 0af0 3D       		.uleb128 0x3d
 2198 0af1 C7030000 		.4byte	.LASF116
 2199 0af5 C7030000 		.4byte	.LASF116
 2200 0af9 09       		.byte	0x9
 2201 0afa DA       		.byte	0xda
 2202 0afb 3D       		.uleb128 0x3d
 2203 0afc 94050000 		.4byte	.LASF117
 2204 0b00 94050000 		.4byte	.LASF117
 2205 0b04 09       		.byte	0x9
 2206 0b05 DB       		.byte	0xdb
 2207 0b06 00       		.byte	0
 2208              		.section	.debug_abbrev,"",%progbits
 2209              	.Ldebug_abbrev0:
 2210 0000 01       		.uleb128 0x1
 2211 0001 11       		.uleb128 0x11
 2212 0002 01       		.byte	0x1
 2213 0003 25       		.uleb128 0x25
 2214 0004 0E       		.uleb128 0xe
 2215 0005 13       		.uleb128 0x13
 2216 0006 0B       		.uleb128 0xb
 2217 0007 03       		.uleb128 0x3
 2218 0008 0E       		.uleb128 0xe
 2219 0009 1B       		.uleb128 0x1b
 2220 000a 0E       		.uleb128 0xe
 2221 000b 55       		.uleb128 0x55
 2222 000c 17       		.uleb128 0x17
 2223 000d 11       		.uleb128 0x11
ARM GAS  /var/folders/3j/4xdnk5197cv_b7cw3n33qk7r0000gn/T//ccjzjwHI.s 			page 40


 2224 000e 01       		.uleb128 0x1
 2225 000f 10       		.uleb128 0x10
 2226 0010 17       		.uleb128 0x17
 2227 0011 00       		.byte	0
 2228 0012 00       		.byte	0
 2229 0013 02       		.uleb128 0x2
 2230 0014 24       		.uleb128 0x24
 2231 0015 00       		.byte	0
 2232 0016 0B       		.uleb128 0xb
 2233 0017 0B       		.uleb128 0xb
 2234 0018 3E       		.uleb128 0x3e
 2235 0019 0B       		.uleb128 0xb
 2236 001a 03       		.uleb128 0x3
 2237 001b 08       		.uleb128 0x8
 2238 001c 00       		.byte	0
 2239 001d 00       		.byte	0
 2240 001e 03       		.uleb128 0x3
 2241 001f 24       		.uleb128 0x24
 2242 0020 00       		.byte	0
 2243 0021 0B       		.uleb128 0xb
 2244 0022 0B       		.uleb128 0xb
 2245 0023 3E       		.uleb128 0x3e
 2246 0024 0B       		.uleb128 0xb
 2247 0025 03       		.uleb128 0x3
 2248 0026 0E       		.uleb128 0xe
 2249 0027 00       		.byte	0
 2250 0028 00       		.byte	0
 2251 0029 04       		.uleb128 0x4
 2252 002a 16       		.uleb128 0x16
 2253 002b 00       		.byte	0
 2254 002c 03       		.uleb128 0x3
 2255 002d 0E       		.uleb128 0xe
 2256 002e 3A       		.uleb128 0x3a
 2257 002f 0B       		.uleb128 0xb
 2258 0030 3B       		.uleb128 0x3b
 2259 0031 0B       		.uleb128 0xb
 2260 0032 49       		.uleb128 0x49
 2261 0033 13       		.uleb128 0x13
 2262 0034 00       		.byte	0
 2263 0035 00       		.byte	0
 2264 0036 05       		.uleb128 0x5
 2265 0037 35       		.uleb128 0x35
 2266 0038 00       		.byte	0
 2267 0039 49       		.uleb128 0x49
 2268 003a 13       		.uleb128 0x13
 2269 003b 00       		.byte	0
 2270 003c 00       		.byte	0
 2271 003d 06       		.uleb128 0x6
 2272 003e 13       		.uleb128 0x13
 2273 003f 01       		.byte	0x1
 2274 0040 03       		.uleb128 0x3
 2275 0041 0E       		.uleb128 0xe
 2276 0042 0B       		.uleb128 0xb
 2277 0043 0B       		.uleb128 0xb
 2278 0044 3A       		.uleb128 0x3a
 2279 0045 0B       		.uleb128 0xb
 2280 0046 3B       		.uleb128 0x3b
ARM GAS  /var/folders/3j/4xdnk5197cv_b7cw3n33qk7r0000gn/T//ccjzjwHI.s 			page 41


 2281 0047 0B       		.uleb128 0xb
 2282 0048 01       		.uleb128 0x1
 2283 0049 13       		.uleb128 0x13
 2284 004a 00       		.byte	0
 2285 004b 00       		.byte	0
 2286 004c 07       		.uleb128 0x7
 2287 004d 0D       		.uleb128 0xd
 2288 004e 00       		.byte	0
 2289 004f 03       		.uleb128 0x3
 2290 0050 0E       		.uleb128 0xe
 2291 0051 3A       		.uleb128 0x3a
 2292 0052 0B       		.uleb128 0xb
 2293 0053 3B       		.uleb128 0x3b
 2294 0054 0B       		.uleb128 0xb
 2295 0055 49       		.uleb128 0x49
 2296 0056 13       		.uleb128 0x13
 2297 0057 38       		.uleb128 0x38
 2298 0058 0B       		.uleb128 0xb
 2299 0059 00       		.byte	0
 2300 005a 00       		.byte	0
 2301 005b 08       		.uleb128 0x8
 2302 005c 0D       		.uleb128 0xd
 2303 005d 00       		.byte	0
 2304 005e 03       		.uleb128 0x3
 2305 005f 08       		.uleb128 0x8
 2306 0060 3A       		.uleb128 0x3a
 2307 0061 0B       		.uleb128 0xb
 2308 0062 3B       		.uleb128 0x3b
 2309 0063 0B       		.uleb128 0xb
 2310 0064 49       		.uleb128 0x49
 2311 0065 13       		.uleb128 0x13
 2312 0066 38       		.uleb128 0x38
 2313 0067 0B       		.uleb128 0xb
 2314 0068 00       		.byte	0
 2315 0069 00       		.byte	0
 2316 006a 09       		.uleb128 0x9
 2317 006b 13       		.uleb128 0x13
 2318 006c 01       		.byte	0x1
 2319 006d 0B       		.uleb128 0xb
 2320 006e 0B       		.uleb128 0xb
 2321 006f 3A       		.uleb128 0x3a
 2322 0070 0B       		.uleb128 0xb
 2323 0071 3B       		.uleb128 0x3b
 2324 0072 0B       		.uleb128 0xb
 2325 0073 01       		.uleb128 0x1
 2326 0074 13       		.uleb128 0x13
 2327 0075 00       		.byte	0
 2328 0076 00       		.byte	0
 2329 0077 0A       		.uleb128 0xa
 2330 0078 0F       		.uleb128 0xf
 2331 0079 00       		.byte	0
 2332 007a 0B       		.uleb128 0xb
 2333 007b 0B       		.uleb128 0xb
 2334 007c 49       		.uleb128 0x49
 2335 007d 13       		.uleb128 0x13
 2336 007e 00       		.byte	0
 2337 007f 00       		.byte	0
ARM GAS  /var/folders/3j/4xdnk5197cv_b7cw3n33qk7r0000gn/T//ccjzjwHI.s 			page 42


 2338 0080 0B       		.uleb128 0xb
 2339 0081 0F       		.uleb128 0xf
 2340 0082 00       		.byte	0
 2341 0083 0B       		.uleb128 0xb
 2342 0084 0B       		.uleb128 0xb
 2343 0085 00       		.byte	0
 2344 0086 00       		.byte	0
 2345 0087 0C       		.uleb128 0xc
 2346 0088 15       		.uleb128 0x15
 2347 0089 01       		.byte	0x1
 2348 008a 27       		.uleb128 0x27
 2349 008b 19       		.uleb128 0x19
 2350 008c 01       		.uleb128 0x1
 2351 008d 13       		.uleb128 0x13
 2352 008e 00       		.byte	0
 2353 008f 00       		.byte	0
 2354 0090 0D       		.uleb128 0xd
 2355 0091 05       		.uleb128 0x5
 2356 0092 00       		.byte	0
 2357 0093 49       		.uleb128 0x49
 2358 0094 13       		.uleb128 0x13
 2359 0095 00       		.byte	0
 2360 0096 00       		.byte	0
 2361 0097 0E       		.uleb128 0xe
 2362 0098 34       		.uleb128 0x34
 2363 0099 00       		.byte	0
 2364 009a 03       		.uleb128 0x3
 2365 009b 0E       		.uleb128 0xe
 2366 009c 3A       		.uleb128 0x3a
 2367 009d 0B       		.uleb128 0xb
 2368 009e 3B       		.uleb128 0x3b
 2369 009f 0B       		.uleb128 0xb
 2370 00a0 49       		.uleb128 0x49
 2371 00a1 13       		.uleb128 0x13
 2372 00a2 3F       		.uleb128 0x3f
 2373 00a3 19       		.uleb128 0x19
 2374 00a4 3C       		.uleb128 0x3c
 2375 00a5 19       		.uleb128 0x19
 2376 00a6 00       		.byte	0
 2377 00a7 00       		.byte	0
 2378 00a8 0F       		.uleb128 0xf
 2379 00a9 17       		.uleb128 0x17
 2380 00aa 01       		.byte	0x1
 2381 00ab 0B       		.uleb128 0xb
 2382 00ac 0B       		.uleb128 0xb
 2383 00ad 3A       		.uleb128 0x3a
 2384 00ae 0B       		.uleb128 0xb
 2385 00af 3B       		.uleb128 0x3b
 2386 00b0 0B       		.uleb128 0xb
 2387 00b1 01       		.uleb128 0x1
 2388 00b2 13       		.uleb128 0x13
 2389 00b3 00       		.byte	0
 2390 00b4 00       		.byte	0
 2391 00b5 10       		.uleb128 0x10
 2392 00b6 0D       		.uleb128 0xd
 2393 00b7 00       		.byte	0
 2394 00b8 03       		.uleb128 0x3
ARM GAS  /var/folders/3j/4xdnk5197cv_b7cw3n33qk7r0000gn/T//ccjzjwHI.s 			page 43


 2395 00b9 0E       		.uleb128 0xe
 2396 00ba 3A       		.uleb128 0x3a
 2397 00bb 0B       		.uleb128 0xb
 2398 00bc 3B       		.uleb128 0x3b
 2399 00bd 0B       		.uleb128 0xb
 2400 00be 49       		.uleb128 0x49
 2401 00bf 13       		.uleb128 0x13
 2402 00c0 00       		.byte	0
 2403 00c1 00       		.byte	0
 2404 00c2 11       		.uleb128 0x11
 2405 00c3 26       		.uleb128 0x26
 2406 00c4 00       		.byte	0
 2407 00c5 49       		.uleb128 0x49
 2408 00c6 13       		.uleb128 0x13
 2409 00c7 00       		.byte	0
 2410 00c8 00       		.byte	0
 2411 00c9 12       		.uleb128 0x12
 2412 00ca 01       		.uleb128 0x1
 2413 00cb 01       		.byte	0x1
 2414 00cc 49       		.uleb128 0x49
 2415 00cd 13       		.uleb128 0x13
 2416 00ce 01       		.uleb128 0x1
 2417 00cf 13       		.uleb128 0x13
 2418 00d0 00       		.byte	0
 2419 00d1 00       		.byte	0
 2420 00d2 13       		.uleb128 0x13
 2421 00d3 21       		.uleb128 0x21
 2422 00d4 00       		.byte	0
 2423 00d5 49       		.uleb128 0x49
 2424 00d6 13       		.uleb128 0x13
 2425 00d7 2F       		.uleb128 0x2f
 2426 00d8 0B       		.uleb128 0xb
 2427 00d9 00       		.byte	0
 2428 00da 00       		.byte	0
 2429 00db 14       		.uleb128 0x14
 2430 00dc 34       		.uleb128 0x34
 2431 00dd 00       		.byte	0
 2432 00de 47       		.uleb128 0x47
 2433 00df 13       		.uleb128 0x13
 2434 00e0 3A       		.uleb128 0x3a
 2435 00e1 0B       		.uleb128 0xb
 2436 00e2 3B       		.uleb128 0x3b
 2437 00e3 0B       		.uleb128 0xb
 2438 00e4 02       		.uleb128 0x2
 2439 00e5 18       		.uleb128 0x18
 2440 00e6 00       		.byte	0
 2441 00e7 00       		.byte	0
 2442 00e8 15       		.uleb128 0x15
 2443 00e9 2E       		.uleb128 0x2e
 2444 00ea 01       		.byte	0x1
 2445 00eb 3F       		.uleb128 0x3f
 2446 00ec 19       		.uleb128 0x19
 2447 00ed 03       		.uleb128 0x3
 2448 00ee 0E       		.uleb128 0xe
 2449 00ef 3A       		.uleb128 0x3a
 2450 00f0 0B       		.uleb128 0xb
 2451 00f1 3B       		.uleb128 0x3b
ARM GAS  /var/folders/3j/4xdnk5197cv_b7cw3n33qk7r0000gn/T//ccjzjwHI.s 			page 44


 2452 00f2 05       		.uleb128 0x5
 2453 00f3 27       		.uleb128 0x27
 2454 00f4 19       		.uleb128 0x19
 2455 00f5 11       		.uleb128 0x11
 2456 00f6 01       		.uleb128 0x1
 2457 00f7 12       		.uleb128 0x12
 2458 00f8 06       		.uleb128 0x6
 2459 00f9 40       		.uleb128 0x40
 2460 00fa 18       		.uleb128 0x18
 2461 00fb 9742     		.uleb128 0x2117
 2462 00fd 19       		.uleb128 0x19
 2463 00fe 01       		.uleb128 0x1
 2464 00ff 13       		.uleb128 0x13
 2465 0100 00       		.byte	0
 2466 0101 00       		.byte	0
 2467 0102 16       		.uleb128 0x16
 2468 0103 898201   		.uleb128 0x4109
 2469 0106 00       		.byte	0
 2470 0107 11       		.uleb128 0x11
 2471 0108 01       		.uleb128 0x1
 2472 0109 9542     		.uleb128 0x2115
 2473 010b 19       		.uleb128 0x19
 2474 010c 31       		.uleb128 0x31
 2475 010d 13       		.uleb128 0x13
 2476 010e 00       		.byte	0
 2477 010f 00       		.byte	0
 2478 0110 17       		.uleb128 0x17
 2479 0111 34       		.uleb128 0x34
 2480 0112 00       		.byte	0
 2481 0113 03       		.uleb128 0x3
 2482 0114 08       		.uleb128 0x8
 2483 0115 3A       		.uleb128 0x3a
 2484 0116 0B       		.uleb128 0xb
 2485 0117 3B       		.uleb128 0x3b
 2486 0118 05       		.uleb128 0x5
 2487 0119 49       		.uleb128 0x49
 2488 011a 13       		.uleb128 0x13
 2489 011b 02       		.uleb128 0x2
 2490 011c 17       		.uleb128 0x17
 2491 011d 00       		.byte	0
 2492 011e 00       		.byte	0
 2493 011f 18       		.uleb128 0x18
 2494 0120 1D       		.uleb128 0x1d
 2495 0121 01       		.byte	0x1
 2496 0122 31       		.uleb128 0x31
 2497 0123 13       		.uleb128 0x13
 2498 0124 52       		.uleb128 0x52
 2499 0125 01       		.uleb128 0x1
 2500 0126 55       		.uleb128 0x55
 2501 0127 17       		.uleb128 0x17
 2502 0128 58       		.uleb128 0x58
 2503 0129 0B       		.uleb128 0xb
 2504 012a 59       		.uleb128 0x59
 2505 012b 05       		.uleb128 0x5
 2506 012c 01       		.uleb128 0x1
 2507 012d 13       		.uleb128 0x13
 2508 012e 00       		.byte	0
ARM GAS  /var/folders/3j/4xdnk5197cv_b7cw3n33qk7r0000gn/T//ccjzjwHI.s 			page 45


 2509 012f 00       		.byte	0
 2510 0130 19       		.uleb128 0x19
 2511 0131 05       		.uleb128 0x5
 2512 0132 00       		.byte	0
 2513 0133 31       		.uleb128 0x31
 2514 0134 13       		.uleb128 0x13
 2515 0135 02       		.uleb128 0x2
 2516 0136 17       		.uleb128 0x17
 2517 0137 00       		.byte	0
 2518 0138 00       		.byte	0
 2519 0139 1A       		.uleb128 0x1a
 2520 013a 0B       		.uleb128 0xb
 2521 013b 01       		.byte	0x1
 2522 013c 55       		.uleb128 0x55
 2523 013d 17       		.uleb128 0x17
 2524 013e 00       		.byte	0
 2525 013f 00       		.byte	0
 2526 0140 1B       		.uleb128 0x1b
 2527 0141 34       		.uleb128 0x34
 2528 0142 00       		.byte	0
 2529 0143 31       		.uleb128 0x31
 2530 0144 13       		.uleb128 0x13
 2531 0145 02       		.uleb128 0x2
 2532 0146 17       		.uleb128 0x17
 2533 0147 00       		.byte	0
 2534 0148 00       		.byte	0
 2535 0149 1C       		.uleb128 0x1c
 2536 014a 34       		.uleb128 0x34
 2537 014b 00       		.byte	0
 2538 014c 31       		.uleb128 0x31
 2539 014d 13       		.uleb128 0x13
 2540 014e 00       		.byte	0
 2541 014f 00       		.byte	0
 2542 0150 1D       		.uleb128 0x1d
 2543 0151 2E       		.uleb128 0x2e
 2544 0152 01       		.byte	0x1
 2545 0153 3F       		.uleb128 0x3f
 2546 0154 19       		.uleb128 0x19
 2547 0155 03       		.uleb128 0x3
 2548 0156 0E       		.uleb128 0xe
 2549 0157 3A       		.uleb128 0x3a
 2550 0158 0B       		.uleb128 0xb
 2551 0159 3B       		.uleb128 0x3b
 2552 015a 05       		.uleb128 0x5
 2553 015b 27       		.uleb128 0x27
 2554 015c 19       		.uleb128 0x19
 2555 015d 49       		.uleb128 0x49
 2556 015e 13       		.uleb128 0x13
 2557 015f 11       		.uleb128 0x11
 2558 0160 01       		.uleb128 0x1
 2559 0161 12       		.uleb128 0x12
 2560 0162 06       		.uleb128 0x6
 2561 0163 40       		.uleb128 0x40
 2562 0164 18       		.uleb128 0x18
 2563 0165 9742     		.uleb128 0x2117
 2564 0167 19       		.uleb128 0x19
 2565 0168 01       		.uleb128 0x1
ARM GAS  /var/folders/3j/4xdnk5197cv_b7cw3n33qk7r0000gn/T//ccjzjwHI.s 			page 46


 2566 0169 13       		.uleb128 0x13
 2567 016a 00       		.byte	0
 2568 016b 00       		.byte	0
 2569 016c 1E       		.uleb128 0x1e
 2570 016d 34       		.uleb128 0x34
 2571 016e 00       		.byte	0
 2572 016f 03       		.uleb128 0x3
 2573 0170 08       		.uleb128 0x8
 2574 0171 3A       		.uleb128 0x3a
 2575 0172 0B       		.uleb128 0xb
 2576 0173 3B       		.uleb128 0x3b
 2577 0174 05       		.uleb128 0x5
 2578 0175 49       		.uleb128 0x49
 2579 0176 13       		.uleb128 0x13
 2580 0177 02       		.uleb128 0x2
 2581 0178 18       		.uleb128 0x18
 2582 0179 00       		.byte	0
 2583 017a 00       		.byte	0
 2584 017b 1F       		.uleb128 0x1f
 2585 017c 2E       		.uleb128 0x2e
 2586 017d 01       		.byte	0x1
 2587 017e 3F       		.uleb128 0x3f
 2588 017f 19       		.uleb128 0x19
 2589 0180 03       		.uleb128 0x3
 2590 0181 0E       		.uleb128 0xe
 2591 0182 3A       		.uleb128 0x3a
 2592 0183 0B       		.uleb128 0xb
 2593 0184 3B       		.uleb128 0x3b
 2594 0185 0B       		.uleb128 0xb
 2595 0186 27       		.uleb128 0x27
 2596 0187 19       		.uleb128 0x19
 2597 0188 11       		.uleb128 0x11
 2598 0189 01       		.uleb128 0x1
 2599 018a 12       		.uleb128 0x12
 2600 018b 06       		.uleb128 0x6
 2601 018c 40       		.uleb128 0x40
 2602 018d 18       		.uleb128 0x18
 2603 018e 9742     		.uleb128 0x2117
 2604 0190 19       		.uleb128 0x19
 2605 0191 01       		.uleb128 0x1
 2606 0192 13       		.uleb128 0x13
 2607 0193 00       		.byte	0
 2608 0194 00       		.byte	0
 2609 0195 20       		.uleb128 0x20
 2610 0196 05       		.uleb128 0x5
 2611 0197 00       		.byte	0
 2612 0198 03       		.uleb128 0x3
 2613 0199 08       		.uleb128 0x8
 2614 019a 3A       		.uleb128 0x3a
 2615 019b 0B       		.uleb128 0xb
 2616 019c 3B       		.uleb128 0x3b
 2617 019d 0B       		.uleb128 0xb
 2618 019e 49       		.uleb128 0x49
 2619 019f 13       		.uleb128 0x13
 2620 01a0 02       		.uleb128 0x2
 2621 01a1 17       		.uleb128 0x17
 2622 01a2 00       		.byte	0
ARM GAS  /var/folders/3j/4xdnk5197cv_b7cw3n33qk7r0000gn/T//ccjzjwHI.s 			page 47


 2623 01a3 00       		.byte	0
 2624 01a4 21       		.uleb128 0x21
 2625 01a5 0B       		.uleb128 0xb
 2626 01a6 01       		.byte	0x1
 2627 01a7 55       		.uleb128 0x55
 2628 01a8 17       		.uleb128 0x17
 2629 01a9 01       		.uleb128 0x1
 2630 01aa 13       		.uleb128 0x13
 2631 01ab 00       		.byte	0
 2632 01ac 00       		.byte	0
 2633 01ad 22       		.uleb128 0x22
 2634 01ae 34       		.uleb128 0x34
 2635 01af 00       		.byte	0
 2636 01b0 03       		.uleb128 0x3
 2637 01b1 08       		.uleb128 0x8
 2638 01b2 3A       		.uleb128 0x3a
 2639 01b3 0B       		.uleb128 0xb
 2640 01b4 3B       		.uleb128 0x3b
 2641 01b5 0B       		.uleb128 0xb
 2642 01b6 49       		.uleb128 0x49
 2643 01b7 13       		.uleb128 0x13
 2644 01b8 00       		.byte	0
 2645 01b9 00       		.byte	0
 2646 01ba 23       		.uleb128 0x23
 2647 01bb 1D       		.uleb128 0x1d
 2648 01bc 01       		.byte	0x1
 2649 01bd 31       		.uleb128 0x31
 2650 01be 13       		.uleb128 0x13
 2651 01bf 52       		.uleb128 0x52
 2652 01c0 01       		.uleb128 0x1
 2653 01c1 55       		.uleb128 0x55
 2654 01c2 17       		.uleb128 0x17
 2655 01c3 58       		.uleb128 0x58
 2656 01c4 0B       		.uleb128 0xb
 2657 01c5 59       		.uleb128 0x59
 2658 01c6 0B       		.uleb128 0xb
 2659 01c7 01       		.uleb128 0x1
 2660 01c8 13       		.uleb128 0x13
 2661 01c9 00       		.byte	0
 2662 01ca 00       		.byte	0
 2663 01cb 24       		.uleb128 0x24
 2664 01cc 898201   		.uleb128 0x4109
 2665 01cf 01       		.byte	0x1
 2666 01d0 11       		.uleb128 0x11
 2667 01d1 01       		.uleb128 0x1
 2668 01d2 9542     		.uleb128 0x2115
 2669 01d4 19       		.uleb128 0x19
 2670 01d5 31       		.uleb128 0x31
 2671 01d6 13       		.uleb128 0x13
 2672 01d7 00       		.byte	0
 2673 01d8 00       		.byte	0
 2674 01d9 25       		.uleb128 0x25
 2675 01da 8A8201   		.uleb128 0x410a
 2676 01dd 00       		.byte	0
 2677 01de 02       		.uleb128 0x2
 2678 01df 18       		.uleb128 0x18
 2679 01e0 9142     		.uleb128 0x2111
ARM GAS  /var/folders/3j/4xdnk5197cv_b7cw3n33qk7r0000gn/T//ccjzjwHI.s 			page 48


 2680 01e2 18       		.uleb128 0x18
 2681 01e3 00       		.byte	0
 2682 01e4 00       		.byte	0
 2683 01e5 26       		.uleb128 0x26
 2684 01e6 1D       		.uleb128 0x1d
 2685 01e7 01       		.byte	0x1
 2686 01e8 31       		.uleb128 0x31
 2687 01e9 13       		.uleb128 0x13
 2688 01ea 11       		.uleb128 0x11
 2689 01eb 01       		.uleb128 0x1
 2690 01ec 12       		.uleb128 0x12
 2691 01ed 06       		.uleb128 0x6
 2692 01ee 58       		.uleb128 0x58
 2693 01ef 0B       		.uleb128 0xb
 2694 01f0 59       		.uleb128 0x59
 2695 01f1 0B       		.uleb128 0xb
 2696 01f2 00       		.byte	0
 2697 01f3 00       		.byte	0
 2698 01f4 27       		.uleb128 0x27
 2699 01f5 0B       		.uleb128 0xb
 2700 01f6 01       		.byte	0x1
 2701 01f7 11       		.uleb128 0x11
 2702 01f8 01       		.uleb128 0x1
 2703 01f9 12       		.uleb128 0x12
 2704 01fa 06       		.uleb128 0x6
 2705 01fb 00       		.byte	0
 2706 01fc 00       		.byte	0
 2707 01fd 28       		.uleb128 0x28
 2708 01fe 2E       		.uleb128 0x2e
 2709 01ff 01       		.byte	0x1
 2710 0200 3F       		.uleb128 0x3f
 2711 0201 19       		.uleb128 0x19
 2712 0202 03       		.uleb128 0x3
 2713 0203 0E       		.uleb128 0xe
 2714 0204 3A       		.uleb128 0x3a
 2715 0205 0B       		.uleb128 0xb
 2716 0206 3B       		.uleb128 0x3b
 2717 0207 0B       		.uleb128 0xb
 2718 0208 27       		.uleb128 0x27
 2719 0209 19       		.uleb128 0x19
 2720 020a 49       		.uleb128 0x49
 2721 020b 13       		.uleb128 0x13
 2722 020c 11       		.uleb128 0x11
 2723 020d 01       		.uleb128 0x1
 2724 020e 12       		.uleb128 0x12
 2725 020f 06       		.uleb128 0x6
 2726 0210 40       		.uleb128 0x40
 2727 0211 18       		.uleb128 0x18
 2728 0212 9742     		.uleb128 0x2117
 2729 0214 19       		.uleb128 0x19
 2730 0215 01       		.uleb128 0x1
 2731 0216 13       		.uleb128 0x13
 2732 0217 00       		.byte	0
 2733 0218 00       		.byte	0
 2734 0219 29       		.uleb128 0x29
 2735 021a 05       		.uleb128 0x5
 2736 021b 00       		.byte	0
ARM GAS  /var/folders/3j/4xdnk5197cv_b7cw3n33qk7r0000gn/T//ccjzjwHI.s 			page 49


 2737 021c 03       		.uleb128 0x3
 2738 021d 0E       		.uleb128 0xe
 2739 021e 3A       		.uleb128 0x3a
 2740 021f 0B       		.uleb128 0xb
 2741 0220 3B       		.uleb128 0x3b
 2742 0221 0B       		.uleb128 0xb
 2743 0222 49       		.uleb128 0x49
 2744 0223 13       		.uleb128 0x13
 2745 0224 02       		.uleb128 0x2
 2746 0225 17       		.uleb128 0x17
 2747 0226 00       		.byte	0
 2748 0227 00       		.byte	0
 2749 0228 2A       		.uleb128 0x2a
 2750 0229 0B       		.uleb128 0xb
 2751 022a 01       		.byte	0x1
 2752 022b 11       		.uleb128 0x11
 2753 022c 01       		.uleb128 0x1
 2754 022d 12       		.uleb128 0x12
 2755 022e 06       		.uleb128 0x6
 2756 022f 01       		.uleb128 0x1
 2757 0230 13       		.uleb128 0x13
 2758 0231 00       		.byte	0
 2759 0232 00       		.byte	0
 2760 0233 2B       		.uleb128 0x2b
 2761 0234 34       		.uleb128 0x34
 2762 0235 00       		.byte	0
 2763 0236 03       		.uleb128 0x3
 2764 0237 08       		.uleb128 0x8
 2765 0238 3A       		.uleb128 0x3a
 2766 0239 0B       		.uleb128 0xb
 2767 023a 3B       		.uleb128 0x3b
 2768 023b 0B       		.uleb128 0xb
 2769 023c 49       		.uleb128 0x49
 2770 023d 13       		.uleb128 0x13
 2771 023e 02       		.uleb128 0x2
 2772 023f 18       		.uleb128 0x18
 2773 0240 00       		.byte	0
 2774 0241 00       		.byte	0
 2775 0242 2C       		.uleb128 0x2c
 2776 0243 898201   		.uleb128 0x4109
 2777 0246 01       		.byte	0x1
 2778 0247 11       		.uleb128 0x11
 2779 0248 01       		.uleb128 0x1
 2780 0249 31       		.uleb128 0x31
 2781 024a 13       		.uleb128 0x13
 2782 024b 01       		.uleb128 0x1
 2783 024c 13       		.uleb128 0x13
 2784 024d 00       		.byte	0
 2785 024e 00       		.byte	0
 2786 024f 2D       		.uleb128 0x2d
 2787 0250 898201   		.uleb128 0x4109
 2788 0253 01       		.byte	0x1
 2789 0254 11       		.uleb128 0x11
 2790 0255 01       		.uleb128 0x1
 2791 0256 31       		.uleb128 0x31
 2792 0257 13       		.uleb128 0x13
 2793 0258 00       		.byte	0
ARM GAS  /var/folders/3j/4xdnk5197cv_b7cw3n33qk7r0000gn/T//ccjzjwHI.s 			page 50


 2794 0259 00       		.byte	0
 2795 025a 2E       		.uleb128 0x2e
 2796 025b 898201   		.uleb128 0x4109
 2797 025e 00       		.byte	0
 2798 025f 11       		.uleb128 0x11
 2799 0260 01       		.uleb128 0x1
 2800 0261 31       		.uleb128 0x31
 2801 0262 13       		.uleb128 0x13
 2802 0263 00       		.byte	0
 2803 0264 00       		.byte	0
 2804 0265 2F       		.uleb128 0x2f
 2805 0266 2E       		.uleb128 0x2e
 2806 0267 01       		.byte	0x1
 2807 0268 03       		.uleb128 0x3
 2808 0269 0E       		.uleb128 0xe
 2809 026a 3A       		.uleb128 0x3a
 2810 026b 0B       		.uleb128 0xb
 2811 026c 3B       		.uleb128 0x3b
 2812 026d 0B       		.uleb128 0xb
 2813 026e 27       		.uleb128 0x27
 2814 026f 19       		.uleb128 0x19
 2815 0270 20       		.uleb128 0x20
 2816 0271 0B       		.uleb128 0xb
 2817 0272 01       		.uleb128 0x1
 2818 0273 13       		.uleb128 0x13
 2819 0274 00       		.byte	0
 2820 0275 00       		.byte	0
 2821 0276 30       		.uleb128 0x30
 2822 0277 05       		.uleb128 0x5
 2823 0278 00       		.byte	0
 2824 0279 03       		.uleb128 0x3
 2825 027a 08       		.uleb128 0x8
 2826 027b 3A       		.uleb128 0x3a
 2827 027c 0B       		.uleb128 0xb
 2828 027d 3B       		.uleb128 0x3b
 2829 027e 0B       		.uleb128 0xb
 2830 027f 49       		.uleb128 0x49
 2831 0280 13       		.uleb128 0x13
 2832 0281 00       		.byte	0
 2833 0282 00       		.byte	0
 2834 0283 31       		.uleb128 0x31
 2835 0284 34       		.uleb128 0x34
 2836 0285 00       		.byte	0
 2837 0286 03       		.uleb128 0x3
 2838 0287 08       		.uleb128 0x8
 2839 0288 3A       		.uleb128 0x3a
 2840 0289 0B       		.uleb128 0xb
 2841 028a 3B       		.uleb128 0x3b
 2842 028b 0B       		.uleb128 0xb
 2843 028c 49       		.uleb128 0x49
 2844 028d 13       		.uleb128 0x13
 2845 028e 02       		.uleb128 0x2
 2846 028f 17       		.uleb128 0x17
 2847 0290 00       		.byte	0
 2848 0291 00       		.byte	0
 2849 0292 32       		.uleb128 0x32
 2850 0293 2E       		.uleb128 0x2e
ARM GAS  /var/folders/3j/4xdnk5197cv_b7cw3n33qk7r0000gn/T//ccjzjwHI.s 			page 51


 2851 0294 01       		.byte	0x1
 2852 0295 3F       		.uleb128 0x3f
 2853 0296 19       		.uleb128 0x19
 2854 0297 03       		.uleb128 0x3
 2855 0298 0E       		.uleb128 0xe
 2856 0299 3A       		.uleb128 0x3a
 2857 029a 0B       		.uleb128 0xb
 2858 029b 3B       		.uleb128 0x3b
 2859 029c 0B       		.uleb128 0xb
 2860 029d 27       		.uleb128 0x27
 2861 029e 19       		.uleb128 0x19
 2862 029f 49       		.uleb128 0x49
 2863 02a0 13       		.uleb128 0x13
 2864 02a1 20       		.uleb128 0x20
 2865 02a2 0B       		.uleb128 0xb
 2866 02a3 01       		.uleb128 0x1
 2867 02a4 13       		.uleb128 0x13
 2868 02a5 00       		.byte	0
 2869 02a6 00       		.byte	0
 2870 02a7 33       		.uleb128 0x33
 2871 02a8 2E       		.uleb128 0x2e
 2872 02a9 00       		.byte	0
 2873 02aa 3F       		.uleb128 0x3f
 2874 02ab 19       		.uleb128 0x19
 2875 02ac 03       		.uleb128 0x3
 2876 02ad 0E       		.uleb128 0xe
 2877 02ae 3A       		.uleb128 0x3a
 2878 02af 0B       		.uleb128 0xb
 2879 02b0 3B       		.uleb128 0x3b
 2880 02b1 0B       		.uleb128 0xb
 2881 02b2 27       		.uleb128 0x27
 2882 02b3 19       		.uleb128 0x19
 2883 02b4 11       		.uleb128 0x11
 2884 02b5 01       		.uleb128 0x1
 2885 02b6 12       		.uleb128 0x12
 2886 02b7 06       		.uleb128 0x6
 2887 02b8 40       		.uleb128 0x40
 2888 02b9 18       		.uleb128 0x18
 2889 02ba 9742     		.uleb128 0x2117
 2890 02bc 19       		.uleb128 0x19
 2891 02bd 00       		.byte	0
 2892 02be 00       		.byte	0
 2893 02bf 34       		.uleb128 0x34
 2894 02c0 2E       		.uleb128 0x2e
 2895 02c1 01       		.byte	0x1
 2896 02c2 03       		.uleb128 0x3
 2897 02c3 0E       		.uleb128 0xe
 2898 02c4 3A       		.uleb128 0x3a
 2899 02c5 0B       		.uleb128 0xb
 2900 02c6 3B       		.uleb128 0x3b
 2901 02c7 0B       		.uleb128 0xb
 2902 02c8 27       		.uleb128 0x27
 2903 02c9 19       		.uleb128 0x19
 2904 02ca 49       		.uleb128 0x49
 2905 02cb 13       		.uleb128 0x13
 2906 02cc 20       		.uleb128 0x20
 2907 02cd 0B       		.uleb128 0xb
ARM GAS  /var/folders/3j/4xdnk5197cv_b7cw3n33qk7r0000gn/T//ccjzjwHI.s 			page 52


 2908 02ce 01       		.uleb128 0x1
 2909 02cf 13       		.uleb128 0x13
 2910 02d0 00       		.byte	0
 2911 02d1 00       		.byte	0
 2912 02d2 35       		.uleb128 0x35
 2913 02d3 2E       		.uleb128 0x2e
 2914 02d4 01       		.byte	0x1
 2915 02d5 31       		.uleb128 0x31
 2916 02d6 13       		.uleb128 0x13
 2917 02d7 11       		.uleb128 0x11
 2918 02d8 01       		.uleb128 0x1
 2919 02d9 12       		.uleb128 0x12
 2920 02da 06       		.uleb128 0x6
 2921 02db 40       		.uleb128 0x40
 2922 02dc 18       		.uleb128 0x18
 2923 02dd 9742     		.uleb128 0x2117
 2924 02df 19       		.uleb128 0x19
 2925 02e0 01       		.uleb128 0x1
 2926 02e1 13       		.uleb128 0x13
 2927 02e2 00       		.byte	0
 2928 02e3 00       		.byte	0
 2929 02e4 36       		.uleb128 0x36
 2930 02e5 05       		.uleb128 0x5
 2931 02e6 00       		.byte	0
 2932 02e7 31       		.uleb128 0x31
 2933 02e8 13       		.uleb128 0x13
 2934 02e9 02       		.uleb128 0x2
 2935 02ea 18       		.uleb128 0x18
 2936 02eb 00       		.byte	0
 2937 02ec 00       		.byte	0
 2938 02ed 37       		.uleb128 0x37
 2939 02ee 34       		.uleb128 0x34
 2940 02ef 00       		.byte	0
 2941 02f0 31       		.uleb128 0x31
 2942 02f1 13       		.uleb128 0x13
 2943 02f2 02       		.uleb128 0x2
 2944 02f3 18       		.uleb128 0x18
 2945 02f4 00       		.byte	0
 2946 02f5 00       		.byte	0
 2947 02f6 38       		.uleb128 0x38
 2948 02f7 1D       		.uleb128 0x1d
 2949 02f8 01       		.byte	0x1
 2950 02f9 31       		.uleb128 0x31
 2951 02fa 13       		.uleb128 0x13
 2952 02fb 11       		.uleb128 0x11
 2953 02fc 01       		.uleb128 0x1
 2954 02fd 12       		.uleb128 0x12
 2955 02fe 06       		.uleb128 0x6
 2956 02ff 58       		.uleb128 0x58
 2957 0300 0B       		.uleb128 0xb
 2958 0301 59       		.uleb128 0x59
 2959 0302 0B       		.uleb128 0xb
 2960 0303 01       		.uleb128 0x1
 2961 0304 13       		.uleb128 0x13
 2962 0305 00       		.byte	0
 2963 0306 00       		.byte	0
 2964 0307 39       		.uleb128 0x39
ARM GAS  /var/folders/3j/4xdnk5197cv_b7cw3n33qk7r0000gn/T//ccjzjwHI.s 			page 53


 2965 0308 0B       		.uleb128 0xb
 2966 0309 01       		.byte	0x1
 2967 030a 31       		.uleb128 0x31
 2968 030b 13       		.uleb128 0x13
 2969 030c 55       		.uleb128 0x55
 2970 030d 17       		.uleb128 0x17
 2971 030e 00       		.byte	0
 2972 030f 00       		.byte	0
 2973 0310 3A       		.uleb128 0x3a
 2974 0311 1D       		.uleb128 0x1d
 2975 0312 01       		.byte	0x1
 2976 0313 31       		.uleb128 0x31
 2977 0314 13       		.uleb128 0x13
 2978 0315 52       		.uleb128 0x52
 2979 0316 01       		.uleb128 0x1
 2980 0317 55       		.uleb128 0x55
 2981 0318 17       		.uleb128 0x17
 2982 0319 58       		.uleb128 0x58
 2983 031a 0B       		.uleb128 0xb
 2984 031b 59       		.uleb128 0x59
 2985 031c 0B       		.uleb128 0xb
 2986 031d 00       		.byte	0
 2987 031e 00       		.byte	0
 2988 031f 3B       		.uleb128 0x3b
 2989 0320 05       		.uleb128 0x5
 2990 0321 00       		.byte	0
 2991 0322 31       		.uleb128 0x31
 2992 0323 13       		.uleb128 0x13
 2993 0324 00       		.byte	0
 2994 0325 00       		.byte	0
 2995 0326 3C       		.uleb128 0x3c
 2996 0327 2E       		.uleb128 0x2e
 2997 0328 00       		.byte	0
 2998 0329 3F       		.uleb128 0x3f
 2999 032a 19       		.uleb128 0x19
 3000 032b 3C       		.uleb128 0x3c
 3001 032c 19       		.uleb128 0x19
 3002 032d 6E       		.uleb128 0x6e
 3003 032e 0E       		.uleb128 0xe
 3004 032f 03       		.uleb128 0x3
 3005 0330 0E       		.uleb128 0xe
 3006 0331 3A       		.uleb128 0x3a
 3007 0332 0B       		.uleb128 0xb
 3008 0333 3B       		.uleb128 0x3b
 3009 0334 05       		.uleb128 0x5
 3010 0335 00       		.byte	0
 3011 0336 00       		.byte	0
 3012 0337 3D       		.uleb128 0x3d
 3013 0338 2E       		.uleb128 0x2e
 3014 0339 00       		.byte	0
 3015 033a 3F       		.uleb128 0x3f
 3016 033b 19       		.uleb128 0x19
 3017 033c 3C       		.uleb128 0x3c
 3018 033d 19       		.uleb128 0x19
 3019 033e 6E       		.uleb128 0x6e
 3020 033f 0E       		.uleb128 0xe
 3021 0340 03       		.uleb128 0x3
ARM GAS  /var/folders/3j/4xdnk5197cv_b7cw3n33qk7r0000gn/T//ccjzjwHI.s 			page 54


 3022 0341 0E       		.uleb128 0xe
 3023 0342 3A       		.uleb128 0x3a
 3024 0343 0B       		.uleb128 0xb
 3025 0344 3B       		.uleb128 0x3b
 3026 0345 0B       		.uleb128 0xb
 3027 0346 00       		.byte	0
 3028 0347 00       		.byte	0
 3029 0348 00       		.byte	0
 3030              		.section	.debug_loc,"",%progbits
 3031              	.Ldebug_loc0:
 3032              	.LLST22:
 3033 0000 18000000 		.4byte	.LVL53
 3034 0004 6B000000 		.4byte	.LVL57-1
 3035 0008 0100     		.2byte	0x1
 3036 000a 51       		.byte	0x51
 3037 000b 00000000 		.4byte	0
 3038 000f 00000000 		.4byte	0
 3039              	.LLST23:
 3040 0013 30000000 		.4byte	.LVL55
 3041 0017 3C000000 		.4byte	.LVL56
 3042 001b 0600     		.2byte	0x6
 3043 001d 03       		.byte	0x3
 3044 001e 00000000 		.4byte	rlist
 3045 0022 9F       		.byte	0x9f
 3046 0023 00000000 		.4byte	0
 3047 0027 00000000 		.4byte	0
 3048              	.LLST24:
 3049 002b 18000000 		.4byte	.LVL53
 3050 002f 24000000 		.4byte	.LVL54
 3051 0033 0600     		.2byte	0x6
 3052 0035 03       		.byte	0x3
 3053 0036 00000000 		.4byte	rlist
 3054 003a 9F       		.byte	0x9f
 3055 003b 00000000 		.4byte	0
 3056 003f 00000000 		.4byte	0
 3057              	.LLST25:
 3058 0043 18000000 		.4byte	.LVL53
 3059 0047 24000000 		.4byte	.LVL54
 3060 004b 0100     		.2byte	0x1
 3061 004d 50       		.byte	0x50
 3062 004e 00000000 		.4byte	0
 3063 0052 00000000 		.4byte	0
 3064              	.LLST18:
 3065 0056 1C000000 		.4byte	.LVL46
 3066 005a 73000000 		.4byte	.LVL52-1
 3067 005e 0100     		.2byte	0x1
 3068 0060 51       		.byte	0x51
 3069 0061 00000000 		.4byte	0
 3070 0065 00000000 		.4byte	0
 3071              	.LLST19:
 3072 0069 3C000000 		.4byte	.LVL48
 3073 006d 70000000 		.4byte	.LVL51
 3074 0071 0100     		.2byte	0x1
 3075 0073 51       		.byte	0x51
 3076 0074 00000000 		.4byte	0
 3077 0078 00000000 		.4byte	0
 3078              	.LLST20:
ARM GAS  /var/folders/3j/4xdnk5197cv_b7cw3n33qk7r0000gn/T//ccjzjwHI.s 			page 55


 3079 007c 1C000000 		.4byte	.LVL46
 3080 0080 28000000 		.4byte	.LVL47
 3081 0084 0600     		.2byte	0x6
 3082 0086 03       		.byte	0x3
 3083 0087 00000000 		.4byte	rlist
 3084 008b 9F       		.byte	0x9f
 3085 008c 00000000 		.4byte	0
 3086 0090 00000000 		.4byte	0
 3087              	.LLST21:
 3088 0094 1C000000 		.4byte	.LVL46
 3089 0098 28000000 		.4byte	.LVL47
 3090 009c 0100     		.2byte	0x1
 3091 009e 50       		.byte	0x50
 3092 009f 00000000 		.4byte	0
 3093 00a3 00000000 		.4byte	0
 3094              	.LLST17:
 3095 00a7 14000000 		.4byte	.LVL41
 3096 00ab 28000000 		.4byte	.LVL43
 3097 00af 0100     		.2byte	0x1
 3098 00b1 50       		.byte	0x50
 3099 00b2 28000000 		.4byte	.LVL43
 3100 00b6 30000000 		.4byte	.LVL44
 3101 00ba 0200     		.2byte	0x2
 3102 00bc 71       		.byte	0x71
 3103 00bd 08       		.sleb128 8
 3104 00be 30000000 		.4byte	.LVL44
 3105 00c2 38000000 		.4byte	.LVL45
 3106 00c6 0100     		.2byte	0x1
 3107 00c8 50       		.byte	0x50
 3108 00c9 38000000 		.4byte	.LVL45
 3109 00cd 44000000 		.4byte	.LFE14
 3110 00d1 0200     		.2byte	0x2
 3111 00d3 71       		.byte	0x71
 3112 00d4 08       		.sleb128 8
 3113 00d5 00000000 		.4byte	0
 3114 00d9 00000000 		.4byte	0
 3115              	.LLST13:
 3116 00dd 00000000 		.4byte	.LVL27
 3117 00e1 14000000 		.4byte	.LVL28
 3118 00e5 0100     		.2byte	0x1
 3119 00e7 50       		.byte	0x50
 3120 00e8 14000000 		.4byte	.LVL28
 3121 00ec A7000000 		.4byte	.LVL40-1
 3122 00f0 0100     		.2byte	0x1
 3123 00f2 5C       		.byte	0x5c
 3124 00f3 A7000000 		.4byte	.LVL40-1
 3125 00f7 AC000000 		.4byte	.LFE12
 3126 00fb 0400     		.2byte	0x4
 3127 00fd F3       		.byte	0xf3
 3128 00fe 01       		.uleb128 0x1
 3129 00ff 50       		.byte	0x50
 3130 0100 9F       		.byte	0x9f
 3131 0101 00000000 		.4byte	0
 3132 0105 00000000 		.4byte	0
 3133              	.LLST14:
 3134 0109 00000000 		.4byte	.LVL27
 3135 010d 5C000000 		.4byte	.LVL35
ARM GAS  /var/folders/3j/4xdnk5197cv_b7cw3n33qk7r0000gn/T//ccjzjwHI.s 			page 56


 3136 0111 0100     		.2byte	0x1
 3137 0113 51       		.byte	0x51
 3138 0114 5C000000 		.4byte	.LVL35
 3139 0118 64000000 		.4byte	.LVL36
 3140 011c 0200     		.2byte	0x2
 3141 011e 7C       		.byte	0x7c
 3142 011f 24       		.sleb128 36
 3143 0120 64000000 		.4byte	.LVL36
 3144 0124 AC000000 		.4byte	.LFE12
 3145 0128 0400     		.2byte	0x4
 3146 012a F3       		.byte	0xf3
 3147 012b 01       		.uleb128 0x1
 3148 012c 51       		.byte	0x51
 3149 012d 9F       		.byte	0x9f
 3150 012e 00000000 		.4byte	0
 3151 0132 00000000 		.4byte	0
 3152              	.LLST16:
 3153 0136 58000000 		.4byte	.LVL34
 3154 013a 94000000 		.4byte	.LVL39
 3155 013e 0100     		.2byte	0x1
 3156 0140 50       		.byte	0x50
 3157 0141 00000000 		.4byte	0
 3158 0145 00000000 		.4byte	0
 3159              	.LLST15:
 3160 0149 24000000 		.4byte	.LVL29
 3161 014d 58000000 		.4byte	.LVL34
 3162 0151 0100     		.2byte	0x1
 3163 0153 5C       		.byte	0x5c
 3164 0154 00000000 		.4byte	0
 3165 0158 00000000 		.4byte	0
 3166              	.LLST11:
 3167 015c 00000000 		.4byte	.LVL20
 3168 0160 1C000000 		.4byte	.LVL21
 3169 0164 0100     		.2byte	0x1
 3170 0166 50       		.byte	0x50
 3171 0167 1C000000 		.4byte	.LVL21
 3172 016b 54000000 		.4byte	.LVL25
 3173 016f 0400     		.2byte	0x4
 3174 0171 F3       		.byte	0xf3
 3175 0172 01       		.uleb128 0x1
 3176 0173 50       		.byte	0x50
 3177 0174 9F       		.byte	0x9f
 3178 0175 54000000 		.4byte	.LVL25
 3179 0179 57000000 		.4byte	.LVL26-1
 3180 017d 0100     		.2byte	0x1
 3181 017f 50       		.byte	0x50
 3182 0180 57000000 		.4byte	.LVL26-1
 3183 0184 74000000 		.4byte	.LFE11
 3184 0188 0400     		.2byte	0x4
 3185 018a F3       		.byte	0xf3
 3186 018b 01       		.uleb128 0x1
 3187 018c 50       		.byte	0x50
 3188 018d 9F       		.byte	0x9f
 3189 018e 00000000 		.4byte	0
 3190 0192 00000000 		.4byte	0
 3191              	.LLST12:
 3192 0196 00000000 		.4byte	.LVL20
ARM GAS  /var/folders/3j/4xdnk5197cv_b7cw3n33qk7r0000gn/T//ccjzjwHI.s 			page 57


 3193 019a 27000000 		.4byte	.LVL22-1
 3194 019e 0100     		.2byte	0x1
 3195 01a0 51       		.byte	0x51
 3196 01a1 27000000 		.4byte	.LVL22-1
 3197 01a5 54000000 		.4byte	.LVL25
 3198 01a9 0400     		.2byte	0x4
 3199 01ab F3       		.byte	0xf3
 3200 01ac 01       		.uleb128 0x1
 3201 01ad 51       		.byte	0x51
 3202 01ae 9F       		.byte	0x9f
 3203 01af 54000000 		.4byte	.LVL25
 3204 01b3 57000000 		.4byte	.LVL26-1
 3205 01b7 0100     		.2byte	0x1
 3206 01b9 51       		.byte	0x51
 3207 01ba 57000000 		.4byte	.LVL26-1
 3208 01be 74000000 		.4byte	.LFE11
 3209 01c2 0400     		.2byte	0x4
 3210 01c4 F3       		.byte	0xf3
 3211 01c5 01       		.uleb128 0x1
 3212 01c6 51       		.byte	0x51
 3213 01c7 9F       		.byte	0x9f
 3214 01c8 00000000 		.4byte	0
 3215 01cc 00000000 		.4byte	0
 3216              	.LLST7:
 3217 01d0 00000000 		.4byte	.LVL14
 3218 01d4 28000000 		.4byte	.LVL17
 3219 01d8 0100     		.2byte	0x1
 3220 01da 50       		.byte	0x50
 3221 01db 28000000 		.4byte	.LVL17
 3222 01df 2C000000 		.4byte	.LVL18
 3223 01e3 0200     		.2byte	0x2
 3224 01e5 71       		.byte	0x71
 3225 01e6 1C       		.sleb128 28
 3226 01e7 2C000000 		.4byte	.LVL18
 3227 01eb 44000000 		.4byte	.LFE9
 3228 01ef 0400     		.2byte	0x4
 3229 01f1 F3       		.byte	0xf3
 3230 01f2 01       		.uleb128 0x1
 3231 01f3 50       		.byte	0x50
 3232 01f4 9F       		.byte	0x9f
 3233 01f5 00000000 		.4byte	0
 3234 01f9 00000000 		.4byte	0
 3235              	.LLST8:
 3236 01fd 14000000 		.4byte	.LVL15
 3237 0201 3F000000 		.4byte	.LVL19-1
 3238 0205 0100     		.2byte	0x1
 3239 0207 51       		.byte	0x51
 3240 0208 00000000 		.4byte	0
 3241 020c 00000000 		.4byte	0
 3242              	.LLST9:
 3243 0210 20000000 		.4byte	.LVL16
 3244 0214 2C000000 		.4byte	.LVL18
 3245 0218 0600     		.2byte	0x6
 3246 021a 03       		.byte	0x3
 3247 021b 00000000 		.4byte	rlist
 3248 021f 9F       		.byte	0x9f
 3249 0220 00000000 		.4byte	0
ARM GAS  /var/folders/3j/4xdnk5197cv_b7cw3n33qk7r0000gn/T//ccjzjwHI.s 			page 58


 3250 0224 00000000 		.4byte	0
 3251              	.LLST10:
 3252 0228 20000000 		.4byte	.LVL16
 3253 022c 2C000000 		.4byte	.LVL18
 3254 0230 0100     		.2byte	0x1
 3255 0232 52       		.byte	0x52
 3256 0233 00000000 		.4byte	0
 3257 0237 00000000 		.4byte	0
 3258              	.LLST0:
 3259 023b 58000000 		.4byte	.LVL1
 3260 023f 68000000 		.4byte	.LVL2
 3261 0243 0100     		.2byte	0x1
 3262 0245 50       		.byte	0x50
 3263 0246 00000000 		.4byte	0
 3264 024a 00000000 		.4byte	0
 3265              	.LLST1:
 3266 024e 7C000000 		.4byte	.LVL3
 3267 0252 A8000000 		.4byte	.LVL7
 3268 0256 0100     		.2byte	0x1
 3269 0258 50       		.byte	0x50
 3270 0259 00000000 		.4byte	0
 3271 025d 00000000 		.4byte	0
 3272              	.LLST2:
 3273 0261 80000000 		.4byte	.LVL4
 3274 0265 A8000000 		.4byte	.LVL7
 3275 0269 0600     		.2byte	0x6
 3276 026b 03       		.byte	0x3
 3277 026c 00000000 		.4byte	rlist
 3278 0270 9F       		.byte	0x9f
 3279 0271 00000000 		.4byte	0
 3280 0275 00000000 		.4byte	0
 3281              	.LLST3:
 3282 0279 80000000 		.4byte	.LVL4
 3283 027d A8000000 		.4byte	.LVL7
 3284 0281 0100     		.2byte	0x1
 3285 0283 50       		.byte	0x50
 3286 0284 00000000 		.4byte	0
 3287 0288 00000000 		.4byte	0
 3288              	.LLST4:
 3289 028c 80000000 		.4byte	.LVL4
 3290 0290 A4000000 		.4byte	.LVL6
 3291 0294 0100     		.2byte	0x1
 3292 0296 53       		.byte	0x53
 3293 0297 A4000000 		.4byte	.LVL6
 3294 029b A8000000 		.4byte	.LVL7
 3295 029f 0200     		.2byte	0x2
 3296 02a1 70       		.byte	0x70
 3297 02a2 00       		.sleb128 0
 3298 02a3 00000000 		.4byte	0
 3299 02a7 00000000 		.4byte	0
 3300              	.LLST5:
 3301 02ab 00000000 		.4byte	.LVL8
 3302 02af 10000000 		.4byte	.LVL9
 3303 02b3 0100     		.2byte	0x1
 3304 02b5 50       		.byte	0x50
 3305 02b6 10000000 		.4byte	.LVL9
 3306 02ba 48000000 		.4byte	.LFE8
ARM GAS  /var/folders/3j/4xdnk5197cv_b7cw3n33qk7r0000gn/T//ccjzjwHI.s 			page 59


 3307 02be 0100     		.2byte	0x1
 3308 02c0 51       		.byte	0x51
 3309 02c1 00000000 		.4byte	0
 3310 02c5 00000000 		.4byte	0
 3311              	.LLST6:
 3312 02c9 14000000 		.4byte	.LVL10
 3313 02cd 38000000 		.4byte	.LVL12
 3314 02d1 0100     		.2byte	0x1
 3315 02d3 53       		.byte	0x53
 3316 02d4 38000000 		.4byte	.LVL12
 3317 02d8 40000000 		.4byte	.LVL13
 3318 02dc 0200     		.2byte	0x2
 3319 02de 71       		.byte	0x71
 3320 02df 00       		.sleb128 0
 3321 02e0 00000000 		.4byte	0
 3322 02e4 00000000 		.4byte	0
 3323              		.section	.debug_aranges,"",%progbits
 3324 0000 6C000000 		.4byte	0x6c
 3325 0004 0200     		.2byte	0x2
 3326 0006 00000000 		.4byte	.Ldebug_info0
 3327 000a 04       		.byte	0x4
 3328 000b 00       		.byte	0
 3329 000c 0000     		.2byte	0
 3330 000e 0000     		.2byte	0
 3331 0010 00000000 		.4byte	.LFB10
 3332 0014 B0000000 		.4byte	.LFE10-.LFB10
 3333 0018 00000000 		.4byte	.LFB7
 3334 001c 24000000 		.4byte	.LFE7-.LFB7
 3335 0020 00000000 		.4byte	.LFB8
 3336 0024 48000000 		.4byte	.LFE8-.LFB8
 3337 0028 00000000 		.4byte	.LFB9
 3338 002c 44000000 		.4byte	.LFE9-.LFB9
 3339 0030 00000000 		.4byte	.LFB11
 3340 0034 74000000 		.4byte	.LFE11-.LFB11
 3341 0038 00000000 		.4byte	.LFB12
 3342 003c AC000000 		.4byte	.LFE12-.LFB12
 3343 0040 00000000 		.4byte	.LFB14
 3344 0044 44000000 		.4byte	.LFE14-.LFB14
 3345 0048 00000000 		.4byte	.LFB15
 3346 004c 78000000 		.4byte	.LFE15-.LFB15
 3347 0050 00000000 		.4byte	.LFB16
 3348 0054 70000000 		.4byte	.LFE16-.LFB16
 3349 0058 00000000 		.4byte	.LFB13
 3350 005c 24000000 		.4byte	.LFE13-.LFB13
 3351 0060 00000000 		.4byte	.LFB17
 3352 0064 20000000 		.4byte	.LFE17-.LFB17
 3353 0068 00000000 		.4byte	0
 3354 006c 00000000 		.4byte	0
 3355              		.section	.debug_ranges,"",%progbits
 3356              	.Ldebug_ranges0:
 3357 0000 6C000000 		.4byte	.LBB35
 3358 0004 70000000 		.4byte	.LBE35
 3359 0008 7C000000 		.4byte	.LBB45
 3360 000c 80000000 		.4byte	.LBE45
 3361 0010 00000000 		.4byte	0
 3362 0014 00000000 		.4byte	0
 3363 0018 70000000 		.4byte	.LBB38
ARM GAS  /var/folders/3j/4xdnk5197cv_b7cw3n33qk7r0000gn/T//ccjzjwHI.s 			page 60


 3364 001c 78000000 		.4byte	.LBE38
 3365 0020 80000000 		.4byte	.LBB46
 3366 0024 A8000000 		.4byte	.LBE46
 3367 0028 00000000 		.4byte	0
 3368 002c 00000000 		.4byte	0
 3369 0030 14000000 		.4byte	.LBB47
 3370 0034 18000000 		.4byte	.LBE47
 3371 0038 20000000 		.4byte	.LBB52
 3372 003c 24000000 		.4byte	.LBE52
 3373 0040 28000000 		.4byte	.LBB53
 3374 0044 2C000000 		.4byte	.LBE53
 3375 0048 30000000 		.4byte	.LBB54
 3376 004c 34000000 		.4byte	.LBE54
 3377 0050 00000000 		.4byte	0
 3378 0054 00000000 		.4byte	0
 3379 0058 58000000 		.4byte	.LBB58
 3380 005c 9C000000 		.4byte	.LBE58
 3381 0060 A0000000 		.4byte	.LBB65
 3382 0064 AC000000 		.4byte	.LBE65
 3383 0068 00000000 		.4byte	0
 3384 006c 00000000 		.4byte	0
 3385 0070 58000000 		.4byte	.LBB59
 3386 0074 74000000 		.4byte	.LBE59
 3387 0078 78000000 		.4byte	.LBB63
 3388 007c 8C000000 		.4byte	.LBE63
 3389 0080 90000000 		.4byte	.LBB64
 3390 0084 94000000 		.4byte	.LBE64
 3391 0088 00000000 		.4byte	0
 3392 008c 00000000 		.4byte	0
 3393 0090 0C000000 		.4byte	.LBB66
 3394 0094 10000000 		.4byte	.LBE66
 3395 0098 20000000 		.4byte	.LBB78
 3396 009c 24000000 		.4byte	.LBE78
 3397 00a0 34000000 		.4byte	.LBB81
 3398 00a4 38000000 		.4byte	.LBE81
 3399 00a8 3C000000 		.4byte	.LBB82
 3400 00ac 54000000 		.4byte	.LBE82
 3401 00b0 58000000 		.4byte	.LBB83
 3402 00b4 70000000 		.4byte	.LBE83
 3403 00b8 00000000 		.4byte	0
 3404 00bc 00000000 		.4byte	0
 3405 00c0 14000000 		.4byte	.LBB72
 3406 00c4 18000000 		.4byte	.LBE72
 3407 00c8 1C000000 		.4byte	.LBB77
 3408 00cc 20000000 		.4byte	.LBE77
 3409 00d0 24000000 		.4byte	.LBB79
 3410 00d4 28000000 		.4byte	.LBE79
 3411 00d8 2C000000 		.4byte	.LBB80
 3412 00dc 30000000 		.4byte	.LBE80
 3413 00e0 00000000 		.4byte	0
 3414 00e4 00000000 		.4byte	0
 3415 00e8 10000000 		.4byte	.LBB84
 3416 00ec 14000000 		.4byte	.LBE84
 3417 00f0 18000000 		.4byte	.LBB89
 3418 00f4 1C000000 		.4byte	.LBE89
 3419 00f8 20000000 		.4byte	.LBB90
 3420 00fc 24000000 		.4byte	.LBE90
ARM GAS  /var/folders/3j/4xdnk5197cv_b7cw3n33qk7r0000gn/T//ccjzjwHI.s 			page 61


 3421 0100 28000000 		.4byte	.LBB91
 3422 0104 2C000000 		.4byte	.LBE91
 3423 0108 00000000 		.4byte	0
 3424 010c 00000000 		.4byte	0
 3425 0110 00000000 		.4byte	.LFB10
 3426 0114 B0000000 		.4byte	.LFE10
 3427 0118 00000000 		.4byte	.LFB7
 3428 011c 24000000 		.4byte	.LFE7
 3429 0120 00000000 		.4byte	.LFB8
 3430 0124 48000000 		.4byte	.LFE8
 3431 0128 00000000 		.4byte	.LFB9
 3432 012c 44000000 		.4byte	.LFE9
 3433 0130 00000000 		.4byte	.LFB11
 3434 0134 74000000 		.4byte	.LFE11
 3435 0138 00000000 		.4byte	.LFB12
 3436 013c AC000000 		.4byte	.LFE12
 3437 0140 00000000 		.4byte	.LFB14
 3438 0144 44000000 		.4byte	.LFE14
 3439 0148 00000000 		.4byte	.LFB15
 3440 014c 78000000 		.4byte	.LFE15
 3441 0150 00000000 		.4byte	.LFB16
 3442 0154 70000000 		.4byte	.LFE16
 3443 0158 00000000 		.4byte	.LFB13
 3444 015c 24000000 		.4byte	.LFE13
 3445 0160 00000000 		.4byte	.LFB17
 3446 0164 20000000 		.4byte	.LFE17
 3447 0168 00000000 		.4byte	0
 3448 016c 00000000 		.4byte	0
 3449              		.section	.debug_line,"",%progbits
 3450              	.Ldebug_line0:
 3451 0000 D2030000 		.section	.debug_str,"MS",%progbits,1
 3451      02009601 
 3451      00000201 
 3451      FB0E0D00 
 3451      01010101 
 3452              	.LASF120:
 3453 0000 2F557365 		.ascii	"/Users/kevinmalmsten/development_raspberry_pi/Backu"
 3453      72732F6B 
 3453      6576696E 
 3453      6D616C6D 
 3453      7374656E 
 3454 0033 7053656E 		.ascii	"pSensor_ChibiOS/__Backup_System\000"
 3454      736F725F 
 3454      43686962 
 3454      694F532F 
 3454      5F5F4261 
 3455              	.LASF92:
 3456 0053 63665F6F 		.ascii	"cf_off_older\000"
 3456      66665F6F 
 3456      6C646572 
 3456      00
 3457              	.LASF42:
 3458 0060 705F6D73 		.ascii	"p_msg\000"
 3458      6700
 3459              	.LASF77:
 3460 0066 7264796D 		.ascii	"rdymsg\000"
 3460      736700
ARM GAS  /var/folders/3j/4xdnk5197cv_b7cw3n33qk7r0000gn/T//ccjzjwHI.s 			page 62


 3461              	.LASF104:
 3462 006d 63685363 		.ascii	"chSchDoRescheduleAhead\000"
 3462      68446F52 
 3462      65736368 
 3462      6564756C 
 3462      65416865 
 3463              	.LASF4:
 3464 0084 5F5F7569 		.ascii	"__uint8_t\000"
 3464      6E74385F 
 3464      7400
 3465              	.LASF68:
 3466 008e 76746C69 		.ascii	"vtlist\000"
 3466      737400
 3467              	.LASF12:
 3468 0095 6C6F6E67 		.ascii	"long long unsigned int\000"
 3468      206C6F6E 
 3468      6720756E 
 3468      7369676E 
 3468      65642069 
 3469              	.LASF88:
 3470 00ac 63685F74 		.ascii	"ch_threadsize\000"
 3470      68726561 
 3470      6473697A 
 3470      6500
 3471              	.LASF78:
 3472 00ba 65786974 		.ascii	"exitcode\000"
 3472      636F6465 
 3472      00
 3473              	.LASF30:
 3474 00c3 705F7072 		.ascii	"p_prio\000"
 3474      696F00
 3475              	.LASF95:
 3476 00ca 63665F6F 		.ascii	"cf_off_state\000"
 3476      66665F73 
 3476      74617465 
 3476      00
 3477              	.LASF123:
 3478 00d7 5F736368 		.ascii	"_scheduler_init\000"
 3478      6564756C 
 3478      65725F69 
 3478      6E697400 
 3479              	.LASF11:
 3480 00e7 6C6F6E67 		.ascii	"long long int\000"
 3480      206C6F6E 
 3480      6720696E 
 3480      7400
 3481              	.LASF1:
 3482 00f5 7369676E 		.ascii	"signed char\000"
 3482      65642063 
 3482      68617200 
 3483              	.LASF94:
 3484 0101 63665F6F 		.ascii	"cf_off_stklimit\000"
 3484      66665F73 
 3484      746B6C69 
 3484      6D697400 
 3485              	.LASF96:
 3486 0111 63665F6F 		.ascii	"cf_off_flags\000"
ARM GAS  /var/folders/3j/4xdnk5197cv_b7cw3n33qk7r0000gn/T//ccjzjwHI.s 			page 63


 3486      66665F66 
 3486      6C616773 
 3486      00
 3487              	.LASF17:
 3488 011e 626F6F6C 		.ascii	"bool_t\000"
 3488      5F7400
 3489              	.LASF74:
 3490 0125 6D5F7175 		.ascii	"m_queue\000"
 3490      65756500 
 3491              	.LASF118:
 3492 012d 474E5520 		.ascii	"GNU C11 7.3.1 20180622 (release) [ARM/embedded-7-br"
 3492      43313120 
 3492      372E332E 
 3492      31203230 
 3492      31383036 
 3493 0160 616E6368 		.ascii	"anch revision 261907] -mcpu=arm1176jz-s -mno-thumb-"
 3493      20726576 
 3493      6973696F 
 3493      6E203236 
 3493      31393037 
 3494 0193 696E7465 		.ascii	"interwork -ggdb -O2 -fomit-frame-pointer -ffunction"
 3494      72776F72 
 3494      6B202D67 
 3494      67646220 
 3494      2D4F3220 
 3495 01c6 2D736563 		.ascii	"-sections -fdata-sections\000"
 3495      74696F6E 
 3495      73202D66 
 3495      64617461 
 3495      2D736563 
 3496              	.LASF119:
 3497 01e0 2E2E2F2F 		.ascii	"..//os/kernel/src/chschd.c\000"
 3497      6F732F6B 
 3497      65726E65 
 3497      6C2F7372 
 3497      632F6368 
 3498              	.LASF8:
 3499 01fb 6C6F6E67 		.ascii	"long int\000"
 3499      20696E74 
 3499      00
 3500              	.LASF19:
 3501 0204 74737461 		.ascii	"tstate_t\000"
 3501      74655F74 
 3501      00
 3502              	.LASF14:
 3503 020d 75696E74 		.ascii	"uint16_t\000"
 3503      31365F74 
 3503      00
 3504              	.LASF100:
 3505 0216 63686465 		.ascii	"chdebug_t\000"
 3505      6275675F 
 3505      7400
 3506              	.LASF108:
 3507 0220 63685363 		.ascii	"chSchIsPreemptionRequired\000"
 3507      68497350 
 3507      7265656D 
 3507      7074696F 
ARM GAS  /var/folders/3j/4xdnk5197cv_b7cw3n33qk7r0000gn/T//ccjzjwHI.s 			page 64


 3507      6E526571 
 3508              	.LASF32:
 3509 023a 705F6E65 		.ascii	"p_newer\000"
 3509      77657200 
 3510              	.LASF102:
 3511 0242 5F69646C 		.ascii	"_idle_thread_wa\000"
 3511      655F7468 
 3511      72656164 
 3511      5F776100 
 3512              	.LASF71:
 3513 0252 735F7175 		.ascii	"s_queue\000"
 3513      65756500 
 3514              	.LASF106:
 3515 025a 63685363 		.ascii	"chSchRescheduleS\000"
 3515      68526573 
 3515      63686564 
 3515      756C6553 
 3515      00
 3516              	.LASF9:
 3517 026b 5F5F7569 		.ascii	"__uint32_t\000"
 3517      6E743332 
 3517      5F7400
 3518              	.LASF49:
 3519 0276 72656761 		.ascii	"regarm_t\000"
 3519      726D5F74 
 3519      00
 3520              	.LASF55:
 3521 027f 76745F70 		.ascii	"vt_prev\000"
 3521      72657600 
 3522              	.LASF103:
 3523 0287 63685363 		.ascii	"chSchDoReschedule\000"
 3523      68446F52 
 3523      65736368 
 3523      6564756C 
 3523      6500
 3524              	.LASF26:
 3525 0299 636E745F 		.ascii	"cnt_t\000"
 3525      7400
 3526              	.LASF0:
 3527 029f 756E7369 		.ascii	"unsigned int\000"
 3527      676E6564 
 3527      20696E74 
 3527      00
 3528              	.LASF121:
 3529 02ac 77616B65 		.ascii	"wakeup\000"
 3529      757000
 3530              	.LASF54:
 3531 02b3 76745F6E 		.ascii	"vt_next\000"
 3531      65787400 
 3532              	.LASF115:
 3533 02bb 5F706F72 		.ascii	"_port_switch_arm\000"
 3533      745F7377 
 3533      69746368 
 3533      5F61726D 
 3533      00
 3534              	.LASF10:
 3535 02cc 6C6F6E67 		.ascii	"long unsigned int\000"
ARM GAS  /var/folders/3j/4xdnk5197cv_b7cw3n33qk7r0000gn/T//ccjzjwHI.s 			page 65


 3535      20756E73 
 3535      69676E65 
 3535      6420696E 
 3535      7400
 3536              	.LASF101:
 3537 02de 63685F64 		.ascii	"ch_debug\000"
 3537      65627567 
 3537      00
 3538              	.LASF52:
 3539 02e7 76746675 		.ascii	"vtfunc_t\000"
 3539      6E635F74 
 3539      00
 3540              	.LASF82:
 3541 02f0 63685F69 		.ascii	"ch_identifier\000"
 3541      64656E74 
 3541      69666965 
 3541      7200
 3542              	.LASF72:
 3543 02fe 735F636E 		.ascii	"s_cnt\000"
 3543      7400
 3544              	.LASF51:
 3545 0304 636F6E74 		.ascii	"context\000"
 3545      65787400 
 3546              	.LASF6:
 3547 030c 73686F72 		.ascii	"short unsigned int\000"
 3547      7420756E 
 3547      7369676E 
 3547      65642069 
 3547      6E7400
 3548              	.LASF107:
 3549 031f 63685363 		.ascii	"chSchWakeupS\000"
 3549      6857616B 
 3549      65757053 
 3549      00
 3550              	.LASF23:
 3551 032c 6D73675F 		.ascii	"msg_t\000"
 3551      7400
 3552              	.LASF64:
 3553 0332 725F6E65 		.ascii	"r_newer\000"
 3553      77657200 
 3554              	.LASF18:
 3555 033a 746D6F64 		.ascii	"tmode_t\000"
 3555      655F7400 
 3556              	.LASF47:
 3557 0342 54687265 		.ascii	"ThreadsList\000"
 3557      6164734C 
 3557      69737400 
 3558              	.LASF24:
 3559 034e 6576656E 		.ascii	"eventmask_t\000"
 3559      746D6173 
 3559      6B5F7400 
 3560              	.LASF73:
 3561 035a 4D757465 		.ascii	"Mutex\000"
 3561      7800
 3562              	.LASF48:
 3563 0360 73746B61 		.ascii	"stkalign_t\000"
 3563      6C69676E 
ARM GAS  /var/folders/3j/4xdnk5197cv_b7cw3n33qk7r0000gn/T//ccjzjwHI.s 			page 66


 3563      5F7400
 3564              	.LASF83:
 3565 036b 63685F7A 		.ascii	"ch_zero\000"
 3565      65726F00 
 3566              	.LASF97:
 3567 0373 63665F6F 		.ascii	"cf_off_refs\000"
 3567      66665F72 
 3567      65667300 
 3568              	.LASF56:
 3569 037f 76745F74 		.ascii	"vt_time\000"
 3569      696D6500 
 3570              	.LASF57:
 3571 0387 76745F66 		.ascii	"vt_func\000"
 3571      756E6300 
 3572              	.LASF87:
 3573 038f 63685F74 		.ascii	"ch_timesize\000"
 3573      696D6573 
 3573      697A6500 
 3574              	.LASF113:
 3575 039b 64657175 		.ascii	"dequeue\000"
 3575      65756500 
 3576              	.LASF105:
 3577 03a3 63685363 		.ascii	"chSchDoRescheduleBehind\000"
 3577      68446F52 
 3577      65736368 
 3577      6564756C 
 3577      65426568 
 3578              	.LASF93:
 3579 03bb 63665F6F 		.ascii	"cf_off_name\000"
 3579      66665F6E 
 3579      616D6500 
 3580              	.LASF116:
 3581 03c7 63685654 		.ascii	"chVTSetI\000"
 3581      53657449 
 3581      00
 3582              	.LASF33:
 3583 03d0 705F6F6C 		.ascii	"p_older\000"
 3583      64657200 
 3584              	.LASF63:
 3585 03d8 725F6374 		.ascii	"r_ctx\000"
 3585      7800
 3586              	.LASF46:
 3587 03de 54687265 		.ascii	"ThreadsQueue\000"
 3587      61647351 
 3587      75657565 
 3587      00
 3588              	.LASF84:
 3589 03eb 63685F73 		.ascii	"ch_size\000"
 3589      697A6500 
 3590              	.LASF111:
 3591 03f3 74696D65 		.ascii	"time\000"
 3591      00
 3592              	.LASF66:
 3593 03f8 725F6375 		.ascii	"r_current\000"
 3593      7272656E 
 3593      7400
 3594              	.LASF65:
ARM GAS  /var/folders/3j/4xdnk5197cv_b7cw3n33qk7r0000gn/T//ccjzjwHI.s 			page 67


 3595 0402 725F6F6C 		.ascii	"r_older\000"
 3595      64657200 
 3596              	.LASF20:
 3597 040a 74726566 		.ascii	"trefs_t\000"
 3597      735F7400 
 3598              	.LASF86:
 3599 0412 63685F70 		.ascii	"ch_ptrsize\000"
 3599      74727369 
 3599      7A6500
 3600              	.LASF29:
 3601 041d 705F7072 		.ascii	"p_prev\000"
 3601      657600
 3602              	.LASF22:
 3603 0424 74707269 		.ascii	"tprio_t\000"
 3603      6F5F7400 
 3604              	.LASF15:
 3605 042c 696E7433 		.ascii	"int32_t\000"
 3605      325F7400 
 3606              	.LASF2:
 3607 0434 756E7369 		.ascii	"unsigned char\000"
 3607      676E6564 
 3607      20636861 
 3607      7200
 3608              	.LASF110:
 3609 0442 6E657773 		.ascii	"newstate\000"
 3609      74617465 
 3609      00
 3610              	.LASF44:
 3611 044b 705F6D74 		.ascii	"p_mtxlist\000"
 3611      786C6973 
 3611      7400
 3612              	.LASF3:
 3613 0455 73686F72 		.ascii	"short int\000"
 3613      7420696E 
 3613      7400
 3614              	.LASF35:
 3615 045f 705F7374 		.ascii	"p_state\000"
 3615      61746500 
 3616              	.LASF38:
 3617 0467 705F7072 		.ascii	"p_preempt\000"
 3617      65656D70 
 3617      7400
 3618              	.LASF99:
 3619 0471 63665F6F 		.ascii	"cf_off_time\000"
 3619      66665F74 
 3619      696D6500 
 3620              	.LASF62:
 3621 047d 725F7072 		.ascii	"r_prio\000"
 3621      696F00
 3622              	.LASF80:
 3623 0484 65776D61 		.ascii	"ewmask\000"
 3623      736B00
 3624              	.LASF28:
 3625 048b 705F6E65 		.ascii	"p_next\000"
 3625      787400
 3626              	.LASF98:
 3627 0492 63665F6F 		.ascii	"cf_off_preempt\000"
ARM GAS  /var/folders/3j/4xdnk5197cv_b7cw3n33qk7r0000gn/T//ccjzjwHI.s 			page 68


 3627      66665F70 
 3627      7265656D 
 3627      707400
 3628              	.LASF36:
 3629 04a1 705F666C 		.ascii	"p_flags\000"
 3629      61677300 
 3630              	.LASF27:
 3631 04a9 54687265 		.ascii	"Thread\000"
 3631      616400
 3632              	.LASF91:
 3633 04b0 63665F6F 		.ascii	"cf_off_newer\000"
 3633      66665F6E 
 3633      65776572 
 3633      00
 3634              	.LASF112:
 3635 04bd 63685363 		.ascii	"chSchGoSleepS\000"
 3635      68476F53 
 3635      6C656570 
 3635      5300
 3636              	.LASF43:
 3637 04cb 705F6570 		.ascii	"p_epending\000"
 3637      656E6469 
 3637      6E6700
 3638              	.LASF16:
 3639 04d6 75696E74 		.ascii	"uint32_t\000"
 3639      33325F74 
 3639      00
 3640              	.LASF89:
 3641 04df 63665F6F 		.ascii	"cf_off_prio\000"
 3641      66665F70 
 3641      72696F00 
 3642              	.LASF61:
 3643 04eb 725F7175 		.ascii	"r_queue\000"
 3643      65756500 
 3644              	.LASF53:
 3645 04f3 56697274 		.ascii	"VirtualTimer\000"
 3645      75616C54 
 3645      696D6572 
 3645      00
 3646              	.LASF21:
 3647 0500 74736C69 		.ascii	"tslices_t\000"
 3647      6365735F 
 3647      7400
 3648              	.LASF81:
 3649 050a 63686172 		.ascii	"char\000"
 3649      00
 3650              	.LASF114:
 3651 050f 6669666F 		.ascii	"fifo_remove\000"
 3651      5F72656D 
 3651      6F766500 
 3652              	.LASF5:
 3653 051b 5F5F7569 		.ascii	"__uint16_t\000"
 3653      6E743136 
 3653      5F7400
 3654              	.LASF122:
 3655 0526 63685363 		.ascii	"chSchReadyI\000"
 3655      68526561 
ARM GAS  /var/folders/3j/4xdnk5197cv_b7cw3n33qk7r0000gn/T//ccjzjwHI.s 			page 69


 3655      64794900 
 3656              	.LASF76:
 3657 0532 6D5F6E65 		.ascii	"m_next\000"
 3657      787400
 3658              	.LASF25:
 3659 0539 73797374 		.ascii	"systime_t\000"
 3659      696D655F 
 3659      7400
 3660              	.LASF45:
 3661 0543 705F7265 		.ascii	"p_realprio\000"
 3661      616C7072 
 3661      696F00
 3662              	.LASF7:
 3663 054e 5F5F696E 		.ascii	"__int32_t\000"
 3663      7433325F 
 3663      7400
 3664              	.LASF39:
 3665 0558 705F7469 		.ascii	"p_time\000"
 3665      6D6500
 3666              	.LASF50:
 3667 055f 696E7463 		.ascii	"intctx\000"
 3667      747800
 3668              	.LASF41:
 3669 0566 705F6D73 		.ascii	"p_msgqueue\000"
 3669      67717565 
 3669      756500
 3670              	.LASF58:
 3671 0571 76745F70 		.ascii	"vt_par\000"
 3671      617200
 3672              	.LASF70:
 3673 0578 53656D61 		.ascii	"Semaphore\000"
 3673      70686F72 
 3673      6500
 3674              	.LASF90:
 3675 0582 63665F6F 		.ascii	"cf_off_ctx\000"
 3675      66665F63 
 3675      747800
 3676              	.LASF37:
 3677 058d 705F7265 		.ascii	"p_refs\000"
 3677      667300
 3678              	.LASF117:
 3679 0594 63685654 		.ascii	"chVTResetI\000"
 3679      52657365 
 3679      744900
 3680              	.LASF67:
 3681 059f 52656164 		.ascii	"ReadyList\000"
 3681      794C6973 
 3681      7400
 3682              	.LASF69:
 3683 05a9 726C6973 		.ascii	"rlist\000"
 3683      7400
 3684              	.LASF13:
 3685 05af 75696E74 		.ascii	"uint8_t\000"
 3685      385F7400 
 3686              	.LASF79:
 3687 05b7 77746F62 		.ascii	"wtobjp\000"
 3687      6A7000
ARM GAS  /var/folders/3j/4xdnk5197cv_b7cw3n33qk7r0000gn/T//ccjzjwHI.s 			page 70


 3688              	.LASF34:
 3689 05be 705F6E61 		.ascii	"p_name\000"
 3689      6D6500
 3690              	.LASF59:
 3691 05c5 76745F73 		.ascii	"vt_systime\000"
 3691      79737469 
 3691      6D6500
 3692              	.LASF109:
 3693 05d0 63685363 		.ascii	"chSchGoSleepTimeoutS\000"
 3693      68476F53 
 3693      6C656570 
 3693      54696D65 
 3693      6F757453 
 3694              	.LASF85:
 3695 05e5 63685F76 		.ascii	"ch_version\000"
 3695      65727369 
 3695      6F6E00
 3696              	.LASF60:
 3697 05f0 56544C69 		.ascii	"VTList\000"
 3697      737400
 3698              	.LASF75:
 3699 05f7 6D5F6F77 		.ascii	"m_owner\000"
 3699      6E657200 
 3700              	.LASF31:
 3701 05ff 705F6374 		.ascii	"p_ctx\000"
 3701      7800
 3702              	.LASF40:
 3703 0605 705F7761 		.ascii	"p_waiting\000"
 3703      6974696E 
 3703      6700
 3704              		.ident	"GCC: (GNU Tools for Arm Embedded Processors 7-2018-q2-update) 7.3.1 20180622 (release) [AR
ARM GAS  /var/folders/3j/4xdnk5197cv_b7cw3n33qk7r0000gn/T//ccjzjwHI.s 			page 71


DEFINED SYMBOLS
                            *ABS*:0000000000000000 chschd.c
/var/folders/3j/4xdnk5197cv_b7cw3n33qk7r0000gn/T//ccjzjwHI.s:16     .text.wakeup:0000000000000000 $a
/var/folders/3j/4xdnk5197cv_b7cw3n33qk7r0000gn/T//ccjzjwHI.s:21     .text.wakeup:0000000000000000 wakeup
/var/folders/3j/4xdnk5197cv_b7cw3n33qk7r0000gn/T//ccjzjwHI.s:36     .text.wakeup:0000000000000010 $d
/var/folders/3j/4xdnk5197cv_b7cw3n33qk7r0000gn/T//ccjzjwHI.s:52     .text.wakeup:0000000000000048 $a
/var/folders/3j/4xdnk5197cv_b7cw3n33qk7r0000gn/T//ccjzjwHI.s:135    .text.wakeup:00000000000000ac $d
                            *COM*:000000000000001c rlist
/var/folders/3j/4xdnk5197cv_b7cw3n33qk7r0000gn/T//ccjzjwHI.s:140    .text._scheduler_init:0000000000000000 $a
/var/folders/3j/4xdnk5197cv_b7cw3n33qk7r0000gn/T//ccjzjwHI.s:146    .text._scheduler_init:0000000000000000 _scheduler_init
/var/folders/3j/4xdnk5197cv_b7cw3n33qk7r0000gn/T//ccjzjwHI.s:170    .text._scheduler_init:0000000000000020 $d
/var/folders/3j/4xdnk5197cv_b7cw3n33qk7r0000gn/T//ccjzjwHI.s:175    .text.chSchReadyI:0000000000000000 $a
/var/folders/3j/4xdnk5197cv_b7cw3n33qk7r0000gn/T//ccjzjwHI.s:181    .text.chSchReadyI:0000000000000000 chSchReadyI
/var/folders/3j/4xdnk5197cv_b7cw3n33qk7r0000gn/T//ccjzjwHI.s:229    .text.chSchReadyI:0000000000000044 $d
/var/folders/3j/4xdnk5197cv_b7cw3n33qk7r0000gn/T//ccjzjwHI.s:234    .text.chSchGoSleepS:0000000000000000 $a
/var/folders/3j/4xdnk5197cv_b7cw3n33qk7r0000gn/T//ccjzjwHI.s:240    .text.chSchGoSleepS:0000000000000000 chSchGoSleepS
/var/folders/3j/4xdnk5197cv_b7cw3n33qk7r0000gn/T//ccjzjwHI.s:306    .text.chSchGoSleepS:0000000000000040 $d
/var/folders/3j/4xdnk5197cv_b7cw3n33qk7r0000gn/T//ccjzjwHI.s:311    .text.chSchGoSleepTimeoutS:0000000000000000 $a
/var/folders/3j/4xdnk5197cv_b7cw3n33qk7r0000gn/T//ccjzjwHI.s:317    .text.chSchGoSleepTimeoutS:0000000000000000 chSchGoSleepTimeoutS
/var/folders/3j/4xdnk5197cv_b7cw3n33qk7r0000gn/T//ccjzjwHI.s:387    .text.chSchGoSleepTimeoutS:000000000000006c $d
/var/folders/3j/4xdnk5197cv_b7cw3n33qk7r0000gn/T//ccjzjwHI.s:393    .text.chSchWakeupS:0000000000000000 $a
/var/folders/3j/4xdnk5197cv_b7cw3n33qk7r0000gn/T//ccjzjwHI.s:399    .text.chSchWakeupS:0000000000000000 chSchWakeupS
/var/folders/3j/4xdnk5197cv_b7cw3n33qk7r0000gn/T//ccjzjwHI.s:522    .text.chSchWakeupS:00000000000000a8 $d
/var/folders/3j/4xdnk5197cv_b7cw3n33qk7r0000gn/T//ccjzjwHI.s:528    .text.chSchIsPreemptionRequired:0000000000000000 $a
/var/folders/3j/4xdnk5197cv_b7cw3n33qk7r0000gn/T//ccjzjwHI.s:534    .text.chSchIsPreemptionRequired:0000000000000000 chSchIsPreemptionRequired
/var/folders/3j/4xdnk5197cv_b7cw3n33qk7r0000gn/T//ccjzjwHI.s:577    .text.chSchIsPreemptionRequired:0000000000000040 $d
/var/folders/3j/4xdnk5197cv_b7cw3n33qk7r0000gn/T//ccjzjwHI.s:582    .text.chSchDoRescheduleBehind:0000000000000000 $a
/var/folders/3j/4xdnk5197cv_b7cw3n33qk7r0000gn/T//ccjzjwHI.s:588    .text.chSchDoRescheduleBehind:0000000000000000 chSchDoRescheduleBehind
/var/folders/3j/4xdnk5197cv_b7cw3n33qk7r0000gn/T//ccjzjwHI.s:701    .text.chSchDoRescheduleBehind:0000000000000074 $d
/var/folders/3j/4xdnk5197cv_b7cw3n33qk7r0000gn/T//ccjzjwHI.s:706    .text.chSchDoRescheduleAhead:0000000000000000 $a
/var/folders/3j/4xdnk5197cv_b7cw3n33qk7r0000gn/T//ccjzjwHI.s:712    .text.chSchDoRescheduleAhead:0000000000000000 chSchDoRescheduleAhead
/var/folders/3j/4xdnk5197cv_b7cw3n33qk7r0000gn/T//ccjzjwHI.s:797    .text.chSchDoRescheduleAhead:000000000000006c $d
/var/folders/3j/4xdnk5197cv_b7cw3n33qk7r0000gn/T//ccjzjwHI.s:802    .text.chSchRescheduleS:0000000000000000 $a
/var/folders/3j/4xdnk5197cv_b7cw3n33qk7r0000gn/T//ccjzjwHI.s:808    .text.chSchRescheduleS:0000000000000000 chSchRescheduleS
/var/folders/3j/4xdnk5197cv_b7cw3n33qk7r0000gn/T//ccjzjwHI.s:829    .text.chSchRescheduleS:0000000000000020 $d
/var/folders/3j/4xdnk5197cv_b7cw3n33qk7r0000gn/T//ccjzjwHI.s:834    .text.chSchDoReschedule:0000000000000000 $a
/var/folders/3j/4xdnk5197cv_b7cw3n33qk7r0000gn/T//ccjzjwHI.s:840    .text.chSchDoReschedule:0000000000000000 chSchDoReschedule
/var/folders/3j/4xdnk5197cv_b7cw3n33qk7r0000gn/T//ccjzjwHI.s:863    .text.chSchDoReschedule:000000000000001c $d

UNDEFINED SYMBOLS
_port_switch_arm
chVTSetI
chVTResetI
