ARM GAS  /var/folders/3j/4xdnk5197cv_b7cw3n33qk7r0000gn/T//ccjzjwHI.s 			page 1


   1              		.cpu arm1176jz-s
   2              		.eabi_attribute 20, 1
   3              		.eabi_attribute 21, 1
   4              		.eabi_attribute 23, 3
   5              		.eabi_attribute 24, 1
   6              		.eabi_attribute 25, 1
   7              		.eabi_attribute 26, 1
   8              		.eabi_attribute 30, 2
   9              		.eabi_attribute 34, 1
  10              		.eabi_attribute 18, 4
  11              		.file	"chschd.c"
  12              		.text
  13              	.Ltext0:
  14              		.cfi_sections	.debug_frame
  15              		.section	.text.wakeup,"ax",%progbits
  16              		.align	2
  17              		.syntax unified
  18              		.arm
  19              		.fpu softvfp
  20              		.type	wakeup, %function
  21              	wakeup:
  22              	.LFB10:
  23              		.file 1 "..//os/kernel/src/chschd.c"
  24              		.loc 1 129 0
  25              		.cfi_startproc
  26              		@ args = 0, pretend = 0, frame = 0
  27              		@ frame_needed = 0, uses_anonymous_args = 0
  28              		@ link register save eliminated.
  29              	.LVL0:
  30              		.loc 1 133 0
  31 0000 1C30D0E5 		ldrb	r3, [r0, #28]	@ zero_extendqisi2
  32 0004 0D0053E3 		cmp	r3, #13
  33 0008 03F19F97 		ldrls	pc, [pc, r3, asl #2]
  34 000c 150000EA 		b	.L2
  35              	.L4:
  36 0010 A8000000 		.word	.L1
  37 0014 68000000 		.word	.L2
  38 0018 68000000 		.word	.L2
  39 001c 48000000 		.word	.L5
  40 0020 68000000 		.word	.L2
  41 0024 58000000 		.word	.L6
  42 0028 68000000 		.word	.L2
  43 002c 68000000 		.word	.L2
  44 0030 68000000 		.word	.L2
  45 0034 68000000 		.word	.L2
  46 0038 68000000 		.word	.L2
  47 003c 68000000 		.word	.L2
  48 0040 68000000 		.word	.L2
  49 0044 58000000 		.word	.L6
  50              	.L5:
  51              		.loc 1 143 0
  52 0048 242090E5 		ldr	r2, [r0, #36]
  53 004c 083092E5 		ldr	r3, [r2, #8]
  54 0050 013083E2 		add	r3, r3, #1
  55 0054 083082E5 		str	r3, [r2, #8]
  56              	.L6:
  57              	.LVL1:
ARM GAS  /var/folders/3j/4xdnk5197cv_b7cw3n33qk7r0000gn/T//ccjzjwHI.s 			page 2


  58              	.LBB33:
  59              	.LBB34:
  60              		.file 2 "..//os/kernel/include/chinline.h"
  61              		.loc 2 68 0
  62 0058 D020C0E1 		ldrd	r2, [r0]
  63 005c 002083E5 		str	r2, [r3]
  64              		.loc 2 69 0
  65 0060 002090E5 		ldr	r2, [r0]
  66 0064 043082E5 		str	r3, [r2, #4]
  67              	.LVL2:
  68              	.L2:
  69              	.LBE34:
  70              	.LBE33:
  71              		.loc 1 156 0
  72 0068 00C0E0E3 		mvn	ip, #0
  73              	.LBB35:
  74              	.LBB36:
  75              		.loc 1 85 0
  76 006c 0020A0E3 		mov	r2, #0
  77              	.LBE36:
  78              	.LBE35:
  79              	.LBB38:
  80              	.LBB39:
  81              	.LBB40:
  82              	.LBB41:
  83              		.loc 1 89 0
  84 0070 081090E5 		ldr	r1, [r0, #8]
  85              		.loc 1 86 0
  86 0074 30309FE5 		ldr	r3, .L10
  87              	.LBE41:
  88              	.LBE40:
  89              	.LBE39:
  90              	.LBE38:
  91              		.loc 1 156 0
  92 0078 24C080E5 		str	ip, [r0, #36]
  93              	.LVL3:
  94              	.LBB45:
  95              	.LBB37:
  96              		.loc 1 85 0
  97 007c 1C20C0E5 		strb	r2, [r0, #28]
  98              	.LVL4:
  99              	.L7:
 100              	.LBE37:
 101              	.LBE45:
 102              	.LBB46:
 103              	.LBB44:
 104              	.LBB43:
 105              	.LBB42:
 106              		.loc 1 88 0
 107 0080 003093E5 		ldr	r3, [r3]
 108              	.LVL5:
 109              		.loc 1 89 0
 110 0084 082093E5 		ldr	r2, [r3, #8]
 111 0088 010052E1 		cmp	r2, r1
 112 008c FBFFFF2A 		bcs	.L7
 113              		.loc 1 92 0
 114 0090 042093E5 		ldr	r2, [r3, #4]
ARM GAS  /var/folders/3j/4xdnk5197cv_b7cw3n33qk7r0000gn/T//ccjzjwHI.s 			page 3


 115              		.loc 1 91 0
 116 0094 003080E5 		str	r3, [r0]
 117              		.loc 1 92 0
 118 0098 042080E5 		str	r2, [r0, #4]
 119              		.loc 1 93 0
 120 009c 040083E5 		str	r0, [r3, #4]
 121 00a0 043090E5 		ldr	r3, [r0, #4]
 122              	.LVL6:
 123 00a4 000083E5 		str	r0, [r3]
 124              	.LVL7:
 125              	.L1:
 126              	.LBE42:
 127              	.LBE43:
 128              	.LBE44:
 129              	.LBE46:
 130              		.loc 1 159 0
 131 00a8 1EFF2FE1 		bx	lr
 132              	.L11:
 133              		.align	2
 134              	.L10:
 135 00ac 00000000 		.word	rlist
 136              		.cfi_endproc
 137              	.LFE10:
 138              		.size	wakeup, .-wakeup
 139              		.section	.text._scheduler_init,"ax",%progbits
 140              		.align	2
 141              		.global	_scheduler_init
 142              		.syntax unified
 143              		.arm
 144              		.fpu softvfp
 145              		.type	_scheduler_init, %function
 146              	_scheduler_init:
 147              	.LFB7:
 148              		.loc 1 48 0
 149              		.cfi_startproc
 150              		@ args = 0, pretend = 0, frame = 0
 151              		@ frame_needed = 0, uses_anonymous_args = 0
 152              		@ link register save eliminated.
 153              		.loc 1 51 0
 154 0000 0020A0E3 		mov	r2, #0
 155              		.loc 1 50 0
 156 0004 14309FE5 		ldr	r3, .L13
 157              		.loc 1 51 0
 158 0008 082083E5 		str	r2, [r3, #8]
 159              		.loc 1 50 0
 160 000c 043083E5 		str	r3, [r3, #4]
 161 0010 003083E5 		str	r3, [r3]
 162              		.loc 1 53 0
 163 0014 143083E5 		str	r3, [r3, #20]
 164 0018 103083E5 		str	r3, [r3, #16]
 165              		.loc 1 55 0
 166 001c 1EFF2FE1 		bx	lr
 167              	.L14:
 168              		.align	2
 169              	.L13:
 170 0020 00000000 		.word	rlist
 171              		.cfi_endproc
ARM GAS  /var/folders/3j/4xdnk5197cv_b7cw3n33qk7r0000gn/T//ccjzjwHI.s 			page 4


 172              	.LFE7:
 173              		.size	_scheduler_init, .-_scheduler_init
 174              		.section	.text.chSchReadyI,"ax",%progbits
 175              		.align	2
 176              		.global	chSchReadyI
 177              		.syntax unified
 178              		.arm
 179              		.fpu softvfp
 180              		.type	chSchReadyI, %function
 181              	chSchReadyI:
 182              	.LFB8:
 183              		.loc 1 74 0
 184              		.cfi_startproc
 185              		@ args = 0, pretend = 0, frame = 0
 186              		@ frame_needed = 0, uses_anonymous_args = 0
 187              		@ link register save eliminated.
 188              	.LVL8:
 189              		.loc 1 74 0
 190 0000 0010A0E1 		mov	r1, r0
 191              		.loc 1 85 0
 192 0004 0020A0E3 		mov	r2, #0
 193              		.loc 1 86 0
 194 0008 34309FE5 		ldr	r3, .L18
 195              		.loc 1 89 0
 196 000c 080090E5 		ldr	r0, [r0, #8]
 197              	.LVL9:
 198              		.loc 1 85 0
 199 0010 1C20C1E5 		strb	r2, [r1, #28]
 200              	.LVL10:
 201              	.L16:
 202              		.loc 1 88 0 discriminator 1
 203 0014 003093E5 		ldr	r3, [r3]
 204              	.LVL11:
 205              		.loc 1 89 0 discriminator 1
 206 0018 082093E5 		ldr	r2, [r3, #8]
 207 001c 000052E1 		cmp	r2, r0
 208 0020 FBFFFF2A 		bcs	.L16
 209              		.loc 1 92 0
 210 0024 042093E5 		ldr	r2, [r3, #4]
 211              		.loc 1 91 0
 212 0028 003081E5 		str	r3, [r1]
 213              		.loc 1 92 0
 214 002c 042081E5 		str	r2, [r1, #4]
 215              		.loc 1 93 0
 216 0030 041083E5 		str	r1, [r3, #4]
 217 0034 043091E5 		ldr	r3, [r1, #4]
 218              	.LVL12:
 219              		.loc 1 95 0
 220 0038 0100A0E1 		mov	r0, r1
 221              		.loc 1 93 0
 222 003c 001083E5 		str	r1, [r3]
 223              	.LVL13:
 224              		.loc 1 95 0
 225 0040 1EFF2FE1 		bx	lr
 226              	.L19:
 227              		.align	2
 228              	.L18:
ARM GAS  /var/folders/3j/4xdnk5197cv_b7cw3n33qk7r0000gn/T//ccjzjwHI.s 			page 5


 229 0044 00000000 		.word	rlist
 230              		.cfi_endproc
 231              	.LFE8:
 232              		.size	chSchReadyI, .-chSchReadyI
 233              		.section	.text.chSchGoSleepS,"ax",%progbits
 234              		.align	2
 235              		.global	chSchGoSleepS
 236              		.syntax unified
 237              		.arm
 238              		.fpu softvfp
 239              		.type	chSchGoSleepS, %function
 240              	chSchGoSleepS:
 241              	.LFB9:
 242              		.loc 1 108 0
 243              		.cfi_startproc
 244              		@ args = 0, pretend = 0, frame = 0
 245              		@ frame_needed = 0, uses_anonymous_args = 0
 246              	.LVL14:
 247              		.loc 1 117 0
 248 0000 14C0A0E3 		mov	ip, #20
 249              		.loc 1 108 0
 250 0004 04E02DE5 		str	lr, [sp, #-4]!
 251              		.cfi_def_cfa_offset 4
 252              		.cfi_offset 14, -4
 253              		.loc 1 120 0
 254 0008 01E0A0E3 		mov	lr, #1
 255              		.loc 1 113 0
 256 000c 2C309FE5 		ldr	r3, .L22
 257 0010 181093E5 		ldr	r1, [r3, #24]
 258              	.LVL15:
 259              	.LBB47:
 260              	.LBB48:
 261              		.loc 2 53 0
 262 0014 002093E5 		ldr	r2, [r3]
 263              	.LBE48:
 264              	.LBE47:
 265              		.loc 1 113 0
 266 0018 1C00C1E5 		strb	r0, [r1, #28]
 267              		.loc 1 117 0
 268 001c 1FC0C1E5 		strb	ip, [r1, #31]
 269              	.LVL16:
 270              	.LBB52:
 271              	.LBB49:
 272              		.loc 2 55 0
 273 0020 00C092E5 		ldr	ip, [r2]
 274              	.LBE49:
 275              	.LBE52:
 276              		.loc 1 121 0
 277 0024 0200A0E1 		mov	r0, r2
 278              	.LVL17:
 279              	.LBB53:
 280              	.LBB50:
 281              		.loc 2 55 0
 282 0028 04308CE5 		str	r3, [ip, #4]
 283              	.LVL18:
 284              	.LBE50:
 285              	.LBE53:
ARM GAS  /var/folders/3j/4xdnk5197cv_b7cw3n33qk7r0000gn/T//ccjzjwHI.s 			page 6


 286              		.loc 1 120 0
 287 002c 1CE0C2E5 		strb	lr, [r2, #28]
 288              	.LBB54:
 289              	.LBB51:
 290              		.loc 2 55 0
 291 0030 00C083E5 		str	ip, [r3]
 292              	.LBE51:
 293              	.LBE54:
 294              		.loc 1 122 0
 295 0034 04E09DE4 		ldr	lr, [sp], #4
 296              		.cfi_restore 14
 297              		.cfi_def_cfa_offset 0
 298              		.loc 1 119 0
 299 0038 182083E5 		str	r2, [r3, #24]
 300              		.loc 1 121 0
 301 003c FEFFFFEA 		b	_port_switch_arm
 302              	.LVL19:
 303              	.L23:
 304              		.align	2
 305              	.L22:
 306 0040 00000000 		.word	rlist
 307              		.cfi_endproc
 308              	.LFE9:
 309              		.size	chSchGoSleepS, .-chSchGoSleepS
 310              		.section	.text.chSchGoSleepTimeoutS,"ax",%progbits
 311              		.align	2
 312              		.global	chSchGoSleepTimeoutS
 313              		.syntax unified
 314              		.arm
 315              		.fpu softvfp
 316              		.type	chSchGoSleepTimeoutS, %function
 317              	chSchGoSleepTimeoutS:
 318              	.LFB11:
 319              		.loc 1 182 0
 320              		.cfi_startproc
 321              		@ args = 0, pretend = 0, frame = 24
 322              		@ frame_needed = 0, uses_anonymous_args = 0
 323              	.LVL20:
 324 0000 30402DE9 		push	{r4, r5, lr}
 325              		.cfi_def_cfa_offset 12
 326              		.cfi_offset 4, -12
 327              		.cfi_offset 5, -8
 328              		.cfi_offset 14, -4
 329              		.loc 1 186 0
 330 0004 010071E3 		cmn	r1, #1
 331              		.loc 1 182 0
 332 0008 1CD04DE2 		sub	sp, sp, #28
 333              		.cfi_def_cfa_offset 40
 334              		.loc 1 186 0
 335 000c 1000000A 		beq	.L25
 336 0010 0050A0E1 		mov	r5, r0
 337              	.LBB55:
 338              		.loc 1 189 0
 339 0014 50409FE5 		ldr	r4, .L32
 340 0018 04008DE2 		add	r0, sp, #4
 341              	.LVL21:
 342 001c 183094E5 		ldr	r3, [r4, #24]
ARM GAS  /var/folders/3j/4xdnk5197cv_b7cw3n33qk7r0000gn/T//ccjzjwHI.s 			page 7


 343 0020 48209FE5 		ldr	r2, .L32+4
 344 0024 FEFFFFEB 		bl	chVTSetI
 345              	.LVL22:
 346              		.loc 1 190 0
 347 0028 0500A0E1 		mov	r0, r5
 348 002c FEFFFFEB 		bl	chSchGoSleepS
 349              	.LVL23:
 350              		.loc 1 191 0
 351 0030 10309DE5 		ldr	r3, [sp, #16]
 352 0034 000053E3 		cmp	r3, #0
 353 0038 0100000A 		beq	.L27
 354              		.loc 1 192 0
 355 003c 04008DE2 		add	r0, sp, #4
 356 0040 FEFFFFEB 		bl	chVTResetI
 357              	.LVL24:
 358              	.L27:
 359              	.LBE55:
 360              		.loc 1 196 0
 361 0044 183094E5 		ldr	r3, [r4, #24]
 362              		.loc 1 197 0
 363 0048 240093E5 		ldr	r0, [r3, #36]
 364 004c 1CD08DE2 		add	sp, sp, #28
 365              		.cfi_remember_state
 366              		.cfi_def_cfa_offset 12
 367              		@ sp needed
 368 0050 3080BDE8 		pop	{r4, r5, pc}
 369              	.LVL25:
 370              	.L25:
 371              		.cfi_restore_state
 372              		.loc 1 195 0
 373 0054 FEFFFFEB 		bl	chSchGoSleepS
 374              	.LVL26:
 375 0058 0C409FE5 		ldr	r4, .L32
 376              		.loc 1 196 0
 377 005c 183094E5 		ldr	r3, [r4, #24]
 378              		.loc 1 197 0
 379 0060 240093E5 		ldr	r0, [r3, #36]
 380 0064 1CD08DE2 		add	sp, sp, #28
 381              		.cfi_def_cfa_offset 12
 382              		@ sp needed
 383 0068 3080BDE8 		pop	{r4, r5, pc}
 384              	.L33:
 385              		.align	2
 386              	.L32:
 387 006c 00000000 		.word	rlist
 388 0070 00000000 		.word	wakeup
 389              		.cfi_endproc
 390              	.LFE11:
 391              		.size	chSchGoSleepTimeoutS, .-chSchGoSleepTimeoutS
 392              		.section	.text.chSchWakeupS,"ax",%progbits
 393              		.align	2
 394              		.global	chSchWakeupS
 395              		.syntax unified
 396              		.arm
 397              		.fpu softvfp
 398              		.type	chSchWakeupS, %function
 399              	chSchWakeupS:
ARM GAS  /var/folders/3j/4xdnk5197cv_b7cw3n33qk7r0000gn/T//ccjzjwHI.s 			page 8


 400              	.LFB12:
 401              		.loc 1 218 0
 402              		.cfi_startproc
 403              		@ args = 0, pretend = 0, frame = 0
 404              		@ frame_needed = 0, uses_anonymous_args = 0
 405              	.LVL27:
 406 0000 00C0A0E1 		mov	ip, r0
 407              		.loc 1 227 0
 408 0004 9C309FE5 		ldr	r3, .L43
 409              		.loc 1 218 0
 410 0008 10402DE9 		push	{r4, lr}
 411              		.cfi_def_cfa_offset 8
 412              		.cfi_offset 4, -8
 413              		.cfi_offset 14, -4
 414              		.loc 1 227 0
 415 000c 084090E5 		ldr	r4, [r0, #8]
 416 0010 180093E5 		ldr	r0, [r3, #24]
 417              	.LVL28:
 418              		.loc 1 222 0
 419 0014 24108CE5 		str	r1, [ip, #36]
 420              		.loc 1 227 0
 421 0018 08E090E5 		ldr	lr, [r0, #8]
 422 001c 0E0054E1 		cmp	r4, lr
 423 0020 0C00008A 		bhi	.L35
 424              	.LVL29:
 425              	.LBB56:
 426              	.LBB57:
 427              		.loc 1 85 0
 428 0024 0020A0E3 		mov	r2, #0
 429 0028 1C20CCE5 		strb	r2, [ip, #28]
 430              	.LVL30:
 431              	.L36:
 432              		.loc 1 88 0
 433 002c 003093E5 		ldr	r3, [r3]
 434              	.LVL31:
 435              		.loc 1 89 0
 436 0030 082093E5 		ldr	r2, [r3, #8]
 437 0034 020054E1 		cmp	r4, r2
 438 0038 FBFFFF9A 		bls	.L36
 439              		.loc 1 92 0
 440 003c 042093E5 		ldr	r2, [r3, #4]
 441              		.loc 1 91 0
 442 0040 00308CE5 		str	r3, [ip]
 443              		.loc 1 92 0
 444 0044 04208CE5 		str	r2, [ip, #4]
 445              		.loc 1 93 0
 446 0048 04C083E5 		str	ip, [r3, #4]
 447 004c 04309CE5 		ldr	r3, [ip, #4]
 448              	.LVL32:
 449 0050 00C083E5 		str	ip, [r3]
 450              	.LVL33:
 451              	.LBE57:
 452              	.LBE56:
 453              		.loc 1 235 0
 454 0054 1080BDE8 		pop	{r4, pc}
 455              	.LVL34:
 456              	.L35:
ARM GAS  /var/folders/3j/4xdnk5197cv_b7cw3n33qk7r0000gn/T//ccjzjwHI.s 			page 9


 457              	.LBB58:
 458              	.LBB59:
 459              	.LBB60:
 460              		.loc 1 85 0
 461 0058 0010A0E3 		mov	r1, #0
 462              	.LVL35:
 463              		.loc 1 86 0
 464 005c 0320A0E1 		mov	r2, r3
 465              		.loc 1 85 0
 466 0060 1C10C0E5 		strb	r1, [r0, #28]
 467              	.LVL36:
 468              	.L38:
 469              		.loc 1 88 0
 470 0064 002092E5 		ldr	r2, [r2]
 471              	.LVL37:
 472              		.loc 1 89 0
 473 0068 081092E5 		ldr	r1, [r2, #8]
 474 006c 01005EE1 		cmp	lr, r1
 475 0070 FBFFFF9A 		bls	.L38
 476              	.LBE60:
 477              	.LBE59:
 478              		.loc 1 232 0
 479 0074 01E0A0E3 		mov	lr, #1
 480              	.LBB63:
 481              	.LBB61:
 482              		.loc 1 92 0
 483 0078 041092E5 		ldr	r1, [r2, #4]
 484              		.loc 1 91 0
 485 007c 002080E5 		str	r2, [r0]
 486              		.loc 1 92 0
 487 0080 041080E5 		str	r1, [r0, #4]
 488              		.loc 1 93 0
 489 0084 040082E5 		str	r0, [r2, #4]
 490 0088 042090E5 		ldr	r2, [r0, #4]
 491              	.LVL38:
 492              	.LBE61:
 493              	.LBE63:
 494              		.loc 1 233 0
 495 008c 0010A0E1 		mov	r1, r0
 496              	.LBB64:
 497              	.LBB62:
 498              		.loc 1 93 0
 499 0090 000082E5 		str	r0, [r2]
 500              	.LVL39:
 501              	.LBE62:
 502              	.LBE64:
 503              		.loc 1 232 0
 504 0094 1CE0CCE5 		strb	lr, [ip, #28]
 505              		.loc 1 233 0
 506 0098 0C00A0E1 		mov	r0, ip
 507              	.LBE58:
 508              		.loc 1 235 0
 509 009c 1040BDE8 		pop	{r4, lr}
 510              		.cfi_restore 14
 511              		.cfi_restore 4
 512              		.cfi_def_cfa_offset 0
 513              	.LBB65:
ARM GAS  /var/folders/3j/4xdnk5197cv_b7cw3n33qk7r0000gn/T//ccjzjwHI.s 			page 10


 514              		.loc 1 231 0
 515 00a0 18C083E5 		str	ip, [r3, #24]
 516              		.loc 1 233 0
 517 00a4 FEFFFFEA 		b	_port_switch_arm
 518              	.LVL40:
 519              	.L44:
 520              		.align	2
 521              	.L43:
 522 00a8 00000000 		.word	rlist
 523              	.LBE65:
 524              		.cfi_endproc
 525              	.LFE12:
 526              		.size	chSchWakeupS, .-chSchWakeupS
 527              		.section	.text.chSchIsPreemptionRequired,"ax",%progbits
 528              		.align	2
 529              		.global	chSchIsPreemptionRequired
 530              		.syntax unified
 531              		.arm
 532              		.fpu softvfp
 533              		.type	chSchIsPreemptionRequired, %function
 534              	chSchIsPreemptionRequired:
 535              	.LFB14:
 536              		.loc 1 269 0
 537              		.cfi_startproc
 538              		@ args = 0, pretend = 0, frame = 0
 539              		@ frame_needed = 0, uses_anonymous_args = 0
 540              		@ link register save eliminated.
 541              		.loc 1 270 0
 542 0000 38209FE5 		ldr	r2, .L49
 543              		.loc 1 271 0
 544 0004 183092E5 		ldr	r3, [r2, #24]
 545              		.loc 1 270 0
 546 0008 001092E5 		ldr	r1, [r2]
 547              		.loc 1 277 0
 548 000c 1F20D3E5 		ldrb	r2, [r3, #31]	@ zero_extendqisi2
 549              		.loc 1 270 0
 550 0010 080091E5 		ldr	r0, [r1, #8]
 551              	.LVL41:
 552              		.loc 1 277 0
 553 0014 000052E3 		cmp	r2, #0
 554              		.loc 1 271 0
 555 0018 083093E5 		ldr	r3, [r3, #8]
 556              	.LVL42:
 557              		.loc 1 277 0
 558 001c 0300001A 		bne	.L48
 559              		.loc 1 277 0 is_stmt 0 discriminator 2
 560 0020 030050E1 		cmp	r0, r3
 561 0024 0000A033 		movcc	r0, #0
 562              	.LVL43:
 563 0028 0100A023 		movcs	r0, #1
 564              		.loc 1 283 0 is_stmt 1 discriminator 2
 565 002c 1EFF2FE1 		bx	lr
 566              	.LVL44:
 567              	.L48:
 568              		.loc 1 277 0 discriminator 1
 569 0030 030050E1 		cmp	r0, r3
 570 0034 0000A093 		movls	r0, #0
ARM GAS  /var/folders/3j/4xdnk5197cv_b7cw3n33qk7r0000gn/T//ccjzjwHI.s 			page 11


 571              	.LVL45:
 572 0038 0100A083 		movhi	r0, #1
 573 003c 1EFF2FE1 		bx	lr
 574              	.L50:
 575              		.align	2
 576              	.L49:
 577 0040 00000000 		.word	rlist
 578              		.cfi_endproc
 579              	.LFE14:
 580              		.size	chSchIsPreemptionRequired, .-chSchIsPreemptionRequired
 581              		.section	.text.chSchDoRescheduleBehind,"ax",%progbits
 582              		.align	2
 583              		.global	chSchDoRescheduleBehind
 584              		.syntax unified
 585              		.arm
 586              		.fpu softvfp
 587              		.type	chSchDoRescheduleBehind, %function
 588              	chSchDoRescheduleBehind:
 589              	.LFB15:
 590              		.loc 1 297 0
 591              		.cfi_startproc
 592              		@ args = 0, pretend = 0, frame = 0
 593              		@ frame_needed = 0, uses_anonymous_args = 0
 594 0000 30402DE9 		push	{r4, r5, lr}
 595              		.cfi_def_cfa_offset 12
 596              		.cfi_offset 4, -12
 597              		.cfi_offset 5, -8
 598              		.cfi_offset 14, -4
 599              		.loc 1 303 0
 600 0004 0150A0E3 		mov	r5, #1
 601              		.loc 1 305 0
 602 0008 1440A0E3 		mov	r4, #20
 603              	.LBB66:
 604              	.LBB67:
 605              		.loc 1 85 0
 606 000c 00E0A0E3 		mov	lr, #0
 607              	.LBE67:
 608              	.LBE66:
 609              		.loc 1 300 0
 610 0010 5C209FE5 		ldr	r2, .L56
 611              	.LBB72:
 612              	.LBB73:
 613              		.loc 2 53 0
 614 0014 000092E5 		ldr	r0, [r2]
 615              	.LBE73:
 616              	.LBE72:
 617              		.loc 1 300 0
 618 0018 181092E5 		ldr	r1, [r2, #24]
 619              	.LVL46:
 620              	.LBB77:
 621              	.LBB74:
 622              		.loc 2 55 0
 623 001c 00C090E5 		ldr	ip, [r0]
 624              	.LBE74:
 625              	.LBE77:
 626              	.LBB78:
 627              	.LBB68:
ARM GAS  /var/folders/3j/4xdnk5197cv_b7cw3n33qk7r0000gn/T//ccjzjwHI.s 			page 12


 628              		.loc 1 89 0
 629 0020 0030A0E1 		mov	r3, r0
 630              	.LBE68:
 631              	.LBE78:
 632              	.LBB79:
 633              	.LBB75:
 634              		.loc 2 55 0
 635 0024 04208CE5 		str	r2, [ip, #4]
 636              	.LVL47:
 637              	.LBE75:
 638              	.LBE79:
 639              		.loc 1 303 0
 640 0028 1C50C0E5 		strb	r5, [r0, #28]
 641              	.LBB80:
 642              	.LBB76:
 643              		.loc 2 55 0
 644 002c 00C082E5 		str	ip, [r2]
 645              	.LBE76:
 646              	.LBE80:
 647              		.loc 1 302 0
 648 0030 180082E5 		str	r0, [r2, #24]
 649              	.LBB81:
 650              	.LBB69:
 651              		.loc 1 89 0
 652 0034 08C091E5 		ldr	ip, [r1, #8]
 653              	.LBE69:
 654              	.LBE81:
 655              		.loc 1 305 0
 656 0038 1F40C1E5 		strb	r4, [r1, #31]
 657              	.LVL48:
 658              	.LBB82:
 659              	.LBB70:
 660              		.loc 1 85 0
 661 003c 1CE0C1E5 		strb	lr, [r1, #28]
 662              	.LVL49:
 663 0040 000000EA 		b	.L53
 664              	.LVL50:
 665              	.L55:
 666 0044 003093E5 		ldr	r3, [r3]
 667              	.L53:
 668              		.loc 1 89 0
 669 0048 082093E5 		ldr	r2, [r3, #8]
 670 004c 0C0052E1 		cmp	r2, ip
 671 0050 FBFFFF2A 		bcs	.L55
 672              	.LBE70:
 673              	.LBE82:
 674              		.loc 1 309 0
 675 0054 3040BDE8 		pop	{r4, r5, lr}
 676              		.cfi_restore 14
 677              		.cfi_restore 5
 678              		.cfi_restore 4
 679              		.cfi_def_cfa_offset 0
 680              	.LBB83:
 681              	.LBB71:
 682              		.loc 1 92 0
 683 0058 042093E5 		ldr	r2, [r3, #4]
 684              		.loc 1 91 0
ARM GAS  /var/folders/3j/4xdnk5197cv_b7cw3n33qk7r0000gn/T//ccjzjwHI.s 			page 13


 685 005c 003081E5 		str	r3, [r1]
 686              		.loc 1 92 0
 687 0060 042081E5 		str	r2, [r1, #4]
 688              		.loc 1 93 0
 689 0064 041083E5 		str	r1, [r3, #4]
 690 0068 043091E5 		ldr	r3, [r1, #4]
 691 006c 001083E5 		str	r1, [r3]
 692              	.LVL51:
 693              	.LBE71:
 694              	.LBE83:
 695              		.loc 1 308 0
 696 0070 FEFFFFEA 		b	_port_switch_arm
 697              	.LVL52:
 698              	.L57:
 699              		.align	2
 700              	.L56:
 701 0074 00000000 		.word	rlist
 702              		.cfi_endproc
 703              	.LFE15:
 704              		.size	chSchDoRescheduleBehind, .-chSchDoRescheduleBehind
 705              		.section	.text.chSchDoRescheduleAhead,"ax",%progbits
 706              		.align	2
 707              		.global	chSchDoRescheduleAhead
 708              		.syntax unified
 709              		.arm
 710              		.fpu softvfp
 711              		.type	chSchDoRescheduleAhead, %function
 712              	chSchDoRescheduleAhead:
 713              	.LFB16:
 714              		.loc 1 322 0
 715              		.cfi_startproc
 716              		@ args = 0, pretend = 0, frame = 0
 717              		@ frame_needed = 0, uses_anonymous_args = 0
 718 0000 10402DE9 		push	{r4, lr}
 719              		.cfi_def_cfa_offset 8
 720              		.cfi_offset 4, -8
 721              		.cfi_offset 14, -4
 722              		.loc 1 328 0
 723 0004 0140A0E3 		mov	r4, #1
 724              		.loc 1 330 0
 725 0008 00E0A0E3 		mov	lr, #0
 726              		.loc 1 325 0
 727 000c 58209FE5 		ldr	r2, .L63
 728              	.LBB84:
 729              	.LBB85:
 730              		.loc 2 53 0
 731 0010 000092E5 		ldr	r0, [r2]
 732              	.LBE85:
 733              	.LBE84:
 734              		.loc 1 325 0
 735 0014 181092E5 		ldr	r1, [r2, #24]
 736              	.LVL53:
 737              	.LBB89:
 738              	.LBB86:
 739              		.loc 2 55 0
 740 0018 00C090E5 		ldr	ip, [r0]
 741              	.LBE86:
ARM GAS  /var/folders/3j/4xdnk5197cv_b7cw3n33qk7r0000gn/T//ccjzjwHI.s 			page 14


 742              	.LBE89:
 743              		.loc 1 334 0
 744 001c 0030A0E1 		mov	r3, r0
 745              	.LBB90:
 746              	.LBB87:
 747              		.loc 2 55 0
 748 0020 04208CE5 		str	r2, [ip, #4]
 749              	.LVL54:
 750              	.LBE87:
 751              	.LBE90:
 752              		.loc 1 328 0
 753 0024 1C40C0E5 		strb	r4, [r0, #28]
 754              	.LBB91:
 755              	.LBB88:
 756              		.loc 2 55 0
 757 0028 00C082E5 		str	ip, [r2]
 758              	.LBE88:
 759              	.LBE91:
 760              		.loc 1 330 0
 761 002c 1CE0C1E5 		strb	lr, [r1, #28]
 762              	.LVL55:
 763              		.loc 1 334 0
 764 0030 08C091E5 		ldr	ip, [r1, #8]
 765              		.loc 1 327 0
 766 0034 180082E5 		str	r0, [r2, #24]
 767 0038 000000EA 		b	.L60
 768              	.LVL56:
 769              	.L62:
 770 003c 003093E5 		ldr	r3, [r3]
 771              	.L60:
 772              		.loc 1 334 0 discriminator 1
 773 0040 082093E5 		ldr	r2, [r3, #8]
 774 0044 0C0052E1 		cmp	r2, ip
 775 0048 FBFFFF8A 		bhi	.L62
 776              		.loc 1 341 0
 777 004c 1040BDE8 		pop	{r4, lr}
 778              		.cfi_restore 14
 779              		.cfi_restore 4
 780              		.cfi_def_cfa_offset 0
 781              		.loc 1 337 0
 782 0050 042093E5 		ldr	r2, [r3, #4]
 783              		.loc 1 336 0
 784 0054 003081E5 		str	r3, [r1]
 785              		.loc 1 337 0
 786 0058 042081E5 		str	r2, [r1, #4]
 787              		.loc 1 338 0
 788 005c 041083E5 		str	r1, [r3, #4]
 789 0060 043091E5 		ldr	r3, [r1, #4]
 790 0064 001083E5 		str	r1, [r3]
 791              		.loc 1 340 0
 792 0068 FEFFFFEA 		b	_port_switch_arm
 793              	.LVL57:
 794              	.L64:
 795              		.align	2
 796              	.L63:
 797 006c 00000000 		.word	rlist
 798              		.cfi_endproc
ARM GAS  /var/folders/3j/4xdnk5197cv_b7cw3n33qk7r0000gn/T//ccjzjwHI.s 			page 15


 799              	.LFE16:
 800              		.size	chSchDoRescheduleAhead, .-chSchDoRescheduleAhead
 801              		.section	.text.chSchRescheduleS,"ax",%progbits
 802              		.align	2
 803              		.global	chSchRescheduleS
 804              		.syntax unified
 805              		.arm
 806              		.fpu softvfp
 807              		.type	chSchRescheduleS, %function
 808              	chSchRescheduleS:
 809              	.LFB13:
 810              		.loc 1 246 0
 811              		.cfi_startproc
 812              		@ args = 0, pretend = 0, frame = 0
 813              		@ frame_needed = 0, uses_anonymous_args = 0
 814              		@ link register save eliminated.
 815              		.loc 1 250 0
 816 0000 18309FE5 		ldr	r3, .L67
 817 0004 002093E5 		ldr	r2, [r3]
 818 0008 183093E5 		ldr	r3, [r3, #24]
 819 000c 082092E5 		ldr	r2, [r2, #8]
 820 0010 083093E5 		ldr	r3, [r3, #8]
 821 0014 030052E1 		cmp	r2, r3
 822 0018 1EFF2F91 		bxls	lr
 823              		.loc 1 251 0
 824 001c FEFFFFEA 		b	chSchDoRescheduleAhead
 825              	.LVL58:
 826              	.L68:
 827              		.align	2
 828              	.L67:
 829 0020 00000000 		.word	rlist
 830              		.cfi_endproc
 831              	.LFE13:
 832              		.size	chSchRescheduleS, .-chSchRescheduleS
 833              		.section	.text.chSchDoReschedule,"ax",%progbits
 834              		.align	2
 835              		.global	chSchDoReschedule
 836              		.syntax unified
 837              		.arm
 838              		.fpu softvfp
 839              		.type	chSchDoReschedule, %function
 840              	chSchDoReschedule:
 841              	.LFB17:
 842              		.loc 1 355 0
 843              		.cfi_startproc
 844              		@ args = 0, pretend = 0, frame = 0
 845              		@ frame_needed = 0, uses_anonymous_args = 0
 846              		@ link register save eliminated.
 847              		.loc 1 360 0
 848 0000 14309FE5 		ldr	r3, .L72
 849 0004 183093E5 		ldr	r3, [r3, #24]
 850 0008 1F30D3E5 		ldrb	r3, [r3, #31]	@ zero_extendqisi2
 851 000c 000053E3 		cmp	r3, #0
 852 0010 0000000A 		beq	.L71
 853              		.loc 1 368 0
 854 0014 FEFFFFEA 		b	chSchDoRescheduleAhead
 855              	.LVL59:
ARM GAS  /var/folders/3j/4xdnk5197cv_b7cw3n33qk7r0000gn/T//ccjzjwHI.s 			page 16


 856              	.L71:
 857              		.loc 1 363 0
 858 0018 FEFFFFEA 		b	chSchDoRescheduleBehind
 859              	.LVL60:
 860              	.L73:
 861              		.align	2
 862              	.L72:
 863 001c 00000000 		.word	rlist
 864              		.cfi_endproc
 865              	.LFE17:
 866              		.size	chSchDoReschedule, .-chSchDoReschedule
 867              		.comm	rlist,28,4
 868              		.text
 869              	.Letext0:
 870              		.file 3 "/usr/local/Cellar/gcc-arm-none-eabi/20180627/arm-none-eabi/include/machine/_default_types
 871              		.file 4 "/usr/local/Cellar/gcc-arm-none-eabi/20180627/arm-none-eabi/include/sys/_stdint.h"
 872              		.file 5 "..//os/ports/GCC/ARM/chtypes.h"
 873              		.file 6 "..//os/kernel/include/chlists.h"
 874              		.file 7 "..//os/kernel/include/chthreads.h"
 875              		.file 8 "..//os/ports/GCC/ARM/chcore.h"
 876              		.file 9 "..//os/kernel/include/chvt.h"
 877              		.file 10 "..//os/kernel/include/chschd.h"
 878              		.file 11 "..//os/kernel/include/chsem.h"
 879              		.file 12 "..//os/kernel/include/chmtx.h"
 880              		.file 13 "..//os/kernel/include/chregistry.h"
 881              		.file 14 "..//os/kernel/include/ch.h"