ARM GAS  /var/folders/3j/4xdnk5197cv_b7cw3n33qk7r0000gn/T//ccECGIus.s 			page 1


   1              		.cpu arm1176jz-s
   2              		.eabi_attribute 20, 1
   3              		.eabi_attribute 21, 1
   4              		.eabi_attribute 23, 3
   5              		.eabi_attribute 24, 1
   6              		.eabi_attribute 25, 1
   7              		.eabi_attribute 26, 1
   8              		.eabi_attribute 30, 2
   9              		.eabi_attribute 34, 1
  10              		.eabi_attribute 18, 4
  11              		.file	"chthreads.c"
  12              		.text
  13              	.Ltext0:
  14              		.cfi_sections	.debug_frame
  15              		.section	.text._thread_init,"ax",%progbits
  16              		.align	2
  17              		.global	_thread_init
  18              		.syntax unified
  19              		.arm
  20              		.fpu softvfp
  21              		.type	_thread_init, %function
  22              	_thread_init:
  23              	.LFB7:
  24              		.file 1 "..//os/kernel/src/chthreads.c"
  25              		.loc 1 69 0
  26              		.cfi_startproc
  27              		@ args = 0, pretend = 0, frame = 0
  28              		@ frame_needed = 0, uses_anonymous_args = 0
  29              	.LVL0:
  30 0000 70402DE9 		push	{r4, r5, r6, lr}
  31              		.cfi_def_cfa_offset 16
  32              		.cfi_offset 4, -16
  33              		.cfi_offset 5, -12
  34              		.cfi_offset 6, -8
  35              		.cfi_offset 14, -4
  36              		.loc 1 79 0
  37 0004 0020A0E3 		mov	r2, #0
  38              		.loc 1 72 0
  39 0008 0260A0E3 		mov	r6, #2
  40              		.loc 1 75 0
  41 000c 1450A0E3 		mov	r5, #20
  42              		.loc 1 88 0
  43 0010 0140A0E3 		mov	r4, #1
  44              		.loc 1 92 0
  45 0014 4CC09FE5 		ldr	ip, .L4
  46              		.loc 1 71 0
  47 0018 081080E5 		str	r1, [r0, #8]
  48              		.loc 1 92 0
  49 001c 14E09CE5 		ldr	lr, [ip, #20]
  50              		.loc 1 78 0
  51 0020 401080E5 		str	r1, [r0, #64]
  52              		.loc 1 92 0
  53 0024 10C080E5 		str	ip, [r0, #16]
  54 0028 14E080E5 		str	lr, [r0, #20]
  55              		.loc 1 98 0
  56 002c 2C1080E2 		add	r1, r0, #44
  57              	.LVL1:
ARM GAS  /var/folders/3j/4xdnk5197cv_b7cw3n33qk7r0000gn/T//ccECGIus.s 			page 2


  58              		.loc 1 92 0
  59 0030 14008CE5 		str	r0, [ip, #20]
  60              		.loc 1 95 0
  61 0034 28C080E2 		add	ip, r0, #40
  62              		.loc 1 72 0
  63 0038 BC61C0E1 		strh	r6, [r0, #28]	@ movhi
  64              		.loc 1 75 0
  65 003c 1F50C0E5 		strb	r5, [r0, #31]
  66              		.loc 1 88 0
  67 0040 1E40C0E5 		strb	r4, [r0, #30]
  68              		.loc 1 79 0
  69 0044 3C2080E5 		str	r2, [r0, #60]
  70              		.loc 1 82 0
  71 0048 382080E5 		str	r2, [r0, #56]
  72              		.loc 1 85 0
  73 004c 202080E5 		str	r2, [r0, #32]
  74              		.loc 1 91 0
  75 0050 182080E5 		str	r2, [r0, #24]
  76              		.loc 1 92 0
  77 0054 10008EE5 		str	r0, [lr, #16]
  78              		.loc 1 95 0
  79 0058 28C080E5 		str	ip, [r0, #40]
  80              		.loc 1 98 0
  81 005c 301080E5 		str	r1, [r0, #48]
  82 0060 2C1080E5 		str	r1, [r0, #44]
  83              		.loc 1 107 0
  84 0064 7080BDE8 		pop	{r4, r5, r6, pc}
  85              	.L5:
  86              		.align	2
  87              	.L4:
  88 0068 00000000 		.word	rlist
  89              		.cfi_endproc
  90              	.LFE7:
  91              		.size	_thread_init, .-_thread_init
  92              		.section	.text.chThdCreateI,"ax",%progbits
  93              		.align	2
  94              		.global	chThdCreateI
  95              		.syntax unified
  96              		.arm
  97              		.fpu softvfp
  98              		.type	chThdCreateI, %function
  99              	chThdCreateI:
 100              	.LFB8:
 101              		.loc 1 151 0
 102              		.cfi_startproc
 103              		@ args = 4, pretend = 0, frame = 0
 104              		@ frame_needed = 0, uses_anonymous_args = 0
 105              	.LVL2:
 106 0000 F0402DE9 		push	{r4, r5, r6, r7, lr}
 107              		.cfi_def_cfa_offset 20
 108              		.cfi_offset 4, -20
 109              		.cfi_offset 5, -16
 110              		.cfi_offset 6, -12
 111              		.cfi_offset 7, -8
 112              		.cfi_offset 14, -4
 113              	.LBB12:
 114              	.LBB13:
ARM GAS  /var/folders/3j/4xdnk5197cv_b7cw3n33qk7r0000gn/T//ccECGIus.s 			page 3


 115              		.loc 1 79 0
 116 0004 00E0A0E3 		mov	lr, #0
 117              		.loc 1 72 0
 118 0008 0270A0E3 		mov	r7, #2
 119              		.loc 1 75 0
 120 000c 1460A0E3 		mov	r6, #20
 121              		.loc 1 88 0
 122 0010 0150A0E3 		mov	r5, #1
 123              	.LBE13:
 124              	.LBE12:
 125              		.loc 1 160 0
 126 0014 241041E2 		sub	r1, r1, #36
 127              	.LVL3:
 128 0018 014080E0 		add	r4, r0, r1
 129 001c 0C4080E5 		str	r4, [r0, #12]
 130 0020 013080E7 		str	r3, [r0, r1]
 131              		.loc 1 151 0
 132 0024 14109DE5 		ldr	r1, [sp, #20]
 133              	.LVL4:
 134              	.LBB16:
 135              	.LBB14:
 136              		.loc 1 92 0
 137 0028 58309FE5 		ldr	r3, .L8
 138              	.LVL5:
 139              	.LBE14:
 140              	.LBE16:
 141              		.loc 1 160 0
 142 002c 041084E5 		str	r1, [r4, #4]
 143 0030 54109FE5 		ldr	r1, .L8+4
 144 0034 201084E5 		str	r1, [r4, #32]
 145              	.LVL6:
 146              	.LBB17:
 147              	.LBB15:
 148              		.loc 1 92 0
 149 0038 141093E5 		ldr	r1, [r3, #20]
 150              		.loc 1 71 0
 151 003c 082080E5 		str	r2, [r0, #8]
 152              		.loc 1 78 0
 153 0040 402080E5 		str	r2, [r0, #64]
 154              		.loc 1 95 0
 155 0044 284080E2 		add	r4, r0, #40
 156              	.LVL7:
 157              		.loc 1 98 0
 158 0048 2C2080E2 		add	r2, r0, #44
 159              	.LVL8:
 160              		.loc 1 92 0
 161 004c 103080E5 		str	r3, [r0, #16]
 162 0050 141080E5 		str	r1, [r0, #20]
 163              		.loc 1 72 0
 164 0054 BC71C0E1 		strh	r7, [r0, #28]	@ movhi
 165              	.LVL9:
 166              		.loc 1 75 0
 167 0058 1F60C0E5 		strb	r6, [r0, #31]
 168              		.loc 1 88 0
 169 005c 1E50C0E5 		strb	r5, [r0, #30]
 170              		.loc 1 79 0
 171 0060 3CE080E5 		str	lr, [r0, #60]
ARM GAS  /var/folders/3j/4xdnk5197cv_b7cw3n33qk7r0000gn/T//ccECGIus.s 			page 4


 172              		.loc 1 92 0
 173 0064 140083E5 		str	r0, [r3, #20]
 174              		.loc 1 82 0
 175 0068 38E080E5 		str	lr, [r0, #56]
 176              		.loc 1 85 0
 177 006c 20E080E5 		str	lr, [r0, #32]
 178              		.loc 1 91 0
 179 0070 18E080E5 		str	lr, [r0, #24]
 180              		.loc 1 92 0
 181 0074 100081E5 		str	r0, [r1, #16]
 182              		.loc 1 95 0
 183 0078 284080E5 		str	r4, [r0, #40]
 184              		.loc 1 98 0
 185 007c 302080E5 		str	r2, [r0, #48]
 186 0080 2C2080E5 		str	r2, [r0, #44]
 187              	.LVL10:
 188              	.LBE15:
 189              	.LBE17:
 190              		.loc 1 162 0
 191 0084 F080BDE8 		pop	{r4, r5, r6, r7, pc}
 192              	.L9:
 193              		.align	2
 194              	.L8:
 195 0088 00000000 		.word	rlist
 196 008c 00000000 		.word	_port_thread_start
 197              		.cfi_endproc
 198              	.LFE8:
 199              		.size	chThdCreateI, .-chThdCreateI
 200              		.section	.text.chThdCreateStatic,"ax",%progbits
 201              		.align	2
 202              		.global	chThdCreateStatic
 203              		.syntax unified
 204              		.arm
 205              		.fpu softvfp
 206              		.type	chThdCreateStatic, %function
 207              	chThdCreateStatic:
 208              	.LFB9:
 209              		.loc 1 181 0
 210              		.cfi_startproc
 211              		@ args = 4, pretend = 0, frame = 0
 212              		@ frame_needed = 0, uses_anonymous_args = 0
 213              	.LVL11:
 214 0000 F0412DE9 		push	{r4, r5, r6, r7, r8, lr}
 215              		.cfi_def_cfa_offset 24
 216              		.cfi_offset 4, -24
 217              		.cfi_offset 5, -20
 218              		.cfi_offset 6, -16
 219              		.cfi_offset 7, -12
 220              		.cfi_offset 8, -8
 221              		.cfi_offset 14, -4
 222              		.loc 1 181 0
 223 0004 18809DE5 		ldr	r8, [sp, #24]
 224 0008 0040A0E1 		mov	r4, r0
 225              		.loc 1 192 0
 226              		.syntax divided
 227              	@ 192 "..//os/kernel/src/chthreads.c" 1
 228 000c 9FF021E3 		msr     CPSR_c, #0x9F
ARM GAS  /var/folders/3j/4xdnk5197cv_b7cw3n33qk7r0000gn/T//ccECGIus.s 			page 5


 229              	@ 0 "" 2
 230              	.LVL12:
 231              		.arm
 232              		.syntax unified
 233              	.LBB18:
 234              	.LBB19:
 235              	.LBB20:
 236              	.LBB21:
 237              		.loc 1 72 0
 238 0010 0250A0E3 		mov	r5, #2
 239              		.loc 1 79 0
 240 0014 00C0A0E3 		mov	ip, #0
 241              		.loc 1 75 0
 242 0018 1470A0E3 		mov	r7, #20
 243              		.loc 1 88 0
 244 001c 0160A0E3 		mov	r6, #1
 245              	.LBE21:
 246              	.LBE20:
 247              		.loc 1 160 0
 248 0020 241041E2 		sub	r1, r1, #36
 249              	.LVL13:
 250 0024 01E080E0 		add	lr, r0, r1
 251 0028 0CE080E5 		str	lr, [r0, #12]
 252 002c 013080E7 		str	r3, [r0, r1]
 253              	.LBB25:
 254              	.LBB22:
 255              		.loc 1 92 0
 256 0030 68309FE5 		ldr	r3, .L12
 257              	.LVL14:
 258              	.LBE22:
 259              	.LBE25:
 260              		.loc 1 160 0
 261 0034 68109FE5 		ldr	r1, .L12+4
 262              	.LVL15:
 263 0038 04808EE5 		str	r8, [lr, #4]
 264 003c 20108EE5 		str	r1, [lr, #32]
 265              	.LVL16:
 266              	.LBB26:
 267              	.LBB23:
 268              		.loc 1 92 0
 269 0040 14E093E5 		ldr	lr, [r3, #20]
 270              	.LVL17:
 271              		.loc 1 71 0
 272 0044 082080E5 		str	r2, [r0, #8]
 273              		.loc 1 78 0
 274 0048 402080E5 		str	r2, [r0, #64]
 275              		.loc 1 72 0
 276 004c BC51C0E1 		strh	r5, [r0, #28]	@ movhi
 277              	.LVL18:
 278              		.loc 1 98 0
 279 0050 2C2080E2 		add	r2, r0, #44
 280              	.LVL19:
 281              		.loc 1 95 0
 282 0054 285080E2 		add	r5, r0, #40
 283              		.loc 1 92 0
 284 0058 103080E5 		str	r3, [r0, #16]
 285 005c 14E080E5 		str	lr, [r0, #20]
ARM GAS  /var/folders/3j/4xdnk5197cv_b7cw3n33qk7r0000gn/T//ccECGIus.s 			page 6


 286              		.loc 1 75 0
 287 0060 1F70C0E5 		strb	r7, [r0, #31]
 288              		.loc 1 88 0
 289 0064 1E60C0E5 		strb	r6, [r0, #30]
 290              		.loc 1 79 0
 291 0068 3CC080E5 		str	ip, [r0, #60]
 292              		.loc 1 92 0
 293 006c 140083E5 		str	r0, [r3, #20]
 294              		.loc 1 82 0
 295 0070 38C080E5 		str	ip, [r0, #56]
 296              		.loc 1 85 0
 297 0074 20C080E5 		str	ip, [r0, #32]
 298              		.loc 1 91 0
 299 0078 18C080E5 		str	ip, [r0, #24]
 300              	.LBE23:
 301              	.LBE26:
 302              	.LBE19:
 303              	.LBE18:
 304              		.loc 1 193 0
 305 007c 0C10A0E1 		mov	r1, ip
 306              	.LBB29:
 307              	.LBB28:
 308              	.LBB27:
 309              	.LBB24:
 310              		.loc 1 92 0
 311 0080 10008EE5 		str	r0, [lr, #16]
 312              		.loc 1 95 0
 313 0084 285080E5 		str	r5, [r0, #40]
 314              		.loc 1 98 0
 315 0088 302080E5 		str	r2, [r0, #48]
 316 008c 2C2080E5 		str	r2, [r0, #44]
 317              	.LVL20:
 318              	.LBE24:
 319              	.LBE27:
 320              	.LBE28:
 321              	.LBE29:
 322              		.loc 1 193 0
 323 0090 FEFFFFEB 		bl	chSchWakeupS
 324              	.LVL21:
 325              		.loc 1 194 0
 326              		.syntax divided
 327              	@ 194 "..//os/kernel/src/chthreads.c" 1
 328 0094 1FF021E3 		msr     CPSR_c, #0x1F
 329              	@ 0 "" 2
 330              		.loc 1 196 0
 331              		.arm
 332              		.syntax unified
 333 0098 0400A0E1 		mov	r0, r4
 334 009c F081BDE8 		pop	{r4, r5, r6, r7, r8, pc}
 335              	.L13:
 336              		.align	2
 337              	.L12:
 338 00a0 00000000 		.word	rlist
 339 00a4 00000000 		.word	_port_thread_start
 340              		.cfi_endproc
 341              	.LFE9:
 342              		.size	chThdCreateStatic, .-chThdCreateStatic
ARM GAS  /var/folders/3j/4xdnk5197cv_b7cw3n33qk7r0000gn/T//ccECGIus.s 			page 7


 343              		.section	.text.chThdSetPriority,"ax",%progbits
 344              		.align	2
 345              		.global	chThdSetPriority
 346              		.syntax unified
 347              		.arm
 348              		.fpu softvfp
 349              		.type	chThdSetPriority, %function
 350              	chThdSetPriority:
 351              	.LFB10:
 352              		.loc 1 210 0
 353              		.cfi_startproc
 354              		@ args = 0, pretend = 0, frame = 0
 355              		@ frame_needed = 0, uses_anonymous_args = 0
 356              	.LVL22:
 357 0000 10402DE9 		push	{r4, lr}
 358              		.cfi_def_cfa_offset 8
 359              		.cfi_offset 4, -8
 360              		.cfi_offset 14, -4
 361              		.loc 1 210 0
 362 0004 0010A0E1 		mov	r1, r0
 363              		.loc 1 215 0
 364              		.syntax divided
 365              	@ 215 "..//os/kernel/src/chthreads.c" 1
 366 0008 9FF021E3 		msr     CPSR_c, #0x9F
 367              	@ 0 "" 2
 368              		.loc 1 217 0
 369              		.arm
 370              		.syntax unified
 371 000c 38309FE5 		ldr	r3, .L20
 372 0010 183093E5 		ldr	r3, [r3, #24]
 373              		.loc 1 218 0
 374 0014 080093E5 		ldr	r0, [r3, #8]
 375              	.LVL23:
 376              		.loc 1 217 0
 377 0018 404093E5 		ldr	r4, [r3, #64]
 378              	.LVL24:
 379              		.loc 1 220 0
 380 001c 401083E5 		str	r1, [r3, #64]
 381              		.loc 1 218 0
 382 0020 042040E0 		sub	r2, r0, r4
 383 0024 122F6FE1 		clz	r2, r2
 384 0028 A222A0E1 		lsr	r2, r2, #5
 385 002c 010050E1 		cmp	r0, r1
 386 0030 01208233 		orrcc	r2, r2, #1
 387 0034 000052E3 		cmp	r2, #0
 388              		.loc 1 219 0
 389 0038 08108315 		strne	r1, [r3, #8]
 390              		.loc 1 225 0
 391 003c FEFFFFEB 		bl	chSchRescheduleS
 392              	.LVL25:
 393              		.loc 1 226 0
 394              		.syntax divided
 395              	@ 226 "..//os/kernel/src/chthreads.c" 1
 396 0040 1FF021E3 		msr     CPSR_c, #0x1F
 397              	@ 0 "" 2
 398              		.loc 1 228 0
 399              		.arm
ARM GAS  /var/folders/3j/4xdnk5197cv_b7cw3n33qk7r0000gn/T//ccECGIus.s 			page 8


 400              		.syntax unified
 401 0044 0400A0E1 		mov	r0, r4
 402 0048 1080BDE8 		pop	{r4, pc}
 403              	.L21:
 404              		.align	2
 405              	.L20:
 406 004c 00000000 		.word	rlist
 407              		.cfi_endproc
 408              	.LFE10:
 409              		.size	chThdSetPriority, .-chThdSetPriority
 410              		.section	.text.chThdResume,"ax",%progbits
 411              		.align	2
 412              		.global	chThdResume
 413              		.syntax unified
 414              		.arm
 415              		.fpu softvfp
 416              		.type	chThdResume, %function
 417              	chThdResume:
 418              	.LFB11:
 419              		.loc 1 243 0
 420              		.cfi_startproc
 421              		@ args = 0, pretend = 0, frame = 0
 422              		@ frame_needed = 0, uses_anonymous_args = 0
 423              	.LVL26:
 424 0000 10402DE9 		push	{r4, lr}
 425              		.cfi_def_cfa_offset 8
 426              		.cfi_offset 4, -8
 427              		.cfi_offset 14, -4
 428              		.loc 1 243 0
 429 0004 0040A0E1 		mov	r4, r0
 430              		.loc 1 245 0
 431              		.syntax divided
 432              	@ 245 "..//os/kernel/src/chthreads.c" 1
 433 0008 9FF021E3 		msr     CPSR_c, #0x9F
 434              	@ 0 "" 2
 435              		.loc 1 249 0
 436              		.arm
 437              		.syntax unified
 438 000c 0010A0E3 		mov	r1, #0
 439 0010 FEFFFFEB 		bl	chSchWakeupS
 440              	.LVL27:
 441              		.loc 1 250 0
 442              		.syntax divided
 443              	@ 250 "..//os/kernel/src/chthreads.c" 1
 444 0014 1FF021E3 		msr     CPSR_c, #0x1F
 445              	@ 0 "" 2
 446              		.loc 1 252 0
 447              		.arm
 448              		.syntax unified
 449 0018 0400A0E1 		mov	r0, r4
 450 001c 1080BDE8 		pop	{r4, pc}
 451              		.cfi_endproc
 452              	.LFE11:
 453              		.size	chThdResume, .-chThdResume
 454              		.section	.text.chThdTerminate,"ax",%progbits
 455              		.align	2
 456              		.global	chThdTerminate
ARM GAS  /var/folders/3j/4xdnk5197cv_b7cw3n33qk7r0000gn/T//ccECGIus.s 			page 9


 457              		.syntax unified
 458              		.arm
 459              		.fpu softvfp
 460              		.type	chThdTerminate, %function
 461              	chThdTerminate:
 462              	.LFB12:
 463              		.loc 1 266 0
 464              		.cfi_startproc
 465              		@ args = 0, pretend = 0, frame = 0
 466              		@ frame_needed = 0, uses_anonymous_args = 0
 467              		@ link register save eliminated.
 468              	.LVL28:
 469              		.loc 1 268 0
 470              		.syntax divided
 471              	@ 268 "..//os/kernel/src/chthreads.c" 1
 472 0000 9FF021E3 		msr     CPSR_c, #0x9F
 473              	@ 0 "" 2
 474              		.loc 1 269 0
 475              		.arm
 476              		.syntax unified
 477 0004 1D30D0E5 		ldrb	r3, [r0, #29]	@ zero_extendqisi2
 478 0008 043083E3 		orr	r3, r3, #4
 479 000c 1D30C0E5 		strb	r3, [r0, #29]
 480              		.loc 1 270 0
 481              		.syntax divided
 482              	@ 270 "..//os/kernel/src/chthreads.c" 1
 483 0010 1FF021E3 		msr     CPSR_c, #0x1F
 484              	@ 0 "" 2
 485              		.loc 1 271 0
 486              		.arm
 487              		.syntax unified
 488 0014 1EFF2FE1 		bx	lr
 489              		.cfi_endproc
 490              	.LFE12:
 491              		.size	chThdTerminate, .-chThdTerminate
 492              		.section	.text.chThdSleep,"ax",%progbits
 493              		.align	2
 494              		.global	chThdSleep
 495              		.syntax unified
 496              		.arm
 497              		.fpu softvfp
 498              		.type	chThdSleep, %function
 499              	chThdSleep:
 500              	.LFB13:
 501              		.loc 1 285 0
 502              		.cfi_startproc
 503              		@ args = 0, pretend = 0, frame = 0
 504              		@ frame_needed = 0, uses_anonymous_args = 0
 505              	.LVL29:
 506 0000 10402DE9 		push	{r4, lr}
 507              		.cfi_def_cfa_offset 8
 508              		.cfi_offset 4, -8
 509              		.cfi_offset 14, -4
 510              		.loc 1 285 0
 511 0004 0010A0E1 		mov	r1, r0
 512              		.loc 1 289 0
 513              		.syntax divided
ARM GAS  /var/folders/3j/4xdnk5197cv_b7cw3n33qk7r0000gn/T//ccECGIus.s 			page 10


 514              	@ 289 "..//os/kernel/src/chthreads.c" 1
 515 0008 9FF021E3 		msr     CPSR_c, #0x9F
 516              	@ 0 "" 2
 517              		.loc 1 290 0
 518              		.arm
 519              		.syntax unified
 520 000c 0600A0E3 		mov	r0, #6
 521              	.LVL30:
 522 0010 FEFFFFEB 		bl	chSchGoSleepTimeoutS
 523              	.LVL31:
 524              		.loc 1 291 0
 525              		.syntax divided
 526              	@ 291 "..//os/kernel/src/chthreads.c" 1
 527 0014 1FF021E3 		msr     CPSR_c, #0x1F
 528              	@ 0 "" 2
 529              		.loc 1 292 0
 530              		.arm
 531              		.syntax unified
 532 0018 1080BDE8 		pop	{r4, pc}
 533              		.cfi_endproc
 534              	.LFE13:
 535              		.size	chThdSleep, .-chThdSleep
 536              		.section	.text.chThdSleepUntil,"ax",%progbits
 537              		.align	2
 538              		.global	chThdSleepUntil
 539              		.syntax unified
 540              		.arm
 541              		.fpu softvfp
 542              		.type	chThdSleepUntil, %function
 543              	chThdSleepUntil:
 544              	.LFB14:
 545              		.loc 1 302 0
 546              		.cfi_startproc
 547              		@ args = 0, pretend = 0, frame = 0
 548              		@ frame_needed = 0, uses_anonymous_args = 0
 549              	.LVL32:
 550              		.loc 1 304 0
 551              		.syntax divided
 552              	@ 304 "..//os/kernel/src/chthreads.c" 1
 553 0000 9FF021E3 		msr     CPSR_c, #0x9F
 554              	@ 0 "" 2
 555              		.loc 1 305 0
 556              		.arm
 557              		.syntax unified
 558 0004 24309FE5 		ldr	r3, .L37
 559 0008 0C1093E5 		ldr	r1, [r3, #12]
 560              	.LVL33:
 561 000c 011050E0 		subs	r1, r0, r1
 562              	.LVL34:
 563 0010 0100001A 		bne	.L36
 564              		.loc 1 307 0
 565              		.syntax divided
 566              	@ 307 "..//os/kernel/src/chthreads.c" 1
 567 0014 1FF021E3 		msr     CPSR_c, #0x1F
 568              	@ 0 "" 2
 569              		.arm
 570              		.syntax unified
ARM GAS  /var/folders/3j/4xdnk5197cv_b7cw3n33qk7r0000gn/T//ccECGIus.s 			page 11


 571 0018 1EFF2FE1 		bx	lr
 572              	.L36:
 573              		.loc 1 302 0
 574 001c 10402DE9 		push	{r4, lr}
 575              		.cfi_def_cfa_offset 8
 576              		.cfi_offset 4, -8
 577              		.cfi_offset 14, -4
 578              		.loc 1 306 0
 579 0020 0600A0E3 		mov	r0, #6
 580 0024 FEFFFFEB 		bl	chSchGoSleepTimeoutS
 581              	.LVL35:
 582              		.loc 1 307 0
 583              		.syntax divided
 584              	@ 307 "..//os/kernel/src/chthreads.c" 1
 585 0028 1FF021E3 		msr     CPSR_c, #0x1F
 586              	@ 0 "" 2
 587              		.loc 1 308 0
 588              		.arm
 589              		.syntax unified
 590 002c 1080BDE8 		pop	{r4, pc}
 591              	.L38:
 592              		.align	2
 593              	.L37:
 594 0030 00000000 		.word	vtlist
 595              		.cfi_endproc
 596              	.LFE14:
 597              		.size	chThdSleepUntil, .-chThdSleepUntil
 598              		.section	.text.chThdYield,"ax",%progbits
 599              		.align	2
 600              		.global	chThdYield
 601              		.syntax unified
 602              		.arm
 603              		.fpu softvfp
 604              		.type	chThdYield, %function
 605              	chThdYield:
 606              	.LFB15:
 607              		.loc 1 317 0
 608              		.cfi_startproc
 609              		@ args = 0, pretend = 0, frame = 0
 610              		@ frame_needed = 0, uses_anonymous_args = 0
 611              		.loc 1 319 0
 612              		.syntax divided
 613              	@ 319 "..//os/kernel/src/chthreads.c" 1
 614 0000 9FF021E3 		msr     CPSR_c, #0x9F
 615              	@ 0 "" 2
 616              		.loc 1 320 0
 617              		.arm
 618              		.syntax unified
 619 0004 2C309FE5 		ldr	r3, .L46
 620 0008 002093E5 		ldr	r2, [r3]
 621 000c 183093E5 		ldr	r3, [r3, #24]
 622 0010 082092E5 		ldr	r2, [r2, #8]
 623 0014 083093E5 		ldr	r3, [r3, #8]
 624 0018 030052E1 		cmp	r2, r3
 625 001c 0100002A 		bcs	.L45
 626              		.loc 1 321 0
 627              		.syntax divided
ARM GAS  /var/folders/3j/4xdnk5197cv_b7cw3n33qk7r0000gn/T//ccECGIus.s 			page 12


 628              	@ 321 "..//os/kernel/src/chthreads.c" 1
 629 0020 1FF021E3 		msr     CPSR_c, #0x1F
 630              	@ 0 "" 2
 631              		.arm
 632              		.syntax unified
 633 0024 1EFF2FE1 		bx	lr
 634              	.L45:
 635              		.loc 1 317 0 discriminator 1
 636 0028 10402DE9 		push	{r4, lr}
 637              		.cfi_def_cfa_offset 8
 638              		.cfi_offset 4, -8
 639              		.cfi_offset 14, -4
 640              		.loc 1 320 0 discriminator 1
 641 002c FEFFFFEB 		bl	chSchDoRescheduleBehind
 642              	.LVL36:
 643              		.loc 1 321 0 discriminator 1
 644              		.syntax divided
 645              	@ 321 "..//os/kernel/src/chthreads.c" 1
 646 0030 1FF021E3 		msr     CPSR_c, #0x1F
 647              	@ 0 "" 2
 648              		.loc 1 322 0 discriminator 1
 649              		.arm
 650              		.syntax unified
 651 0034 1080BDE8 		pop	{r4, pc}
 652              	.L47:
 653              		.align	2
 654              	.L46:
 655 0038 00000000 		.word	rlist
 656              		.cfi_endproc
 657              	.LFE15:
 658              		.size	chThdYield, .-chThdYield
 659              		.section	.text.chThdExitS,"ax",%progbits
 660              		.align	2
 661              		.global	chThdExitS
 662              		.syntax unified
 663              		.arm
 664              		.fpu softvfp
 665              		.type	chThdExitS, %function
 666              	chThdExitS:
 667              	.LFB17:
 668              		.loc 1 359 0
 669              		.cfi_startproc
 670              		@ args = 0, pretend = 0, frame = 0
 671              		@ frame_needed = 0, uses_anonymous_args = 0
 672              	.LVL37:
 673              		.loc 1 360 0
 674 0000 58309FE5 		ldr	r3, .L54
 675              		.loc 1 359 0
 676 0004 70402DE9 		push	{r4, r5, r6, lr}
 677              		.cfi_def_cfa_offset 16
 678              		.cfi_offset 4, -16
 679              		.cfi_offset 5, -12
 680              		.cfi_offset 6, -8
 681              		.cfi_offset 14, -4
 682              		.loc 1 360 0
 683 0008 184093E5 		ldr	r4, [r3, #24]
 684              	.LVL38:
ARM GAS  /var/folders/3j/4xdnk5197cv_b7cw3n33qk7r0000gn/T//ccECGIus.s 			page 13


 685              		.loc 1 367 0
 686 000c 0450A0E1 		mov	r5, r4
 687 0010 2830B5E5 		ldr	r3, [r5, #40]!
 688              		.loc 1 362 0
 689 0014 240084E5 		str	r0, [r4, #36]
 690              		.loc 1 367 0
 691 0018 030055E1 		cmp	r5, r3
 692 001c 0600000A 		beq	.L49
 693              	.LVL39:
 694              	.L50:
 695              	.LBB30:
 696              	.LBB31:
 697              		.file 2 "..//os/kernel/include/chinline.h"
 698              		.loc 2 82 0
 699 0020 002093E5 		ldr	r2, [r3]
 700              	.LBE31:
 701              	.LBE30:
 702              		.loc 1 368 0
 703 0024 0300A0E1 		mov	r0, r3
 704              	.LBB33:
 705              	.LBB32:
 706              		.loc 2 82 0
 707 0028 282084E5 		str	r2, [r4, #40]
 708              	.LVL40:
 709              	.LBE32:
 710              	.LBE33:
 711              		.loc 1 368 0
 712 002c FEFFFFEB 		bl	chSchReadyI
 713              	.LVL41:
 714              		.loc 1 367 0
 715 0030 283094E5 		ldr	r3, [r4, #40]
 716 0034 050053E1 		cmp	r3, r5
 717 0038 F8FFFF1A 		bne	.L50
 718              	.L49:
 719              		.loc 1 373 0
 720 003c 1D30D4E5 		ldrb	r3, [r4, #29]	@ zero_extendqisi2
 721 0040 030013E3 		tst	r3, #3
 722              		.loc 1 374 0
 723 0044 D021C401 		ldrdeq	r2, [r4, #16]
 724 0048 10208305 		streq	r2, [r3, #16]
 725 004c 10209405 		ldreq	r2, [r4, #16]
 726 0050 14308205 		streq	r3, [r2, #20]
 727              	.L51:
 728              		.loc 1 376 0
 729 0054 0E00A0E3 		mov	r0, #14
 730              		.loc 1 379 0
 731 0058 7040BDE8 		pop	{r4, r5, r6, lr}
 732              		.cfi_restore 14
 733              		.cfi_restore 6
 734              		.cfi_restore 5
 735              		.cfi_restore 4
 736              		.cfi_def_cfa_offset 0
 737              	.LVL42:
 738              		.loc 1 376 0
 739 005c FEFFFFEA 		b	chSchGoSleepS
 740              	.LVL43:
 741              	.L55:
ARM GAS  /var/folders/3j/4xdnk5197cv_b7cw3n33qk7r0000gn/T//ccECGIus.s 			page 14


 742              		.align	2
 743              	.L54:
 744 0060 00000000 		.word	rlist
 745              		.cfi_endproc
 746              	.LFE17:
 747              		.size	chThdExitS, .-chThdExitS
 748              		.section	.text.chThdExit,"ax",%progbits
 749              		.align	2
 750              		.global	chThdExit
 751              		.syntax unified
 752              		.arm
 753              		.fpu softvfp
 754              		.type	chThdExit, %function
 755              	chThdExit:
 756              	.LFB16:
 757              		.loc 1 338 0
 758              		.cfi_startproc
 759              		@ args = 0, pretend = 0, frame = 0
 760              		@ frame_needed = 0, uses_anonymous_args = 0
 761              		@ link register save eliminated.
 762              	.LVL44:
 763              		.loc 1 340 0
 764              		.syntax divided
 765              	@ 340 "..//os/kernel/src/chthreads.c" 1
 766 0000 9FF021E3 		msr     CPSR_c, #0x9F
 767              	@ 0 "" 2
 768              		.loc 1 341 0
 769              		.arm
 770              		.syntax unified
 771 0004 FEFFFFEA 		b	chThdExitS
 772              	.LVL45:
 773              		.cfi_endproc
 774              	.LFE16:
 775              		.size	chThdExit, .-chThdExit
 776              		.section	.text.chThdWait,"ax",%progbits
 777              		.align	2
 778              		.global	chThdWait
 779              		.syntax unified
 780              		.arm
 781              		.fpu softvfp
 782              		.type	chThdWait, %function
 783              	chThdWait:
 784              	.LFB18:
 785              		.loc 1 413 0
 786              		.cfi_startproc
 787              		@ args = 0, pretend = 0, frame = 0
 788              		@ frame_needed = 0, uses_anonymous_args = 0
 789              	.LVL46:
 790 0000 70402DE9 		push	{r4, r5, r6, lr}
 791              		.cfi_def_cfa_offset 16
 792              		.cfi_offset 4, -16
 793              		.cfi_offset 5, -12
 794              		.cfi_offset 6, -8
 795              		.cfi_offset 14, -4
 796              		.loc 1 413 0
 797 0004 0040A0E1 		mov	r4, r0
 798              		.loc 1 418 0
ARM GAS  /var/folders/3j/4xdnk5197cv_b7cw3n33qk7r0000gn/T//ccECGIus.s 			page 15


 799              		.syntax divided
 800              	@ 418 "..//os/kernel/src/chthreads.c" 1
 801 0008 9FF021E3 		msr     CPSR_c, #0x9F
 802              	@ 0 "" 2
 803              		.loc 1 423 0
 804              		.arm
 805              		.syntax unified
 806 000c 1C30D0E5 		ldrb	r3, [r0, #28]	@ zero_extendqisi2
 807 0010 0E0053E3 		cmp	r3, #14
 808 0014 0600000A 		beq	.L58
 809              		.loc 1 419 0
 810 0018 2C309FE5 		ldr	r3, .L63
 811              	.LBB34:
 812              	.LBB35:
 813              		.loc 2 75 0
 814 001c 282090E5 		ldr	r2, [r0, #40]
 815              	.LBE35:
 816              	.LBE34:
 817              		.loc 1 419 0
 818 0020 183093E5 		ldr	r3, [r3, #24]
 819              	.LVL47:
 820              		.loc 1 425 0
 821 0024 0700A0E3 		mov	r0, #7
 822              	.LVL48:
 823              	.LBB37:
 824              	.LBB36:
 825              		.loc 2 75 0
 826 0028 002083E5 		str	r2, [r3]
 827              		.loc 2 76 0
 828 002c 283084E5 		str	r3, [r4, #40]
 829              	.LVL49:
 830              	.LBE36:
 831              	.LBE37:
 832              		.loc 1 425 0
 833 0030 FEFFFFEB 		bl	chSchGoSleepS
 834              	.LVL50:
 835              	.L58:
 836              		.loc 1 427 0
 837 0034 245094E5 		ldr	r5, [r4, #36]
 838              	.LVL51:
 839              		.loc 1 428 0
 840              		.syntax divided
 841              	@ 428 "..//os/kernel/src/chthreads.c" 1
 842 0038 1FF021E3 		msr     CPSR_c, #0x1F
 843              	@ 0 "" 2
 844              		.loc 1 430 0
 845              		.arm
 846              		.syntax unified
 847 003c 0400A0E1 		mov	r0, r4
 848 0040 FEFFFFEB 		bl	chThdRelease
 849              	.LVL52:
 850              		.loc 1 433 0
 851 0044 0500A0E1 		mov	r0, r5
 852 0048 7080BDE8 		pop	{r4, r5, r6, pc}
 853              	.L64:
 854              		.align	2
 855              	.L63:
ARM GAS  /var/folders/3j/4xdnk5197cv_b7cw3n33qk7r0000gn/T//ccECGIus.s 			page 16


 856 004c 00000000 		.word	rlist
 857              		.cfi_endproc
 858              	.LFE18:
 859              		.size	chThdWait, .-chThdWait
 860              		.text
 861              	.Letext0:
 862              		.file 3 "/usr/local/Cellar/gcc-arm-none-eabi/20180627/lib/gcc/arm-none-eabi/7.3.1/include/stddef.h
 863              		.file 4 "/usr/local/Cellar/gcc-arm-none-eabi/20180627/arm-none-eabi/include/machine/_default_types
 864              		.file 5 "/usr/local/Cellar/gcc-arm-none-eabi/20180627/arm-none-eabi/include/sys/_stdint.h"
 865              		.file 6 "..//os/ports/GCC/ARM/chtypes.h"
 866              		.file 7 "..//os/kernel/include/chlists.h"
 867              		.file 8 "..//os/kernel/include/chthreads.h"
 868              		.file 9 "..//os/ports/GCC/ARM/chcore.h"
 869              		.file 10 "..//os/kernel/include/chvt.h"
 870              		.file 11 "..//os/kernel/include/chschd.h"
 871              		.file 12 "..//os/kernel/include/chmtx.h"
 872              		.file 13 "..//os/kernel/include/chregistry.h"
 873              		.file 14 "..//os/kernel/include/ch.h"
 874              		.file 15 "..//os/kernel/include/chdynamic.h"