ARM GAS  /var/folders/3j/4xdnk5197cv_b7cw3n33qk7r0000gn/T//ccECGIus.s 			page 1


   1              		.cpu arm1176jz-s
   2              		.eabi_attribute 20, 1
   3              		.eabi_attribute 21, 1
   4              		.eabi_attribute 23, 3
   5              		.eabi_attribute 24, 1
   6              		.eabi_attribute 25, 1
   7              		.eabi_attribute 26, 1
   8              		.eabi_attribute 30, 2
   9              		.eabi_attribute 34, 1
  10              		.eabi_attribute 18, 4
  11              		.file	"chthreads.c"
  12              		.text
  13              	.Ltext0:
  14              		.cfi_sections	.debug_frame
  15              		.section	.text._thread_init,"ax",%progbits
  16              		.align	2
  17              		.global	_thread_init
  18              		.syntax unified
  19              		.arm
  20              		.fpu softvfp
  21              		.type	_thread_init, %function
  22              	_thread_init:
  23              	.LFB7:
  24              		.file 1 "..//os/kernel/src/chthreads.c"
  25              		.loc 1 69 0
  26              		.cfi_startproc
  27              		@ args = 0, pretend = 0, frame = 0
  28              		@ frame_needed = 0, uses_anonymous_args = 0
  29              	.LVL0:
  30 0000 70402DE9 		push	{r4, r5, r6, lr}
  31              		.cfi_def_cfa_offset 16
  32              		.cfi_offset 4, -16
  33              		.cfi_offset 5, -12
  34              		.cfi_offset 6, -8
  35              		.cfi_offset 14, -4
  36              		.loc 1 79 0
  37 0004 0020A0E3 		mov	r2, #0
  38              		.loc 1 72 0
  39 0008 0260A0E3 		mov	r6, #2
  40              		.loc 1 75 0
  41 000c 1450A0E3 		mov	r5, #20
  42              		.loc 1 88 0
  43 0010 0140A0E3 		mov	r4, #1
  44              		.loc 1 92 0
  45 0014 4CC09FE5 		ldr	ip, .L4
  46              		.loc 1 71 0
  47 0018 081080E5 		str	r1, [r0, #8]
  48              		.loc 1 92 0
  49 001c 14E09CE5 		ldr	lr, [ip, #20]
  50              		.loc 1 78 0
  51 0020 401080E5 		str	r1, [r0, #64]
  52              		.loc 1 92 0
  53 0024 10C080E5 		str	ip, [r0, #16]
  54 0028 14E080E5 		str	lr, [r0, #20]
  55              		.loc 1 98 0
  56 002c 2C1080E2 		add	r1, r0, #44
  57              	.LVL1:
ARM GAS  /var/folders/3j/4xdnk5197cv_b7cw3n33qk7r0000gn/T//ccECGIus.s 			page 2


  58              		.loc 1 92 0
  59 0030 14008CE5 		str	r0, [ip, #20]
  60              		.loc 1 95 0
  61 0034 28C080E2 		add	ip, r0, #40
  62              		.loc 1 72 0
  63 0038 BC61C0E1 		strh	r6, [r0, #28]	@ movhi
  64              		.loc 1 75 0
  65 003c 1F50C0E5 		strb	r5, [r0, #31]
  66              		.loc 1 88 0
  67 0040 1E40C0E5 		strb	r4, [r0, #30]
  68              		.loc 1 79 0
  69 0044 3C2080E5 		str	r2, [r0, #60]
  70              		.loc 1 82 0
  71 0048 382080E5 		str	r2, [r0, #56]
  72              		.loc 1 85 0
  73 004c 202080E5 		str	r2, [r0, #32]
  74              		.loc 1 91 0
  75 0050 182080E5 		str	r2, [r0, #24]
  76              		.loc 1 92 0
  77 0054 10008EE5 		str	r0, [lr, #16]
  78              		.loc 1 95 0
  79 0058 28C080E5 		str	ip, [r0, #40]
  80              		.loc 1 98 0
  81 005c 301080E5 		str	r1, [r0, #48]
  82 0060 2C1080E5 		str	r1, [r0, #44]
  83              		.loc 1 107 0
  84 0064 7080BDE8 		pop	{r4, r5, r6, pc}
  85              	.L5:
  86              		.align	2
  87              	.L4:
  88 0068 00000000 		.word	rlist
  89              		.cfi_endproc
  90              	.LFE7:
  91              		.size	_thread_init, .-_thread_init
  92              		.section	.text.chThdCreateI,"ax",%progbits
  93              		.align	2
  94              		.global	chThdCreateI
  95              		.syntax unified
  96              		.arm
  97              		.fpu softvfp
  98              		.type	chThdCreateI, %function
  99              	chThdCreateI:
 100              	.LFB8:
 101              		.loc 1 151 0
 102              		.cfi_startproc
 103              		@ args = 4, pretend = 0, frame = 0
 104              		@ frame_needed = 0, uses_anonymous_args = 0
 105              	.LVL2:
 106 0000 F0402DE9 		push	{r4, r5, r6, r7, lr}
 107              		.cfi_def_cfa_offset 20
 108              		.cfi_offset 4, -20
 109              		.cfi_offset 5, -16
 110              		.cfi_offset 6, -12
 111              		.cfi_offset 7, -8
 112              		.cfi_offset 14, -4
 113              	.LBB12:
 114              	.LBB13:
ARM GAS  /var/folders/3j/4xdnk5197cv_b7cw3n33qk7r0000gn/T//ccECGIus.s 			page 3


 115              		.loc 1 79 0
 116 0004 00E0A0E3 		mov	lr, #0
 117              		.loc 1 72 0
 118 0008 0270A0E3 		mov	r7, #2
 119              		.loc 1 75 0
 120 000c 1460A0E3 		mov	r6, #20
 121              		.loc 1 88 0
 122 0010 0150A0E3 		mov	r5, #1
 123              	.LBE13:
 124              	.LBE12:
 125              		.loc 1 160 0
 126 0014 241041E2 		sub	r1, r1, #36
 127              	.LVL3:
 128 0018 014080E0 		add	r4, r0, r1
 129 001c 0C4080E5 		str	r4, [r0, #12]
 130 0020 013080E7 		str	r3, [r0, r1]
 131              		.loc 1 151 0
 132 0024 14109DE5 		ldr	r1, [sp, #20]
 133              	.LVL4:
 134              	.LBB16:
 135              	.LBB14:
 136              		.loc 1 92 0
 137 0028 58309FE5 		ldr	r3, .L8
 138              	.LVL5:
 139              	.LBE14:
 140              	.LBE16:
 141              		.loc 1 160 0
 142 002c 041084E5 		str	r1, [r4, #4]
 143 0030 54109FE5 		ldr	r1, .L8+4
 144 0034 201084E5 		str	r1, [r4, #32]
 145              	.LVL6:
 146              	.LBB17:
 147              	.LBB15:
 148              		.loc 1 92 0
 149 0038 141093E5 		ldr	r1, [r3, #20]
 150              		.loc 1 71 0
 151 003c 082080E5 		str	r2, [r0, #8]
 152              		.loc 1 78 0
 153 0040 402080E5 		str	r2, [r0, #64]
 154              		.loc 1 95 0
 155 0044 284080E2 		add	r4, r0, #40
 156              	.LVL7:
 157              		.loc 1 98 0
 158 0048 2C2080E2 		add	r2, r0, #44
 159              	.LVL8:
 160              		.loc 1 92 0
 161 004c 103080E5 		str	r3, [r0, #16]
 162 0050 141080E5 		str	r1, [r0, #20]
 163              		.loc 1 72 0
 164 0054 BC71C0E1 		strh	r7, [r0, #28]	@ movhi
 165              	.LVL9:
 166              		.loc 1 75 0
 167 0058 1F60C0E5 		strb	r6, [r0, #31]
 168              		.loc 1 88 0
 169 005c 1E50C0E5 		strb	r5, [r0, #30]
 170              		.loc 1 79 0
 171 0060 3CE080E5 		str	lr, [r0, #60]
ARM GAS  /var/folders/3j/4xdnk5197cv_b7cw3n33qk7r0000gn/T//ccECGIus.s 			page 4


 172              		.loc 1 92 0
 173 0064 140083E5 		str	r0, [r3, #20]
 174              		.loc 1 82 0
 175 0068 38E080E5 		str	lr, [r0, #56]
 176              		.loc 1 85 0
 177 006c 20E080E5 		str	lr, [r0, #32]
 178              		.loc 1 91 0
 179 0070 18E080E5 		str	lr, [r0, #24]
 180              		.loc 1 92 0
 181 0074 100081E5 		str	r0, [r1, #16]
 182              		.loc 1 95 0
 183 0078 284080E5 		str	r4, [r0, #40]
 184              		.loc 1 98 0
 185 007c 302080E5 		str	r2, [r0, #48]
 186 0080 2C2080E5 		str	r2, [r0, #44]
 187              	.LVL10:
 188              	.LBE15:
 189              	.LBE17:
 190              		.loc 1 162 0
 191 0084 F080BDE8 		pop	{r4, r5, r6, r7, pc}
 192              	.L9:
 193              		.align	2
 194              	.L8:
 195 0088 00000000 		.word	rlist
 196 008c 00000000 		.word	_port_thread_start
 197              		.cfi_endproc
 198              	.LFE8:
 199              		.size	chThdCreateI, .-chThdCreateI
 200              		.section	.text.chThdCreateStatic,"ax",%progbits
 201              		.align	2
 202              		.global	chThdCreateStatic
 203              		.syntax unified
 204              		.arm
 205              		.fpu softvfp
 206              		.type	chThdCreateStatic, %function
 207              	chThdCreateStatic:
 208              	.LFB9:
 209              		.loc 1 181 0
 210              		.cfi_startproc
 211              		@ args = 4, pretend = 0, frame = 0
 212              		@ frame_needed = 0, uses_anonymous_args = 0
 213              	.LVL11:
 214 0000 F0412DE9 		push	{r4, r5, r6, r7, r8, lr}
 215              		.cfi_def_cfa_offset 24
 216              		.cfi_offset 4, -24
 217              		.cfi_offset 5, -20
 218              		.cfi_offset 6, -16
 219              		.cfi_offset 7, -12
 220              		.cfi_offset 8, -8
 221              		.cfi_offset 14, -4
 222              		.loc 1 181 0
 223 0004 18809DE5 		ldr	r8, [sp, #24]
 224 0008 0040A0E1 		mov	r4, r0
 225              		.loc 1 192 0
 226              		.syntax divided
 227              	@ 192 "..//os/kernel/src/chthreads.c" 1
 228 000c 9FF021E3 		msr     CPSR_c, #0x9F
ARM GAS  /var/folders/3j/4xdnk5197cv_b7cw3n33qk7r0000gn/T//ccECGIus.s 			page 5


 229              	@ 0 "" 2
 230              	.LVL12:
 231              		.arm
 232              		.syntax unified
 233              	.LBB18:
 234              	.LBB19:
 235              	.LBB20:
 236              	.LBB21:
 237              		.loc 1 72 0
 238 0010 0250A0E3 		mov	r5, #2
 239              		.loc 1 79 0
 240 0014 00C0A0E3 		mov	ip, #0
 241              		.loc 1 75 0
 242 0018 1470A0E3 		mov	r7, #20
 243              		.loc 1 88 0
 244 001c 0160A0E3 		mov	r6, #1
 245              	.LBE21:
 246              	.LBE20:
 247              		.loc 1 160 0
 248 0020 241041E2 		sub	r1, r1, #36
 249              	.LVL13:
 250 0024 01E080E0 		add	lr, r0, r1
 251 0028 0CE080E5 		str	lr, [r0, #12]
 252 002c 013080E7 		str	r3, [r0, r1]
 253              	.LBB25:
 254              	.LBB22:
 255              		.loc 1 92 0
 256 0030 68309FE5 		ldr	r3, .L12
 257              	.LVL14:
 258              	.LBE22:
 259              	.LBE25:
 260              		.loc 1 160 0
 261 0034 68109FE5 		ldr	r1, .L12+4
 262              	.LVL15:
 263 0038 04808EE5 		str	r8, [lr, #4]
 264 003c 20108EE5 		str	r1, [lr, #32]
 265              	.LVL16:
 266              	.LBB26:
 267              	.LBB23:
 268              		.loc 1 92 0
 269 0040 14E093E5 		ldr	lr, [r3, #20]
 270              	.LVL17:
 271              		.loc 1 71 0
 272 0044 082080E5 		str	r2, [r0, #8]
 273              		.loc 1 78 0
 274 0048 402080E5 		str	r2, [r0, #64]
 275              		.loc 1 72 0
 276 004c BC51C0E1 		strh	r5, [r0, #28]	@ movhi
 277              	.LVL18:
 278              		.loc 1 98 0
 279 0050 2C2080E2 		add	r2, r0, #44
 280              	.LVL19:
 281              		.loc 1 95 0
 282 0054 285080E2 		add	r5, r0, #40
 283              		.loc 1 92 0
 284 0058 103080E5 		str	r3, [r0, #16]
 285 005c 14E080E5 		str	lr, [r0, #20]
ARM GAS  /var/folders/3j/4xdnk5197cv_b7cw3n33qk7r0000gn/T//ccECGIus.s 			page 6


 286              		.loc 1 75 0
 287 0060 1F70C0E5 		strb	r7, [r0, #31]
 288              		.loc 1 88 0
 289 0064 1E60C0E5 		strb	r6, [r0, #30]
 290              		.loc 1 79 0
 291 0068 3CC080E5 		str	ip, [r0, #60]
 292              		.loc 1 92 0
 293 006c 140083E5 		str	r0, [r3, #20]
 294              		.loc 1 82 0
 295 0070 38C080E5 		str	ip, [r0, #56]
 296              		.loc 1 85 0
 297 0074 20C080E5 		str	ip, [r0, #32]
 298              		.loc 1 91 0
 299 0078 18C080E5 		str	ip, [r0, #24]
 300              	.LBE23:
 301              	.LBE26:
 302              	.LBE19:
 303              	.LBE18:
 304              		.loc 1 193 0
 305 007c 0C10A0E1 		mov	r1, ip
 306              	.LBB29:
 307              	.LBB28:
 308              	.LBB27:
 309              	.LBB24:
 310              		.loc 1 92 0
 311 0080 10008EE5 		str	r0, [lr, #16]
 312              		.loc 1 95 0
 313 0084 285080E5 		str	r5, [r0, #40]
 314              		.loc 1 98 0
 315 0088 302080E5 		str	r2, [r0, #48]
 316 008c 2C2080E5 		str	r2, [r0, #44]
 317              	.LVL20:
 318              	.LBE24:
 319              	.LBE27:
 320              	.LBE28:
 321              	.LBE29:
 322              		.loc 1 193 0
 323 0090 FEFFFFEB 		bl	chSchWakeupS
 324              	.LVL21:
 325              		.loc 1 194 0
 326              		.syntax divided
 327              	@ 194 "..//os/kernel/src/chthreads.c" 1
 328 0094 1FF021E3 		msr     CPSR_c, #0x1F
 329              	@ 0 "" 2
 330              		.loc 1 196 0
 331              		.arm
 332              		.syntax unified
 333 0098 0400A0E1 		mov	r0, r4
 334 009c F081BDE8 		pop	{r4, r5, r6, r7, r8, pc}
 335              	.L13:
 336              		.align	2
 337              	.L12:
 338 00a0 00000000 		.word	rlist
 339 00a4 00000000 		.word	_port_thread_start
 340              		.cfi_endproc
 341              	.LFE9:
 342              		.size	chThdCreateStatic, .-chThdCreateStatic
ARM GAS  /var/folders/3j/4xdnk5197cv_b7cw3n33qk7r0000gn/T//ccECGIus.s 			page 7


 343              		.section	.text.chThdSetPriority,"ax",%progbits
 344              		.align	2
 345              		.global	chThdSetPriority
 346              		.syntax unified
 347              		.arm
 348              		.fpu softvfp
 349              		.type	chThdSetPriority, %function
 350              	chThdSetPriority:
 351              	.LFB10:
 352              		.loc 1 210 0
 353              		.cfi_startproc
 354              		@ args = 0, pretend = 0, frame = 0
 355              		@ frame_needed = 0, uses_anonymous_args = 0
 356              	.LVL22:
 357 0000 10402DE9 		push	{r4, lr}
 358              		.cfi_def_cfa_offset 8
 359              		.cfi_offset 4, -8
 360              		.cfi_offset 14, -4
 361              		.loc 1 210 0
 362 0004 0010A0E1 		mov	r1, r0
 363              		.loc 1 215 0
 364              		.syntax divided
 365              	@ 215 "..//os/kernel/src/chthreads.c" 1
 366 0008 9FF021E3 		msr     CPSR_c, #0x9F
 367              	@ 0 "" 2
 368              		.loc 1 217 0
 369              		.arm
 370              		.syntax unified
 371 000c 38309FE5 		ldr	r3, .L20
 372 0010 183093E5 		ldr	r3, [r3, #24]
 373              		.loc 1 218 0
 374 0014 080093E5 		ldr	r0, [r3, #8]
 375              	.LVL23:
 376              		.loc 1 217 0
 377 0018 404093E5 		ldr	r4, [r3, #64]
 378              	.LVL24:
 379              		.loc 1 220 0
 380 001c 401083E5 		str	r1, [r3, #64]
 381              		.loc 1 218 0
 382 0020 042040E0 		sub	r2, r0, r4
 383 0024 122F6FE1 		clz	r2, r2
 384 0028 A222A0E1 		lsr	r2, r2, #5
 385 002c 010050E1 		cmp	r0, r1
 386 0030 01208233 		orrcc	r2, r2, #1
 387 0034 000052E3 		cmp	r2, #0
 388              		.loc 1 219 0
 389 0038 08108315 		strne	r1, [r3, #8]
 390              		.loc 1 225 0
 391 003c FEFFFFEB 		bl	chSchRescheduleS
 392              	.LVL25:
 393              		.loc 1 226 0
 394              		.syntax divided
 395              	@ 226 "..//os/kernel/src/chthreads.c" 1
 396 0040 1FF021E3 		msr     CPSR_c, #0x1F
 397              	@ 0 "" 2
 398              		.loc 1 228 0
 399              		.arm
ARM GAS  /var/folders/3j/4xdnk5197cv_b7cw3n33qk7r0000gn/T//ccECGIus.s 			page 8


 400              		.syntax unified
 401 0044 0400A0E1 		mov	r0, r4
 402 0048 1080BDE8 		pop	{r4, pc}
 403              	.L21:
 404              		.align	2
 405              	.L20:
 406 004c 00000000 		.word	rlist
 407              		.cfi_endproc
 408              	.LFE10:
 409              		.size	chThdSetPriority, .-chThdSetPriority
 410              		.section	.text.chThdResume,"ax",%progbits
 411              		.align	2
 412              		.global	chThdResume
 413              		.syntax unified
 414              		.arm
 415              		.fpu softvfp
 416              		.type	chThdResume, %function
 417              	chThdResume:
 418              	.LFB11:
 419              		.loc 1 243 0
 420              		.cfi_startproc
 421              		@ args = 0, pretend = 0, frame = 0
 422              		@ frame_needed = 0, uses_anonymous_args = 0
 423              	.LVL26:
 424 0000 10402DE9 		push	{r4, lr}
 425              		.cfi_def_cfa_offset 8
 426              		.cfi_offset 4, -8
 427              		.cfi_offset 14, -4
 428              		.loc 1 243 0
 429 0004 0040A0E1 		mov	r4, r0
 430              		.loc 1 245 0
 431              		.syntax divided
 432              	@ 245 "..//os/kernel/src/chthreads.c" 1
 433 0008 9FF021E3 		msr     CPSR_c, #0x9F
 434              	@ 0 "" 2
 435              		.loc 1 249 0
 436              		.arm
 437              		.syntax unified
 438 000c 0010A0E3 		mov	r1, #0
 439 0010 FEFFFFEB 		bl	chSchWakeupS
 440              	.LVL27:
 441              		.loc 1 250 0
 442              		.syntax divided
 443              	@ 250 "..//os/kernel/src/chthreads.c" 1
 444 0014 1FF021E3 		msr     CPSR_c, #0x1F
 445              	@ 0 "" 2
 446              		.loc 1 252 0
 447              		.arm
 448              		.syntax unified
 449 0018 0400A0E1 		mov	r0, r4
 450 001c 1080BDE8 		pop	{r4, pc}
 451              		.cfi_endproc
 452              	.LFE11:
 453              		.size	chThdResume, .-chThdResume
 454              		.section	.text.chThdTerminate,"ax",%progbits
 455              		.align	2
 456              		.global	chThdTerminate
ARM GAS  /var/folders/3j/4xdnk5197cv_b7cw3n33qk7r0000gn/T//ccECGIus.s 			page 9


 457              		.syntax unified
 458              		.arm
 459              		.fpu softvfp
 460              		.type	chThdTerminate, %function
 461              	chThdTerminate:
 462              	.LFB12:
 463              		.loc 1 266 0
 464              		.cfi_startproc
 465              		@ args = 0, pretend = 0, frame = 0
 466              		@ frame_needed = 0, uses_anonymous_args = 0
 467              		@ link register save eliminated.
 468              	.LVL28:
 469              		.loc 1 268 0
 470              		.syntax divided
 471              	@ 268 "..//os/kernel/src/chthreads.c" 1
 472 0000 9FF021E3 		msr     CPSR_c, #0x9F
 473              	@ 0 "" 2
 474              		.loc 1 269 0
 475              		.arm
 476              		.syntax unified
 477 0004 1D30D0E5 		ldrb	r3, [r0, #29]	@ zero_extendqisi2
 478 0008 043083E3 		orr	r3, r3, #4
 479 000c 1D30C0E5 		strb	r3, [r0, #29]
 480              		.loc 1 270 0
 481              		.syntax divided
 482              	@ 270 "..//os/kernel/src/chthreads.c" 1
 483 0010 1FF021E3 		msr     CPSR_c, #0x1F
 484              	@ 0 "" 2
 485              		.loc 1 271 0
 486              		.arm
 487              		.syntax unified
 488 0014 1EFF2FE1 		bx	lr
 489              		.cfi_endproc
 490              	.LFE12:
 491              		.size	chThdTerminate, .-chThdTerminate
 492              		.section	.text.chThdSleep,"ax",%progbits
 493              		.align	2
 494              		.global	chThdSleep
 495              		.syntax unified
 496              		.arm
 497              		.fpu softvfp
 498              		.type	chThdSleep, %function
 499              	chThdSleep:
 500              	.LFB13:
 501              		.loc 1 285 0
 502              		.cfi_startproc
 503              		@ args = 0, pretend = 0, frame = 0
 504              		@ frame_needed = 0, uses_anonymous_args = 0
 505              	.LVL29:
 506 0000 10402DE9 		push	{r4, lr}
 507              		.cfi_def_cfa_offset 8
 508              		.cfi_offset 4, -8
 509              		.cfi_offset 14, -4
 510              		.loc 1 285 0
 511 0004 0010A0E1 		mov	r1, r0
 512              		.loc 1 289 0
 513              		.syntax divided
ARM GAS  /var/folders/3j/4xdnk5197cv_b7cw3n33qk7r0000gn/T//ccECGIus.s 			page 10


 514              	@ 289 "..//os/kernel/src/chthreads.c" 1
 515 0008 9FF021E3 		msr     CPSR_c, #0x9F
 516              	@ 0 "" 2
 517              		.loc 1 290 0
 518              		.arm
 519              		.syntax unified
 520 000c 0600A0E3 		mov	r0, #6
 521              	.LVL30:
 522 0010 FEFFFFEB 		bl	chSchGoSleepTimeoutS
 523              	.LVL31:
 524              		.loc 1 291 0
 525              		.syntax divided
 526              	@ 291 "..//os/kernel/src/chthreads.c" 1
 527 0014 1FF021E3 		msr     CPSR_c, #0x1F
 528              	@ 0 "" 2
 529              		.loc 1 292 0
 530              		.arm
 531              		.syntax unified
 532 0018 1080BDE8 		pop	{r4, pc}
 533              		.cfi_endproc
 534              	.LFE13:
 535              		.size	chThdSleep, .-chThdSleep
 536              		.section	.text.chThdSleepUntil,"ax",%progbits
 537              		.align	2
 538              		.global	chThdSleepUntil
 539              		.syntax unified
 540              		.arm
 541              		.fpu softvfp
 542              		.type	chThdSleepUntil, %function
 543              	chThdSleepUntil:
 544              	.LFB14:
 545              		.loc 1 302 0
 546              		.cfi_startproc
 547              		@ args = 0, pretend = 0, frame = 0
 548              		@ frame_needed = 0, uses_anonymous_args = 0
 549              	.LVL32:
 550              		.loc 1 304 0
 551              		.syntax divided
 552              	@ 304 "..//os/kernel/src/chthreads.c" 1
 553 0000 9FF021E3 		msr     CPSR_c, #0x9F
 554              	@ 0 "" 2
 555              		.loc 1 305 0
 556              		.arm
 557              		.syntax unified
 558 0004 24309FE5 		ldr	r3, .L37
 559 0008 0C1093E5 		ldr	r1, [r3, #12]
 560              	.LVL33:
 561 000c 011050E0 		subs	r1, r0, r1
 562              	.LVL34:
 563 0010 0100001A 		bne	.L36
 564              		.loc 1 307 0
 565              		.syntax divided
 566              	@ 307 "..//os/kernel/src/chthreads.c" 1
 567 0014 1FF021E3 		msr     CPSR_c, #0x1F
 568              	@ 0 "" 2
 569              		.arm
 570              		.syntax unified
ARM GAS  /var/folders/3j/4xdnk5197cv_b7cw3n33qk7r0000gn/T//ccECGIus.s 			page 11


 571 0018 1EFF2FE1 		bx	lr
 572              	.L36:
 573              		.loc 1 302 0
 574 001c 10402DE9 		push	{r4, lr}
 575              		.cfi_def_cfa_offset 8
 576              		.cfi_offset 4, -8
 577              		.cfi_offset 14, -4
 578              		.loc 1 306 0
 579 0020 0600A0E3 		mov	r0, #6
 580 0024 FEFFFFEB 		bl	chSchGoSleepTimeoutS
 581              	.LVL35:
 582              		.loc 1 307 0
 583              		.syntax divided
 584              	@ 307 "..//os/kernel/src/chthreads.c" 1
 585 0028 1FF021E3 		msr     CPSR_c, #0x1F
 586              	@ 0 "" 2
 587              		.loc 1 308 0
 588              		.arm
 589              		.syntax unified
 590 002c 1080BDE8 		pop	{r4, pc}
 591              	.L38:
 592              		.align	2
 593              	.L37:
 594 0030 00000000 		.word	vtlist
 595              		.cfi_endproc
 596              	.LFE14:
 597              		.size	chThdSleepUntil, .-chThdSleepUntil
 598              		.section	.text.chThdYield,"ax",%progbits
 599              		.align	2
 600              		.global	chThdYield
 601              		.syntax unified
 602              		.arm
 603              		.fpu softvfp
 604              		.type	chThdYield, %function
 605              	chThdYield:
 606              	.LFB15:
 607              		.loc 1 317 0
 608              		.cfi_startproc
 609              		@ args = 0, pretend = 0, frame = 0
 610              		@ frame_needed = 0, uses_anonymous_args = 0
 611              		.loc 1 319 0
 612              		.syntax divided
 613              	@ 319 "..//os/kernel/src/chthreads.c" 1
 614 0000 9FF021E3 		msr     CPSR_c, #0x9F
 615              	@ 0 "" 2
 616              		.loc 1 320 0
 617              		.arm
 618              		.syntax unified
 619 0004 2C309FE5 		ldr	r3, .L46
 620 0008 002093E5 		ldr	r2, [r3]
 621 000c 183093E5 		ldr	r3, [r3, #24]
 622 0010 082092E5 		ldr	r2, [r2, #8]
 623 0014 083093E5 		ldr	r3, [r3, #8]
 624 0018 030052E1 		cmp	r2, r3
 625 001c 0100002A 		bcs	.L45
 626              		.loc 1 321 0
 627              		.syntax divided
ARM GAS  /var/folders/3j/4xdnk5197cv_b7cw3n33qk7r0000gn/T//ccECGIus.s 			page 12


 628              	@ 321 "..//os/kernel/src/chthreads.c" 1
 629 0020 1FF021E3 		msr     CPSR_c, #0x1F
 630              	@ 0 "" 2
 631              		.arm
 632              		.syntax unified
 633 0024 1EFF2FE1 		bx	lr
 634              	.L45:
 635              		.loc 1 317 0 discriminator 1
 636 0028 10402DE9 		push	{r4, lr}
 637              		.cfi_def_cfa_offset 8
 638              		.cfi_offset 4, -8
 639              		.cfi_offset 14, -4
 640              		.loc 1 320 0 discriminator 1
 641 002c FEFFFFEB 		bl	chSchDoRescheduleBehind
 642              	.LVL36:
 643              		.loc 1 321 0 discriminator 1
 644              		.syntax divided
 645              	@ 321 "..//os/kernel/src/chthreads.c" 1
 646 0030 1FF021E3 		msr     CPSR_c, #0x1F
 647              	@ 0 "" 2
 648              		.loc 1 322 0 discriminator 1
 649              		.arm
 650              		.syntax unified
 651 0034 1080BDE8 		pop	{r4, pc}
 652              	.L47:
 653              		.align	2
 654              	.L46:
 655 0038 00000000 		.word	rlist
 656              		.cfi_endproc
 657              	.LFE15:
 658              		.size	chThdYield, .-chThdYield
 659              		.section	.text.chThdExitS,"ax",%progbits
 660              		.align	2
 661              		.global	chThdExitS
 662              		.syntax unified
 663              		.arm
 664              		.fpu softvfp
 665              		.type	chThdExitS, %function
 666              	chThdExitS:
 667              	.LFB17:
 668              		.loc 1 359 0
 669              		.cfi_startproc
 670              		@ args = 0, pretend = 0, frame = 0
 671              		@ frame_needed = 0, uses_anonymous_args = 0
 672              	.LVL37:
 673              		.loc 1 360 0
 674 0000 58309FE5 		ldr	r3, .L54
 675              		.loc 1 359 0
 676 0004 70402DE9 		push	{r4, r5, r6, lr}
 677              		.cfi_def_cfa_offset 16
 678              		.cfi_offset 4, -16
 679              		.cfi_offset 5, -12
 680              		.cfi_offset 6, -8
 681              		.cfi_offset 14, -4
 682              		.loc 1 360 0
 683 0008 184093E5 		ldr	r4, [r3, #24]
 684              	.LVL38:
ARM GAS  /var/folders/3j/4xdnk5197cv_b7cw3n33qk7r0000gn/T//ccECGIus.s 			page 13


 685              		.loc 1 367 0
 686 000c 0450A0E1 		mov	r5, r4
 687 0010 2830B5E5 		ldr	r3, [r5, #40]!
 688              		.loc 1 362 0
 689 0014 240084E5 		str	r0, [r4, #36]
 690              		.loc 1 367 0
 691 0018 030055E1 		cmp	r5, r3
 692 001c 0600000A 		beq	.L49
 693              	.LVL39:
 694              	.L50:
 695              	.LBB30:
 696              	.LBB31:
 697              		.file 2 "..//os/kernel/include/chinline.h"
 698              		.loc 2 82 0
 699 0020 002093E5 		ldr	r2, [r3]
 700              	.LBE31:
 701              	.LBE30:
 702              		.loc 1 368 0
 703 0024 0300A0E1 		mov	r0, r3
 704              	.LBB33:
 705              	.LBB32:
 706              		.loc 2 82 0
 707 0028 282084E5 		str	r2, [r4, #40]
 708              	.LVL40:
 709              	.LBE32:
 710              	.LBE33:
 711              		.loc 1 368 0
 712 002c FEFFFFEB 		bl	chSchReadyI
 713              	.LVL41:
 714              		.loc 1 367 0
 715 0030 283094E5 		ldr	r3, [r4, #40]
 716 0034 050053E1 		cmp	r3, r5
 717 0038 F8FFFF1A 		bne	.L50
 718              	.L49:
 719              		.loc 1 373 0
 720 003c 1D30D4E5 		ldrb	r3, [r4, #29]	@ zero_extendqisi2
 721 0040 030013E3 		tst	r3, #3
 722              		.loc 1 374 0
 723 0044 D021C401 		ldrdeq	r2, [r4, #16]
 724 0048 10208305 		streq	r2, [r3, #16]
 725 004c 10209405 		ldreq	r2, [r4, #16]
 726 0050 14308205 		streq	r3, [r2, #20]
 727              	.L51:
 728              		.loc 1 376 0
 729 0054 0E00A0E3 		mov	r0, #14
 730              		.loc 1 379 0
 731 0058 7040BDE8 		pop	{r4, r5, r6, lr}
 732              		.cfi_restore 14
 733              		.cfi_restore 6
 734              		.cfi_restore 5
 735              		.cfi_restore 4
 736              		.cfi_def_cfa_offset 0
 737              	.LVL42:
 738              		.loc 1 376 0
 739 005c FEFFFFEA 		b	chSchGoSleepS
 740              	.LVL43:
 741              	.L55:
ARM GAS  /var/folders/3j/4xdnk5197cv_b7cw3n33qk7r0000gn/T//ccECGIus.s 			page 14


 742              		.align	2
 743              	.L54:
 744 0060 00000000 		.word	rlist
 745              		.cfi_endproc
 746              	.LFE17:
 747              		.size	chThdExitS, .-chThdExitS
 748              		.section	.text.chThdExit,"ax",%progbits
 749              		.align	2
 750              		.global	chThdExit
 751              		.syntax unified
 752              		.arm
 753              		.fpu softvfp
 754              		.type	chThdExit, %function
 755              	chThdExit:
 756              	.LFB16:
 757              		.loc 1 338 0
 758              		.cfi_startproc
 759              		@ args = 0, pretend = 0, frame = 0
 760              		@ frame_needed = 0, uses_anonymous_args = 0
 761              		@ link register save eliminated.
 762              	.LVL44:
 763              		.loc 1 340 0
 764              		.syntax divided
 765              	@ 340 "..//os/kernel/src/chthreads.c" 1
 766 0000 9FF021E3 		msr     CPSR_c, #0x9F
 767              	@ 0 "" 2
 768              		.loc 1 341 0
 769              		.arm
 770              		.syntax unified
 771 0004 FEFFFFEA 		b	chThdExitS
 772              	.LVL45:
 773              		.cfi_endproc
 774              	.LFE16:
 775              		.size	chThdExit, .-chThdExit
 776              		.section	.text.chThdWait,"ax",%progbits
 777              		.align	2
 778              		.global	chThdWait
 779              		.syntax unified
 780              		.arm
 781              		.fpu softvfp
 782              		.type	chThdWait, %function
 783              	chThdWait:
 784              	.LFB18:
 785              		.loc 1 413 0
 786              		.cfi_startproc
 787              		@ args = 0, pretend = 0, frame = 0
 788              		@ frame_needed = 0, uses_anonymous_args = 0
 789              	.LVL46:
 790 0000 70402DE9 		push	{r4, r5, r6, lr}
 791              		.cfi_def_cfa_offset 16
 792              		.cfi_offset 4, -16
 793              		.cfi_offset 5, -12
 794              		.cfi_offset 6, -8
 795              		.cfi_offset 14, -4
 796              		.loc 1 413 0
 797 0004 0040A0E1 		mov	r4, r0
 798              		.loc 1 418 0
ARM GAS  /var/folders/3j/4xdnk5197cv_b7cw3n33qk7r0000gn/T//ccECGIus.s 			page 15


 799              		.syntax divided
 800              	@ 418 "..//os/kernel/src/chthreads.c" 1
 801 0008 9FF021E3 		msr     CPSR_c, #0x9F
 802              	@ 0 "" 2
 803              		.loc 1 423 0
 804              		.arm
 805              		.syntax unified
 806 000c 1C30D0E5 		ldrb	r3, [r0, #28]	@ zero_extendqisi2
 807 0010 0E0053E3 		cmp	r3, #14
 808 0014 0600000A 		beq	.L58
 809              		.loc 1 419 0
 810 0018 2C309FE5 		ldr	r3, .L63
 811              	.LBB34:
 812              	.LBB35:
 813              		.loc 2 75 0
 814 001c 282090E5 		ldr	r2, [r0, #40]
 815              	.LBE35:
 816              	.LBE34:
 817              		.loc 1 419 0
 818 0020 183093E5 		ldr	r3, [r3, #24]
 819              	.LVL47:
 820              		.loc 1 425 0
 821 0024 0700A0E3 		mov	r0, #7
 822              	.LVL48:
 823              	.LBB37:
 824              	.LBB36:
 825              		.loc 2 75 0
 826 0028 002083E5 		str	r2, [r3]
 827              		.loc 2 76 0
 828 002c 283084E5 		str	r3, [r4, #40]
 829              	.LVL49:
 830              	.LBE36:
 831              	.LBE37:
 832              		.loc 1 425 0
 833 0030 FEFFFFEB 		bl	chSchGoSleepS
 834              	.LVL50:
 835              	.L58:
 836              		.loc 1 427 0
 837 0034 245094E5 		ldr	r5, [r4, #36]
 838              	.LVL51:
 839              		.loc 1 428 0
 840              		.syntax divided
 841              	@ 428 "..//os/kernel/src/chthreads.c" 1
 842 0038 1FF021E3 		msr     CPSR_c, #0x1F
 843              	@ 0 "" 2
 844              		.loc 1 430 0
 845              		.arm
 846              		.syntax unified
 847 003c 0400A0E1 		mov	r0, r4
 848 0040 FEFFFFEB 		bl	chThdRelease
 849              	.LVL52:
 850              		.loc 1 433 0
 851 0044 0500A0E1 		mov	r0, r5
 852 0048 7080BDE8 		pop	{r4, r5, r6, pc}
 853              	.L64:
 854              		.align	2
 855              	.L63:
ARM GAS  /var/folders/3j/4xdnk5197cv_b7cw3n33qk7r0000gn/T//ccECGIus.s 			page 16


 856 004c 00000000 		.word	rlist
 857              		.cfi_endproc
 858              	.LFE18:
 859              		.size	chThdWait, .-chThdWait
 860              		.text
 861              	.Letext0:
 862              		.file 3 "/usr/local/Cellar/gcc-arm-none-eabi/20180627/lib/gcc/arm-none-eabi/7.3.1/include/stddef.h
 863              		.file 4 "/usr/local/Cellar/gcc-arm-none-eabi/20180627/arm-none-eabi/include/machine/_default_types
 864              		.file 5 "/usr/local/Cellar/gcc-arm-none-eabi/20180627/arm-none-eabi/include/sys/_stdint.h"
 865              		.file 6 "..//os/ports/GCC/ARM/chtypes.h"
 866              		.file 7 "..//os/kernel/include/chlists.h"
 867              		.file 8 "..//os/kernel/include/chthreads.h"
 868              		.file 9 "..//os/ports/GCC/ARM/chcore.h"
 869              		.file 10 "..//os/kernel/include/chvt.h"
 870              		.file 11 "..//os/kernel/include/chschd.h"
 871              		.file 12 "..//os/kernel/include/chmtx.h"
 872              		.file 13 "..//os/kernel/include/chregistry.h"
 873              		.file 14 "..//os/kernel/include/ch.h"
 874              		.file 15 "..//os/kernel/include/chdynamic.h"
 875              		.section	.debug_info,"",%progbits
 876              	.Ldebug_info0:
 877 0000 120B0000 		.4byte	0xb12
 878 0004 0400     		.2byte	0x4
 879 0006 00000000 		.4byte	.Ldebug_abbrev0
 880 000a 04       		.byte	0x4
 881 000b 01       		.uleb128 0x1
 882 000c 28010000 		.4byte	.LASF124
 883 0010 0C       		.byte	0xc
 884 0011 FE030000 		.4byte	.LASF125
 885 0015 00000000 		.4byte	.LASF126
 886 0019 90000000 		.4byte	.Ldebug_ranges0+0x90
 887 001d 00000000 		.4byte	0
 888 0021 00000000 		.4byte	.Ldebug_line0
 889 0025 02       		.uleb128 0x2
 890 0026 04       		.byte	0x4
 891 0027 05       		.byte	0x5
 892 0028 696E7400 		.ascii	"int\000"
 893 002c 03       		.uleb128 0x3
 894 002d 6E000000 		.4byte	.LASF2
 895 0031 03       		.byte	0x3
 896 0032 D8       		.byte	0xd8
 897 0033 37000000 		.4byte	0x37
 898 0037 04       		.uleb128 0x4
 899 0038 04       		.byte	0x4
 900 0039 07       		.byte	0x7
 901 003a 6F020000 		.4byte	.LASF0
 902 003e 04       		.uleb128 0x4
 903 003f 01       		.byte	0x1
 904 0040 06       		.byte	0x6
 905 0041 ED000000 		.4byte	.LASF1
 906 0045 03       		.uleb128 0x3
 907 0046 81000000 		.4byte	.LASF3
 908 004a 04       		.byte	0x4
 909 004b 2B       		.byte	0x2b
 910 004c 50000000 		.4byte	0x50
 911 0050 04       		.uleb128 0x4
 912 0051 01       		.byte	0x1
ARM GAS  /var/folders/3j/4xdnk5197cv_b7cw3n33qk7r0000gn/T//ccECGIus.s 			page 17


 913 0052 08       		.byte	0x8
 914 0053 56040000 		.4byte	.LASF4
 915 0057 04       		.uleb128 0x4
 916 0058 02       		.byte	0x2
 917 0059 05       		.byte	0x5
 918 005a 6E040000 		.4byte	.LASF5
 919 005e 03       		.uleb128 0x3
 920 005f 40050000 		.4byte	.LASF6
 921 0063 04       		.byte	0x4
 922 0064 39       		.byte	0x39
 923 0065 69000000 		.4byte	0x69
 924 0069 04       		.uleb128 0x4
 925 006a 02       		.byte	0x2
 926 006b 07       		.byte	0x7
 927 006c D0020000 		.4byte	.LASF7
 928 0070 03       		.uleb128 0x3
 929 0071 73050000 		.4byte	.LASF8
 930 0075 04       		.byte	0x4
 931 0076 4D       		.byte	0x4d
 932 0077 7B000000 		.4byte	0x7b
 933 007b 04       		.uleb128 0x4
 934 007c 04       		.byte	0x4
 935 007d 05       		.byte	0x5
 936 007e E8010000 		.4byte	.LASF9
 937 0082 03       		.uleb128 0x3
 938 0083 42020000 		.4byte	.LASF10
 939 0087 04       		.byte	0x4
 940 0088 4F       		.byte	0x4f
 941 0089 8D000000 		.4byte	0x8d
 942 008d 04       		.uleb128 0x4
 943 008e 04       		.byte	0x4
 944 008f 07       		.byte	0x7
 945 0090 91020000 		.4byte	.LASF11
 946 0094 04       		.uleb128 0x4
 947 0095 08       		.byte	0x8
 948 0096 05       		.byte	0x5
 949 0097 DF000000 		.4byte	.LASF12
 950 009b 04       		.uleb128 0x4
 951 009c 08       		.byte	0x8
 952 009d 07       		.byte	0x7
 953 009e 9D000000 		.4byte	.LASF13
 954 00a2 03       		.uleb128 0x3
 955 00a3 D1050000 		.4byte	.LASF14
 956 00a7 05       		.byte	0x5
 957 00a8 18       		.byte	0x18
 958 00a9 45000000 		.4byte	0x45
 959 00ad 03       		.uleb128 0x3
 960 00ae FA010000 		.4byte	.LASF15
 961 00b2 05       		.byte	0x5
 962 00b3 24       		.byte	0x24
 963 00b4 5E000000 		.4byte	0x5e
 964 00b8 03       		.uleb128 0x3
 965 00b9 4E040000 		.4byte	.LASF16
 966 00bd 05       		.byte	0x5
 967 00be 2C       		.byte	0x2c
 968 00bf 70000000 		.4byte	0x70
 969 00c3 03       		.uleb128 0x3
ARM GAS  /var/folders/3j/4xdnk5197cv_b7cw3n33qk7r0000gn/T//ccECGIus.s 			page 18


 970 00c4 07050000 		.4byte	.LASF17
 971 00c8 05       		.byte	0x5
 972 00c9 30       		.byte	0x30
 973 00ca 82000000 		.4byte	0x82
 974 00ce 03       		.uleb128 0x3
 975 00cf 06030000 		.4byte	.LASF18
 976 00d3 06       		.byte	0x6
 977 00d4 2A       		.byte	0x2a
 978 00d5 A2000000 		.4byte	0xa2
 979 00d9 03       		.uleb128 0x3
 980 00da F1010000 		.4byte	.LASF19
 981 00de 06       		.byte	0x6
 982 00df 2B       		.byte	0x2b
 983 00e0 A2000000 		.4byte	0xa2
 984 00e4 03       		.uleb128 0x3
 985 00e5 2C040000 		.4byte	.LASF20
 986 00e9 06       		.byte	0x6
 987 00ea 2C       		.byte	0x2c
 988 00eb A2000000 		.4byte	0xa2
 989 00ef 03       		.uleb128 0x3
 990 00f0 31050000 		.4byte	.LASF21
 991 00f4 06       		.byte	0x6
 992 00f5 2D       		.byte	0x2d
 993 00f6 A2000000 		.4byte	0xa2
 994 00fa 03       		.uleb128 0x3
 995 00fb 46040000 		.4byte	.LASF22
 996 00ff 06       		.byte	0x6
 997 0100 2E       		.byte	0x2e
 998 0101 C3000000 		.4byte	0xc3
 999 0105 03       		.uleb128 0x3
 1000 0106 F0020000 		.4byte	.LASF23
 1001 010a 06       		.byte	0x6
 1002 010b 2F       		.byte	0x2f
 1003 010c B8000000 		.4byte	0xb8
 1004 0110 03       		.uleb128 0x3
 1005 0111 29030000 		.4byte	.LASF24
 1006 0115 06       		.byte	0x6
 1007 0116 31       		.byte	0x31
 1008 0117 C3000000 		.4byte	0xc3
 1009 011b 03       		.uleb128 0x3
 1010 011c 5E050000 		.4byte	.LASF25
 1011 0120 06       		.byte	0x6
 1012 0121 33       		.byte	0x33
 1013 0122 C3000000 		.4byte	0xc3
 1014 0126 05       		.uleb128 0x5
 1015 0127 1B010000 		.4byte	0x11b
 1016 012b 03       		.uleb128 0x3
 1017 012c CF040000 		.4byte	.LASF26
 1018 0130 07       		.byte	0x7
 1019 0131 23       		.byte	0x23
 1020 0132 36010000 		.4byte	0x136
 1021 0136 06       		.uleb128 0x6
 1022 0137 CF040000 		.4byte	.LASF26
 1023 013b 44       		.byte	0x44
 1024 013c 08       		.byte	0x8
 1025 013d 57       		.byte	0x57
 1026 013e 27020000 		.4byte	0x227
ARM GAS  /var/folders/3j/4xdnk5197cv_b7cw3n33qk7r0000gn/T//ccECGIus.s 			page 19


 1027 0142 07       		.uleb128 0x7
 1028 0143 A4040000 		.4byte	.LASF27
 1029 0147 08       		.byte	0x8
 1030 0148 58       		.byte	0x58
 1031 0149 48020000 		.4byte	0x248
 1032 014d 00       		.byte	0
 1033 014e 07       		.uleb128 0x7
 1034 014f 3F040000 		.4byte	.LASF28
 1035 0153 08       		.byte	0x8
 1036 0154 5A       		.byte	0x5a
 1037 0155 48020000 		.4byte	0x248
 1038 0159 04       		.byte	0x4
 1039 015a 07       		.uleb128 0x7
 1040 015b CB000000 		.4byte	.LASF29
 1041 015f 08       		.byte	0x8
 1042 0160 5C       		.byte	0x5c
 1043 0161 FA000000 		.4byte	0xfa
 1044 0165 08       		.byte	0x8
 1045 0166 07       		.uleb128 0x7
 1046 0167 2C060000 		.4byte	.LASF30
 1047 016b 08       		.byte	0x8
 1048 016c 5D       		.byte	0x5d
 1049 016d 03030000 		.4byte	0x303
 1050 0171 0C       		.byte	0xc
 1051 0172 07       		.uleb128 0x7
 1052 0173 0D020000 		.4byte	.LASF31
 1053 0177 08       		.byte	0x8
 1054 0178 5F       		.byte	0x5f
 1055 0179 48020000 		.4byte	0x248
 1056 017d 10       		.byte	0x10
 1057 017e 07       		.uleb128 0x7
 1058 017f C0030000 		.4byte	.LASF32
 1059 0183 08       		.byte	0x8
 1060 0184 60       		.byte	0x60
 1061 0185 48020000 		.4byte	0x248
 1062 0189 14       		.byte	0x14
 1063 018a 07       		.uleb128 0x7
 1064 018b EB050000 		.4byte	.LASF33
 1065 018f 08       		.byte	0x8
 1066 0190 67       		.byte	0x67
 1067 0191 C5040000 		.4byte	0x4c5
 1068 0195 18       		.byte	0x18
 1069 0196 07       		.uleb128 0x7
 1070 0197 78040000 		.4byte	.LASF34
 1071 019b 08       		.byte	0x8
 1072 019c 72       		.byte	0x72
 1073 019d D9000000 		.4byte	0xd9
 1074 01a1 1C       		.byte	0x1c
 1075 01a2 07       		.uleb128 0x7
 1076 01a3 BA040000 		.4byte	.LASF35
 1077 01a7 08       		.byte	0x8
 1078 01a8 76       		.byte	0x76
 1079 01a9 CE000000 		.4byte	0xce
 1080 01ad 1D       		.byte	0x1d
 1081 01ae 07       		.uleb128 0x7
 1082 01af BA050000 		.4byte	.LASF36
 1083 01b3 08       		.byte	0x8
ARM GAS  /var/folders/3j/4xdnk5197cv_b7cw3n33qk7r0000gn/T//ccECGIus.s 			page 20


 1084 01b4 7B       		.byte	0x7b
 1085 01b5 E4000000 		.4byte	0xe4
 1086 01b9 1E       		.byte	0x1e
 1087 01ba 07       		.uleb128 0x7
 1088 01bb 80040000 		.4byte	.LASF37
 1089 01bf 08       		.byte	0x8
 1090 01c0 81       		.byte	0x81
 1091 01c1 EF000000 		.4byte	0xef
 1092 01c5 1F       		.byte	0x1f
 1093 01c6 07       		.uleb128 0x7
 1094 01c7 7D050000 		.4byte	.LASF38
 1095 01cb 08       		.byte	0x8
 1096 01cc 88       		.byte	0x88
 1097 01cd 26010000 		.4byte	0x126
 1098 01d1 20       		.byte	0x20
 1099 01d2 08       		.uleb128 0x8
 1100 01d3 705F7500 		.ascii	"p_u\000"
 1101 01d7 08       		.byte	0x8
 1102 01d8 AD       		.byte	0xad
 1103 01d9 90040000 		.4byte	0x490
 1104 01dd 24       		.byte	0x24
 1105 01de 07       		.uleb128 0x7
 1106 01df 32060000 		.4byte	.LASF39
 1107 01e3 08       		.byte	0x8
 1108 01e4 B2       		.byte	0xb2
 1109 01e5 6E020000 		.4byte	0x26e
 1110 01e9 28       		.byte	0x28
 1111 01ea 07       		.uleb128 0x7
 1112 01eb 93050000 		.4byte	.LASF40
 1113 01ef 08       		.byte	0x8
 1114 01f0 B8       		.byte	0xb8
 1115 01f1 4E020000 		.4byte	0x24e
 1116 01f5 2C       		.byte	0x2c
 1117 01f6 07       		.uleb128 0x7
 1118 01f7 68000000 		.4byte	.LASF41
 1119 01fb 08       		.byte	0x8
 1120 01fc BC       		.byte	0xbc
 1121 01fd 05010000 		.4byte	0x105
 1122 0201 34       		.byte	0x34
 1123 0202 07       		.uleb128 0x7
 1124 0203 F1040000 		.4byte	.LASF42
 1125 0207 08       		.byte	0x8
 1126 0208 C2       		.byte	0xc2
 1127 0209 10010000 		.4byte	0x110
 1128 020d 38       		.byte	0x38
 1129 020e 07       		.uleb128 0x7
 1130 020f 64040000 		.4byte	.LASF43
 1131 0213 08       		.byte	0x8
 1132 0214 C9       		.byte	0xc9
 1133 0215 D7040000 		.4byte	0x4d7
 1134 0219 3C       		.byte	0x3c
 1135 021a 07       		.uleb128 0x7
 1136 021b 68050000 		.4byte	.LASF44
 1137 021f 08       		.byte	0x8
 1138 0220 CD       		.byte	0xcd
 1139 0221 FA000000 		.4byte	0xfa
 1140 0225 40       		.byte	0x40
ARM GAS  /var/folders/3j/4xdnk5197cv_b7cw3n33qk7r0000gn/T//ccECGIus.s 			page 21


 1141 0226 00       		.byte	0
 1142 0227 09       		.uleb128 0x9
 1143 0228 08       		.byte	0x8
 1144 0229 07       		.byte	0x7
 1145 022a 5A       		.byte	0x5a
 1146 022b 48020000 		.4byte	0x248
 1147 022f 07       		.uleb128 0x7
 1148 0230 A4040000 		.4byte	.LASF27
 1149 0234 07       		.byte	0x7
 1150 0235 5B       		.byte	0x5b
 1151 0236 48020000 		.4byte	0x248
 1152 023a 00       		.byte	0
 1153 023b 07       		.uleb128 0x7
 1154 023c 3F040000 		.4byte	.LASF28
 1155 0240 07       		.byte	0x7
 1156 0241 5D       		.byte	0x5d
 1157 0242 48020000 		.4byte	0x248
 1158 0246 04       		.byte	0x4
 1159 0247 00       		.byte	0
 1160 0248 0A       		.uleb128 0xa
 1161 0249 04       		.byte	0x4
 1162 024a 2B010000 		.4byte	0x12b
 1163 024e 03       		.uleb128 0x3
 1164 024f CE030000 		.4byte	.LASF45
 1165 0253 07       		.byte	0x7
 1166 0254 5F       		.byte	0x5f
 1167 0255 27020000 		.4byte	0x227
 1168 0259 09       		.uleb128 0x9
 1169 025a 04       		.byte	0x4
 1170 025b 07       		.byte	0x7
 1171 025c 64       		.byte	0x64
 1172 025d 6E020000 		.4byte	0x26e
 1173 0261 07       		.uleb128 0x7
 1174 0262 A4040000 		.4byte	.LASF27
 1175 0266 07       		.byte	0x7
 1176 0267 66       		.byte	0x66
 1177 0268 48020000 		.4byte	0x248
 1178 026c 00       		.byte	0
 1179 026d 00       		.byte	0
 1180 026e 03       		.uleb128 0x3
 1181 026f 1D030000 		.4byte	.LASF46
 1182 0273 07       		.byte	0x7
 1183 0274 69       		.byte	0x69
 1184 0275 59020000 		.4byte	0x259
 1185 0279 03       		.uleb128 0x3
 1186 027a 43030000 		.4byte	.LASF47
 1187 027e 09       		.byte	0x9
 1188 027f 9D       		.byte	0x9d
 1189 0280 C3000000 		.4byte	0xc3
 1190 0284 03       		.uleb128 0x3
 1191 0285 4D020000 		.4byte	.LASF48
 1192 0289 09       		.byte	0x9
 1193 028a A2       		.byte	0xa2
 1194 028b 8F020000 		.4byte	0x28f
 1195 028f 0B       		.uleb128 0xb
 1196 0290 04       		.byte	0x4
 1197 0291 06       		.uleb128 0x6
ARM GAS  /var/folders/3j/4xdnk5197cv_b7cw3n33qk7r0000gn/T//ccECGIus.s 			page 22


 1198 0292 8C050000 		.4byte	.LASF49
 1199 0296 24       		.byte	0x24
 1200 0297 09       		.byte	0x9
 1201 0298 B9       		.byte	0xb9
 1202 0299 03030000 		.4byte	0x303
 1203 029d 08       		.uleb128 0x8
 1204 029e 723400   		.ascii	"r4\000"
 1205 02a1 09       		.byte	0x9
 1206 02a2 BA       		.byte	0xba
 1207 02a3 84020000 		.4byte	0x284
 1208 02a7 00       		.byte	0
 1209 02a8 08       		.uleb128 0x8
 1210 02a9 723500   		.ascii	"r5\000"
 1211 02ac 09       		.byte	0x9
 1212 02ad BB       		.byte	0xbb
 1213 02ae 84020000 		.4byte	0x284
 1214 02b2 04       		.byte	0x4
 1215 02b3 08       		.uleb128 0x8
 1216 02b4 723600   		.ascii	"r6\000"
 1217 02b7 09       		.byte	0x9
 1218 02b8 BC       		.byte	0xbc
 1219 02b9 84020000 		.4byte	0x284
 1220 02bd 08       		.byte	0x8
 1221 02be 08       		.uleb128 0x8
 1222 02bf 723700   		.ascii	"r7\000"
 1223 02c2 09       		.byte	0x9
 1224 02c3 BD       		.byte	0xbd
 1225 02c4 84020000 		.4byte	0x284
 1226 02c8 0C       		.byte	0xc
 1227 02c9 08       		.uleb128 0x8
 1228 02ca 723800   		.ascii	"r8\000"
 1229 02cd 09       		.byte	0x9
 1230 02ce BE       		.byte	0xbe
 1231 02cf 84020000 		.4byte	0x284
 1232 02d3 10       		.byte	0x10
 1233 02d4 08       		.uleb128 0x8
 1234 02d5 723900   		.ascii	"r9\000"
 1235 02d8 09       		.byte	0x9
 1236 02d9 BF       		.byte	0xbf
 1237 02da 84020000 		.4byte	0x284
 1238 02de 14       		.byte	0x14
 1239 02df 08       		.uleb128 0x8
 1240 02e0 72313000 		.ascii	"r10\000"
 1241 02e4 09       		.byte	0x9
 1242 02e5 C0       		.byte	0xc0
 1243 02e6 84020000 		.4byte	0x284
 1244 02ea 18       		.byte	0x18
 1245 02eb 08       		.uleb128 0x8
 1246 02ec 72313100 		.ascii	"r11\000"
 1247 02f0 09       		.byte	0x9
 1248 02f1 C1       		.byte	0xc1
 1249 02f2 84020000 		.4byte	0x284
 1250 02f6 1C       		.byte	0x1c
 1251 02f7 08       		.uleb128 0x8
 1252 02f8 6C7200   		.ascii	"lr\000"
 1253 02fb 09       		.byte	0x9
 1254 02fc C2       		.byte	0xc2
ARM GAS  /var/folders/3j/4xdnk5197cv_b7cw3n33qk7r0000gn/T//ccECGIus.s 			page 23


 1255 02fd 84020000 		.4byte	0x284
 1256 0301 20       		.byte	0x20
 1257 0302 00       		.byte	0
 1258 0303 06       		.uleb128 0x6
 1259 0304 C3020000 		.4byte	.LASF50
 1260 0308 04       		.byte	0x4
 1261 0309 09       		.byte	0x9
 1262 030a CA       		.byte	0xca
 1263 030b 1C030000 		.4byte	0x31c
 1264 030f 08       		.uleb128 0x8
 1265 0310 72313300 		.ascii	"r13\000"
 1266 0314 09       		.byte	0x9
 1267 0315 CB       		.byte	0xcb
 1268 0316 1C030000 		.4byte	0x31c
 1269 031a 00       		.byte	0
 1270 031b 00       		.byte	0
 1271 031c 0A       		.uleb128 0xa
 1272 031d 04       		.byte	0x4
 1273 031e 91020000 		.4byte	0x291
 1274 0322 03       		.uleb128 0x3
 1275 0323 AC020000 		.4byte	.LASF51
 1276 0327 0A       		.byte	0xa
 1277 0328 4E       		.byte	0x4e
 1278 0329 2D030000 		.4byte	0x32d
 1279 032d 0A       		.uleb128 0xa
 1280 032e 04       		.byte	0x4
 1281 032f 33030000 		.4byte	0x333
 1282 0333 0C       		.uleb128 0xc
 1283 0334 3E030000 		.4byte	0x33e
 1284 0338 0D       		.uleb128 0xd
 1285 0339 8F020000 		.4byte	0x28f
 1286 033d 00       		.byte	0
 1287 033e 03       		.uleb128 0x3
 1288 033f 24050000 		.4byte	.LASF52
 1289 0343 0A       		.byte	0xa
 1290 0344 53       		.byte	0x53
 1291 0345 49030000 		.4byte	0x349
 1292 0349 06       		.uleb128 0x6
 1293 034a 24050000 		.4byte	.LASF52
 1294 034e 14       		.byte	0x14
 1295 034f 0A       		.byte	0xa
 1296 0350 5A       		.byte	0x5a
 1297 0351 92030000 		.4byte	0x392
 1298 0355 07       		.uleb128 0x7
 1299 0356 89020000 		.4byte	.LASF53
 1300 035a 0A       		.byte	0xa
 1301 035b 5B       		.byte	0x5b
 1302 035c 92030000 		.4byte	0x392
 1303 0360 00       		.byte	0
 1304 0361 07       		.uleb128 0x7
 1305 0362 56020000 		.4byte	.LASF54
 1306 0366 0A       		.byte	0xa
 1307 0367 5D       		.byte	0x5d
 1308 0368 92030000 		.4byte	0x392
 1309 036c 04       		.byte	0x4
 1310 036d 07       		.uleb128 0x7
 1311 036e 74030000 		.4byte	.LASF55
ARM GAS  /var/folders/3j/4xdnk5197cv_b7cw3n33qk7r0000gn/T//ccECGIus.s 			page 24


 1312 0372 0A       		.byte	0xa
 1313 0373 5F       		.byte	0x5f
 1314 0374 1B010000 		.4byte	0x11b
 1315 0378 08       		.byte	0x8
 1316 0379 07       		.uleb128 0x7
 1317 037a 7C030000 		.4byte	.LASF56
 1318 037e 0A       		.byte	0xa
 1319 037f 60       		.byte	0x60
 1320 0380 22030000 		.4byte	0x322
 1321 0384 0C       		.byte	0xc
 1322 0385 07       		.uleb128 0x7
 1323 0386 A8050000 		.4byte	.LASF57
 1324 038a 0A       		.byte	0xa
 1325 038b 62       		.byte	0x62
 1326 038c 8F020000 		.4byte	0x28f
 1327 0390 10       		.byte	0x10
 1328 0391 00       		.byte	0
 1329 0392 0A       		.uleb128 0xa
 1330 0393 04       		.byte	0x4
 1331 0394 3E030000 		.4byte	0x33e
 1332 0398 09       		.uleb128 0x9
 1333 0399 10       		.byte	0x10
 1334 039a 0A       		.byte	0xa
 1335 039b 6C       		.byte	0x6c
 1336 039c D1030000 		.4byte	0x3d1
 1337 03a0 07       		.uleb128 0x7
 1338 03a1 89020000 		.4byte	.LASF53
 1339 03a5 0A       		.byte	0xa
 1340 03a6 6D       		.byte	0x6d
 1341 03a7 92030000 		.4byte	0x392
 1342 03ab 00       		.byte	0
 1343 03ac 07       		.uleb128 0x7
 1344 03ad 56020000 		.4byte	.LASF54
 1345 03b1 0A       		.byte	0xa
 1346 03b2 6F       		.byte	0x6f
 1347 03b3 92030000 		.4byte	0x392
 1348 03b7 04       		.byte	0x4
 1349 03b8 07       		.uleb128 0x7
 1350 03b9 74030000 		.4byte	.LASF55
 1351 03bd 0A       		.byte	0xa
 1352 03be 71       		.byte	0x71
 1353 03bf 1B010000 		.4byte	0x11b
 1354 03c3 08       		.byte	0x8
 1355 03c4 07       		.uleb128 0x7
 1356 03c5 F2050000 		.4byte	.LASF58
 1357 03c9 0A       		.byte	0xa
 1358 03ca 72       		.byte	0x72
 1359 03cb 26010000 		.4byte	0x126
 1360 03cf 0C       		.byte	0xc
 1361 03d0 00       		.byte	0
 1362 03d1 03       		.uleb128 0x3
 1363 03d2 1D060000 		.4byte	.LASF59
 1364 03d6 0A       		.byte	0xa
 1365 03d7 73       		.byte	0x73
 1366 03d8 98030000 		.4byte	0x398
 1367 03dc 0E       		.uleb128 0xe
 1368 03dd 8B000000 		.4byte	.LASF67
ARM GAS  /var/folders/3j/4xdnk5197cv_b7cw3n33qk7r0000gn/T//ccECGIus.s 			page 25


 1369 03e1 0A       		.byte	0xa
 1370 03e2 D1       		.byte	0xd1
 1371 03e3 D1030000 		.4byte	0x3d1
 1372 03e7 09       		.uleb128 0x9
 1373 03e8 1C       		.byte	0x1c
 1374 03e9 0B       		.byte	0xb
 1375 03ea 57       		.byte	0x57
 1376 03eb 38040000 		.4byte	0x438
 1377 03ef 07       		.uleb128 0x7
 1378 03f0 1C050000 		.4byte	.LASF60
 1379 03f4 0B       		.byte	0xb
 1380 03f5 58       		.byte	0x58
 1381 03f6 4E020000 		.4byte	0x24e
 1382 03fa 00       		.byte	0
 1383 03fb 07       		.uleb128 0x7
 1384 03fc 96040000 		.4byte	.LASF61
 1385 0400 0B       		.byte	0xb
 1386 0401 59       		.byte	0x59
 1387 0402 FA000000 		.4byte	0xfa
 1388 0406 08       		.byte	0x8
 1389 0407 07       		.uleb128 0x7
 1390 0408 C8030000 		.4byte	.LASF62
 1391 040c 0B       		.byte	0xb
 1392 040d 5B       		.byte	0x5b
 1393 040e 03030000 		.4byte	0x303
 1394 0412 0C       		.byte	0xc
 1395 0413 07       		.uleb128 0x7
 1396 0414 F6020000 		.4byte	.LASF63
 1397 0418 0B       		.byte	0xb
 1398 0419 5E       		.byte	0x5e
 1399 041a 48020000 		.4byte	0x248
 1400 041e 10       		.byte	0x10
 1401 041f 07       		.uleb128 0x7
 1402 0420 84050000 		.4byte	.LASF64
 1403 0424 0B       		.byte	0xb
 1404 0425 5F       		.byte	0x5f
 1405 0426 48020000 		.4byte	0x248
 1406 042a 14       		.byte	0x14
 1407 042b 07       		.uleb128 0x7
 1408 042c F4030000 		.4byte	.LASF65
 1409 0430 0B       		.byte	0xb
 1410 0431 62       		.byte	0x62
 1411 0432 48020000 		.4byte	0x248
 1412 0436 18       		.byte	0x18
 1413 0437 00       		.byte	0
 1414 0438 03       		.uleb128 0x3
 1415 0439 C1050000 		.4byte	.LASF66
 1416 043d 0B       		.byte	0xb
 1417 043e 64       		.byte	0x64
 1418 043f E7030000 		.4byte	0x3e7
 1419 0443 0E       		.uleb128 0xe
 1420 0444 CB050000 		.4byte	.LASF68
 1421 0448 0B       		.byte	0xb
 1422 0449 68       		.byte	0x68
 1423 044a 38040000 		.4byte	0x438
 1424 044e 06       		.uleb128 0x6
 1425 044f 35030000 		.4byte	.LASF69
ARM GAS  /var/folders/3j/4xdnk5197cv_b7cw3n33qk7r0000gn/T//ccECGIus.s 			page 26


 1426 0453 10       		.byte	0x10
 1427 0454 0C       		.byte	0xc
 1428 0455 25       		.byte	0x25
 1429 0456 7F040000 		.4byte	0x47f
 1430 045a 07       		.uleb128 0x7
 1431 045b 20010000 		.4byte	.LASF70
 1432 045f 0C       		.byte	0xc
 1433 0460 26       		.byte	0x26
 1434 0461 4E020000 		.4byte	0x24e
 1435 0465 00       		.byte	0
 1436 0466 07       		.uleb128 0x7
 1437 0467 24060000 		.4byte	.LASF71
 1438 046b 0C       		.byte	0xc
 1439 046c 28       		.byte	0x28
 1440 046d 48020000 		.4byte	0x248
 1441 0471 08       		.byte	0x8
 1442 0472 07       		.uleb128 0x7
 1443 0473 57050000 		.4byte	.LASF72
 1444 0477 0C       		.byte	0xc
 1445 0478 2A       		.byte	0x2a
 1446 0479 7F040000 		.4byte	0x47f
 1447 047d 0C       		.byte	0xc
 1448 047e 00       		.byte	0
 1449 047f 0A       		.uleb128 0xa
 1450 0480 04       		.byte	0x4
 1451 0481 4E040000 		.4byte	0x44e
 1452 0485 03       		.uleb128 0x3
 1453 0486 35030000 		.4byte	.LASF69
 1454 048a 0C       		.byte	0xc
 1455 048b 2C       		.byte	0x2c
 1456 048c 4E040000 		.4byte	0x44e
 1457 0490 0F       		.uleb128 0xf
 1458 0491 04       		.byte	0x4
 1459 0492 08       		.byte	0x8
 1460 0493 8F       		.byte	0x8f
 1461 0494 C5040000 		.4byte	0x4c5
 1462 0498 10       		.uleb128 0x10
 1463 0499 7A000000 		.4byte	.LASF73
 1464 049d 08       		.byte	0x8
 1465 049e 96       		.byte	0x96
 1466 049f 05010000 		.4byte	0x105
 1467 04a3 10       		.uleb128 0x10
 1468 04a4 C2000000 		.4byte	.LASF74
 1469 04a8 08       		.byte	0x8
 1470 04a9 9D       		.byte	0x9d
 1471 04aa 05010000 		.4byte	0x105
 1472 04ae 10       		.uleb128 0x10
 1473 04af E4050000 		.4byte	.LASF75
 1474 04b3 08       		.byte	0x8
 1475 04b4 A4       		.byte	0xa4
 1476 04b5 8F020000 		.4byte	0x28f
 1477 04b9 10       		.uleb128 0x10
 1478 04ba 9D040000 		.4byte	.LASF76
 1479 04be 08       		.byte	0x8
 1480 04bf AB       		.byte	0xab
 1481 04c0 10010000 		.4byte	0x110
 1482 04c4 00       		.byte	0
ARM GAS  /var/folders/3j/4xdnk5197cv_b7cw3n33qk7r0000gn/T//ccECGIus.s 			page 27


 1483 04c5 0A       		.uleb128 0xa
 1484 04c6 04       		.byte	0x4
 1485 04c7 D2040000 		.4byte	0x4d2
 1486 04cb 04       		.uleb128 0x4
 1487 04cc 01       		.byte	0x1
 1488 04cd 08       		.byte	0x8
 1489 04ce 3B050000 		.4byte	.LASF77
 1490 04d2 11       		.uleb128 0x11
 1491 04d3 CB040000 		.4byte	0x4cb
 1492 04d7 0A       		.uleb128 0xa
 1493 04d8 04       		.byte	0x4
 1494 04d9 85040000 		.4byte	0x485
 1495 04dd 03       		.uleb128 0x3
 1496 04de 53000000 		.4byte	.LASF78
 1497 04e2 08       		.byte	0x8
 1498 04e3 DE       		.byte	0xde
 1499 04e4 E8040000 		.4byte	0x4e8
 1500 04e8 0A       		.uleb128 0xa
 1501 04e9 04       		.byte	0x4
 1502 04ea EE040000 		.4byte	0x4ee
 1503 04ee 12       		.uleb128 0x12
 1504 04ef 05010000 		.4byte	0x105
 1505 04f3 FD040000 		.4byte	0x4fd
 1506 04f7 0D       		.uleb128 0xd
 1507 04f8 8F020000 		.4byte	0x28f
 1508 04fc 00       		.byte	0
 1509 04fd 09       		.uleb128 0x9
 1510 04fe 16       		.byte	0x16
 1511 04ff 0D       		.byte	0xd
 1512 0500 25       		.byte	0x25
 1513 0501 DE050000 		.4byte	0x5de
 1514 0505 07       		.uleb128 0x7
 1515 0506 B5020000 		.4byte	.LASF79
 1516 050a 0D       		.byte	0xd
 1517 050b 26       		.byte	0x26
 1518 050c DE050000 		.4byte	0x5de
 1519 0510 00       		.byte	0
 1520 0511 07       		.uleb128 0x7
 1521 0512 60030000 		.4byte	.LASF80
 1522 0516 0D       		.byte	0xd
 1523 0517 27       		.byte	0x27
 1524 0518 A2000000 		.4byte	0xa2
 1525 051c 04       		.byte	0x4
 1526 051d 07       		.uleb128 0x7
 1527 051e DB030000 		.4byte	.LASF81
 1528 0522 0D       		.byte	0xd
 1529 0523 28       		.byte	0x28
 1530 0524 A2000000 		.4byte	0xa2
 1531 0528 05       		.byte	0x5
 1532 0529 07       		.uleb128 0x7
 1533 052a 12060000 		.4byte	.LASF82
 1534 052e 0D       		.byte	0xd
 1535 052f 29       		.byte	0x29
 1536 0530 AD000000 		.4byte	0xad
 1537 0534 06       		.byte	0x6
 1538 0535 07       		.uleb128 0x7
 1539 0536 34040000 		.4byte	.LASF83
ARM GAS  /var/folders/3j/4xdnk5197cv_b7cw3n33qk7r0000gn/T//ccECGIus.s 			page 28


 1540 053a 0D       		.byte	0xd
 1541 053b 2A       		.byte	0x2a
 1542 053c A2000000 		.4byte	0xa2
 1543 0540 08       		.byte	0x8
 1544 0541 07       		.uleb128 0x7
 1545 0542 84030000 		.4byte	.LASF84
 1546 0546 0D       		.byte	0xd
 1547 0547 2B       		.byte	0x2b
 1548 0548 A2000000 		.4byte	0xa2
 1549 054c 09       		.byte	0x9
 1550 054d 07       		.uleb128 0x7
 1551 054e B4000000 		.4byte	.LASF85
 1552 0552 0D       		.byte	0xd
 1553 0553 2C       		.byte	0x2c
 1554 0554 A2000000 		.4byte	0xa2
 1555 0558 0A       		.byte	0xa
 1556 0559 07       		.uleb128 0x7
 1557 055a 10050000 		.4byte	.LASF86
 1558 055e 0D       		.byte	0xd
 1559 055f 2D       		.byte	0x2d
 1560 0560 A2000000 		.4byte	0xa2
 1561 0564 0B       		.byte	0xb
 1562 0565 07       		.uleb128 0x7
 1563 0566 AF050000 		.4byte	.LASF87
 1564 056a 0D       		.byte	0xd
 1565 056b 2E       		.byte	0x2e
 1566 056c A2000000 		.4byte	0xa2
 1567 0570 0C       		.byte	0xc
 1568 0571 07       		.uleb128 0x7
 1569 0572 D6040000 		.4byte	.LASF88
 1570 0576 0D       		.byte	0xd
 1571 0577 2F       		.byte	0x2f
 1572 0578 A2000000 		.4byte	0xa2
 1573 057c 0D       		.byte	0xd
 1574 057d 07       		.uleb128 0x7
 1575 057e 5B000000 		.4byte	.LASF89
 1576 0582 0D       		.byte	0xd
 1577 0583 30       		.byte	0x30
 1578 0584 A2000000 		.4byte	0xa2
 1579 0588 0E       		.byte	0xe
 1580 0589 07       		.uleb128 0x7
 1581 058a B4030000 		.4byte	.LASF90
 1582 058e 0D       		.byte	0xd
 1583 058f 31       		.byte	0x31
 1584 0590 A2000000 		.4byte	0xa2
 1585 0594 0F       		.byte	0xf
 1586 0595 07       		.uleb128 0x7
 1587 0596 03010000 		.4byte	.LASF91
 1588 059a 0D       		.byte	0xd
 1589 059b 32       		.byte	0x32
 1590 059c A2000000 		.4byte	0xa2
 1591 05a0 10       		.byte	0x10
 1592 05a1 07       		.uleb128 0x7
 1593 05a2 D2000000 		.4byte	.LASF92
 1594 05a6 0D       		.byte	0xd
 1595 05a7 34       		.byte	0x34
 1596 05a8 A2000000 		.4byte	0xa2
ARM GAS  /var/folders/3j/4xdnk5197cv_b7cw3n33qk7r0000gn/T//ccECGIus.s 			page 29


 1597 05ac 11       		.byte	0x11
 1598 05ad 07       		.uleb128 0x7
 1599 05ae 13010000 		.4byte	.LASF93
 1600 05b2 0D       		.byte	0xd
 1601 05b3 35       		.byte	0x35
 1602 05b4 A2000000 		.4byte	0xa2
 1603 05b8 12       		.byte	0x12
 1604 05b9 07       		.uleb128 0x7
 1605 05ba 68030000 		.4byte	.LASF94
 1606 05be 0D       		.byte	0xd
 1607 05bf 36       		.byte	0x36
 1608 05c0 A2000000 		.4byte	0xa2
 1609 05c4 13       		.byte	0x13
 1610 05c5 07       		.uleb128 0x7
 1611 05c6 AB040000 		.4byte	.LASF95
 1612 05ca 0D       		.byte	0xd
 1613 05cb 37       		.byte	0x37
 1614 05cc A2000000 		.4byte	0xa2
 1615 05d0 14       		.byte	0x14
 1616 05d1 07       		.uleb128 0x7
 1617 05d2 8A040000 		.4byte	.LASF96
 1618 05d6 0D       		.byte	0xd
 1619 05d7 39       		.byte	0x39
 1620 05d8 A2000000 		.4byte	0xa2
 1621 05dc 15       		.byte	0x15
 1622 05dd 00       		.byte	0
 1623 05de 13       		.uleb128 0x13
 1624 05df CB040000 		.4byte	0x4cb
 1625 05e3 EE050000 		.4byte	0x5ee
 1626 05e7 14       		.uleb128 0x14
 1627 05e8 37000000 		.4byte	0x37
 1628 05ec 03       		.byte	0x3
 1629 05ed 00       		.byte	0
 1630 05ee 03       		.uleb128 0x3
 1631 05ef 03020000 		.4byte	.LASF97
 1632 05f3 0D       		.byte	0xd
 1633 05f4 3A       		.byte	0x3a
 1634 05f5 FD040000 		.4byte	0x4fd
 1635 05f9 11       		.uleb128 0x11
 1636 05fa EE050000 		.4byte	0x5ee
 1637 05fe 0E       		.uleb128 0xe
 1638 05ff A3020000 		.4byte	.LASF98
 1639 0603 0D       		.byte	0xd
 1640 0604 77       		.byte	0x77
 1641 0605 F9050000 		.4byte	0x5f9
 1642 0609 13       		.uleb128 0x13
 1643 060a 79020000 		.4byte	0x279
 1644 060e 19060000 		.4byte	0x619
 1645 0612 14       		.uleb128 0x14
 1646 0613 37000000 		.4byte	0x37
 1647 0617 26       		.byte	0x26
 1648 0618 00       		.byte	0
 1649 0619 0E       		.uleb128 0xe
 1650 061a 15020000 		.4byte	.LASF99
 1651 061e 0E       		.byte	0xe
 1652 061f 82       		.byte	0x82
 1653 0620 09060000 		.4byte	0x609
ARM GAS  /var/folders/3j/4xdnk5197cv_b7cw3n33qk7r0000gn/T//ccECGIus.s 			page 30


 1654 0624 15       		.uleb128 0x15
 1655 0625 9E050000 		.4byte	.LASF107
 1656 0629 01       		.byte	0x1
 1657 062a 9D01     		.2byte	0x19d
 1658 062c 05010000 		.4byte	0x105
 1659 0630 00000000 		.4byte	.LFB18
 1660 0634 50000000 		.4byte	.LFE18-.LFB18
 1661 0638 01       		.uleb128 0x1
 1662 0639 9C       		.byte	0x9c
 1663 063a A2060000 		.4byte	0x6a2
 1664 063e 16       		.uleb128 0x16
 1665 063f 747000   		.ascii	"tp\000"
 1666 0642 01       		.byte	0x1
 1667 0643 9D01     		.2byte	0x19d
 1668 0645 48020000 		.4byte	0x248
 1669 0649 00000000 		.4byte	.LLST26
 1670 064d 17       		.uleb128 0x17
 1671 064e 6D736700 		.ascii	"msg\000"
 1672 0652 01       		.byte	0x1
 1673 0653 9E01     		.2byte	0x19e
 1674 0655 05010000 		.4byte	0x105
 1675 0659 01       		.uleb128 0x1
 1676 065a 55       		.byte	0x55
 1677 065b 18       		.uleb128 0x18
 1678 065c 1B0A0000 		.4byte	0xa1b
 1679 0660 1C000000 		.4byte	.LBB34
 1680 0664 78000000 		.4byte	.Ldebug_ranges0+0x78
 1681 0668 01       		.byte	0x1
 1682 0669 A801     		.2byte	0x1a8
 1683 066b 7E060000 		.4byte	0x67e
 1684 066f 19       		.uleb128 0x19
 1685 0670 310A0000 		.4byte	0xa31
 1686 0674 1E000000 		.4byte	.LLST27
 1687 0678 1A       		.uleb128 0x1a
 1688 0679 270A0000 		.4byte	0xa27
 1689 067d 00       		.byte	0
 1690 067e 1B       		.uleb128 0x1b
 1691 067f 34000000 		.4byte	.LVL50
 1692 0683 C80A0000 		.4byte	0xac8
 1693 0687 91060000 		.4byte	0x691
 1694 068b 1C       		.uleb128 0x1c
 1695 068c 01       		.uleb128 0x1
 1696 068d 50       		.byte	0x50
 1697 068e 01       		.uleb128 0x1
 1698 068f 37       		.byte	0x37
 1699 0690 00       		.byte	0
 1700 0691 1D       		.uleb128 0x1d
 1701 0692 44000000 		.4byte	.LVL52
 1702 0696 D30A0000 		.4byte	0xad3
 1703 069a 1C       		.uleb128 0x1c
 1704 069b 01       		.uleb128 0x1
 1705 069c 50       		.byte	0x50
 1706 069d 02       		.uleb128 0x2
 1707 069e 74       		.byte	0x74
 1708 069f 00       		.sleb128 0
 1709 06a0 00       		.byte	0
 1710 06a1 00       		.byte	0
ARM GAS  /var/folders/3j/4xdnk5197cv_b7cw3n33qk7r0000gn/T//ccECGIus.s 			page 31


 1711 06a2 1E       		.uleb128 0x1e
 1712 06a3 92000000 		.4byte	.LASF100
 1713 06a7 01       		.byte	0x1
 1714 06a8 6701     		.2byte	0x167
 1715 06aa 00000000 		.4byte	.LFB17
 1716 06ae 64000000 		.4byte	.LFE17-.LFB17
 1717 06b2 01       		.uleb128 0x1
 1718 06b3 9C       		.byte	0x9c
 1719 06b4 1D070000 		.4byte	0x71d
 1720 06b8 16       		.uleb128 0x16
 1721 06b9 6D736700 		.ascii	"msg\000"
 1722 06bd 01       		.byte	0x1
 1723 06be 6701     		.2byte	0x167
 1724 06c0 05010000 		.4byte	0x105
 1725 06c4 40000000 		.4byte	.LLST21
 1726 06c8 1F       		.uleb128 0x1f
 1727 06c9 747000   		.ascii	"tp\000"
 1728 06cc 01       		.byte	0x1
 1729 06cd 6801     		.2byte	0x168
 1730 06cf 48020000 		.4byte	0x248
 1731 06d3 61000000 		.4byte	.LLST22
 1732 06d7 18       		.uleb128 0x18
 1733 06d8 EF090000 		.4byte	0x9ef
 1734 06dc 20000000 		.4byte	.LBB30
 1735 06e0 60000000 		.4byte	.Ldebug_ranges0+0x60
 1736 06e4 01       		.byte	0x1
 1737 06e5 7001     		.2byte	0x170
 1738 06e7 04070000 		.4byte	0x704
 1739 06eb 19       		.uleb128 0x19
 1740 06ec FF090000 		.4byte	0x9ff
 1741 06f0 74000000 		.4byte	.LLST23
 1742 06f4 20       		.uleb128 0x20
 1743 06f5 60000000 		.4byte	.Ldebug_ranges0+0x60
 1744 06f9 21       		.uleb128 0x21
 1745 06fa 0A0A0000 		.4byte	0xa0a
 1746 06fe 87000000 		.4byte	.LLST24
 1747 0702 00       		.byte	0
 1748 0703 00       		.byte	0
 1749 0704 22       		.uleb128 0x22
 1750 0705 30000000 		.4byte	.LVL41
 1751 0709 DE0A0000 		.4byte	0xade
 1752 070d 23       		.uleb128 0x23
 1753 070e 60000000 		.4byte	.LVL43
 1754 0712 C80A0000 		.4byte	0xac8
 1755 0716 1C       		.uleb128 0x1c
 1756 0717 01       		.uleb128 0x1
 1757 0718 50       		.byte	0x50
 1758 0719 01       		.uleb128 0x1
 1759 071a 3E       		.byte	0x3e
 1760 071b 00       		.byte	0
 1761 071c 00       		.byte	0
 1762 071d 1E       		.uleb128 0x1e
 1763 071e F9000000 		.4byte	.LASF101
 1764 0722 01       		.byte	0x1
 1765 0723 5201     		.2byte	0x152
 1766 0725 00000000 		.4byte	.LFB16
 1767 0729 08000000 		.4byte	.LFE16-.LFB16
ARM GAS  /var/folders/3j/4xdnk5197cv_b7cw3n33qk7r0000gn/T//ccECGIus.s 			page 32


 1768 072d 01       		.uleb128 0x1
 1769 072e 9C       		.byte	0x9c
 1770 072f 55070000 		.4byte	0x755
 1771 0733 16       		.uleb128 0x16
 1772 0734 6D736700 		.ascii	"msg\000"
 1773 0738 01       		.byte	0x1
 1774 0739 5201     		.2byte	0x152
 1775 073b 05010000 		.4byte	0x105
 1776 073f 9A000000 		.4byte	.LLST25
 1777 0743 23       		.uleb128 0x23
 1778 0744 08000000 		.4byte	.LVL45
 1779 0748 A2060000 		.4byte	0x6a2
 1780 074c 1C       		.uleb128 0x1c
 1781 074d 01       		.uleb128 0x1
 1782 074e 50       		.byte	0x50
 1783 074f 03       		.uleb128 0x3
 1784 0750 F3       		.byte	0xf3
 1785 0751 01       		.uleb128 0x1
 1786 0752 50       		.byte	0x50
 1787 0753 00       		.byte	0
 1788 0754 00       		.byte	0
 1789 0755 1E       		.uleb128 0x1e
 1790 0756 D9050000 		.4byte	.LASF102
 1791 075a 01       		.byte	0x1
 1792 075b 3D01     		.2byte	0x13d
 1793 075d 00000000 		.4byte	.LFB15
 1794 0761 3C000000 		.4byte	.LFE15-.LFB15
 1795 0765 01       		.uleb128 0x1
 1796 0766 9C       		.byte	0x9c
 1797 0767 75070000 		.4byte	0x775
 1798 076b 22       		.uleb128 0x22
 1799 076c 30000000 		.4byte	.LVL36
 1800 0770 E90A0000 		.4byte	0xae9
 1801 0774 00       		.byte	0
 1802 0775 1E       		.uleb128 0x1e
 1803 0776 1C040000 		.4byte	.LASF103
 1804 077a 01       		.byte	0x1
 1805 077b 2E01     		.2byte	0x12e
 1806 077d 00000000 		.4byte	.LFB14
 1807 0781 34000000 		.4byte	.LFE14-.LFB14
 1808 0785 01       		.uleb128 0x1
 1809 0786 9C       		.byte	0x9c
 1810 0787 AB070000 		.4byte	0x7ab
 1811 078b 24       		.uleb128 0x24
 1812 078c E3030000 		.4byte	.LASF104
 1813 0790 01       		.byte	0x1
 1814 0791 2E01     		.2byte	0x12e
 1815 0793 1B010000 		.4byte	0x11b
 1816 0797 BB000000 		.4byte	.LLST20
 1817 079b 1D       		.uleb128 0x1d
 1818 079c 28000000 		.4byte	.LVL35
 1819 07a0 F40A0000 		.4byte	0xaf4
 1820 07a4 1C       		.uleb128 0x1c
 1821 07a5 01       		.uleb128 0x1
 1822 07a6 50       		.byte	0x50
 1823 07a7 01       		.uleb128 0x1
 1824 07a8 36       		.byte	0x36
ARM GAS  /var/folders/3j/4xdnk5197cv_b7cw3n33qk7r0000gn/T//ccECGIus.s 			page 33


 1825 07a9 00       		.byte	0
 1826 07aa 00       		.byte	0
 1827 07ab 1E       		.uleb128 0x1e
 1828 07ac FC040000 		.4byte	.LASF105
 1829 07b0 01       		.byte	0x1
 1830 07b1 1D01     		.2byte	0x11d
 1831 07b3 00000000 		.4byte	.LFB13
 1832 07b7 1C000000 		.4byte	.LFE13-.LFB13
 1833 07bb 01       		.uleb128 0x1
 1834 07bc 9C       		.byte	0x9c
 1835 07bd E8070000 		.4byte	0x7e8
 1836 07c1 24       		.uleb128 0x24
 1837 07c2 E3030000 		.4byte	.LASF104
 1838 07c6 01       		.byte	0x1
 1839 07c7 1D01     		.2byte	0x11d
 1840 07c9 1B010000 		.4byte	0x11b
 1841 07cd E9000000 		.4byte	.LLST19
 1842 07d1 1D       		.uleb128 0x1d
 1843 07d2 14000000 		.4byte	.LVL31
 1844 07d6 F40A0000 		.4byte	0xaf4
 1845 07da 1C       		.uleb128 0x1c
 1846 07db 01       		.uleb128 0x1
 1847 07dc 50       		.byte	0x50
 1848 07dd 01       		.uleb128 0x1
 1849 07de 36       		.byte	0x36
 1850 07df 1C       		.uleb128 0x1c
 1851 07e0 01       		.uleb128 0x1
 1852 07e1 51       		.byte	0x51
 1853 07e2 03       		.uleb128 0x3
 1854 07e3 F3       		.byte	0xf3
 1855 07e4 01       		.uleb128 0x1
 1856 07e5 50       		.byte	0x50
 1857 07e6 00       		.byte	0
 1858 07e7 00       		.byte	0
 1859 07e8 1E       		.uleb128 0x1e
 1860 07e9 0E030000 		.4byte	.LASF106
 1861 07ed 01       		.byte	0x1
 1862 07ee 0A01     		.2byte	0x10a
 1863 07f0 00000000 		.4byte	.LFB12
 1864 07f4 18000000 		.4byte	.LFE12-.LFB12
 1865 07f8 01       		.uleb128 0x1
 1866 07f9 9C       		.byte	0x9c
 1867 07fa 0C080000 		.4byte	0x80c
 1868 07fe 25       		.uleb128 0x25
 1869 07ff 747000   		.ascii	"tp\000"
 1870 0802 01       		.byte	0x1
 1871 0803 0A01     		.2byte	0x10a
 1872 0805 48020000 		.4byte	0x248
 1873 0809 01       		.uleb128 0x1
 1874 080a 50       		.byte	0x50
 1875 080b 00       		.byte	0
 1876 080c 26       		.uleb128 0x26
 1877 080d 90030000 		.4byte	.LASF108
 1878 0811 01       		.byte	0x1
 1879 0812 F3       		.byte	0xf3
 1880 0813 48020000 		.4byte	0x248
 1881 0817 00000000 		.4byte	.LFB11
ARM GAS  /var/folders/3j/4xdnk5197cv_b7cw3n33qk7r0000gn/T//ccECGIus.s 			page 34


 1882 081b 20000000 		.4byte	.LFE11-.LFB11
 1883 081f 01       		.uleb128 0x1
 1884 0820 9C       		.byte	0x9c
 1885 0821 49080000 		.4byte	0x849
 1886 0825 27       		.uleb128 0x27
 1887 0826 747000   		.ascii	"tp\000"
 1888 0829 01       		.byte	0x1
 1889 082a F3       		.byte	0xf3
 1890 082b 48020000 		.4byte	0x248
 1891 082f 15010000 		.4byte	.LLST18
 1892 0833 1D       		.uleb128 0x1d
 1893 0834 14000000 		.4byte	.LVL27
 1894 0838 FF0A0000 		.4byte	0xaff
 1895 083c 1C       		.uleb128 0x1c
 1896 083d 01       		.uleb128 0x1
 1897 083e 50       		.byte	0x50
 1898 083f 02       		.uleb128 0x2
 1899 0840 74       		.byte	0x74
 1900 0841 00       		.sleb128 0
 1901 0842 1C       		.uleb128 0x1c
 1902 0843 01       		.uleb128 0x1
 1903 0844 51       		.byte	0x51
 1904 0845 01       		.uleb128 0x1
 1905 0846 30       		.byte	0x30
 1906 0847 00       		.byte	0
 1907 0848 00       		.byte	0
 1908 0849 26       		.uleb128 0x26
 1909 084a 5E020000 		.4byte	.LASF109
 1910 084e 01       		.byte	0x1
 1911 084f D2       		.byte	0xd2
 1912 0850 FA000000 		.4byte	0xfa
 1913 0854 00000000 		.4byte	.LFB10
 1914 0858 50000000 		.4byte	.LFE10-.LFB10
 1915 085c 01       		.uleb128 0x1
 1916 085d 9C       		.byte	0x9c
 1917 085e 88080000 		.4byte	0x888
 1918 0862 28       		.uleb128 0x28
 1919 0863 FE020000 		.4byte	.LASF110
 1920 0867 01       		.byte	0x1
 1921 0868 D2       		.byte	0xd2
 1922 0869 FA000000 		.4byte	0xfa
 1923 086d 33010000 		.4byte	.LLST17
 1924 0871 29       		.uleb128 0x29
 1925 0872 3B030000 		.4byte	.LASF111
 1926 0876 01       		.byte	0x1
 1927 0877 D3       		.byte	0xd3
 1928 0878 FA000000 		.4byte	0xfa
 1929 087c 01       		.uleb128 0x1
 1930 087d 54       		.byte	0x54
 1931 087e 22       		.uleb128 0x22
 1932 087f 40000000 		.4byte	.LVL25
 1933 0883 0A0B0000 		.4byte	0xb0a
 1934 0887 00       		.byte	0
 1935 0888 26       		.uleb128 0x26
 1936 0889 4E030000 		.4byte	.LASF112
 1937 088d 01       		.byte	0x1
 1938 088e B4       		.byte	0xb4
ARM GAS  /var/folders/3j/4xdnk5197cv_b7cw3n33qk7r0000gn/T//ccECGIus.s 			page 35


 1939 088f 48020000 		.4byte	0x248
 1940 0893 00000000 		.4byte	.LFB9
 1941 0897 A8000000 		.4byte	.LFE9-.LFB9
 1942 089b 01       		.uleb128 0x1
 1943 089c 9C       		.byte	0x9c
 1944 089d 78090000 		.4byte	0x978
 1945 08a1 27       		.uleb128 0x27
 1946 08a2 77737000 		.ascii	"wsp\000"
 1947 08a6 01       		.byte	0x1
 1948 08a7 B4       		.byte	0xb4
 1949 08a8 8F020000 		.4byte	0x28f
 1950 08ac 5F010000 		.4byte	.LLST6
 1951 08b0 28       		.uleb128 0x28
 1952 08b1 CB020000 		.4byte	.LASF113
 1953 08b5 01       		.byte	0x1
 1954 08b6 B4       		.byte	0xb4
 1955 08b7 2C000000 		.4byte	0x2c
 1956 08bb 7D010000 		.4byte	.LLST7
 1957 08bf 28       		.uleb128 0x28
 1958 08c0 75000000 		.4byte	.LASF114
 1959 08c4 01       		.byte	0x1
 1960 08c5 B5       		.byte	0xb5
 1961 08c6 FA000000 		.4byte	0xfa
 1962 08ca AB010000 		.4byte	.LLST8
 1963 08ce 27       		.uleb128 0x27
 1964 08cf 706600   		.ascii	"pf\000"
 1965 08d2 01       		.byte	0x1
 1966 08d3 B5       		.byte	0xb5
 1967 08d4 DD040000 		.4byte	0x4dd
 1968 08d8 D8010000 		.4byte	.LLST9
 1969 08dc 2A       		.uleb128 0x2a
 1970 08dd 61726700 		.ascii	"arg\000"
 1971 08e1 01       		.byte	0x1
 1972 08e2 B5       		.byte	0xb5
 1973 08e3 8F020000 		.4byte	0x28f
 1974 08e7 02       		.uleb128 0x2
 1975 08e8 91       		.byte	0x91
 1976 08e9 00       		.sleb128 0
 1977 08ea 2B       		.uleb128 0x2b
 1978 08eb 747000   		.ascii	"tp\000"
 1979 08ee 01       		.byte	0x1
 1980 08ef B6       		.byte	0xb6
 1981 08f0 48020000 		.4byte	0x248
 1982 08f4 2C       		.uleb128 0x2c
 1983 08f5 78090000 		.4byte	0x978
 1984 08f9 10000000 		.4byte	.LBB18
 1985 08fd 20000000 		.4byte	.Ldebug_ranges0+0x20
 1986 0901 01       		.byte	0x1
 1987 0902 C1       		.byte	0xc1
 1988 0903 62090000 		.4byte	0x962
 1989 0907 19       		.uleb128 0x19
 1990 0908 B3090000 		.4byte	0x9b3
 1991 090c 12020000 		.4byte	.LLST10
 1992 0910 19       		.uleb128 0x19
 1993 0911 A9090000 		.4byte	0x9a9
 1994 0915 25020000 		.4byte	.LLST11
 1995 0919 19       		.uleb128 0x19
ARM GAS  /var/folders/3j/4xdnk5197cv_b7cw3n33qk7r0000gn/T//ccECGIus.s 			page 36


 1996 091a 9E090000 		.4byte	0x99e
 1997 091e 5F020000 		.4byte	.LLST12
 1998 0922 19       		.uleb128 0x19
 1999 0923 93090000 		.4byte	0x993
 2000 0927 7E020000 		.4byte	.LLST13
 2001 092b 19       		.uleb128 0x19
 2002 092c 88090000 		.4byte	0x988
 2003 0930 AC020000 		.4byte	.LLST14
 2004 0934 20       		.uleb128 0x20
 2005 0935 20000000 		.4byte	.Ldebug_ranges0+0x20
 2006 0939 2D       		.uleb128 0x2d
 2007 093a 9E0A0000 		.4byte	0xa9e
 2008 093e 2E       		.uleb128 0x2e
 2009 093f C9090000 		.4byte	0x9c9
 2010 0943 10000000 		.4byte	.LBB20
 2011 0947 38000000 		.4byte	.Ldebug_ranges0+0x38
 2012 094b 01       		.byte	0x1
 2013 094c A1       		.byte	0xa1
 2014 094d 19       		.uleb128 0x19
 2015 094e E3090000 		.4byte	0x9e3
 2016 0952 BF020000 		.4byte	.LLST15
 2017 0956 19       		.uleb128 0x19
 2018 0957 D9090000 		.4byte	0x9d9
 2019 095b DE020000 		.4byte	.LLST16
 2020 095f 00       		.byte	0
 2021 0960 00       		.byte	0
 2022 0961 00       		.byte	0
 2023 0962 1D       		.uleb128 0x1d
 2024 0963 94000000 		.4byte	.LVL21
 2025 0967 FF0A0000 		.4byte	0xaff
 2026 096b 1C       		.uleb128 0x1c
 2027 096c 01       		.uleb128 0x1
 2028 096d 50       		.byte	0x50
 2029 096e 02       		.uleb128 0x2
 2030 096f 74       		.byte	0x74
 2031 0970 00       		.sleb128 0
 2032 0971 1C       		.uleb128 0x1c
 2033 0972 01       		.uleb128 0x1
 2034 0973 51       		.byte	0x51
 2035 0974 01       		.uleb128 0x1
 2036 0975 30       		.byte	0x30
 2037 0976 00       		.byte	0
 2038 0977 00       		.byte	0
 2039 0978 2F       		.uleb128 0x2f
 2040 0979 DB010000 		.4byte	.LASF115
 2041 097d 01       		.byte	0x1
 2042 097e 96       		.byte	0x96
 2043 097f 48020000 		.4byte	0x248
 2044 0983 01       		.byte	0x1
 2045 0984 C9090000 		.4byte	0x9c9
 2046 0988 30       		.uleb128 0x30
 2047 0989 77737000 		.ascii	"wsp\000"
 2048 098d 01       		.byte	0x1
 2049 098e 96       		.byte	0x96
 2050 098f 8F020000 		.4byte	0x28f
 2051 0993 31       		.uleb128 0x31
 2052 0994 CB020000 		.4byte	.LASF113
ARM GAS  /var/folders/3j/4xdnk5197cv_b7cw3n33qk7r0000gn/T//ccECGIus.s 			page 37


 2053 0998 01       		.byte	0x1
 2054 0999 96       		.byte	0x96
 2055 099a 2C000000 		.4byte	0x2c
 2056 099e 31       		.uleb128 0x31
 2057 099f 75000000 		.4byte	.LASF114
 2058 09a3 01       		.byte	0x1
 2059 09a4 97       		.byte	0x97
 2060 09a5 FA000000 		.4byte	0xfa
 2061 09a9 30       		.uleb128 0x30
 2062 09aa 706600   		.ascii	"pf\000"
 2063 09ad 01       		.byte	0x1
 2064 09ae 97       		.byte	0x97
 2065 09af DD040000 		.4byte	0x4dd
 2066 09b3 30       		.uleb128 0x30
 2067 09b4 61726700 		.ascii	"arg\000"
 2068 09b8 01       		.byte	0x1
 2069 09b9 97       		.byte	0x97
 2070 09ba 8F020000 		.4byte	0x28f
 2071 09be 2B       		.uleb128 0x2b
 2072 09bf 747000   		.ascii	"tp\000"
 2073 09c2 01       		.byte	0x1
 2074 09c3 99       		.byte	0x99
 2075 09c4 48020000 		.4byte	0x248
 2076 09c8 00       		.byte	0
 2077 09c9 2F       		.uleb128 0x2f
 2078 09ca 7C020000 		.4byte	.LASF116
 2079 09ce 01       		.byte	0x1
 2080 09cf 45       		.byte	0x45
 2081 09d0 48020000 		.4byte	0x248
 2082 09d4 01       		.byte	0x1
 2083 09d5 EF090000 		.4byte	0x9ef
 2084 09d9 30       		.uleb128 0x30
 2085 09da 747000   		.ascii	"tp\000"
 2086 09dd 01       		.byte	0x1
 2087 09de 45       		.byte	0x45
 2088 09df 48020000 		.4byte	0x248
 2089 09e3 31       		.uleb128 0x31
 2090 09e4 75000000 		.4byte	.LASF114
 2091 09e8 01       		.byte	0x1
 2092 09e9 45       		.byte	0x45
 2093 09ea FA000000 		.4byte	0xfa
 2094 09ee 00       		.byte	0
 2095 09ef 32       		.uleb128 0x32
 2096 09f0 25020000 		.4byte	.LASF127
 2097 09f4 02       		.byte	0x2
 2098 09f5 4F       		.byte	0x4f
 2099 09f6 48020000 		.4byte	0x248
 2100 09fa 03       		.byte	0x3
 2101 09fb 150A0000 		.4byte	0xa15
 2102 09ff 30       		.uleb128 0x30
 2103 0a00 746C7000 		.ascii	"tlp\000"
 2104 0a04 02       		.byte	0x2
 2105 0a05 4F       		.byte	0x4f
 2106 0a06 150A0000 		.4byte	0xa15
 2107 0a0a 2B       		.uleb128 0x2b
 2108 0a0b 747000   		.ascii	"tp\000"
 2109 0a0e 02       		.byte	0x2
ARM GAS  /var/folders/3j/4xdnk5197cv_b7cw3n33qk7r0000gn/T//ccECGIus.s 			page 38


 2110 0a0f 51       		.byte	0x51
 2111 0a10 48020000 		.4byte	0x248
 2112 0a14 00       		.byte	0
 2113 0a15 0A       		.uleb128 0xa
 2114 0a16 04       		.byte	0x4
 2115 0a17 6E020000 		.4byte	0x26e
 2116 0a1b 33       		.uleb128 0x33
 2117 0a1c E8030000 		.4byte	.LASF128
 2118 0a20 02       		.byte	0x2
 2119 0a21 49       		.byte	0x49
 2120 0a22 03       		.byte	0x3
 2121 0a23 3D0A0000 		.4byte	0xa3d
 2122 0a27 30       		.uleb128 0x30
 2123 0a28 747000   		.ascii	"tp\000"
 2124 0a2b 02       		.byte	0x2
 2125 0a2c 49       		.byte	0x49
 2126 0a2d 48020000 		.4byte	0x248
 2127 0a31 30       		.uleb128 0x30
 2128 0a32 746C7000 		.ascii	"tlp\000"
 2129 0a36 02       		.byte	0x2
 2130 0a37 49       		.byte	0x49
 2131 0a38 150A0000 		.4byte	0xa15
 2132 0a3c 00       		.byte	0
 2133 0a3d 34       		.uleb128 0x34
 2134 0a3e C9090000 		.4byte	0x9c9
 2135 0a42 00000000 		.4byte	.LFB7
 2136 0a46 6C000000 		.4byte	.LFE7-.LFB7
 2137 0a4a 01       		.uleb128 0x1
 2138 0a4b 9C       		.byte	0x9c
 2139 0a4c 610A0000 		.4byte	0xa61
 2140 0a50 35       		.uleb128 0x35
 2141 0a51 D9090000 		.4byte	0x9d9
 2142 0a55 01       		.uleb128 0x1
 2143 0a56 50       		.byte	0x50
 2144 0a57 19       		.uleb128 0x19
 2145 0a58 E3090000 		.4byte	0x9e3
 2146 0a5c F1020000 		.4byte	.LLST0
 2147 0a60 00       		.byte	0
 2148 0a61 34       		.uleb128 0x34
 2149 0a62 78090000 		.4byte	0x978
 2150 0a66 00000000 		.4byte	.LFB8
 2151 0a6a 90000000 		.4byte	.LFE8-.LFB8
 2152 0a6e 01       		.uleb128 0x1
 2153 0a6f 9C       		.byte	0x9c
 2154 0a70 C80A0000 		.4byte	0xac8
 2155 0a74 35       		.uleb128 0x35
 2156 0a75 88090000 		.4byte	0x988
 2157 0a79 01       		.uleb128 0x1
 2158 0a7a 50       		.byte	0x50
 2159 0a7b 19       		.uleb128 0x19
 2160 0a7c 93090000 		.4byte	0x993
 2161 0a80 10030000 		.4byte	.LLST1
 2162 0a84 19       		.uleb128 0x19
 2163 0a85 9E090000 		.4byte	0x99e
 2164 0a89 3E030000 		.4byte	.LLST2
 2165 0a8d 19       		.uleb128 0x19
 2166 0a8e A9090000 		.4byte	0x9a9
ARM GAS  /var/folders/3j/4xdnk5197cv_b7cw3n33qk7r0000gn/T//ccECGIus.s 			page 39


 2167 0a92 5D030000 		.4byte	.LLST3
 2168 0a96 35       		.uleb128 0x35
 2169 0a97 B3090000 		.4byte	0x9b3
 2170 0a9b 02       		.uleb128 0x2
 2171 0a9c 91       		.byte	0x91
 2172 0a9d 00       		.sleb128 0
 2173 0a9e 36       		.uleb128 0x36
 2174 0a9f BE090000 		.4byte	0x9be
 2175 0aa3 01       		.uleb128 0x1
 2176 0aa4 50       		.byte	0x50
 2177 0aa5 2E       		.uleb128 0x2e
 2178 0aa6 C9090000 		.4byte	0x9c9
 2179 0aaa 04000000 		.4byte	.LBB12
 2180 0aae 00000000 		.4byte	.Ldebug_ranges0+0
 2181 0ab2 01       		.byte	0x1
 2182 0ab3 A1       		.byte	0xa1
 2183 0ab4 19       		.uleb128 0x19
 2184 0ab5 E3090000 		.4byte	0x9e3
 2185 0ab9 97030000 		.4byte	.LLST4
 2186 0abd 19       		.uleb128 0x19
 2187 0abe D9090000 		.4byte	0x9d9
 2188 0ac2 B6030000 		.4byte	.LLST5
 2189 0ac6 00       		.byte	0
 2190 0ac7 00       		.byte	0
 2191 0ac8 37       		.uleb128 0x37
 2192 0ac9 E3040000 		.4byte	.LASF117
 2193 0acd E3040000 		.4byte	.LASF117
 2194 0ad1 0B       		.byte	0xb
 2195 0ad2 8C       		.byte	0x8c
 2196 0ad3 37       		.uleb128 0x37
 2197 0ad4 C2040000 		.4byte	.LASF118
 2198 0ad8 C2040000 		.4byte	.LASF118
 2199 0adc 0F       		.byte	0xf
 2200 0add 33       		.byte	0x33
 2201 0ade 37       		.uleb128 0x37
 2202 0adf 4B050000 		.4byte	.LASF119
 2203 0ae3 4B050000 		.4byte	.LASF119
 2204 0ae7 0B       		.byte	0xb
 2205 0ae8 89       		.byte	0x89
 2206 0ae9 37       		.uleb128 0x37
 2207 0aea 9C030000 		.4byte	.LASF120
 2208 0aee 9C030000 		.4byte	.LASF120
 2209 0af2 0B       		.byte	0xb
 2210 0af3 9B       		.byte	0x9b
 2211 0af4 37       		.uleb128 0x37
 2212 0af5 FD050000 		.4byte	.LASF121
 2213 0af9 FD050000 		.4byte	.LASF121
 2214 0afd 0B       		.byte	0xb
 2215 0afe 8F       		.byte	0x8f
 2216 0aff 37       		.uleb128 0x37
 2217 0b00 E3020000 		.4byte	.LASF122
 2218 0b04 E3020000 		.4byte	.LASF122
 2219 0b08 0B       		.byte	0xb
 2220 0b09 92       		.byte	0x92
 2221 0b0a 37       		.uleb128 0x37
 2222 0b0b 31020000 		.4byte	.LASF123
 2223 0b0f 31020000 		.4byte	.LASF123
ARM GAS  /var/folders/3j/4xdnk5197cv_b7cw3n33qk7r0000gn/T//ccECGIus.s 			page 40


 2224 0b13 0B       		.byte	0xb
 2225 0b14 95       		.byte	0x95
 2226 0b15 00       		.byte	0
 2227              		.section	.debug_abbrev,"",%progbits
 2228              	.Ldebug_abbrev0:
 2229 0000 01       		.uleb128 0x1
 2230 0001 11       		.uleb128 0x11
 2231 0002 01       		.byte	0x1
 2232 0003 25       		.uleb128 0x25
 2233 0004 0E       		.uleb128 0xe
 2234 0005 13       		.uleb128 0x13
 2235 0006 0B       		.uleb128 0xb
 2236 0007 03       		.uleb128 0x3
 2237 0008 0E       		.uleb128 0xe
 2238 0009 1B       		.uleb128 0x1b
 2239 000a 0E       		.uleb128 0xe
 2240 000b 55       		.uleb128 0x55
 2241 000c 17       		.uleb128 0x17
 2242 000d 11       		.uleb128 0x11
 2243 000e 01       		.uleb128 0x1
 2244 000f 10       		.uleb128 0x10
 2245 0010 17       		.uleb128 0x17
 2246 0011 00       		.byte	0
 2247 0012 00       		.byte	0
 2248 0013 02       		.uleb128 0x2
 2249 0014 24       		.uleb128 0x24
 2250 0015 00       		.byte	0
 2251 0016 0B       		.uleb128 0xb
 2252 0017 0B       		.uleb128 0xb
 2253 0018 3E       		.uleb128 0x3e
 2254 0019 0B       		.uleb128 0xb
 2255 001a 03       		.uleb128 0x3
 2256 001b 08       		.uleb128 0x8
 2257 001c 00       		.byte	0
 2258 001d 00       		.byte	0
 2259 001e 03       		.uleb128 0x3
 2260 001f 16       		.uleb128 0x16
 2261 0020 00       		.byte	0
 2262 0021 03       		.uleb128 0x3
 2263 0022 0E       		.uleb128 0xe
 2264 0023 3A       		.uleb128 0x3a
 2265 0024 0B       		.uleb128 0xb
 2266 0025 3B       		.uleb128 0x3b
 2267 0026 0B       		.uleb128 0xb
 2268 0027 49       		.uleb128 0x49
 2269 0028 13       		.uleb128 0x13
 2270 0029 00       		.byte	0
 2271 002a 00       		.byte	0
 2272 002b 04       		.uleb128 0x4
 2273 002c 24       		.uleb128 0x24
 2274 002d 00       		.byte	0
 2275 002e 0B       		.uleb128 0xb
 2276 002f 0B       		.uleb128 0xb
 2277 0030 3E       		.uleb128 0x3e
 2278 0031 0B       		.uleb128 0xb
 2279 0032 03       		.uleb128 0x3
 2280 0033 0E       		.uleb128 0xe
ARM GAS  /var/folders/3j/4xdnk5197cv_b7cw3n33qk7r0000gn/T//ccECGIus.s 			page 41


 2281 0034 00       		.byte	0
 2282 0035 00       		.byte	0
 2283 0036 05       		.uleb128 0x5
 2284 0037 35       		.uleb128 0x35
 2285 0038 00       		.byte	0
 2286 0039 49       		.uleb128 0x49
 2287 003a 13       		.uleb128 0x13
 2288 003b 00       		.byte	0
 2289 003c 00       		.byte	0
 2290 003d 06       		.uleb128 0x6
 2291 003e 13       		.uleb128 0x13
 2292 003f 01       		.byte	0x1
 2293 0040 03       		.uleb128 0x3
 2294 0041 0E       		.uleb128 0xe
 2295 0042 0B       		.uleb128 0xb
 2296 0043 0B       		.uleb128 0xb
 2297 0044 3A       		.uleb128 0x3a
 2298 0045 0B       		.uleb128 0xb
 2299 0046 3B       		.uleb128 0x3b
 2300 0047 0B       		.uleb128 0xb
 2301 0048 01       		.uleb128 0x1
 2302 0049 13       		.uleb128 0x13
 2303 004a 00       		.byte	0
 2304 004b 00       		.byte	0
 2305 004c 07       		.uleb128 0x7
 2306 004d 0D       		.uleb128 0xd
 2307 004e 00       		.byte	0
 2308 004f 03       		.uleb128 0x3
 2309 0050 0E       		.uleb128 0xe
 2310 0051 3A       		.uleb128 0x3a
 2311 0052 0B       		.uleb128 0xb
 2312 0053 3B       		.uleb128 0x3b
 2313 0054 0B       		.uleb128 0xb
 2314 0055 49       		.uleb128 0x49
 2315 0056 13       		.uleb128 0x13
 2316 0057 38       		.uleb128 0x38
 2317 0058 0B       		.uleb128 0xb
 2318 0059 00       		.byte	0
 2319 005a 00       		.byte	0
 2320 005b 08       		.uleb128 0x8
 2321 005c 0D       		.uleb128 0xd
 2322 005d 00       		.byte	0
 2323 005e 03       		.uleb128 0x3
 2324 005f 08       		.uleb128 0x8
 2325 0060 3A       		.uleb128 0x3a
 2326 0061 0B       		.uleb128 0xb
 2327 0062 3B       		.uleb128 0x3b
 2328 0063 0B       		.uleb128 0xb
 2329 0064 49       		.uleb128 0x49
 2330 0065 13       		.uleb128 0x13
 2331 0066 38       		.uleb128 0x38
 2332 0067 0B       		.uleb128 0xb
 2333 0068 00       		.byte	0
 2334 0069 00       		.byte	0
 2335 006a 09       		.uleb128 0x9
 2336 006b 13       		.uleb128 0x13
 2337 006c 01       		.byte	0x1
ARM GAS  /var/folders/3j/4xdnk5197cv_b7cw3n33qk7r0000gn/T//ccECGIus.s 			page 42


 2338 006d 0B       		.uleb128 0xb
 2339 006e 0B       		.uleb128 0xb
 2340 006f 3A       		.uleb128 0x3a
 2341 0070 0B       		.uleb128 0xb
 2342 0071 3B       		.uleb128 0x3b
 2343 0072 0B       		.uleb128 0xb
 2344 0073 01       		.uleb128 0x1
 2345 0074 13       		.uleb128 0x13
 2346 0075 00       		.byte	0
 2347 0076 00       		.byte	0
 2348 0077 0A       		.uleb128 0xa
 2349 0078 0F       		.uleb128 0xf
 2350 0079 00       		.byte	0
 2351 007a 0B       		.uleb128 0xb
 2352 007b 0B       		.uleb128 0xb
 2353 007c 49       		.uleb128 0x49
 2354 007d 13       		.uleb128 0x13
 2355 007e 00       		.byte	0
 2356 007f 00       		.byte	0
 2357 0080 0B       		.uleb128 0xb
 2358 0081 0F       		.uleb128 0xf
 2359 0082 00       		.byte	0
 2360 0083 0B       		.uleb128 0xb
 2361 0084 0B       		.uleb128 0xb
 2362 0085 00       		.byte	0
 2363 0086 00       		.byte	0
 2364 0087 0C       		.uleb128 0xc
 2365 0088 15       		.uleb128 0x15
 2366 0089 01       		.byte	0x1
 2367 008a 27       		.uleb128 0x27
 2368 008b 19       		.uleb128 0x19
 2369 008c 01       		.uleb128 0x1
 2370 008d 13       		.uleb128 0x13
 2371 008e 00       		.byte	0
 2372 008f 00       		.byte	0
 2373 0090 0D       		.uleb128 0xd
 2374 0091 05       		.uleb128 0x5
 2375 0092 00       		.byte	0
 2376 0093 49       		.uleb128 0x49
 2377 0094 13       		.uleb128 0x13
 2378 0095 00       		.byte	0
 2379 0096 00       		.byte	0
 2380 0097 0E       		.uleb128 0xe
 2381 0098 34       		.uleb128 0x34
 2382 0099 00       		.byte	0
 2383 009a 03       		.uleb128 0x3
 2384 009b 0E       		.uleb128 0xe
 2385 009c 3A       		.uleb128 0x3a
 2386 009d 0B       		.uleb128 0xb
 2387 009e 3B       		.uleb128 0x3b
 2388 009f 0B       		.uleb128 0xb
 2389 00a0 49       		.uleb128 0x49
 2390 00a1 13       		.uleb128 0x13
 2391 00a2 3F       		.uleb128 0x3f
 2392 00a3 19       		.uleb128 0x19
 2393 00a4 3C       		.uleb128 0x3c
 2394 00a5 19       		.uleb128 0x19
ARM GAS  /var/folders/3j/4xdnk5197cv_b7cw3n33qk7r0000gn/T//ccECGIus.s 			page 43


 2395 00a6 00       		.byte	0
 2396 00a7 00       		.byte	0
 2397 00a8 0F       		.uleb128 0xf
 2398 00a9 17       		.uleb128 0x17
 2399 00aa 01       		.byte	0x1
 2400 00ab 0B       		.uleb128 0xb
 2401 00ac 0B       		.uleb128 0xb
 2402 00ad 3A       		.uleb128 0x3a
 2403 00ae 0B       		.uleb128 0xb
 2404 00af 3B       		.uleb128 0x3b
 2405 00b0 0B       		.uleb128 0xb
 2406 00b1 01       		.uleb128 0x1
 2407 00b2 13       		.uleb128 0x13
 2408 00b3 00       		.byte	0
 2409 00b4 00       		.byte	0
 2410 00b5 10       		.uleb128 0x10
 2411 00b6 0D       		.uleb128 0xd
 2412 00b7 00       		.byte	0
 2413 00b8 03       		.uleb128 0x3
 2414 00b9 0E       		.uleb128 0xe
 2415 00ba 3A       		.uleb128 0x3a
 2416 00bb 0B       		.uleb128 0xb
 2417 00bc 3B       		.uleb128 0x3b
 2418 00bd 0B       		.uleb128 0xb
 2419 00be 49       		.uleb128 0x49
 2420 00bf 13       		.uleb128 0x13
 2421 00c0 00       		.byte	0
 2422 00c1 00       		.byte	0
 2423 00c2 11       		.uleb128 0x11
 2424 00c3 26       		.uleb128 0x26
 2425 00c4 00       		.byte	0
 2426 00c5 49       		.uleb128 0x49
 2427 00c6 13       		.uleb128 0x13
 2428 00c7 00       		.byte	0
 2429 00c8 00       		.byte	0
 2430 00c9 12       		.uleb128 0x12
 2431 00ca 15       		.uleb128 0x15
 2432 00cb 01       		.byte	0x1
 2433 00cc 27       		.uleb128 0x27
 2434 00cd 19       		.uleb128 0x19
 2435 00ce 49       		.uleb128 0x49
 2436 00cf 13       		.uleb128 0x13
 2437 00d0 01       		.uleb128 0x1
 2438 00d1 13       		.uleb128 0x13
 2439 00d2 00       		.byte	0
 2440 00d3 00       		.byte	0
 2441 00d4 13       		.uleb128 0x13
 2442 00d5 01       		.uleb128 0x1
 2443 00d6 01       		.byte	0x1
 2444 00d7 49       		.uleb128 0x49
 2445 00d8 13       		.uleb128 0x13
 2446 00d9 01       		.uleb128 0x1
 2447 00da 13       		.uleb128 0x13
 2448 00db 00       		.byte	0
 2449 00dc 00       		.byte	0
 2450 00dd 14       		.uleb128 0x14
 2451 00de 21       		.uleb128 0x21
ARM GAS  /var/folders/3j/4xdnk5197cv_b7cw3n33qk7r0000gn/T//ccECGIus.s 			page 44


 2452 00df 00       		.byte	0
 2453 00e0 49       		.uleb128 0x49
 2454 00e1 13       		.uleb128 0x13
 2455 00e2 2F       		.uleb128 0x2f
 2456 00e3 0B       		.uleb128 0xb
 2457 00e4 00       		.byte	0
 2458 00e5 00       		.byte	0
 2459 00e6 15       		.uleb128 0x15
 2460 00e7 2E       		.uleb128 0x2e
 2461 00e8 01       		.byte	0x1
 2462 00e9 3F       		.uleb128 0x3f
 2463 00ea 19       		.uleb128 0x19
 2464 00eb 03       		.uleb128 0x3
 2465 00ec 0E       		.uleb128 0xe
 2466 00ed 3A       		.uleb128 0x3a
 2467 00ee 0B       		.uleb128 0xb
 2468 00ef 3B       		.uleb128 0x3b
 2469 00f0 05       		.uleb128 0x5
 2470 00f1 27       		.uleb128 0x27
 2471 00f2 19       		.uleb128 0x19
 2472 00f3 49       		.uleb128 0x49
 2473 00f4 13       		.uleb128 0x13
 2474 00f5 11       		.uleb128 0x11
 2475 00f6 01       		.uleb128 0x1
 2476 00f7 12       		.uleb128 0x12
 2477 00f8 06       		.uleb128 0x6
 2478 00f9 40       		.uleb128 0x40
 2479 00fa 18       		.uleb128 0x18
 2480 00fb 9742     		.uleb128 0x2117
 2481 00fd 19       		.uleb128 0x19
 2482 00fe 01       		.uleb128 0x1
 2483 00ff 13       		.uleb128 0x13
 2484 0100 00       		.byte	0
 2485 0101 00       		.byte	0
 2486 0102 16       		.uleb128 0x16
 2487 0103 05       		.uleb128 0x5
 2488 0104 00       		.byte	0
 2489 0105 03       		.uleb128 0x3
 2490 0106 08       		.uleb128 0x8
 2491 0107 3A       		.uleb128 0x3a
 2492 0108 0B       		.uleb128 0xb
 2493 0109 3B       		.uleb128 0x3b
 2494 010a 05       		.uleb128 0x5
 2495 010b 49       		.uleb128 0x49
 2496 010c 13       		.uleb128 0x13
 2497 010d 02       		.uleb128 0x2
 2498 010e 17       		.uleb128 0x17
 2499 010f 00       		.byte	0
 2500 0110 00       		.byte	0
 2501 0111 17       		.uleb128 0x17
 2502 0112 34       		.uleb128 0x34
 2503 0113 00       		.byte	0
 2504 0114 03       		.uleb128 0x3
 2505 0115 08       		.uleb128 0x8
 2506 0116 3A       		.uleb128 0x3a
 2507 0117 0B       		.uleb128 0xb
 2508 0118 3B       		.uleb128 0x3b
ARM GAS  /var/folders/3j/4xdnk5197cv_b7cw3n33qk7r0000gn/T//ccECGIus.s 			page 45


 2509 0119 05       		.uleb128 0x5
 2510 011a 49       		.uleb128 0x49
 2511 011b 13       		.uleb128 0x13
 2512 011c 02       		.uleb128 0x2
 2513 011d 18       		.uleb128 0x18
 2514 011e 00       		.byte	0
 2515 011f 00       		.byte	0
 2516 0120 18       		.uleb128 0x18
 2517 0121 1D       		.uleb128 0x1d
 2518 0122 01       		.byte	0x1
 2519 0123 31       		.uleb128 0x31
 2520 0124 13       		.uleb128 0x13
 2521 0125 52       		.uleb128 0x52
 2522 0126 01       		.uleb128 0x1
 2523 0127 55       		.uleb128 0x55
 2524 0128 17       		.uleb128 0x17
 2525 0129 58       		.uleb128 0x58
 2526 012a 0B       		.uleb128 0xb
 2527 012b 59       		.uleb128 0x59
 2528 012c 05       		.uleb128 0x5
 2529 012d 01       		.uleb128 0x1
 2530 012e 13       		.uleb128 0x13
 2531 012f 00       		.byte	0
 2532 0130 00       		.byte	0
 2533 0131 19       		.uleb128 0x19
 2534 0132 05       		.uleb128 0x5
 2535 0133 00       		.byte	0
 2536 0134 31       		.uleb128 0x31
 2537 0135 13       		.uleb128 0x13
 2538 0136 02       		.uleb128 0x2
 2539 0137 17       		.uleb128 0x17
 2540 0138 00       		.byte	0
 2541 0139 00       		.byte	0
 2542 013a 1A       		.uleb128 0x1a
 2543 013b 05       		.uleb128 0x5
 2544 013c 00       		.byte	0
 2545 013d 31       		.uleb128 0x31
 2546 013e 13       		.uleb128 0x13
 2547 013f 00       		.byte	0
 2548 0140 00       		.byte	0
 2549 0141 1B       		.uleb128 0x1b
 2550 0142 898201   		.uleb128 0x4109
 2551 0145 01       		.byte	0x1
 2552 0146 11       		.uleb128 0x11
 2553 0147 01       		.uleb128 0x1
 2554 0148 31       		.uleb128 0x31
 2555 0149 13       		.uleb128 0x13
 2556 014a 01       		.uleb128 0x1
 2557 014b 13       		.uleb128 0x13
 2558 014c 00       		.byte	0
 2559 014d 00       		.byte	0
 2560 014e 1C       		.uleb128 0x1c
 2561 014f 8A8201   		.uleb128 0x410a
 2562 0152 00       		.byte	0
 2563 0153 02       		.uleb128 0x2
 2564 0154 18       		.uleb128 0x18
 2565 0155 9142     		.uleb128 0x2111
ARM GAS  /var/folders/3j/4xdnk5197cv_b7cw3n33qk7r0000gn/T//ccECGIus.s 			page 46


 2566 0157 18       		.uleb128 0x18
 2567 0158 00       		.byte	0
 2568 0159 00       		.byte	0
 2569 015a 1D       		.uleb128 0x1d
 2570 015b 898201   		.uleb128 0x4109
 2571 015e 01       		.byte	0x1
 2572 015f 11       		.uleb128 0x11
 2573 0160 01       		.uleb128 0x1
 2574 0161 31       		.uleb128 0x31
 2575 0162 13       		.uleb128 0x13
 2576 0163 00       		.byte	0
 2577 0164 00       		.byte	0
 2578 0165 1E       		.uleb128 0x1e
 2579 0166 2E       		.uleb128 0x2e
 2580 0167 01       		.byte	0x1
 2581 0168 3F       		.uleb128 0x3f
 2582 0169 19       		.uleb128 0x19
 2583 016a 03       		.uleb128 0x3
 2584 016b 0E       		.uleb128 0xe
 2585 016c 3A       		.uleb128 0x3a
 2586 016d 0B       		.uleb128 0xb
 2587 016e 3B       		.uleb128 0x3b
 2588 016f 05       		.uleb128 0x5
 2589 0170 27       		.uleb128 0x27
 2590 0171 19       		.uleb128 0x19
 2591 0172 11       		.uleb128 0x11
 2592 0173 01       		.uleb128 0x1
 2593 0174 12       		.uleb128 0x12
 2594 0175 06       		.uleb128 0x6
 2595 0176 40       		.uleb128 0x40
 2596 0177 18       		.uleb128 0x18
 2597 0178 9742     		.uleb128 0x2117
 2598 017a 19       		.uleb128 0x19
 2599 017b 01       		.uleb128 0x1
 2600 017c 13       		.uleb128 0x13
 2601 017d 00       		.byte	0
 2602 017e 00       		.byte	0
 2603 017f 1F       		.uleb128 0x1f
 2604 0180 34       		.uleb128 0x34
 2605 0181 00       		.byte	0
 2606 0182 03       		.uleb128 0x3
 2607 0183 08       		.uleb128 0x8
 2608 0184 3A       		.uleb128 0x3a
 2609 0185 0B       		.uleb128 0xb
 2610 0186 3B       		.uleb128 0x3b
 2611 0187 05       		.uleb128 0x5
 2612 0188 49       		.uleb128 0x49
 2613 0189 13       		.uleb128 0x13
 2614 018a 02       		.uleb128 0x2
 2615 018b 17       		.uleb128 0x17
 2616 018c 00       		.byte	0
 2617 018d 00       		.byte	0
 2618 018e 20       		.uleb128 0x20
 2619 018f 0B       		.uleb128 0xb
 2620 0190 01       		.byte	0x1
 2621 0191 55       		.uleb128 0x55
 2622 0192 17       		.uleb128 0x17
ARM GAS  /var/folders/3j/4xdnk5197cv_b7cw3n33qk7r0000gn/T//ccECGIus.s 			page 47


 2623 0193 00       		.byte	0
 2624 0194 00       		.byte	0
 2625 0195 21       		.uleb128 0x21
 2626 0196 34       		.uleb128 0x34
 2627 0197 00       		.byte	0
 2628 0198 31       		.uleb128 0x31
 2629 0199 13       		.uleb128 0x13
 2630 019a 02       		.uleb128 0x2
 2631 019b 17       		.uleb128 0x17
 2632 019c 00       		.byte	0
 2633 019d 00       		.byte	0
 2634 019e 22       		.uleb128 0x22
 2635 019f 898201   		.uleb128 0x4109
 2636 01a2 00       		.byte	0
 2637 01a3 11       		.uleb128 0x11
 2638 01a4 01       		.uleb128 0x1
 2639 01a5 31       		.uleb128 0x31
 2640 01a6 13       		.uleb128 0x13
 2641 01a7 00       		.byte	0
 2642 01a8 00       		.byte	0
 2643 01a9 23       		.uleb128 0x23
 2644 01aa 898201   		.uleb128 0x4109
 2645 01ad 01       		.byte	0x1
 2646 01ae 11       		.uleb128 0x11
 2647 01af 01       		.uleb128 0x1
 2648 01b0 9542     		.uleb128 0x2115
 2649 01b2 19       		.uleb128 0x19
 2650 01b3 31       		.uleb128 0x31
 2651 01b4 13       		.uleb128 0x13
 2652 01b5 00       		.byte	0
 2653 01b6 00       		.byte	0
 2654 01b7 24       		.uleb128 0x24
 2655 01b8 05       		.uleb128 0x5
 2656 01b9 00       		.byte	0
 2657 01ba 03       		.uleb128 0x3
 2658 01bb 0E       		.uleb128 0xe
 2659 01bc 3A       		.uleb128 0x3a
 2660 01bd 0B       		.uleb128 0xb
 2661 01be 3B       		.uleb128 0x3b
 2662 01bf 05       		.uleb128 0x5
 2663 01c0 49       		.uleb128 0x49
 2664 01c1 13       		.uleb128 0x13
 2665 01c2 02       		.uleb128 0x2
 2666 01c3 17       		.uleb128 0x17
 2667 01c4 00       		.byte	0
 2668 01c5 00       		.byte	0
 2669 01c6 25       		.uleb128 0x25
 2670 01c7 05       		.uleb128 0x5
 2671 01c8 00       		.byte	0
 2672 01c9 03       		.uleb128 0x3
 2673 01ca 08       		.uleb128 0x8
 2674 01cb 3A       		.uleb128 0x3a
 2675 01cc 0B       		.uleb128 0xb
 2676 01cd 3B       		.uleb128 0x3b
 2677 01ce 05       		.uleb128 0x5
 2678 01cf 49       		.uleb128 0x49
 2679 01d0 13       		.uleb128 0x13
ARM GAS  /var/folders/3j/4xdnk5197cv_b7cw3n33qk7r0000gn/T//ccECGIus.s 			page 48


 2680 01d1 02       		.uleb128 0x2
 2681 01d2 18       		.uleb128 0x18
 2682 01d3 00       		.byte	0
 2683 01d4 00       		.byte	0
 2684 01d5 26       		.uleb128 0x26
 2685 01d6 2E       		.uleb128 0x2e
 2686 01d7 01       		.byte	0x1
 2687 01d8 3F       		.uleb128 0x3f
 2688 01d9 19       		.uleb128 0x19
 2689 01da 03       		.uleb128 0x3
 2690 01db 0E       		.uleb128 0xe
 2691 01dc 3A       		.uleb128 0x3a
 2692 01dd 0B       		.uleb128 0xb
 2693 01de 3B       		.uleb128 0x3b
 2694 01df 0B       		.uleb128 0xb
 2695 01e0 27       		.uleb128 0x27
 2696 01e1 19       		.uleb128 0x19
 2697 01e2 49       		.uleb128 0x49
 2698 01e3 13       		.uleb128 0x13
 2699 01e4 11       		.uleb128 0x11
 2700 01e5 01       		.uleb128 0x1
 2701 01e6 12       		.uleb128 0x12
 2702 01e7 06       		.uleb128 0x6
 2703 01e8 40       		.uleb128 0x40
 2704 01e9 18       		.uleb128 0x18
 2705 01ea 9742     		.uleb128 0x2117
 2706 01ec 19       		.uleb128 0x19
 2707 01ed 01       		.uleb128 0x1
 2708 01ee 13       		.uleb128 0x13
 2709 01ef 00       		.byte	0
 2710 01f0 00       		.byte	0
 2711 01f1 27       		.uleb128 0x27
 2712 01f2 05       		.uleb128 0x5
 2713 01f3 00       		.byte	0
 2714 01f4 03       		.uleb128 0x3
 2715 01f5 08       		.uleb128 0x8
 2716 01f6 3A       		.uleb128 0x3a
 2717 01f7 0B       		.uleb128 0xb
 2718 01f8 3B       		.uleb128 0x3b
 2719 01f9 0B       		.uleb128 0xb
 2720 01fa 49       		.uleb128 0x49
 2721 01fb 13       		.uleb128 0x13
 2722 01fc 02       		.uleb128 0x2
 2723 01fd 17       		.uleb128 0x17
 2724 01fe 00       		.byte	0
 2725 01ff 00       		.byte	0
 2726 0200 28       		.uleb128 0x28
 2727 0201 05       		.uleb128 0x5
 2728 0202 00       		.byte	0
 2729 0203 03       		.uleb128 0x3
 2730 0204 0E       		.uleb128 0xe
 2731 0205 3A       		.uleb128 0x3a
 2732 0206 0B       		.uleb128 0xb
 2733 0207 3B       		.uleb128 0x3b
 2734 0208 0B       		.uleb128 0xb
 2735 0209 49       		.uleb128 0x49
 2736 020a 13       		.uleb128 0x13
ARM GAS  /var/folders/3j/4xdnk5197cv_b7cw3n33qk7r0000gn/T//ccECGIus.s 			page 49


 2737 020b 02       		.uleb128 0x2
 2738 020c 17       		.uleb128 0x17
 2739 020d 00       		.byte	0
 2740 020e 00       		.byte	0
 2741 020f 29       		.uleb128 0x29
 2742 0210 34       		.uleb128 0x34
 2743 0211 00       		.byte	0
 2744 0212 03       		.uleb128 0x3
 2745 0213 0E       		.uleb128 0xe
 2746 0214 3A       		.uleb128 0x3a
 2747 0215 0B       		.uleb128 0xb
 2748 0216 3B       		.uleb128 0x3b
 2749 0217 0B       		.uleb128 0xb
 2750 0218 49       		.uleb128 0x49
 2751 0219 13       		.uleb128 0x13
 2752 021a 02       		.uleb128 0x2
 2753 021b 18       		.uleb128 0x18
 2754 021c 00       		.byte	0
 2755 021d 00       		.byte	0
 2756 021e 2A       		.uleb128 0x2a
 2757 021f 05       		.uleb128 0x5
 2758 0220 00       		.byte	0
 2759 0221 03       		.uleb128 0x3
 2760 0222 08       		.uleb128 0x8
 2761 0223 3A       		.uleb128 0x3a
 2762 0224 0B       		.uleb128 0xb
 2763 0225 3B       		.uleb128 0x3b
 2764 0226 0B       		.uleb128 0xb
 2765 0227 49       		.uleb128 0x49
 2766 0228 13       		.uleb128 0x13
 2767 0229 02       		.uleb128 0x2
 2768 022a 18       		.uleb128 0x18
 2769 022b 00       		.byte	0
 2770 022c 00       		.byte	0
 2771 022d 2B       		.uleb128 0x2b
 2772 022e 34       		.uleb128 0x34
 2773 022f 00       		.byte	0
 2774 0230 03       		.uleb128 0x3
 2775 0231 08       		.uleb128 0x8
 2776 0232 3A       		.uleb128 0x3a
 2777 0233 0B       		.uleb128 0xb
 2778 0234 3B       		.uleb128 0x3b
 2779 0235 0B       		.uleb128 0xb
 2780 0236 49       		.uleb128 0x49
 2781 0237 13       		.uleb128 0x13
 2782 0238 00       		.byte	0
 2783 0239 00       		.byte	0
 2784 023a 2C       		.uleb128 0x2c
 2785 023b 1D       		.uleb128 0x1d
 2786 023c 01       		.byte	0x1
 2787 023d 31       		.uleb128 0x31
 2788 023e 13       		.uleb128 0x13
 2789 023f 52       		.uleb128 0x52
 2790 0240 01       		.uleb128 0x1
 2791 0241 55       		.uleb128 0x55
 2792 0242 17       		.uleb128 0x17
 2793 0243 58       		.uleb128 0x58
ARM GAS  /var/folders/3j/4xdnk5197cv_b7cw3n33qk7r0000gn/T//ccECGIus.s 			page 50


 2794 0244 0B       		.uleb128 0xb
 2795 0245 59       		.uleb128 0x59
 2796 0246 0B       		.uleb128 0xb
 2797 0247 01       		.uleb128 0x1
 2798 0248 13       		.uleb128 0x13
 2799 0249 00       		.byte	0
 2800 024a 00       		.byte	0
 2801 024b 2D       		.uleb128 0x2d
 2802 024c 34       		.uleb128 0x34
 2803 024d 00       		.byte	0
 2804 024e 31       		.uleb128 0x31
 2805 024f 13       		.uleb128 0x13
 2806 0250 00       		.byte	0
 2807 0251 00       		.byte	0
 2808 0252 2E       		.uleb128 0x2e
 2809 0253 1D       		.uleb128 0x1d
 2810 0254 01       		.byte	0x1
 2811 0255 31       		.uleb128 0x31
 2812 0256 13       		.uleb128 0x13
 2813 0257 52       		.uleb128 0x52
 2814 0258 01       		.uleb128 0x1
 2815 0259 55       		.uleb128 0x55
 2816 025a 17       		.uleb128 0x17
 2817 025b 58       		.uleb128 0x58
 2818 025c 0B       		.uleb128 0xb
 2819 025d 59       		.uleb128 0x59
 2820 025e 0B       		.uleb128 0xb
 2821 025f 00       		.byte	0
 2822 0260 00       		.byte	0
 2823 0261 2F       		.uleb128 0x2f
 2824 0262 2E       		.uleb128 0x2e
 2825 0263 01       		.byte	0x1
 2826 0264 3F       		.uleb128 0x3f
 2827 0265 19       		.uleb128 0x19
 2828 0266 03       		.uleb128 0x3
 2829 0267 0E       		.uleb128 0xe
 2830 0268 3A       		.uleb128 0x3a
 2831 0269 0B       		.uleb128 0xb
 2832 026a 3B       		.uleb128 0x3b
 2833 026b 0B       		.uleb128 0xb
 2834 026c 27       		.uleb128 0x27
 2835 026d 19       		.uleb128 0x19
 2836 026e 49       		.uleb128 0x49
 2837 026f 13       		.uleb128 0x13
 2838 0270 20       		.uleb128 0x20
 2839 0271 0B       		.uleb128 0xb
 2840 0272 01       		.uleb128 0x1
 2841 0273 13       		.uleb128 0x13
 2842 0274 00       		.byte	0
 2843 0275 00       		.byte	0
 2844 0276 30       		.uleb128 0x30
 2845 0277 05       		.uleb128 0x5
 2846 0278 00       		.byte	0
 2847 0279 03       		.uleb128 0x3
 2848 027a 08       		.uleb128 0x8
 2849 027b 3A       		.uleb128 0x3a
 2850 027c 0B       		.uleb128 0xb
ARM GAS  /var/folders/3j/4xdnk5197cv_b7cw3n33qk7r0000gn/T//ccECGIus.s 			page 51


 2851 027d 3B       		.uleb128 0x3b
 2852 027e 0B       		.uleb128 0xb
 2853 027f 49       		.uleb128 0x49
 2854 0280 13       		.uleb128 0x13
 2855 0281 00       		.byte	0
 2856 0282 00       		.byte	0
 2857 0283 31       		.uleb128 0x31
 2858 0284 05       		.uleb128 0x5
 2859 0285 00       		.byte	0
 2860 0286 03       		.uleb128 0x3
 2861 0287 0E       		.uleb128 0xe
 2862 0288 3A       		.uleb128 0x3a
 2863 0289 0B       		.uleb128 0xb
 2864 028a 3B       		.uleb128 0x3b
 2865 028b 0B       		.uleb128 0xb
 2866 028c 49       		.uleb128 0x49
 2867 028d 13       		.uleb128 0x13
 2868 028e 00       		.byte	0
 2869 028f 00       		.byte	0
 2870 0290 32       		.uleb128 0x32
 2871 0291 2E       		.uleb128 0x2e
 2872 0292 01       		.byte	0x1
 2873 0293 03       		.uleb128 0x3
 2874 0294 0E       		.uleb128 0xe
 2875 0295 3A       		.uleb128 0x3a
 2876 0296 0B       		.uleb128 0xb
 2877 0297 3B       		.uleb128 0x3b
 2878 0298 0B       		.uleb128 0xb
 2879 0299 27       		.uleb128 0x27
 2880 029a 19       		.uleb128 0x19
 2881 029b 49       		.uleb128 0x49
 2882 029c 13       		.uleb128 0x13
 2883 029d 20       		.uleb128 0x20
 2884 029e 0B       		.uleb128 0xb
 2885 029f 01       		.uleb128 0x1
 2886 02a0 13       		.uleb128 0x13
 2887 02a1 00       		.byte	0
 2888 02a2 00       		.byte	0
 2889 02a3 33       		.uleb128 0x33
 2890 02a4 2E       		.uleb128 0x2e
 2891 02a5 01       		.byte	0x1
 2892 02a6 03       		.uleb128 0x3
 2893 02a7 0E       		.uleb128 0xe
 2894 02a8 3A       		.uleb128 0x3a
 2895 02a9 0B       		.uleb128 0xb
 2896 02aa 3B       		.uleb128 0x3b
 2897 02ab 0B       		.uleb128 0xb
 2898 02ac 27       		.uleb128 0x27
 2899 02ad 19       		.uleb128 0x19
 2900 02ae 20       		.uleb128 0x20
 2901 02af 0B       		.uleb128 0xb
 2902 02b0 01       		.uleb128 0x1
 2903 02b1 13       		.uleb128 0x13
 2904 02b2 00       		.byte	0
 2905 02b3 00       		.byte	0
 2906 02b4 34       		.uleb128 0x34
 2907 02b5 2E       		.uleb128 0x2e
ARM GAS  /var/folders/3j/4xdnk5197cv_b7cw3n33qk7r0000gn/T//ccECGIus.s 			page 52


 2908 02b6 01       		.byte	0x1
 2909 02b7 31       		.uleb128 0x31
 2910 02b8 13       		.uleb128 0x13
 2911 02b9 11       		.uleb128 0x11
 2912 02ba 01       		.uleb128 0x1
 2913 02bb 12       		.uleb128 0x12
 2914 02bc 06       		.uleb128 0x6
 2915 02bd 40       		.uleb128 0x40
 2916 02be 18       		.uleb128 0x18
 2917 02bf 9742     		.uleb128 0x2117
 2918 02c1 19       		.uleb128 0x19
 2919 02c2 01       		.uleb128 0x1
 2920 02c3 13       		.uleb128 0x13
 2921 02c4 00       		.byte	0
 2922 02c5 00       		.byte	0
 2923 02c6 35       		.uleb128 0x35
 2924 02c7 05       		.uleb128 0x5
 2925 02c8 00       		.byte	0
 2926 02c9 31       		.uleb128 0x31
 2927 02ca 13       		.uleb128 0x13
 2928 02cb 02       		.uleb128 0x2
 2929 02cc 18       		.uleb128 0x18
 2930 02cd 00       		.byte	0
 2931 02ce 00       		.byte	0
 2932 02cf 36       		.uleb128 0x36
 2933 02d0 34       		.uleb128 0x34
 2934 02d1 00       		.byte	0
 2935 02d2 31       		.uleb128 0x31
 2936 02d3 13       		.uleb128 0x13
 2937 02d4 02       		.uleb128 0x2
 2938 02d5 18       		.uleb128 0x18
 2939 02d6 00       		.byte	0
 2940 02d7 00       		.byte	0
 2941 02d8 37       		.uleb128 0x37
 2942 02d9 2E       		.uleb128 0x2e
 2943 02da 00       		.byte	0
 2944 02db 3F       		.uleb128 0x3f
 2945 02dc 19       		.uleb128 0x19
 2946 02dd 3C       		.uleb128 0x3c
 2947 02de 19       		.uleb128 0x19
 2948 02df 6E       		.uleb128 0x6e
 2949 02e0 0E       		.uleb128 0xe
 2950 02e1 03       		.uleb128 0x3
 2951 02e2 0E       		.uleb128 0xe
 2952 02e3 3A       		.uleb128 0x3a
 2953 02e4 0B       		.uleb128 0xb
 2954 02e5 3B       		.uleb128 0x3b
 2955 02e6 0B       		.uleb128 0xb
 2956 02e7 00       		.byte	0
 2957 02e8 00       		.byte	0
 2958 02e9 00       		.byte	0
 2959              		.section	.debug_loc,"",%progbits
 2960              	.Ldebug_loc0:
 2961              	.LLST26:
 2962 0000 00000000 		.4byte	.LVL46
 2963 0004 28000000 		.4byte	.LVL48
 2964 0008 0100     		.2byte	0x1
ARM GAS  /var/folders/3j/4xdnk5197cv_b7cw3n33qk7r0000gn/T//ccECGIus.s 			page 53


 2965 000a 50       		.byte	0x50
 2966 000b 28000000 		.4byte	.LVL48
 2967 000f 50000000 		.4byte	.LFE18
 2968 0013 0100     		.2byte	0x1
 2969 0015 54       		.byte	0x54
 2970 0016 00000000 		.4byte	0
 2971 001a 00000000 		.4byte	0
 2972              	.LLST27:
 2973 001e 24000000 		.4byte	.LVL47
 2974 0022 28000000 		.4byte	.LVL48
 2975 0026 0300     		.2byte	0x3
 2976 0028 70       		.byte	0x70
 2977 0029 28       		.sleb128 40
 2978 002a 9F       		.byte	0x9f
 2979 002b 28000000 		.4byte	.LVL48
 2980 002f 30000000 		.4byte	.LVL49
 2981 0033 0300     		.2byte	0x3
 2982 0035 74       		.byte	0x74
 2983 0036 28       		.sleb128 40
 2984 0037 9F       		.byte	0x9f
 2985 0038 00000000 		.4byte	0
 2986 003c 00000000 		.4byte	0
 2987              	.LLST21:
 2988 0040 00000000 		.4byte	.LVL37
 2989 0044 20000000 		.4byte	.LVL39
 2990 0048 0100     		.2byte	0x1
 2991 004a 50       		.byte	0x50
 2992 004b 20000000 		.4byte	.LVL39
 2993 004f 64000000 		.4byte	.LFE17
 2994 0053 0400     		.2byte	0x4
 2995 0055 F3       		.byte	0xf3
 2996 0056 01       		.uleb128 0x1
 2997 0057 50       		.byte	0x50
 2998 0058 9F       		.byte	0x9f
 2999 0059 00000000 		.4byte	0
 3000 005d 00000000 		.4byte	0
 3001              	.LLST22:
 3002 0061 0C000000 		.4byte	.LVL38
 3003 0065 5C000000 		.4byte	.LVL42
 3004 0069 0100     		.2byte	0x1
 3005 006b 54       		.byte	0x54
 3006 006c 00000000 		.4byte	0
 3007 0070 00000000 		.4byte	0
 3008              	.LLST23:
 3009 0074 20000000 		.4byte	.LVL39
 3010 0078 2C000000 		.4byte	.LVL40
 3011 007c 0100     		.2byte	0x1
 3012 007e 55       		.byte	0x55
 3013 007f 00000000 		.4byte	0
 3014 0083 00000000 		.4byte	0
 3015              	.LLST24:
 3016 0087 20000000 		.4byte	.LVL39
 3017 008b 2C000000 		.4byte	.LVL40
 3018 008f 0100     		.2byte	0x1
 3019 0091 53       		.byte	0x53
 3020 0092 00000000 		.4byte	0
 3021 0096 00000000 		.4byte	0
ARM GAS  /var/folders/3j/4xdnk5197cv_b7cw3n33qk7r0000gn/T//ccECGIus.s 			page 54


 3022              	.LLST25:
 3023 009a 00000000 		.4byte	.LVL44
 3024 009e 07000000 		.4byte	.LVL45-1
 3025 00a2 0100     		.2byte	0x1
 3026 00a4 50       		.byte	0x50
 3027 00a5 07000000 		.4byte	.LVL45-1
 3028 00a9 08000000 		.4byte	.LFE16
 3029 00ad 0400     		.2byte	0x4
 3030 00af F3       		.byte	0xf3
 3031 00b0 01       		.uleb128 0x1
 3032 00b1 50       		.byte	0x50
 3033 00b2 9F       		.byte	0x9f
 3034 00b3 00000000 		.4byte	0
 3035 00b7 00000000 		.4byte	0
 3036              	.LLST20:
 3037 00bb 00000000 		.4byte	.LVL32
 3038 00bf 0C000000 		.4byte	.LVL33
 3039 00c3 0100     		.2byte	0x1
 3040 00c5 50       		.byte	0x50
 3041 00c6 0C000000 		.4byte	.LVL33
 3042 00ca 10000000 		.4byte	.LVL34
 3043 00ce 0600     		.2byte	0x6
 3044 00d0 70       		.byte	0x70
 3045 00d1 00       		.sleb128 0
 3046 00d2 71       		.byte	0x71
 3047 00d3 00       		.sleb128 0
 3048 00d4 1C       		.byte	0x1c
 3049 00d5 9F       		.byte	0x9f
 3050 00d6 10000000 		.4byte	.LVL34
 3051 00da 27000000 		.4byte	.LVL35-1
 3052 00de 0100     		.2byte	0x1
 3053 00e0 51       		.byte	0x51
 3054 00e1 00000000 		.4byte	0
 3055 00e5 00000000 		.4byte	0
 3056              	.LLST19:
 3057 00e9 00000000 		.4byte	.LVL29
 3058 00ed 10000000 		.4byte	.LVL30
 3059 00f1 0100     		.2byte	0x1
 3060 00f3 50       		.byte	0x50
 3061 00f4 10000000 		.4byte	.LVL30
 3062 00f8 13000000 		.4byte	.LVL31-1
 3063 00fc 0100     		.2byte	0x1
 3064 00fe 51       		.byte	0x51
 3065 00ff 13000000 		.4byte	.LVL31-1
 3066 0103 1C000000 		.4byte	.LFE13
 3067 0107 0400     		.2byte	0x4
 3068 0109 F3       		.byte	0xf3
 3069 010a 01       		.uleb128 0x1
 3070 010b 50       		.byte	0x50
 3071 010c 9F       		.byte	0x9f
 3072 010d 00000000 		.4byte	0
 3073 0111 00000000 		.4byte	0
 3074              	.LLST18:
 3075 0115 00000000 		.4byte	.LVL26
 3076 0119 13000000 		.4byte	.LVL27-1
 3077 011d 0100     		.2byte	0x1
 3078 011f 50       		.byte	0x50
ARM GAS  /var/folders/3j/4xdnk5197cv_b7cw3n33qk7r0000gn/T//ccECGIus.s 			page 55


 3079 0120 13000000 		.4byte	.LVL27-1
 3080 0124 20000000 		.4byte	.LFE11
 3081 0128 0100     		.2byte	0x1
 3082 012a 54       		.byte	0x54
 3083 012b 00000000 		.4byte	0
 3084 012f 00000000 		.4byte	0
 3085              	.LLST17:
 3086 0133 00000000 		.4byte	.LVL22
 3087 0137 18000000 		.4byte	.LVL23
 3088 013b 0100     		.2byte	0x1
 3089 013d 50       		.byte	0x50
 3090 013e 18000000 		.4byte	.LVL23
 3091 0142 3F000000 		.4byte	.LVL25-1
 3092 0146 0100     		.2byte	0x1
 3093 0148 51       		.byte	0x51
 3094 0149 3F000000 		.4byte	.LVL25-1
 3095 014d 50000000 		.4byte	.LFE10
 3096 0151 0400     		.2byte	0x4
 3097 0153 F3       		.byte	0xf3
 3098 0154 01       		.uleb128 0x1
 3099 0155 50       		.byte	0x50
 3100 0156 9F       		.byte	0x9f
 3101 0157 00000000 		.4byte	0
 3102 015b 00000000 		.4byte	0
 3103              	.LLST6:
 3104 015f 00000000 		.4byte	.LVL11
 3105 0163 93000000 		.4byte	.LVL21-1
 3106 0167 0100     		.2byte	0x1
 3107 0169 50       		.byte	0x50
 3108 016a 93000000 		.4byte	.LVL21-1
 3109 016e A8000000 		.4byte	.LFE9
 3110 0172 0100     		.2byte	0x1
 3111 0174 54       		.byte	0x54
 3112 0175 00000000 		.4byte	0
 3113 0179 00000000 		.4byte	0
 3114              	.LLST7:
 3115 017d 00000000 		.4byte	.LVL11
 3116 0181 24000000 		.4byte	.LVL13
 3117 0185 0100     		.2byte	0x1
 3118 0187 51       		.byte	0x51
 3119 0188 24000000 		.4byte	.LVL13
 3120 018c 38000000 		.4byte	.LVL15
 3121 0190 0300     		.2byte	0x3
 3122 0192 71       		.byte	0x71
 3123 0193 24       		.sleb128 36
 3124 0194 9F       		.byte	0x9f
 3125 0195 38000000 		.4byte	.LVL15
 3126 0199 A8000000 		.4byte	.LFE9
 3127 019d 0400     		.2byte	0x4
 3128 019f F3       		.byte	0xf3
 3129 01a0 01       		.uleb128 0x1
 3130 01a1 51       		.byte	0x51
 3131 01a2 9F       		.byte	0x9f
 3132 01a3 00000000 		.4byte	0
 3133 01a7 00000000 		.4byte	0
 3134              	.LLST8:
 3135 01ab 00000000 		.4byte	.LVL11
ARM GAS  /var/folders/3j/4xdnk5197cv_b7cw3n33qk7r0000gn/T//ccECGIus.s 			page 56


 3136 01af 54000000 		.4byte	.LVL19
 3137 01b3 0100     		.2byte	0x1
 3138 01b5 52       		.byte	0x52
 3139 01b6 54000000 		.4byte	.LVL19
 3140 01ba 93000000 		.4byte	.LVL21-1
 3141 01be 0200     		.2byte	0x2
 3142 01c0 70       		.byte	0x70
 3143 01c1 08       		.sleb128 8
 3144 01c2 93000000 		.4byte	.LVL21-1
 3145 01c6 A8000000 		.4byte	.LFE9
 3146 01ca 0400     		.2byte	0x4
 3147 01cc F3       		.byte	0xf3
 3148 01cd 01       		.uleb128 0x1
 3149 01ce 52       		.byte	0x52
 3150 01cf 9F       		.byte	0x9f
 3151 01d0 00000000 		.4byte	0
 3152 01d4 00000000 		.4byte	0
 3153              	.LLST9:
 3154 01d8 00000000 		.4byte	.LVL11
 3155 01dc 34000000 		.4byte	.LVL14
 3156 01e0 0100     		.2byte	0x1
 3157 01e2 53       		.byte	0x53
 3158 01e3 34000000 		.4byte	.LVL14
 3159 01e7 44000000 		.4byte	.LVL17
 3160 01eb 0200     		.2byte	0x2
 3161 01ed 7E       		.byte	0x7e
 3162 01ee 00       		.sleb128 0
 3163 01ef 44000000 		.4byte	.LVL17
 3164 01f3 50000000 		.4byte	.LVL18
 3165 01f7 0300     		.2byte	0x3
 3166 01f9 70       		.byte	0x70
 3167 01fa 0C       		.sleb128 12
 3168 01fb 06       		.byte	0x6
 3169 01fc 50000000 		.4byte	.LVL18
 3170 0200 A8000000 		.4byte	.LFE9
 3171 0204 0400     		.2byte	0x4
 3172 0206 F3       		.byte	0xf3
 3173 0207 01       		.uleb128 0x1
 3174 0208 53       		.byte	0x53
 3175 0209 9F       		.byte	0x9f
 3176 020a 00000000 		.4byte	0
 3177 020e 00000000 		.4byte	0
 3178              	.LLST10:
 3179 0212 10000000 		.4byte	.LVL12
 3180 0216 90000000 		.4byte	.LVL20
 3181 021a 0100     		.2byte	0x1
 3182 021c 58       		.byte	0x58
 3183 021d 00000000 		.4byte	0
 3184 0221 00000000 		.4byte	0
 3185              	.LLST11:
 3186 0225 10000000 		.4byte	.LVL12
 3187 0229 34000000 		.4byte	.LVL14
 3188 022d 0100     		.2byte	0x1
 3189 022f 53       		.byte	0x53
 3190 0230 34000000 		.4byte	.LVL14
 3191 0234 44000000 		.4byte	.LVL17
 3192 0238 0200     		.2byte	0x2
ARM GAS  /var/folders/3j/4xdnk5197cv_b7cw3n33qk7r0000gn/T//ccECGIus.s 			page 57


 3193 023a 7E       		.byte	0x7e
 3194 023b 00       		.sleb128 0
 3195 023c 44000000 		.4byte	.LVL17
 3196 0240 50000000 		.4byte	.LVL18
 3197 0244 0300     		.2byte	0x3
 3198 0246 70       		.byte	0x70
 3199 0247 0C       		.sleb128 12
 3200 0248 06       		.byte	0x6
 3201 0249 50000000 		.4byte	.LVL18
 3202 024d 90000000 		.4byte	.LVL20
 3203 0251 0400     		.2byte	0x4
 3204 0253 F3       		.byte	0xf3
 3205 0254 01       		.uleb128 0x1
 3206 0255 53       		.byte	0x53
 3207 0256 9F       		.byte	0x9f
 3208 0257 00000000 		.4byte	0
 3209 025b 00000000 		.4byte	0
 3210              	.LLST12:
 3211 025f 10000000 		.4byte	.LVL12
 3212 0263 54000000 		.4byte	.LVL19
 3213 0267 0100     		.2byte	0x1
 3214 0269 52       		.byte	0x52
 3215 026a 54000000 		.4byte	.LVL19
 3216 026e 90000000 		.4byte	.LVL20
 3217 0272 0200     		.2byte	0x2
 3218 0274 70       		.byte	0x70
 3219 0275 08       		.sleb128 8
 3220 0276 00000000 		.4byte	0
 3221 027a 00000000 		.4byte	0
 3222              	.LLST13:
 3223 027e 10000000 		.4byte	.LVL12
 3224 0282 24000000 		.4byte	.LVL13
 3225 0286 0100     		.2byte	0x1
 3226 0288 51       		.byte	0x51
 3227 0289 24000000 		.4byte	.LVL13
 3228 028d 38000000 		.4byte	.LVL15
 3229 0291 0300     		.2byte	0x3
 3230 0293 71       		.byte	0x71
 3231 0294 24       		.sleb128 36
 3232 0295 9F       		.byte	0x9f
 3233 0296 38000000 		.4byte	.LVL15
 3234 029a 90000000 		.4byte	.LVL20
 3235 029e 0400     		.2byte	0x4
 3236 02a0 F3       		.byte	0xf3
 3237 02a1 01       		.uleb128 0x1
 3238 02a2 51       		.byte	0x51
 3239 02a3 9F       		.byte	0x9f
 3240 02a4 00000000 		.4byte	0
 3241 02a8 00000000 		.4byte	0
 3242              	.LLST14:
 3243 02ac 10000000 		.4byte	.LVL12
 3244 02b0 90000000 		.4byte	.LVL20
 3245 02b4 0100     		.2byte	0x1
 3246 02b6 50       		.byte	0x50
 3247 02b7 00000000 		.4byte	0
 3248 02bb 00000000 		.4byte	0
 3249              	.LLST15:
ARM GAS  /var/folders/3j/4xdnk5197cv_b7cw3n33qk7r0000gn/T//ccECGIus.s 			page 58


 3250 02bf 40000000 		.4byte	.LVL16
 3251 02c3 54000000 		.4byte	.LVL19
 3252 02c7 0100     		.2byte	0x1
 3253 02c9 52       		.byte	0x52
 3254 02ca 54000000 		.4byte	.LVL19
 3255 02ce 90000000 		.4byte	.LVL20
 3256 02d2 0200     		.2byte	0x2
 3257 02d4 70       		.byte	0x70
 3258 02d5 08       		.sleb128 8
 3259 02d6 00000000 		.4byte	0
 3260 02da 00000000 		.4byte	0
 3261              	.LLST16:
 3262 02de 40000000 		.4byte	.LVL16
 3263 02e2 90000000 		.4byte	.LVL20
 3264 02e6 0100     		.2byte	0x1
 3265 02e8 50       		.byte	0x50
 3266 02e9 00000000 		.4byte	0
 3267 02ed 00000000 		.4byte	0
 3268              	.LLST0:
 3269 02f1 00000000 		.4byte	.LVL0
 3270 02f5 30000000 		.4byte	.LVL1
 3271 02f9 0100     		.2byte	0x1
 3272 02fb 51       		.byte	0x51
 3273 02fc 30000000 		.4byte	.LVL1
 3274 0300 6C000000 		.4byte	.LFE7
 3275 0304 0200     		.2byte	0x2
 3276 0306 70       		.byte	0x70
 3277 0307 08       		.sleb128 8
 3278 0308 00000000 		.4byte	0
 3279 030c 00000000 		.4byte	0
 3280              	.LLST1:
 3281 0310 00000000 		.4byte	.LVL2
 3282 0314 18000000 		.4byte	.LVL3
 3283 0318 0100     		.2byte	0x1
 3284 031a 51       		.byte	0x51
 3285 031b 18000000 		.4byte	.LVL3
 3286 031f 28000000 		.4byte	.LVL4
 3287 0323 0300     		.2byte	0x3
 3288 0325 71       		.byte	0x71
 3289 0326 24       		.sleb128 36
 3290 0327 9F       		.byte	0x9f
 3291 0328 28000000 		.4byte	.LVL4
 3292 032c 90000000 		.4byte	.LFE8
 3293 0330 0400     		.2byte	0x4
 3294 0332 F3       		.byte	0xf3
 3295 0333 01       		.uleb128 0x1
 3296 0334 51       		.byte	0x51
 3297 0335 9F       		.byte	0x9f
 3298 0336 00000000 		.4byte	0
 3299 033a 00000000 		.4byte	0
 3300              	.LLST2:
 3301 033e 00000000 		.4byte	.LVL2
 3302 0342 4C000000 		.4byte	.LVL8
 3303 0346 0100     		.2byte	0x1
 3304 0348 52       		.byte	0x52
 3305 0349 4C000000 		.4byte	.LVL8
 3306 034d 90000000 		.4byte	.LFE8
ARM GAS  /var/folders/3j/4xdnk5197cv_b7cw3n33qk7r0000gn/T//ccECGIus.s 			page 59


 3307 0351 0200     		.2byte	0x2
 3308 0353 70       		.byte	0x70
 3309 0354 08       		.sleb128 8
 3310 0355 00000000 		.4byte	0
 3311 0359 00000000 		.4byte	0
 3312              	.LLST3:
 3313 035d 00000000 		.4byte	.LVL2
 3314 0361 2C000000 		.4byte	.LVL5
 3315 0365 0100     		.2byte	0x1
 3316 0367 53       		.byte	0x53
 3317 0368 2C000000 		.4byte	.LVL5
 3318 036c 48000000 		.4byte	.LVL7
 3319 0370 0200     		.2byte	0x2
 3320 0372 74       		.byte	0x74
 3321 0373 00       		.sleb128 0
 3322 0374 48000000 		.4byte	.LVL7
 3323 0378 58000000 		.4byte	.LVL9
 3324 037c 0300     		.2byte	0x3
 3325 037e 70       		.byte	0x70
 3326 037f 0C       		.sleb128 12
 3327 0380 06       		.byte	0x6
 3328 0381 58000000 		.4byte	.LVL9
 3329 0385 90000000 		.4byte	.LFE8
 3330 0389 0400     		.2byte	0x4
 3331 038b F3       		.byte	0xf3
 3332 038c 01       		.uleb128 0x1
 3333 038d 53       		.byte	0x53
 3334 038e 9F       		.byte	0x9f
 3335 038f 00000000 		.4byte	0
 3336 0393 00000000 		.4byte	0
 3337              	.LLST4:
 3338 0397 38000000 		.4byte	.LVL6
 3339 039b 4C000000 		.4byte	.LVL8
 3340 039f 0100     		.2byte	0x1
 3341 03a1 52       		.byte	0x52
 3342 03a2 4C000000 		.4byte	.LVL8
 3343 03a6 84000000 		.4byte	.LVL10
 3344 03aa 0200     		.2byte	0x2
 3345 03ac 70       		.byte	0x70
 3346 03ad 08       		.sleb128 8
 3347 03ae 00000000 		.4byte	0
 3348 03b2 00000000 		.4byte	0
 3349              	.LLST5:
 3350 03b6 38000000 		.4byte	.LVL6
 3351 03ba 84000000 		.4byte	.LVL10
 3352 03be 0100     		.2byte	0x1
 3353 03c0 50       		.byte	0x50
 3354 03c1 00000000 		.4byte	0
 3355 03c5 00000000 		.4byte	0
 3356              		.section	.debug_aranges,"",%progbits
 3357 0000 74000000 		.4byte	0x74
 3358 0004 0200     		.2byte	0x2
 3359 0006 00000000 		.4byte	.Ldebug_info0
 3360 000a 04       		.byte	0x4
 3361 000b 00       		.byte	0
 3362 000c 0000     		.2byte	0
 3363 000e 0000     		.2byte	0
ARM GAS  /var/folders/3j/4xdnk5197cv_b7cw3n33qk7r0000gn/T//ccECGIus.s 			page 60


 3364 0010 00000000 		.4byte	.LFB7
 3365 0014 6C000000 		.4byte	.LFE7-.LFB7
 3366 0018 00000000 		.4byte	.LFB8
 3367 001c 90000000 		.4byte	.LFE8-.LFB8
 3368 0020 00000000 		.4byte	.LFB9
 3369 0024 A8000000 		.4byte	.LFE9-.LFB9
 3370 0028 00000000 		.4byte	.LFB10
 3371 002c 50000000 		.4byte	.LFE10-.LFB10
 3372 0030 00000000 		.4byte	.LFB11
 3373 0034 20000000 		.4byte	.LFE11-.LFB11
 3374 0038 00000000 		.4byte	.LFB12
 3375 003c 18000000 		.4byte	.LFE12-.LFB12
 3376 0040 00000000 		.4byte	.LFB13
 3377 0044 1C000000 		.4byte	.LFE13-.LFB13
 3378 0048 00000000 		.4byte	.LFB14
 3379 004c 34000000 		.4byte	.LFE14-.LFB14
 3380 0050 00000000 		.4byte	.LFB15
 3381 0054 3C000000 		.4byte	.LFE15-.LFB15
 3382 0058 00000000 		.4byte	.LFB17
 3383 005c 64000000 		.4byte	.LFE17-.LFB17
 3384 0060 00000000 		.4byte	.LFB16
 3385 0064 08000000 		.4byte	.LFE16-.LFB16
 3386 0068 00000000 		.4byte	.LFB18
 3387 006c 50000000 		.4byte	.LFE18-.LFB18
 3388 0070 00000000 		.4byte	0
 3389 0074 00000000 		.4byte	0
 3390              		.section	.debug_ranges,"",%progbits
 3391              	.Ldebug_ranges0:
 3392 0000 04000000 		.4byte	.LBB12
 3393 0004 14000000 		.4byte	.LBE12
 3394 0008 28000000 		.4byte	.LBB16
 3395 000c 2C000000 		.4byte	.LBE16
 3396 0010 38000000 		.4byte	.LBB17
 3397 0014 84000000 		.4byte	.LBE17
 3398 0018 00000000 		.4byte	0
 3399 001c 00000000 		.4byte	0
 3400 0020 10000000 		.4byte	.LBB18
 3401 0024 7C000000 		.4byte	.LBE18
 3402 0028 80000000 		.4byte	.LBB29
 3403 002c 90000000 		.4byte	.LBE29
 3404 0030 00000000 		.4byte	0
 3405 0034 00000000 		.4byte	0
 3406 0038 10000000 		.4byte	.LBB20
 3407 003c 20000000 		.4byte	.LBE20
 3408 0040 30000000 		.4byte	.LBB25
 3409 0044 34000000 		.4byte	.LBE25
 3410 0048 40000000 		.4byte	.LBB26
 3411 004c 7C000000 		.4byte	.LBE26
 3412 0050 80000000 		.4byte	.LBB27
 3413 0054 90000000 		.4byte	.LBE27
 3414 0058 00000000 		.4byte	0
 3415 005c 00000000 		.4byte	0
 3416 0060 20000000 		.4byte	.LBB30
 3417 0064 24000000 		.4byte	.LBE30
 3418 0068 28000000 		.4byte	.LBB33
 3419 006c 2C000000 		.4byte	.LBE33
 3420 0070 00000000 		.4byte	0
ARM GAS  /var/folders/3j/4xdnk5197cv_b7cw3n33qk7r0000gn/T//ccECGIus.s 			page 61


 3421 0074 00000000 		.4byte	0
 3422 0078 1C000000 		.4byte	.LBB34
 3423 007c 20000000 		.4byte	.LBE34
 3424 0080 28000000 		.4byte	.LBB37
 3425 0084 30000000 		.4byte	.LBE37
 3426 0088 00000000 		.4byte	0
 3427 008c 00000000 		.4byte	0
 3428 0090 00000000 		.4byte	.LFB7
 3429 0094 6C000000 		.4byte	.LFE7
 3430 0098 00000000 		.4byte	.LFB8
 3431 009c 90000000 		.4byte	.LFE8
 3432 00a0 00000000 		.4byte	.LFB9
 3433 00a4 A8000000 		.4byte	.LFE9
 3434 00a8 00000000 		.4byte	.LFB10
 3435 00ac 50000000 		.4byte	.LFE10
 3436 00b0 00000000 		.4byte	.LFB11
 3437 00b4 20000000 		.4byte	.LFE11
 3438 00b8 00000000 		.4byte	.LFB12
 3439 00bc 18000000 		.4byte	.LFE12
 3440 00c0 00000000 		.4byte	.LFB13
 3441 00c4 1C000000 		.4byte	.LFE13
 3442 00c8 00000000 		.4byte	.LFB14
 3443 00cc 34000000 		.4byte	.LFE14
 3444 00d0 00000000 		.4byte	.LFB15
 3445 00d4 3C000000 		.4byte	.LFE15
 3446 00d8 00000000 		.4byte	.LFB17
 3447 00dc 64000000 		.4byte	.LFE17
 3448 00e0 00000000 		.4byte	.LFB16
 3449 00e4 08000000 		.4byte	.LFE16
 3450 00e8 00000000 		.4byte	.LFB18
 3451 00ec 50000000 		.4byte	.LFE18
 3452 00f0 00000000 		.4byte	0
 3453 00f4 00000000 		.4byte	0
 3454              		.section	.debug_line,"",%progbits
 3455              	.Ldebug_line0:
 3456 0000 F9030000 		.section	.debug_str,"MS",%progbits,1
 3456      0200FA01 
 3456      00000201 
 3456      FB0E0D00 
 3456      01010101 
 3457              	.LASF126:
 3458 0000 2F557365 		.ascii	"/Users/kevinmalmsten/development_raspberry_pi/Backu"
 3458      72732F6B 
 3458      6576696E 
 3458      6D616C6D 
 3458      7374656E 
 3459 0033 7053656E 		.ascii	"pSensor_ChibiOS/__Backup_System\000"
 3459      736F725F 
 3459      43686962 
 3459      694F532F 
 3459      5F5F4261 
 3460              	.LASF78:
 3461 0053 7466756E 		.ascii	"tfunc_t\000"
 3461      635F7400 
 3462              	.LASF89:
 3463 005b 63665F6F 		.ascii	"cf_off_older\000"
 3463      66665F6F 
ARM GAS  /var/folders/3j/4xdnk5197cv_b7cw3n33qk7r0000gn/T//ccECGIus.s 			page 62


 3463      6C646572 
 3463      00
 3464              	.LASF41:
 3465 0068 705F6D73 		.ascii	"p_msg\000"
 3465      6700
 3466              	.LASF2:
 3467 006e 73697A65 		.ascii	"size_t\000"
 3467      5F7400
 3468              	.LASF114:
 3469 0075 7072696F 		.ascii	"prio\000"
 3469      00
 3470              	.LASF73:
 3471 007a 7264796D 		.ascii	"rdymsg\000"
 3471      736700
 3472              	.LASF3:
 3473 0081 5F5F7569 		.ascii	"__uint8_t\000"
 3473      6E74385F 
 3473      7400
 3474              	.LASF67:
 3475 008b 76746C69 		.ascii	"vtlist\000"
 3475      737400
 3476              	.LASF100:
 3477 0092 63685468 		.ascii	"chThdExitS\000"
 3477      64457869 
 3477      745300
 3478              	.LASF13:
 3479 009d 6C6F6E67 		.ascii	"long long unsigned int\000"
 3479      206C6F6E 
 3479      6720756E 
 3479      7369676E 
 3479      65642069 
 3480              	.LASF85:
 3481 00b4 63685F74 		.ascii	"ch_threadsize\000"
 3481      68726561 
 3481      6473697A 
 3481      6500
 3482              	.LASF74:
 3483 00c2 65786974 		.ascii	"exitcode\000"
 3483      636F6465 
 3483      00
 3484              	.LASF29:
 3485 00cb 705F7072 		.ascii	"p_prio\000"
 3485      696F00
 3486              	.LASF92:
 3487 00d2 63665F6F 		.ascii	"cf_off_state\000"
 3487      66665F73 
 3487      74617465 
 3487      00
 3488              	.LASF12:
 3489 00df 6C6F6E67 		.ascii	"long long int\000"
 3489      206C6F6E 
 3489      6720696E 
 3489      7400
 3490              	.LASF1:
 3491 00ed 7369676E 		.ascii	"signed char\000"
 3491      65642063 
 3491      68617200 
ARM GAS  /var/folders/3j/4xdnk5197cv_b7cw3n33qk7r0000gn/T//ccECGIus.s 			page 63


 3492              	.LASF101:
 3493 00f9 63685468 		.ascii	"chThdExit\000"
 3493      64457869 
 3493      7400
 3494              	.LASF91:
 3495 0103 63665F6F 		.ascii	"cf_off_stklimit\000"
 3495      66665F73 
 3495      746B6C69 
 3495      6D697400 
 3496              	.LASF93:
 3497 0113 63665F6F 		.ascii	"cf_off_flags\000"
 3497      66665F66 
 3497      6C616773 
 3497      00
 3498              	.LASF70:
 3499 0120 6D5F7175 		.ascii	"m_queue\000"
 3499      65756500 
 3500              	.LASF124:
 3501 0128 474E5520 		.ascii	"GNU C11 7.3.1 20180622 (release) [ARM/embedded-7-br"
 3501      43313120 
 3501      372E332E 
 3501      31203230 
 3501      31383036 
 3502 015b 616E6368 		.ascii	"anch revision 261907] -mcpu=arm1176jz-s -mno-thumb-"
 3502      20726576 
 3502      6973696F 
 3502      6E203236 
 3502      31393037 
 3503 018e 696E7465 		.ascii	"interwork -ggdb -O2 -fomit-frame-pointer -ffunction"
 3503      72776F72 
 3503      6B202D67 
 3503      67646220 
 3503      2D4F3220 
 3504 01c1 2D736563 		.ascii	"-sections -fdata-sections\000"
 3504      74696F6E 
 3504      73202D66 
 3504      64617461 
 3504      2D736563 
 3505              	.LASF115:
 3506 01db 63685468 		.ascii	"chThdCreateI\000"
 3506      64437265 
 3506      61746549 
 3506      00
 3507              	.LASF9:
 3508 01e8 6C6F6E67 		.ascii	"long int\000"
 3508      20696E74 
 3508      00
 3509              	.LASF19:
 3510 01f1 74737461 		.ascii	"tstate_t\000"
 3510      74655F74 
 3510      00
 3511              	.LASF15:
 3512 01fa 75696E74 		.ascii	"uint16_t\000"
 3512      31365F74 
 3512      00
 3513              	.LASF97:
 3514 0203 63686465 		.ascii	"chdebug_t\000"
ARM GAS  /var/folders/3j/4xdnk5197cv_b7cw3n33qk7r0000gn/T//ccECGIus.s 			page 64


 3514      6275675F 
 3514      7400
 3515              	.LASF31:
 3516 020d 705F6E65 		.ascii	"p_newer\000"
 3516      77657200 
 3517              	.LASF99:
 3518 0215 5F69646C 		.ascii	"_idle_thread_wa\000"
 3518      655F7468 
 3518      72656164 
 3518      5F776100 
 3519              	.LASF127:
 3520 0225 6C697374 		.ascii	"list_remove\000"
 3520      5F72656D 
 3520      6F766500 
 3521              	.LASF123:
 3522 0231 63685363 		.ascii	"chSchRescheduleS\000"
 3522      68526573 
 3522      63686564 
 3522      756C6553 
 3522      00
 3523              	.LASF10:
 3524 0242 5F5F7569 		.ascii	"__uint32_t\000"
 3524      6E743332 
 3524      5F7400
 3525              	.LASF48:
 3526 024d 72656761 		.ascii	"regarm_t\000"
 3526      726D5F74 
 3526      00
 3527              	.LASF54:
 3528 0256 76745F70 		.ascii	"vt_prev\000"
 3528      72657600 
 3529              	.LASF109:
 3530 025e 63685468 		.ascii	"chThdSetPriority\000"
 3530      64536574 
 3530      5072696F 
 3530      72697479 
 3530      00
 3531              	.LASF0:
 3532 026f 756E7369 		.ascii	"unsigned int\000"
 3532      676E6564 
 3532      20696E74 
 3532      00
 3533              	.LASF116:
 3534 027c 5F746872 		.ascii	"_thread_init\000"
 3534      6561645F 
 3534      696E6974 
 3534      00
 3535              	.LASF53:
 3536 0289 76745F6E 		.ascii	"vt_next\000"
 3536      65787400 
 3537              	.LASF11:
 3538 0291 6C6F6E67 		.ascii	"long unsigned int\000"
 3538      20756E73 
 3538      69676E65 
 3538      6420696E 
 3538      7400
 3539              	.LASF98:
ARM GAS  /var/folders/3j/4xdnk5197cv_b7cw3n33qk7r0000gn/T//ccECGIus.s 			page 65


 3540 02a3 63685F64 		.ascii	"ch_debug\000"
 3540      65627567 
 3540      00
 3541              	.LASF51:
 3542 02ac 76746675 		.ascii	"vtfunc_t\000"
 3542      6E635F74 
 3542      00
 3543              	.LASF79:
 3544 02b5 63685F69 		.ascii	"ch_identifier\000"
 3544      64656E74 
 3544      69666965 
 3544      7200
 3545              	.LASF50:
 3546 02c3 636F6E74 		.ascii	"context\000"
 3546      65787400 
 3547              	.LASF113:
 3548 02cb 73697A65 		.ascii	"size\000"
 3548      00
 3549              	.LASF7:
 3550 02d0 73686F72 		.ascii	"short unsigned int\000"
 3550      7420756E 
 3550      7369676E 
 3550      65642069 
 3550      6E7400
 3551              	.LASF122:
 3552 02e3 63685363 		.ascii	"chSchWakeupS\000"
 3552      6857616B 
 3552      65757053 
 3552      00
 3553              	.LASF23:
 3554 02f0 6D73675F 		.ascii	"msg_t\000"
 3554      7400
 3555              	.LASF63:
 3556 02f6 725F6E65 		.ascii	"r_newer\000"
 3556      77657200 
 3557              	.LASF110:
 3558 02fe 6E657770 		.ascii	"newprio\000"
 3558      72696F00 
 3559              	.LASF18:
 3560 0306 746D6F64 		.ascii	"tmode_t\000"
 3560      655F7400 
 3561              	.LASF106:
 3562 030e 63685468 		.ascii	"chThdTerminate\000"
 3562      64546572 
 3562      6D696E61 
 3562      746500
 3563              	.LASF46:
 3564 031d 54687265 		.ascii	"ThreadsList\000"
 3564      6164734C 
 3564      69737400 
 3565              	.LASF24:
 3566 0329 6576656E 		.ascii	"eventmask_t\000"
 3566      746D6173 
 3566      6B5F7400 
 3567              	.LASF69:
 3568 0335 4D757465 		.ascii	"Mutex\000"
 3568      7800
ARM GAS  /var/folders/3j/4xdnk5197cv_b7cw3n33qk7r0000gn/T//ccECGIus.s 			page 66


 3569              	.LASF111:
 3570 033b 6F6C6470 		.ascii	"oldprio\000"
 3570      72696F00 
 3571              	.LASF47:
 3572 0343 73746B61 		.ascii	"stkalign_t\000"
 3572      6C69676E 
 3572      5F7400
 3573              	.LASF112:
 3574 034e 63685468 		.ascii	"chThdCreateStatic\000"
 3574      64437265 
 3574      61746553 
 3574      74617469 
 3574      6300
 3575              	.LASF80:
 3576 0360 63685F7A 		.ascii	"ch_zero\000"
 3576      65726F00 
 3577              	.LASF94:
 3578 0368 63665F6F 		.ascii	"cf_off_refs\000"
 3578      66665F72 
 3578      65667300 
 3579              	.LASF55:
 3580 0374 76745F74 		.ascii	"vt_time\000"
 3580      696D6500 
 3581              	.LASF56:
 3582 037c 76745F66 		.ascii	"vt_func\000"
 3582      756E6300 
 3583              	.LASF84:
 3584 0384 63685F74 		.ascii	"ch_timesize\000"
 3584      696D6573 
 3584      697A6500 
 3585              	.LASF108:
 3586 0390 63685468 		.ascii	"chThdResume\000"
 3586      64526573 
 3586      756D6500 
 3587              	.LASF120:
 3588 039c 63685363 		.ascii	"chSchDoRescheduleBehind\000"
 3588      68446F52 
 3588      65736368 
 3588      6564756C 
 3588      65426568 
 3589              	.LASF90:
 3590 03b4 63665F6F 		.ascii	"cf_off_name\000"
 3590      66665F6E 
 3590      616D6500 
 3591              	.LASF32:
 3592 03c0 705F6F6C 		.ascii	"p_older\000"
 3592      64657200 
 3593              	.LASF62:
 3594 03c8 725F6374 		.ascii	"r_ctx\000"
 3594      7800
 3595              	.LASF45:
 3596 03ce 54687265 		.ascii	"ThreadsQueue\000"
 3596      61647351 
 3596      75657565 
 3596      00
 3597              	.LASF81:
 3598 03db 63685F73 		.ascii	"ch_size\000"
ARM GAS  /var/folders/3j/4xdnk5197cv_b7cw3n33qk7r0000gn/T//ccECGIus.s 			page 67


 3598      697A6500 
 3599              	.LASF104:
 3600 03e3 74696D65 		.ascii	"time\000"
 3600      00
 3601              	.LASF128:
 3602 03e8 6C697374 		.ascii	"list_insert\000"
 3602      5F696E73 
 3602      65727400 
 3603              	.LASF65:
 3604 03f4 725F6375 		.ascii	"r_current\000"
 3604      7272656E 
 3604      7400
 3605              	.LASF125:
 3606 03fe 2E2E2F2F 		.ascii	"..//os/kernel/src/chthreads.c\000"
 3606      6F732F6B 
 3606      65726E65 
 3606      6C2F7372 
 3606      632F6368 
 3607              	.LASF103:
 3608 041c 63685468 		.ascii	"chThdSleepUntil\000"
 3608      64536C65 
 3608      6570556E 
 3608      74696C00 
 3609              	.LASF20:
 3610 042c 74726566 		.ascii	"trefs_t\000"
 3610      735F7400 
 3611              	.LASF83:
 3612 0434 63685F70 		.ascii	"ch_ptrsize\000"
 3612      74727369 
 3612      7A6500
 3613              	.LASF28:
 3614 043f 705F7072 		.ascii	"p_prev\000"
 3614      657600
 3615              	.LASF22:
 3616 0446 74707269 		.ascii	"tprio_t\000"
 3616      6F5F7400 
 3617              	.LASF16:
 3618 044e 696E7433 		.ascii	"int32_t\000"
 3618      325F7400 
 3619              	.LASF4:
 3620 0456 756E7369 		.ascii	"unsigned char\000"
 3620      676E6564 
 3620      20636861 
 3620      7200
 3621              	.LASF43:
 3622 0464 705F6D74 		.ascii	"p_mtxlist\000"
 3622      786C6973 
 3622      7400
 3623              	.LASF5:
 3624 046e 73686F72 		.ascii	"short int\000"
 3624      7420696E 
 3624      7400
 3625              	.LASF34:
 3626 0478 705F7374 		.ascii	"p_state\000"
 3626      61746500 
 3627              	.LASF37:
 3628 0480 705F7072 		.ascii	"p_preempt\000"
ARM GAS  /var/folders/3j/4xdnk5197cv_b7cw3n33qk7r0000gn/T//ccECGIus.s 			page 68


 3628      65656D70 
 3628      7400
 3629              	.LASF96:
 3630 048a 63665F6F 		.ascii	"cf_off_time\000"
 3630      66665F74 
 3630      696D6500 
 3631              	.LASF61:
 3632 0496 725F7072 		.ascii	"r_prio\000"
 3632      696F00
 3633              	.LASF76:
 3634 049d 65776D61 		.ascii	"ewmask\000"
 3634      736B00
 3635              	.LASF27:
 3636 04a4 705F6E65 		.ascii	"p_next\000"
 3636      787400
 3637              	.LASF95:
 3638 04ab 63665F6F 		.ascii	"cf_off_preempt\000"
 3638      66665F70 
 3638      7265656D 
 3638      707400
 3639              	.LASF35:
 3640 04ba 705F666C 		.ascii	"p_flags\000"
 3640      61677300 
 3641              	.LASF118:
 3642 04c2 63685468 		.ascii	"chThdRelease\000"
 3642      6452656C 
 3642      65617365 
 3642      00
 3643              	.LASF26:
 3644 04cf 54687265 		.ascii	"Thread\000"
 3644      616400
 3645              	.LASF88:
 3646 04d6 63665F6F 		.ascii	"cf_off_newer\000"
 3646      66665F6E 
 3646      65776572 
 3646      00
 3647              	.LASF117:
 3648 04e3 63685363 		.ascii	"chSchGoSleepS\000"
 3648      68476F53 
 3648      6C656570 
 3648      5300
 3649              	.LASF42:
 3650 04f1 705F6570 		.ascii	"p_epending\000"
 3650      656E6469 
 3650      6E6700
 3651              	.LASF105:
 3652 04fc 63685468 		.ascii	"chThdSleep\000"
 3652      64536C65 
 3652      657000
 3653              	.LASF17:
 3654 0507 75696E74 		.ascii	"uint32_t\000"
 3654      33325F74 
 3654      00
 3655              	.LASF86:
 3656 0510 63665F6F 		.ascii	"cf_off_prio\000"
 3656      66665F70 
 3656      72696F00 
ARM GAS  /var/folders/3j/4xdnk5197cv_b7cw3n33qk7r0000gn/T//ccECGIus.s 			page 69


 3657              	.LASF60:
 3658 051c 725F7175 		.ascii	"r_queue\000"
 3658      65756500 
 3659              	.LASF52:
 3660 0524 56697274 		.ascii	"VirtualTimer\000"
 3660      75616C54 
 3660      696D6572 
 3660      00
 3661              	.LASF21:
 3662 0531 74736C69 		.ascii	"tslices_t\000"
 3662      6365735F 
 3662      7400
 3663              	.LASF77:
 3664 053b 63686172 		.ascii	"char\000"
 3664      00
 3665              	.LASF6:
 3666 0540 5F5F7569 		.ascii	"__uint16_t\000"
 3666      6E743136 
 3666      5F7400
 3667              	.LASF119:
 3668 054b 63685363 		.ascii	"chSchReadyI\000"
 3668      68526561 
 3668      64794900 
 3669              	.LASF72:
 3670 0557 6D5F6E65 		.ascii	"m_next\000"
 3670      787400
 3671              	.LASF25:
 3672 055e 73797374 		.ascii	"systime_t\000"
 3672      696D655F 
 3672      7400
 3673              	.LASF44:
 3674 0568 705F7265 		.ascii	"p_realprio\000"
 3674      616C7072 
 3674      696F00
 3675              	.LASF8:
 3676 0573 5F5F696E 		.ascii	"__int32_t\000"
 3676      7433325F 
 3676      7400
 3677              	.LASF38:
 3678 057d 705F7469 		.ascii	"p_time\000"
 3678      6D6500
 3679              	.LASF64:
 3680 0584 725F6F6C 		.ascii	"r_older\000"
 3680      64657200 
 3681              	.LASF49:
 3682 058c 696E7463 		.ascii	"intctx\000"
 3682      747800
 3683              	.LASF40:
 3684 0593 705F6D73 		.ascii	"p_msgqueue\000"
 3684      67717565 
 3684      756500
 3685              	.LASF107:
 3686 059e 63685468 		.ascii	"chThdWait\000"
 3686      64576169 
 3686      7400
 3687              	.LASF57:
 3688 05a8 76745F70 		.ascii	"vt_par\000"
ARM GAS  /var/folders/3j/4xdnk5197cv_b7cw3n33qk7r0000gn/T//ccECGIus.s 			page 70


 3688      617200
 3689              	.LASF87:
 3690 05af 63665F6F 		.ascii	"cf_off_ctx\000"
 3690      66665F63 
 3690      747800
 3691              	.LASF36:
 3692 05ba 705F7265 		.ascii	"p_refs\000"
 3692      667300
 3693              	.LASF66:
 3694 05c1 52656164 		.ascii	"ReadyList\000"
 3694      794C6973 
 3694      7400
 3695              	.LASF68:
 3696 05cb 726C6973 		.ascii	"rlist\000"
 3696      7400
 3697              	.LASF14:
 3698 05d1 75696E74 		.ascii	"uint8_t\000"
 3698      385F7400 
 3699              	.LASF102:
 3700 05d9 63685468 		.ascii	"chThdYield\000"
 3700      64596965 
 3700      6C6400
 3701              	.LASF75:
 3702 05e4 77746F62 		.ascii	"wtobjp\000"
 3702      6A7000
 3703              	.LASF33:
 3704 05eb 705F6E61 		.ascii	"p_name\000"
 3704      6D6500
 3705              	.LASF58:
 3706 05f2 76745F73 		.ascii	"vt_systime\000"
 3706      79737469 
 3706      6D6500
 3707              	.LASF121:
 3708 05fd 63685363 		.ascii	"chSchGoSleepTimeoutS\000"
 3708      68476F53 
 3708      6C656570 
 3708      54696D65 
 3708      6F757453 
 3709              	.LASF82:
 3710 0612 63685F76 		.ascii	"ch_version\000"
 3710      65727369 
 3710      6F6E00
 3711              	.LASF59:
 3712 061d 56544C69 		.ascii	"VTList\000"
 3712      737400
 3713              	.LASF71:
 3714 0624 6D5F6F77 		.ascii	"m_owner\000"
 3714      6E657200 
 3715              	.LASF30:
 3716 062c 705F6374 		.ascii	"p_ctx\000"
 3716      7800
 3717              	.LASF39:
 3718 0632 705F7761 		.ascii	"p_waiting\000"
 3718      6974696E 
 3718      6700
 3719              		.ident	"GCC: (GNU Tools for Arm Embedded Processors 7-2018-q2-update) 7.3.1 20180622 (release) [AR
ARM GAS  /var/folders/3j/4xdnk5197cv_b7cw3n33qk7r0000gn/T//ccECGIus.s 			page 71


DEFINED SYMBOLS
                            *ABS*:0000000000000000 chthreads.c
/var/folders/3j/4xdnk5197cv_b7cw3n33qk7r0000gn/T//ccECGIus.s:16     .text._thread_init:0000000000000000 $a
/var/folders/3j/4xdnk5197cv_b7cw3n33qk7r0000gn/T//ccECGIus.s:22     .text._thread_init:0000000000000000 _thread_init
/var/folders/3j/4xdnk5197cv_b7cw3n33qk7r0000gn/T//ccECGIus.s:88     .text._thread_init:0000000000000068 $d
/var/folders/3j/4xdnk5197cv_b7cw3n33qk7r0000gn/T//ccECGIus.s:93     .text.chThdCreateI:0000000000000000 $a
/var/folders/3j/4xdnk5197cv_b7cw3n33qk7r0000gn/T//ccECGIus.s:99     .text.chThdCreateI:0000000000000000 chThdCreateI
/var/folders/3j/4xdnk5197cv_b7cw3n33qk7r0000gn/T//ccECGIus.s:195    .text.chThdCreateI:0000000000000088 $d
/var/folders/3j/4xdnk5197cv_b7cw3n33qk7r0000gn/T//ccECGIus.s:201    .text.chThdCreateStatic:0000000000000000 $a
/var/folders/3j/4xdnk5197cv_b7cw3n33qk7r0000gn/T//ccECGIus.s:207    .text.chThdCreateStatic:0000000000000000 chThdCreateStatic
/var/folders/3j/4xdnk5197cv_b7cw3n33qk7r0000gn/T//ccECGIus.s:338    .text.chThdCreateStatic:00000000000000a0 $d
/var/folders/3j/4xdnk5197cv_b7cw3n33qk7r0000gn/T//ccECGIus.s:344    .text.chThdSetPriority:0000000000000000 $a
/var/folders/3j/4xdnk5197cv_b7cw3n33qk7r0000gn/T//ccECGIus.s:350    .text.chThdSetPriority:0000000000000000 chThdSetPriority
/var/folders/3j/4xdnk5197cv_b7cw3n33qk7r0000gn/T//ccECGIus.s:406    .text.chThdSetPriority:000000000000004c $d
/var/folders/3j/4xdnk5197cv_b7cw3n33qk7r0000gn/T//ccECGIus.s:411    .text.chThdResume:0000000000000000 $a
/var/folders/3j/4xdnk5197cv_b7cw3n33qk7r0000gn/T//ccECGIus.s:417    .text.chThdResume:0000000000000000 chThdResume
/var/folders/3j/4xdnk5197cv_b7cw3n33qk7r0000gn/T//ccECGIus.s:455    .text.chThdTerminate:0000000000000000 $a
/var/folders/3j/4xdnk5197cv_b7cw3n33qk7r0000gn/T//ccECGIus.s:461    .text.chThdTerminate:0000000000000000 chThdTerminate
/var/folders/3j/4xdnk5197cv_b7cw3n33qk7r0000gn/T//ccECGIus.s:493    .text.chThdSleep:0000000000000000 $a
/var/folders/3j/4xdnk5197cv_b7cw3n33qk7r0000gn/T//ccECGIus.s:499    .text.chThdSleep:0000000000000000 chThdSleep
/var/folders/3j/4xdnk5197cv_b7cw3n33qk7r0000gn/T//ccECGIus.s:537    .text.chThdSleepUntil:0000000000000000 $a
/var/folders/3j/4xdnk5197cv_b7cw3n33qk7r0000gn/T//ccECGIus.s:543    .text.chThdSleepUntil:0000000000000000 chThdSleepUntil
/var/folders/3j/4xdnk5197cv_b7cw3n33qk7r0000gn/T//ccECGIus.s:594    .text.chThdSleepUntil:0000000000000030 $d
/var/folders/3j/4xdnk5197cv_b7cw3n33qk7r0000gn/T//ccECGIus.s:599    .text.chThdYield:0000000000000000 $a
/var/folders/3j/4xdnk5197cv_b7cw3n33qk7r0000gn/T//ccECGIus.s:605    .text.chThdYield:0000000000000000 chThdYield
/var/folders/3j/4xdnk5197cv_b7cw3n33qk7r0000gn/T//ccECGIus.s:655    .text.chThdYield:0000000000000038 $d
/var/folders/3j/4xdnk5197cv_b7cw3n33qk7r0000gn/T//ccECGIus.s:660    .text.chThdExitS:0000000000000000 $a
/var/folders/3j/4xdnk5197cv_b7cw3n33qk7r0000gn/T//ccECGIus.s:666    .text.chThdExitS:0000000000000000 chThdExitS
/var/folders/3j/4xdnk5197cv_b7cw3n33qk7r0000gn/T//ccECGIus.s:744    .text.chThdExitS:0000000000000060 $d
/var/folders/3j/4xdnk5197cv_b7cw3n33qk7r0000gn/T//ccECGIus.s:749    .text.chThdExit:0000000000000000 $a
/var/folders/3j/4xdnk5197cv_b7cw3n33qk7r0000gn/T//ccECGIus.s:755    .text.chThdExit:0000000000000000 chThdExit
/var/folders/3j/4xdnk5197cv_b7cw3n33qk7r0000gn/T//ccECGIus.s:777    .text.chThdWait:0000000000000000 $a
/var/folders/3j/4xdnk5197cv_b7cw3n33qk7r0000gn/T//ccECGIus.s:783    .text.chThdWait:0000000000000000 chThdWait
/var/folders/3j/4xdnk5197cv_b7cw3n33qk7r0000gn/T//ccECGIus.s:856    .text.chThdWait:000000000000004c $d

UNDEFINED SYMBOLS
rlist
_port_thread_start
chSchWakeupS
chSchRescheduleS
chSchGoSleepTimeoutS
vtlist
chSchDoRescheduleBehind
chSchReadyI
chSchGoSleepS
chThdRelease
