ARM GAS  /var/folders/3j/4xdnk5197cv_b7cw3n33qk7r0000gn/T//cc3uXMrz.s 			page 1


   1              		.cpu arm1176jz-s
   2              		.eabi_attribute 20, 1
   3              		.eabi_attribute 21, 1
   4              		.eabi_attribute 23, 3
   5              		.eabi_attribute 24, 1
   6              		.eabi_attribute 25, 1
   7              		.eabi_attribute 26, 1
   8              		.eabi_attribute 30, 2
   9              		.eabi_attribute 34, 1
  10              		.eabi_attribute 18, 4
  11              		.file	"chvt.c"
  12              		.text
  13              	.Ltext0:
  14              		.cfi_sections	.debug_frame
  15              		.section	.text._vt_init,"ax",%progbits
  16              		.align	2
  17              		.global	_vt_init
  18              		.syntax unified
  19              		.arm
  20              		.fpu softvfp
  21              		.type	_vt_init, %function
  22              	_vt_init:
  23              	.LFB7:
  24              		.file 1 "..//os/kernel/src/chvt.c"
  25              		.loc 1 43 0
  26              		.cfi_startproc
  27              		@ args = 0, pretend = 0, frame = 0
  28              		@ frame_needed = 0, uses_anonymous_args = 0
  29              		@ link register save eliminated.
  30              		.loc 1 46 0
  31 0000 0010E0E3 		mvn	r1, #0
  32              		.loc 1 47 0
  33 0004 0020A0E3 		mov	r2, #0
  34              		.loc 1 45 0
  35 0008 10309FE5 		ldr	r3, .L3
  36              		.loc 1 46 0
  37 000c 081083E5 		str	r1, [r3, #8]
  38              		.loc 1 45 0
  39 0010 043083E5 		str	r3, [r3, #4]
  40 0014 003083E5 		str	r3, [r3]
  41              		.loc 1 47 0
  42 0018 0C2083E5 		str	r2, [r3, #12]
  43              		.loc 1 48 0
  44 001c 1EFF2FE1 		bx	lr
  45              	.L4:
  46              		.align	2
  47              	.L3:
  48 0020 00000000 		.word	vtlist
  49              		.cfi_endproc
  50              	.LFE7:
  51              		.size	_vt_init, .-_vt_init
  52              		.section	.text.chVTSetI,"ax",%progbits
  53              		.align	2
  54              		.global	chVTSetI
  55              		.syntax unified
  56              		.arm
  57              		.fpu softvfp
ARM GAS  /var/folders/3j/4xdnk5197cv_b7cw3n33qk7r0000gn/T//cc3uXMrz.s 			page 2


  58              		.type	chVTSetI, %function
  59              	chVTSetI:
  60              	.LFB8:
  61              		.loc 1 69 0
  62              		.cfi_startproc
  63              		@ args = 0, pretend = 0, frame = 0
  64              		@ frame_needed = 0, uses_anonymous_args = 0
  65              		@ link register save eliminated.
  66              	.LVL0:
  67              		.loc 1 78 0
  68 0000 58C09FE5 		ldr	ip, .L10
  69              		.loc 1 76 0
  70 0004 103080E5 		str	r3, [r0, #16]
  71              		.loc 1 78 0
  72 0008 00309CE5 		ldr	r3, [ip]
  73              	.LVL1:
  74              		.loc 1 77 0
  75 000c 0C2080E5 		str	r2, [r0, #12]
  76              		.loc 1 79 0
  77 0010 082093E5 		ldr	r2, [r3, #8]
  78              	.LVL2:
  79 0014 020051E1 		cmp	r1, r2
  80 0018 0400009A 		bls	.L6
  81              	.L7:
  82              		.loc 1 81 0
  83 001c 003093E5 		ldr	r3, [r3]
  84              	.LVL3:
  85              		.loc 1 80 0
  86 0020 021041E0 		sub	r1, r1, r2
  87              	.LVL4:
  88              		.loc 1 79 0
  89 0024 082093E5 		ldr	r2, [r3, #8]
  90 0028 010052E1 		cmp	r2, r1
  91 002c FAFFFF3A 		bcc	.L7
  92              	.L6:
  93              		.loc 1 84 0
  94 0030 042093E5 		ldr	r2, [r3, #4]
  95 0034 003080E5 		str	r3, [r0]
  96 0038 042080E5 		str	r2, [r0, #4]
  97              		.loc 1 85 0
  98 003c 040083E5 		str	r0, [r3, #4]
  99 0040 042090E5 		ldr	r2, [r0, #4]
 100              		.loc 1 87 0
 101 0044 0C0053E1 		cmp	r3, ip
 102              		.loc 1 85 0
 103 0048 000082E5 		str	r0, [r2]
 104              		.loc 1 86 0
 105 004c 081080E5 		str	r1, [r0, #8]
 106              		.loc 1 88 0
 107 0050 08209315 		ldrne	r2, [r3, #8]
 108 0054 01104210 		subne	r1, r2, r1
 109              	.LVL5:
 110 0058 08108315 		strne	r1, [r3, #8]
 111              	.LVL6:
 112              		.loc 1 89 0
 113 005c 1EFF2FE1 		bx	lr
 114              	.L11:
ARM GAS  /var/folders/3j/4xdnk5197cv_b7cw3n33qk7r0000gn/T//cc3uXMrz.s 			page 3


 115              		.align	2
 116              	.L10:
 117 0060 00000000 		.word	vtlist
 118              		.cfi_endproc
 119              	.LFE8:
 120              		.size	chVTSetI, .-chVTSetI
 121              		.section	.text.chVTResetI,"ax",%progbits
 122              		.align	2
 123              		.global	chVTResetI
 124              		.syntax unified
 125              		.arm
 126              		.fpu softvfp
 127              		.type	chVTResetI, %function
 128              	chVTResetI:
 129              	.LFB9:
 130              		.loc 1 99 0
 131              		.cfi_startproc
 132              		@ args = 0, pretend = 0, frame = 0
 133              		@ frame_needed = 0, uses_anonymous_args = 0
 134              		@ link register save eliminated.
 135              	.LVL7:
 136              		.loc 1 107 0
 137 0000 003090E5 		ldr	r3, [r0]
 138 0004 2C209FE5 		ldr	r2, .L14
 139 0008 020053E1 		cmp	r3, r2
 140              		.loc 1 108 0
 141 000c 08209315 		ldrne	r2, [r3, #8]
 142 0010 08109015 		ldrne	r1, [r0, #8]
 143 0014 01208210 		addne	r2, r2, r1
 144              		.loc 1 111 0
 145 0018 0010A0E3 		mov	r1, #0
 146              		.loc 1 108 0
 147 001c 08208315 		strne	r2, [r3, #8]
 148              		.loc 1 109 0
 149 0020 042090E5 		ldr	r2, [r0, #4]
 150 0024 003082E5 		str	r3, [r2]
 151              		.loc 1 110 0
 152 0028 003090E5 		ldr	r3, [r0]
 153 002c 042083E5 		str	r2, [r3, #4]
 154              		.loc 1 111 0
 155 0030 0C1080E5 		str	r1, [r0, #12]
 156              		.loc 1 112 0
 157 0034 1EFF2FE1 		bx	lr
 158              	.L15:
 159              		.align	2
 160              	.L14:
 161 0038 00000000 		.word	vtlist
 162              		.cfi_endproc
 163              	.LFE9:
 164              		.size	chVTResetI, .-chVTResetI
 165              		.section	.text.chTimeIsWithin,"ax",%progbits
 166              		.align	2
 167              		.global	chTimeIsWithin
 168              		.syntax unified
 169              		.arm
 170              		.fpu softvfp
 171              		.type	chTimeIsWithin, %function
ARM GAS  /var/folders/3j/4xdnk5197cv_b7cw3n33qk7r0000gn/T//cc3uXMrz.s 			page 4


 172              	chTimeIsWithin:
 173              	.LFB10:
 174              		.loc 1 127 0
 175              		.cfi_startproc
 176              		@ args = 0, pretend = 0, frame = 0
 177              		@ frame_needed = 0, uses_anonymous_args = 0
 178              		@ link register save eliminated.
 179              	.LVL8:
 180              		.loc 1 129 0
 181 0000 3C309FE5 		ldr	r3, .L20
 182              		.loc 1 130 0
 183 0004 000051E1 		cmp	r1, r0
 184              		.loc 1 129 0
 185 0008 0C3093E5 		ldr	r3, [r3, #12]
 186              	.LVL9:
 187              		.loc 1 130 0
 188 000c 0600008A 		bhi	.L19
 189              		.loc 1 131 0 discriminator 2
 190 0010 010053E1 		cmp	r3, r1
 191 0014 0010A023 		movcs	r1, #0
 192              	.LVL10:
 193 0018 0110A033 		movcc	r1, #1
 194              		.loc 1 130 0 discriminator 2
 195 001c 000053E1 		cmp	r3, r0
 196 0020 0100A031 		movcc	r0, r1
 197 0024 01008123 		orrcs	r0, r1, #1
 198              	.LVL11:
 199              		.loc 1 132 0 discriminator 2
 200 0028 1EFF2FE1 		bx	lr
 201              	.LVL12:
 202              	.L19:
 203              		.loc 1 130 0 discriminator 1
 204 002c 000053E1 		cmp	r3, r0
 205 0030 0100A023 		movcs	r0, #1
 206              	.LVL13:
 207 0034 0000A033 		movcc	r0, #0
 208 0038 010053E1 		cmp	r3, r1
 209 003c 0000A023 		movcs	r0, #0
 210 0040 1EFF2FE1 		bx	lr
 211              	.L21:
 212              		.align	2
 213              	.L20:
 214 0044 00000000 		.word	vtlist
 215              		.cfi_endproc
 216              	.LFE10:
 217              		.size	chTimeIsWithin, .-chTimeIsWithin
 218              		.comm	vtlist,16,4
 219              		.text
 220              	.Letext0:
 221              		.file 2 "/usr/local/Cellar/gcc-arm-none-eabi/20180627/arm-none-eabi/include/machine/_default_types
 222              		.file 3 "/usr/local/Cellar/gcc-arm-none-eabi/20180627/arm-none-eabi/include/sys/_stdint.h"
 223              		.file 4 "..//os/ports/GCC/ARM/chtypes.h"
 224              		.file 5 "..//os/kernel/include/chlists.h"
 225              		.file 6 "..//os/kernel/include/chthreads.h"
 226              		.file 7 "..//os/ports/GCC/ARM/chcore.h"
 227              		.file 8 "..//os/kernel/include/chvt.h"
 228              		.file 9 "..//os/kernel/include/chschd.h"
ARM GAS  /var/folders/3j/4xdnk5197cv_b7cw3n33qk7r0000gn/T//cc3uXMrz.s 			page 5


 229              		.file 10 "..//os/kernel/include/chmtx.h"
 230              		.file 11 "..//os/kernel/include/chregistry.h"
 231              		.file 12 "..//os/kernel/include/ch.h"
 232              		.section	.debug_info,"",%progbits
 233              	.Ldebug_info0:
 234 0000 E4060000 		.4byte	0x6e4
 235 0004 0400     		.2byte	0x4
 236 0006 00000000 		.4byte	.Ldebug_abbrev0
 237 000a 04       		.byte	0x4
 238 000b 01       		.uleb128 0x1
 239 000c 1E010000 		.4byte	.LASF104
 240 0010 0C       		.byte	0xc
 241 0011 69040000 		.4byte	.LASF105
 242 0015 00000000 		.4byte	.LASF106
 243 0019 00000000 		.4byte	.Ldebug_ranges0+0
 244 001d 00000000 		.4byte	0
 245 0021 00000000 		.4byte	.Ldebug_line0
 246 0025 02       		.uleb128 0x2
 247 0026 04       		.byte	0x4
 248 0027 05       		.byte	0x5
 249 0028 696E7400 		.ascii	"int\000"
 250 002c 03       		.uleb128 0x3
 251 002d 04       		.byte	0x4
 252 002e 07       		.byte	0x7
 253 002f 2A020000 		.4byte	.LASF0
 254 0033 03       		.uleb128 0x3
 255 0034 01       		.byte	0x1
 256 0035 06       		.byte	0x6
 257 0036 E6000000 		.4byte	.LASF1
 258 003a 04       		.uleb128 0x4
 259 003b 6D000000 		.4byte	.LASF4
 260 003f 02       		.byte	0x2
 261 0040 2B       		.byte	0x2b
 262 0041 45000000 		.4byte	0x45
 263 0045 03       		.uleb128 0x3
 264 0046 01       		.byte	0x1
 265 0047 08       		.byte	0x8
 266 0048 74030000 		.4byte	.LASF2
 267 004c 03       		.uleb128 0x3
 268 004d 02       		.byte	0x2
 269 004e 05       		.byte	0x5
 270 004f 8C030000 		.4byte	.LASF3
 271 0053 04       		.uleb128 0x4
 272 0054 38040000 		.4byte	.LASF5
 273 0058 02       		.byte	0x2
 274 0059 39       		.byte	0x39
 275 005a 5E000000 		.4byte	0x5e
 276 005e 03       		.uleb128 0x3
 277 005f 02       		.byte	0x2
 278 0060 07       		.byte	0x7
 279 0061 79020000 		.4byte	.LASF6
 280 0065 04       		.uleb128 0x4
 281 0066 5F040000 		.4byte	.LASF7
 282 006a 02       		.byte	0x2
 283 006b 4D       		.byte	0x4d
 284 006c 70000000 		.4byte	0x70
 285 0070 03       		.uleb128 0x3
ARM GAS  /var/folders/3j/4xdnk5197cv_b7cw3n33qk7r0000gn/T//cc3uXMrz.s 			page 6


 286 0071 04       		.byte	0x4
 287 0072 05       		.byte	0x5
 288 0073 D1010000 		.4byte	.LASF8
 289 0077 04       		.uleb128 0x4
 290 0078 0E020000 		.4byte	.LASF9
 291 007c 02       		.byte	0x2
 292 007d 4F       		.byte	0x4f
 293 007e 82000000 		.4byte	0x82
 294 0082 03       		.uleb128 0x3
 295 0083 04       		.byte	0x4
 296 0084 07       		.byte	0x7
 297 0085 3F020000 		.4byte	.LASF10
 298 0089 03       		.uleb128 0x3
 299 008a 08       		.byte	0x8
 300 008b 05       		.byte	0x5
 301 008c D8000000 		.4byte	.LASF11
 302 0090 03       		.uleb128 0x3
 303 0091 08       		.byte	0x8
 304 0092 07       		.byte	0x7
 305 0093 8D000000 		.4byte	.LASF12
 306 0097 04       		.uleb128 0x4
 307 0098 D6040000 		.4byte	.LASF13
 308 009c 03       		.byte	0x3
 309 009d 18       		.byte	0x18
 310 009e 3A000000 		.4byte	0x3a
 311 00a2 04       		.uleb128 0x4
 312 00a3 E3010000 		.4byte	.LASF14
 313 00a7 03       		.byte	0x3
 314 00a8 24       		.byte	0x24
 315 00a9 53000000 		.4byte	0x53
 316 00ad 04       		.uleb128 0x4
 317 00ae 6C030000 		.4byte	.LASF15
 318 00b2 03       		.byte	0x3
 319 00b3 2C       		.byte	0x2c
 320 00b4 65000000 		.4byte	0x65
 321 00b8 04       		.uleb128 0x4
 322 00b9 FF030000 		.4byte	.LASF16
 323 00bd 03       		.byte	0x3
 324 00be 30       		.byte	0x30
 325 00bf 77000000 		.4byte	0x77
 326 00c3 04       		.uleb128 0x4
 327 00c4 0F010000 		.4byte	.LASF17
 328 00c8 04       		.byte	0x4
 329 00c9 29       		.byte	0x29
 330 00ca AD000000 		.4byte	0xad
 331 00ce 04       		.uleb128 0x4
 332 00cf 9A020000 		.4byte	.LASF18
 333 00d3 04       		.byte	0x4
 334 00d4 2A       		.byte	0x2a
 335 00d5 97000000 		.4byte	0x97
 336 00d9 04       		.uleb128 0x4
 337 00da DA010000 		.4byte	.LASF19
 338 00de 04       		.byte	0x4
 339 00df 2B       		.byte	0x2b
 340 00e0 97000000 		.4byte	0x97
 341 00e4 04       		.uleb128 0x4
 342 00e5 4A030000 		.4byte	.LASF20
ARM GAS  /var/folders/3j/4xdnk5197cv_b7cw3n33qk7r0000gn/T//cc3uXMrz.s 			page 7


 343 00e9 04       		.byte	0x4
 344 00ea 2C       		.byte	0x2c
 345 00eb 97000000 		.4byte	0x97
 346 00ef 04       		.uleb128 0x4
 347 00f0 29040000 		.4byte	.LASF21
 348 00f4 04       		.byte	0x4
 349 00f5 2D       		.byte	0x2d
 350 00f6 97000000 		.4byte	0x97
 351 00fa 04       		.uleb128 0x4
 352 00fb 64030000 		.4byte	.LASF22
 353 00ff 04       		.byte	0x4
 354 0100 2E       		.byte	0x2e
 355 0101 B8000000 		.4byte	0xb8
 356 0105 04       		.uleb128 0x4
 357 0106 8C020000 		.4byte	.LASF23
 358 010a 04       		.byte	0x4
 359 010b 2F       		.byte	0x2f
 360 010c AD000000 		.4byte	0xad
 361 0110 04       		.uleb128 0x4
 362 0111 AE020000 		.4byte	.LASF24
 363 0115 04       		.byte	0x4
 364 0116 31       		.byte	0x31
 365 0117 B8000000 		.4byte	0xb8
 366 011b 04       		.uleb128 0x4
 367 011c 4A040000 		.4byte	.LASF25
 368 0120 04       		.byte	0x4
 369 0121 33       		.byte	0x33
 370 0122 B8000000 		.4byte	0xb8
 371 0126 05       		.uleb128 0x5
 372 0127 1B010000 		.4byte	0x11b
 373 012b 04       		.uleb128 0x4
 374 012c E0030000 		.4byte	.LASF26
 375 0130 05       		.byte	0x5
 376 0131 23       		.byte	0x23
 377 0132 36010000 		.4byte	0x136
 378 0136 06       		.uleb128 0x6
 379 0137 E0030000 		.4byte	.LASF26
 380 013b 44       		.byte	0x44
 381 013c 06       		.byte	0x6
 382 013d 57       		.byte	0x57
 383 013e 27020000 		.4byte	0x227
 384 0142 07       		.uleb128 0x7
 385 0143 C2030000 		.4byte	.LASF27
 386 0147 06       		.byte	0x6
 387 0148 58       		.byte	0x58
 388 0149 48020000 		.4byte	0x248
 389 014d 00       		.byte	0
 390 014e 07       		.uleb128 0x7
 391 014f 5D030000 		.4byte	.LASF28
 392 0153 06       		.byte	0x6
 393 0154 5A       		.byte	0x5a
 394 0155 48020000 		.4byte	0x248
 395 0159 04       		.byte	0x4
 396 015a 07       		.uleb128 0x7
 397 015b BB000000 		.4byte	.LASF29
 398 015f 06       		.byte	0x6
 399 0160 5C       		.byte	0x5c
ARM GAS  /var/folders/3j/4xdnk5197cv_b7cw3n33qk7r0000gn/T//cc3uXMrz.s 			page 8


 400 0161 FA000000 		.4byte	0xfa
 401 0165 08       		.byte	0x8
 402 0166 07       		.uleb128 0x7
 403 0167 17050000 		.4byte	.LASF30
 404 016b 06       		.byte	0x6
 405 016c 5D       		.byte	0x5d
 406 016d 03030000 		.4byte	0x303
 407 0171 0C       		.byte	0xc
 408 0172 07       		.uleb128 0x7
 409 0173 F6010000 		.4byte	.LASF31
 410 0177 06       		.byte	0x6
 411 0178 5F       		.byte	0x5f
 412 0179 48020000 		.4byte	0x248
 413 017d 10       		.byte	0x10
 414 017e 07       		.uleb128 0x7
 415 017f 10030000 		.4byte	.LASF32
 416 0183 06       		.byte	0x6
 417 0184 60       		.byte	0x60
 418 0185 48020000 		.4byte	0x248
 419 0189 14       		.byte	0x14
 420 018a 07       		.uleb128 0x7
 421 018b E5040000 		.4byte	.LASF33
 422 018f 06       		.byte	0x6
 423 0190 67       		.byte	0x67
 424 0191 C5040000 		.4byte	0x4c5
 425 0195 18       		.byte	0x18
 426 0196 07       		.uleb128 0x7
 427 0197 96030000 		.4byte	.LASF34
 428 019b 06       		.byte	0x6
 429 019c 72       		.byte	0x72
 430 019d D9000000 		.4byte	0xd9
 431 01a1 1C       		.byte	0x1c
 432 01a2 07       		.uleb128 0x7
 433 01a3 D8030000 		.4byte	.LASF35
 434 01a7 06       		.byte	0x6
 435 01a8 76       		.byte	0x76
 436 01a9 CE000000 		.4byte	0xce
 437 01ad 1D       		.byte	0x1d
 438 01ae 07       		.uleb128 0x7
 439 01af B4040000 		.4byte	.LASF36
 440 01b3 06       		.byte	0x6
 441 01b4 7B       		.byte	0x7b
 442 01b5 E4000000 		.4byte	0xe4
 443 01b9 1E       		.byte	0x1e
 444 01ba 07       		.uleb128 0x7
 445 01bb 9E030000 		.4byte	.LASF37
 446 01bf 06       		.byte	0x6
 447 01c0 81       		.byte	0x81
 448 01c1 EF000000 		.4byte	0xef
 449 01c5 1F       		.byte	0x1f
 450 01c6 07       		.uleb128 0x7
 451 01c7 82040000 		.4byte	.LASF38
 452 01cb 06       		.byte	0x6
 453 01cc 88       		.byte	0x88
 454 01cd 26010000 		.4byte	0x126
 455 01d1 20       		.byte	0x20
 456 01d2 08       		.uleb128 0x8
ARM GAS  /var/folders/3j/4xdnk5197cv_b7cw3n33qk7r0000gn/T//cc3uXMrz.s 			page 9


 457 01d3 705F7500 		.ascii	"p_u\000"
 458 01d7 06       		.byte	0x6
 459 01d8 AD       		.byte	0xad
 460 01d9 90040000 		.4byte	0x490
 461 01dd 24       		.byte	0x24
 462 01de 07       		.uleb128 0x7
 463 01df 1D050000 		.4byte	.LASF39
 464 01e3 06       		.byte	0x6
 465 01e4 B2       		.byte	0xb2
 466 01e5 6E020000 		.4byte	0x26e
 467 01e9 28       		.byte	0x28
 468 01ea 07       		.uleb128 0x7
 469 01eb 90040000 		.4byte	.LASF40
 470 01ef 06       		.byte	0x6
 471 01f0 B8       		.byte	0xb8
 472 01f1 4E020000 		.4byte	0x24e
 473 01f5 2C       		.byte	0x2c
 474 01f6 07       		.uleb128 0x7
 475 01f7 60000000 		.4byte	.LASF41
 476 01fb 06       		.byte	0x6
 477 01fc BC       		.byte	0xbc
 478 01fd 05010000 		.4byte	0x105
 479 0201 34       		.byte	0x34
 480 0202 07       		.uleb128 0x7
 481 0203 F4030000 		.4byte	.LASF42
 482 0207 06       		.byte	0x6
 483 0208 C2       		.byte	0xc2
 484 0209 10010000 		.4byte	0x110
 485 020d 38       		.byte	0x38
 486 020e 07       		.uleb128 0x7
 487 020f 82030000 		.4byte	.LASF43
 488 0213 06       		.byte	0x6
 489 0214 C9       		.byte	0xc9
 490 0215 D7040000 		.4byte	0x4d7
 491 0219 3C       		.byte	0x3c
 492 021a 07       		.uleb128 0x7
 493 021b 54040000 		.4byte	.LASF44
 494 021f 06       		.byte	0x6
 495 0220 CD       		.byte	0xcd
 496 0221 FA000000 		.4byte	0xfa
 497 0225 40       		.byte	0x40
 498 0226 00       		.byte	0
 499 0227 09       		.uleb128 0x9
 500 0228 08       		.byte	0x8
 501 0229 05       		.byte	0x5
 502 022a 5A       		.byte	0x5a
 503 022b 48020000 		.4byte	0x248
 504 022f 07       		.uleb128 0x7
 505 0230 C2030000 		.4byte	.LASF27
 506 0234 05       		.byte	0x5
 507 0235 5B       		.byte	0x5b
 508 0236 48020000 		.4byte	0x248
 509 023a 00       		.byte	0
 510 023b 07       		.uleb128 0x7
 511 023c 5D030000 		.4byte	.LASF28
 512 0240 05       		.byte	0x5
 513 0241 5D       		.byte	0x5d
ARM GAS  /var/folders/3j/4xdnk5197cv_b7cw3n33qk7r0000gn/T//cc3uXMrz.s 			page 10


 514 0242 48020000 		.4byte	0x248
 515 0246 04       		.byte	0x4
 516 0247 00       		.byte	0
 517 0248 0A       		.uleb128 0xa
 518 0249 04       		.byte	0x4
 519 024a 2B010000 		.4byte	0x12b
 520 024e 04       		.uleb128 0x4
 521 024f 1E030000 		.4byte	.LASF45
 522 0253 05       		.byte	0x5
 523 0254 5F       		.byte	0x5f
 524 0255 27020000 		.4byte	0x227
 525 0259 09       		.uleb128 0x9
 526 025a 04       		.byte	0x4
 527 025b 05       		.byte	0x5
 528 025c 64       		.byte	0x64
 529 025d 6E020000 		.4byte	0x26e
 530 0261 07       		.uleb128 0x7
 531 0262 C2030000 		.4byte	.LASF27
 532 0266 05       		.byte	0x5
 533 0267 66       		.byte	0x66
 534 0268 48020000 		.4byte	0x248
 535 026c 00       		.byte	0
 536 026d 00       		.byte	0
 537 026e 04       		.uleb128 0x4
 538 026f A2020000 		.4byte	.LASF46
 539 0273 05       		.byte	0x5
 540 0274 69       		.byte	0x69
 541 0275 59020000 		.4byte	0x259
 542 0279 04       		.uleb128 0x4
 543 027a C0020000 		.4byte	.LASF47
 544 027e 07       		.byte	0x7
 545 027f 9D       		.byte	0x9d
 546 0280 B8000000 		.4byte	0xb8
 547 0284 04       		.uleb128 0x4
 548 0285 19020000 		.4byte	.LASF48
 549 0289 07       		.byte	0x7
 550 028a A2       		.byte	0xa2
 551 028b 8F020000 		.4byte	0x28f
 552 028f 0B       		.uleb128 0xb
 553 0290 04       		.byte	0x4
 554 0291 06       		.uleb128 0x6
 555 0292 89040000 		.4byte	.LASF49
 556 0296 24       		.byte	0x24
 557 0297 07       		.byte	0x7
 558 0298 B9       		.byte	0xb9
 559 0299 03030000 		.4byte	0x303
 560 029d 08       		.uleb128 0x8
 561 029e 723400   		.ascii	"r4\000"
 562 02a1 07       		.byte	0x7
 563 02a2 BA       		.byte	0xba
 564 02a3 84020000 		.4byte	0x284
 565 02a7 00       		.byte	0
 566 02a8 08       		.uleb128 0x8
 567 02a9 723500   		.ascii	"r5\000"
 568 02ac 07       		.byte	0x7
 569 02ad BB       		.byte	0xbb
 570 02ae 84020000 		.4byte	0x284
ARM GAS  /var/folders/3j/4xdnk5197cv_b7cw3n33qk7r0000gn/T//cc3uXMrz.s 			page 11


 571 02b2 04       		.byte	0x4
 572 02b3 08       		.uleb128 0x8
 573 02b4 723600   		.ascii	"r6\000"
 574 02b7 07       		.byte	0x7
 575 02b8 BC       		.byte	0xbc
 576 02b9 84020000 		.4byte	0x284
 577 02bd 08       		.byte	0x8
 578 02be 08       		.uleb128 0x8
 579 02bf 723700   		.ascii	"r7\000"
 580 02c2 07       		.byte	0x7
 581 02c3 BD       		.byte	0xbd
 582 02c4 84020000 		.4byte	0x284
 583 02c8 0C       		.byte	0xc
 584 02c9 08       		.uleb128 0x8
 585 02ca 723800   		.ascii	"r8\000"
 586 02cd 07       		.byte	0x7
 587 02ce BE       		.byte	0xbe
 588 02cf 84020000 		.4byte	0x284
 589 02d3 10       		.byte	0x10
 590 02d4 08       		.uleb128 0x8
 591 02d5 723900   		.ascii	"r9\000"
 592 02d8 07       		.byte	0x7
 593 02d9 BF       		.byte	0xbf
 594 02da 84020000 		.4byte	0x284
 595 02de 14       		.byte	0x14
 596 02df 08       		.uleb128 0x8
 597 02e0 72313000 		.ascii	"r10\000"
 598 02e4 07       		.byte	0x7
 599 02e5 C0       		.byte	0xc0
 600 02e6 84020000 		.4byte	0x284
 601 02ea 18       		.byte	0x18
 602 02eb 08       		.uleb128 0x8
 603 02ec 72313100 		.ascii	"r11\000"
 604 02f0 07       		.byte	0x7
 605 02f1 C1       		.byte	0xc1
 606 02f2 84020000 		.4byte	0x284
 607 02f6 1C       		.byte	0x1c
 608 02f7 08       		.uleb128 0x8
 609 02f8 6C7200   		.ascii	"lr\000"
 610 02fb 07       		.byte	0x7
 611 02fc C2       		.byte	0xc2
 612 02fd 84020000 		.4byte	0x284
 613 0301 20       		.byte	0x20
 614 0302 00       		.byte	0
 615 0303 06       		.uleb128 0x6
 616 0304 71020000 		.4byte	.LASF50
 617 0308 04       		.byte	0x4
 618 0309 07       		.byte	0x7
 619 030a CA       		.byte	0xca
 620 030b 1C030000 		.4byte	0x31c
 621 030f 08       		.uleb128 0x8
 622 0310 72313300 		.ascii	"r13\000"
 623 0314 07       		.byte	0x7
 624 0315 CB       		.byte	0xcb
 625 0316 1C030000 		.4byte	0x31c
 626 031a 00       		.byte	0
 627 031b 00       		.byte	0
ARM GAS  /var/folders/3j/4xdnk5197cv_b7cw3n33qk7r0000gn/T//cc3uXMrz.s 			page 12


 628 031c 0A       		.uleb128 0xa
 629 031d 04       		.byte	0x4
 630 031e 91020000 		.4byte	0x291
 631 0322 04       		.uleb128 0x4
 632 0323 5A020000 		.4byte	.LASF51
 633 0327 08       		.byte	0x8
 634 0328 4E       		.byte	0x4e
 635 0329 2D030000 		.4byte	0x32d
 636 032d 0A       		.uleb128 0xa
 637 032e 04       		.byte	0x4
 638 032f 33030000 		.4byte	0x333
 639 0333 0C       		.uleb128 0xc
 640 0334 3E030000 		.4byte	0x33e
 641 0338 0D       		.uleb128 0xd
 642 0339 8F020000 		.4byte	0x28f
 643 033d 00       		.byte	0
 644 033e 04       		.uleb128 0x4
 645 033f 1C040000 		.4byte	.LASF52
 646 0343 08       		.byte	0x8
 647 0344 53       		.byte	0x53
 648 0345 49030000 		.4byte	0x349
 649 0349 06       		.uleb128 0x6
 650 034a 1C040000 		.4byte	.LASF52
 651 034e 14       		.byte	0x14
 652 034f 08       		.byte	0x8
 653 0350 5A       		.byte	0x5a
 654 0351 92030000 		.4byte	0x392
 655 0355 07       		.uleb128 0x7
 656 0356 37020000 		.4byte	.LASF53
 657 035a 08       		.byte	0x8
 658 035b 5B       		.byte	0x5b
 659 035c 92030000 		.4byte	0x392
 660 0360 00       		.byte	0
 661 0361 07       		.uleb128 0x7
 662 0362 22020000 		.4byte	.LASF54
 663 0366 08       		.byte	0x8
 664 0367 5D       		.byte	0x5d
 665 0368 92030000 		.4byte	0x392
 666 036c 04       		.byte	0x4
 667 036d 07       		.uleb128 0x7
 668 036e DF020000 		.4byte	.LASF55
 669 0372 08       		.byte	0x8
 670 0373 5F       		.byte	0x5f
 671 0374 1B010000 		.4byte	0x11b
 672 0378 08       		.byte	0x8
 673 0379 07       		.uleb128 0x7
 674 037a E7020000 		.4byte	.LASF56
 675 037e 08       		.byte	0x8
 676 037f 60       		.byte	0x60
 677 0380 22030000 		.4byte	0x322
 678 0384 0C       		.byte	0xc
 679 0385 07       		.uleb128 0x7
 680 0386 9B040000 		.4byte	.LASF57
 681 038a 08       		.byte	0x8
 682 038b 62       		.byte	0x62
 683 038c 8F020000 		.4byte	0x28f
 684 0390 10       		.byte	0x10
ARM GAS  /var/folders/3j/4xdnk5197cv_b7cw3n33qk7r0000gn/T//cc3uXMrz.s 			page 13


 685 0391 00       		.byte	0
 686 0392 0A       		.uleb128 0xa
 687 0393 04       		.byte	0x4
 688 0394 3E030000 		.4byte	0x33e
 689 0398 09       		.uleb128 0x9
 690 0399 10       		.byte	0x10
 691 039a 08       		.byte	0x8
 692 039b 6C       		.byte	0x6c
 693 039c D1030000 		.4byte	0x3d1
 694 03a0 07       		.uleb128 0x7
 695 03a1 37020000 		.4byte	.LASF53
 696 03a5 08       		.byte	0x8
 697 03a6 6D       		.byte	0x6d
 698 03a7 92030000 		.4byte	0x392
 699 03ab 00       		.byte	0
 700 03ac 07       		.uleb128 0x7
 701 03ad 22020000 		.4byte	.LASF54
 702 03b1 08       		.byte	0x8
 703 03b2 6F       		.byte	0x6f
 704 03b3 92030000 		.4byte	0x392
 705 03b7 04       		.byte	0x4
 706 03b8 07       		.uleb128 0x7
 707 03b9 DF020000 		.4byte	.LASF55
 708 03bd 08       		.byte	0x8
 709 03be 71       		.byte	0x71
 710 03bf 1B010000 		.4byte	0x11b
 711 03c3 08       		.byte	0x8
 712 03c4 07       		.uleb128 0x7
 713 03c5 EC040000 		.4byte	.LASF58
 714 03c9 08       		.byte	0x8
 715 03ca 72       		.byte	0x72
 716 03cb 26010000 		.4byte	0x126
 717 03cf 0C       		.byte	0xc
 718 03d0 00       		.byte	0
 719 03d1 04       		.uleb128 0x4
 720 03d2 08050000 		.4byte	.LASF59
 721 03d6 08       		.byte	0x8
 722 03d7 73       		.byte	0x73
 723 03d8 98030000 		.4byte	0x398
 724 03dc 0E       		.uleb128 0xe
 725 03dd 77000000 		.4byte	.LASF67
 726 03e1 08       		.byte	0x8
 727 03e2 D1       		.byte	0xd1
 728 03e3 D1030000 		.4byte	0x3d1
 729 03e7 09       		.uleb128 0x9
 730 03e8 1C       		.byte	0x1c
 731 03e9 09       		.byte	0x9
 732 03ea 57       		.byte	0x57
 733 03eb 38040000 		.4byte	0x438
 734 03ef 07       		.uleb128 0x7
 735 03f0 14040000 		.4byte	.LASF60
 736 03f4 09       		.byte	0x9
 737 03f5 58       		.byte	0x58
 738 03f6 4E020000 		.4byte	0x24e
 739 03fa 00       		.byte	0
 740 03fb 07       		.uleb128 0x7
 741 03fc B4030000 		.4byte	.LASF61
ARM GAS  /var/folders/3j/4xdnk5197cv_b7cw3n33qk7r0000gn/T//cc3uXMrz.s 			page 14


 742 0400 09       		.byte	0x9
 743 0401 59       		.byte	0x59
 744 0402 FA000000 		.4byte	0xfa
 745 0406 08       		.byte	0x8
 746 0407 07       		.uleb128 0x7
 747 0408 18030000 		.4byte	.LASF62
 748 040c 09       		.byte	0x9
 749 040d 5B       		.byte	0x5b
 750 040e 03030000 		.4byte	0x303
 751 0412 0C       		.byte	0xc
 752 0413 07       		.uleb128 0x7
 753 0414 92020000 		.4byte	.LASF63
 754 0418 09       		.byte	0x9
 755 0419 5E       		.byte	0x5e
 756 041a 48020000 		.4byte	0x248
 757 041e 10       		.byte	0x10
 758 041f 07       		.uleb128 0x7
 759 0420 42030000 		.4byte	.LASF64
 760 0424 09       		.byte	0x9
 761 0425 5F       		.byte	0x5f
 762 0426 48020000 		.4byte	0x248
 763 042a 14       		.byte	0x14
 764 042b 07       		.uleb128 0x7
 765 042c 38030000 		.4byte	.LASF65
 766 0430 09       		.byte	0x9
 767 0431 62       		.byte	0x62
 768 0432 48020000 		.4byte	0x248
 769 0436 18       		.byte	0x18
 770 0437 00       		.byte	0
 771 0438 04       		.uleb128 0x4
 772 0439 C6040000 		.4byte	.LASF66
 773 043d 09       		.byte	0x9
 774 043e 64       		.byte	0x64
 775 043f E7030000 		.4byte	0x3e7
 776 0443 0E       		.uleb128 0xe
 777 0444 D0040000 		.4byte	.LASF68
 778 0448 09       		.byte	0x9
 779 0449 68       		.byte	0x68
 780 044a 38040000 		.4byte	0x438
 781 044e 06       		.uleb128 0x6
 782 044f BA020000 		.4byte	.LASF69
 783 0453 10       		.byte	0x10
 784 0454 0A       		.byte	0xa
 785 0455 25       		.byte	0x25
 786 0456 7F040000 		.4byte	0x47f
 787 045a 07       		.uleb128 0x7
 788 045b 16010000 		.4byte	.LASF70
 789 045f 0A       		.byte	0xa
 790 0460 26       		.byte	0x26
 791 0461 4E020000 		.4byte	0x24e
 792 0465 00       		.byte	0
 793 0466 07       		.uleb128 0x7
 794 0467 0F050000 		.4byte	.LASF71
 795 046b 0A       		.byte	0xa
 796 046c 28       		.byte	0x28
 797 046d 48020000 		.4byte	0x248
 798 0471 08       		.byte	0x8
ARM GAS  /var/folders/3j/4xdnk5197cv_b7cw3n33qk7r0000gn/T//cc3uXMrz.s 			page 15


 799 0472 07       		.uleb128 0x7
 800 0473 43040000 		.4byte	.LASF72
 801 0477 0A       		.byte	0xa
 802 0478 2A       		.byte	0x2a
 803 0479 7F040000 		.4byte	0x47f
 804 047d 0C       		.byte	0xc
 805 047e 00       		.byte	0
 806 047f 0A       		.uleb128 0xa
 807 0480 04       		.byte	0x4
 808 0481 4E040000 		.4byte	0x44e
 809 0485 04       		.uleb128 0x4
 810 0486 BA020000 		.4byte	.LASF69
 811 048a 0A       		.byte	0xa
 812 048b 2C       		.byte	0x2c
 813 048c 4E040000 		.4byte	0x44e
 814 0490 0F       		.uleb128 0xf
 815 0491 04       		.byte	0x4
 816 0492 06       		.byte	0x6
 817 0493 8F       		.byte	0x8f
 818 0494 C5040000 		.4byte	0x4c5
 819 0498 10       		.uleb128 0x10
 820 0499 66000000 		.4byte	.LASF73
 821 049d 06       		.byte	0x6
 822 049e 96       		.byte	0x96
 823 049f 05010000 		.4byte	0x105
 824 04a3 10       		.uleb128 0x10
 825 04a4 B2000000 		.4byte	.LASF74
 826 04a8 06       		.byte	0x6
 827 04a9 9D       		.byte	0x9d
 828 04aa 05010000 		.4byte	0x105
 829 04ae 10       		.uleb128 0x10
 830 04af DE040000 		.4byte	.LASF75
 831 04b3 06       		.byte	0x6
 832 04b4 A4       		.byte	0xa4
 833 04b5 8F020000 		.4byte	0x28f
 834 04b9 10       		.uleb128 0x10
 835 04ba BB030000 		.4byte	.LASF76
 836 04be 06       		.byte	0x6
 837 04bf AB       		.byte	0xab
 838 04c0 10010000 		.4byte	0x110
 839 04c4 00       		.byte	0
 840 04c5 0A       		.uleb128 0xa
 841 04c6 04       		.byte	0x4
 842 04c7 D2040000 		.4byte	0x4d2
 843 04cb 03       		.uleb128 0x3
 844 04cc 01       		.byte	0x1
 845 04cd 08       		.byte	0x8
 846 04ce 33040000 		.4byte	.LASF77
 847 04d2 11       		.uleb128 0x11
 848 04d3 CB040000 		.4byte	0x4cb
 849 04d7 0A       		.uleb128 0xa
 850 04d8 04       		.byte	0x4
 851 04d9 85040000 		.4byte	0x485
 852 04dd 09       		.uleb128 0x9
 853 04de 16       		.byte	0x16
 854 04df 0B       		.byte	0xb
 855 04e0 25       		.byte	0x25
ARM GAS  /var/folders/3j/4xdnk5197cv_b7cw3n33qk7r0000gn/T//cc3uXMrz.s 			page 16


 856 04e1 BE050000 		.4byte	0x5be
 857 04e5 07       		.uleb128 0x7
 858 04e6 63020000 		.4byte	.LASF78
 859 04ea 0B       		.byte	0xb
 860 04eb 26       		.byte	0x26
 861 04ec BE050000 		.4byte	0x5be
 862 04f0 00       		.byte	0
 863 04f1 07       		.uleb128 0x7
 864 04f2 CB020000 		.4byte	.LASF79
 865 04f6 0B       		.byte	0xb
 866 04f7 27       		.byte	0x27
 867 04f8 97000000 		.4byte	0x97
 868 04fc 04       		.byte	0x4
 869 04fd 07       		.uleb128 0x7
 870 04fe 2B030000 		.4byte	.LASF80
 871 0502 0B       		.byte	0xb
 872 0503 28       		.byte	0x28
 873 0504 97000000 		.4byte	0x97
 874 0508 05       		.byte	0x5
 875 0509 07       		.uleb128 0x7
 876 050a F7040000 		.4byte	.LASF81
 877 050e 0B       		.byte	0xb
 878 050f 29       		.byte	0x29
 879 0510 A2000000 		.4byte	0xa2
 880 0514 06       		.byte	0x6
 881 0515 07       		.uleb128 0x7
 882 0516 52030000 		.4byte	.LASF82
 883 051a 0B       		.byte	0xb
 884 051b 2A       		.byte	0x2a
 885 051c 97000000 		.4byte	0x97
 886 0520 08       		.byte	0x8
 887 0521 07       		.uleb128 0x7
 888 0522 EF020000 		.4byte	.LASF83
 889 0526 0B       		.byte	0xb
 890 0527 2B       		.byte	0x2b
 891 0528 97000000 		.4byte	0x97
 892 052c 09       		.byte	0x9
 893 052d 07       		.uleb128 0x7
 894 052e A4000000 		.4byte	.LASF84
 895 0532 0B       		.byte	0xb
 896 0533 2C       		.byte	0x2c
 897 0534 97000000 		.4byte	0x97
 898 0538 0A       		.byte	0xa
 899 0539 07       		.uleb128 0x7
 900 053a 08040000 		.4byte	.LASF85
 901 053e 0B       		.byte	0xb
 902 053f 2D       		.byte	0x2d
 903 0540 97000000 		.4byte	0x97
 904 0544 0B       		.byte	0xb
 905 0545 07       		.uleb128 0x7
 906 0546 A9040000 		.4byte	.LASF86
 907 054a 0B       		.byte	0xb
 908 054b 2E       		.byte	0x2e
 909 054c 97000000 		.4byte	0x97
 910 0550 0C       		.byte	0xc
 911 0551 07       		.uleb128 0x7
 912 0552 E7030000 		.4byte	.LASF87
ARM GAS  /var/folders/3j/4xdnk5197cv_b7cw3n33qk7r0000gn/T//cc3uXMrz.s 			page 17


 913 0556 0B       		.byte	0xb
 914 0557 2F       		.byte	0x2f
 915 0558 97000000 		.4byte	0x97
 916 055c 0D       		.byte	0xd
 917 055d 07       		.uleb128 0x7
 918 055e 53000000 		.4byte	.LASF88
 919 0562 0B       		.byte	0xb
 920 0563 30       		.byte	0x30
 921 0564 97000000 		.4byte	0x97
 922 0568 0E       		.byte	0xe
 923 0569 07       		.uleb128 0x7
 924 056a FB020000 		.4byte	.LASF89
 925 056e 0B       		.byte	0xb
 926 056f 31       		.byte	0x31
 927 0570 97000000 		.4byte	0x97
 928 0574 0F       		.byte	0xf
 929 0575 07       		.uleb128 0x7
 930 0576 F2000000 		.4byte	.LASF90
 931 057a 0B       		.byte	0xb
 932 057b 32       		.byte	0x32
 933 057c 97000000 		.4byte	0x97
 934 0580 10       		.byte	0x10
 935 0581 07       		.uleb128 0x7
 936 0582 C2000000 		.4byte	.LASF91
 937 0586 0B       		.byte	0xb
 938 0587 34       		.byte	0x34
 939 0588 97000000 		.4byte	0x97
 940 058c 11       		.byte	0x11
 941 058d 07       		.uleb128 0x7
 942 058e 02010000 		.4byte	.LASF92
 943 0592 0B       		.byte	0xb
 944 0593 35       		.byte	0x35
 945 0594 97000000 		.4byte	0x97
 946 0598 12       		.byte	0x12
 947 0599 07       		.uleb128 0x7
 948 059a D3020000 		.4byte	.LASF93
 949 059e 0B       		.byte	0xb
 950 059f 36       		.byte	0x36
 951 05a0 97000000 		.4byte	0x97
 952 05a4 13       		.byte	0x13
 953 05a5 07       		.uleb128 0x7
 954 05a6 C9030000 		.4byte	.LASF94
 955 05aa 0B       		.byte	0xb
 956 05ab 37       		.byte	0x37
 957 05ac 97000000 		.4byte	0x97
 958 05b0 14       		.byte	0x14
 959 05b1 07       		.uleb128 0x7
 960 05b2 A8030000 		.4byte	.LASF95
 961 05b6 0B       		.byte	0xb
 962 05b7 39       		.byte	0x39
 963 05b8 97000000 		.4byte	0x97
 964 05bc 15       		.byte	0x15
 965 05bd 00       		.byte	0
 966 05be 12       		.uleb128 0x12
 967 05bf CB040000 		.4byte	0x4cb
 968 05c3 CE050000 		.4byte	0x5ce
 969 05c7 13       		.uleb128 0x13
ARM GAS  /var/folders/3j/4xdnk5197cv_b7cw3n33qk7r0000gn/T//cc3uXMrz.s 			page 18


 970 05c8 2C000000 		.4byte	0x2c
 971 05cc 03       		.byte	0x3
 972 05cd 00       		.byte	0
 973 05ce 04       		.uleb128 0x4
 974 05cf EC010000 		.4byte	.LASF96
 975 05d3 0B       		.byte	0xb
 976 05d4 3A       		.byte	0x3a
 977 05d5 DD040000 		.4byte	0x4dd
 978 05d9 11       		.uleb128 0x11
 979 05da CE050000 		.4byte	0x5ce
 980 05de 0E       		.uleb128 0xe
 981 05df 51020000 		.4byte	.LASF97
 982 05e3 0B       		.byte	0xb
 983 05e4 77       		.byte	0x77
 984 05e5 D9050000 		.4byte	0x5d9
 985 05e9 12       		.uleb128 0x12
 986 05ea 79020000 		.4byte	0x279
 987 05ee F9050000 		.4byte	0x5f9
 988 05f2 13       		.uleb128 0x13
 989 05f3 2C000000 		.4byte	0x2c
 990 05f7 26       		.byte	0x26
 991 05f8 00       		.byte	0
 992 05f9 0E       		.uleb128 0xe
 993 05fa FE010000 		.4byte	.LASF98
 994 05fe 0C       		.byte	0xc
 995 05ff 82       		.byte	0x82
 996 0600 E9050000 		.4byte	0x5e9
 997 0604 14       		.uleb128 0x14
 998 0605 DC030000 		.4byte	0x3dc
 999 0609 01       		.byte	0x1
 1000 060a 23       		.byte	0x23
 1001 060b 05       		.uleb128 0x5
 1002 060c 03       		.byte	0x3
 1003 060d 00000000 		.4byte	vtlist
 1004 0611 15       		.uleb128 0x15
 1005 0612 7E000000 		.4byte	.LASF107
 1006 0616 01       		.byte	0x1
 1007 0617 7F       		.byte	0x7f
 1008 0618 C3000000 		.4byte	0xc3
 1009 061c 00000000 		.4byte	.LFB10
 1010 0620 48000000 		.4byte	.LFE10-.LFB10
 1011 0624 01       		.uleb128 0x1
 1012 0625 9C       		.byte	0x9c
 1013 0626 56060000 		.4byte	0x656
 1014 062a 16       		.uleb128 0x16
 1015 062b 02050000 		.4byte	.LASF99
 1016 062f 01       		.byte	0x1
 1017 0630 7F       		.byte	0x7f
 1018 0631 1B010000 		.4byte	0x11b
 1019 0635 00000000 		.4byte	.LLST4
 1020 0639 17       		.uleb128 0x17
 1021 063a 656E6400 		.ascii	"end\000"
 1022 063e 01       		.byte	0x1
 1023 063f 7F       		.byte	0x7f
 1024 0640 1B010000 		.4byte	0x11b
 1025 0644 3A000000 		.4byte	.LLST5
 1026 0648 18       		.uleb128 0x18
ARM GAS  /var/folders/3j/4xdnk5197cv_b7cw3n33qk7r0000gn/T//cc3uXMrz.s 			page 19


 1027 0649 33030000 		.4byte	.LASF102
 1028 064d 01       		.byte	0x1
 1029 064e 81       		.byte	0x81
 1030 064f 1B010000 		.4byte	0x11b
 1031 0653 01       		.uleb128 0x1
 1032 0654 53       		.byte	0x53
 1033 0655 00       		.byte	0
 1034 0656 19       		.uleb128 0x19
 1035 0657 BB040000 		.4byte	.LASF100
 1036 065b 01       		.byte	0x1
 1037 065c 63       		.byte	0x63
 1038 065d 00000000 		.4byte	.LFB9
 1039 0661 3C000000 		.4byte	.LFE9-.LFB9
 1040 0665 01       		.uleb128 0x1
 1041 0666 9C       		.byte	0x9c
 1042 0667 79060000 		.4byte	0x679
 1043 066b 1A       		.uleb128 0x1a
 1044 066c 76747000 		.ascii	"vtp\000"
 1045 0670 01       		.byte	0x1
 1046 0671 63       		.byte	0x63
 1047 0672 92030000 		.4byte	0x392
 1048 0676 01       		.uleb128 0x1
 1049 0677 50       		.byte	0x50
 1050 0678 00       		.byte	0
 1051 0679 19       		.uleb128 0x19
 1052 067a 07030000 		.4byte	.LASF101
 1053 067e 01       		.byte	0x1
 1054 067f 45       		.byte	0x45
 1055 0680 00000000 		.4byte	.LFB8
 1056 0684 64000000 		.4byte	.LFE8-.LFB8
 1057 0688 01       		.uleb128 0x1
 1058 0689 9C       		.byte	0x9c
 1059 068a D6060000 		.4byte	0x6d6
 1060 068e 1A       		.uleb128 0x1a
 1061 068f 76747000 		.ascii	"vtp\000"
 1062 0693 01       		.byte	0x1
 1063 0694 45       		.byte	0x45
 1064 0695 92030000 		.4byte	0x392
 1065 0699 01       		.uleb128 0x1
 1066 069a 50       		.byte	0x50
 1067 069b 16       		.uleb128 0x16
 1068 069c 33030000 		.4byte	.LASF102
 1069 06a0 01       		.byte	0x1
 1070 06a1 45       		.byte	0x45
 1071 06a2 1B010000 		.4byte	0x11b
 1072 06a6 66000000 		.4byte	.LLST0
 1073 06aa 16       		.uleb128 0x16
 1074 06ab A2040000 		.4byte	.LASF103
 1075 06af 01       		.byte	0x1
 1076 06b0 45       		.byte	0x45
 1077 06b1 22030000 		.4byte	0x322
 1078 06b5 93000000 		.4byte	.LLST1
 1079 06b9 17       		.uleb128 0x17
 1080 06ba 70617200 		.ascii	"par\000"
 1081 06be 01       		.byte	0x1
 1082 06bf 45       		.byte	0x45
 1083 06c0 8F020000 		.4byte	0x28f
ARM GAS  /var/folders/3j/4xdnk5197cv_b7cw3n33qk7r0000gn/T//cc3uXMrz.s 			page 20


 1084 06c4 B2000000 		.4byte	.LLST2
 1085 06c8 1B       		.uleb128 0x1b
 1086 06c9 7000     		.ascii	"p\000"
 1087 06cb 01       		.byte	0x1
 1088 06cc 46       		.byte	0x46
 1089 06cd 92030000 		.4byte	0x392
 1090 06d1 D1000000 		.4byte	.LLST3
 1091 06d5 00       		.byte	0
 1092 06d6 1C       		.uleb128 0x1c
 1093 06d7 CF000000 		.4byte	.LASF108
 1094 06db 01       		.byte	0x1
 1095 06dc 2B       		.byte	0x2b
 1096 06dd 00000000 		.4byte	.LFB7
 1097 06e1 24000000 		.4byte	.LFE7-.LFB7
 1098 06e5 01       		.uleb128 0x1
 1099 06e6 9C       		.byte	0x9c
 1100 06e7 00       		.byte	0
 1101              		.section	.debug_abbrev,"",%progbits
 1102              	.Ldebug_abbrev0:
 1103 0000 01       		.uleb128 0x1
 1104 0001 11       		.uleb128 0x11
 1105 0002 01       		.byte	0x1
 1106 0003 25       		.uleb128 0x25
 1107 0004 0E       		.uleb128 0xe
 1108 0005 13       		.uleb128 0x13
 1109 0006 0B       		.uleb128 0xb
 1110 0007 03       		.uleb128 0x3
 1111 0008 0E       		.uleb128 0xe
 1112 0009 1B       		.uleb128 0x1b
 1113 000a 0E       		.uleb128 0xe
 1114 000b 55       		.uleb128 0x55
 1115 000c 17       		.uleb128 0x17
 1116 000d 11       		.uleb128 0x11
 1117 000e 01       		.uleb128 0x1
 1118 000f 10       		.uleb128 0x10
 1119 0010 17       		.uleb128 0x17
 1120 0011 00       		.byte	0
 1121 0012 00       		.byte	0
 1122 0013 02       		.uleb128 0x2
 1123 0014 24       		.uleb128 0x24
 1124 0015 00       		.byte	0
 1125 0016 0B       		.uleb128 0xb
 1126 0017 0B       		.uleb128 0xb
 1127 0018 3E       		.uleb128 0x3e
 1128 0019 0B       		.uleb128 0xb
 1129 001a 03       		.uleb128 0x3
 1130 001b 08       		.uleb128 0x8
 1131 001c 00       		.byte	0
 1132 001d 00       		.byte	0
 1133 001e 03       		.uleb128 0x3
 1134 001f 24       		.uleb128 0x24
 1135 0020 00       		.byte	0
 1136 0021 0B       		.uleb128 0xb
 1137 0022 0B       		.uleb128 0xb
 1138 0023 3E       		.uleb128 0x3e
 1139 0024 0B       		.uleb128 0xb
 1140 0025 03       		.uleb128 0x3
ARM GAS  /var/folders/3j/4xdnk5197cv_b7cw3n33qk7r0000gn/T//cc3uXMrz.s 			page 21


 1141 0026 0E       		.uleb128 0xe
 1142 0027 00       		.byte	0
 1143 0028 00       		.byte	0
 1144 0029 04       		.uleb128 0x4
 1145 002a 16       		.uleb128 0x16
 1146 002b 00       		.byte	0
 1147 002c 03       		.uleb128 0x3
 1148 002d 0E       		.uleb128 0xe
 1149 002e 3A       		.uleb128 0x3a
 1150 002f 0B       		.uleb128 0xb
 1151 0030 3B       		.uleb128 0x3b
 1152 0031 0B       		.uleb128 0xb
 1153 0032 49       		.uleb128 0x49
 1154 0033 13       		.uleb128 0x13
 1155 0034 00       		.byte	0
 1156 0035 00       		.byte	0
 1157 0036 05       		.uleb128 0x5
 1158 0037 35       		.uleb128 0x35
 1159 0038 00       		.byte	0
 1160 0039 49       		.uleb128 0x49
 1161 003a 13       		.uleb128 0x13
 1162 003b 00       		.byte	0
 1163 003c 00       		.byte	0
 1164 003d 06       		.uleb128 0x6
 1165 003e 13       		.uleb128 0x13
 1166 003f 01       		.byte	0x1
 1167 0040 03       		.uleb128 0x3
 1168 0041 0E       		.uleb128 0xe
 1169 0042 0B       		.uleb128 0xb
 1170 0043 0B       		.uleb128 0xb
 1171 0044 3A       		.uleb128 0x3a
 1172 0045 0B       		.uleb128 0xb
 1173 0046 3B       		.uleb128 0x3b
 1174 0047 0B       		.uleb128 0xb
 1175 0048 01       		.uleb128 0x1
 1176 0049 13       		.uleb128 0x13
 1177 004a 00       		.byte	0
 1178 004b 00       		.byte	0
 1179 004c 07       		.uleb128 0x7
 1180 004d 0D       		.uleb128 0xd
 1181 004e 00       		.byte	0
 1182 004f 03       		.uleb128 0x3
 1183 0050 0E       		.uleb128 0xe
 1184 0051 3A       		.uleb128 0x3a
 1185 0052 0B       		.uleb128 0xb
 1186 0053 3B       		.uleb128 0x3b
 1187 0054 0B       		.uleb128 0xb
 1188 0055 49       		.uleb128 0x49
 1189 0056 13       		.uleb128 0x13
 1190 0057 38       		.uleb128 0x38
 1191 0058 0B       		.uleb128 0xb
 1192 0059 00       		.byte	0
 1193 005a 00       		.byte	0
 1194 005b 08       		.uleb128 0x8
 1195 005c 0D       		.uleb128 0xd
 1196 005d 00       		.byte	0
 1197 005e 03       		.uleb128 0x3
ARM GAS  /var/folders/3j/4xdnk5197cv_b7cw3n33qk7r0000gn/T//cc3uXMrz.s 			page 22


 1198 005f 08       		.uleb128 0x8
 1199 0060 3A       		.uleb128 0x3a
 1200 0061 0B       		.uleb128 0xb
 1201 0062 3B       		.uleb128 0x3b
 1202 0063 0B       		.uleb128 0xb
 1203 0064 49       		.uleb128 0x49
 1204 0065 13       		.uleb128 0x13
 1205 0066 38       		.uleb128 0x38
 1206 0067 0B       		.uleb128 0xb
 1207 0068 00       		.byte	0
 1208 0069 00       		.byte	0
 1209 006a 09       		.uleb128 0x9
 1210 006b 13       		.uleb128 0x13
 1211 006c 01       		.byte	0x1
 1212 006d 0B       		.uleb128 0xb
 1213 006e 0B       		.uleb128 0xb
 1214 006f 3A       		.uleb128 0x3a
 1215 0070 0B       		.uleb128 0xb
 1216 0071 3B       		.uleb128 0x3b
 1217 0072 0B       		.uleb128 0xb
 1218 0073 01       		.uleb128 0x1
 1219 0074 13       		.uleb128 0x13
 1220 0075 00       		.byte	0
 1221 0076 00       		.byte	0
 1222 0077 0A       		.uleb128 0xa
 1223 0078 0F       		.uleb128 0xf
 1224 0079 00       		.byte	0
 1225 007a 0B       		.uleb128 0xb
 1226 007b 0B       		.uleb128 0xb
 1227 007c 49       		.uleb128 0x49
 1228 007d 13       		.uleb128 0x13
 1229 007e 00       		.byte	0
 1230 007f 00       		.byte	0
 1231 0080 0B       		.uleb128 0xb
 1232 0081 0F       		.uleb128 0xf
 1233 0082 00       		.byte	0
 1234 0083 0B       		.uleb128 0xb
 1235 0084 0B       		.uleb128 0xb
 1236 0085 00       		.byte	0
 1237 0086 00       		.byte	0
 1238 0087 0C       		.uleb128 0xc
 1239 0088 15       		.uleb128 0x15
 1240 0089 01       		.byte	0x1
 1241 008a 27       		.uleb128 0x27
 1242 008b 19       		.uleb128 0x19
 1243 008c 01       		.uleb128 0x1
 1244 008d 13       		.uleb128 0x13
 1245 008e 00       		.byte	0
 1246 008f 00       		.byte	0
 1247 0090 0D       		.uleb128 0xd
 1248 0091 05       		.uleb128 0x5
 1249 0092 00       		.byte	0
 1250 0093 49       		.uleb128 0x49
 1251 0094 13       		.uleb128 0x13
 1252 0095 00       		.byte	0
 1253 0096 00       		.byte	0
 1254 0097 0E       		.uleb128 0xe
ARM GAS  /var/folders/3j/4xdnk5197cv_b7cw3n33qk7r0000gn/T//cc3uXMrz.s 			page 23


 1255 0098 34       		.uleb128 0x34
 1256 0099 00       		.byte	0
 1257 009a 03       		.uleb128 0x3
 1258 009b 0E       		.uleb128 0xe
 1259 009c 3A       		.uleb128 0x3a
 1260 009d 0B       		.uleb128 0xb
 1261 009e 3B       		.uleb128 0x3b
 1262 009f 0B       		.uleb128 0xb
 1263 00a0 49       		.uleb128 0x49
 1264 00a1 13       		.uleb128 0x13
 1265 00a2 3F       		.uleb128 0x3f
 1266 00a3 19       		.uleb128 0x19
 1267 00a4 3C       		.uleb128 0x3c
 1268 00a5 19       		.uleb128 0x19
 1269 00a6 00       		.byte	0
 1270 00a7 00       		.byte	0
 1271 00a8 0F       		.uleb128 0xf
 1272 00a9 17       		.uleb128 0x17
 1273 00aa 01       		.byte	0x1
 1274 00ab 0B       		.uleb128 0xb
 1275 00ac 0B       		.uleb128 0xb
 1276 00ad 3A       		.uleb128 0x3a
 1277 00ae 0B       		.uleb128 0xb
 1278 00af 3B       		.uleb128 0x3b
 1279 00b0 0B       		.uleb128 0xb
 1280 00b1 01       		.uleb128 0x1
 1281 00b2 13       		.uleb128 0x13
 1282 00b3 00       		.byte	0
 1283 00b4 00       		.byte	0
 1284 00b5 10       		.uleb128 0x10
 1285 00b6 0D       		.uleb128 0xd
 1286 00b7 00       		.byte	0
 1287 00b8 03       		.uleb128 0x3
 1288 00b9 0E       		.uleb128 0xe
 1289 00ba 3A       		.uleb128 0x3a
 1290 00bb 0B       		.uleb128 0xb
 1291 00bc 3B       		.uleb128 0x3b
 1292 00bd 0B       		.uleb128 0xb
 1293 00be 49       		.uleb128 0x49
 1294 00bf 13       		.uleb128 0x13
 1295 00c0 00       		.byte	0
 1296 00c1 00       		.byte	0
 1297 00c2 11       		.uleb128 0x11
 1298 00c3 26       		.uleb128 0x26
 1299 00c4 00       		.byte	0
 1300 00c5 49       		.uleb128 0x49
 1301 00c6 13       		.uleb128 0x13
 1302 00c7 00       		.byte	0
 1303 00c8 00       		.byte	0
 1304 00c9 12       		.uleb128 0x12
 1305 00ca 01       		.uleb128 0x1
 1306 00cb 01       		.byte	0x1
 1307 00cc 49       		.uleb128 0x49
 1308 00cd 13       		.uleb128 0x13
 1309 00ce 01       		.uleb128 0x1
 1310 00cf 13       		.uleb128 0x13
 1311 00d0 00       		.byte	0
ARM GAS  /var/folders/3j/4xdnk5197cv_b7cw3n33qk7r0000gn/T//cc3uXMrz.s 			page 24


 1312 00d1 00       		.byte	0
 1313 00d2 13       		.uleb128 0x13
 1314 00d3 21       		.uleb128 0x21
 1315 00d4 00       		.byte	0
 1316 00d5 49       		.uleb128 0x49
 1317 00d6 13       		.uleb128 0x13
 1318 00d7 2F       		.uleb128 0x2f
 1319 00d8 0B       		.uleb128 0xb
 1320 00d9 00       		.byte	0
 1321 00da 00       		.byte	0
 1322 00db 14       		.uleb128 0x14
 1323 00dc 34       		.uleb128 0x34
 1324 00dd 00       		.byte	0
 1325 00de 47       		.uleb128 0x47
 1326 00df 13       		.uleb128 0x13
 1327 00e0 3A       		.uleb128 0x3a
 1328 00e1 0B       		.uleb128 0xb
 1329 00e2 3B       		.uleb128 0x3b
 1330 00e3 0B       		.uleb128 0xb
 1331 00e4 02       		.uleb128 0x2
 1332 00e5 18       		.uleb128 0x18
 1333 00e6 00       		.byte	0
 1334 00e7 00       		.byte	0
 1335 00e8 15       		.uleb128 0x15
 1336 00e9 2E       		.uleb128 0x2e
 1337 00ea 01       		.byte	0x1
 1338 00eb 3F       		.uleb128 0x3f
 1339 00ec 19       		.uleb128 0x19
 1340 00ed 03       		.uleb128 0x3
 1341 00ee 0E       		.uleb128 0xe
 1342 00ef 3A       		.uleb128 0x3a
 1343 00f0 0B       		.uleb128 0xb
 1344 00f1 3B       		.uleb128 0x3b
 1345 00f2 0B       		.uleb128 0xb
 1346 00f3 27       		.uleb128 0x27
 1347 00f4 19       		.uleb128 0x19
 1348 00f5 49       		.uleb128 0x49
 1349 00f6 13       		.uleb128 0x13
 1350 00f7 11       		.uleb128 0x11
 1351 00f8 01       		.uleb128 0x1
 1352 00f9 12       		.uleb128 0x12
 1353 00fa 06       		.uleb128 0x6
 1354 00fb 40       		.uleb128 0x40
 1355 00fc 18       		.uleb128 0x18
 1356 00fd 9742     		.uleb128 0x2117
 1357 00ff 19       		.uleb128 0x19
 1358 0100 01       		.uleb128 0x1
 1359 0101 13       		.uleb128 0x13
 1360 0102 00       		.byte	0
 1361 0103 00       		.byte	0
 1362 0104 16       		.uleb128 0x16
 1363 0105 05       		.uleb128 0x5
 1364 0106 00       		.byte	0
 1365 0107 03       		.uleb128 0x3
 1366 0108 0E       		.uleb128 0xe
 1367 0109 3A       		.uleb128 0x3a
 1368 010a 0B       		.uleb128 0xb
ARM GAS  /var/folders/3j/4xdnk5197cv_b7cw3n33qk7r0000gn/T//cc3uXMrz.s 			page 25


 1369 010b 3B       		.uleb128 0x3b
 1370 010c 0B       		.uleb128 0xb
 1371 010d 49       		.uleb128 0x49
 1372 010e 13       		.uleb128 0x13
 1373 010f 02       		.uleb128 0x2
 1374 0110 17       		.uleb128 0x17
 1375 0111 00       		.byte	0
 1376 0112 00       		.byte	0
 1377 0113 17       		.uleb128 0x17
 1378 0114 05       		.uleb128 0x5
 1379 0115 00       		.byte	0
 1380 0116 03       		.uleb128 0x3
 1381 0117 08       		.uleb128 0x8
 1382 0118 3A       		.uleb128 0x3a
 1383 0119 0B       		.uleb128 0xb
 1384 011a 3B       		.uleb128 0x3b
 1385 011b 0B       		.uleb128 0xb
 1386 011c 49       		.uleb128 0x49
 1387 011d 13       		.uleb128 0x13
 1388 011e 02       		.uleb128 0x2
 1389 011f 17       		.uleb128 0x17
 1390 0120 00       		.byte	0
 1391 0121 00       		.byte	0
 1392 0122 18       		.uleb128 0x18
 1393 0123 34       		.uleb128 0x34
 1394 0124 00       		.byte	0
 1395 0125 03       		.uleb128 0x3
 1396 0126 0E       		.uleb128 0xe
 1397 0127 3A       		.uleb128 0x3a
 1398 0128 0B       		.uleb128 0xb
 1399 0129 3B       		.uleb128 0x3b
 1400 012a 0B       		.uleb128 0xb
 1401 012b 49       		.uleb128 0x49
 1402 012c 13       		.uleb128 0x13
 1403 012d 02       		.uleb128 0x2
 1404 012e 18       		.uleb128 0x18
 1405 012f 00       		.byte	0
 1406 0130 00       		.byte	0
 1407 0131 19       		.uleb128 0x19
 1408 0132 2E       		.uleb128 0x2e
 1409 0133 01       		.byte	0x1
 1410 0134 3F       		.uleb128 0x3f
 1411 0135 19       		.uleb128 0x19
 1412 0136 03       		.uleb128 0x3
 1413 0137 0E       		.uleb128 0xe
 1414 0138 3A       		.uleb128 0x3a
 1415 0139 0B       		.uleb128 0xb
 1416 013a 3B       		.uleb128 0x3b
 1417 013b 0B       		.uleb128 0xb
 1418 013c 27       		.uleb128 0x27
 1419 013d 19       		.uleb128 0x19
 1420 013e 11       		.uleb128 0x11
 1421 013f 01       		.uleb128 0x1
 1422 0140 12       		.uleb128 0x12
 1423 0141 06       		.uleb128 0x6
 1424 0142 40       		.uleb128 0x40
 1425 0143 18       		.uleb128 0x18
ARM GAS  /var/folders/3j/4xdnk5197cv_b7cw3n33qk7r0000gn/T//cc3uXMrz.s 			page 26


 1426 0144 9742     		.uleb128 0x2117
 1427 0146 19       		.uleb128 0x19
 1428 0147 01       		.uleb128 0x1
 1429 0148 13       		.uleb128 0x13
 1430 0149 00       		.byte	0
 1431 014a 00       		.byte	0
 1432 014b 1A       		.uleb128 0x1a
 1433 014c 05       		.uleb128 0x5
 1434 014d 00       		.byte	0
 1435 014e 03       		.uleb128 0x3
 1436 014f 08       		.uleb128 0x8
 1437 0150 3A       		.uleb128 0x3a
 1438 0151 0B       		.uleb128 0xb
 1439 0152 3B       		.uleb128 0x3b
 1440 0153 0B       		.uleb128 0xb
 1441 0154 49       		.uleb128 0x49
 1442 0155 13       		.uleb128 0x13
 1443 0156 02       		.uleb128 0x2
 1444 0157 18       		.uleb128 0x18
 1445 0158 00       		.byte	0
 1446 0159 00       		.byte	0
 1447 015a 1B       		.uleb128 0x1b
 1448 015b 34       		.uleb128 0x34
 1449 015c 00       		.byte	0
 1450 015d 03       		.uleb128 0x3
 1451 015e 08       		.uleb128 0x8
 1452 015f 3A       		.uleb128 0x3a
 1453 0160 0B       		.uleb128 0xb
 1454 0161 3B       		.uleb128 0x3b
 1455 0162 0B       		.uleb128 0xb
 1456 0163 49       		.uleb128 0x49
 1457 0164 13       		.uleb128 0x13
 1458 0165 02       		.uleb128 0x2
 1459 0166 17       		.uleb128 0x17
 1460 0167 00       		.byte	0
 1461 0168 00       		.byte	0
 1462 0169 1C       		.uleb128 0x1c
 1463 016a 2E       		.uleb128 0x2e
 1464 016b 00       		.byte	0
 1465 016c 3F       		.uleb128 0x3f
 1466 016d 19       		.uleb128 0x19
 1467 016e 03       		.uleb128 0x3
 1468 016f 0E       		.uleb128 0xe
 1469 0170 3A       		.uleb128 0x3a
 1470 0171 0B       		.uleb128 0xb
 1471 0172 3B       		.uleb128 0x3b
 1472 0173 0B       		.uleb128 0xb
 1473 0174 27       		.uleb128 0x27
 1474 0175 19       		.uleb128 0x19
 1475 0176 11       		.uleb128 0x11
 1476 0177 01       		.uleb128 0x1
 1477 0178 12       		.uleb128 0x12
 1478 0179 06       		.uleb128 0x6
 1479 017a 40       		.uleb128 0x40
 1480 017b 18       		.uleb128 0x18
 1481 017c 9742     		.uleb128 0x2117
 1482 017e 19       		.uleb128 0x19
ARM GAS  /var/folders/3j/4xdnk5197cv_b7cw3n33qk7r0000gn/T//cc3uXMrz.s 			page 27


 1483 017f 00       		.byte	0
 1484 0180 00       		.byte	0
 1485 0181 00       		.byte	0
 1486              		.section	.debug_loc,"",%progbits
 1487              	.Ldebug_loc0:
 1488              	.LLST4:
 1489 0000 00000000 		.4byte	.LVL8
 1490 0004 28000000 		.4byte	.LVL11
 1491 0008 0100     		.2byte	0x1
 1492 000a 50       		.byte	0x50
 1493 000b 28000000 		.4byte	.LVL11
 1494 000f 2C000000 		.4byte	.LVL12
 1495 0013 0400     		.2byte	0x4
 1496 0015 F3       		.byte	0xf3
 1497 0016 01       		.uleb128 0x1
 1498 0017 50       		.byte	0x50
 1499 0018 9F       		.byte	0x9f
 1500 0019 2C000000 		.4byte	.LVL12
 1501 001d 34000000 		.4byte	.LVL13
 1502 0021 0100     		.2byte	0x1
 1503 0023 50       		.byte	0x50
 1504 0024 34000000 		.4byte	.LVL13
 1505 0028 48000000 		.4byte	.LFE10
 1506 002c 0400     		.2byte	0x4
 1507 002e F3       		.byte	0xf3
 1508 002f 01       		.uleb128 0x1
 1509 0030 50       		.byte	0x50
 1510 0031 9F       		.byte	0x9f
 1511 0032 00000000 		.4byte	0
 1512 0036 00000000 		.4byte	0
 1513              	.LLST5:
 1514 003a 00000000 		.4byte	.LVL8
 1515 003e 18000000 		.4byte	.LVL10
 1516 0042 0100     		.2byte	0x1
 1517 0044 51       		.byte	0x51
 1518 0045 18000000 		.4byte	.LVL10
 1519 0049 2C000000 		.4byte	.LVL12
 1520 004d 0400     		.2byte	0x4
 1521 004f F3       		.byte	0xf3
 1522 0050 01       		.uleb128 0x1
 1523 0051 51       		.byte	0x51
 1524 0052 9F       		.byte	0x9f
 1525 0053 2C000000 		.4byte	.LVL12
 1526 0057 48000000 		.4byte	.LFE10
 1527 005b 0100     		.2byte	0x1
 1528 005d 51       		.byte	0x51
 1529 005e 00000000 		.4byte	0
 1530 0062 00000000 		.4byte	0
 1531              	.LLST0:
 1532 0066 00000000 		.4byte	.LVL0
 1533 006a 24000000 		.4byte	.LVL4
 1534 006e 0100     		.2byte	0x1
 1535 0070 51       		.byte	0x51
 1536 0071 24000000 		.4byte	.LVL4
 1537 0075 58000000 		.4byte	.LVL5
 1538 0079 0100     		.2byte	0x1
 1539 007b 51       		.byte	0x51
ARM GAS  /var/folders/3j/4xdnk5197cv_b7cw3n33qk7r0000gn/T//cc3uXMrz.s 			page 28


 1540 007c 58000000 		.4byte	.LVL5
 1541 0080 5C000000 		.4byte	.LVL6
 1542 0084 0500     		.2byte	0x5
 1543 0086 73       		.byte	0x73
 1544 0087 04       		.sleb128 4
 1545 0088 06       		.byte	0x6
 1546 0089 23       		.byte	0x23
 1547 008a 08       		.uleb128 0x8
 1548 008b 00000000 		.4byte	0
 1549 008f 00000000 		.4byte	0
 1550              	.LLST1:
 1551 0093 00000000 		.4byte	.LVL0
 1552 0097 14000000 		.4byte	.LVL2
 1553 009b 0100     		.2byte	0x1
 1554 009d 52       		.byte	0x52
 1555 009e 14000000 		.4byte	.LVL2
 1556 00a2 64000000 		.4byte	.LFE8
 1557 00a6 0200     		.2byte	0x2
 1558 00a8 70       		.byte	0x70
 1559 00a9 0C       		.sleb128 12
 1560 00aa 00000000 		.4byte	0
 1561 00ae 00000000 		.4byte	0
 1562              	.LLST2:
 1563 00b2 00000000 		.4byte	.LVL0
 1564 00b6 0C000000 		.4byte	.LVL1
 1565 00ba 0100     		.2byte	0x1
 1566 00bc 53       		.byte	0x53
 1567 00bd 0C000000 		.4byte	.LVL1
 1568 00c1 64000000 		.4byte	.LFE8
 1569 00c5 0200     		.2byte	0x2
 1570 00c7 70       		.byte	0x70
 1571 00c8 10       		.sleb128 16
 1572 00c9 00000000 		.4byte	0
 1573 00cd 00000000 		.4byte	0
 1574              	.LLST3:
 1575 00d1 0C000000 		.4byte	.LVL1
 1576 00d5 20000000 		.4byte	.LVL3
 1577 00d9 0100     		.2byte	0x1
 1578 00db 53       		.byte	0x53
 1579 00dc 24000000 		.4byte	.LVL4
 1580 00e0 64000000 		.4byte	.LFE8
 1581 00e4 0100     		.2byte	0x1
 1582 00e6 53       		.byte	0x53
 1583 00e7 00000000 		.4byte	0
 1584 00eb 00000000 		.4byte	0
 1585              		.section	.debug_aranges,"",%progbits
 1586 0000 34000000 		.4byte	0x34
 1587 0004 0200     		.2byte	0x2
 1588 0006 00000000 		.4byte	.Ldebug_info0
 1589 000a 04       		.byte	0x4
 1590 000b 00       		.byte	0
 1591 000c 0000     		.2byte	0
 1592 000e 0000     		.2byte	0
 1593 0010 00000000 		.4byte	.LFB7
 1594 0014 24000000 		.4byte	.LFE7-.LFB7
 1595 0018 00000000 		.4byte	.LFB8
 1596 001c 64000000 		.4byte	.LFE8-.LFB8
ARM GAS  /var/folders/3j/4xdnk5197cv_b7cw3n33qk7r0000gn/T//cc3uXMrz.s 			page 29


 1597 0020 00000000 		.4byte	.LFB9
 1598 0024 3C000000 		.4byte	.LFE9-.LFB9
 1599 0028 00000000 		.4byte	.LFB10
 1600 002c 48000000 		.4byte	.LFE10-.LFB10
 1601 0030 00000000 		.4byte	0
 1602 0034 00000000 		.4byte	0
 1603              		.section	.debug_ranges,"",%progbits
 1604              	.Ldebug_ranges0:
 1605 0000 00000000 		.4byte	.LFB7
 1606 0004 24000000 		.4byte	.LFE7
 1607 0008 00000000 		.4byte	.LFB8
 1608 000c 64000000 		.4byte	.LFE8
 1609 0010 00000000 		.4byte	.LFB9
 1610 0014 3C000000 		.4byte	.LFE9
 1611 0018 00000000 		.4byte	.LFB10
 1612 001c 48000000 		.4byte	.LFE10
 1613 0020 00000000 		.4byte	0
 1614 0024 00000000 		.4byte	0
 1615              		.section	.debug_line,"",%progbits
 1616              	.Ldebug_line0:
 1617 0000 F8010000 		.section	.debug_str,"MS",%progbits,1
 1617      02007B01 
 1617      00000201 
 1617      FB0E0D00 
 1617      01010101 
 1618              	.LASF106:
 1619 0000 2F557365 		.ascii	"/Users/kevinmalmsten/development_raspberry_pi/Backu"
 1619      72732F6B 
 1619      6576696E 
 1619      6D616C6D 
 1619      7374656E 
 1620 0033 7053656E 		.ascii	"pSensor_ChibiOS/__Backup_System\000"
 1620      736F725F 
 1620      43686962 
 1620      694F532F 
 1620      5F5F4261 
 1621              	.LASF88:
 1622 0053 63665F6F 		.ascii	"cf_off_older\000"
 1622      66665F6F 
 1622      6C646572 
 1622      00
 1623              	.LASF41:
 1624 0060 705F6D73 		.ascii	"p_msg\000"
 1624      6700
 1625              	.LASF73:
 1626 0066 7264796D 		.ascii	"rdymsg\000"
 1626      736700
 1627              	.LASF4:
 1628 006d 5F5F7569 		.ascii	"__uint8_t\000"
 1628      6E74385F 
 1628      7400
 1629              	.LASF67:
 1630 0077 76746C69 		.ascii	"vtlist\000"
 1630      737400
 1631              	.LASF107:
 1632 007e 63685469 		.ascii	"chTimeIsWithin\000"
 1632      6D654973 
ARM GAS  /var/folders/3j/4xdnk5197cv_b7cw3n33qk7r0000gn/T//cc3uXMrz.s 			page 30


 1632      57697468 
 1632      696E00
 1633              	.LASF12:
 1634 008d 6C6F6E67 		.ascii	"long long unsigned int\000"
 1634      206C6F6E 
 1634      6720756E 
 1634      7369676E 
 1634      65642069 
 1635              	.LASF84:
 1636 00a4 63685F74 		.ascii	"ch_threadsize\000"
 1636      68726561 
 1636      6473697A 
 1636      6500
 1637              	.LASF74:
 1638 00b2 65786974 		.ascii	"exitcode\000"
 1638      636F6465 
 1638      00
 1639              	.LASF29:
 1640 00bb 705F7072 		.ascii	"p_prio\000"
 1640      696F00
 1641              	.LASF91:
 1642 00c2 63665F6F 		.ascii	"cf_off_state\000"
 1642      66665F73 
 1642      74617465 
 1642      00
 1643              	.LASF108:
 1644 00cf 5F76745F 		.ascii	"_vt_init\000"
 1644      696E6974 
 1644      00
 1645              	.LASF11:
 1646 00d8 6C6F6E67 		.ascii	"long long int\000"
 1646      206C6F6E 
 1646      6720696E 
 1646      7400
 1647              	.LASF1:
 1648 00e6 7369676E 		.ascii	"signed char\000"
 1648      65642063 
 1648      68617200 
 1649              	.LASF90:
 1650 00f2 63665F6F 		.ascii	"cf_off_stklimit\000"
 1650      66665F73 
 1650      746B6C69 
 1650      6D697400 
 1651              	.LASF92:
 1652 0102 63665F6F 		.ascii	"cf_off_flags\000"
 1652      66665F66 
 1652      6C616773 
 1652      00
 1653              	.LASF17:
 1654 010f 626F6F6C 		.ascii	"bool_t\000"
 1654      5F7400
 1655              	.LASF70:
 1656 0116 6D5F7175 		.ascii	"m_queue\000"
 1656      65756500 
 1657              	.LASF104:
 1658 011e 474E5520 		.ascii	"GNU C11 7.3.1 20180622 (release) [ARM/embedded-7-br"
 1658      43313120 
ARM GAS  /var/folders/3j/4xdnk5197cv_b7cw3n33qk7r0000gn/T//cc3uXMrz.s 			page 31


 1658      372E332E 
 1658      31203230 
 1658      31383036 
 1659 0151 616E6368 		.ascii	"anch revision 261907] -mcpu=arm1176jz-s -mno-thumb-"
 1659      20726576 
 1659      6973696F 
 1659      6E203236 
 1659      31393037 
 1660 0184 696E7465 		.ascii	"interwork -ggdb -O2 -fomit-frame-pointer -ffunction"
 1660      72776F72 
 1660      6B202D67 
 1660      67646220 
 1660      2D4F3220 
 1661 01b7 2D736563 		.ascii	"-sections -fdata-sections\000"
 1661      74696F6E 
 1661      73202D66 
 1661      64617461 
 1661      2D736563 
 1662              	.LASF8:
 1663 01d1 6C6F6E67 		.ascii	"long int\000"
 1663      20696E74 
 1663      00
 1664              	.LASF19:
 1665 01da 74737461 		.ascii	"tstate_t\000"
 1665      74655F74 
 1665      00
 1666              	.LASF14:
 1667 01e3 75696E74 		.ascii	"uint16_t\000"
 1667      31365F74 
 1667      00
 1668              	.LASF96:
 1669 01ec 63686465 		.ascii	"chdebug_t\000"
 1669      6275675F 
 1669      7400
 1670              	.LASF31:
 1671 01f6 705F6E65 		.ascii	"p_newer\000"
 1671      77657200 
 1672              	.LASF98:
 1673 01fe 5F69646C 		.ascii	"_idle_thread_wa\000"
 1673      655F7468 
 1673      72656164 
 1673      5F776100 
 1674              	.LASF9:
 1675 020e 5F5F7569 		.ascii	"__uint32_t\000"
 1675      6E743332 
 1675      5F7400
 1676              	.LASF48:
 1677 0219 72656761 		.ascii	"regarm_t\000"
 1677      726D5F74 
 1677      00
 1678              	.LASF54:
 1679 0222 76745F70 		.ascii	"vt_prev\000"
 1679      72657600 
 1680              	.LASF0:
 1681 022a 756E7369 		.ascii	"unsigned int\000"
 1681      676E6564 
 1681      20696E74 
ARM GAS  /var/folders/3j/4xdnk5197cv_b7cw3n33qk7r0000gn/T//cc3uXMrz.s 			page 32


 1681      00
 1682              	.LASF53:
 1683 0237 76745F6E 		.ascii	"vt_next\000"
 1683      65787400 
 1684              	.LASF10:
 1685 023f 6C6F6E67 		.ascii	"long unsigned int\000"
 1685      20756E73 
 1685      69676E65 
 1685      6420696E 
 1685      7400
 1686              	.LASF97:
 1687 0251 63685F64 		.ascii	"ch_debug\000"
 1687      65627567 
 1687      00
 1688              	.LASF51:
 1689 025a 76746675 		.ascii	"vtfunc_t\000"
 1689      6E635F74 
 1689      00
 1690              	.LASF78:
 1691 0263 63685F69 		.ascii	"ch_identifier\000"
 1691      64656E74 
 1691      69666965 
 1691      7200
 1692              	.LASF50:
 1693 0271 636F6E74 		.ascii	"context\000"
 1693      65787400 
 1694              	.LASF6:
 1695 0279 73686F72 		.ascii	"short unsigned int\000"
 1695      7420756E 
 1695      7369676E 
 1695      65642069 
 1695      6E7400
 1696              	.LASF23:
 1697 028c 6D73675F 		.ascii	"msg_t\000"
 1697      7400
 1698              	.LASF63:
 1699 0292 725F6E65 		.ascii	"r_newer\000"
 1699      77657200 
 1700              	.LASF18:
 1701 029a 746D6F64 		.ascii	"tmode_t\000"
 1701      655F7400 
 1702              	.LASF46:
 1703 02a2 54687265 		.ascii	"ThreadsList\000"
 1703      6164734C 
 1703      69737400 
 1704              	.LASF24:
 1705 02ae 6576656E 		.ascii	"eventmask_t\000"
 1705      746D6173 
 1705      6B5F7400 
 1706              	.LASF69:
 1707 02ba 4D757465 		.ascii	"Mutex\000"
 1707      7800
 1708              	.LASF47:
 1709 02c0 73746B61 		.ascii	"stkalign_t\000"
 1709      6C69676E 
 1709      5F7400
 1710              	.LASF79:
ARM GAS  /var/folders/3j/4xdnk5197cv_b7cw3n33qk7r0000gn/T//cc3uXMrz.s 			page 33


 1711 02cb 63685F7A 		.ascii	"ch_zero\000"
 1711      65726F00 
 1712              	.LASF93:
 1713 02d3 63665F6F 		.ascii	"cf_off_refs\000"
 1713      66665F72 
 1713      65667300 
 1714              	.LASF55:
 1715 02df 76745F74 		.ascii	"vt_time\000"
 1715      696D6500 
 1716              	.LASF56:
 1717 02e7 76745F66 		.ascii	"vt_func\000"
 1717      756E6300 
 1718              	.LASF83:
 1719 02ef 63685F74 		.ascii	"ch_timesize\000"
 1719      696D6573 
 1719      697A6500 
 1720              	.LASF89:
 1721 02fb 63665F6F 		.ascii	"cf_off_name\000"
 1721      66665F6E 
 1721      616D6500 
 1722              	.LASF101:
 1723 0307 63685654 		.ascii	"chVTSetI\000"
 1723      53657449 
 1723      00
 1724              	.LASF32:
 1725 0310 705F6F6C 		.ascii	"p_older\000"
 1725      64657200 
 1726              	.LASF62:
 1727 0318 725F6374 		.ascii	"r_ctx\000"
 1727      7800
 1728              	.LASF45:
 1729 031e 54687265 		.ascii	"ThreadsQueue\000"
 1729      61647351 
 1729      75657565 
 1729      00
 1730              	.LASF80:
 1731 032b 63685F73 		.ascii	"ch_size\000"
 1731      697A6500 
 1732              	.LASF102:
 1733 0333 74696D65 		.ascii	"time\000"
 1733      00
 1734              	.LASF65:
 1735 0338 725F6375 		.ascii	"r_current\000"
 1735      7272656E 
 1735      7400
 1736              	.LASF64:
 1737 0342 725F6F6C 		.ascii	"r_older\000"
 1737      64657200 
 1738              	.LASF20:
 1739 034a 74726566 		.ascii	"trefs_t\000"
 1739      735F7400 
 1740              	.LASF82:
 1741 0352 63685F70 		.ascii	"ch_ptrsize\000"
 1741      74727369 
 1741      7A6500
 1742              	.LASF28:
 1743 035d 705F7072 		.ascii	"p_prev\000"
ARM GAS  /var/folders/3j/4xdnk5197cv_b7cw3n33qk7r0000gn/T//cc3uXMrz.s 			page 34


 1743      657600
 1744              	.LASF22:
 1745 0364 74707269 		.ascii	"tprio_t\000"
 1745      6F5F7400 
 1746              	.LASF15:
 1747 036c 696E7433 		.ascii	"int32_t\000"
 1747      325F7400 
 1748              	.LASF2:
 1749 0374 756E7369 		.ascii	"unsigned char\000"
 1749      676E6564 
 1749      20636861 
 1749      7200
 1750              	.LASF43:
 1751 0382 705F6D74 		.ascii	"p_mtxlist\000"
 1751      786C6973 
 1751      7400
 1752              	.LASF3:
 1753 038c 73686F72 		.ascii	"short int\000"
 1753      7420696E 
 1753      7400
 1754              	.LASF34:
 1755 0396 705F7374 		.ascii	"p_state\000"
 1755      61746500 
 1756              	.LASF37:
 1757 039e 705F7072 		.ascii	"p_preempt\000"
 1757      65656D70 
 1757      7400
 1758              	.LASF95:
 1759 03a8 63665F6F 		.ascii	"cf_off_time\000"
 1759      66665F74 
 1759      696D6500 
 1760              	.LASF61:
 1761 03b4 725F7072 		.ascii	"r_prio\000"
 1761      696F00
 1762              	.LASF76:
 1763 03bb 65776D61 		.ascii	"ewmask\000"
 1763      736B00
 1764              	.LASF27:
 1765 03c2 705F6E65 		.ascii	"p_next\000"
 1765      787400
 1766              	.LASF94:
 1767 03c9 63665F6F 		.ascii	"cf_off_preempt\000"
 1767      66665F70 
 1767      7265656D 
 1767      707400
 1768              	.LASF35:
 1769 03d8 705F666C 		.ascii	"p_flags\000"
 1769      61677300 
 1770              	.LASF26:
 1771 03e0 54687265 		.ascii	"Thread\000"
 1771      616400
 1772              	.LASF87:
 1773 03e7 63665F6F 		.ascii	"cf_off_newer\000"
 1773      66665F6E 
 1773      65776572 
 1773      00
 1774              	.LASF42:
ARM GAS  /var/folders/3j/4xdnk5197cv_b7cw3n33qk7r0000gn/T//cc3uXMrz.s 			page 35


 1775 03f4 705F6570 		.ascii	"p_epending\000"
 1775      656E6469 
 1775      6E6700
 1776              	.LASF16:
 1777 03ff 75696E74 		.ascii	"uint32_t\000"
 1777      33325F74 
 1777      00
 1778              	.LASF85:
 1779 0408 63665F6F 		.ascii	"cf_off_prio\000"
 1779      66665F70 
 1779      72696F00 
 1780              	.LASF60:
 1781 0414 725F7175 		.ascii	"r_queue\000"
 1781      65756500 
 1782              	.LASF52:
 1783 041c 56697274 		.ascii	"VirtualTimer\000"
 1783      75616C54 
 1783      696D6572 
 1783      00
 1784              	.LASF21:
 1785 0429 74736C69 		.ascii	"tslices_t\000"
 1785      6365735F 
 1785      7400
 1786              	.LASF77:
 1787 0433 63686172 		.ascii	"char\000"
 1787      00
 1788              	.LASF5:
 1789 0438 5F5F7569 		.ascii	"__uint16_t\000"
 1789      6E743136 
 1789      5F7400
 1790              	.LASF72:
 1791 0443 6D5F6E65 		.ascii	"m_next\000"
 1791      787400
 1792              	.LASF25:
 1793 044a 73797374 		.ascii	"systime_t\000"
 1793      696D655F 
 1793      7400
 1794              	.LASF44:
 1795 0454 705F7265 		.ascii	"p_realprio\000"
 1795      616C7072 
 1795      696F00
 1796              	.LASF7:
 1797 045f 5F5F696E 		.ascii	"__int32_t\000"
 1797      7433325F 
 1797      7400
 1798              	.LASF105:
 1799 0469 2E2E2F2F 		.ascii	"..//os/kernel/src/chvt.c\000"
 1799      6F732F6B 
 1799      65726E65 
 1799      6C2F7372 
 1799      632F6368 
 1800              	.LASF38:
 1801 0482 705F7469 		.ascii	"p_time\000"
 1801      6D6500
 1802              	.LASF49:
 1803 0489 696E7463 		.ascii	"intctx\000"
 1803      747800
ARM GAS  /var/folders/3j/4xdnk5197cv_b7cw3n33qk7r0000gn/T//cc3uXMrz.s 			page 36


 1804              	.LASF40:
 1805 0490 705F6D73 		.ascii	"p_msgqueue\000"
 1805      67717565 
 1805      756500
 1806              	.LASF57:
 1807 049b 76745F70 		.ascii	"vt_par\000"
 1807      617200
 1808              	.LASF103:
 1809 04a2 76746675 		.ascii	"vtfunc\000"
 1809      6E6300
 1810              	.LASF86:
 1811 04a9 63665F6F 		.ascii	"cf_off_ctx\000"
 1811      66665F63 
 1811      747800
 1812              	.LASF36:
 1813 04b4 705F7265 		.ascii	"p_refs\000"
 1813      667300
 1814              	.LASF100:
 1815 04bb 63685654 		.ascii	"chVTResetI\000"
 1815      52657365 
 1815      744900
 1816              	.LASF66:
 1817 04c6 52656164 		.ascii	"ReadyList\000"
 1817      794C6973 
 1817      7400
 1818              	.LASF68:
 1819 04d0 726C6973 		.ascii	"rlist\000"
 1819      7400
 1820              	.LASF13:
 1821 04d6 75696E74 		.ascii	"uint8_t\000"
 1821      385F7400 
 1822              	.LASF75:
 1823 04de 77746F62 		.ascii	"wtobjp\000"
 1823      6A7000
 1824              	.LASF33:
 1825 04e5 705F6E61 		.ascii	"p_name\000"
 1825      6D6500
 1826              	.LASF58:
 1827 04ec 76745F73 		.ascii	"vt_systime\000"
 1827      79737469 
 1827      6D6500
 1828              	.LASF81:
 1829 04f7 63685F76 		.ascii	"ch_version\000"
 1829      65727369 
 1829      6F6E00
 1830              	.LASF99:
 1831 0502 73746172 		.ascii	"start\000"
 1831      7400
 1832              	.LASF59:
 1833 0508 56544C69 		.ascii	"VTList\000"
 1833      737400
 1834              	.LASF71:
 1835 050f 6D5F6F77 		.ascii	"m_owner\000"
 1835      6E657200 
 1836              	.LASF30:
 1837 0517 705F6374 		.ascii	"p_ctx\000"
 1837      7800
ARM GAS  /var/folders/3j/4xdnk5197cv_b7cw3n33qk7r0000gn/T//cc3uXMrz.s 			page 37


 1838              	.LASF39:
 1839 051d 705F7761 		.ascii	"p_waiting\000"
 1839      6974696E 
 1839      6700
 1840              		.ident	"GCC: (GNU Tools for Arm Embedded Processors 7-2018-q2-update) 7.3.1 20180622 (release) [AR
ARM GAS  /var/folders/3j/4xdnk5197cv_b7cw3n33qk7r0000gn/T//cc3uXMrz.s 			page 38


DEFINED SYMBOLS
                            *ABS*:0000000000000000 chvt.c
/var/folders/3j/4xdnk5197cv_b7cw3n33qk7r0000gn/T//cc3uXMrz.s:16     .text._vt_init:0000000000000000 $a
/var/folders/3j/4xdnk5197cv_b7cw3n33qk7r0000gn/T//cc3uXMrz.s:22     .text._vt_init:0000000000000000 _vt_init
/var/folders/3j/4xdnk5197cv_b7cw3n33qk7r0000gn/T//cc3uXMrz.s:48     .text._vt_init:0000000000000020 $d
                            *COM*:0000000000000010 vtlist
/var/folders/3j/4xdnk5197cv_b7cw3n33qk7r0000gn/T//cc3uXMrz.s:53     .text.chVTSetI:0000000000000000 $a
/var/folders/3j/4xdnk5197cv_b7cw3n33qk7r0000gn/T//cc3uXMrz.s:59     .text.chVTSetI:0000000000000000 chVTSetI
/var/folders/3j/4xdnk5197cv_b7cw3n33qk7r0000gn/T//cc3uXMrz.s:117    .text.chVTSetI:0000000000000060 $d
/var/folders/3j/4xdnk5197cv_b7cw3n33qk7r0000gn/T//cc3uXMrz.s:122    .text.chVTResetI:0000000000000000 $a
/var/folders/3j/4xdnk5197cv_b7cw3n33qk7r0000gn/T//cc3uXMrz.s:128    .text.chVTResetI:0000000000000000 chVTResetI
/var/folders/3j/4xdnk5197cv_b7cw3n33qk7r0000gn/T//cc3uXMrz.s:161    .text.chVTResetI:0000000000000038 $d
/var/folders/3j/4xdnk5197cv_b7cw3n33qk7r0000gn/T//cc3uXMrz.s:166    .text.chTimeIsWithin:0000000000000000 $a
/var/folders/3j/4xdnk5197cv_b7cw3n33qk7r0000gn/T//cc3uXMrz.s:172    .text.chTimeIsWithin:0000000000000000 chTimeIsWithin
/var/folders/3j/4xdnk5197cv_b7cw3n33qk7r0000gn/T//cc3uXMrz.s:214    .text.chTimeIsWithin:0000000000000044 $d

NO UNDEFINED SYMBOLS
