ARM GAS  /var/folders/3j/4xdnk5197cv_b7cw3n33qk7r0000gn/T//cc3uXMrz.s 			page 1


   1              		.cpu arm1176jz-s
   2              		.eabi_attribute 20, 1
   3              		.eabi_attribute 21, 1
   4              		.eabi_attribute 23, 3
   5              		.eabi_attribute 24, 1
   6              		.eabi_attribute 25, 1
   7              		.eabi_attribute 26, 1
   8              		.eabi_attribute 30, 2
   9              		.eabi_attribute 34, 1
  10              		.eabi_attribute 18, 4
  11              		.file	"chvt.c"
  12              		.text
  13              	.Ltext0:
  14              		.cfi_sections	.debug_frame
  15              		.section	.text._vt_init,"ax",%progbits
  16              		.align	2
  17              		.global	_vt_init
  18              		.syntax unified
  19              		.arm
  20              		.fpu softvfp
  21              		.type	_vt_init, %function
  22              	_vt_init:
  23              	.LFB7:
  24              		.file 1 "..//os/kernel/src/chvt.c"
  25              		.loc 1 43 0
  26              		.cfi_startproc
  27              		@ args = 0, pretend = 0, frame = 0
  28              		@ frame_needed = 0, uses_anonymous_args = 0
  29              		@ link register save eliminated.
  30              		.loc 1 46 0
  31 0000 0010E0E3 		mvn	r1, #0
  32              		.loc 1 47 0
  33 0004 0020A0E3 		mov	r2, #0
  34              		.loc 1 45 0
  35 0008 10309FE5 		ldr	r3, .L3
  36              		.loc 1 46 0
  37 000c 081083E5 		str	r1, [r3, #8]
  38              		.loc 1 45 0
  39 0010 043083E5 		str	r3, [r3, #4]
  40 0014 003083E5 		str	r3, [r3]
  41              		.loc 1 47 0
  42 0018 0C2083E5 		str	r2, [r3, #12]
  43              		.loc 1 48 0
  44 001c 1EFF2FE1 		bx	lr
  45              	.L4:
  46              		.align	2
  47              	.L3:
  48 0020 00000000 		.word	vtlist
  49              		.cfi_endproc
  50              	.LFE7:
  51              		.size	_vt_init, .-_vt_init
  52              		.section	.text.chVTSetI,"ax",%progbits
  53              		.align	2
  54              		.global	chVTSetI
  55              		.syntax unified
  56              		.arm
  57              		.fpu softvfp
ARM GAS  /var/folders/3j/4xdnk5197cv_b7cw3n33qk7r0000gn/T//cc3uXMrz.s 			page 2


  58              		.type	chVTSetI, %function
  59              	chVTSetI:
  60              	.LFB8:
  61              		.loc 1 69 0
  62              		.cfi_startproc
  63              		@ args = 0, pretend = 0, frame = 0
  64              		@ frame_needed = 0, uses_anonymous_args = 0
  65              		@ link register save eliminated.
  66              	.LVL0:
  67              		.loc 1 78 0
  68 0000 58C09FE5 		ldr	ip, .L10
  69              		.loc 1 76 0
  70 0004 103080E5 		str	r3, [r0, #16]
  71              		.loc 1 78 0
  72 0008 00309CE5 		ldr	r3, [ip]
  73              	.LVL1:
  74              		.loc 1 77 0
  75 000c 0C2080E5 		str	r2, [r0, #12]
  76              		.loc 1 79 0
  77 0010 082093E5 		ldr	r2, [r3, #8]
  78              	.LVL2:
  79 0014 020051E1 		cmp	r1, r2
  80 0018 0400009A 		bls	.L6
  81              	.L7:
  82              		.loc 1 81 0
  83 001c 003093E5 		ldr	r3, [r3]
  84              	.LVL3:
  85              		.loc 1 80 0
  86 0020 021041E0 		sub	r1, r1, r2
  87              	.LVL4:
  88              		.loc 1 79 0
  89 0024 082093E5 		ldr	r2, [r3, #8]
  90 0028 010052E1 		cmp	r2, r1
  91 002c FAFFFF3A 		bcc	.L7
  92              	.L6:
  93              		.loc 1 84 0
  94 0030 042093E5 		ldr	r2, [r3, #4]
  95 0034 003080E5 		str	r3, [r0]
  96 0038 042080E5 		str	r2, [r0, #4]
  97              		.loc 1 85 0
  98 003c 040083E5 		str	r0, [r3, #4]
  99 0040 042090E5 		ldr	r2, [r0, #4]
 100              		.loc 1 87 0
 101 0044 0C0053E1 		cmp	r3, ip
 102              		.loc 1 85 0
 103 0048 000082E5 		str	r0, [r2]
 104              		.loc 1 86 0
 105 004c 081080E5 		str	r1, [r0, #8]
 106              		.loc 1 88 0
 107 0050 08209315 		ldrne	r2, [r3, #8]
 108 0054 01104210 		subne	r1, r2, r1
 109              	.LVL5:
 110 0058 08108315 		strne	r1, [r3, #8]
 111              	.LVL6:
 112              		.loc 1 89 0
 113 005c 1EFF2FE1 		bx	lr
 114              	.L11:
ARM GAS  /var/folders/3j/4xdnk5197cv_b7cw3n33qk7r0000gn/T//cc3uXMrz.s 			page 3


 115              		.align	2
 116              	.L10:
 117 0060 00000000 		.word	vtlist
 118              		.cfi_endproc
 119              	.LFE8:
 120              		.size	chVTSetI, .-chVTSetI
 121              		.section	.text.chVTResetI,"ax",%progbits
 122              		.align	2
 123              		.global	chVTResetI
 124              		.syntax unified
 125              		.arm
 126              		.fpu softvfp
 127              		.type	chVTResetI, %function
 128              	chVTResetI:
 129              	.LFB9:
 130              		.loc 1 99 0
 131              		.cfi_startproc
 132              		@ args = 0, pretend = 0, frame = 0
 133              		@ frame_needed = 0, uses_anonymous_args = 0
 134              		@ link register save eliminated.
 135              	.LVL7:
 136              		.loc 1 107 0
 137 0000 003090E5 		ldr	r3, [r0]
 138 0004 2C209FE5 		ldr	r2, .L14
 139 0008 020053E1 		cmp	r3, r2
 140              		.loc 1 108 0
 141 000c 08209315 		ldrne	r2, [r3, #8]
 142 0010 08109015 		ldrne	r1, [r0, #8]
 143 0014 01208210 		addne	r2, r2, r1
 144              		.loc 1 111 0
 145 0018 0010A0E3 		mov	r1, #0
 146              		.loc 1 108 0
 147 001c 08208315 		strne	r2, [r3, #8]
 148              		.loc 1 109 0
 149 0020 042090E5 		ldr	r2, [r0, #4]
 150 0024 003082E5 		str	r3, [r2]
 151              		.loc 1 110 0
 152 0028 003090E5 		ldr	r3, [r0]
 153 002c 042083E5 		str	r2, [r3, #4]
 154              		.loc 1 111 0
 155 0030 0C1080E5 		str	r1, [r0, #12]
 156              		.loc 1 112 0
 157 0034 1EFF2FE1 		bx	lr
 158              	.L15:
 159              		.align	2
 160              	.L14:
 161 0038 00000000 		.word	vtlist
 162              		.cfi_endproc
 163              	.LFE9:
 164              		.size	chVTResetI, .-chVTResetI
 165              		.section	.text.chTimeIsWithin,"ax",%progbits
 166              		.align	2
 167              		.global	chTimeIsWithin
 168              		.syntax unified
 169              		.arm
 170              		.fpu softvfp
 171              		.type	chTimeIsWithin, %function
ARM GAS  /var/folders/3j/4xdnk5197cv_b7cw3n33qk7r0000gn/T//cc3uXMrz.s 			page 4


 172              	chTimeIsWithin:
 173              	.LFB10:
 174              		.loc 1 127 0
 175              		.cfi_startproc
 176              		@ args = 0, pretend = 0, frame = 0
 177              		@ frame_needed = 0, uses_anonymous_args = 0
 178              		@ link register save eliminated.
 179              	.LVL8:
 180              		.loc 1 129 0
 181 0000 3C309FE5 		ldr	r3, .L20
 182              		.loc 1 130 0
 183 0004 000051E1 		cmp	r1, r0
 184              		.loc 1 129 0
 185 0008 0C3093E5 		ldr	r3, [r3, #12]
 186              	.LVL9:
 187              		.loc 1 130 0
 188 000c 0600008A 		bhi	.L19
 189              		.loc 1 131 0 discriminator 2
 190 0010 010053E1 		cmp	r3, r1
 191 0014 0010A023 		movcs	r1, #0
 192              	.LVL10:
 193 0018 0110A033 		movcc	r1, #1
 194              		.loc 1 130 0 discriminator 2
 195 001c 000053E1 		cmp	r3, r0
 196 0020 0100A031 		movcc	r0, r1
 197 0024 01008123 		orrcs	r0, r1, #1
 198              	.LVL11:
 199              		.loc 1 132 0 discriminator 2
 200 0028 1EFF2FE1 		bx	lr
 201              	.LVL12:
 202              	.L19:
 203              		.loc 1 130 0 discriminator 1
 204 002c 000053E1 		cmp	r3, r0
 205 0030 0100A023 		movcs	r0, #1
 206              	.LVL13:
 207 0034 0000A033 		movcc	r0, #0
 208 0038 010053E1 		cmp	r3, r1
 209 003c 0000A023 		movcs	r0, #0
 210 0040 1EFF2FE1 		bx	lr
 211              	.L21:
 212              		.align	2
 213              	.L20:
 214 0044 00000000 		.word	vtlist
 215              		.cfi_endproc
 216              	.LFE10:
 217              		.size	chTimeIsWithin, .-chTimeIsWithin
 218              		.comm	vtlist,16,4
 219              		.text
 220              	.Letext0:
 221              		.file 2 "/usr/local/Cellar/gcc-arm-none-eabi/20180627/arm-none-eabi/include/machine/_default_types
 222              		.file 3 "/usr/local/Cellar/gcc-arm-none-eabi/20180627/arm-none-eabi/include/sys/_stdint.h"
 223              		.file 4 "..//os/ports/GCC/ARM/chtypes.h"
 224              		.file 5 "..//os/kernel/include/chlists.h"
 225              		.file 6 "..//os/kernel/include/chthreads.h"
 226              		.file 7 "..//os/ports/GCC/ARM/chcore.h"
 227              		.file 8 "..//os/kernel/include/chvt.h"
 228              		.file 9 "..//os/kernel/include/chschd.h"
ARM GAS  /var/folders/3j/4xdnk5197cv_b7cw3n33qk7r0000gn/T//cc3uXMrz.s 			page 5


 229              		.file 10 "..//os/kernel/include/chmtx.h"
 230              		.file 11 "..//os/kernel/include/chregistry.h"
 231              		.file 12 "..//os/kernel/include/ch.h"