ARM GAS  /var/folders/3j/4xdnk5197cv_b7cw3n33qk7r0000gn/T//ccffsN3P.s 			page 1


   1              		.cpu arm1176jz-s
   2              		.eabi_attribute 20, 1
   3              		.eabi_attribute 21, 1
   4              		.eabi_attribute 23, 3
   5              		.eabi_attribute 24, 1
   6              		.eabi_attribute 25, 1
   7              		.eabi_attribute 26, 1
   8              		.eabi_attribute 30, 2
   9              		.eabi_attribute 34, 1
  10              		.eabi_attribute 18, 4
  11              		.file	"hal_lld.c"
  12              		.text
  13              	.Ltext0:
  14              		.cfi_sections	.debug_frame
  15              		.section	.text.IrqHandler,"ax",%progbits
  16              		.align	2
  17              		.global	IrqHandler
  18              		.syntax unified
  19              		.arm
  20              		.fpu softvfp
  21              		.type	IrqHandler, %function
  22              	IrqHandler:
  23              	.LFB9:
  24              		.file 1 "..//os/hal/platforms/BCM2835/hal_lld.c"
  25              		.loc 1 91 0
  26              		.cfi_startproc
  27              		@ Naked Function: prologue and epilogue provided by programmer.
  28              		@ args = 0, pretend = 0, frame = 0
  29              		@ frame_needed = 0, uses_anonymous_args = 0
  30              		.loc 1 92 0
  31              		.syntax divided
  32              	@ 92 "..//os/hal/platforms/BCM2835/hal_lld.c" 1
  33 0000 0F502DE9 		stmfd    sp!, {r0-r3, r12, lr}
  34              	@ 0 "" 2
  35              		.arm
  36              		.syntax unified
  37              	.LBB6:
  38              	.LBB7:
  39              		.loc 1 75 0
  40 0004 FEFFFFEB 		bl	chSysTimerHandlerI
  41              	.LVL0:
  42              		.loc 1 79 0
  43 0008 0020A0E3 		mov	r2, #0
  44 000c 24309FE5 		ldr	r3, .L3
  45              	.LBE7:
  46              	.LBE6:
  47              		.loc 1 97 0
  48 0010 24009FE5 		ldr	r0, .L3+4
  49              	.LBB9:
  50              	.LBB8:
  51              		.loc 1 79 0
  52 0014 0C2483E5 		str	r2, [r3, #1036]
  53              	.LBE8:
  54              	.LBE9:
  55              		.loc 1 97 0
  56 0018 FEFFFFEB 		bl	sd_lld_serve_interrupt
  57              	.LVL1:
ARM GAS  /var/folders/3j/4xdnk5197cv_b7cw3n33qk7r0000gn/T//ccffsN3P.s 			page 2


  58              		.loc 1 101 0
  59 001c 1C009FE5 		ldr	r0, .L3+8
  60 0020 FEFFFFEB 		bl	i2c_lld_serve_interrupt
  61              	.LVL2:
  62              		.loc 1 102 0
  63 0024 18009FE5 		ldr	r0, .L3+12
  64 0028 FEFFFFEB 		bl	i2c_lld_serve_interrupt
  65              	.LVL3:
  66              		.loc 1 106 0
  67 002c 14009FE5 		ldr	r0, .L3+16
  68 0030 FEFFFFEB 		bl	spi_lld_serve_interrupt
  69              	.LVL4:
  70              		.loc 1 113 0
  71              		.syntax divided
  72              	@ 113 "..//os/hal/platforms/BCM2835/hal_lld.c" 1
  73 0034 FEFFFFEA 		b       _port_irq_common
  74              	@ 0 "" 2
  75              		.loc 1 114 0
  76              		.arm
  77              		.syntax unified
  78              	.L4:
  79              		.align	2
  80              	.L3:
  81 0038 00B00020 		.word	536915968
  82 003c 00000000 		.word	SD1
  83 0040 00000000 		.word	I2C0
  84 0044 00000000 		.word	I2C1
  85 0048 00000000 		.word	SPI0
  86              		.cfi_endproc
  87              	.LFE9:
  88              		.size	IrqHandler, .-IrqHandler
  89              		.section	.text.delayMicroseconds,"ax",%progbits
  90              		.align	2
  91              		.global	delayMicroseconds
  92              		.syntax unified
  93              		.arm
  94              		.fpu softvfp
  95              		.type	delayMicroseconds, %function
  96              	delayMicroseconds:
  97              	.LFB10:
  98              		.loc 1 125 0
  99              		.cfi_startproc
 100              		@ args = 0, pretend = 0, frame = 0
 101              		@ frame_needed = 0, uses_anonymous_args = 0
 102              		@ link register save eliminated.
 103              	.LVL5:
 104              		.loc 1 126 0
 105 0000 18309FE5 		ldr	r3, .L9
 106              		.loc 1 127 0
 107 0004 0320A0E1 		mov	r2, r3
 108              		.loc 1 126 0
 109 0008 043093E5 		ldr	r3, [r3, #4]
 110 000c 000083E0 		add	r0, r3, r0
 111              	.LVL6:
 112              	.L6:
 113              		.loc 1 127 0 discriminator 1
 114 0010 043092E5 		ldr	r3, [r2, #4]
ARM GAS  /var/folders/3j/4xdnk5197cv_b7cw3n33qk7r0000gn/T//ccffsN3P.s 			page 3


 115 0014 000053E1 		cmp	r3, r0
 116 0018 FCFFFF3A 		bcc	.L6
 117 001c 1EFF2FE1 		bx	lr
 118              	.L10:
 119              		.align	2
 120              	.L9:
 121 0020 00300020 		.word	536883200
 122              		.cfi_endproc
 123              	.LFE10:
 124              		.size	delayMicroseconds, .-delayMicroseconds
 125              		.section	.text.hal_lld_init,"ax",%progbits
 126              		.align	2
 127              		.global	hal_lld_init
 128              		.syntax unified
 129              		.arm
 130              		.fpu softvfp
 131              		.type	hal_lld_init, %function
 132              	hal_lld_init:
 133              	.LFB11:
 134              		.loc 1 135 0
 135              		.cfi_startproc
 136              		@ args = 0, pretend = 0, frame = 0
 137              		@ frame_needed = 0, uses_anonymous_args = 0
 138 0000 04E02DE5 		str	lr, [sp, #-4]!
 139              		.cfi_def_cfa_offset 4
 140              		.cfi_offset 14, -4
 141              	.LBB10:
 142              	.LBB11:
 143              		.loc 1 59 0
 144 0004 F9C0A0E3 		mov	ip, #249
 145              		.loc 1 56 0
 146 0008 3EE8A0E3 		mov	lr, #4063232
 147              		.loc 1 60 0
 148 000c 0000A0E3 		mov	r0, #0
 149              		.loc 1 56 0
 150 0010 2C309FE5 		ldr	r3, .L13
 151              		.loc 1 57 0
 152 0014 2C209FE5 		ldr	r2, .L13+4
 153              		.loc 1 61 0
 154 0018 2C109FE5 		ldr	r1, .L13+8
 155              		.loc 1 56 0
 156 001c 08E483E5 		str	lr, [r3, #1032]
 157              		.loc 1 57 0
 158 0020 002483E5 		str	r2, [r3, #1024]
 159              		.loc 1 58 0
 160 0024 182483E5 		str	r2, [r3, #1048]
 161              		.loc 1 59 0
 162 0028 1CC483E5 		str	ip, [r3, #1052]
 163              		.loc 1 60 0
 164 002c 0C0483E5 		str	r0, [r3, #1036]
 165              		.loc 1 61 0
 166 0030 081483E5 		str	r1, [r3, #1032]
 167              		.loc 1 63 0
 168 0034 182293E5 		ldr	r2, [r3, #536]
 169 0038 012082E3 		orr	r2, r2, #1
 170 003c 182283E5 		str	r2, [r3, #536]
 171              	.LBE11:
ARM GAS  /var/folders/3j/4xdnk5197cv_b7cw3n33qk7r0000gn/T//ccffsN3P.s 			page 4


 172              	.LBE10:
 173              		.loc 1 137 0
 174 0040 04F09DE4 		ldr	pc, [sp], #4
 175              	.L14:
 176              		.align	2
 177              	.L13:
 178 0044 00B00020 		.word	536915968
 179 0048 E7030000 		.word	999
 180 004c A2003E00 		.word	4063394
 181              		.cfi_endproc
 182              	.LFE11:
 183              		.size	hal_lld_init, .-hal_lld_init
 184              		.section	.text.watchdog_start,"ax",%progbits
 185              		.align	2
 186              		.global	watchdog_start
 187              		.syntax unified
 188              		.arm
 189              		.fpu softvfp
 190              		.type	watchdog_start, %function
 191              	watchdog_start:
 192              	.LFB12:
 193              		.loc 1 143 0
 194              		.cfi_startproc
 195              		@ args = 0, pretend = 0, frame = 0
 196              		@ frame_needed = 0, uses_anonymous_args = 0
 197              		@ link register save eliminated.
 198              	.LVL7:
 199              		.loc 1 145 0
 200 0000 28209FE5 		ldr	r2, .L16
 201              		.loc 1 148 0
 202 0004 FF04C0E3 		bic	r0, r0, #-16777216
 203              	.LVL8:
 204              		.loc 1 145 0
 205 0008 1C3092E5 		ldr	r3, [r2, #28]
 206              	.LVL9:
 207              		.loc 1 148 0
 208 000c 0F06C0E3 		bic	r0, r0, #15728640
 209              		.loc 1 149 0
 210 0010 5A34C3E3 		bic	r3, r3, #1509949440
 211              	.LVL10:
 212 0014 3030C3E3 		bic	r3, r3, #48
 213 0018 5A3483E3 		orr	r3, r3, #1509949440
 214              		.loc 1 148 0
 215 001c 5A0480E3 		orr	r0, r0, #1509949440
 216              	.LVL11:
 217              		.loc 1 149 0
 218 0020 203083E3 		orr	r3, r3, #32
 219              	.LVL12:
 220              		.loc 1 150 0
 221 0024 240082E5 		str	r0, [r2, #36]
 222              		.loc 1 151 0
 223 0028 1C3082E5 		str	r3, [r2, #28]
 224              		.loc 1 152 0
 225 002c 1EFF2FE1 		bx	lr
 226              	.L17:
 227              		.align	2
 228              	.L16:
ARM GAS  /var/folders/3j/4xdnk5197cv_b7cw3n33qk7r0000gn/T//ccffsN3P.s 			page 5


 229 0030 00001020 		.word	537919488
 230              		.cfi_endproc
 231              	.LFE12:
 232              		.size	watchdog_start, .-watchdog_start
 233              		.section	.text.watchdog_stop,"ax",%progbits
 234              		.align	2
 235              		.global	watchdog_stop
 236              		.syntax unified
 237              		.arm
 238              		.fpu softvfp
 239              		.type	watchdog_stop, %function
 240              	watchdog_stop:
 241              	.LFB13:
 242              		.loc 1 158 0
 243              		.cfi_startproc
 244              		@ args = 0, pretend = 0, frame = 0
 245              		@ frame_needed = 0, uses_anonymous_args = 0
 246              		@ link register save eliminated.
 247              		.loc 1 159 0
 248 0000 08309FE5 		ldr	r3, .L19
 249 0004 08209FE5 		ldr	r2, .L19+4
 250 0008 1C2083E5 		str	r2, [r3, #28]
 251              		.loc 1 160 0
 252 000c 1EFF2FE1 		bx	lr
 253              	.L20:
 254              		.align	2
 255              	.L19:
 256 0010 00001020 		.word	537919488
 257 0014 0201005A 		.word	1509949698
 258              		.cfi_endproc
 259              	.LFE13:
 260              		.size	watchdog_stop, .-watchdog_stop
 261              		.section	.text.watchdog_get_remaining,"ax",%progbits
 262              		.align	2
 263              		.global	watchdog_get_remaining
 264              		.syntax unified
 265              		.arm
 266              		.fpu softvfp
 267              		.type	watchdog_get_remaining, %function
 268              	watchdog_get_remaining:
 269              	.LFB14:
 270              		.loc 1 166 0
 271              		.cfi_startproc
 272              		@ args = 0, pretend = 0, frame = 0
 273              		@ frame_needed = 0, uses_anonymous_args = 0
 274              		@ link register save eliminated.
 275              		.loc 1 167 0
 276 0000 0C309FE5 		ldr	r3, .L22
 277 0004 240093E5 		ldr	r0, [r3, #36]
 278              		.loc 1 168 0
 279 0008 FF04C0E3 		bic	r0, r0, #-16777216
 280 000c 0F06C0E3 		bic	r0, r0, #15728640
 281 0010 1EFF2FE1 		bx	lr
 282              	.L23:
 283              		.align	2
 284              	.L22:
 285 0014 00001020 		.word	537919488
ARM GAS  /var/folders/3j/4xdnk5197cv_b7cw3n33qk7r0000gn/T//ccffsN3P.s 			page 6


 286              		.cfi_endproc
 287              	.LFE14:
 288              		.size	watchdog_get_remaining, .-watchdog_get_remaining
 289              		.text
 290              	.Letext0:
 291              		.file 2 "/usr/local/Cellar/gcc-arm-none-eabi/20180627/lib/gcc/arm-none-eabi/7.3.1/include/stddef.h
 292              		.file 3 "/usr/local/Cellar/gcc-arm-none-eabi/20180627/arm-none-eabi/include/machine/_default_types
 293              		.file 4 "/usr/local/Cellar/gcc-arm-none-eabi/20180627/arm-none-eabi/include/sys/_stdint.h"
 294              		.file 5 "..//os/ports/GCC/ARM/chtypes.h"
 295              		.file 6 "..//os/kernel/include/chlists.h"
 296              		.file 7 "..//os/kernel/include/chthreads.h"
 297              		.file 8 "..//os/ports/GCC/ARM/chcore.h"
 298              		.file 9 "..//os/kernel/include/chvt.h"
 299              		.file 10 "..//os/kernel/include/chschd.h"
 300              		.file 11 "..//os/kernel/include/chmtx.h"
 301              		.file 12 "..//os/kernel/include/chevents.h"
 302              		.file 13 "..//os/kernel/include/chregistry.h"
 303              		.file 14 "..//os/kernel/include/chqueues.h"
 304              		.file 15 "..//os/kernel/include/ch.h"
 305              		.file 16 "..//os/hal/platforms/BCM2835/bcm2835.h"
 306              		.file 17 "..//os/hal/platforms/BCM2835/pal_lld.h"
 307              		.file 18 "..//os/hal/include/i2c.h"
 308              		.file 19 "..//os/hal/platforms/BCM2835/i2c_lld.h"
 309              		.file 20 "..//os/hal/include/serial.h"
 310              		.file 21 "..//os/hal/include/spi.h"
 311              		.file 22 "..//os/hal/platforms/BCM2835/spi_lld.h"
 312              		.file 23 "..//os/kernel/include/chsys.h"
 313              		.file 24 "..//os/hal/platforms/BCM2835/serial_lld.h"