ARM GAS  /var/folders/3j/4xdnk5197cv_b7cw3n33qk7r0000gn/T//cc30F6PF.s 			page 1


   1              		.cpu arm1176jz-s
   2              		.eabi_attribute 20, 1
   3              		.eabi_attribute 21, 1
   4              		.eabi_attribute 23, 3
   5              		.eabi_attribute 24, 1
   6              		.eabi_attribute 25, 1
   7              		.eabi_attribute 26, 1
   8              		.eabi_attribute 30, 2
   9              		.eabi_attribute 34, 1
  10              		.eabi_attribute 18, 4
  11              		.file	"hal_lld.c"
  12              		.text
  13              	.Ltext0:
  14              		.cfi_sections	.debug_frame
  15              		.section	.text.IrqHandler,"ax",%progbits
  16              		.align	2
  17              		.global	IrqHandler
  18              		.syntax unified
  19              		.arm
  20              		.fpu softvfp
  21              		.type	IrqHandler, %function
  22              	IrqHandler:
  23              	.LFB9:
  24              		.file 1 "..//os/hal/platforms/BCM2835/hal_lld.c"
  25              		.loc 1 91 0
  26              		.cfi_startproc
  27              		@ Naked Function: prologue and epilogue provided by programmer.
  28              		@ args = 0, pretend = 0, frame = 0
  29              		@ frame_needed = 0, uses_anonymous_args = 0
  30              		.loc 1 92 0
  31              		.syntax divided
  32              	@ 92 "..//os/hal/platforms/BCM2835/hal_lld.c" 1
  33 0000 0F502DE9 		stmfd    sp!, {r0-r3, r12, lr}
  34              	@ 0 "" 2
  35              		.arm
  36              		.syntax unified
  37              	.LBB6:
  38              	.LBB7:
  39              		.loc 1 75 0
  40 0004 FEFFFFEB 		bl	chSysTimerHandlerI
  41              	.LVL0:
  42              		.loc 1 79 0
  43 0008 0020A0E3 		mov	r2, #0
  44 000c 1C309FE5 		ldr	r3, .L3
  45              	.LBE7:
  46              	.LBE6:
  47              		.loc 1 97 0
  48 0010 1C009FE5 		ldr	r0, .L3+4
  49              	.LBB9:
  50              	.LBB8:
  51              		.loc 1 79 0
  52 0014 0C2483E5 		str	r2, [r3, #1036]
  53              	.LBE8:
  54              	.LBE9:
  55              		.loc 1 97 0
  56 0018 FEFFFFEB 		bl	sd_lld_serve_interrupt
  57              	.LVL1:
ARM GAS  /var/folders/3j/4xdnk5197cv_b7cw3n33qk7r0000gn/T//cc30F6PF.s 			page 2


  58              		.loc 1 101 0
  59 001c 14009FE5 		ldr	r0, .L3+8
  60 0020 FEFFFFEB 		bl	i2c_lld_serve_interrupt
  61              	.LVL2:
  62              		.loc 1 105 0
  63 0024 10009FE5 		ldr	r0, .L3+12
  64 0028 FEFFFFEB 		bl	spi_lld_serve_interrupt
  65              	.LVL3:
  66              		.loc 1 112 0
  67              		.syntax divided
  68              	@ 112 "..//os/hal/platforms/BCM2835/hal_lld.c" 1
  69 002c FEFFFFEA 		b       _port_irq_common
  70              	@ 0 "" 2
  71              		.loc 1 113 0
  72              		.arm
  73              		.syntax unified
  74              	.L4:
  75              		.align	2
  76              	.L3:
  77 0030 00B00020 		.word	536915968
  78 0034 00000000 		.word	SD1
  79 0038 00000000 		.word	I2C0
  80 003c 00000000 		.word	SPI0
  81              		.cfi_endproc
  82              	.LFE9:
  83              		.size	IrqHandler, .-IrqHandler
  84              		.section	.text.delayMicroseconds,"ax",%progbits
  85              		.align	2
  86              		.global	delayMicroseconds
  87              		.syntax unified
  88              		.arm
  89              		.fpu softvfp
  90              		.type	delayMicroseconds, %function
  91              	delayMicroseconds:
  92              	.LFB10:
  93              		.loc 1 124 0
  94              		.cfi_startproc
  95              		@ args = 0, pretend = 0, frame = 0
  96              		@ frame_needed = 0, uses_anonymous_args = 0
  97              		@ link register save eliminated.
  98              	.LVL4:
  99              		.loc 1 125 0
 100 0000 18309FE5 		ldr	r3, .L9
 101              		.loc 1 126 0
 102 0004 0320A0E1 		mov	r2, r3
 103              		.loc 1 125 0
 104 0008 043093E5 		ldr	r3, [r3, #4]
 105 000c 000083E0 		add	r0, r3, r0
 106              	.LVL5:
 107              	.L6:
 108              		.loc 1 126 0 discriminator 1
 109 0010 043092E5 		ldr	r3, [r2, #4]
 110 0014 000053E1 		cmp	r3, r0
 111 0018 FCFFFF3A 		bcc	.L6
 112 001c 1EFF2FE1 		bx	lr
 113              	.L10:
 114              		.align	2
ARM GAS  /var/folders/3j/4xdnk5197cv_b7cw3n33qk7r0000gn/T//cc30F6PF.s 			page 3


 115              	.L9:
 116 0020 00300020 		.word	536883200
 117              		.cfi_endproc
 118              	.LFE10:
 119              		.size	delayMicroseconds, .-delayMicroseconds
 120              		.section	.text.hal_lld_init,"ax",%progbits
 121              		.align	2
 122              		.global	hal_lld_init
 123              		.syntax unified
 124              		.arm
 125              		.fpu softvfp
 126              		.type	hal_lld_init, %function
 127              	hal_lld_init:
 128              	.LFB11:
 129              		.loc 1 134 0
 130              		.cfi_startproc
 131              		@ args = 0, pretend = 0, frame = 0
 132              		@ frame_needed = 0, uses_anonymous_args = 0
 133 0000 04E02DE5 		str	lr, [sp, #-4]!
 134              		.cfi_def_cfa_offset 4
 135              		.cfi_offset 14, -4
 136              	.LBB10:
 137              	.LBB11:
 138              		.loc 1 59 0
 139 0004 F9C0A0E3 		mov	ip, #249
 140              		.loc 1 56 0
 141 0008 3EE8A0E3 		mov	lr, #4063232
 142              		.loc 1 60 0
 143 000c 0000A0E3 		mov	r0, #0
 144              		.loc 1 56 0
 145 0010 2C309FE5 		ldr	r3, .L13
 146              		.loc 1 57 0
 147 0014 2C209FE5 		ldr	r2, .L13+4
 148              		.loc 1 61 0
 149 0018 2C109FE5 		ldr	r1, .L13+8
 150              		.loc 1 56 0
 151 001c 08E483E5 		str	lr, [r3, #1032]
 152              		.loc 1 57 0
 153 0020 002483E5 		str	r2, [r3, #1024]
 154              		.loc 1 58 0
 155 0024 182483E5 		str	r2, [r3, #1048]
 156              		.loc 1 59 0
 157 0028 1CC483E5 		str	ip, [r3, #1052]
 158              		.loc 1 60 0
 159 002c 0C0483E5 		str	r0, [r3, #1036]
 160              		.loc 1 61 0
 161 0030 081483E5 		str	r1, [r3, #1032]
 162              		.loc 1 63 0
 163 0034 182293E5 		ldr	r2, [r3, #536]
 164 0038 012082E3 		orr	r2, r2, #1
 165 003c 182283E5 		str	r2, [r3, #536]
 166              	.LBE11:
 167              	.LBE10:
 168              		.loc 1 136 0
 169 0040 04F09DE4 		ldr	pc, [sp], #4
 170              	.L14:
 171              		.align	2
ARM GAS  /var/folders/3j/4xdnk5197cv_b7cw3n33qk7r0000gn/T//cc30F6PF.s 			page 4


 172              	.L13:
 173 0044 00B00020 		.word	536915968
 174 0048 E7030000 		.word	999
 175 004c A2003E00 		.word	4063394
 176              		.cfi_endproc
 177              	.LFE11:
 178              		.size	hal_lld_init, .-hal_lld_init
 179              		.section	.text.watchdog_start,"ax",%progbits
 180              		.align	2
 181              		.global	watchdog_start
 182              		.syntax unified
 183              		.arm
 184              		.fpu softvfp
 185              		.type	watchdog_start, %function
 186              	watchdog_start:
 187              	.LFB12:
 188              		.loc 1 142 0
 189              		.cfi_startproc
 190              		@ args = 0, pretend = 0, frame = 0
 191              		@ frame_needed = 0, uses_anonymous_args = 0
 192              		@ link register save eliminated.
 193              	.LVL6:
 194              		.loc 1 144 0
 195 0000 28209FE5 		ldr	r2, .L16
 196              		.loc 1 147 0
 197 0004 FF04C0E3 		bic	r0, r0, #-16777216
 198              	.LVL7:
 199              		.loc 1 144 0
 200 0008 1C3092E5 		ldr	r3, [r2, #28]
 201              	.LVL8:
 202              		.loc 1 147 0
 203 000c 0F06C0E3 		bic	r0, r0, #15728640
 204              		.loc 1 148 0
 205 0010 5A34C3E3 		bic	r3, r3, #1509949440
 206              	.LVL9:
 207 0014 3030C3E3 		bic	r3, r3, #48
 208 0018 5A3483E3 		orr	r3, r3, #1509949440
 209              		.loc 1 147 0
 210 001c 5A0480E3 		orr	r0, r0, #1509949440
 211              	.LVL10:
 212              		.loc 1 148 0
 213 0020 203083E3 		orr	r3, r3, #32
 214              	.LVL11:
 215              		.loc 1 149 0
 216 0024 240082E5 		str	r0, [r2, #36]
 217              		.loc 1 150 0
 218 0028 1C3082E5 		str	r3, [r2, #28]
 219              		.loc 1 151 0
 220 002c 1EFF2FE1 		bx	lr
 221              	.L17:
 222              		.align	2
 223              	.L16:
 224 0030 00001020 		.word	537919488
 225              		.cfi_endproc
 226              	.LFE12:
 227              		.size	watchdog_start, .-watchdog_start
 228              		.section	.text.watchdog_stop,"ax",%progbits
ARM GAS  /var/folders/3j/4xdnk5197cv_b7cw3n33qk7r0000gn/T//cc30F6PF.s 			page 5


 229              		.align	2
 230              		.global	watchdog_stop
 231              		.syntax unified
 232              		.arm
 233              		.fpu softvfp
 234              		.type	watchdog_stop, %function
 235              	watchdog_stop:
 236              	.LFB13:
 237              		.loc 1 157 0
 238              		.cfi_startproc
 239              		@ args = 0, pretend = 0, frame = 0
 240              		@ frame_needed = 0, uses_anonymous_args = 0
 241              		@ link register save eliminated.
 242              		.loc 1 158 0
 243 0000 08309FE5 		ldr	r3, .L19
 244 0004 08209FE5 		ldr	r2, .L19+4
 245 0008 1C2083E5 		str	r2, [r3, #28]
 246              		.loc 1 159 0
 247 000c 1EFF2FE1 		bx	lr
 248              	.L20:
 249              		.align	2
 250              	.L19:
 251 0010 00001020 		.word	537919488
 252 0014 0201005A 		.word	1509949698
 253              		.cfi_endproc
 254              	.LFE13:
 255              		.size	watchdog_stop, .-watchdog_stop
 256              		.section	.text.watchdog_get_remaining,"ax",%progbits
 257              		.align	2
 258              		.global	watchdog_get_remaining
 259              		.syntax unified
 260              		.arm
 261              		.fpu softvfp
 262              		.type	watchdog_get_remaining, %function
 263              	watchdog_get_remaining:
 264              	.LFB14:
 265              		.loc 1 165 0
 266              		.cfi_startproc
 267              		@ args = 0, pretend = 0, frame = 0
 268              		@ frame_needed = 0, uses_anonymous_args = 0
 269              		@ link register save eliminated.
 270              		.loc 1 166 0
 271 0000 0C309FE5 		ldr	r3, .L22
 272 0004 240093E5 		ldr	r0, [r3, #36]
 273              		.loc 1 167 0
 274 0008 FF04C0E3 		bic	r0, r0, #-16777216
 275 000c 0F06C0E3 		bic	r0, r0, #15728640
 276 0010 1EFF2FE1 		bx	lr
 277              	.L23:
 278              		.align	2
 279              	.L22:
 280 0014 00001020 		.word	537919488
 281              		.cfi_endproc
 282              	.LFE14:
 283              		.size	watchdog_get_remaining, .-watchdog_get_remaining
 284              		.text
 285              	.Letext0:
ARM GAS  /var/folders/3j/4xdnk5197cv_b7cw3n33qk7r0000gn/T//cc30F6PF.s 			page 6


 286              		.file 2 "/usr/local/Cellar/gcc-arm-none-eabi/20180627/lib/gcc/arm-none-eabi/7.3.1/include/stddef.h
 287              		.file 3 "/usr/local/Cellar/gcc-arm-none-eabi/20180627/arm-none-eabi/include/machine/_default_types
 288              		.file 4 "/usr/local/Cellar/gcc-arm-none-eabi/20180627/arm-none-eabi/include/sys/_stdint.h"
 289              		.file 5 "..//os/ports/GCC/ARM/chtypes.h"
 290              		.file 6 "..//os/kernel/include/chlists.h"
 291              		.file 7 "..//os/kernel/include/chthreads.h"
 292              		.file 8 "..//os/ports/GCC/ARM/chcore.h"
 293              		.file 9 "..//os/kernel/include/chvt.h"
 294              		.file 10 "..//os/kernel/include/chschd.h"
 295              		.file 11 "..//os/kernel/include/chmtx.h"
 296              		.file 12 "..//os/kernel/include/chevents.h"
 297              		.file 13 "..//os/kernel/include/chregistry.h"
 298              		.file 14 "..//os/kernel/include/chqueues.h"
 299              		.file 15 "..//os/kernel/include/ch.h"
 300              		.file 16 "..//os/hal/platforms/BCM2835/bcm2835.h"
 301              		.file 17 "..//os/hal/platforms/BCM2835/pal_lld.h"
 302              		.file 18 "..//os/hal/include/i2c.h"
 303              		.file 19 "..//os/hal/platforms/BCM2835/i2c_lld.h"
 304              		.file 20 "..//os/hal/include/serial.h"
 305              		.file 21 "..//os/hal/include/spi.h"
 306              		.file 22 "..//os/hal/platforms/BCM2835/spi_lld.h"
 307              		.file 23 "..//os/kernel/include/chsys.h"
 308              		.file 24 "..//os/hal/platforms/BCM2835/serial_lld.h"
 309              		.section	.debug_info,"",%progbits
 310              	.Ldebug_info0:
 311 0000 600E0000 		.4byte	0xe60
 312 0004 0400     		.2byte	0x4
 313 0006 00000000 		.4byte	.Ldebug_abbrev0
 314 000a 04       		.byte	0x4
 315 000b 01       		.uleb128 0x1
 316 000c 80010000 		.4byte	.LASF214
 317 0010 0C       		.byte	0xc
 318 0011 00000000 		.4byte	.LASF215
 319 0015 29060000 		.4byte	.LASF216
 320 0019 18000000 		.4byte	.Ldebug_ranges0+0x18
 321 001d 00000000 		.4byte	0
 322 0021 00000000 		.4byte	.Ldebug_line0
 323 0025 02       		.uleb128 0x2
 324 0026 04       		.byte	0x4
 325 0027 05       		.byte	0x5
 326 0028 696E7400 		.ascii	"int\000"
 327 002c 03       		.uleb128 0x3
 328 002d 3A000000 		.4byte	.LASF2
 329 0031 02       		.byte	0x2
 330 0032 D8       		.byte	0xd8
 331 0033 37000000 		.4byte	0x37
 332 0037 04       		.uleb128 0x4
 333 0038 04       		.byte	0x4
 334 0039 07       		.byte	0x7
 335 003a 5E030000 		.4byte	.LASF0
 336 003e 05       		.uleb128 0x5
 337 003f 37000000 		.4byte	0x37
 338 0043 04       		.uleb128 0x4
 339 0044 01       		.byte	0x1
 340 0045 06       		.byte	0x6
 341 0046 21010000 		.4byte	.LASF1
 342 004a 03       		.uleb128 0x3
ARM GAS  /var/folders/3j/4xdnk5197cv_b7cw3n33qk7r0000gn/T//cc30F6PF.s 			page 7


 343 004b 5A000000 		.4byte	.LASF3
 344 004f 03       		.byte	0x3
 345 0050 2B       		.byte	0x2b
 346 0051 55000000 		.4byte	0x55
 347 0055 04       		.uleb128 0x4
 348 0056 01       		.byte	0x1
 349 0057 08       		.byte	0x8
 350 0058 0F060000 		.4byte	.LASF4
 351 005c 04       		.uleb128 0x4
 352 005d 02       		.byte	0x2
 353 005e 05       		.byte	0x5
 354 005f 89060000 		.4byte	.LASF5
 355 0063 03       		.uleb128 0x3
 356 0064 B5070000 		.4byte	.LASF6
 357 0068 03       		.byte	0x3
 358 0069 39       		.byte	0x39
 359 006a 6E000000 		.4byte	0x6e
 360 006e 04       		.uleb128 0x4
 361 006f 02       		.byte	0x2
 362 0070 07       		.byte	0x7
 363 0071 0C040000 		.4byte	.LASF7
 364 0075 03       		.uleb128 0x3
 365 0076 E7070000 		.4byte	.LASF8
 366 007a 03       		.byte	0x3
 367 007b 4D       		.byte	0x4d
 368 007c 80000000 		.4byte	0x80
 369 0080 04       		.uleb128 0x4
 370 0081 04       		.byte	0x4
 371 0082 05       		.byte	0x5
 372 0083 4E020000 		.4byte	.LASF9
 373 0087 03       		.uleb128 0x3
 374 0088 0B030000 		.4byte	.LASF10
 375 008c 03       		.byte	0x3
 376 008d 4F       		.byte	0x4f
 377 008e 92000000 		.4byte	0x92
 378 0092 04       		.uleb128 0x4
 379 0093 04       		.byte	0x4
 380 0094 07       		.byte	0x7
 381 0095 AA030000 		.4byte	.LASF11
 382 0099 04       		.uleb128 0x4
 383 009a 08       		.byte	0x8
 384 009b 05       		.byte	0x5
 385 009c 13010000 		.4byte	.LASF12
 386 00a0 04       		.uleb128 0x4
 387 00a1 08       		.byte	0x8
 388 00a2 07       		.byte	0x7
 389 00a3 8E000000 		.4byte	.LASF13
 390 00a7 03       		.uleb128 0x3
 391 00a8 C5080000 		.4byte	.LASF14
 392 00ac 04       		.byte	0x4
 393 00ad 18       		.byte	0x18
 394 00ae 4A000000 		.4byte	0x4a
 395 00b2 06       		.uleb128 0x6
 396 00b3 A7000000 		.4byte	0xa7
 397 00b7 03       		.uleb128 0x3
 398 00b8 80020000 		.4byte	.LASF15
 399 00bc 04       		.byte	0x4
ARM GAS  /var/folders/3j/4xdnk5197cv_b7cw3n33qk7r0000gn/T//cc30F6PF.s 			page 8


 400 00bd 24       		.byte	0x24
 401 00be 63000000 		.4byte	0x63
 402 00c2 03       		.uleb128 0x3
 403 00c3 07060000 		.4byte	.LASF16
 404 00c7 04       		.byte	0x4
 405 00c8 2C       		.byte	0x2c
 406 00c9 75000000 		.4byte	0x75
 407 00cd 03       		.uleb128 0x3
 408 00ce 47070000 		.4byte	.LASF17
 409 00d2 04       		.byte	0x4
 410 00d3 30       		.byte	0x30
 411 00d4 87000000 		.4byte	0x87
 412 00d8 05       		.uleb128 0x5
 413 00d9 CD000000 		.4byte	0xcd
 414 00dd 03       		.uleb128 0x3
 415 00de 55040000 		.4byte	.LASF18
 416 00e2 05       		.byte	0x5
 417 00e3 2A       		.byte	0x2a
 418 00e4 A7000000 		.4byte	0xa7
 419 00e8 03       		.uleb128 0x3
 420 00e9 57020000 		.4byte	.LASF19
 421 00ed 05       		.byte	0x5
 422 00ee 2B       		.byte	0x2b
 423 00ef A7000000 		.4byte	0xa7
 424 00f3 03       		.uleb128 0x3
 425 00f4 B7050000 		.4byte	.LASF20
 426 00f8 05       		.byte	0x5
 427 00f9 2C       		.byte	0x2c
 428 00fa A7000000 		.4byte	0xa7
 429 00fe 03       		.uleb128 0x3
 430 00ff 8D070000 		.4byte	.LASF21
 431 0103 05       		.byte	0x5
 432 0104 2D       		.byte	0x2d
 433 0105 A7000000 		.4byte	0xa7
 434 0109 03       		.uleb128 0x3
 435 010a E6050000 		.4byte	.LASF22
 436 010e 05       		.byte	0x5
 437 010f 2E       		.byte	0x2e
 438 0110 CD000000 		.4byte	0xcd
 439 0114 03       		.uleb128 0x3
 440 0115 31040000 		.4byte	.LASF23
 441 0119 05       		.byte	0x5
 442 011a 2F       		.byte	0x2f
 443 011b C2000000 		.4byte	0xc2
 444 011f 03       		.uleb128 0x3
 445 0120 69040000 		.4byte	.LASF24
 446 0124 05       		.byte	0x5
 447 0125 31       		.byte	0x31
 448 0126 CD000000 		.4byte	0xcd
 449 012a 03       		.uleb128 0x3
 450 012b 6D080000 		.4byte	.LASF25
 451 012f 05       		.byte	0x5
 452 0130 32       		.byte	0x32
 453 0131 CD000000 		.4byte	0xcd
 454 0135 03       		.uleb128 0x3
 455 0136 D2070000 		.4byte	.LASF26
 456 013a 05       		.byte	0x5
ARM GAS  /var/folders/3j/4xdnk5197cv_b7cw3n33qk7r0000gn/T//cc30F6PF.s 			page 9


 457 013b 33       		.byte	0x33
 458 013c CD000000 		.4byte	0xcd
 459 0140 05       		.uleb128 0x5
 460 0141 35010000 		.4byte	0x135
 461 0145 03       		.uleb128 0x3
 462 0146 EE060000 		.4byte	.LASF27
 463 014a 06       		.byte	0x6
 464 014b 23       		.byte	0x23
 465 014c 50010000 		.4byte	0x150
 466 0150 07       		.uleb128 0x7
 467 0151 EE060000 		.4byte	.LASF27
 468 0155 44       		.byte	0x44
 469 0156 07       		.byte	0x7
 470 0157 57       		.byte	0x57
 471 0158 41020000 		.4byte	0x241
 472 015c 08       		.uleb128 0x8
 473 015d C8060000 		.4byte	.LASF28
 474 0161 07       		.byte	0x7
 475 0162 58       		.byte	0x58
 476 0163 62020000 		.4byte	0x262
 477 0167 00       		.byte	0
 478 0168 08       		.uleb128 0x8
 479 0169 DF050000 		.4byte	.LASF29
 480 016d 07       		.byte	0x7
 481 016e 5A       		.byte	0x5a
 482 016f 62020000 		.4byte	0x262
 483 0173 04       		.byte	0x4
 484 0174 08       		.uleb128 0x8
 485 0175 E8000000 		.4byte	.LASF30
 486 0179 07       		.byte	0x7
 487 017a 5C       		.byte	0x5c
 488 017b 09010000 		.4byte	0x109
 489 017f 08       		.byte	0x8
 490 0180 08       		.uleb128 0x8
 491 0181 9E090000 		.4byte	.LASF31
 492 0185 07       		.byte	0x7
 493 0186 5D       		.byte	0x5d
 494 0187 1D030000 		.4byte	0x31d
 495 018b 0C       		.byte	0xc
 496 018c 08       		.uleb128 0x8
 497 018d B2020000 		.4byte	.LASF32
 498 0191 07       		.byte	0x7
 499 0192 5F       		.byte	0x5f
 500 0193 62020000 		.4byte	0x262
 501 0197 10       		.byte	0x10
 502 0198 08       		.uleb128 0x8
 503 0199 3A050000 		.4byte	.LASF33
 504 019d 07       		.byte	0x7
 505 019e 60       		.byte	0x60
 506 019f 62020000 		.4byte	0x262
 507 01a3 14       		.byte	0x14
 508 01a4 08       		.uleb128 0x8
 509 01a5 00090000 		.4byte	.LASF34
 510 01a9 07       		.byte	0x7
 511 01aa 67       		.byte	0x67
 512 01ab 51050000 		.4byte	0x551
 513 01af 18       		.byte	0x18
ARM GAS  /var/folders/3j/4xdnk5197cv_b7cw3n33qk7r0000gn/T//cc30F6PF.s 			page 10


 514 01b0 08       		.uleb128 0x8
 515 01b1 93060000 		.4byte	.LASF35
 516 01b5 07       		.byte	0x7
 517 01b6 72       		.byte	0x72
 518 01b7 E8000000 		.4byte	0xe8
 519 01bb 1C       		.byte	0x1c
 520 01bc 08       		.uleb128 0x8
 521 01bd E6060000 		.4byte	.LASF36
 522 01c1 07       		.byte	0x7
 523 01c2 76       		.byte	0x76
 524 01c3 DD000000 		.4byte	0xdd
 525 01c7 1D       		.byte	0x1d
 526 01c8 08       		.uleb128 0x8
 527 01c9 9E080000 		.4byte	.LASF37
 528 01cd 07       		.byte	0x7
 529 01ce 7B       		.byte	0x7b
 530 01cf F3000000 		.4byte	0xf3
 531 01d3 1E       		.byte	0x1e
 532 01d4 08       		.uleb128 0x8
 533 01d5 9B060000 		.4byte	.LASF38
 534 01d9 07       		.byte	0x7
 535 01da 81       		.byte	0x81
 536 01db FE000000 		.4byte	0xfe
 537 01df 1F       		.byte	0x1f
 538 01e0 08       		.uleb128 0x8
 539 01e1 13080000 		.4byte	.LASF39
 540 01e5 07       		.byte	0x7
 541 01e6 88       		.byte	0x88
 542 01e7 40010000 		.4byte	0x140
 543 01eb 20       		.byte	0x20
 544 01ec 09       		.uleb128 0x9
 545 01ed 705F7500 		.ascii	"p_u\000"
 546 01f1 07       		.byte	0x7
 547 01f2 AD       		.byte	0xad
 548 01f3 1C050000 		.4byte	0x51c
 549 01f7 24       		.byte	0x24
 550 01f8 08       		.uleb128 0x8
 551 01f9 A4090000 		.4byte	.LASF40
 552 01fd 07       		.byte	0x7
 553 01fe B2       		.byte	0xb2
 554 01ff 88020000 		.4byte	0x288
 555 0203 28       		.byte	0x28
 556 0204 08       		.uleb128 0x8
 557 0205 3D080000 		.4byte	.LASF41
 558 0209 07       		.byte	0x7
 559 020a B8       		.byte	0xb8
 560 020b 68020000 		.4byte	0x268
 561 020f 2C       		.byte	0x2c
 562 0210 08       		.uleb128 0x8
 563 0211 34000000 		.4byte	.LASF42
 564 0215 07       		.byte	0x7
 565 0216 BC       		.byte	0xbc
 566 0217 14010000 		.4byte	0x114
 567 021b 34       		.byte	0x34
 568 021c 08       		.uleb128 0x8
 569 021d 32070000 		.4byte	.LASF43
 570 0221 07       		.byte	0x7
ARM GAS  /var/folders/3j/4xdnk5197cv_b7cw3n33qk7r0000gn/T//cc30F6PF.s 			page 11


 571 0222 C2       		.byte	0xc2
 572 0223 1F010000 		.4byte	0x11f
 573 0227 38       		.byte	0x38
 574 0228 08       		.uleb128 0x8
 575 0229 7F060000 		.4byte	.LASF44
 576 022d 07       		.byte	0x7
 577 022e C9       		.byte	0xc9
 578 022f 63050000 		.4byte	0x563
 579 0233 3C       		.byte	0x3c
 580 0234 08       		.uleb128 0x8
 581 0235 DC070000 		.4byte	.LASF45
 582 0239 07       		.byte	0x7
 583 023a CD       		.byte	0xcd
 584 023b 09010000 		.4byte	0x109
 585 023f 40       		.byte	0x40
 586 0240 00       		.byte	0
 587 0241 0A       		.uleb128 0xa
 588 0242 08       		.byte	0x8
 589 0243 06       		.byte	0x6
 590 0244 5A       		.byte	0x5a
 591 0245 62020000 		.4byte	0x262
 592 0249 08       		.uleb128 0x8
 593 024a C8060000 		.4byte	.LASF28
 594 024e 06       		.byte	0x6
 595 024f 5B       		.byte	0x5b
 596 0250 62020000 		.4byte	0x262
 597 0254 00       		.byte	0
 598 0255 08       		.uleb128 0x8
 599 0256 DF050000 		.4byte	.LASF29
 600 025a 06       		.byte	0x6
 601 025b 5D       		.byte	0x5d
 602 025c 62020000 		.4byte	0x262
 603 0260 04       		.byte	0x4
 604 0261 00       		.byte	0
 605 0262 0B       		.uleb128 0xb
 606 0263 04       		.byte	0x4
 607 0264 45010000 		.4byte	0x145
 608 0268 03       		.uleb128 0x3
 609 0269 58050000 		.4byte	.LASF46
 610 026d 06       		.byte	0x6
 611 026e 5F       		.byte	0x5f
 612 026f 41020000 		.4byte	0x241
 613 0273 0A       		.uleb128 0xa
 614 0274 04       		.byte	0x4
 615 0275 06       		.byte	0x6
 616 0276 64       		.byte	0x64
 617 0277 88020000 		.4byte	0x288
 618 027b 08       		.uleb128 0x8
 619 027c C8060000 		.4byte	.LASF28
 620 0280 06       		.byte	0x6
 621 0281 66       		.byte	0x66
 622 0282 62020000 		.4byte	0x262
 623 0286 00       		.byte	0
 624 0287 00       		.byte	0
 625 0288 03       		.uleb128 0x3
 626 0289 5D040000 		.4byte	.LASF47
 627 028d 06       		.byte	0x6
ARM GAS  /var/folders/3j/4xdnk5197cv_b7cw3n33qk7r0000gn/T//cc30F6PF.s 			page 12


 628 028e 69       		.byte	0x69
 629 028f 73020000 		.4byte	0x273
 630 0293 03       		.uleb128 0x3
 631 0294 A1040000 		.4byte	.LASF48
 632 0298 08       		.byte	0x8
 633 0299 9D       		.byte	0x9d
 634 029a CD000000 		.4byte	0xcd
 635 029e 03       		.uleb128 0x3
 636 029f 16030000 		.4byte	.LASF49
 637 02a3 08       		.byte	0x8
 638 02a4 A2       		.byte	0xa2
 639 02a5 A9020000 		.4byte	0x2a9
 640 02a9 0C       		.uleb128 0xc
 641 02aa 04       		.byte	0x4
 642 02ab 07       		.uleb128 0x7
 643 02ac 36080000 		.4byte	.LASF50
 644 02b0 24       		.byte	0x24
 645 02b1 08       		.byte	0x8
 646 02b2 B9       		.byte	0xb9
 647 02b3 1D030000 		.4byte	0x31d
 648 02b7 09       		.uleb128 0x9
 649 02b8 723400   		.ascii	"r4\000"
 650 02bb 08       		.byte	0x8
 651 02bc BA       		.byte	0xba
 652 02bd 9E020000 		.4byte	0x29e
 653 02c1 00       		.byte	0
 654 02c2 09       		.uleb128 0x9
 655 02c3 723500   		.ascii	"r5\000"
 656 02c6 08       		.byte	0x8
 657 02c7 BB       		.byte	0xbb
 658 02c8 9E020000 		.4byte	0x29e
 659 02cc 04       		.byte	0x4
 660 02cd 09       		.uleb128 0x9
 661 02ce 723600   		.ascii	"r6\000"
 662 02d1 08       		.byte	0x8
 663 02d2 BC       		.byte	0xbc
 664 02d3 9E020000 		.4byte	0x29e
 665 02d7 08       		.byte	0x8
 666 02d8 09       		.uleb128 0x9
 667 02d9 723700   		.ascii	"r7\000"
 668 02dc 08       		.byte	0x8
 669 02dd BD       		.byte	0xbd
 670 02de 9E020000 		.4byte	0x29e
 671 02e2 0C       		.byte	0xc
 672 02e3 09       		.uleb128 0x9
 673 02e4 723800   		.ascii	"r8\000"
 674 02e7 08       		.byte	0x8
 675 02e8 BE       		.byte	0xbe
 676 02e9 9E020000 		.4byte	0x29e
 677 02ed 10       		.byte	0x10
 678 02ee 09       		.uleb128 0x9
 679 02ef 723900   		.ascii	"r9\000"
 680 02f2 08       		.byte	0x8
 681 02f3 BF       		.byte	0xbf
 682 02f4 9E020000 		.4byte	0x29e
 683 02f8 14       		.byte	0x14
 684 02f9 09       		.uleb128 0x9
ARM GAS  /var/folders/3j/4xdnk5197cv_b7cw3n33qk7r0000gn/T//cc30F6PF.s 			page 13


 685 02fa 72313000 		.ascii	"r10\000"
 686 02fe 08       		.byte	0x8
 687 02ff C0       		.byte	0xc0
 688 0300 9E020000 		.4byte	0x29e
 689 0304 18       		.byte	0x18
 690 0305 09       		.uleb128 0x9
 691 0306 72313100 		.ascii	"r11\000"
 692 030a 08       		.byte	0x8
 693 030b C1       		.byte	0xc1
 694 030c 9E020000 		.4byte	0x29e
 695 0310 1C       		.byte	0x1c
 696 0311 09       		.uleb128 0x9
 697 0312 6C7200   		.ascii	"lr\000"
 698 0315 08       		.byte	0x8
 699 0316 C2       		.byte	0xc2
 700 0317 9E020000 		.4byte	0x29e
 701 031b 20       		.byte	0x20
 702 031c 00       		.byte	0
 703 031d 07       		.uleb128 0x7
 704 031e 04040000 		.4byte	.LASF51
 705 0322 04       		.byte	0x4
 706 0323 08       		.byte	0x8
 707 0324 CA       		.byte	0xca
 708 0325 36030000 		.4byte	0x336
 709 0329 09       		.uleb128 0x9
 710 032a 72313300 		.ascii	"r13\000"
 711 032e 08       		.byte	0x8
 712 032f CB       		.byte	0xcb
 713 0330 36030000 		.4byte	0x336
 714 0334 00       		.byte	0
 715 0335 00       		.byte	0
 716 0336 0B       		.uleb128 0xb
 717 0337 04       		.byte	0x4
 718 0338 AB020000 		.4byte	0x2ab
 719 033c 03       		.uleb128 0x3
 720 033d D2030000 		.4byte	.LASF52
 721 0341 09       		.byte	0x9
 722 0342 4E       		.byte	0x4e
 723 0343 47030000 		.4byte	0x347
 724 0347 0B       		.uleb128 0xb
 725 0348 04       		.byte	0x4
 726 0349 4D030000 		.4byte	0x34d
 727 034d 0D       		.uleb128 0xd
 728 034e 58030000 		.4byte	0x358
 729 0352 0E       		.uleb128 0xe
 730 0353 A9020000 		.4byte	0x2a9
 731 0357 00       		.byte	0
 732 0358 03       		.uleb128 0x3
 733 0359 64070000 		.4byte	.LASF53
 734 035d 09       		.byte	0x9
 735 035e 53       		.byte	0x53
 736 035f 63030000 		.4byte	0x363
 737 0363 07       		.uleb128 0x7
 738 0364 64070000 		.4byte	.LASF53
 739 0368 14       		.byte	0x14
 740 0369 09       		.byte	0x9
 741 036a 5A       		.byte	0x5a
ARM GAS  /var/folders/3j/4xdnk5197cv_b7cw3n33qk7r0000gn/T//cc30F6PF.s 			page 14


 742 036b AC030000 		.4byte	0x3ac
 743 036f 08       		.uleb128 0x8
 744 0370 6B030000 		.4byte	.LASF54
 745 0374 09       		.byte	0x9
 746 0375 5B       		.byte	0x5b
 747 0376 AC030000 		.4byte	0x3ac
 748 037a 00       		.byte	0
 749 037b 08       		.uleb128 0x8
 750 037c 1F030000 		.4byte	.LASF55
 751 0380 09       		.byte	0x9
 752 0381 5D       		.byte	0x5d
 753 0382 AC030000 		.4byte	0x3ac
 754 0386 04       		.byte	0x4
 755 0387 08       		.uleb128 0x8
 756 0388 D3040000 		.4byte	.LASF56
 757 038c 09       		.byte	0x9
 758 038d 5F       		.byte	0x5f
 759 038e 35010000 		.4byte	0x135
 760 0392 08       		.byte	0x8
 761 0393 08       		.uleb128 0x8
 762 0394 FB040000 		.4byte	.LASF57
 763 0398 09       		.byte	0x9
 764 0399 60       		.byte	0x60
 765 039a 3C030000 		.4byte	0x33c
 766 039e 0C       		.byte	0xc
 767 039f 08       		.uleb128 0x8
 768 03a0 66080000 		.4byte	.LASF58
 769 03a4 09       		.byte	0x9
 770 03a5 62       		.byte	0x62
 771 03a6 A9020000 		.4byte	0x2a9
 772 03aa 10       		.byte	0x10
 773 03ab 00       		.byte	0
 774 03ac 0B       		.uleb128 0xb
 775 03ad 04       		.byte	0x4
 776 03ae 58030000 		.4byte	0x358
 777 03b2 0A       		.uleb128 0xa
 778 03b3 10       		.byte	0x10
 779 03b4 09       		.byte	0x9
 780 03b5 6C       		.byte	0x6c
 781 03b6 EB030000 		.4byte	0x3eb
 782 03ba 08       		.uleb128 0x8
 783 03bb 6B030000 		.4byte	.LASF54
 784 03bf 09       		.byte	0x9
 785 03c0 6D       		.byte	0x6d
 786 03c1 AC030000 		.4byte	0x3ac
 787 03c5 00       		.byte	0
 788 03c6 08       		.uleb128 0x8
 789 03c7 1F030000 		.4byte	.LASF55
 790 03cb 09       		.byte	0x9
 791 03cc 6F       		.byte	0x6f
 792 03cd AC030000 		.4byte	0x3ac
 793 03d1 04       		.byte	0x4
 794 03d2 08       		.uleb128 0x8
 795 03d3 D3040000 		.4byte	.LASF56
 796 03d7 09       		.byte	0x9
 797 03d8 71       		.byte	0x71
 798 03d9 35010000 		.4byte	0x135
ARM GAS  /var/folders/3j/4xdnk5197cv_b7cw3n33qk7r0000gn/T//cc30F6PF.s 			page 15


 799 03dd 08       		.byte	0x8
 800 03de 08       		.uleb128 0x8
 801 03df 07090000 		.4byte	.LASF59
 802 03e3 09       		.byte	0x9
 803 03e4 72       		.byte	0x72
 804 03e5 40010000 		.4byte	0x140
 805 03e9 0C       		.byte	0xc
 806 03ea 00       		.byte	0
 807 03eb 03       		.uleb128 0x3
 808 03ec 51090000 		.4byte	.LASF60
 809 03f0 09       		.byte	0x9
 810 03f1 73       		.byte	0x73
 811 03f2 B2030000 		.4byte	0x3b2
 812 03f6 0F       		.uleb128 0xf
 813 03f7 6F000000 		.4byte	.LASF68
 814 03fb 09       		.byte	0x9
 815 03fc D1       		.byte	0xd1
 816 03fd EB030000 		.4byte	0x3eb
 817 0401 0A       		.uleb128 0xa
 818 0402 1C       		.byte	0x1c
 819 0403 0A       		.byte	0xa
 820 0404 57       		.byte	0x57
 821 0405 52040000 		.4byte	0x452
 822 0409 08       		.uleb128 0x8
 823 040a 5C070000 		.4byte	.LASF61
 824 040e 0A       		.byte	0xa
 825 040f 58       		.byte	0x58
 826 0410 68020000 		.4byte	0x268
 827 0414 00       		.byte	0
 828 0415 08       		.uleb128 0x8
 829 0416 B1060000 		.4byte	.LASF62
 830 041a 0A       		.byte	0xa
 831 041b 59       		.byte	0x59
 832 041c 09010000 		.4byte	0x109
 833 0420 08       		.byte	0x8
 834 0421 08       		.uleb128 0x8
 835 0422 52050000 		.4byte	.LASF63
 836 0426 0A       		.byte	0xa
 837 0427 5B       		.byte	0x5b
 838 0428 1D030000 		.4byte	0x31d
 839 042c 0C       		.byte	0xc
 840 042d 08       		.uleb128 0x8
 841 042e 3E040000 		.4byte	.LASF64
 842 0432 0A       		.byte	0xa
 843 0433 5E       		.byte	0x5e
 844 0434 62020000 		.4byte	0x262
 845 0438 10       		.byte	0x10
 846 0439 08       		.uleb128 0x8
 847 043a 7F050000 		.4byte	.LASF65
 848 043e 0A       		.byte	0xa
 849 043f 5F       		.byte	0x5f
 850 0440 62020000 		.4byte	0x262
 851 0444 14       		.byte	0x14
 852 0445 08       		.uleb128 0x8
 853 0446 75050000 		.4byte	.LASF66
 854 044a 0A       		.byte	0xa
 855 044b 62       		.byte	0x62
ARM GAS  /var/folders/3j/4xdnk5197cv_b7cw3n33qk7r0000gn/T//cc30F6PF.s 			page 16


 856 044c 62020000 		.4byte	0x262
 857 0450 18       		.byte	0x18
 858 0451 00       		.byte	0
 859 0452 03       		.uleb128 0x3
 860 0453 AC080000 		.4byte	.LASF67
 861 0457 0A       		.byte	0xa
 862 0458 64       		.byte	0x64
 863 0459 01040000 		.4byte	0x401
 864 045d 0F       		.uleb128 0xf
 865 045e BF080000 		.4byte	.LASF69
 866 0462 0A       		.byte	0xa
 867 0463 68       		.byte	0x68
 868 0464 52040000 		.4byte	0x452
 869 0468 07       		.uleb128 0x7
 870 0469 80040000 		.4byte	.LASF70
 871 046d 10       		.byte	0x10
 872 046e 0B       		.byte	0xb
 873 046f 25       		.byte	0x25
 874 0470 99040000 		.4byte	0x499
 875 0474 08       		.uleb128 0x8
 876 0475 5B010000 		.4byte	.LASF71
 877 0479 0B       		.byte	0xb
 878 047a 26       		.byte	0x26
 879 047b 68020000 		.4byte	0x268
 880 047f 00       		.byte	0
 881 0480 08       		.uleb128 0x8
 882 0481 83090000 		.4byte	.LASF72
 883 0485 0B       		.byte	0xb
 884 0486 28       		.byte	0x28
 885 0487 62020000 		.4byte	0x262
 886 048b 08       		.byte	0x8
 887 048c 08       		.uleb128 0x8
 888 048d CB070000 		.4byte	.LASF73
 889 0491 0B       		.byte	0xb
 890 0492 2A       		.byte	0x2a
 891 0493 99040000 		.4byte	0x499
 892 0497 0C       		.byte	0xc
 893 0498 00       		.byte	0
 894 0499 0B       		.uleb128 0xb
 895 049a 04       		.byte	0x4
 896 049b 68040000 		.4byte	0x468
 897 049f 03       		.uleb128 0x3
 898 04a0 80040000 		.4byte	.LASF70
 899 04a4 0B       		.byte	0xb
 900 04a5 2C       		.byte	0x2c
 901 04a6 68040000 		.4byte	0x468
 902 04aa 03       		.uleb128 0x3
 903 04ab EB080000 		.4byte	.LASF74
 904 04af 0C       		.byte	0xc
 905 04b0 25       		.byte	0x25
 906 04b1 B5040000 		.4byte	0x4b5
 907 04b5 07       		.uleb128 0x7
 908 04b6 EB080000 		.4byte	.LASF74
 909 04ba 10       		.byte	0x10
 910 04bb 0C       		.byte	0xc
 911 04bc 2A       		.byte	0x2a
 912 04bd F2040000 		.4byte	0x4f2
ARM GAS  /var/folders/3j/4xdnk5197cv_b7cw3n33qk7r0000gn/T//cc30F6PF.s 			page 17


 913 04c1 08       		.uleb128 0x8
 914 04c2 46040000 		.4byte	.LASF75
 915 04c6 0C       		.byte	0xc
 916 04c7 2B       		.byte	0x2b
 917 04c8 F2040000 		.4byte	0x4f2
 918 04cc 00       		.byte	0
 919 04cd 08       		.uleb128 0x8
 920 04ce 1D060000 		.4byte	.LASF76
 921 04d2 0C       		.byte	0xc
 922 04d3 2E       		.byte	0x2e
 923 04d4 62020000 		.4byte	0x262
 924 04d8 04       		.byte	0x4
 925 04d9 08       		.uleb128 0x8
 926 04da 87050000 		.4byte	.LASF77
 927 04de 0C       		.byte	0xc
 928 04df 30       		.byte	0x30
 929 04e0 1F010000 		.4byte	0x11f
 930 04e4 08       		.byte	0x8
 931 04e5 08       		.uleb128 0x8
 932 04e6 76060000 		.4byte	.LASF78
 933 04ea 0C       		.byte	0xc
 934 04eb 33       		.byte	0x33
 935 04ec 2A010000 		.4byte	0x12a
 936 04f0 0C       		.byte	0xc
 937 04f1 00       		.byte	0
 938 04f2 0B       		.uleb128 0xb
 939 04f3 04       		.byte	0x4
 940 04f4 AA040000 		.4byte	0x4aa
 941 04f8 07       		.uleb128 0x7
 942 04f9 52030000 		.4byte	.LASF79
 943 04fd 04       		.byte	0x4
 944 04fe 0C       		.byte	0xc
 945 04ff 3A       		.byte	0x3a
 946 0500 11050000 		.4byte	0x511
 947 0504 08       		.uleb128 0x8
 948 0505 12090000 		.4byte	.LASF80
 949 0509 0C       		.byte	0xc
 950 050a 3B       		.byte	0x3b
 951 050b F2040000 		.4byte	0x4f2
 952 050f 00       		.byte	0
 953 0510 00       		.byte	0
 954 0511 03       		.uleb128 0x3
 955 0512 52030000 		.4byte	.LASF79
 956 0516 0C       		.byte	0xc
 957 0517 3E       		.byte	0x3e
 958 0518 F8040000 		.4byte	0x4f8
 959 051c 10       		.uleb128 0x10
 960 051d 04       		.byte	0x4
 961 051e 07       		.byte	0x7
 962 051f 8F       		.byte	0x8f
 963 0520 51050000 		.4byte	0x551
 964 0524 11       		.uleb128 0x11
 965 0525 41000000 		.4byte	.LASF81
 966 0529 07       		.byte	0x7
 967 052a 96       		.byte	0x96
 968 052b 14010000 		.4byte	0x114
 969 052f 11       		.uleb128 0x11
ARM GAS  /var/folders/3j/4xdnk5197cv_b7cw3n33qk7r0000gn/T//cc30F6PF.s 			page 18


 970 0530 B3000000 		.4byte	.LASF82
 971 0534 07       		.byte	0x7
 972 0535 9D       		.byte	0x9d
 973 0536 14010000 		.4byte	0x114
 974 053a 11       		.uleb128 0x11
 975 053b F9080000 		.4byte	.LASF83
 976 053f 07       		.byte	0x7
 977 0540 A4       		.byte	0xa4
 978 0541 A9020000 		.4byte	0x2a9
 979 0545 11       		.uleb128 0x11
 980 0546 C1060000 		.4byte	.LASF84
 981 054a 07       		.byte	0x7
 982 054b AB       		.byte	0xab
 983 054c 1F010000 		.4byte	0x11f
 984 0550 00       		.byte	0
 985 0551 0B       		.uleb128 0xb
 986 0552 04       		.byte	0x4
 987 0553 5E050000 		.4byte	0x55e
 988 0557 04       		.uleb128 0x4
 989 0558 01       		.byte	0x1
 990 0559 08       		.byte	0x8
 991 055a 9C070000 		.4byte	.LASF85
 992 055e 06       		.uleb128 0x6
 993 055f 57050000 		.4byte	0x557
 994 0563 0B       		.uleb128 0xb
 995 0564 04       		.byte	0x4
 996 0565 9F040000 		.4byte	0x49f
 997 0569 0B       		.uleb128 0xb
 998 056a 04       		.byte	0x4
 999 056b 6F050000 		.4byte	0x56f
 1000 056f 12       		.uleb128 0x12
 1001 0570 14010000 		.4byte	0x114
 1002 0574 7E050000 		.4byte	0x57e
 1003 0578 0E       		.uleb128 0xe
 1004 0579 A9020000 		.4byte	0x2a9
 1005 057d 00       		.byte	0
 1006 057e 0A       		.uleb128 0xa
 1007 057f 16       		.byte	0x16
 1008 0580 0D       		.byte	0xd
 1009 0581 25       		.byte	0x25
 1010 0582 5F060000 		.4byte	0x65f
 1011 0586 08       		.uleb128 0x8
 1012 0587 DB030000 		.4byte	.LASF86
 1013 058b 0D       		.byte	0xd
 1014 058c 26       		.byte	0x26
 1015 058d 5F060000 		.4byte	0x65f
 1016 0591 00       		.byte	0
 1017 0592 08       		.uleb128 0x8
 1018 0593 AC040000 		.4byte	.LASF87
 1019 0597 0D       		.byte	0xd
 1020 0598 27       		.byte	0x27
 1021 0599 A7000000 		.4byte	0xa7
 1022 059d 04       		.byte	0x4
 1023 059e 08       		.uleb128 0x8
 1024 059f 65050000 		.4byte	.LASF88
 1025 05a3 0D       		.byte	0xd
 1026 05a4 28       		.byte	0x28
ARM GAS  /var/folders/3j/4xdnk5197cv_b7cw3n33qk7r0000gn/T//cc30F6PF.s 			page 19


 1027 05a5 A7000000 		.4byte	0xa7
 1028 05a9 05       		.byte	0x5
 1029 05aa 08       		.uleb128 0x8
 1030 05ab 3B090000 		.4byte	.LASF89
 1031 05af 0D       		.byte	0xd
 1032 05b0 29       		.byte	0x29
 1033 05b1 B7000000 		.4byte	0xb7
 1034 05b5 06       		.byte	0x6
 1035 05b6 08       		.uleb128 0x8
 1036 05b7 CA050000 		.4byte	.LASF90
 1037 05bb 0D       		.byte	0xd
 1038 05bc 2A       		.byte	0x2a
 1039 05bd A7000000 		.4byte	0xa7
 1040 05c1 08       		.byte	0x8
 1041 05c2 08       		.uleb128 0x8
 1042 05c3 03050000 		.4byte	.LASF91
 1043 05c7 0D       		.byte	0xd
 1044 05c8 2B       		.byte	0x2b
 1045 05c9 A7000000 		.4byte	0xa7
 1046 05cd 09       		.byte	0x9
 1047 05ce 08       		.uleb128 0x8
 1048 05cf A5000000 		.4byte	.LASF92
 1049 05d3 0D       		.byte	0xd
 1050 05d4 2C       		.byte	0x2c
 1051 05d5 A7000000 		.4byte	0xa7
 1052 05d9 0A       		.byte	0xa
 1053 05da 08       		.uleb128 0x8
 1054 05db 50070000 		.4byte	.LASF93
 1055 05df 0D       		.byte	0xd
 1056 05e0 2D       		.byte	0x2d
 1057 05e1 A7000000 		.4byte	0xa7
 1058 05e5 0B       		.byte	0xb
 1059 05e6 08       		.uleb128 0x8
 1060 05e7 93080000 		.4byte	.LASF94
 1061 05eb 0D       		.byte	0xd
 1062 05ec 2E       		.byte	0x2e
 1063 05ed A7000000 		.4byte	0xa7
 1064 05f1 0C       		.byte	0xc
 1065 05f2 08       		.uleb128 0x8
 1066 05f3 03070000 		.4byte	.LASF95
 1067 05f7 0D       		.byte	0xd
 1068 05f8 2F       		.byte	0x2f
 1069 05f9 A7000000 		.4byte	0xa7
 1070 05fd 0D       		.byte	0xd
 1071 05fe 08       		.uleb128 0x8
 1072 05ff 27000000 		.4byte	.LASF96
 1073 0603 0D       		.byte	0xd
 1074 0604 30       		.byte	0x30
 1075 0605 A7000000 		.4byte	0xa7
 1076 0609 0E       		.byte	0xe
 1077 060a 08       		.uleb128 0x8
 1078 060b 26050000 		.4byte	.LASF97
 1079 060f 0D       		.byte	0xd
 1080 0610 31       		.byte	0x31
 1081 0611 A7000000 		.4byte	0xa7
 1082 0615 0F       		.byte	0xf
 1083 0616 08       		.uleb128 0x8
ARM GAS  /var/folders/3j/4xdnk5197cv_b7cw3n33qk7r0000gn/T//cc30F6PF.s 			page 20


 1084 0617 2D010000 		.4byte	.LASF98
 1085 061b 0D       		.byte	0xd
 1086 061c 32       		.byte	0x32
 1087 061d A7000000 		.4byte	0xa7
 1088 0621 10       		.byte	0x10
 1089 0622 08       		.uleb128 0x8
 1090 0623 EF000000 		.4byte	.LASF99
 1091 0627 0D       		.byte	0xd
 1092 0628 34       		.byte	0x34
 1093 0629 A7000000 		.4byte	0xa7
 1094 062d 11       		.byte	0x11
 1095 062e 08       		.uleb128 0x8
 1096 062f 46010000 		.4byte	.LASF100
 1097 0633 0D       		.byte	0xd
 1098 0634 35       		.byte	0x35
 1099 0635 A7000000 		.4byte	0xa7
 1100 0639 12       		.byte	0x12
 1101 063a 08       		.uleb128 0x8
 1102 063b B4040000 		.4byte	.LASF101
 1103 063f 0D       		.byte	0xd
 1104 0640 36       		.byte	0x36
 1105 0641 A7000000 		.4byte	0xa7
 1106 0645 13       		.byte	0x13
 1107 0646 08       		.uleb128 0x8
 1108 0647 D7060000 		.4byte	.LASF102
 1109 064b 0D       		.byte	0xd
 1110 064c 37       		.byte	0x37
 1111 064d A7000000 		.4byte	0xa7
 1112 0651 14       		.byte	0x14
 1113 0652 08       		.uleb128 0x8
 1114 0653 A5060000 		.4byte	.LASF103
 1115 0657 0D       		.byte	0xd
 1116 0658 39       		.byte	0x39
 1117 0659 A7000000 		.4byte	0xa7
 1118 065d 15       		.byte	0x15
 1119 065e 00       		.byte	0
 1120 065f 13       		.uleb128 0x13
 1121 0660 57050000 		.4byte	0x557
 1122 0664 6F060000 		.4byte	0x66f
 1123 0668 14       		.uleb128 0x14
 1124 0669 37000000 		.4byte	0x37
 1125 066d 03       		.byte	0x3
 1126 066e 00       		.byte	0
 1127 066f 03       		.uleb128 0x3
 1128 0670 8E020000 		.4byte	.LASF104
 1129 0674 0D       		.byte	0xd
 1130 0675 3A       		.byte	0x3a
 1131 0676 7E050000 		.4byte	0x57e
 1132 067a 06       		.uleb128 0x6
 1133 067b 6F060000 		.4byte	0x66f
 1134 067f 0F       		.uleb128 0xf
 1135 0680 BC030000 		.4byte	.LASF105
 1136 0684 0D       		.byte	0xd
 1137 0685 77       		.byte	0x77
 1138 0686 7A060000 		.4byte	0x67a
 1139 068a 03       		.uleb128 0x3
 1140 068b 94040000 		.4byte	.LASF106
ARM GAS  /var/folders/3j/4xdnk5197cv_b7cw3n33qk7r0000gn/T//cc30F6PF.s 			page 21


 1141 068f 0E       		.byte	0xe
 1142 0690 30       		.byte	0x30
 1143 0691 95060000 		.4byte	0x695
 1144 0695 07       		.uleb128 0x7
 1145 0696 94040000 		.4byte	.LASF106
 1146 069a 24       		.byte	0x24
 1147 069b 0E       		.byte	0xe
 1148 069c 3E       		.byte	0x3e
 1149 069d 02070000 		.4byte	0x702
 1150 06a1 08       		.uleb128 0x8
 1151 06a2 09010000 		.4byte	.LASF107
 1152 06a6 0E       		.byte	0xe
 1153 06a7 3F       		.byte	0x3f
 1154 06a8 68020000 		.4byte	0x268
 1155 06ac 00       		.byte	0
 1156 06ad 08       		.uleb128 0x8
 1157 06ae F1040000 		.4byte	.LASF108
 1158 06b2 0E       		.byte	0xe
 1159 06b3 40       		.byte	0x40
 1160 06b4 2C000000 		.4byte	0x2c
 1161 06b8 08       		.byte	0x8
 1162 06b9 08       		.uleb128 0x8
 1163 06ba 77020000 		.4byte	.LASF109
 1164 06be 0E       		.byte	0xe
 1165 06bf 41       		.byte	0x41
 1166 06c0 24070000 		.4byte	0x724
 1167 06c4 0C       		.byte	0xc
 1168 06c5 08       		.uleb128 0x8
 1169 06c6 88000000 		.4byte	.LASF110
 1170 06ca 0E       		.byte	0xe
 1171 06cb 42       		.byte	0x42
 1172 06cc 24070000 		.4byte	0x724
 1173 06d0 10       		.byte	0x10
 1174 06d1 08       		.uleb128 0x8
 1175 06d2 4A050000 		.4byte	.LASF111
 1176 06d6 0E       		.byte	0xe
 1177 06d7 44       		.byte	0x44
 1178 06d8 24070000 		.4byte	0x724
 1179 06dc 14       		.byte	0x14
 1180 06dd 08       		.uleb128 0x8
 1181 06de EE050000 		.4byte	.LASF112
 1182 06e2 0E       		.byte	0xe
 1183 06e3 45       		.byte	0x45
 1184 06e4 24070000 		.4byte	0x724
 1185 06e8 18       		.byte	0x18
 1186 06e9 08       		.uleb128 0x8
 1187 06ea B6080000 		.4byte	.LASF113
 1188 06ee 0E       		.byte	0xe
 1189 06ef 46       		.byte	0x46
 1190 06f0 02070000 		.4byte	0x702
 1191 06f4 1C       		.byte	0x1c
 1192 06f5 08       		.uleb128 0x8
 1193 06f6 6A090000 		.4byte	.LASF114
 1194 06fa 0E       		.byte	0xe
 1195 06fb 47       		.byte	0x47
 1196 06fc A9020000 		.4byte	0x2a9
 1197 0700 20       		.byte	0x20
ARM GAS  /var/folders/3j/4xdnk5197cv_b7cw3n33qk7r0000gn/T//cc30F6PF.s 			page 22


 1198 0701 00       		.byte	0
 1199 0702 03       		.uleb128 0x3
 1200 0703 D5050000 		.4byte	.LASF115
 1201 0707 0E       		.byte	0xe
 1202 0708 33       		.byte	0x33
 1203 0709 0D070000 		.4byte	0x70d
 1204 070d 0B       		.uleb128 0xb
 1205 070e 04       		.byte	0x4
 1206 070f 13070000 		.4byte	0x713
 1207 0713 0D       		.uleb128 0xd
 1208 0714 1E070000 		.4byte	0x71e
 1209 0718 0E       		.uleb128 0xe
 1210 0719 1E070000 		.4byte	0x71e
 1211 071d 00       		.byte	0
 1212 071e 0B       		.uleb128 0xb
 1213 071f 04       		.byte	0x4
 1214 0720 8A060000 		.4byte	0x68a
 1215 0724 0B       		.uleb128 0xb
 1216 0725 04       		.byte	0x4
 1217 0726 A7000000 		.4byte	0xa7
 1218 072a 03       		.uleb128 0x3
 1219 072b 75040000 		.4byte	.LASF116
 1220 072f 0E       		.byte	0xe
 1221 0730 7B       		.byte	0x7b
 1222 0731 8A060000 		.4byte	0x68a
 1223 0735 03       		.uleb128 0x3
 1224 0736 4E000000 		.4byte	.LASF117
 1225 073a 0E       		.byte	0xe
 1226 073b EE       		.byte	0xee
 1227 073c 8A060000 		.4byte	0x68a
 1228 0740 12       		.uleb128 0x12
 1229 0741 2C000000 		.4byte	0x2c
 1230 0745 59070000 		.4byte	0x759
 1231 0749 0E       		.uleb128 0xe
 1232 074a A9020000 		.4byte	0x2a9
 1233 074e 0E       		.uleb128 0xe
 1234 074f 59070000 		.4byte	0x759
 1235 0753 0E       		.uleb128 0xe
 1236 0754 2C000000 		.4byte	0x2c
 1237 0758 00       		.byte	0
 1238 0759 0B       		.uleb128 0xb
 1239 075a 04       		.byte	0x4
 1240 075b B2000000 		.4byte	0xb2
 1241 075f 0B       		.uleb128 0xb
 1242 0760 04       		.byte	0x4
 1243 0761 40070000 		.4byte	0x740
 1244 0765 12       		.uleb128 0x12
 1245 0766 2C000000 		.4byte	0x2c
 1246 076a 7E070000 		.4byte	0x77e
 1247 076e 0E       		.uleb128 0xe
 1248 076f A9020000 		.4byte	0x2a9
 1249 0773 0E       		.uleb128 0xe
 1250 0774 24070000 		.4byte	0x724
 1251 0778 0E       		.uleb128 0xe
 1252 0779 2C000000 		.4byte	0x2c
 1253 077d 00       		.byte	0
 1254 077e 0B       		.uleb128 0xb
ARM GAS  /var/folders/3j/4xdnk5197cv_b7cw3n33qk7r0000gn/T//cc30F6PF.s 			page 23


 1255 077f 04       		.byte	0x4
 1256 0780 65070000 		.4byte	0x765
 1257 0784 12       		.uleb128 0x12
 1258 0785 14010000 		.4byte	0x114
 1259 0789 98070000 		.4byte	0x798
 1260 078d 0E       		.uleb128 0xe
 1261 078e A9020000 		.4byte	0x2a9
 1262 0792 0E       		.uleb128 0xe
 1263 0793 A7000000 		.4byte	0xa7
 1264 0797 00       		.byte	0
 1265 0798 0B       		.uleb128 0xb
 1266 0799 04       		.byte	0x4
 1267 079a 84070000 		.4byte	0x784
 1268 079e 13       		.uleb128 0x13
 1269 079f 93020000 		.4byte	0x293
 1270 07a3 AE070000 		.4byte	0x7ae
 1271 07a7 14       		.uleb128 0x14
 1272 07a8 37000000 		.4byte	0x37
 1273 07ac 26       		.byte	0x26
 1274 07ad 00       		.byte	0
 1275 07ae 0F       		.uleb128 0xf
 1276 07af BA020000 		.4byte	.LASF118
 1277 07b3 0F       		.byte	0xf
 1278 07b4 82       		.byte	0x82
 1279 07b5 9E070000 		.4byte	0x79e
 1280 07b9 07       		.uleb128 0x7
 1281 07ba 76000000 		.4byte	.LASF119
 1282 07be 20       		.byte	0x20
 1283 07bf 10       		.byte	0x10
 1284 07c0 FD       		.byte	0xfd
 1285 07c1 2C080000 		.4byte	0x82c
 1286 07c5 08       		.uleb128 0x8
 1287 07c6 03030000 		.4byte	.LASF120
 1288 07ca 10       		.byte	0x10
 1289 07cb FE       		.byte	0xfe
 1290 07cc 3E000000 		.4byte	0x3e
 1291 07d0 00       		.byte	0
 1292 07d1 08       		.uleb128 0x8
 1293 07d2 A5080000 		.4byte	.LASF121
 1294 07d6 10       		.byte	0x10
 1295 07d7 FF       		.byte	0xff
 1296 07d8 3E000000 		.4byte	0x3e
 1297 07dc 04       		.byte	0x4
 1298 07dd 15       		.uleb128 0x15
 1299 07de 46090000 		.4byte	.LASF122
 1300 07e2 10       		.byte	0x10
 1301 07e3 0001     		.2byte	0x100
 1302 07e5 3E000000 		.4byte	0x3e
 1303 07e9 08       		.byte	0x8
 1304 07ea 15       		.uleb128 0x15
 1305 07eb 27030000 		.4byte	.LASF123
 1306 07ef 10       		.byte	0x10
 1307 07f0 0101     		.2byte	0x101
 1308 07f2 3E000000 		.4byte	0x3e
 1309 07f6 0C       		.byte	0xc
 1310 07f7 15       		.uleb128 0x15
 1311 07f8 DF000000 		.4byte	.LASF124
ARM GAS  /var/folders/3j/4xdnk5197cv_b7cw3n33qk7r0000gn/T//cc30F6PF.s 			page 24


 1312 07fc 10       		.byte	0x10
 1313 07fd 0201     		.2byte	0x102
 1314 07ff 3E000000 		.4byte	0x3e
 1315 0803 10       		.byte	0x10
 1316 0804 15       		.uleb128 0x15
 1317 0805 E4040000 		.4byte	.LASF125
 1318 0809 10       		.byte	0x10
 1319 080a 0301     		.2byte	0x103
 1320 080c 3E000000 		.4byte	0x3e
 1321 0810 14       		.byte	0x14
 1322 0811 15       		.uleb128 0x15
 1323 0812 67020000 		.4byte	.LASF126
 1324 0816 10       		.byte	0x10
 1325 0817 0401     		.2byte	0x104
 1326 0819 3E000000 		.4byte	0x3e
 1327 081d 18       		.byte	0x18
 1328 081e 15       		.uleb128 0x15
 1329 081f B6090000 		.4byte	.LASF127
 1330 0823 10       		.byte	0x10
 1331 0824 0501     		.2byte	0x105
 1332 0826 3E000000 		.4byte	0x3e
 1333 082a 1C       		.byte	0x1c
 1334 082b 00       		.byte	0
 1335 082c 16       		.uleb128 0x16
 1336 082d 76000000 		.4byte	.LASF119
 1337 0831 10       		.byte	0x10
 1338 0832 0801     		.2byte	0x108
 1339 0834 B9070000 		.4byte	0x7b9
 1340 0838 12       		.uleb128 0x12
 1341 0839 14010000 		.4byte	0x114
 1342 083d 51080000 		.4byte	0x851
 1343 0841 0E       		.uleb128 0xe
 1344 0842 A9020000 		.4byte	0x2a9
 1345 0846 0E       		.uleb128 0xe
 1346 0847 A7000000 		.4byte	0xa7
 1347 084b 0E       		.uleb128 0xe
 1348 084c 35010000 		.4byte	0x135
 1349 0850 00       		.byte	0
 1350 0851 0B       		.uleb128 0xb
 1351 0852 04       		.byte	0x4
 1352 0853 38080000 		.4byte	0x838
 1353 0857 12       		.uleb128 0x12
 1354 0858 14010000 		.4byte	0x114
 1355 085c 6B080000 		.4byte	0x86b
 1356 0860 0E       		.uleb128 0xe
 1357 0861 A9020000 		.4byte	0x2a9
 1358 0865 0E       		.uleb128 0xe
 1359 0866 35010000 		.4byte	0x135
 1360 086a 00       		.byte	0
 1361 086b 0B       		.uleb128 0xb
 1362 086c 04       		.byte	0x4
 1363 086d 57080000 		.4byte	0x857
 1364 0871 12       		.uleb128 0x12
 1365 0872 2C000000 		.4byte	0x2c
 1366 0876 8F080000 		.4byte	0x88f
 1367 087a 0E       		.uleb128 0xe
 1368 087b A9020000 		.4byte	0x2a9
ARM GAS  /var/folders/3j/4xdnk5197cv_b7cw3n33qk7r0000gn/T//cc30F6PF.s 			page 25


 1369 087f 0E       		.uleb128 0xe
 1370 0880 59070000 		.4byte	0x759
 1371 0884 0E       		.uleb128 0xe
 1372 0885 2C000000 		.4byte	0x2c
 1373 0889 0E       		.uleb128 0xe
 1374 088a 35010000 		.4byte	0x135
 1375 088e 00       		.byte	0
 1376 088f 0B       		.uleb128 0xb
 1377 0890 04       		.byte	0x4
 1378 0891 71080000 		.4byte	0x871
 1379 0895 12       		.uleb128 0x12
 1380 0896 2C000000 		.4byte	0x2c
 1381 089a B3080000 		.4byte	0x8b3
 1382 089e 0E       		.uleb128 0xe
 1383 089f A9020000 		.4byte	0x2a9
 1384 08a3 0E       		.uleb128 0xe
 1385 08a4 24070000 		.4byte	0x724
 1386 08a8 0E       		.uleb128 0xe
 1387 08a9 2C000000 		.4byte	0x2c
 1388 08ad 0E       		.uleb128 0xe
 1389 08ae 35010000 		.4byte	0x135
 1390 08b2 00       		.byte	0
 1391 08b3 0B       		.uleb128 0xb
 1392 08b4 04       		.byte	0x4
 1393 08b5 95080000 		.4byte	0x895
 1394 08b9 0A       		.uleb128 0xa
 1395 08ba 18       		.byte	0x18
 1396 08bb 11       		.byte	0x11
 1397 08bc 2A       		.byte	0x2a
 1398 08bd 0A090000 		.4byte	0x90a
 1399 08c1 08       		.uleb128 0x8
 1400 08c2 CD080000 		.4byte	.LASF128
 1401 08c6 11       		.byte	0x11
 1402 08c7 2F       		.byte	0x2f
 1403 08c8 CD000000 		.4byte	0xcd
 1404 08cc 00       		.byte	0
 1405 08cd 08       		.uleb128 0x8
 1406 08ce 8F050000 		.4byte	.LASF129
 1407 08d2 11       		.byte	0x11
 1408 08d3 31       		.byte	0x31
 1409 08d4 0A090000 		.4byte	0x90a
 1410 08d8 04       		.byte	0x4
 1411 08d9 08       		.uleb128 0x8
 1412 08da 2B040000 		.4byte	.LASF130
 1413 08de 11       		.byte	0x11
 1414 08df 32       		.byte	0x32
 1415 08e0 0A090000 		.4byte	0x90a
 1416 08e4 08       		.byte	0x8
 1417 08e5 08       		.uleb128 0x8
 1418 08e6 C0040000 		.4byte	.LASF131
 1419 08ea 11       		.byte	0x11
 1420 08eb 33       		.byte	0x33
 1421 08ec 0A090000 		.4byte	0x90a
 1422 08f0 0C       		.byte	0xc
 1423 08f1 08       		.uleb128 0x8
 1424 08f2 95050000 		.4byte	.LASF132
 1425 08f6 11       		.byte	0x11
ARM GAS  /var/folders/3j/4xdnk5197cv_b7cw3n33qk7r0000gn/T//cc30F6PF.s 			page 26


 1426 08f7 34       		.byte	0x34
 1427 08f8 0A090000 		.4byte	0x90a
 1428 08fc 10       		.byte	0x10
 1429 08fd 08       		.uleb128 0x8
 1430 08fe B8060000 		.4byte	.LASF133
 1431 0902 11       		.byte	0x11
 1432 0903 35       		.byte	0x35
 1433 0904 37000000 		.4byte	0x37
 1434 0908 14       		.byte	0x14
 1435 0909 00       		.byte	0
 1436 090a 0B       		.uleb128 0xb
 1437 090b 04       		.byte	0x4
 1438 090c D8000000 		.4byte	0xd8
 1439 0910 03       		.uleb128 0x3
 1440 0911 1F040000 		.4byte	.LASF134
 1441 0915 11       		.byte	0x11
 1442 0916 37       		.byte	0x37
 1443 0917 B9080000 		.4byte	0x8b9
 1444 091b 17       		.uleb128 0x17
 1445 091c 00       		.byte	0
 1446 091d 11       		.byte	0x11
 1447 091e 43       		.byte	0x43
 1448 091f 03       		.uleb128 0x3
 1449 0920 79090000 		.4byte	.LASF135
 1450 0924 11       		.byte	0x11
 1451 0925 45       		.byte	0x45
 1452 0926 1B090000 		.4byte	0x91b
 1453 092a 06       		.uleb128 0x6
 1454 092b 1F090000 		.4byte	0x91f
 1455 092f 0F       		.uleb128 0xf
 1456 0930 6D050000 		.4byte	.LASF136
 1457 0934 11       		.byte	0x11
 1458 0935 6D       		.byte	0x6d
 1459 0936 10090000 		.4byte	0x910
 1460 093a 0F       		.uleb128 0xf
 1461 093b CF060000 		.4byte	.LASF137
 1462 093f 11       		.byte	0x11
 1463 0940 6E       		.byte	0x6e
 1464 0941 10090000 		.4byte	0x910
 1465 0945 0F       		.uleb128 0xf
 1466 0946 8B090000 		.4byte	.LASF138
 1467 094a 11       		.byte	0x11
 1468 094b 75       		.byte	0x75
 1469 094c 2A090000 		.4byte	0x92a
 1470 0950 18       		.uleb128 0x18
 1471 0951 07       		.byte	0x7
 1472 0952 01       		.byte	0x1
 1473 0953 55000000 		.4byte	0x55
 1474 0957 12       		.byte	0x12
 1475 0958 54       		.byte	0x54
 1476 0959 82090000 		.4byte	0x982
 1477 095d 19       		.uleb128 0x19
 1478 095e 33020000 		.4byte	.LASF139
 1479 0962 00       		.byte	0
 1480 0963 19       		.uleb128 0x19
 1481 0964 DB040000 		.4byte	.LASF140
 1482 0968 01       		.byte	0x1
ARM GAS  /var/folders/3j/4xdnk5197cv_b7cw3n33qk7r0000gn/T//cc30F6PF.s 			page 27


 1483 0969 19       		.uleb128 0x19
 1484 096a F1070000 		.4byte	.LASF141
 1485 096e 02       		.byte	0x2
 1486 096f 19       		.uleb128 0x19
 1487 0970 98020000 		.4byte	.LASF142
 1488 0974 03       		.byte	0x3
 1489 0975 19       		.uleb128 0x19
 1490 0976 86040000 		.4byte	.LASF143
 1491 097a 04       		.byte	0x4
 1492 097b 19       		.uleb128 0x19
 1493 097c 10070000 		.4byte	.LASF144
 1494 0980 05       		.byte	0x5
 1495 0981 00       		.byte	0
 1496 0982 03       		.uleb128 0x3
 1497 0983 BF050000 		.4byte	.LASF145
 1498 0987 12       		.byte	0x12
 1499 0988 5B       		.byte	0x5b
 1500 0989 50090000 		.4byte	0x950
 1501 098d 03       		.uleb128 0x3
 1502 098e FB070000 		.4byte	.LASF146
 1503 0992 13       		.byte	0x13
 1504 0993 38       		.byte	0x38
 1505 0994 98090000 		.4byte	0x998
 1506 0998 07       		.uleb128 0x7
 1507 0999 FB070000 		.4byte	.LASF146
 1508 099d 40       		.byte	0x40
 1509 099e 13       		.byte	0x13
 1510 099f 62       		.byte	0x62
 1511 09a0 410A0000 		.4byte	0xa41
 1512 09a4 08       		.uleb128 0x8
 1513 09a5 48020000 		.4byte	.LASF147
 1514 09a9 13       		.byte	0x13
 1515 09aa 64       		.byte	0x64
 1516 09ab 82090000 		.4byte	0x982
 1517 09af 00       		.byte	0
 1518 09b0 08       		.uleb128 0x8
 1519 09b1 AE070000 		.4byte	.LASF148
 1520 09b5 13       		.byte	0x13
 1521 09b6 66       		.byte	0x66
 1522 09b7 7C0A0000 		.4byte	0xa7c
 1523 09bb 04       		.byte	0x4
 1524 09bc 08       		.uleb128 0x8
 1525 09bd 89030000 		.4byte	.LASF149
 1526 09c1 13       		.byte	0x13
 1527 09c2 68       		.byte	0x68
 1528 09c3 410A0000 		.4byte	0xa41
 1529 09c7 08       		.byte	0x8
 1530 09c8 08       		.uleb128 0x8
 1531 09c9 02010000 		.4byte	.LASF150
 1532 09cd 13       		.byte	0x13
 1533 09ce 6A       		.byte	0x6a
 1534 09cf 820A0000 		.4byte	0xa82
 1535 09d3 0C       		.byte	0xc
 1536 09d4 08       		.uleb128 0x8
 1537 09d5 01060000 		.4byte	.LASF151
 1538 09d9 13       		.byte	0x13
 1539 09da 6D       		.byte	0x6d
ARM GAS  /var/folders/3j/4xdnk5197cv_b7cw3n33qk7r0000gn/T//cc30F6PF.s 			page 28


 1540 09db 9F040000 		.4byte	0x49f
 1541 09df 10       		.byte	0x10
 1542 09e0 08       		.uleb128 0x8
 1543 09e1 60020000 		.4byte	.LASF152
 1544 09e5 13       		.byte	0x13
 1545 09e6 77       		.byte	0x77
 1546 09e7 62020000 		.4byte	0x262
 1547 09eb 20       		.byte	0x20
 1548 09ec 08       		.uleb128 0x8
 1549 09ed 7B010000 		.4byte	.LASF153
 1550 09f1 13       		.byte	0x13
 1551 09f2 7B       		.byte	0x7b
 1552 09f3 4C0A0000 		.4byte	0xa4c
 1553 09f7 24       		.byte	0x24
 1554 09f8 08       		.uleb128 0x8
 1555 09f9 73030000 		.4byte	.LASF154
 1556 09fd 13       		.byte	0x13
 1557 09fe 7F       		.byte	0x7f
 1558 09ff 59070000 		.4byte	0x759
 1559 0a03 28       		.byte	0x28
 1560 0a04 08       		.uleb128 0x8
 1561 0a05 AE090000 		.4byte	.LASF155
 1562 0a09 13       		.byte	0x13
 1563 0a0a 83       		.byte	0x83
 1564 0a0b 2C000000 		.4byte	0x2c
 1565 0a0f 2C       		.byte	0x2c
 1566 0a10 08       		.uleb128 0x8
 1567 0a11 8D080000 		.4byte	.LASF156
 1568 0a15 13       		.byte	0x13
 1569 0a16 87       		.byte	0x87
 1570 0a17 2C000000 		.4byte	0x2c
 1571 0a1b 30       		.byte	0x30
 1572 0a1c 08       		.uleb128 0x8
 1573 0a1d 82000000 		.4byte	.LASF157
 1574 0a21 13       		.byte	0x13
 1575 0a22 8B       		.byte	0x8b
 1576 0a23 24070000 		.4byte	0x724
 1577 0a27 34       		.byte	0x34
 1578 0a28 08       		.uleb128 0x8
 1579 0a29 42050000 		.4byte	.LASF158
 1580 0a2d 13       		.byte	0x13
 1581 0a2e 8F       		.byte	0x8f
 1582 0a2f 2C000000 		.4byte	0x2c
 1583 0a33 38       		.byte	0x38
 1584 0a34 08       		.uleb128 0x8
 1585 0a35 71020000 		.4byte	.LASF159
 1586 0a39 13       		.byte	0x13
 1587 0a3a 93       		.byte	0x93
 1588 0a3b 2C000000 		.4byte	0x2c
 1589 0a3f 3C       		.byte	0x3c
 1590 0a40 00       		.byte	0
 1591 0a41 03       		.uleb128 0x3
 1592 0a42 F6050000 		.4byte	.LASF160
 1593 0a46 13       		.byte	0x13
 1594 0a47 42       		.byte	0x42
 1595 0a48 CD000000 		.4byte	0xcd
 1596 0a4c 03       		.uleb128 0x3
ARM GAS  /var/folders/3j/4xdnk5197cv_b7cw3n33qk7r0000gn/T//cc30F6PF.s 			page 29


 1597 0a4d 3E020000 		.4byte	.LASF161
 1598 0a51 13       		.byte	0x13
 1599 0a52 48       		.byte	0x48
 1600 0a53 B7000000 		.4byte	0xb7
 1601 0a57 0A       		.uleb128 0xa
 1602 0a58 04       		.byte	0x4
 1603 0a59 13       		.byte	0x13
 1604 0a5a 57       		.byte	0x57
 1605 0a5b 6C0A0000 		.4byte	0xa6c
 1606 0a5f 08       		.uleb128 0x8
 1607 0a60 1D050000 		.4byte	.LASF162
 1608 0a64 13       		.byte	0x13
 1609 0a65 59       		.byte	0x59
 1610 0a66 CD000000 		.4byte	0xcd
 1611 0a6a 00       		.byte	0
 1612 0a6b 00       		.byte	0
 1613 0a6c 03       		.uleb128 0x3
 1614 0a6d 79080000 		.4byte	.LASF163
 1615 0a71 13       		.byte	0x13
 1616 0a72 5B       		.byte	0x5b
 1617 0a73 570A0000 		.4byte	0xa57
 1618 0a77 06       		.uleb128 0x6
 1619 0a78 6C0A0000 		.4byte	0xa6c
 1620 0a7c 0B       		.uleb128 0xb
 1621 0a7d 04       		.byte	0x4
 1622 0a7e 770A0000 		.4byte	0xa77
 1623 0a82 0B       		.uleb128 0xb
 1624 0a83 04       		.byte	0x4
 1625 0a84 2C080000 		.4byte	0x82c
 1626 0a88 0F       		.uleb128 0xf
 1627 0a89 4D030000 		.4byte	.LASF164
 1628 0a8d 13       		.byte	0x13
 1629 0a8e A6       		.byte	0xa6
 1630 0a8f 8D090000 		.4byte	0x98d
 1631 0a93 18       		.uleb128 0x18
 1632 0a94 07       		.byte	0x7
 1633 0a95 01       		.byte	0x1
 1634 0a96 55000000 		.4byte	0x55
 1635 0a9a 14       		.byte	0x14
 1636 0a9b 5D       		.byte	0x5d
 1637 0a9c B30A0000 		.4byte	0xab3
 1638 0aa0 19       		.uleb128 0x19
 1639 0aa1 3D070000 		.4byte	.LASF165
 1640 0aa5 00       		.byte	0
 1641 0aa6 19       		.uleb128 0x19
 1642 0aa7 53010000 		.4byte	.LASF166
 1643 0aab 01       		.byte	0x1
 1644 0aac 19       		.uleb128 0x19
 1645 0aad 48080000 		.4byte	.LASF167
 1646 0ab1 02       		.byte	0x2
 1647 0ab2 00       		.byte	0
 1648 0ab3 03       		.uleb128 0x3
 1649 0ab4 83080000 		.4byte	.LASF168
 1650 0ab8 14       		.byte	0x14
 1651 0ab9 61       		.byte	0x61
 1652 0aba 930A0000 		.4byte	0xa93
 1653 0abe 03       		.uleb128 0x3
ARM GAS  /var/folders/3j/4xdnk5197cv_b7cw3n33qk7r0000gn/T//cc30F6PF.s 			page 30


 1654 0abf 80070000 		.4byte	.LASF169
 1655 0ac3 14       		.byte	0x14
 1656 0ac4 66       		.byte	0x66
 1657 0ac5 C90A0000 		.4byte	0xac9
 1658 0ac9 07       		.uleb128 0x7
 1659 0aca 80070000 		.4byte	.LASF169
 1660 0ace 74       		.byte	0x74
 1661 0acf 14       		.byte	0x14
 1662 0ad0 80       		.byte	0x80
 1663 0ad1 280B0000 		.4byte	0xb28
 1664 0ad5 09       		.uleb128 0x9
 1665 0ad6 766D7400 		.ascii	"vmt\000"
 1666 0ada 14       		.byte	0x14
 1667 0adb 82       		.byte	0x82
 1668 0adc A50B0000 		.4byte	0xba5
 1669 0ae0 00       		.byte	0
 1670 0ae1 08       		.uleb128 0x8
 1671 0ae2 FE030000 		.4byte	.LASF170
 1672 0ae6 14       		.byte	0x14
 1673 0ae7 83       		.byte	0x83
 1674 0ae8 11050000 		.4byte	0x511
 1675 0aec 04       		.byte	0x4
 1676 0aed 08       		.uleb128 0x8
 1677 0aee 48020000 		.4byte	.LASF147
 1678 0af2 14       		.byte	0x14
 1679 0af3 83       		.byte	0x83
 1680 0af4 B30A0000 		.4byte	0xab3
 1681 0af8 08       		.byte	0x8
 1682 0af9 08       		.uleb128 0x8
 1683 0afa A3030000 		.4byte	.LASF171
 1684 0afe 14       		.byte	0x14
 1685 0aff 83       		.byte	0x83
 1686 0b00 2A070000 		.4byte	0x72a
 1687 0b04 0C       		.byte	0xc
 1688 0b05 08       		.uleb128 0x8
 1689 0b06 37040000 		.4byte	.LASF172
 1690 0b0a 14       		.byte	0x14
 1691 0b0b 83       		.byte	0x83
 1692 0b0c 35070000 		.4byte	0x735
 1693 0b10 30       		.byte	0x30
 1694 0b11 09       		.uleb128 0x9
 1695 0b12 696200   		.ascii	"ib\000"
 1696 0b15 14       		.byte	0x14
 1697 0b16 83       		.byte	0x83
 1698 0b17 AB0B0000 		.4byte	0xbab
 1699 0b1b 54       		.byte	0x54
 1700 0b1c 09       		.uleb128 0x9
 1701 0b1d 6F6200   		.ascii	"ob\000"
 1702 0b20 14       		.byte	0x14
 1703 0b21 83       		.byte	0x83
 1704 0b22 AB0B0000 		.4byte	0xbab
 1705 0b26 64       		.byte	0x64
 1706 0b27 00       		.byte	0
 1707 0b28 1A       		.uleb128 0x1a
 1708 0b29 53443100 		.ascii	"SD1\000"
 1709 0b2d 18       		.byte	0x18
 1710 0b2e 62       		.byte	0x62
ARM GAS  /var/folders/3j/4xdnk5197cv_b7cw3n33qk7r0000gn/T//cc30F6PF.s 			page 31


 1711 0b2f BE0A0000 		.4byte	0xabe
 1712 0b33 07       		.uleb128 0x7
 1713 0b34 79030000 		.4byte	.LASF173
 1714 0b38 20       		.byte	0x20
 1715 0b39 14       		.byte	0x14
 1716 0b3a 75       		.byte	0x75
 1717 0b3b A00B0000 		.4byte	0xba0
 1718 0b3f 08       		.uleb128 0x8
 1719 0b40 48000000 		.4byte	.LASF174
 1720 0b44 14       		.byte	0x14
 1721 0b45 76       		.byte	0x76
 1722 0b46 5F070000 		.4byte	0x75f
 1723 0b4a 00       		.byte	0
 1724 0b4b 08       		.uleb128 0x8
 1725 0b4c 97070000 		.4byte	.LASF175
 1726 0b50 14       		.byte	0x14
 1727 0b51 76       		.byte	0x76
 1728 0b52 7E070000 		.4byte	0x77e
 1729 0b56 04       		.byte	0x4
 1730 0b57 09       		.uleb128 0x9
 1731 0b58 70757400 		.ascii	"put\000"
 1732 0b5c 14       		.byte	0x14
 1733 0b5d 76       		.byte	0x76
 1734 0b5e 98070000 		.4byte	0x798
 1735 0b62 08       		.byte	0x8
 1736 0b63 09       		.uleb128 0x9
 1737 0b64 67657400 		.ascii	"get\000"
 1738 0b68 14       		.byte	0x14
 1739 0b69 76       		.byte	0x76
 1740 0b6a 69050000 		.4byte	0x569
 1741 0b6e 0C       		.byte	0xc
 1742 0b6f 08       		.uleb128 0x8
 1743 0b70 CE040000 		.4byte	.LASF176
 1744 0b74 14       		.byte	0x14
 1745 0b75 76       		.byte	0x76
 1746 0b76 51080000 		.4byte	0x851
 1747 0b7a 10       		.byte	0x10
 1748 0b7b 08       		.uleb128 0x8
 1749 0b7c CD030000 		.4byte	.LASF177
 1750 0b80 14       		.byte	0x14
 1751 0b81 76       		.byte	0x76
 1752 0b82 6B080000 		.4byte	0x86b
 1753 0b86 14       		.byte	0x14
 1754 0b87 08       		.uleb128 0x8
 1755 0b88 4E040000 		.4byte	.LASF178
 1756 0b8c 14       		.byte	0x14
 1757 0b8d 76       		.byte	0x76
 1758 0b8e 8F080000 		.4byte	0x88f
 1759 0b92 18       		.byte	0x18
 1760 0b93 08       		.uleb128 0x8
 1761 0b94 FC000000 		.4byte	.LASF179
 1762 0b98 14       		.byte	0x14
 1763 0b99 76       		.byte	0x76
 1764 0b9a B3080000 		.4byte	0x8b3
 1765 0b9e 1C       		.byte	0x1c
 1766 0b9f 00       		.byte	0
 1767 0ba0 06       		.uleb128 0x6
ARM GAS  /var/folders/3j/4xdnk5197cv_b7cw3n33qk7r0000gn/T//cc30F6PF.s 			page 32


 1768 0ba1 330B0000 		.4byte	0xb33
 1769 0ba5 0B       		.uleb128 0xb
 1770 0ba6 04       		.byte	0x4
 1771 0ba7 A00B0000 		.4byte	0xba0
 1772 0bab 13       		.uleb128 0x13
 1773 0bac A7000000 		.4byte	0xa7
 1774 0bb0 BB0B0000 		.4byte	0xbbb
 1775 0bb4 14       		.uleb128 0x14
 1776 0bb5 37000000 		.4byte	0x37
 1777 0bb9 0F       		.byte	0xf
 1778 0bba 00       		.byte	0
 1779 0bbb 18       		.uleb128 0x18
 1780 0bbc 07       		.byte	0x7
 1781 0bbd 01       		.byte	0x1
 1782 0bbe 55000000 		.4byte	0x55
 1783 0bc2 15       		.byte	0x15
 1784 0bc3 4E       		.byte	0x4e
 1785 0bc4 E70B0000 		.4byte	0xbe7
 1786 0bc8 19       		.uleb128 0x19
 1787 0bc9 5B080000 		.4byte	.LASF180
 1788 0bcd 00       		.byte	0
 1789 0bce 19       		.uleb128 0x19
 1790 0bcf 3D010000 		.4byte	.LASF181
 1791 0bd3 01       		.byte	0x1
 1792 0bd4 19       		.uleb128 0x19
 1793 0bd5 51080000 		.4byte	.LASF182
 1794 0bd9 02       		.byte	0x2
 1795 0bda 19       		.uleb128 0x19
 1796 0bdb 64000000 		.4byte	.LASF183
 1797 0bdf 03       		.byte	0x3
 1798 0be0 19       		.uleb128 0x19
 1799 0be1 A1070000 		.4byte	.LASF184
 1800 0be5 04       		.byte	0x4
 1801 0be6 00       		.byte	0
 1802 0be7 03       		.uleb128 0x3
 1803 0be8 C0070000 		.4byte	.LASF185
 1804 0bec 15       		.byte	0x15
 1805 0bed 54       		.byte	0x54
 1806 0bee BB0B0000 		.4byte	0xbbb
 1807 0bf2 03       		.uleb128 0x3
 1808 0bf3 D5000000 		.4byte	.LASF186
 1809 0bf7 16       		.byte	0x16
 1810 0bf8 35       		.byte	0x35
 1811 0bf9 FD0B0000 		.4byte	0xbfd
 1812 0bfd 07       		.uleb128 0x7
 1813 0bfe D5000000 		.4byte	.LASF186
 1814 0c02 28       		.byte	0x28
 1815 0c03 16       		.byte	0x16
 1816 0c04 7C       		.byte	0x7c
 1817 0c05 5E0C0000 		.4byte	0xc5e
 1818 0c09 08       		.uleb128 0x8
 1819 0c0a 48020000 		.4byte	.LASF147
 1820 0c0e 16       		.byte	0x16
 1821 0c0f 80       		.byte	0x80
 1822 0c10 E70B0000 		.4byte	0xbe7
 1823 0c14 00       		.byte	0
 1824 0c15 08       		.uleb128 0x8
ARM GAS  /var/folders/3j/4xdnk5197cv_b7cw3n33qk7r0000gn/T//cc30F6PF.s 			page 33


 1825 0c16 AE070000 		.4byte	.LASF148
 1826 0c1a 16       		.byte	0x16
 1827 0c1b 84       		.byte	0x84
 1828 0c1c 050D0000 		.4byte	0xd05
 1829 0c20 04       		.byte	0x4
 1830 0c21 08       		.uleb128 0x8
 1831 0c22 60020000 		.4byte	.LASF152
 1832 0c26 16       		.byte	0x16
 1833 0c27 89       		.byte	0x89
 1834 0c28 62020000 		.4byte	0x262
 1835 0c2c 08       		.byte	0x8
 1836 0c2d 08       		.uleb128 0x8
 1837 0c2e 01060000 		.4byte	.LASF151
 1838 0c32 16       		.byte	0x16
 1839 0c33 90       		.byte	0x90
 1840 0c34 9F040000 		.4byte	0x49f
 1841 0c38 0C       		.byte	0xc
 1842 0c39 08       		.uleb128 0x8
 1843 0c3a 82000000 		.4byte	.LASF157
 1844 0c3e 16       		.byte	0x16
 1845 0c3f 98       		.byte	0x98
 1846 0c40 A9020000 		.4byte	0x2a9
 1847 0c44 1C       		.byte	0x1c
 1848 0c45 08       		.uleb128 0x8
 1849 0c46 73030000 		.4byte	.LASF154
 1850 0c4a 16       		.byte	0x16
 1851 0c4b 9D       		.byte	0x9d
 1852 0c4c 0B0D0000 		.4byte	0xd0b
 1853 0c50 20       		.byte	0x20
 1854 0c51 08       		.uleb128 0x8
 1855 0c52 D1020000 		.4byte	.LASF187
 1856 0c56 16       		.byte	0x16
 1857 0c57 A2       		.byte	0xa2
 1858 0c58 2C000000 		.4byte	0x2c
 1859 0c5c 24       		.byte	0x24
 1860 0c5d 00       		.byte	0
 1861 0c5e 03       		.uleb128 0x3
 1862 0c5f 3F030000 		.4byte	.LASF188
 1863 0c63 16       		.byte	0x16
 1864 0c64 3D       		.byte	0x3d
 1865 0c65 690C0000 		.4byte	0xc69
 1866 0c69 0B       		.uleb128 0xb
 1867 0c6a 04       		.byte	0x4
 1868 0c6b 6F0C0000 		.4byte	0xc6f
 1869 0c6f 0D       		.uleb128 0xd
 1870 0c70 7A0C0000 		.4byte	0xc7a
 1871 0c74 0E       		.uleb128 0xe
 1872 0c75 7A0C0000 		.4byte	0xc7a
 1873 0c79 00       		.byte	0
 1874 0c7a 0B       		.uleb128 0xb
 1875 0c7b 04       		.byte	0x4
 1876 0c7c F20B0000 		.4byte	0xbf2
 1877 0c80 0A       		.uleb128 0xa
 1878 0c81 10       		.byte	0x10
 1879 0c82 16       		.byte	0x16
 1880 0c83 44       		.byte	0x44
 1881 0c84 F50C0000 		.4byte	0xcf5
ARM GAS  /var/folders/3j/4xdnk5197cv_b7cw3n33qk7r0000gn/T//cc30F6PF.s 			page 34


 1882 0c88 08       		.uleb128 0x8
 1883 0c89 CA020000 		.4byte	.LASF189
 1884 0c8d 16       		.byte	0x16
 1885 0c8e 48       		.byte	0x48
 1886 0c8f 5E0C0000 		.4byte	0xc5e
 1887 0c93 00       		.byte	0
 1888 0c94 08       		.uleb128 0x8
 1889 0c95 9E050000 		.4byte	.LASF190
 1890 0c99 16       		.byte	0x16
 1891 0c9a 4F       		.byte	0x4f
 1892 0c9b A7000000 		.4byte	0xa7
 1893 0c9f 04       		.byte	0x4
 1894 0ca0 08       		.uleb128 0x8
 1895 0ca1 AB050000 		.4byte	.LASF191
 1896 0ca5 16       		.byte	0x16
 1897 0ca6 52       		.byte	0x52
 1898 0ca7 A7000000 		.4byte	0xa7
 1899 0cab 05       		.byte	0x5
 1900 0cac 08       		.uleb128 0x8
 1901 0cad E9030000 		.4byte	.LASF192
 1902 0cb1 16       		.byte	0x16
 1903 0cb2 58       		.byte	0x58
 1904 0cb3 A7000000 		.4byte	0xa7
 1905 0cb7 06       		.byte	0x6
 1906 0cb8 08       		.uleb128 0x8
 1907 0cb9 D7020000 		.4byte	.LASF193
 1908 0cbd 16       		.byte	0x16
 1909 0cbe 5E       		.byte	0x5e
 1910 0cbf A7000000 		.4byte	0xa7
 1911 0cc3 07       		.byte	0x7
 1912 0cc4 08       		.uleb128 0x8
 1913 0cc5 ED020000 		.4byte	.LASF194
 1914 0cc9 16       		.byte	0x16
 1915 0cca 64       		.byte	0x64
 1916 0ccb A7000000 		.4byte	0xa7
 1917 0ccf 08       		.byte	0x8
 1918 0cd0 08       		.uleb128 0x8
 1919 0cd1 1A080000 		.4byte	.LASF195
 1920 0cd5 16       		.byte	0x16
 1921 0cd6 6A       		.byte	0x6a
 1922 0cd7 A7000000 		.4byte	0xa7
 1923 0cdb 09       		.byte	0x9
 1924 0cdc 08       		.uleb128 0x8
 1925 0cdd A6020000 		.4byte	.LASF196
 1926 0ce1 16       		.byte	0x16
 1927 0ce2 70       		.byte	0x70
 1928 0ce3 A7000000 		.4byte	0xa7
 1929 0ce7 0A       		.byte	0xa
 1930 0ce8 08       		.uleb128 0x8
 1931 0ce9 F5060000 		.4byte	.LASF197
 1932 0ced 16       		.byte	0x16
 1933 0cee 73       		.byte	0x73
 1934 0cef CD000000 		.4byte	0xcd
 1935 0cf3 0C       		.byte	0xc
 1936 0cf4 00       		.byte	0
 1937 0cf5 03       		.uleb128 0x3
 1938 0cf6 1A090000 		.4byte	.LASF198
ARM GAS  /var/folders/3j/4xdnk5197cv_b7cw3n33qk7r0000gn/T//cc30F6PF.s 			page 35


 1939 0cfa 16       		.byte	0x16
 1940 0cfb 75       		.byte	0x75
 1941 0cfc 800C0000 		.4byte	0xc80
 1942 0d00 06       		.uleb128 0x6
 1943 0d01 F50C0000 		.4byte	0xcf5
 1944 0d05 0B       		.uleb128 0xb
 1945 0d06 04       		.byte	0x4
 1946 0d07 000D0000 		.4byte	0xd00
 1947 0d0b 0B       		.uleb128 0xb
 1948 0d0c 04       		.byte	0x4
 1949 0d0d 110D0000 		.4byte	0xd11
 1950 0d11 1B       		.uleb128 0x1b
 1951 0d12 0F       		.uleb128 0xf
 1952 0d13 89020000 		.4byte	.LASF199
 1953 0d17 16       		.byte	0x16
 1954 0d18 B6       		.byte	0xb6
 1955 0d19 F20B0000 		.4byte	0xbf2
 1956 0d1d 1C       		.uleb128 0x1c
 1957 0d1e 1B070000 		.4byte	.LASF217
 1958 0d22 01       		.byte	0x1
 1959 0d23 A4       		.byte	0xa4
 1960 0d24 CD000000 		.4byte	0xcd
 1961 0d28 00000000 		.4byte	.LFB14
 1962 0d2c 18000000 		.4byte	.LFE14-.LFB14
 1963 0d30 01       		.uleb128 0x1
 1964 0d31 9C       		.byte	0x9c
 1965 0d32 1D       		.uleb128 0x1d
 1966 0d33 0F050000 		.4byte	.LASF218
 1967 0d37 01       		.byte	0x1
 1968 0d38 9C       		.byte	0x9c
 1969 0d39 00000000 		.4byte	.LFB13
 1970 0d3d 18000000 		.4byte	.LFE13-.LFB13
 1971 0d41 01       		.uleb128 0x1
 1972 0d42 9C       		.byte	0x9c
 1973 0d43 1E       		.uleb128 0x1e
 1974 0d44 71070000 		.4byte	.LASF202
 1975 0d48 01       		.byte	0x1
 1976 0d49 8D       		.byte	0x8d
 1977 0d4a 00000000 		.4byte	.LFB12
 1978 0d4e 34000000 		.4byte	.LFE12-.LFB12
 1979 0d52 01       		.uleb128 0x1
 1980 0d53 9C       		.byte	0x9c
 1981 0d54 840D0000 		.4byte	0xd84
 1982 0d58 1F       		.uleb128 0x1f
 1983 0d59 C5030000 		.4byte	.LASF205
 1984 0d5d 01       		.byte	0x1
 1985 0d5e 8D       		.byte	0x8d
 1986 0d5f CD000000 		.4byte	0xcd
 1987 0d63 00000000 		.4byte	.LLST1
 1988 0d67 20       		.uleb128 0x20
 1989 0d68 71090000 		.4byte	.LASF200
 1990 0d6c 01       		.byte	0x1
 1991 0d6d 90       		.byte	0x90
 1992 0d6e CD000000 		.4byte	0xcd
 1993 0d72 21000000 		.4byte	.LLST2
 1994 0d76 21       		.uleb128 0x21
 1995 0d77 C6040000 		.4byte	.LASF201
ARM GAS  /var/folders/3j/4xdnk5197cv_b7cw3n33qk7r0000gn/T//cc30F6PF.s 			page 36


 1996 0d7b 01       		.byte	0x1
 1997 0d7c 93       		.byte	0x93
 1998 0d7d CD000000 		.4byte	0xcd
 1999 0d81 01       		.uleb128 0x1
 2000 0d82 50       		.byte	0x50
 2001 0d83 00       		.byte	0
 2002 0d84 1E       		.uleb128 0x1e
 2003 0d85 29080000 		.4byte	.LASF203
 2004 0d89 01       		.byte	0x1
 2005 0d8a 86       		.byte	0x86
 2006 0d8b 00000000 		.4byte	.LFB11
 2007 0d8f 50000000 		.4byte	.LFE11-.LFB11
 2008 0d93 01       		.uleb128 0x1
 2009 0d94 9C       		.byte	0x9c
 2010 0d95 A90D0000 		.4byte	0xda9
 2011 0d99 22       		.uleb128 0x22
 2012 0d9a 2F0E0000 		.4byte	0xe2f
 2013 0d9e 04000000 		.4byte	.LBB10
 2014 0da2 3C000000 		.4byte	.LBE10-.LBB10
 2015 0da6 01       		.byte	0x1
 2016 0da7 87       		.byte	0x87
 2017 0da8 00       		.byte	0
 2018 0da9 1E       		.uleb128 0x1e
 2019 0daa 58090000 		.4byte	.LASF204
 2020 0dae 01       		.byte	0x1
 2021 0daf 7B       		.byte	0x7b
 2022 0db0 00000000 		.4byte	.LFB10
 2023 0db4 24000000 		.4byte	.LFE10-.LFB10
 2024 0db8 01       		.uleb128 0x1
 2025 0db9 9C       		.byte	0x9c
 2026 0dba D90D0000 		.4byte	0xdd9
 2027 0dbe 23       		.uleb128 0x23
 2028 0dbf 6E00     		.ascii	"n\000"
 2029 0dc1 01       		.byte	0x1
 2030 0dc2 7B       		.byte	0x7b
 2031 0dc3 CD000000 		.4byte	0xcd
 2032 0dc7 3F000000 		.4byte	.LLST0
 2033 0dcb 21       		.uleb128 0x21
 2034 0dcc 32050000 		.4byte	.LASF206
 2035 0dd0 01       		.byte	0x1
 2036 0dd1 7D       		.byte	0x7d
 2037 0dd2 CD000000 		.4byte	0xcd
 2038 0dd6 01       		.uleb128 0x1
 2039 0dd7 50       		.byte	0x50
 2040 0dd8 00       		.byte	0
 2041 0dd9 1E       		.uleb128 0x1e
 2042 0dda 34030000 		.4byte	.LASF207
 2043 0dde 01       		.byte	0x1
 2044 0ddf 5A       		.byte	0x5a
 2045 0de0 00000000 		.4byte	.LFB9
 2046 0de4 40000000 		.4byte	.LFE9-.LFB9
 2047 0de8 01       		.uleb128 0x1
 2048 0de9 9C       		.byte	0x9c
 2049 0dea 270E0000 		.4byte	0xe27
 2050 0dee 24       		.uleb128 0x24
 2051 0def 270E0000 		.4byte	0xe27
 2052 0df3 04000000 		.4byte	.LBB6
ARM GAS  /var/folders/3j/4xdnk5197cv_b7cw3n33qk7r0000gn/T//cc30F6PF.s 			page 37


 2053 0df7 00000000 		.4byte	.Ldebug_ranges0+0
 2054 0dfb 01       		.byte	0x1
 2055 0dfc 5E       		.byte	0x5e
 2056 0dfd 0B0E0000 		.4byte	0xe0b
 2057 0e01 25       		.uleb128 0x25
 2058 0e02 08000000 		.4byte	.LVL0
 2059 0e06 370E0000 		.4byte	0xe37
 2060 0e0a 00       		.byte	0
 2061 0e0b 25       		.uleb128 0x25
 2062 0e0c 1C000000 		.4byte	.LVL1
 2063 0e10 420E0000 		.4byte	0xe42
 2064 0e14 25       		.uleb128 0x25
 2065 0e15 24000000 		.4byte	.LVL2
 2066 0e19 4D0E0000 		.4byte	0xe4d
 2067 0e1d 25       		.uleb128 0x25
 2068 0e1e 2C000000 		.4byte	.LVL3
 2069 0e22 580E0000 		.4byte	0xe58
 2070 0e26 00       		.byte	0
 2071 0e27 26       		.uleb128 0x26
 2072 0e28 BC000000 		.4byte	.LASF208
 2073 0e2c 01       		.byte	0x1
 2074 0e2d 47       		.byte	0x47
 2075 0e2e 01       		.byte	0x1
 2076 0e2f 26       		.uleb128 0x26
 2077 0e30 05080000 		.4byte	.LASF209
 2078 0e34 01       		.byte	0x1
 2079 0e35 35       		.byte	0x35
 2080 0e36 01       		.byte	0x1
 2081 0e37 27       		.uleb128 0x27
 2082 0e38 90030000 		.4byte	.LASF210
 2083 0e3c 90030000 		.4byte	.LASF210
 2084 0e40 17       		.byte	0x17
 2085 0e41 F0       		.byte	0xf0
 2086 0e42 27       		.uleb128 0x27
 2087 0e43 24090000 		.4byte	.LASF211
 2088 0e47 24090000 		.4byte	.LASF211
 2089 0e4b 18       		.byte	0x18
 2090 0e4c 6B       		.byte	0x6b
 2091 0e4d 27       		.uleb128 0x27
 2092 0e4e 63010000 		.4byte	.LASF212
 2093 0e52 63010000 		.4byte	.LASF212
 2094 0e56 13       		.byte	0x13
 2095 0e57 B8       		.byte	0xb8
 2096 0e58 27       		.uleb128 0x27
 2097 0e59 D3080000 		.4byte	.LASF213
 2098 0e5d D3080000 		.4byte	.LASF213
 2099 0e61 16       		.byte	0x16
 2100 0e62 C4       		.byte	0xc4
 2101 0e63 00       		.byte	0
 2102              		.section	.debug_abbrev,"",%progbits
 2103              	.Ldebug_abbrev0:
 2104 0000 01       		.uleb128 0x1
 2105 0001 11       		.uleb128 0x11
 2106 0002 01       		.byte	0x1
 2107 0003 25       		.uleb128 0x25
 2108 0004 0E       		.uleb128 0xe
 2109 0005 13       		.uleb128 0x13
ARM GAS  /var/folders/3j/4xdnk5197cv_b7cw3n33qk7r0000gn/T//cc30F6PF.s 			page 38


 2110 0006 0B       		.uleb128 0xb
 2111 0007 03       		.uleb128 0x3
 2112 0008 0E       		.uleb128 0xe
 2113 0009 1B       		.uleb128 0x1b
 2114 000a 0E       		.uleb128 0xe
 2115 000b 55       		.uleb128 0x55
 2116 000c 17       		.uleb128 0x17
 2117 000d 11       		.uleb128 0x11
 2118 000e 01       		.uleb128 0x1
 2119 000f 10       		.uleb128 0x10
 2120 0010 17       		.uleb128 0x17
 2121 0011 00       		.byte	0
 2122 0012 00       		.byte	0
 2123 0013 02       		.uleb128 0x2
 2124 0014 24       		.uleb128 0x24
 2125 0015 00       		.byte	0
 2126 0016 0B       		.uleb128 0xb
 2127 0017 0B       		.uleb128 0xb
 2128 0018 3E       		.uleb128 0x3e
 2129 0019 0B       		.uleb128 0xb
 2130 001a 03       		.uleb128 0x3
 2131 001b 08       		.uleb128 0x8
 2132 001c 00       		.byte	0
 2133 001d 00       		.byte	0
 2134 001e 03       		.uleb128 0x3
 2135 001f 16       		.uleb128 0x16
 2136 0020 00       		.byte	0
 2137 0021 03       		.uleb128 0x3
 2138 0022 0E       		.uleb128 0xe
 2139 0023 3A       		.uleb128 0x3a
 2140 0024 0B       		.uleb128 0xb
 2141 0025 3B       		.uleb128 0x3b
 2142 0026 0B       		.uleb128 0xb
 2143 0027 49       		.uleb128 0x49
 2144 0028 13       		.uleb128 0x13
 2145 0029 00       		.byte	0
 2146 002a 00       		.byte	0
 2147 002b 04       		.uleb128 0x4
 2148 002c 24       		.uleb128 0x24
 2149 002d 00       		.byte	0
 2150 002e 0B       		.uleb128 0xb
 2151 002f 0B       		.uleb128 0xb
 2152 0030 3E       		.uleb128 0x3e
 2153 0031 0B       		.uleb128 0xb
 2154 0032 03       		.uleb128 0x3
 2155 0033 0E       		.uleb128 0xe
 2156 0034 00       		.byte	0
 2157 0035 00       		.byte	0
 2158 0036 05       		.uleb128 0x5
 2159 0037 35       		.uleb128 0x35
 2160 0038 00       		.byte	0
 2161 0039 49       		.uleb128 0x49
 2162 003a 13       		.uleb128 0x13
 2163 003b 00       		.byte	0
 2164 003c 00       		.byte	0
 2165 003d 06       		.uleb128 0x6
 2166 003e 26       		.uleb128 0x26
ARM GAS  /var/folders/3j/4xdnk5197cv_b7cw3n33qk7r0000gn/T//cc30F6PF.s 			page 39


 2167 003f 00       		.byte	0
 2168 0040 49       		.uleb128 0x49
 2169 0041 13       		.uleb128 0x13
 2170 0042 00       		.byte	0
 2171 0043 00       		.byte	0
 2172 0044 07       		.uleb128 0x7
 2173 0045 13       		.uleb128 0x13
 2174 0046 01       		.byte	0x1
 2175 0047 03       		.uleb128 0x3
 2176 0048 0E       		.uleb128 0xe
 2177 0049 0B       		.uleb128 0xb
 2178 004a 0B       		.uleb128 0xb
 2179 004b 3A       		.uleb128 0x3a
 2180 004c 0B       		.uleb128 0xb
 2181 004d 3B       		.uleb128 0x3b
 2182 004e 0B       		.uleb128 0xb
 2183 004f 01       		.uleb128 0x1
 2184 0050 13       		.uleb128 0x13
 2185 0051 00       		.byte	0
 2186 0052 00       		.byte	0
 2187 0053 08       		.uleb128 0x8
 2188 0054 0D       		.uleb128 0xd
 2189 0055 00       		.byte	0
 2190 0056 03       		.uleb128 0x3
 2191 0057 0E       		.uleb128 0xe
 2192 0058 3A       		.uleb128 0x3a
 2193 0059 0B       		.uleb128 0xb
 2194 005a 3B       		.uleb128 0x3b
 2195 005b 0B       		.uleb128 0xb
 2196 005c 49       		.uleb128 0x49
 2197 005d 13       		.uleb128 0x13
 2198 005e 38       		.uleb128 0x38
 2199 005f 0B       		.uleb128 0xb
 2200 0060 00       		.byte	0
 2201 0061 00       		.byte	0
 2202 0062 09       		.uleb128 0x9
 2203 0063 0D       		.uleb128 0xd
 2204 0064 00       		.byte	0
 2205 0065 03       		.uleb128 0x3
 2206 0066 08       		.uleb128 0x8
 2207 0067 3A       		.uleb128 0x3a
 2208 0068 0B       		.uleb128 0xb
 2209 0069 3B       		.uleb128 0x3b
 2210 006a 0B       		.uleb128 0xb
 2211 006b 49       		.uleb128 0x49
 2212 006c 13       		.uleb128 0x13
 2213 006d 38       		.uleb128 0x38
 2214 006e 0B       		.uleb128 0xb
 2215 006f 00       		.byte	0
 2216 0070 00       		.byte	0
 2217 0071 0A       		.uleb128 0xa
 2218 0072 13       		.uleb128 0x13
 2219 0073 01       		.byte	0x1
 2220 0074 0B       		.uleb128 0xb
 2221 0075 0B       		.uleb128 0xb
 2222 0076 3A       		.uleb128 0x3a
 2223 0077 0B       		.uleb128 0xb
ARM GAS  /var/folders/3j/4xdnk5197cv_b7cw3n33qk7r0000gn/T//cc30F6PF.s 			page 40


 2224 0078 3B       		.uleb128 0x3b
 2225 0079 0B       		.uleb128 0xb
 2226 007a 01       		.uleb128 0x1
 2227 007b 13       		.uleb128 0x13
 2228 007c 00       		.byte	0
 2229 007d 00       		.byte	0
 2230 007e 0B       		.uleb128 0xb
 2231 007f 0F       		.uleb128 0xf
 2232 0080 00       		.byte	0
 2233 0081 0B       		.uleb128 0xb
 2234 0082 0B       		.uleb128 0xb
 2235 0083 49       		.uleb128 0x49
 2236 0084 13       		.uleb128 0x13
 2237 0085 00       		.byte	0
 2238 0086 00       		.byte	0
 2239 0087 0C       		.uleb128 0xc
 2240 0088 0F       		.uleb128 0xf
 2241 0089 00       		.byte	0
 2242 008a 0B       		.uleb128 0xb
 2243 008b 0B       		.uleb128 0xb
 2244 008c 00       		.byte	0
 2245 008d 00       		.byte	0
 2246 008e 0D       		.uleb128 0xd
 2247 008f 15       		.uleb128 0x15
 2248 0090 01       		.byte	0x1
 2249 0091 27       		.uleb128 0x27
 2250 0092 19       		.uleb128 0x19
 2251 0093 01       		.uleb128 0x1
 2252 0094 13       		.uleb128 0x13
 2253 0095 00       		.byte	0
 2254 0096 00       		.byte	0
 2255 0097 0E       		.uleb128 0xe
 2256 0098 05       		.uleb128 0x5
 2257 0099 00       		.byte	0
 2258 009a 49       		.uleb128 0x49
 2259 009b 13       		.uleb128 0x13
 2260 009c 00       		.byte	0
 2261 009d 00       		.byte	0
 2262 009e 0F       		.uleb128 0xf
 2263 009f 34       		.uleb128 0x34
 2264 00a0 00       		.byte	0
 2265 00a1 03       		.uleb128 0x3
 2266 00a2 0E       		.uleb128 0xe
 2267 00a3 3A       		.uleb128 0x3a
 2268 00a4 0B       		.uleb128 0xb
 2269 00a5 3B       		.uleb128 0x3b
 2270 00a6 0B       		.uleb128 0xb
 2271 00a7 49       		.uleb128 0x49
 2272 00a8 13       		.uleb128 0x13
 2273 00a9 3F       		.uleb128 0x3f
 2274 00aa 19       		.uleb128 0x19
 2275 00ab 3C       		.uleb128 0x3c
 2276 00ac 19       		.uleb128 0x19
 2277 00ad 00       		.byte	0
 2278 00ae 00       		.byte	0
 2279 00af 10       		.uleb128 0x10
 2280 00b0 17       		.uleb128 0x17
ARM GAS  /var/folders/3j/4xdnk5197cv_b7cw3n33qk7r0000gn/T//cc30F6PF.s 			page 41


 2281 00b1 01       		.byte	0x1
 2282 00b2 0B       		.uleb128 0xb
 2283 00b3 0B       		.uleb128 0xb
 2284 00b4 3A       		.uleb128 0x3a
 2285 00b5 0B       		.uleb128 0xb
 2286 00b6 3B       		.uleb128 0x3b
 2287 00b7 0B       		.uleb128 0xb
 2288 00b8 01       		.uleb128 0x1
 2289 00b9 13       		.uleb128 0x13
 2290 00ba 00       		.byte	0
 2291 00bb 00       		.byte	0
 2292 00bc 11       		.uleb128 0x11
 2293 00bd 0D       		.uleb128 0xd
 2294 00be 00       		.byte	0
 2295 00bf 03       		.uleb128 0x3
 2296 00c0 0E       		.uleb128 0xe
 2297 00c1 3A       		.uleb128 0x3a
 2298 00c2 0B       		.uleb128 0xb
 2299 00c3 3B       		.uleb128 0x3b
 2300 00c4 0B       		.uleb128 0xb
 2301 00c5 49       		.uleb128 0x49
 2302 00c6 13       		.uleb128 0x13
 2303 00c7 00       		.byte	0
 2304 00c8 00       		.byte	0
 2305 00c9 12       		.uleb128 0x12
 2306 00ca 15       		.uleb128 0x15
 2307 00cb 01       		.byte	0x1
 2308 00cc 27       		.uleb128 0x27
 2309 00cd 19       		.uleb128 0x19
 2310 00ce 49       		.uleb128 0x49
 2311 00cf 13       		.uleb128 0x13
 2312 00d0 01       		.uleb128 0x1
 2313 00d1 13       		.uleb128 0x13
 2314 00d2 00       		.byte	0
 2315 00d3 00       		.byte	0
 2316 00d4 13       		.uleb128 0x13
 2317 00d5 01       		.uleb128 0x1
 2318 00d6 01       		.byte	0x1
 2319 00d7 49       		.uleb128 0x49
 2320 00d8 13       		.uleb128 0x13
 2321 00d9 01       		.uleb128 0x1
 2322 00da 13       		.uleb128 0x13
 2323 00db 00       		.byte	0
 2324 00dc 00       		.byte	0
 2325 00dd 14       		.uleb128 0x14
 2326 00de 21       		.uleb128 0x21
 2327 00df 00       		.byte	0
 2328 00e0 49       		.uleb128 0x49
 2329 00e1 13       		.uleb128 0x13
 2330 00e2 2F       		.uleb128 0x2f
 2331 00e3 0B       		.uleb128 0xb
 2332 00e4 00       		.byte	0
 2333 00e5 00       		.byte	0
 2334 00e6 15       		.uleb128 0x15
 2335 00e7 0D       		.uleb128 0xd
 2336 00e8 00       		.byte	0
 2337 00e9 03       		.uleb128 0x3
ARM GAS  /var/folders/3j/4xdnk5197cv_b7cw3n33qk7r0000gn/T//cc30F6PF.s 			page 42


 2338 00ea 0E       		.uleb128 0xe
 2339 00eb 3A       		.uleb128 0x3a
 2340 00ec 0B       		.uleb128 0xb
 2341 00ed 3B       		.uleb128 0x3b
 2342 00ee 05       		.uleb128 0x5
 2343 00ef 49       		.uleb128 0x49
 2344 00f0 13       		.uleb128 0x13
 2345 00f1 38       		.uleb128 0x38
 2346 00f2 0B       		.uleb128 0xb
 2347 00f3 00       		.byte	0
 2348 00f4 00       		.byte	0
 2349 00f5 16       		.uleb128 0x16
 2350 00f6 16       		.uleb128 0x16
 2351 00f7 00       		.byte	0
 2352 00f8 03       		.uleb128 0x3
 2353 00f9 0E       		.uleb128 0xe
 2354 00fa 3A       		.uleb128 0x3a
 2355 00fb 0B       		.uleb128 0xb
 2356 00fc 3B       		.uleb128 0x3b
 2357 00fd 05       		.uleb128 0x5
 2358 00fe 49       		.uleb128 0x49
 2359 00ff 13       		.uleb128 0x13
 2360 0100 00       		.byte	0
 2361 0101 00       		.byte	0
 2362 0102 17       		.uleb128 0x17
 2363 0103 13       		.uleb128 0x13
 2364 0104 00       		.byte	0
 2365 0105 0B       		.uleb128 0xb
 2366 0106 0B       		.uleb128 0xb
 2367 0107 3A       		.uleb128 0x3a
 2368 0108 0B       		.uleb128 0xb
 2369 0109 3B       		.uleb128 0x3b
 2370 010a 0B       		.uleb128 0xb
 2371 010b 00       		.byte	0
 2372 010c 00       		.byte	0
 2373 010d 18       		.uleb128 0x18
 2374 010e 04       		.uleb128 0x4
 2375 010f 01       		.byte	0x1
 2376 0110 3E       		.uleb128 0x3e
 2377 0111 0B       		.uleb128 0xb
 2378 0112 0B       		.uleb128 0xb
 2379 0113 0B       		.uleb128 0xb
 2380 0114 49       		.uleb128 0x49
 2381 0115 13       		.uleb128 0x13
 2382 0116 3A       		.uleb128 0x3a
 2383 0117 0B       		.uleb128 0xb
 2384 0118 3B       		.uleb128 0x3b
 2385 0119 0B       		.uleb128 0xb
 2386 011a 01       		.uleb128 0x1
 2387 011b 13       		.uleb128 0x13
 2388 011c 00       		.byte	0
 2389 011d 00       		.byte	0
 2390 011e 19       		.uleb128 0x19
 2391 011f 28       		.uleb128 0x28
 2392 0120 00       		.byte	0
 2393 0121 03       		.uleb128 0x3
 2394 0122 0E       		.uleb128 0xe
ARM GAS  /var/folders/3j/4xdnk5197cv_b7cw3n33qk7r0000gn/T//cc30F6PF.s 			page 43


 2395 0123 1C       		.uleb128 0x1c
 2396 0124 0B       		.uleb128 0xb
 2397 0125 00       		.byte	0
 2398 0126 00       		.byte	0
 2399 0127 1A       		.uleb128 0x1a
 2400 0128 34       		.uleb128 0x34
 2401 0129 00       		.byte	0
 2402 012a 03       		.uleb128 0x3
 2403 012b 08       		.uleb128 0x8
 2404 012c 3A       		.uleb128 0x3a
 2405 012d 0B       		.uleb128 0xb
 2406 012e 3B       		.uleb128 0x3b
 2407 012f 0B       		.uleb128 0xb
 2408 0130 49       		.uleb128 0x49
 2409 0131 13       		.uleb128 0x13
 2410 0132 3F       		.uleb128 0x3f
 2411 0133 19       		.uleb128 0x19
 2412 0134 3C       		.uleb128 0x3c
 2413 0135 19       		.uleb128 0x19
 2414 0136 00       		.byte	0
 2415 0137 00       		.byte	0
 2416 0138 1B       		.uleb128 0x1b
 2417 0139 26       		.uleb128 0x26
 2418 013a 00       		.byte	0
 2419 013b 00       		.byte	0
 2420 013c 00       		.byte	0
 2421 013d 1C       		.uleb128 0x1c
 2422 013e 2E       		.uleb128 0x2e
 2423 013f 00       		.byte	0
 2424 0140 3F       		.uleb128 0x3f
 2425 0141 19       		.uleb128 0x19
 2426 0142 03       		.uleb128 0x3
 2427 0143 0E       		.uleb128 0xe
 2428 0144 3A       		.uleb128 0x3a
 2429 0145 0B       		.uleb128 0xb
 2430 0146 3B       		.uleb128 0x3b
 2431 0147 0B       		.uleb128 0xb
 2432 0148 27       		.uleb128 0x27
 2433 0149 19       		.uleb128 0x19
 2434 014a 49       		.uleb128 0x49
 2435 014b 13       		.uleb128 0x13
 2436 014c 11       		.uleb128 0x11
 2437 014d 01       		.uleb128 0x1
 2438 014e 12       		.uleb128 0x12
 2439 014f 06       		.uleb128 0x6
 2440 0150 40       		.uleb128 0x40
 2441 0151 18       		.uleb128 0x18
 2442 0152 9742     		.uleb128 0x2117
 2443 0154 19       		.uleb128 0x19
 2444 0155 00       		.byte	0
 2445 0156 00       		.byte	0
 2446 0157 1D       		.uleb128 0x1d
 2447 0158 2E       		.uleb128 0x2e
 2448 0159 00       		.byte	0
 2449 015a 3F       		.uleb128 0x3f
 2450 015b 19       		.uleb128 0x19
 2451 015c 03       		.uleb128 0x3
ARM GAS  /var/folders/3j/4xdnk5197cv_b7cw3n33qk7r0000gn/T//cc30F6PF.s 			page 44


 2452 015d 0E       		.uleb128 0xe
 2453 015e 3A       		.uleb128 0x3a
 2454 015f 0B       		.uleb128 0xb
 2455 0160 3B       		.uleb128 0x3b
 2456 0161 0B       		.uleb128 0xb
 2457 0162 27       		.uleb128 0x27
 2458 0163 19       		.uleb128 0x19
 2459 0164 11       		.uleb128 0x11
 2460 0165 01       		.uleb128 0x1
 2461 0166 12       		.uleb128 0x12
 2462 0167 06       		.uleb128 0x6
 2463 0168 40       		.uleb128 0x40
 2464 0169 18       		.uleb128 0x18
 2465 016a 9742     		.uleb128 0x2117
 2466 016c 19       		.uleb128 0x19
 2467 016d 00       		.byte	0
 2468 016e 00       		.byte	0
 2469 016f 1E       		.uleb128 0x1e
 2470 0170 2E       		.uleb128 0x2e
 2471 0171 01       		.byte	0x1
 2472 0172 3F       		.uleb128 0x3f
 2473 0173 19       		.uleb128 0x19
 2474 0174 03       		.uleb128 0x3
 2475 0175 0E       		.uleb128 0xe
 2476 0176 3A       		.uleb128 0x3a
 2477 0177 0B       		.uleb128 0xb
 2478 0178 3B       		.uleb128 0x3b
 2479 0179 0B       		.uleb128 0xb
 2480 017a 27       		.uleb128 0x27
 2481 017b 19       		.uleb128 0x19
 2482 017c 11       		.uleb128 0x11
 2483 017d 01       		.uleb128 0x1
 2484 017e 12       		.uleb128 0x12
 2485 017f 06       		.uleb128 0x6
 2486 0180 40       		.uleb128 0x40
 2487 0181 18       		.uleb128 0x18
 2488 0182 9742     		.uleb128 0x2117
 2489 0184 19       		.uleb128 0x19
 2490 0185 01       		.uleb128 0x1
 2491 0186 13       		.uleb128 0x13
 2492 0187 00       		.byte	0
 2493 0188 00       		.byte	0
 2494 0189 1F       		.uleb128 0x1f
 2495 018a 05       		.uleb128 0x5
 2496 018b 00       		.byte	0
 2497 018c 03       		.uleb128 0x3
 2498 018d 0E       		.uleb128 0xe
 2499 018e 3A       		.uleb128 0x3a
 2500 018f 0B       		.uleb128 0xb
 2501 0190 3B       		.uleb128 0x3b
 2502 0191 0B       		.uleb128 0xb
 2503 0192 49       		.uleb128 0x49
 2504 0193 13       		.uleb128 0x13
 2505 0194 02       		.uleb128 0x2
 2506 0195 17       		.uleb128 0x17
 2507 0196 00       		.byte	0
 2508 0197 00       		.byte	0
ARM GAS  /var/folders/3j/4xdnk5197cv_b7cw3n33qk7r0000gn/T//cc30F6PF.s 			page 45


 2509 0198 20       		.uleb128 0x20
 2510 0199 34       		.uleb128 0x34
 2511 019a 00       		.byte	0
 2512 019b 03       		.uleb128 0x3
 2513 019c 0E       		.uleb128 0xe
 2514 019d 3A       		.uleb128 0x3a
 2515 019e 0B       		.uleb128 0xb
 2516 019f 3B       		.uleb128 0x3b
 2517 01a0 0B       		.uleb128 0xb
 2518 01a1 49       		.uleb128 0x49
 2519 01a2 13       		.uleb128 0x13
 2520 01a3 02       		.uleb128 0x2
 2521 01a4 17       		.uleb128 0x17
 2522 01a5 00       		.byte	0
 2523 01a6 00       		.byte	0
 2524 01a7 21       		.uleb128 0x21
 2525 01a8 34       		.uleb128 0x34
 2526 01a9 00       		.byte	0
 2527 01aa 03       		.uleb128 0x3
 2528 01ab 0E       		.uleb128 0xe
 2529 01ac 3A       		.uleb128 0x3a
 2530 01ad 0B       		.uleb128 0xb
 2531 01ae 3B       		.uleb128 0x3b
 2532 01af 0B       		.uleb128 0xb
 2533 01b0 49       		.uleb128 0x49
 2534 01b1 13       		.uleb128 0x13
 2535 01b2 02       		.uleb128 0x2
 2536 01b3 18       		.uleb128 0x18
 2537 01b4 00       		.byte	0
 2538 01b5 00       		.byte	0
 2539 01b6 22       		.uleb128 0x22
 2540 01b7 1D       		.uleb128 0x1d
 2541 01b8 00       		.byte	0
 2542 01b9 31       		.uleb128 0x31
 2543 01ba 13       		.uleb128 0x13
 2544 01bb 11       		.uleb128 0x11
 2545 01bc 01       		.uleb128 0x1
 2546 01bd 12       		.uleb128 0x12
 2547 01be 06       		.uleb128 0x6
 2548 01bf 58       		.uleb128 0x58
 2549 01c0 0B       		.uleb128 0xb
 2550 01c1 59       		.uleb128 0x59
 2551 01c2 0B       		.uleb128 0xb
 2552 01c3 00       		.byte	0
 2553 01c4 00       		.byte	0
 2554 01c5 23       		.uleb128 0x23
 2555 01c6 05       		.uleb128 0x5
 2556 01c7 00       		.byte	0
 2557 01c8 03       		.uleb128 0x3
 2558 01c9 08       		.uleb128 0x8
 2559 01ca 3A       		.uleb128 0x3a
 2560 01cb 0B       		.uleb128 0xb
 2561 01cc 3B       		.uleb128 0x3b
 2562 01cd 0B       		.uleb128 0xb
 2563 01ce 49       		.uleb128 0x49
 2564 01cf 13       		.uleb128 0x13
 2565 01d0 02       		.uleb128 0x2
ARM GAS  /var/folders/3j/4xdnk5197cv_b7cw3n33qk7r0000gn/T//cc30F6PF.s 			page 46


 2566 01d1 17       		.uleb128 0x17
 2567 01d2 00       		.byte	0
 2568 01d3 00       		.byte	0
 2569 01d4 24       		.uleb128 0x24
 2570 01d5 1D       		.uleb128 0x1d
 2571 01d6 01       		.byte	0x1
 2572 01d7 31       		.uleb128 0x31
 2573 01d8 13       		.uleb128 0x13
 2574 01d9 52       		.uleb128 0x52
 2575 01da 01       		.uleb128 0x1
 2576 01db 55       		.uleb128 0x55
 2577 01dc 17       		.uleb128 0x17
 2578 01dd 58       		.uleb128 0x58
 2579 01de 0B       		.uleb128 0xb
 2580 01df 59       		.uleb128 0x59
 2581 01e0 0B       		.uleb128 0xb
 2582 01e1 01       		.uleb128 0x1
 2583 01e2 13       		.uleb128 0x13
 2584 01e3 00       		.byte	0
 2585 01e4 00       		.byte	0
 2586 01e5 25       		.uleb128 0x25
 2587 01e6 898201   		.uleb128 0x4109
 2588 01e9 00       		.byte	0
 2589 01ea 11       		.uleb128 0x11
 2590 01eb 01       		.uleb128 0x1
 2591 01ec 31       		.uleb128 0x31
 2592 01ed 13       		.uleb128 0x13
 2593 01ee 00       		.byte	0
 2594 01ef 00       		.byte	0
 2595 01f0 26       		.uleb128 0x26
 2596 01f1 2E       		.uleb128 0x2e
 2597 01f2 00       		.byte	0
 2598 01f3 03       		.uleb128 0x3
 2599 01f4 0E       		.uleb128 0xe
 2600 01f5 3A       		.uleb128 0x3a
 2601 01f6 0B       		.uleb128 0xb
 2602 01f7 3B       		.uleb128 0x3b
 2603 01f8 0B       		.uleb128 0xb
 2604 01f9 27       		.uleb128 0x27
 2605 01fa 19       		.uleb128 0x19
 2606 01fb 20       		.uleb128 0x20
 2607 01fc 0B       		.uleb128 0xb
 2608 01fd 00       		.byte	0
 2609 01fe 00       		.byte	0
 2610 01ff 27       		.uleb128 0x27
 2611 0200 2E       		.uleb128 0x2e
 2612 0201 00       		.byte	0
 2613 0202 3F       		.uleb128 0x3f
 2614 0203 19       		.uleb128 0x19
 2615 0204 3C       		.uleb128 0x3c
 2616 0205 19       		.uleb128 0x19
 2617 0206 6E       		.uleb128 0x6e
 2618 0207 0E       		.uleb128 0xe
 2619 0208 03       		.uleb128 0x3
 2620 0209 0E       		.uleb128 0xe
 2621 020a 3A       		.uleb128 0x3a
 2622 020b 0B       		.uleb128 0xb
ARM GAS  /var/folders/3j/4xdnk5197cv_b7cw3n33qk7r0000gn/T//cc30F6PF.s 			page 47


 2623 020c 3B       		.uleb128 0x3b
 2624 020d 0B       		.uleb128 0xb
 2625 020e 00       		.byte	0
 2626 020f 00       		.byte	0
 2627 0210 00       		.byte	0
 2628              		.section	.debug_loc,"",%progbits
 2629              	.Ldebug_loc0:
 2630              	.LLST1:
 2631 0000 00000000 		.4byte	.LVL6
 2632 0004 08000000 		.4byte	.LVL7
 2633 0008 0100     		.2byte	0x1
 2634 000a 50       		.byte	0x50
 2635 000b 08000000 		.4byte	.LVL7
 2636 000f 34000000 		.4byte	.LFE12
 2637 0013 0400     		.2byte	0x4
 2638 0015 F3       		.byte	0xf3
 2639 0016 01       		.uleb128 0x1
 2640 0017 50       		.byte	0x50
 2641 0018 9F       		.byte	0x9f
 2642 0019 00000000 		.4byte	0
 2643 001d 00000000 		.4byte	0
 2644              	.LLST2:
 2645 0021 0C000000 		.4byte	.LVL8
 2646 0025 14000000 		.4byte	.LVL9
 2647 0029 0100     		.2byte	0x1
 2648 002b 53       		.byte	0x53
 2649 002c 24000000 		.4byte	.LVL11
 2650 0030 34000000 		.4byte	.LFE12
 2651 0034 0100     		.2byte	0x1
 2652 0036 53       		.byte	0x53
 2653 0037 00000000 		.4byte	0
 2654 003b 00000000 		.4byte	0
 2655              	.LLST0:
 2656 003f 00000000 		.4byte	.LVL4
 2657 0043 10000000 		.4byte	.LVL5
 2658 0047 0100     		.2byte	0x1
 2659 0049 50       		.byte	0x50
 2660 004a 10000000 		.4byte	.LVL5
 2661 004e 24000000 		.4byte	.LFE10
 2662 0052 0400     		.2byte	0x4
 2663 0054 F3       		.byte	0xf3
 2664 0055 01       		.uleb128 0x1
 2665 0056 50       		.byte	0x50
 2666 0057 9F       		.byte	0x9f
 2667 0058 00000000 		.4byte	0
 2668 005c 00000000 		.4byte	0
 2669              		.section	.debug_aranges,"",%progbits
 2670 0000 44000000 		.4byte	0x44
 2671 0004 0200     		.2byte	0x2
 2672 0006 00000000 		.4byte	.Ldebug_info0
 2673 000a 04       		.byte	0x4
 2674 000b 00       		.byte	0
 2675 000c 0000     		.2byte	0
 2676 000e 0000     		.2byte	0
 2677 0010 00000000 		.4byte	.LFB9
 2678 0014 40000000 		.4byte	.LFE9-.LFB9
 2679 0018 00000000 		.4byte	.LFB10
ARM GAS  /var/folders/3j/4xdnk5197cv_b7cw3n33qk7r0000gn/T//cc30F6PF.s 			page 48


 2680 001c 24000000 		.4byte	.LFE10-.LFB10
 2681 0020 00000000 		.4byte	.LFB11
 2682 0024 50000000 		.4byte	.LFE11-.LFB11
 2683 0028 00000000 		.4byte	.LFB12
 2684 002c 34000000 		.4byte	.LFE12-.LFB12
 2685 0030 00000000 		.4byte	.LFB13
 2686 0034 18000000 		.4byte	.LFE13-.LFB13
 2687 0038 00000000 		.4byte	.LFB14
 2688 003c 18000000 		.4byte	.LFE14-.LFB14
 2689 0040 00000000 		.4byte	0
 2690 0044 00000000 		.4byte	0
 2691              		.section	.debug_ranges,"",%progbits
 2692              	.Ldebug_ranges0:
 2693 0000 04000000 		.4byte	.LBB6
 2694 0004 10000000 		.4byte	.LBE6
 2695 0008 14000000 		.4byte	.LBB9
 2696 000c 18000000 		.4byte	.LBE9
 2697 0010 00000000 		.4byte	0
 2698 0014 00000000 		.4byte	0
 2699 0018 00000000 		.4byte	.LFB9
 2700 001c 40000000 		.4byte	.LFE9
 2701 0020 00000000 		.4byte	.LFB10
 2702 0024 24000000 		.4byte	.LFE10
 2703 0028 00000000 		.4byte	.LFB11
 2704 002c 50000000 		.4byte	.LFE11
 2705 0030 00000000 		.4byte	.LFB12
 2706 0034 34000000 		.4byte	.LFE12
 2707 0038 00000000 		.4byte	.LFB13
 2708 003c 18000000 		.4byte	.LFE13
 2709 0040 00000000 		.4byte	.LFB14
 2710 0044 18000000 		.4byte	.LFE14
 2711 0048 00000000 		.4byte	0
 2712 004c 00000000 		.4byte	0
 2713              		.section	.debug_line,"",%progbits
 2714              	.Ldebug_line0:
 2715 0000 26030000 		.section	.debug_str,"MS",%progbits,1
 2715      02008202 
 2715      00000201 
 2715      FB0E0D00 
 2715      01010101 
 2716              	.LASF215:
 2717 0000 2E2E2F2F 		.ascii	"..//os/hal/platforms/BCM2835/hal_lld.c\000"
 2717      6F732F68 
 2717      616C2F70 
 2717      6C617466 
 2717      6F726D73 
 2718              	.LASF96:
 2719 0027 63665F6F 		.ascii	"cf_off_older\000"
 2719      66665F6F 
 2719      6C646572 
 2719      00
 2720              	.LASF42:
 2721 0034 705F6D73 		.ascii	"p_msg\000"
 2721      6700
 2722              	.LASF2:
 2723 003a 73697A65 		.ascii	"size_t\000"
 2723      5F7400
ARM GAS  /var/folders/3j/4xdnk5197cv_b7cw3n33qk7r0000gn/T//cc30F6PF.s 			page 49


 2724              	.LASF81:
 2725 0041 7264796D 		.ascii	"rdymsg\000"
 2725      736700
 2726              	.LASF174:
 2727 0048 77726974 		.ascii	"write\000"
 2727      6500
 2728              	.LASF117:
 2729 004e 4F757470 		.ascii	"OutputQueue\000"
 2729      75745175 
 2729      65756500 
 2730              	.LASF3:
 2731 005a 5F5F7569 		.ascii	"__uint8_t\000"
 2731      6E74385F 
 2731      7400
 2732              	.LASF183:
 2733 0064 5350495F 		.ascii	"SPI_ACTIVE\000"
 2733      41435449 
 2733      564500
 2734              	.LASF68:
 2735 006f 76746C69 		.ascii	"vtlist\000"
 2735      737400
 2736              	.LASF119:
 2737 0076 62736364 		.ascii	"bscdevice_t\000"
 2737      65766963 
 2737      655F7400 
 2738              	.LASF157:
 2739 0082 72786275 		.ascii	"rxbuf\000"
 2739      6600
 2740              	.LASF110:
 2741 0088 715F746F 		.ascii	"q_top\000"
 2741      7000
 2742              	.LASF13:
 2743 008e 6C6F6E67 		.ascii	"long long unsigned int\000"
 2743      206C6F6E 
 2743      6720756E 
 2743      7369676E 
 2743      65642069 
 2744              	.LASF92:
 2745 00a5 63685F74 		.ascii	"ch_threadsize\000"
 2745      68726561 
 2745      6473697A 
 2745      6500
 2746              	.LASF82:
 2747 00b3 65786974 		.ascii	"exitcode\000"
 2747      636F6465 
 2747      00
 2748              	.LASF208:
 2749 00bc 73797374 		.ascii	"systimer_serve_interrupt\000"
 2749      696D6572 
 2749      5F736572 
 2749      76655F69 
 2749      6E746572 
 2750              	.LASF186:
 2751 00d5 53504944 		.ascii	"SPIDriver\000"
 2751      72697665 
 2751      7200
 2752              	.LASF124:
ARM GAS  /var/folders/3j/4xdnk5197cv_b7cw3n33qk7r0000gn/T//cc30F6PF.s 			page 50


 2753 00df 64617461 		.ascii	"dataFifo\000"
 2753      4669666F 
 2753      00
 2754              	.LASF30:
 2755 00e8 705F7072 		.ascii	"p_prio\000"
 2755      696F00
 2756              	.LASF99:
 2757 00ef 63665F6F 		.ascii	"cf_off_state\000"
 2757      66665F73 
 2757      74617465 
 2757      00
 2758              	.LASF179:
 2759 00fc 72656164 		.ascii	"readt\000"
 2759      7400
 2760              	.LASF150:
 2761 0102 64657669 		.ascii	"device\000"
 2761      636500
 2762              	.LASF107:
 2763 0109 715F7761 		.ascii	"q_waiting\000"
 2763      6974696E 
 2763      6700
 2764              	.LASF12:
 2765 0113 6C6F6E67 		.ascii	"long long int\000"
 2765      206C6F6E 
 2765      6720696E 
 2765      7400
 2766              	.LASF1:
 2767 0121 7369676E 		.ascii	"signed char\000"
 2767      65642063 
 2767      68617200 
 2768              	.LASF98:
 2769 012d 63665F6F 		.ascii	"cf_off_stklimit\000"
 2769      66665F73 
 2769      746B6C69 
 2769      6D697400 
 2770              	.LASF181:
 2771 013d 5350495F 		.ascii	"SPI_STOP\000"
 2771      53544F50 
 2771      00
 2772              	.LASF100:
 2773 0146 63665F6F 		.ascii	"cf_off_flags\000"
 2773      66665F66 
 2773      6C616773 
 2773      00
 2774              	.LASF166:
 2775 0153 53445F53 		.ascii	"SD_STOP\000"
 2775      544F5000 
 2776              	.LASF71:
 2777 015b 6D5F7175 		.ascii	"m_queue\000"
 2777      65756500 
 2778              	.LASF212:
 2779 0163 6932635F 		.ascii	"i2c_lld_serve_interrupt\000"
 2779      6C6C645F 
 2779      73657276 
 2779      655F696E 
 2779      74657272 
 2780              	.LASF153:
ARM GAS  /var/folders/3j/4xdnk5197cv_b7cw3n33qk7r0000gn/T//cc30F6PF.s 			page 51


 2781 017b 61646472 		.ascii	"addr\000"
 2781      00
 2782              	.LASF214:
 2783 0180 474E5520 		.ascii	"GNU C11 7.3.1 20180622 (release) [ARM/embedded-7-br"
 2783      43313120 
 2783      372E332E 
 2783      31203230 
 2783      31383036 
 2784 01b3 616E6368 		.ascii	"anch revision 261907] -mcpu=arm1176jz-s -mno-thumb-"
 2784      20726576 
 2784      6973696F 
 2784      6E203236 
 2784      31393037 
 2785 01e6 696E7465 		.ascii	"interwork -ggdb -O2 -fomit-frame-pointer -ffunction"
 2785      72776F72 
 2785      6B202D67 
 2785      67646220 
 2785      2D4F3220 
 2786 0219 2D736563 		.ascii	"-sections -fdata-sections\000"
 2786      74696F6E 
 2786      73202D66 
 2786      64617461 
 2786      2D736563 
 2787              	.LASF139:
 2788 0233 4932435F 		.ascii	"I2C_UNINIT\000"
 2788      554E494E 
 2788      495400
 2789              	.LASF161:
 2790 023e 69326361 		.ascii	"i2caddr_t\000"
 2790      6464725F 
 2790      7400
 2791              	.LASF147:
 2792 0248 73746174 		.ascii	"state\000"
 2792      6500
 2793              	.LASF9:
 2794 024e 6C6F6E67 		.ascii	"long int\000"
 2794      20696E74 
 2794      00
 2795              	.LASF19:
 2796 0257 74737461 		.ascii	"tstate_t\000"
 2796      74655F74 
 2796      00
 2797              	.LASF152:
 2798 0260 74687265 		.ascii	"thread\000"
 2798      616400
 2799              	.LASF126:
 2800 0267 64617461 		.ascii	"dataDelay\000"
 2800      44656C61 
 2800      7900
 2801              	.LASF159:
 2802 0271 72786964 		.ascii	"rxidx\000"
 2802      7800
 2803              	.LASF109:
 2804 0277 715F6275 		.ascii	"q_buffer\000"
 2804      66666572 
 2804      00
 2805              	.LASF15:
ARM GAS  /var/folders/3j/4xdnk5197cv_b7cw3n33qk7r0000gn/T//cc30F6PF.s 			page 52


 2806 0280 75696E74 		.ascii	"uint16_t\000"
 2806      31365F74 
 2806      00
 2807              	.LASF199:
 2808 0289 53504930 		.ascii	"SPI0\000"
 2808      00
 2809              	.LASF104:
 2810 028e 63686465 		.ascii	"chdebug_t\000"
 2810      6275675F 
 2810      7400
 2811              	.LASF142:
 2812 0298 4932435F 		.ascii	"I2C_ACTIVE_TX\000"
 2812      41435449 
 2812      56455F54 
 2812      5800
 2813              	.LASF196:
 2814 02a6 636C6F63 		.ascii	"clock_phase\000"
 2814      6B5F7068 
 2814      61736500 
 2815              	.LASF32:
 2816 02b2 705F6E65 		.ascii	"p_newer\000"
 2816      77657200 
 2817              	.LASF118:
 2818 02ba 5F69646C 		.ascii	"_idle_thread_wa\000"
 2818      655F7468 
 2818      72656164 
 2818      5F776100 
 2819              	.LASF189:
 2820 02ca 656E645F 		.ascii	"end_cb\000"
 2820      636200
 2821              	.LASF187:
 2822 02d1 7478636E 		.ascii	"txcnt\000"
 2822      7400
 2823              	.LASF193:
 2824 02d7 63686970 		.ascii	"chip_select_polarity0\000"
 2824      5F73656C 
 2824      6563745F 
 2824      706F6C61 
 2824      72697479 
 2825              	.LASF194:
 2826 02ed 63686970 		.ascii	"chip_select_polarity1\000"
 2826      5F73656C 
 2826      6563745F 
 2826      706F6C61 
 2826      72697479 
 2827              	.LASF120:
 2828 0303 636F6E74 		.ascii	"control\000"
 2828      726F6C00 
 2829              	.LASF10:
 2830 030b 5F5F7569 		.ascii	"__uint32_t\000"
 2830      6E743332 
 2830      5F7400
 2831              	.LASF49:
 2832 0316 72656761 		.ascii	"regarm_t\000"
 2832      726D5F74 
 2832      00
 2833              	.LASF55:
ARM GAS  /var/folders/3j/4xdnk5197cv_b7cw3n33qk7r0000gn/T//cc30F6PF.s 			page 53


 2834 031f 76745F70 		.ascii	"vt_prev\000"
 2834      72657600 
 2835              	.LASF123:
 2836 0327 736C6176 		.ascii	"slaveAddress\000"
 2836      65416464 
 2836      72657373 
 2836      00
 2837              	.LASF207:
 2838 0334 49727148 		.ascii	"IrqHandler\000"
 2838      616E646C 
 2838      657200
 2839              	.LASF188:
 2840 033f 73706963 		.ascii	"spicallback_t\000"
 2840      616C6C62 
 2840      61636B5F 
 2840      7400
 2841              	.LASF164:
 2842 034d 49324330 		.ascii	"I2C0\000"
 2842      00
 2843              	.LASF79:
 2844 0352 4576656E 		.ascii	"EventSource\000"
 2844      74536F75 
 2844      72636500 
 2845              	.LASF0:
 2846 035e 756E7369 		.ascii	"unsigned int\000"
 2846      676E6564 
 2846      20696E74 
 2846      00
 2847              	.LASF54:
 2848 036b 76745F6E 		.ascii	"vt_next\000"
 2848      65787400 
 2849              	.LASF154:
 2850 0373 74786275 		.ascii	"txbuf\000"
 2850      6600
 2851              	.LASF173:
 2852 0379 53657269 		.ascii	"SerialDriverVMT\000"
 2852      616C4472 
 2852      69766572 
 2852      564D5400 
 2853              	.LASF149:
 2854 0389 6572726F 		.ascii	"errors\000"
 2854      727300
 2855              	.LASF210:
 2856 0390 63685379 		.ascii	"chSysTimerHandlerI\000"
 2856      7354696D 
 2856      65724861 
 2856      6E646C65 
 2856      724900
 2857              	.LASF171:
 2858 03a3 69717565 		.ascii	"iqueue\000"
 2858      756500
 2859              	.LASF11:
 2860 03aa 6C6F6E67 		.ascii	"long unsigned int\000"
 2860      20756E73 
 2860      69676E65 
 2860      6420696E 
 2860      7400
ARM GAS  /var/folders/3j/4xdnk5197cv_b7cw3n33qk7r0000gn/T//cc30F6PF.s 			page 54


 2861              	.LASF105:
 2862 03bc 63685F64 		.ascii	"ch_debug\000"
 2862      65627567 
 2862      00
 2863              	.LASF205:
 2864 03c5 74696D65 		.ascii	"timeout\000"
 2864      6F757400 
 2865              	.LASF177:
 2866 03cd 67657474 		.ascii	"gett\000"
 2866      00
 2867              	.LASF52:
 2868 03d2 76746675 		.ascii	"vtfunc_t\000"
 2868      6E635F74 
 2868      00
 2869              	.LASF86:
 2870 03db 63685F69 		.ascii	"ch_identifier\000"
 2870      64656E74 
 2870      69666965 
 2870      7200
 2871              	.LASF192:
 2872 03e9 63686970 		.ascii	"chip_select_polarity\000"
 2872      5F73656C 
 2872      6563745F 
 2872      706F6C61 
 2872      72697479 
 2873              	.LASF170:
 2874 03fe 6576656E 		.ascii	"event\000"
 2874      7400
 2875              	.LASF51:
 2876 0404 636F6E74 		.ascii	"context\000"
 2876      65787400 
 2877              	.LASF7:
 2878 040c 73686F72 		.ascii	"short unsigned int\000"
 2878      7420756E 
 2878      7369676E 
 2878      65642069 
 2878      6E7400
 2879              	.LASF134:
 2880 041f 6770696F 		.ascii	"gpio_port_t\000"
 2880      5F706F72 
 2880      745F7400 
 2881              	.LASF130:
 2882 042b 6770636C 		.ascii	"gpclr\000"
 2882      7200
 2883              	.LASF23:
 2884 0431 6D73675F 		.ascii	"msg_t\000"
 2884      7400
 2885              	.LASF172:
 2886 0437 6F717565 		.ascii	"oqueue\000"
 2886      756500
 2887              	.LASF64:
 2888 043e 725F6E65 		.ascii	"r_newer\000"
 2888      77657200 
 2889              	.LASF75:
 2890 0446 656C5F6E 		.ascii	"el_next\000"
 2890      65787400 
 2891              	.LASF178:
ARM GAS  /var/folders/3j/4xdnk5197cv_b7cw3n33qk7r0000gn/T//cc30F6PF.s 			page 55


 2892 044e 77726974 		.ascii	"writet\000"
 2892      657400
 2893              	.LASF18:
 2894 0455 746D6F64 		.ascii	"tmode_t\000"
 2894      655F7400 
 2895              	.LASF47:
 2896 045d 54687265 		.ascii	"ThreadsList\000"
 2896      6164734C 
 2896      69737400 
 2897              	.LASF24:
 2898 0469 6576656E 		.ascii	"eventmask_t\000"
 2898      746D6173 
 2898      6B5F7400 
 2899              	.LASF116:
 2900 0475 496E7075 		.ascii	"InputQueue\000"
 2900      74517565 
 2900      756500
 2901              	.LASF70:
 2902 0480 4D757465 		.ascii	"Mutex\000"
 2902      7800
 2903              	.LASF143:
 2904 0486 4932435F 		.ascii	"I2C_ACTIVE_RX\000"
 2904      41435449 
 2904      56455F52 
 2904      5800
 2905              	.LASF106:
 2906 0494 47656E65 		.ascii	"GenericQueue\000"
 2906      72696351 
 2906      75657565 
 2906      00
 2907              	.LASF48:
 2908 04a1 73746B61 		.ascii	"stkalign_t\000"
 2908      6C69676E 
 2908      5F7400
 2909              	.LASF87:
 2910 04ac 63685F7A 		.ascii	"ch_zero\000"
 2910      65726F00 
 2911              	.LASF101:
 2912 04b4 63665F6F 		.ascii	"cf_off_refs\000"
 2912      66665F72 
 2912      65667300 
 2913              	.LASF131:
 2914 04c0 67706C65 		.ascii	"gplev\000"
 2914      7600
 2915              	.LASF201:
 2916 04c6 706D5F77 		.ascii	"pm_wdog\000"
 2916      646F6700 
 2917              	.LASF176:
 2918 04ce 70757474 		.ascii	"putt\000"
 2918      00
 2919              	.LASF56:
 2920 04d3 76745F74 		.ascii	"vt_time\000"
 2920      696D6500 
 2921              	.LASF140:
 2922 04db 4932435F 		.ascii	"I2C_STOP\000"
 2922      53544F50 
 2922      00
ARM GAS  /var/folders/3j/4xdnk5197cv_b7cw3n33qk7r0000gn/T//cc30F6PF.s 			page 56


 2923              	.LASF125:
 2924 04e4 636C6F63 		.ascii	"clockDivider\000"
 2924      6B446976 
 2924      69646572 
 2924      00
 2925              	.LASF108:
 2926 04f1 715F636F 		.ascii	"q_counter\000"
 2926      756E7465 
 2926      7200
 2927              	.LASF57:
 2928 04fb 76745F66 		.ascii	"vt_func\000"
 2928      756E6300 
 2929              	.LASF91:
 2930 0503 63685F74 		.ascii	"ch_timesize\000"
 2930      696D6573 
 2930      697A6500 
 2931              	.LASF218:
 2932 050f 77617463 		.ascii	"watchdog_stop\000"
 2932      68646F67 
 2932      5F73746F 
 2932      7000
 2933              	.LASF162:
 2934 051d 69635F73 		.ascii	"ic_speed\000"
 2934      70656564 
 2934      00
 2935              	.LASF97:
 2936 0526 63665F6F 		.ascii	"cf_off_name\000"
 2936      66665F6E 
 2936      616D6500 
 2937              	.LASF206:
 2938 0532 636F6D70 		.ascii	"compare\000"
 2938      61726500 
 2939              	.LASF33:
 2940 053a 705F6F6C 		.ascii	"p_older\000"
 2940      64657200 
 2941              	.LASF158:
 2942 0542 72786279 		.ascii	"rxbytes\000"
 2942      74657300 
 2943              	.LASF111:
 2944 054a 715F7772 		.ascii	"q_wrptr\000"
 2944      70747200 
 2945              	.LASF63:
 2946 0552 725F6374 		.ascii	"r_ctx\000"
 2946      7800
 2947              	.LASF46:
 2948 0558 54687265 		.ascii	"ThreadsQueue\000"
 2948      61647351 
 2948      75657565 
 2948      00
 2949              	.LASF88:
 2950 0565 63685F73 		.ascii	"ch_size\000"
 2950      697A6500 
 2951              	.LASF136:
 2952 056d 494F504F 		.ascii	"IOPORT0\000"
 2952      52543000 
 2953              	.LASF66:
 2954 0575 725F6375 		.ascii	"r_current\000"
ARM GAS  /var/folders/3j/4xdnk5197cv_b7cw3n33qk7r0000gn/T//cc30F6PF.s 			page 57


 2954      7272656E 
 2954      7400
 2955              	.LASF65:
 2956 057f 725F6F6C 		.ascii	"r_older\000"
 2956      64657200 
 2957              	.LASF77:
 2958 0587 656C5F6D 		.ascii	"el_mask\000"
 2958      61736B00 
 2959              	.LASF129:
 2960 058f 67707365 		.ascii	"gpset\000"
 2960      7400
 2961              	.LASF132:
 2962 0595 67707075 		.ascii	"gppudclk\000"
 2962      64636C6B 
 2962      00
 2963              	.LASF190:
 2964 059e 6C6F7373 		.ascii	"lossiEnabled\000"
 2964      69456E61 
 2964      626C6564 
 2964      00
 2965              	.LASF191:
 2966 05ab 63686970 		.ascii	"chip_select\000"
 2966      5F73656C 
 2966      65637400 
 2967              	.LASF20:
 2968 05b7 74726566 		.ascii	"trefs_t\000"
 2968      735F7400 
 2969              	.LASF145:
 2970 05bf 69326373 		.ascii	"i2cstate_t\000"
 2970      74617465 
 2970      5F7400
 2971              	.LASF90:
 2972 05ca 63685F70 		.ascii	"ch_ptrsize\000"
 2972      74727369 
 2972      7A6500
 2973              	.LASF115:
 2974 05d5 716E6F74 		.ascii	"qnotify_t\000"
 2974      6966795F 
 2974      7400
 2975              	.LASF29:
 2976 05df 705F7072 		.ascii	"p_prev\000"
 2976      657600
 2977              	.LASF22:
 2978 05e6 74707269 		.ascii	"tprio_t\000"
 2978      6F5F7400 
 2979              	.LASF112:
 2980 05ee 715F7264 		.ascii	"q_rdptr\000"
 2980      70747200 
 2981              	.LASF160:
 2982 05f6 69326366 		.ascii	"i2cflags_t\000"
 2982      6C616773 
 2982      5F7400
 2983              	.LASF151:
 2984 0601 6D757465 		.ascii	"mutex\000"
 2984      7800
 2985              	.LASF16:
 2986 0607 696E7433 		.ascii	"int32_t\000"
ARM GAS  /var/folders/3j/4xdnk5197cv_b7cw3n33qk7r0000gn/T//cc30F6PF.s 			page 58


 2986      325F7400 
 2987              	.LASF4:
 2988 060f 756E7369 		.ascii	"unsigned char\000"
 2988      676E6564 
 2988      20636861 
 2988      7200
 2989              	.LASF76:
 2990 061d 656C5F6C 		.ascii	"el_listener\000"
 2990      69737465 
 2990      6E657200 
 2991              	.LASF216:
 2992 0629 2F557365 		.ascii	"/Users/kevinmalmsten/development_raspberry_pi/Chibi"
 2992      72732F6B 
 2992      6576696E 
 2992      6D616C6D 
 2992      7374656E 
 2993 065c 4F532D42 		.ascii	"OS-Backup/__Backup_System\000"
 2993      61636B75 
 2993      702F5F5F 
 2993      4261636B 
 2993      75705F53 
 2994              	.LASF78:
 2995 0676 656C5F66 		.ascii	"el_flags\000"
 2995      6C616773 
 2995      00
 2996              	.LASF44:
 2997 067f 705F6D74 		.ascii	"p_mtxlist\000"
 2997      786C6973 
 2997      7400
 2998              	.LASF5:
 2999 0689 73686F72 		.ascii	"short int\000"
 2999      7420696E 
 2999      7400
 3000              	.LASF35:
 3001 0693 705F7374 		.ascii	"p_state\000"
 3001      61746500 
 3002              	.LASF38:
 3003 069b 705F7072 		.ascii	"p_preempt\000"
 3003      65656D70 
 3003      7400
 3004              	.LASF103:
 3005 06a5 63665F6F 		.ascii	"cf_off_time\000"
 3005      66665F74 
 3005      696D6500 
 3006              	.LASF62:
 3007 06b1 725F7072 		.ascii	"r_prio\000"
 3007      696F00
 3008              	.LASF133:
 3009 06b8 70696E5F 		.ascii	"pin_base\000"
 3009      62617365 
 3009      00
 3010              	.LASF84:
 3011 06c1 65776D61 		.ascii	"ewmask\000"
 3011      736B00
 3012              	.LASF28:
 3013 06c8 705F6E65 		.ascii	"p_next\000"
 3013      787400
ARM GAS  /var/folders/3j/4xdnk5197cv_b7cw3n33qk7r0000gn/T//cc30F6PF.s 			page 59


 3014              	.LASF137:
 3015 06cf 494F504F 		.ascii	"IOPORT1\000"
 3015      52543100 
 3016              	.LASF102:
 3017 06d7 63665F6F 		.ascii	"cf_off_preempt\000"
 3017      66665F70 
 3017      7265656D 
 3017      707400
 3018              	.LASF36:
 3019 06e6 705F666C 		.ascii	"p_flags\000"
 3019      61677300 
 3020              	.LASF27:
 3021 06ee 54687265 		.ascii	"Thread\000"
 3021      616400
 3022              	.LASF197:
 3023 06f5 636C6F63 		.ascii	"clock_divider\000"
 3023      6B5F6469 
 3023      76696465 
 3023      7200
 3024              	.LASF95:
 3025 0703 63665F6F 		.ascii	"cf_off_newer\000"
 3025      66665F6E 
 3025      65776572 
 3025      00
 3026              	.LASF144:
 3027 0710 4932435F 		.ascii	"I2C_LOCKED\000"
 3027      4C4F434B 
 3027      454400
 3028              	.LASF217:
 3029 071b 77617463 		.ascii	"watchdog_get_remaining\000"
 3029      68646F67 
 3029      5F676574 
 3029      5F72656D 
 3029      61696E69 
 3030              	.LASF43:
 3031 0732 705F6570 		.ascii	"p_epending\000"
 3031      656E6469 
 3031      6E6700
 3032              	.LASF165:
 3033 073d 53445F55 		.ascii	"SD_UNINIT\000"
 3033      4E494E49 
 3033      5400
 3034              	.LASF17:
 3035 0747 75696E74 		.ascii	"uint32_t\000"
 3035      33325F74 
 3035      00
 3036              	.LASF93:
 3037 0750 63665F6F 		.ascii	"cf_off_prio\000"
 3037      66665F70 
 3037      72696F00 
 3038              	.LASF61:
 3039 075c 725F7175 		.ascii	"r_queue\000"
 3039      65756500 
 3040              	.LASF53:
 3041 0764 56697274 		.ascii	"VirtualTimer\000"
 3041      75616C54 
 3041      696D6572 
ARM GAS  /var/folders/3j/4xdnk5197cv_b7cw3n33qk7r0000gn/T//cc30F6PF.s 			page 60


 3041      00
 3042              	.LASF202:
 3043 0771 77617463 		.ascii	"watchdog_start\000"
 3043      68646F67 
 3043      5F737461 
 3043      727400
 3044              	.LASF169:
 3045 0780 53657269 		.ascii	"SerialDriver\000"
 3045      616C4472 
 3045      69766572 
 3045      00
 3046              	.LASF21:
 3047 078d 74736C69 		.ascii	"tslices_t\000"
 3047      6365735F 
 3047      7400
 3048              	.LASF175:
 3049 0797 72656164 		.ascii	"read\000"
 3049      00
 3050              	.LASF85:
 3051 079c 63686172 		.ascii	"char\000"
 3051      00
 3052              	.LASF184:
 3053 07a1 5350495F 		.ascii	"SPI_COMPLETE\000"
 3053      434F4D50 
 3053      4C455445 
 3053      00
 3054              	.LASF148:
 3055 07ae 636F6E66 		.ascii	"config\000"
 3055      696700
 3056              	.LASF6:
 3057 07b5 5F5F7569 		.ascii	"__uint16_t\000"
 3057      6E743136 
 3057      5F7400
 3058              	.LASF185:
 3059 07c0 73706973 		.ascii	"spistate_t\000"
 3059      74617465 
 3059      5F7400
 3060              	.LASF73:
 3061 07cb 6D5F6E65 		.ascii	"m_next\000"
 3061      787400
 3062              	.LASF26:
 3063 07d2 73797374 		.ascii	"systime_t\000"
 3063      696D655F 
 3063      7400
 3064              	.LASF45:
 3065 07dc 705F7265 		.ascii	"p_realprio\000"
 3065      616C7072 
 3065      696F00
 3066              	.LASF8:
 3067 07e7 5F5F696E 		.ascii	"__int32_t\000"
 3067      7433325F 
 3067      7400
 3068              	.LASF141:
 3069 07f1 4932435F 		.ascii	"I2C_READY\000"
 3069      52454144 
 3069      5900
 3070              	.LASF146:
ARM GAS  /var/folders/3j/4xdnk5197cv_b7cw3n33qk7r0000gn/T//cc30F6PF.s 			page 61


 3071 07fb 49324344 		.ascii	"I2CDriver\000"
 3071      72697665 
 3071      7200
 3072              	.LASF209:
 3073 0805 73797374 		.ascii	"systimer_init\000"
 3073      696D6572 
 3073      5F696E69 
 3073      7400
 3074              	.LASF39:
 3075 0813 705F7469 		.ascii	"p_time\000"
 3075      6D6500
 3076              	.LASF195:
 3077 081a 636C6F63 		.ascii	"clock_polarity\000"
 3077      6B5F706F 
 3077      6C617269 
 3077      747900
 3078              	.LASF203:
 3079 0829 68616C5F 		.ascii	"hal_lld_init\000"
 3079      6C6C645F 
 3079      696E6974 
 3079      00
 3080              	.LASF50:
 3081 0836 696E7463 		.ascii	"intctx\000"
 3081      747800
 3082              	.LASF41:
 3083 083d 705F6D73 		.ascii	"p_msgqueue\000"
 3083      67717565 
 3083      756500
 3084              	.LASF167:
 3085 0848 53445F52 		.ascii	"SD_READY\000"
 3085      45414459 
 3085      00
 3086              	.LASF182:
 3087 0851 5350495F 		.ascii	"SPI_READY\000"
 3087      52454144 
 3087      5900
 3088              	.LASF180:
 3089 085b 5350495F 		.ascii	"SPI_UNINIT\000"
 3089      554E494E 
 3089      495400
 3090              	.LASF58:
 3091 0866 76745F70 		.ascii	"vt_par\000"
 3091      617200
 3092              	.LASF25:
 3093 086d 666C6167 		.ascii	"flagsmask_t\000"
 3093      736D6173 
 3093      6B5F7400 
 3094              	.LASF163:
 3095 0879 49324343 		.ascii	"I2CConfig\000"
 3095      6F6E6669 
 3095      6700
 3096              	.LASF168:
 3097 0883 73647374 		.ascii	"sdstate_t\000"
 3097      6174655F 
 3097      7400
 3098              	.LASF156:
 3099 088d 74786964 		.ascii	"txidx\000"
ARM GAS  /var/folders/3j/4xdnk5197cv_b7cw3n33qk7r0000gn/T//cc30F6PF.s 			page 62


 3099      7800
 3100              	.LASF94:
 3101 0893 63665F6F 		.ascii	"cf_off_ctx\000"
 3101      66665F63 
 3101      747800
 3102              	.LASF37:
 3103 089e 705F7265 		.ascii	"p_refs\000"
 3103      667300
 3104              	.LASF121:
 3105 08a5 73746174 		.ascii	"status\000"
 3105      757300
 3106              	.LASF67:
 3107 08ac 52656164 		.ascii	"ReadyList\000"
 3107      794C6973 
 3107      7400
 3108              	.LASF113:
 3109 08b6 715F6E6F 		.ascii	"q_notify\000"
 3109      74696679 
 3109      00
 3110              	.LASF69:
 3111 08bf 726C6973 		.ascii	"rlist\000"
 3111      7400
 3112              	.LASF14:
 3113 08c5 75696E74 		.ascii	"uint8_t\000"
 3113      385F7400 
 3114              	.LASF128:
 3115 08cd 6C617463 		.ascii	"latch\000"
 3115      6800
 3116              	.LASF213:
 3117 08d3 7370695F 		.ascii	"spi_lld_serve_interrupt\000"
 3117      6C6C645F 
 3117      73657276 
 3117      655F696E 
 3117      74657272 
 3118              	.LASF74:
 3119 08eb 4576656E 		.ascii	"EventListener\000"
 3119      744C6973 
 3119      74656E65 
 3119      7200
 3120              	.LASF83:
 3121 08f9 77746F62 		.ascii	"wtobjp\000"
 3121      6A7000
 3122              	.LASF34:
 3123 0900 705F6E61 		.ascii	"p_name\000"
 3123      6D6500
 3124              	.LASF59:
 3125 0907 76745F73 		.ascii	"vt_systime\000"
 3125      79737469 
 3125      6D6500
 3126              	.LASF80:
 3127 0912 65735F6E 		.ascii	"es_next\000"
 3127      65787400 
 3128              	.LASF198:
 3129 091a 53504943 		.ascii	"SPIConfig\000"
 3129      6F6E6669 
 3129      6700
 3130              	.LASF211:
ARM GAS  /var/folders/3j/4xdnk5197cv_b7cw3n33qk7r0000gn/T//cc30F6PF.s 			page 63


 3131 0924 73645F6C 		.ascii	"sd_lld_serve_interrupt\000"
 3131      6C645F73 
 3131      65727665 
 3131      5F696E74 
 3131      65727275 
 3132              	.LASF89:
 3133 093b 63685F76 		.ascii	"ch_version\000"
 3133      65727369 
 3133      6F6E00
 3134              	.LASF122:
 3135 0946 64617461 		.ascii	"dataLength\000"
 3135      4C656E67 
 3135      746800
 3136              	.LASF60:
 3137 0951 56544C69 		.ascii	"VTList\000"
 3137      737400
 3138              	.LASF204:
 3139 0958 64656C61 		.ascii	"delayMicroseconds\000"
 3139      794D6963 
 3139      726F7365 
 3139      636F6E64 
 3139      7300
 3140              	.LASF114:
 3141 096a 715F6C69 		.ascii	"q_link\000"
 3141      6E6B00
 3142              	.LASF200:
 3143 0971 706D5F72 		.ascii	"pm_rstc\000"
 3143      73746300 
 3144              	.LASF135:
 3145 0979 50414C43 		.ascii	"PALConfig\000"
 3145      6F6E6669 
 3145      6700
 3146              	.LASF72:
 3147 0983 6D5F6F77 		.ascii	"m_owner\000"
 3147      6E657200 
 3148              	.LASF138:
 3149 098b 70616C5F 		.ascii	"pal_default_config\000"
 3149      64656661 
 3149      756C745F 
 3149      636F6E66 
 3149      696700
 3150              	.LASF31:
 3151 099e 705F6374 		.ascii	"p_ctx\000"
 3151      7800
 3152              	.LASF40:
 3153 09a4 705F7761 		.ascii	"p_waiting\000"
 3153      6974696E 
 3153      6700
 3154              	.LASF155:
 3155 09ae 74786279 		.ascii	"txbytes\000"
 3155      74657300 
 3156              	.LASF127:
 3157 09b6 636C6F63 		.ascii	"clockStretchTimeout\000"
 3157      6B537472 
 3157      65746368 
 3157      54696D65 
 3157      6F757400 
ARM GAS  /var/folders/3j/4xdnk5197cv_b7cw3n33qk7r0000gn/T//cc30F6PF.s 			page 64


 3158              		.ident	"GCC: (GNU Tools for Arm Embedded Processors 7-2018-q2-update) 7.3.1 20180622 (release) [AR
ARM GAS  /var/folders/3j/4xdnk5197cv_b7cw3n33qk7r0000gn/T//cc30F6PF.s 			page 65


DEFINED SYMBOLS
                            *ABS*:0000000000000000 hal_lld.c
/var/folders/3j/4xdnk5197cv_b7cw3n33qk7r0000gn/T//cc30F6PF.s:16     .text.IrqHandler:0000000000000000 $a
/var/folders/3j/4xdnk5197cv_b7cw3n33qk7r0000gn/T//cc30F6PF.s:22     .text.IrqHandler:0000000000000000 IrqHandler
/var/folders/3j/4xdnk5197cv_b7cw3n33qk7r0000gn/T//cc30F6PF.s:77     .text.IrqHandler:0000000000000030 $d
/var/folders/3j/4xdnk5197cv_b7cw3n33qk7r0000gn/T//cc30F6PF.s:85     .text.delayMicroseconds:0000000000000000 $a
/var/folders/3j/4xdnk5197cv_b7cw3n33qk7r0000gn/T//cc30F6PF.s:91     .text.delayMicroseconds:0000000000000000 delayMicroseconds
/var/folders/3j/4xdnk5197cv_b7cw3n33qk7r0000gn/T//cc30F6PF.s:116    .text.delayMicroseconds:0000000000000020 $d
/var/folders/3j/4xdnk5197cv_b7cw3n33qk7r0000gn/T//cc30F6PF.s:121    .text.hal_lld_init:0000000000000000 $a
/var/folders/3j/4xdnk5197cv_b7cw3n33qk7r0000gn/T//cc30F6PF.s:127    .text.hal_lld_init:0000000000000000 hal_lld_init
/var/folders/3j/4xdnk5197cv_b7cw3n33qk7r0000gn/T//cc30F6PF.s:173    .text.hal_lld_init:0000000000000044 $d
/var/folders/3j/4xdnk5197cv_b7cw3n33qk7r0000gn/T//cc30F6PF.s:180    .text.watchdog_start:0000000000000000 $a
/var/folders/3j/4xdnk5197cv_b7cw3n33qk7r0000gn/T//cc30F6PF.s:186    .text.watchdog_start:0000000000000000 watchdog_start
/var/folders/3j/4xdnk5197cv_b7cw3n33qk7r0000gn/T//cc30F6PF.s:224    .text.watchdog_start:0000000000000030 $d
/var/folders/3j/4xdnk5197cv_b7cw3n33qk7r0000gn/T//cc30F6PF.s:229    .text.watchdog_stop:0000000000000000 $a
/var/folders/3j/4xdnk5197cv_b7cw3n33qk7r0000gn/T//cc30F6PF.s:235    .text.watchdog_stop:0000000000000000 watchdog_stop
/var/folders/3j/4xdnk5197cv_b7cw3n33qk7r0000gn/T//cc30F6PF.s:251    .text.watchdog_stop:0000000000000010 $d
/var/folders/3j/4xdnk5197cv_b7cw3n33qk7r0000gn/T//cc30F6PF.s:257    .text.watchdog_get_remaining:0000000000000000 $a
/var/folders/3j/4xdnk5197cv_b7cw3n33qk7r0000gn/T//cc30F6PF.s:263    .text.watchdog_get_remaining:0000000000000000 watchdog_get_remaining
/var/folders/3j/4xdnk5197cv_b7cw3n33qk7r0000gn/T//cc30F6PF.s:280    .text.watchdog_get_remaining:0000000000000014 $d

UNDEFINED SYMBOLS
chSysTimerHandlerI
sd_lld_serve_interrupt
i2c_lld_serve_interrupt
spi_lld_serve_interrupt
_port_irq_common
SD1
I2C0
SPI0
