ARM GAS  /var/folders/3j/4xdnk5197cv_b7cw3n33qk7r0000gn/T//cceqryy0.s 			page 1


   1              		.cpu arm1176jz-s
   2              		.eabi_attribute 20, 1
   3              		.eabi_attribute 21, 1
   4              		.eabi_attribute 23, 3
   5              		.eabi_attribute 24, 1
   6              		.eabi_attribute 25, 1
   7              		.eabi_attribute 26, 1
   8              		.eabi_attribute 30, 2
   9              		.eabi_attribute 34, 1
  10              		.eabi_attribute 18, 4
  11              		.file	"i2c.c"
  12              		.text
  13              	.Ltext0:
  14              		.cfi_sections	.debug_frame
  15              		.section	.text.i2cInit,"ax",%progbits
  16              		.align	2
  17              		.global	i2cInit
  18              		.syntax unified
  19              		.arm
  20              		.fpu softvfp
  21              		.type	i2cInit, %function
  22              	i2cInit:
  23              	.LFB7:
  24              		.file 1 "..//os/hal/src/i2c.c"
  25              		.loc 1 64 0
  26              		.cfi_startproc
  27              		@ args = 0, pretend = 0, frame = 0
  28              		@ frame_needed = 0, uses_anonymous_args = 0
  29              		@ link register save eliminated.
  30              		.loc 1 65 0
  31 0000 FEFFFFEA 		b	i2c_lld_init
  32              	.LVL0:
  33              		.cfi_endproc
  34              	.LFE7:
  35              		.size	i2cInit, .-i2cInit
  36              		.section	.text.i2cObjectInit,"ax",%progbits
  37              		.align	2
  38              		.global	i2cObjectInit
  39              		.syntax unified
  40              		.arm
  41              		.fpu softvfp
  42              		.type	i2cObjectInit, %function
  43              	i2cObjectInit:
  44              	.LFB8:
  45              		.loc 1 75 0
  46              		.cfi_startproc
  47              		@ args = 0, pretend = 0, frame = 0
  48              		@ frame_needed = 0, uses_anonymous_args = 0
  49              		@ link register save eliminated.
  50              	.LVL1:
  51              		.loc 1 77 0
  52 0000 0120A0E3 		mov	r2, #1
  53              		.loc 1 78 0
  54 0004 0030A0E3 		mov	r3, #0
  55              		.loc 1 77 0
  56 0008 0020C0E5 		strb	r2, [r0]
  57              		.loc 1 78 0
ARM GAS  /var/folders/3j/4xdnk5197cv_b7cw3n33qk7r0000gn/T//cceqryy0.s 			page 2


  58 000c 043080E5 		str	r3, [r0, #4]
  59              		.loc 1 82 0
  60 0010 100080E2 		add	r0, r0, #16
  61              	.LVL2:
  62 0014 FEFFFFEA 		b	chMtxInit
  63              	.LVL3:
  64              		.cfi_endproc
  65              	.LFE8:
  66              		.size	i2cObjectInit, .-i2cObjectInit
  67              		.section	.text.i2cStart,"ax",%progbits
  68              		.align	2
  69              		.global	i2cStart
  70              		.syntax unified
  71              		.arm
  72              		.fpu softvfp
  73              		.type	i2cStart, %function
  74              	i2cStart:
  75              	.LFB9:
  76              		.loc 1 101 0
  77              		.cfi_startproc
  78              		@ args = 0, pretend = 0, frame = 0
  79              		@ frame_needed = 0, uses_anonymous_args = 0
  80              	.LVL4:
  81 0000 10402DE9 		push	{r4, lr}
  82              		.cfi_def_cfa_offset 8
  83              		.cfi_offset 4, -8
  84              		.cfi_offset 14, -4
  85              		.loc 1 101 0
  86 0004 0040A0E1 		mov	r4, r0
  87              		.loc 1 109 0
  88              		.syntax divided
  89              	@ 109 "..//os/hal/src/i2c.c" 1
  90 0008 9FF021E3 		msr     CPSR_c, #0x9F
  91              	@ 0 "" 2
  92              		.loc 1 110 0
  93              		.arm
  94              		.syntax unified
  95 000c 041080E5 		str	r1, [r0, #4]
  96              		.loc 1 111 0
  97 0010 FEFFFFEB 		bl	i2c_lld_start
  98              	.LVL5:
  99              		.loc 1 112 0
 100 0014 0230A0E3 		mov	r3, #2
 101 0018 0030C4E5 		strb	r3, [r4]
 102              		.loc 1 113 0
 103              		.syntax divided
 104              	@ 113 "..//os/hal/src/i2c.c" 1
 105 001c 1FF021E3 		msr     CPSR_c, #0x1F
 106              	@ 0 "" 2
 107              		.loc 1 114 0
 108              		.arm
 109              		.syntax unified
 110 0020 1080BDE8 		pop	{r4, pc}
 111              		.cfi_endproc
 112              	.LFE9:
 113              		.size	i2cStart, .-i2cStart
 114              		.section	.text.i2cStop,"ax",%progbits
ARM GAS  /var/folders/3j/4xdnk5197cv_b7cw3n33qk7r0000gn/T//cceqryy0.s 			page 3


 115              		.align	2
 116              		.global	i2cStop
 117              		.syntax unified
 118              		.arm
 119              		.fpu softvfp
 120              		.type	i2cStop, %function
 121              	i2cStop:
 122              	.LFB10:
 123              		.loc 1 123 0
 124              		.cfi_startproc
 125              		@ args = 0, pretend = 0, frame = 0
 126              		@ frame_needed = 0, uses_anonymous_args = 0
 127              	.LVL6:
 128 0000 10402DE9 		push	{r4, lr}
 129              		.cfi_def_cfa_offset 8
 130              		.cfi_offset 4, -8
 131              		.cfi_offset 14, -4
 132              		.loc 1 123 0
 133 0004 0040A0E1 		mov	r4, r0
 134              		.loc 1 131 0
 135              		.syntax divided
 136              	@ 131 "..//os/hal/src/i2c.c" 1
 137 0008 9FF021E3 		msr     CPSR_c, #0x9F
 138              	@ 0 "" 2
 139              		.loc 1 132 0
 140              		.arm
 141              		.syntax unified
 142 000c FEFFFFEB 		bl	i2c_lld_stop
 143              	.LVL7:
 144              		.loc 1 133 0
 145 0010 0130A0E3 		mov	r3, #1
 146 0014 0030C4E5 		strb	r3, [r4]
 147              		.loc 1 134 0
 148              		.syntax divided
 149              	@ 134 "..//os/hal/src/i2c.c" 1
 150 0018 1FF021E3 		msr     CPSR_c, #0x1F
 151              	@ 0 "" 2
 152              		.loc 1 135 0
 153              		.arm
 154              		.syntax unified
 155 001c 1080BDE8 		pop	{r4, pc}
 156              		.cfi_endproc
 157              	.LFE10:
 158              		.size	i2cStop, .-i2cStop
 159              		.section	.text.i2cGetErrors,"ax",%progbits
 160              		.align	2
 161              		.global	i2cGetErrors
 162              		.syntax unified
 163              		.arm
 164              		.fpu softvfp
 165              		.type	i2cGetErrors, %function
 166              	i2cGetErrors:
 167              	.LFB11:
 168              		.loc 1 145 0
 169              		.cfi_startproc
 170              		@ args = 0, pretend = 0, frame = 0
 171              		@ frame_needed = 0, uses_anonymous_args = 0
ARM GAS  /var/folders/3j/4xdnk5197cv_b7cw3n33qk7r0000gn/T//cceqryy0.s 			page 4


 172              		@ link register save eliminated.
 173              	.LVL8:
 174              		.loc 1 150 0
 175 0000 080090E5 		ldr	r0, [r0, #8]
 176              	.LVL9:
 177 0004 1EFF2FE1 		bx	lr
 178              		.cfi_endproc
 179              	.LFE11:
 180              		.size	i2cGetErrors, .-i2cGetErrors
 181              		.section	.text.i2cMasterTransmitTimeout,"ax",%progbits
 182              		.align	2
 183              		.global	i2cMasterTransmitTimeout
 184              		.syntax unified
 185              		.arm
 186              		.fpu softvfp
 187              		.type	i2cMasterTransmitTimeout, %function
 188              	i2cMasterTransmitTimeout:
 189              	.LFB12:
 190              		.loc 1 184 0
 191              		.cfi_startproc
 192              		@ args = 12, pretend = 0, frame = 0
 193              		@ frame_needed = 0, uses_anonymous_args = 0
 194              	.LVL10:
 195 0000 70402DE9 		push	{r4, r5, r6, lr}
 196              		.cfi_def_cfa_offset 16
 197              		.cfi_offset 4, -16
 198              		.cfi_offset 5, -12
 199              		.cfi_offset 6, -8
 200              		.cfi_offset 14, -4
 201 0004 10D04DE2 		sub	sp, sp, #16
 202              		.cfi_def_cfa_offset 32
 203              		.loc 1 184 0
 204 0008 0040A0E1 		mov	r4, r0
 205 000c 20C09DE5 		ldr	ip, [sp, #32]
 206 0010 28609DE5 		ldr	r6, [sp, #40]
 207              		.loc 1 196 0
 208              		.syntax divided
 209              	@ 196 "..//os/hal/src/i2c.c" 1
 210 0014 9FF021E3 		msr     CPSR_c, #0x9F
 211              	@ 0 "" 2
 212              		.loc 1 198 0
 213              		.arm
 214              		.syntax unified
 215 0018 03E0A0E3 		mov	lr, #3
 216              		.loc 1 197 0
 217 001c 0050A0E3 		mov	r5, #0
 218              		.loc 1 199 0
 219 0020 00C08DE5 		str	ip, [sp]
 220 0024 24C09DE5 		ldr	ip, [sp, #36]
 221 0028 08608DE5 		str	r6, [sp, #8]
 222 002c 7CC0EFE6 		uxtb	ip, ip
 223              		.loc 1 197 0
 224 0030 085080E5 		str	r5, [r0, #8]
 225              		.loc 1 198 0
 226 0034 00E0C0E5 		strb	lr, [r0]
 227              		.loc 1 199 0
 228 0038 04C08DE5 		str	ip, [sp, #4]
ARM GAS  /var/folders/3j/4xdnk5197cv_b7cw3n33qk7r0000gn/T//cceqryy0.s 			page 5


 229 003c FEFFFFEB 		bl	i2c_lld_master_transmit_timeout
 230              	.LVL11:
 231              		.loc 1 201 0
 232 0040 010070E3 		cmn	r0, #1
 233              		.loc 1 202 0
 234 0044 0530A003 		moveq	r3, #5
 235              		.loc 1 204 0
 236 0048 0230A013 		movne	r3, #2
 237 004c 0030C4E5 		strb	r3, [r4]
 238              		.loc 1 205 0
 239              		.syntax divided
 240              	@ 205 "..//os/hal/src/i2c.c" 1
 241 0050 1FF021E3 		msr     CPSR_c, #0x1F
 242              	@ 0 "" 2
 243              		.loc 1 207 0
 244              		.arm
 245              		.syntax unified
 246 0054 10D08DE2 		add	sp, sp, #16
 247              		.cfi_def_cfa_offset 16
 248              		@ sp needed
 249 0058 7080BDE8 		pop	{r4, r5, r6, pc}
 250              		.cfi_endproc
 251              	.LFE12:
 252              		.size	i2cMasterTransmitTimeout, .-i2cMasterTransmitTimeout
 253              		.section	.text.i2cMasterReceiveTimeout,"ax",%progbits
 254              		.align	2
 255              		.global	i2cMasterReceiveTimeout
 256              		.syntax unified
 257              		.arm
 258              		.fpu softvfp
 259              		.type	i2cMasterReceiveTimeout, %function
 260              	i2cMasterReceiveTimeout:
 261              	.LFB13:
 262              		.loc 1 233 0
 263              		.cfi_startproc
 264              		@ args = 4, pretend = 0, frame = 0
 265              		@ frame_needed = 0, uses_anonymous_args = 0
 266              	.LVL12:
 267 0000 30402DE9 		push	{r4, r5, lr}
 268              		.cfi_def_cfa_offset 12
 269              		.cfi_offset 4, -12
 270              		.cfi_offset 5, -8
 271              		.cfi_offset 14, -4
 272 0004 0CD04DE2 		sub	sp, sp, #12
 273              		.cfi_def_cfa_offset 24
 274              		.loc 1 233 0
 275 0008 0040A0E1 		mov	r4, r0
 276 000c 18509DE5 		ldr	r5, [sp, #24]
 277              		.loc 1 245 0
 278              		.syntax divided
 279              	@ 245 "..//os/hal/src/i2c.c" 1
 280 0010 9FF021E3 		msr     CPSR_c, #0x9F
 281              	@ 0 "" 2
 282              		.loc 1 246 0
 283              		.arm
 284              		.syntax unified
 285 0014 00E0A0E3 		mov	lr, #0
ARM GAS  /var/folders/3j/4xdnk5197cv_b7cw3n33qk7r0000gn/T//cceqryy0.s 			page 6


 286              		.loc 1 247 0
 287 0018 04C0A0E3 		mov	ip, #4
 288              		.loc 1 248 0
 289 001c 00508DE5 		str	r5, [sp]
 290              		.loc 1 246 0
 291 0020 08E080E5 		str	lr, [r0, #8]
 292              		.loc 1 247 0
 293 0024 00C0C0E5 		strb	ip, [r0]
 294              		.loc 1 248 0
 295 0028 FEFFFFEB 		bl	i2c_lld_master_receive_timeout
 296              	.LVL13:
 297              		.loc 1 249 0
 298 002c 010070E3 		cmn	r0, #1
 299              		.loc 1 250 0
 300 0030 0530A003 		moveq	r3, #5
 301              		.loc 1 252 0
 302 0034 0230A013 		movne	r3, #2
 303 0038 0030C4E5 		strb	r3, [r4]
 304              		.loc 1 253 0
 305              		.syntax divided
 306              	@ 253 "..//os/hal/src/i2c.c" 1
 307 003c 1FF021E3 		msr     CPSR_c, #0x1F
 308              	@ 0 "" 2
 309              		.loc 1 255 0
 310              		.arm
 311              		.syntax unified
 312 0040 0CD08DE2 		add	sp, sp, #12
 313              		.cfi_def_cfa_offset 12
 314              		@ sp needed
 315 0044 3080BDE8 		pop	{r4, r5, pc}
 316              		.cfi_endproc
 317              	.LFE13:
 318              		.size	i2cMasterReceiveTimeout, .-i2cMasterReceiveTimeout
 319              		.section	.text.i2cAcquireBus,"ax",%progbits
 320              		.align	2
 321              		.global	i2cAcquireBus
 322              		.syntax unified
 323              		.arm
 324              		.fpu softvfp
 325              		.type	i2cAcquireBus, %function
 326              	i2cAcquireBus:
 327              	.LFB14:
 328              		.loc 1 269 0
 329              		.cfi_startproc
 330              		@ args = 0, pretend = 0, frame = 0
 331              		@ frame_needed = 0, uses_anonymous_args = 0
 332              		@ link register save eliminated.
 333              	.LVL14:
 334              		.loc 1 274 0
 335 0000 100080E2 		add	r0, r0, #16
 336              	.LVL15:
 337 0004 FEFFFFEA 		b	chMtxLock
 338              	.LVL16:
 339              		.cfi_endproc
 340              	.LFE14:
 341              		.size	i2cAcquireBus, .-i2cAcquireBus
 342              		.section	.text.i2cReleaseBus,"ax",%progbits
ARM GAS  /var/folders/3j/4xdnk5197cv_b7cw3n33qk7r0000gn/T//cceqryy0.s 			page 7


 343              		.align	2
 344              		.global	i2cReleaseBus
 345              		.syntax unified
 346              		.arm
 347              		.fpu softvfp
 348              		.type	i2cReleaseBus, %function
 349              	i2cReleaseBus:
 350              	.LFB15:
 351              		.loc 1 289 0
 352              		.cfi_startproc
 353              		@ args = 0, pretend = 0, frame = 0
 354              		@ frame_needed = 0, uses_anonymous_args = 0
 355              		@ link register save eliminated.
 356              	.LVL17:
 357              		.loc 1 294 0
 358 0000 FEFFFFEA 		b	chMtxUnlock
 359              	.LVL18:
 360              		.cfi_endproc
 361              	.LFE15:
 362              		.size	i2cReleaseBus, .-i2cReleaseBus
 363              		.text
 364              	.Letext0:
 365              		.file 2 "/usr/local/Cellar/gcc-arm-none-eabi/20180627/lib/gcc/arm-none-eabi/7.3.1/include/stddef.h
 366              		.file 3 "/usr/local/Cellar/gcc-arm-none-eabi/20180627/arm-none-eabi/include/machine/_default_types
 367              		.file 4 "/usr/local/Cellar/gcc-arm-none-eabi/20180627/arm-none-eabi/include/sys/_stdint.h"
 368              		.file 5 "..//os/ports/GCC/ARM/chtypes.h"
 369              		.file 6 "..//os/kernel/include/chlists.h"
 370              		.file 7 "..//os/kernel/include/chthreads.h"
 371              		.file 8 "..//os/ports/GCC/ARM/chcore.h"
 372              		.file 9 "..//os/kernel/include/chvt.h"
 373              		.file 10 "..//os/kernel/include/chschd.h"
 374              		.file 11 "..//os/kernel/include/chmtx.h"
 375              		.file 12 "..//os/kernel/include/chevents.h"
 376              		.file 13 "..//os/kernel/include/chregistry.h"
 377              		.file 14 "..//os/kernel/include/chqueues.h"
 378              		.file 15 "..//os/kernel/include/ch.h"
 379              		.file 16 "..//os/hal/platforms/BCM2835/bcm2835.h"
 380              		.file 17 "..//os/hal/platforms/BCM2835/pal_lld.h"
 381              		.file 18 "..//os/hal/include/i2c.h"
 382              		.file 19 "..//os/hal/platforms/BCM2835/i2c_lld.h"
 383              		.file 20 "..//os/hal/include/serial.h"
 384              		.file 21 "..//os/hal/include/spi.h"
 385              		.file 22 "..//os/hal/platforms/BCM2835/spi_lld.h"
 386              		.file 23 "..//os/hal/platforms/BCM2835/serial_lld.h"