ARM GAS  /var/folders/3j/4xdnk5197cv_b7cw3n33qk7r0000gn/T//cceqryy0.s 			page 1


   1              		.cpu arm1176jz-s
   2              		.eabi_attribute 20, 1
   3              		.eabi_attribute 21, 1
   4              		.eabi_attribute 23, 3
   5              		.eabi_attribute 24, 1
   6              		.eabi_attribute 25, 1
   7              		.eabi_attribute 26, 1
   8              		.eabi_attribute 30, 2
   9              		.eabi_attribute 34, 1
  10              		.eabi_attribute 18, 4
  11              		.file	"i2c.c"
  12              		.text
  13              	.Ltext0:
  14              		.cfi_sections	.debug_frame
  15              		.section	.text.i2cInit,"ax",%progbits
  16              		.align	2
  17              		.global	i2cInit
  18              		.syntax unified
  19              		.arm
  20              		.fpu softvfp
  21              		.type	i2cInit, %function
  22              	i2cInit:
  23              	.LFB7:
  24              		.file 1 "..//os/hal/src/i2c.c"
  25              		.loc 1 64 0
  26              		.cfi_startproc
  27              		@ args = 0, pretend = 0, frame = 0
  28              		@ frame_needed = 0, uses_anonymous_args = 0
  29              		@ link register save eliminated.
  30              		.loc 1 65 0
  31 0000 FEFFFFEA 		b	i2c_lld_init
  32              	.LVL0:
  33              		.cfi_endproc
  34              	.LFE7:
  35              		.size	i2cInit, .-i2cInit
  36              		.section	.text.i2cObjectInit,"ax",%progbits
  37              		.align	2
  38              		.global	i2cObjectInit
  39              		.syntax unified
  40              		.arm
  41              		.fpu softvfp
  42              		.type	i2cObjectInit, %function
  43              	i2cObjectInit:
  44              	.LFB8:
  45              		.loc 1 75 0
  46              		.cfi_startproc
  47              		@ args = 0, pretend = 0, frame = 0
  48              		@ frame_needed = 0, uses_anonymous_args = 0
  49              		@ link register save eliminated.
  50              	.LVL1:
  51              		.loc 1 77 0
  52 0000 0120A0E3 		mov	r2, #1
  53              		.loc 1 78 0
  54 0004 0030A0E3 		mov	r3, #0
  55              		.loc 1 77 0
  56 0008 0020C0E5 		strb	r2, [r0]
  57              		.loc 1 78 0
ARM GAS  /var/folders/3j/4xdnk5197cv_b7cw3n33qk7r0000gn/T//cceqryy0.s 			page 2


  58 000c 043080E5 		str	r3, [r0, #4]
  59              		.loc 1 82 0
  60 0010 100080E2 		add	r0, r0, #16
  61              	.LVL2:
  62 0014 FEFFFFEA 		b	chMtxInit
  63              	.LVL3:
  64              		.cfi_endproc
  65              	.LFE8:
  66              		.size	i2cObjectInit, .-i2cObjectInit
  67              		.section	.text.i2cStart,"ax",%progbits
  68              		.align	2
  69              		.global	i2cStart
  70              		.syntax unified
  71              		.arm
  72              		.fpu softvfp
  73              		.type	i2cStart, %function
  74              	i2cStart:
  75              	.LFB9:
  76              		.loc 1 101 0
  77              		.cfi_startproc
  78              		@ args = 0, pretend = 0, frame = 0
  79              		@ frame_needed = 0, uses_anonymous_args = 0
  80              	.LVL4:
  81 0000 10402DE9 		push	{r4, lr}
  82              		.cfi_def_cfa_offset 8
  83              		.cfi_offset 4, -8
  84              		.cfi_offset 14, -4
  85              		.loc 1 101 0
  86 0004 0040A0E1 		mov	r4, r0
  87              		.loc 1 109 0
  88              		.syntax divided
  89              	@ 109 "..//os/hal/src/i2c.c" 1
  90 0008 9FF021E3 		msr     CPSR_c, #0x9F
  91              	@ 0 "" 2
  92              		.loc 1 110 0
  93              		.arm
  94              		.syntax unified
  95 000c 041080E5 		str	r1, [r0, #4]
  96              		.loc 1 111 0
  97 0010 FEFFFFEB 		bl	i2c_lld_start
  98              	.LVL5:
  99              		.loc 1 112 0
 100 0014 0230A0E3 		mov	r3, #2
 101 0018 0030C4E5 		strb	r3, [r4]
 102              		.loc 1 113 0
 103              		.syntax divided
 104              	@ 113 "..//os/hal/src/i2c.c" 1
 105 001c 1FF021E3 		msr     CPSR_c, #0x1F
 106              	@ 0 "" 2
 107              		.loc 1 114 0
 108              		.arm
 109              		.syntax unified
 110 0020 1080BDE8 		pop	{r4, pc}
 111              		.cfi_endproc
 112              	.LFE9:
 113              		.size	i2cStart, .-i2cStart
 114              		.section	.text.i2cStop,"ax",%progbits
ARM GAS  /var/folders/3j/4xdnk5197cv_b7cw3n33qk7r0000gn/T//cceqryy0.s 			page 3


 115              		.align	2
 116              		.global	i2cStop
 117              		.syntax unified
 118              		.arm
 119              		.fpu softvfp
 120              		.type	i2cStop, %function
 121              	i2cStop:
 122              	.LFB10:
 123              		.loc 1 123 0
 124              		.cfi_startproc
 125              		@ args = 0, pretend = 0, frame = 0
 126              		@ frame_needed = 0, uses_anonymous_args = 0
 127              	.LVL6:
 128 0000 10402DE9 		push	{r4, lr}
 129              		.cfi_def_cfa_offset 8
 130              		.cfi_offset 4, -8
 131              		.cfi_offset 14, -4
 132              		.loc 1 123 0
 133 0004 0040A0E1 		mov	r4, r0
 134              		.loc 1 131 0
 135              		.syntax divided
 136              	@ 131 "..//os/hal/src/i2c.c" 1
 137 0008 9FF021E3 		msr     CPSR_c, #0x9F
 138              	@ 0 "" 2
 139              		.loc 1 132 0
 140              		.arm
 141              		.syntax unified
 142 000c FEFFFFEB 		bl	i2c_lld_stop
 143              	.LVL7:
 144              		.loc 1 133 0
 145 0010 0130A0E3 		mov	r3, #1
 146 0014 0030C4E5 		strb	r3, [r4]
 147              		.loc 1 134 0
 148              		.syntax divided
 149              	@ 134 "..//os/hal/src/i2c.c" 1
 150 0018 1FF021E3 		msr     CPSR_c, #0x1F
 151              	@ 0 "" 2
 152              		.loc 1 135 0
 153              		.arm
 154              		.syntax unified
 155 001c 1080BDE8 		pop	{r4, pc}
 156              		.cfi_endproc
 157              	.LFE10:
 158              		.size	i2cStop, .-i2cStop
 159              		.section	.text.i2cGetErrors,"ax",%progbits
 160              		.align	2
 161              		.global	i2cGetErrors
 162              		.syntax unified
 163              		.arm
 164              		.fpu softvfp
 165              		.type	i2cGetErrors, %function
 166              	i2cGetErrors:
 167              	.LFB11:
 168              		.loc 1 145 0
 169              		.cfi_startproc
 170              		@ args = 0, pretend = 0, frame = 0
 171              		@ frame_needed = 0, uses_anonymous_args = 0
ARM GAS  /var/folders/3j/4xdnk5197cv_b7cw3n33qk7r0000gn/T//cceqryy0.s 			page 4


 172              		@ link register save eliminated.
 173              	.LVL8:
 174              		.loc 1 150 0
 175 0000 080090E5 		ldr	r0, [r0, #8]
 176              	.LVL9:
 177 0004 1EFF2FE1 		bx	lr
 178              		.cfi_endproc
 179              	.LFE11:
 180              		.size	i2cGetErrors, .-i2cGetErrors
 181              		.section	.text.i2cMasterTransmitTimeout,"ax",%progbits
 182              		.align	2
 183              		.global	i2cMasterTransmitTimeout
 184              		.syntax unified
 185              		.arm
 186              		.fpu softvfp
 187              		.type	i2cMasterTransmitTimeout, %function
 188              	i2cMasterTransmitTimeout:
 189              	.LFB12:
 190              		.loc 1 184 0
 191              		.cfi_startproc
 192              		@ args = 12, pretend = 0, frame = 0
 193              		@ frame_needed = 0, uses_anonymous_args = 0
 194              	.LVL10:
 195 0000 70402DE9 		push	{r4, r5, r6, lr}
 196              		.cfi_def_cfa_offset 16
 197              		.cfi_offset 4, -16
 198              		.cfi_offset 5, -12
 199              		.cfi_offset 6, -8
 200              		.cfi_offset 14, -4
 201 0004 10D04DE2 		sub	sp, sp, #16
 202              		.cfi_def_cfa_offset 32
 203              		.loc 1 184 0
 204 0008 0040A0E1 		mov	r4, r0
 205 000c 20C09DE5 		ldr	ip, [sp, #32]
 206 0010 28609DE5 		ldr	r6, [sp, #40]
 207              		.loc 1 196 0
 208              		.syntax divided
 209              	@ 196 "..//os/hal/src/i2c.c" 1
 210 0014 9FF021E3 		msr     CPSR_c, #0x9F
 211              	@ 0 "" 2
 212              		.loc 1 198 0
 213              		.arm
 214              		.syntax unified
 215 0018 03E0A0E3 		mov	lr, #3
 216              		.loc 1 197 0
 217 001c 0050A0E3 		mov	r5, #0
 218              		.loc 1 199 0
 219 0020 00C08DE5 		str	ip, [sp]
 220 0024 24C09DE5 		ldr	ip, [sp, #36]
 221 0028 08608DE5 		str	r6, [sp, #8]
 222 002c 7CC0EFE6 		uxtb	ip, ip
 223              		.loc 1 197 0
 224 0030 085080E5 		str	r5, [r0, #8]
 225              		.loc 1 198 0
 226 0034 00E0C0E5 		strb	lr, [r0]
 227              		.loc 1 199 0
 228 0038 04C08DE5 		str	ip, [sp, #4]
ARM GAS  /var/folders/3j/4xdnk5197cv_b7cw3n33qk7r0000gn/T//cceqryy0.s 			page 5


 229 003c FEFFFFEB 		bl	i2c_lld_master_transmit_timeout
 230              	.LVL11:
 231              		.loc 1 201 0
 232 0040 010070E3 		cmn	r0, #1
 233              		.loc 1 202 0
 234 0044 0530A003 		moveq	r3, #5
 235              		.loc 1 204 0
 236 0048 0230A013 		movne	r3, #2
 237 004c 0030C4E5 		strb	r3, [r4]
 238              		.loc 1 205 0
 239              		.syntax divided
 240              	@ 205 "..//os/hal/src/i2c.c" 1
 241 0050 1FF021E3 		msr     CPSR_c, #0x1F
 242              	@ 0 "" 2
 243              		.loc 1 207 0
 244              		.arm
 245              		.syntax unified
 246 0054 10D08DE2 		add	sp, sp, #16
 247              		.cfi_def_cfa_offset 16
 248              		@ sp needed
 249 0058 7080BDE8 		pop	{r4, r5, r6, pc}
 250              		.cfi_endproc
 251              	.LFE12:
 252              		.size	i2cMasterTransmitTimeout, .-i2cMasterTransmitTimeout
 253              		.section	.text.i2cMasterReceiveTimeout,"ax",%progbits
 254              		.align	2
 255              		.global	i2cMasterReceiveTimeout
 256              		.syntax unified
 257              		.arm
 258              		.fpu softvfp
 259              		.type	i2cMasterReceiveTimeout, %function
 260              	i2cMasterReceiveTimeout:
 261              	.LFB13:
 262              		.loc 1 233 0
 263              		.cfi_startproc
 264              		@ args = 4, pretend = 0, frame = 0
 265              		@ frame_needed = 0, uses_anonymous_args = 0
 266              	.LVL12:
 267 0000 30402DE9 		push	{r4, r5, lr}
 268              		.cfi_def_cfa_offset 12
 269              		.cfi_offset 4, -12
 270              		.cfi_offset 5, -8
 271              		.cfi_offset 14, -4
 272 0004 0CD04DE2 		sub	sp, sp, #12
 273              		.cfi_def_cfa_offset 24
 274              		.loc 1 233 0
 275 0008 0040A0E1 		mov	r4, r0
 276 000c 18509DE5 		ldr	r5, [sp, #24]
 277              		.loc 1 245 0
 278              		.syntax divided
 279              	@ 245 "..//os/hal/src/i2c.c" 1
 280 0010 9FF021E3 		msr     CPSR_c, #0x9F
 281              	@ 0 "" 2
 282              		.loc 1 246 0
 283              		.arm
 284              		.syntax unified
 285 0014 00E0A0E3 		mov	lr, #0
ARM GAS  /var/folders/3j/4xdnk5197cv_b7cw3n33qk7r0000gn/T//cceqryy0.s 			page 6


 286              		.loc 1 247 0
 287 0018 04C0A0E3 		mov	ip, #4
 288              		.loc 1 248 0
 289 001c 00508DE5 		str	r5, [sp]
 290              		.loc 1 246 0
 291 0020 08E080E5 		str	lr, [r0, #8]
 292              		.loc 1 247 0
 293 0024 00C0C0E5 		strb	ip, [r0]
 294              		.loc 1 248 0
 295 0028 FEFFFFEB 		bl	i2c_lld_master_receive_timeout
 296              	.LVL13:
 297              		.loc 1 249 0
 298 002c 010070E3 		cmn	r0, #1
 299              		.loc 1 250 0
 300 0030 0530A003 		moveq	r3, #5
 301              		.loc 1 252 0
 302 0034 0230A013 		movne	r3, #2
 303 0038 0030C4E5 		strb	r3, [r4]
 304              		.loc 1 253 0
 305              		.syntax divided
 306              	@ 253 "..//os/hal/src/i2c.c" 1
 307 003c 1FF021E3 		msr     CPSR_c, #0x1F
 308              	@ 0 "" 2
 309              		.loc 1 255 0
 310              		.arm
 311              		.syntax unified
 312 0040 0CD08DE2 		add	sp, sp, #12
 313              		.cfi_def_cfa_offset 12
 314              		@ sp needed
 315 0044 3080BDE8 		pop	{r4, r5, pc}
 316              		.cfi_endproc
 317              	.LFE13:
 318              		.size	i2cMasterReceiveTimeout, .-i2cMasterReceiveTimeout
 319              		.section	.text.i2cAcquireBus,"ax",%progbits
 320              		.align	2
 321              		.global	i2cAcquireBus
 322              		.syntax unified
 323              		.arm
 324              		.fpu softvfp
 325              		.type	i2cAcquireBus, %function
 326              	i2cAcquireBus:
 327              	.LFB14:
 328              		.loc 1 269 0
 329              		.cfi_startproc
 330              		@ args = 0, pretend = 0, frame = 0
 331              		@ frame_needed = 0, uses_anonymous_args = 0
 332              		@ link register save eliminated.
 333              	.LVL14:
 334              		.loc 1 274 0
 335 0000 100080E2 		add	r0, r0, #16
 336              	.LVL15:
 337 0004 FEFFFFEA 		b	chMtxLock
 338              	.LVL16:
 339              		.cfi_endproc
 340              	.LFE14:
 341              		.size	i2cAcquireBus, .-i2cAcquireBus
 342              		.section	.text.i2cReleaseBus,"ax",%progbits
ARM GAS  /var/folders/3j/4xdnk5197cv_b7cw3n33qk7r0000gn/T//cceqryy0.s 			page 7


 343              		.align	2
 344              		.global	i2cReleaseBus
 345              		.syntax unified
 346              		.arm
 347              		.fpu softvfp
 348              		.type	i2cReleaseBus, %function
 349              	i2cReleaseBus:
 350              	.LFB15:
 351              		.loc 1 289 0
 352              		.cfi_startproc
 353              		@ args = 0, pretend = 0, frame = 0
 354              		@ frame_needed = 0, uses_anonymous_args = 0
 355              		@ link register save eliminated.
 356              	.LVL17:
 357              		.loc 1 294 0
 358 0000 FEFFFFEA 		b	chMtxUnlock
 359              	.LVL18:
 360              		.cfi_endproc
 361              	.LFE15:
 362              		.size	i2cReleaseBus, .-i2cReleaseBus
 363              		.text
 364              	.Letext0:
 365              		.file 2 "/usr/local/Cellar/gcc-arm-none-eabi/20180627/lib/gcc/arm-none-eabi/7.3.1/include/stddef.h
 366              		.file 3 "/usr/local/Cellar/gcc-arm-none-eabi/20180627/arm-none-eabi/include/machine/_default_types
 367              		.file 4 "/usr/local/Cellar/gcc-arm-none-eabi/20180627/arm-none-eabi/include/sys/_stdint.h"
 368              		.file 5 "..//os/ports/GCC/ARM/chtypes.h"
 369              		.file 6 "..//os/kernel/include/chlists.h"
 370              		.file 7 "..//os/kernel/include/chthreads.h"
 371              		.file 8 "..//os/ports/GCC/ARM/chcore.h"
 372              		.file 9 "..//os/kernel/include/chvt.h"
 373              		.file 10 "..//os/kernel/include/chschd.h"
 374              		.file 11 "..//os/kernel/include/chmtx.h"
 375              		.file 12 "..//os/kernel/include/chevents.h"
 376              		.file 13 "..//os/kernel/include/chregistry.h"
 377              		.file 14 "..//os/kernel/include/chqueues.h"
 378              		.file 15 "..//os/kernel/include/ch.h"
 379              		.file 16 "..//os/hal/platforms/BCM2835/bcm2835.h"
 380              		.file 17 "..//os/hal/platforms/BCM2835/pal_lld.h"
 381              		.file 18 "..//os/hal/include/i2c.h"
 382              		.file 19 "..//os/hal/platforms/BCM2835/i2c_lld.h"
 383              		.file 20 "..//os/hal/include/serial.h"
 384              		.file 21 "..//os/hal/include/spi.h"
 385              		.file 22 "..//os/hal/platforms/BCM2835/spi_lld.h"
 386              		.file 23 "..//os/hal/platforms/BCM2835/serial_lld.h"
 387              		.section	.debug_info,"",%progbits
 388              	.Ldebug_info0:
 389 0000 29100000 		.4byte	0x1029
 390 0004 0400     		.2byte	0x4
 391 0006 00000000 		.4byte	.Ldebug_abbrev0
 392 000a 04       		.byte	0x4
 393 000b 01       		.uleb128 0x1
 394 000c EF010000 		.4byte	.LASF220
 395 0010 0C       		.byte	0xc
 396 0011 6D040000 		.4byte	.LASF221
 397 0015 00000000 		.4byte	.LASF222
 398 0019 00000000 		.4byte	.Ldebug_ranges0+0
 399 001d 00000000 		.4byte	0
ARM GAS  /var/folders/3j/4xdnk5197cv_b7cw3n33qk7r0000gn/T//cceqryy0.s 			page 8


 400 0021 00000000 		.4byte	.Ldebug_line0
 401 0025 02       		.uleb128 0x2
 402 0026 04       		.byte	0x4
 403 0027 05       		.byte	0x5
 404 0028 696E7400 		.ascii	"int\000"
 405 002c 03       		.uleb128 0x3
 406 002d 66000000 		.4byte	.LASF2
 407 0031 02       		.byte	0x2
 408 0032 D8       		.byte	0xd8
 409 0033 37000000 		.4byte	0x37
 410 0037 04       		.uleb128 0x4
 411 0038 04       		.byte	0x4
 412 0039 07       		.byte	0x7
 413 003a E0030000 		.4byte	.LASF0
 414 003e 05       		.uleb128 0x5
 415 003f 37000000 		.4byte	0x37
 416 0043 04       		.uleb128 0x4
 417 0044 01       		.byte	0x1
 418 0045 06       		.byte	0x6
 419 0046 69010000 		.4byte	.LASF1
 420 004a 03       		.uleb128 0x3
 421 004b 86000000 		.4byte	.LASF3
 422 004f 03       		.byte	0x3
 423 0050 2B       		.byte	0x2b
 424 0051 55000000 		.4byte	0x55
 425 0055 04       		.uleb128 0x4
 426 0056 01       		.byte	0x1
 427 0057 08       		.byte	0x8
 428 0058 B0060000 		.4byte	.LASF4
 429 005c 04       		.uleb128 0x4
 430 005d 02       		.byte	0x2
 431 005e 05       		.byte	0x5
 432 005f DD060000 		.4byte	.LASF5
 433 0063 03       		.uleb128 0x3
 434 0064 E3070000 		.4byte	.LASF6
 435 0068 03       		.byte	0x3
 436 0069 39       		.byte	0x39
 437 006a 6E000000 		.4byte	0x6e
 438 006e 04       		.uleb128 0x4
 439 006f 02       		.byte	0x2
 440 0070 07       		.byte	0x7
 441 0071 90040000 		.4byte	.LASF7
 442 0075 03       		.uleb128 0x3
 443 0076 15080000 		.4byte	.LASF8
 444 007a 03       		.byte	0x3
 445 007b 4D       		.byte	0x4d
 446 007c 80000000 		.4byte	0x80
 447 0080 04       		.uleb128 0x4
 448 0081 04       		.byte	0x4
 449 0082 05       		.byte	0x5
 450 0083 BD020000 		.4byte	.LASF9
 451 0087 03       		.uleb128 0x3
 452 0088 93030000 		.4byte	.LASF10
 453 008c 03       		.byte	0x3
 454 008d 4F       		.byte	0x4f
 455 008e 92000000 		.4byte	0x92
 456 0092 04       		.uleb128 0x4
ARM GAS  /var/folders/3j/4xdnk5197cv_b7cw3n33qk7r0000gn/T//cceqryy0.s 			page 9


 457 0093 04       		.byte	0x4
 458 0094 07       		.byte	0x7
 459 0095 19040000 		.4byte	.LASF11
 460 0099 04       		.uleb128 0x4
 461 009a 08       		.byte	0x8
 462 009b 05       		.byte	0x5
 463 009c 5B010000 		.4byte	.LASF12
 464 00a0 04       		.uleb128 0x4
 465 00a1 08       		.byte	0x8
 466 00a2 07       		.byte	0x7
 467 00a3 BA000000 		.4byte	.LASF13
 468 00a7 03       		.uleb128 0x3
 469 00a8 FD080000 		.4byte	.LASF14
 470 00ac 04       		.byte	0x4
 471 00ad 18       		.byte	0x18
 472 00ae 4A000000 		.4byte	0x4a
 473 00b2 06       		.uleb128 0x6
 474 00b3 A7000000 		.4byte	0xa7
 475 00b7 03       		.uleb128 0x3
 476 00b8 08030000 		.4byte	.LASF15
 477 00bc 04       		.byte	0x4
 478 00bd 24       		.byte	0x24
 479 00be 63000000 		.4byte	0x63
 480 00c2 03       		.uleb128 0x3
 481 00c3 A8060000 		.4byte	.LASF16
 482 00c7 04       		.byte	0x4
 483 00c8 2C       		.byte	0x2c
 484 00c9 75000000 		.4byte	0x75
 485 00cd 03       		.uleb128 0x3
 486 00ce 84070000 		.4byte	.LASF17
 487 00d2 04       		.byte	0x4
 488 00d3 30       		.byte	0x30
 489 00d4 87000000 		.4byte	0x87
 490 00d8 05       		.uleb128 0x5
 491 00d9 CD000000 		.4byte	0xcd
 492 00dd 03       		.uleb128 0x3
 493 00de D9040000 		.4byte	.LASF18
 494 00e2 05       		.byte	0x5
 495 00e3 2A       		.byte	0x2a
 496 00e4 A7000000 		.4byte	0xa7
 497 00e8 03       		.uleb128 0x3
 498 00e9 DF020000 		.4byte	.LASF19
 499 00ed 05       		.byte	0x5
 500 00ee 2B       		.byte	0x2b
 501 00ef A7000000 		.4byte	0xa7
 502 00f3 03       		.uleb128 0x3
 503 00f4 3C060000 		.4byte	.LASF20
 504 00f8 05       		.byte	0x5
 505 00f9 2C       		.byte	0x2c
 506 00fa A7000000 		.4byte	0xa7
 507 00fe 03       		.uleb128 0x3
 508 00ff BB070000 		.4byte	.LASF21
 509 0103 05       		.byte	0x5
 510 0104 2D       		.byte	0x2d
 511 0105 A7000000 		.4byte	0xa7
 512 0109 03       		.uleb128 0x3
 513 010a 79060000 		.4byte	.LASF22
ARM GAS  /var/folders/3j/4xdnk5197cv_b7cw3n33qk7r0000gn/T//cceqryy0.s 			page 10


 514 010e 05       		.byte	0x5
 515 010f 2E       		.byte	0x2e
 516 0110 CD000000 		.4byte	0xcd
 517 0114 03       		.uleb128 0x3
 518 0115 B5040000 		.4byte	.LASF23
 519 0119 05       		.byte	0x5
 520 011a 2F       		.byte	0x2f
 521 011b C2000000 		.4byte	0xc2
 522 011f 03       		.uleb128 0x3
 523 0120 ED040000 		.4byte	.LASF24
 524 0124 05       		.byte	0x5
 525 0125 31       		.byte	0x31
 526 0126 CD000000 		.4byte	0xcd
 527 012a 03       		.uleb128 0x3
 528 012b 98080000 		.4byte	.LASF25
 529 012f 05       		.byte	0x5
 530 0130 32       		.byte	0x32
 531 0131 CD000000 		.4byte	0xcd
 532 0135 03       		.uleb128 0x3
 533 0136 00080000 		.4byte	.LASF26
 534 013a 05       		.byte	0x5
 535 013b 33       		.byte	0x33
 536 013c CD000000 		.4byte	0xcd
 537 0140 05       		.uleb128 0x5
 538 0141 35010000 		.4byte	0x135
 539 0145 03       		.uleb128 0x3
 540 0146 42070000 		.4byte	.LASF27
 541 014a 06       		.byte	0x6
 542 014b 23       		.byte	0x23
 543 014c 50010000 		.4byte	0x150
 544 0150 07       		.uleb128 0x7
 545 0151 42070000 		.4byte	.LASF27
 546 0155 44       		.byte	0x44
 547 0156 07       		.byte	0x7
 548 0157 57       		.byte	0x57
 549 0158 41020000 		.4byte	0x241
 550 015c 08       		.uleb128 0x8
 551 015d 1C070000 		.4byte	.LASF28
 552 0161 07       		.byte	0x7
 553 0162 58       		.byte	0x58
 554 0163 62020000 		.4byte	0x262
 555 0167 00       		.byte	0
 556 0168 08       		.uleb128 0x8
 557 0169 64060000 		.4byte	.LASF29
 558 016d 07       		.byte	0x7
 559 016e 5A       		.byte	0x5a
 560 016f 62020000 		.4byte	0x262
 561 0173 04       		.byte	0x4
 562 0174 08       		.uleb128 0x8
 563 0175 30010000 		.4byte	.LASF30
 564 0179 07       		.byte	0x7
 565 017a 5C       		.byte	0x5c
 566 017b 09010000 		.4byte	0x109
 567 017f 08       		.byte	0x8
 568 0180 08       		.uleb128 0x8
 569 0181 AD090000 		.4byte	.LASF31
 570 0185 07       		.byte	0x7
ARM GAS  /var/folders/3j/4xdnk5197cv_b7cw3n33qk7r0000gn/T//cceqryy0.s 			page 11


 571 0186 5D       		.byte	0x5d
 572 0187 1D030000 		.4byte	0x31d
 573 018b 0C       		.byte	0xc
 574 018c 08       		.uleb128 0x8
 575 018d 3A030000 		.4byte	.LASF32
 576 0191 07       		.byte	0x7
 577 0192 5F       		.byte	0x5f
 578 0193 62020000 		.4byte	0x262
 579 0197 10       		.byte	0x10
 580 0198 08       		.uleb128 0x8
 581 0199 B7050000 		.4byte	.LASF33
 582 019d 07       		.byte	0x7
 583 019e 60       		.byte	0x60
 584 019f 62020000 		.4byte	0x262
 585 01a3 14       		.byte	0x14
 586 01a4 08       		.uleb128 0x8
 587 01a5 38090000 		.4byte	.LASF34
 588 01a9 07       		.byte	0x7
 589 01aa 67       		.byte	0x67
 590 01ab 51050000 		.4byte	0x551
 591 01af 18       		.byte	0x18
 592 01b0 08       		.uleb128 0x8
 593 01b1 E7060000 		.4byte	.LASF35
 594 01b5 07       		.byte	0x7
 595 01b6 72       		.byte	0x72
 596 01b7 E8000000 		.4byte	0xe8
 597 01bb 1C       		.byte	0x1c
 598 01bc 08       		.uleb128 0x8
 599 01bd 3A070000 		.4byte	.LASF36
 600 01c1 07       		.byte	0x7
 601 01c2 76       		.byte	0x76
 602 01c3 DD000000 		.4byte	0xdd
 603 01c7 1D       		.byte	0x1d
 604 01c8 08       		.uleb128 0x8
 605 01c9 D6080000 		.4byte	.LASF37
 606 01cd 07       		.byte	0x7
 607 01ce 7B       		.byte	0x7b
 608 01cf F3000000 		.4byte	0xf3
 609 01d3 1E       		.byte	0x1e
 610 01d4 08       		.uleb128 0x8
 611 01d5 EF060000 		.4byte	.LASF38
 612 01d9 07       		.byte	0x7
 613 01da 81       		.byte	0x81
 614 01db FE000000 		.4byte	0xfe
 615 01df 1F       		.byte	0x1f
 616 01e0 08       		.uleb128 0x8
 617 01e1 33080000 		.4byte	.LASF39
 618 01e5 07       		.byte	0x7
 619 01e6 88       		.byte	0x88
 620 01e7 40010000 		.4byte	0x140
 621 01eb 20       		.byte	0x20
 622 01ec 09       		.uleb128 0x9
 623 01ed 705F7500 		.ascii	"p_u\000"
 624 01f1 07       		.byte	0x7
 625 01f2 AD       		.byte	0xad
 626 01f3 1C050000 		.4byte	0x51c
 627 01f7 24       		.byte	0x24
ARM GAS  /var/folders/3j/4xdnk5197cv_b7cw3n33qk7r0000gn/T//cceqryy0.s 			page 12


 628 01f8 08       		.uleb128 0x8
 629 01f9 B3090000 		.4byte	.LASF40
 630 01fd 07       		.byte	0x7
 631 01fe B2       		.byte	0xb2
 632 01ff 88020000 		.4byte	0x288
 633 0203 28       		.byte	0x28
 634 0204 08       		.uleb128 0x8
 635 0205 5E080000 		.4byte	.LASF41
 636 0209 07       		.byte	0x7
 637 020a B8       		.byte	0xb8
 638 020b 68020000 		.4byte	0x268
 639 020f 2C       		.byte	0x2c
 640 0210 08       		.uleb128 0x8
 641 0211 60000000 		.4byte	.LASF42
 642 0215 07       		.byte	0x7
 643 0216 BC       		.byte	0xbc
 644 0217 14010000 		.4byte	0x114
 645 021b 34       		.byte	0x34
 646 021c 08       		.uleb128 0x8
 647 021d 6F070000 		.4byte	.LASF43
 648 0221 07       		.byte	0x7
 649 0222 C2       		.byte	0xc2
 650 0223 1F010000 		.4byte	0x11f
 651 0227 38       		.byte	0x38
 652 0228 08       		.uleb128 0x8
 653 0229 D3060000 		.4byte	.LASF44
 654 022d 07       		.byte	0x7
 655 022e C9       		.byte	0xc9
 656 022f 63050000 		.4byte	0x563
 657 0233 3C       		.byte	0x3c
 658 0234 08       		.uleb128 0x8
 659 0235 0A080000 		.4byte	.LASF45
 660 0239 07       		.byte	0x7
 661 023a CD       		.byte	0xcd
 662 023b 09010000 		.4byte	0x109
 663 023f 40       		.byte	0x40
 664 0240 00       		.byte	0
 665 0241 0A       		.uleb128 0xa
 666 0242 08       		.byte	0x8
 667 0243 06       		.byte	0x6
 668 0244 5A       		.byte	0x5a
 669 0245 62020000 		.4byte	0x262
 670 0249 08       		.uleb128 0x8
 671 024a 1C070000 		.4byte	.LASF28
 672 024e 06       		.byte	0x6
 673 024f 5B       		.byte	0x5b
 674 0250 62020000 		.4byte	0x262
 675 0254 00       		.byte	0
 676 0255 08       		.uleb128 0x8
 677 0256 64060000 		.4byte	.LASF29
 678 025a 06       		.byte	0x6
 679 025b 5D       		.byte	0x5d
 680 025c 62020000 		.4byte	0x262
 681 0260 04       		.byte	0x4
 682 0261 00       		.byte	0
 683 0262 0B       		.uleb128 0xb
 684 0263 04       		.byte	0x4
ARM GAS  /var/folders/3j/4xdnk5197cv_b7cw3n33qk7r0000gn/T//cceqryy0.s 			page 13


 685 0264 45010000 		.4byte	0x145
 686 0268 03       		.uleb128 0x3
 687 0269 D5050000 		.4byte	.LASF46
 688 026d 06       		.byte	0x6
 689 026e 5F       		.byte	0x5f
 690 026f 41020000 		.4byte	0x241
 691 0273 0A       		.uleb128 0xa
 692 0274 04       		.byte	0x4
 693 0275 06       		.byte	0x6
 694 0276 64       		.byte	0x64
 695 0277 88020000 		.4byte	0x288
 696 027b 08       		.uleb128 0x8
 697 027c 1C070000 		.4byte	.LASF28
 698 0280 06       		.byte	0x6
 699 0281 66       		.byte	0x66
 700 0282 62020000 		.4byte	0x262
 701 0286 00       		.byte	0
 702 0287 00       		.byte	0
 703 0288 03       		.uleb128 0x3
 704 0289 E1040000 		.4byte	.LASF47
 705 028d 06       		.byte	0x6
 706 028e 69       		.byte	0x69
 707 028f 73020000 		.4byte	0x273
 708 0293 03       		.uleb128 0x3
 709 0294 25050000 		.4byte	.LASF48
 710 0298 08       		.byte	0x8
 711 0299 9D       		.byte	0x9d
 712 029a CD000000 		.4byte	0xcd
 713 029e 03       		.uleb128 0x3
 714 029f 9E030000 		.4byte	.LASF49
 715 02a3 08       		.byte	0x8
 716 02a4 A2       		.byte	0xa2
 717 02a5 A9020000 		.4byte	0x2a9
 718 02a9 0C       		.uleb128 0xc
 719 02aa 04       		.byte	0x4
 720 02ab 07       		.uleb128 0x7
 721 02ac 57080000 		.4byte	.LASF50
 722 02b0 24       		.byte	0x24
 723 02b1 08       		.byte	0x8
 724 02b2 B9       		.byte	0xb9
 725 02b3 1D030000 		.4byte	0x31d
 726 02b7 09       		.uleb128 0x9
 727 02b8 723400   		.ascii	"r4\000"
 728 02bb 08       		.byte	0x8
 729 02bc BA       		.byte	0xba
 730 02bd 9E020000 		.4byte	0x29e
 731 02c1 00       		.byte	0
 732 02c2 09       		.uleb128 0x9
 733 02c3 723500   		.ascii	"r5\000"
 734 02c6 08       		.byte	0x8
 735 02c7 BB       		.byte	0xbb
 736 02c8 9E020000 		.4byte	0x29e
 737 02cc 04       		.byte	0x4
 738 02cd 09       		.uleb128 0x9
 739 02ce 723600   		.ascii	"r6\000"
 740 02d1 08       		.byte	0x8
 741 02d2 BC       		.byte	0xbc
ARM GAS  /var/folders/3j/4xdnk5197cv_b7cw3n33qk7r0000gn/T//cceqryy0.s 			page 14


 742 02d3 9E020000 		.4byte	0x29e
 743 02d7 08       		.byte	0x8
 744 02d8 09       		.uleb128 0x9
 745 02d9 723700   		.ascii	"r7\000"
 746 02dc 08       		.byte	0x8
 747 02dd BD       		.byte	0xbd
 748 02de 9E020000 		.4byte	0x29e
 749 02e2 0C       		.byte	0xc
 750 02e3 09       		.uleb128 0x9
 751 02e4 723800   		.ascii	"r8\000"
 752 02e7 08       		.byte	0x8
 753 02e8 BE       		.byte	0xbe
 754 02e9 9E020000 		.4byte	0x29e
 755 02ed 10       		.byte	0x10
 756 02ee 09       		.uleb128 0x9
 757 02ef 723900   		.ascii	"r9\000"
 758 02f2 08       		.byte	0x8
 759 02f3 BF       		.byte	0xbf
 760 02f4 9E020000 		.4byte	0x29e
 761 02f8 14       		.byte	0x14
 762 02f9 09       		.uleb128 0x9
 763 02fa 72313000 		.ascii	"r10\000"
 764 02fe 08       		.byte	0x8
 765 02ff C0       		.byte	0xc0
 766 0300 9E020000 		.4byte	0x29e
 767 0304 18       		.byte	0x18
 768 0305 09       		.uleb128 0x9
 769 0306 72313100 		.ascii	"r11\000"
 770 030a 08       		.byte	0x8
 771 030b C1       		.byte	0xc1
 772 030c 9E020000 		.4byte	0x29e
 773 0310 1C       		.byte	0x1c
 774 0311 09       		.uleb128 0x9
 775 0312 6C7200   		.ascii	"lr\000"
 776 0315 08       		.byte	0x8
 777 0316 C2       		.byte	0xc2
 778 0317 9E020000 		.4byte	0x29e
 779 031b 20       		.byte	0x20
 780 031c 00       		.byte	0
 781 031d 07       		.uleb128 0x7
 782 031e 88040000 		.4byte	.LASF51
 783 0322 04       		.byte	0x4
 784 0323 08       		.byte	0x8
 785 0324 CA       		.byte	0xca
 786 0325 36030000 		.4byte	0x336
 787 0329 09       		.uleb128 0x9
 788 032a 72313300 		.ascii	"r13\000"
 789 032e 08       		.byte	0x8
 790 032f CB       		.byte	0xcb
 791 0330 36030000 		.4byte	0x336
 792 0334 00       		.byte	0
 793 0335 00       		.byte	0
 794 0336 0B       		.uleb128 0xb
 795 0337 04       		.byte	0x4
 796 0338 AB020000 		.4byte	0x2ab
 797 033c 03       		.uleb128 0x3
 798 033d 41040000 		.4byte	.LASF52
ARM GAS  /var/folders/3j/4xdnk5197cv_b7cw3n33qk7r0000gn/T//cceqryy0.s 			page 15


 799 0341 09       		.byte	0x9
 800 0342 4E       		.byte	0x4e
 801 0343 47030000 		.4byte	0x347
 802 0347 0B       		.uleb128 0xb
 803 0348 04       		.byte	0x4
 804 0349 4D030000 		.4byte	0x34d
 805 034d 0D       		.uleb128 0xd
 806 034e 58030000 		.4byte	0x358
 807 0352 0E       		.uleb128 0xe
 808 0353 A9020000 		.4byte	0x2a9
 809 0357 00       		.byte	0
 810 0358 03       		.uleb128 0x3
 811 0359 A1070000 		.4byte	.LASF53
 812 035d 09       		.byte	0x9
 813 035e 53       		.byte	0x53
 814 035f 63030000 		.4byte	0x363
 815 0363 07       		.uleb128 0x7
 816 0364 A1070000 		.4byte	.LASF53
 817 0368 14       		.byte	0x14
 818 0369 09       		.byte	0x9
 819 036a 5A       		.byte	0x5a
 820 036b AC030000 		.4byte	0x3ac
 821 036f 08       		.uleb128 0x8
 822 0370 ED030000 		.4byte	.LASF54
 823 0374 09       		.byte	0x9
 824 0375 5B       		.byte	0x5b
 825 0376 AC030000 		.4byte	0x3ac
 826 037a 00       		.byte	0
 827 037b 08       		.uleb128 0x8
 828 037c A7030000 		.4byte	.LASF55
 829 0380 09       		.byte	0x9
 830 0381 5D       		.byte	0x5d
 831 0382 AC030000 		.4byte	0x3ac
 832 0386 04       		.byte	0x4
 833 0387 08       		.uleb128 0x8
 834 0388 5C050000 		.4byte	.LASF56
 835 038c 09       		.byte	0x9
 836 038d 5F       		.byte	0x5f
 837 038e 35010000 		.4byte	0x135
 838 0392 08       		.byte	0x8
 839 0393 08       		.uleb128 0x8
 840 0394 84050000 		.4byte	.LASF57
 841 0398 09       		.byte	0x9
 842 0399 60       		.byte	0x60
 843 039a 3C030000 		.4byte	0x33c
 844 039e 0C       		.byte	0xc
 845 039f 08       		.uleb128 0x8
 846 03a0 87080000 		.4byte	.LASF58
 847 03a4 09       		.byte	0x9
 848 03a5 62       		.byte	0x62
 849 03a6 A9020000 		.4byte	0x2a9
 850 03aa 10       		.byte	0x10
 851 03ab 00       		.byte	0
 852 03ac 0B       		.uleb128 0xb
 853 03ad 04       		.byte	0x4
 854 03ae 58030000 		.4byte	0x358
 855 03b2 0A       		.uleb128 0xa
ARM GAS  /var/folders/3j/4xdnk5197cv_b7cw3n33qk7r0000gn/T//cceqryy0.s 			page 16


 856 03b3 10       		.byte	0x10
 857 03b4 09       		.byte	0x9
 858 03b5 6C       		.byte	0x6c
 859 03b6 EB030000 		.4byte	0x3eb
 860 03ba 08       		.uleb128 0x8
 861 03bb ED030000 		.4byte	.LASF54
 862 03bf 09       		.byte	0x9
 863 03c0 6D       		.byte	0x6d
 864 03c1 AC030000 		.4byte	0x3ac
 865 03c5 00       		.byte	0
 866 03c6 08       		.uleb128 0x8
 867 03c7 A7030000 		.4byte	.LASF55
 868 03cb 09       		.byte	0x9
 869 03cc 6F       		.byte	0x6f
 870 03cd AC030000 		.4byte	0x3ac
 871 03d1 04       		.byte	0x4
 872 03d2 08       		.uleb128 0x8
 873 03d3 5C050000 		.4byte	.LASF56
 874 03d7 09       		.byte	0x9
 875 03d8 71       		.byte	0x71
 876 03d9 35010000 		.4byte	0x135
 877 03dd 08       		.byte	0x8
 878 03de 08       		.uleb128 0x8
 879 03df 3F090000 		.4byte	.LASF59
 880 03e3 09       		.byte	0x9
 881 03e4 72       		.byte	0x72
 882 03e5 40010000 		.4byte	0x140
 883 03e9 0C       		.byte	0xc
 884 03ea 00       		.byte	0
 885 03eb 03       		.uleb128 0x3
 886 03ec 7A090000 		.4byte	.LASF60
 887 03f0 09       		.byte	0x9
 888 03f1 73       		.byte	0x73
 889 03f2 B2030000 		.4byte	0x3b2
 890 03f6 0F       		.uleb128 0xf
 891 03f7 9B000000 		.4byte	.LASF68
 892 03fb 09       		.byte	0x9
 893 03fc D1       		.byte	0xd1
 894 03fd EB030000 		.4byte	0x3eb
 895 0401 0A       		.uleb128 0xa
 896 0402 1C       		.byte	0x1c
 897 0403 0A       		.byte	0xa
 898 0404 57       		.byte	0x57
 899 0405 52040000 		.4byte	0x452
 900 0409 08       		.uleb128 0x8
 901 040a 99070000 		.4byte	.LASF61
 902 040e 0A       		.byte	0xa
 903 040f 58       		.byte	0x58
 904 0410 68020000 		.4byte	0x268
 905 0414 00       		.byte	0
 906 0415 08       		.uleb128 0x8
 907 0416 05070000 		.4byte	.LASF62
 908 041a 0A       		.byte	0xa
 909 041b 59       		.byte	0x59
 910 041c 09010000 		.4byte	0x109
 911 0420 08       		.byte	0x8
 912 0421 08       		.uleb128 0x8
ARM GAS  /var/folders/3j/4xdnk5197cv_b7cw3n33qk7r0000gn/T//cceqryy0.s 			page 17


 913 0422 CF050000 		.4byte	.LASF63
 914 0426 0A       		.byte	0xa
 915 0427 5B       		.byte	0x5b
 916 0428 1D030000 		.4byte	0x31d
 917 042c 0C       		.byte	0xc
 918 042d 08       		.uleb128 0x8
 919 042e C2040000 		.4byte	.LASF64
 920 0432 0A       		.byte	0xa
 921 0433 5E       		.byte	0x5e
 922 0434 62020000 		.4byte	0x262
 923 0438 10       		.byte	0x10
 924 0439 08       		.uleb128 0x8
 925 043a FC050000 		.4byte	.LASF65
 926 043e 0A       		.byte	0xa
 927 043f 5F       		.byte	0x5f
 928 0440 62020000 		.4byte	0x262
 929 0444 14       		.byte	0x14
 930 0445 08       		.uleb128 0x8
 931 0446 F2050000 		.4byte	.LASF66
 932 044a 0A       		.byte	0xa
 933 044b 62       		.byte	0x62
 934 044c 62020000 		.4byte	0x262
 935 0450 18       		.byte	0x18
 936 0451 00       		.byte	0
 937 0452 03       		.uleb128 0x3
 938 0453 E4080000 		.4byte	.LASF67
 939 0457 0A       		.byte	0xa
 940 0458 64       		.byte	0x64
 941 0459 01040000 		.4byte	0x401
 942 045d 0F       		.uleb128 0xf
 943 045e F7080000 		.4byte	.LASF69
 944 0462 0A       		.byte	0xa
 945 0463 68       		.byte	0x68
 946 0464 52040000 		.4byte	0x452
 947 0468 07       		.uleb128 0x7
 948 0469 04050000 		.4byte	.LASF70
 949 046d 10       		.byte	0x10
 950 046e 0B       		.byte	0xb
 951 046f 25       		.byte	0x25
 952 0470 99040000 		.4byte	0x499
 953 0474 08       		.uleb128 0x8
 954 0475 A3010000 		.4byte	.LASF71
 955 0479 0B       		.byte	0xb
 956 047a 26       		.byte	0x26
 957 047b 68020000 		.4byte	0x268
 958 047f 00       		.byte	0
 959 0480 08       		.uleb128 0x8
 960 0481 92090000 		.4byte	.LASF72
 961 0485 0B       		.byte	0xb
 962 0486 28       		.byte	0x28
 963 0487 62020000 		.4byte	0x262
 964 048b 08       		.byte	0x8
 965 048c 08       		.uleb128 0x8
 966 048d F9070000 		.4byte	.LASF73
 967 0491 0B       		.byte	0xb
 968 0492 2A       		.byte	0x2a
 969 0493 99040000 		.4byte	0x499
ARM GAS  /var/folders/3j/4xdnk5197cv_b7cw3n33qk7r0000gn/T//cceqryy0.s 			page 18


 970 0497 0C       		.byte	0xc
 971 0498 00       		.byte	0
 972 0499 0B       		.uleb128 0xb
 973 049a 04       		.byte	0x4
 974 049b 68040000 		.4byte	0x468
 975 049f 03       		.uleb128 0x3
 976 04a0 04050000 		.4byte	.LASF70
 977 04a4 0B       		.byte	0xb
 978 04a5 2C       		.byte	0x2c
 979 04a6 68040000 		.4byte	0x468
 980 04aa 03       		.uleb128 0x3
 981 04ab 23090000 		.4byte	.LASF74
 982 04af 0C       		.byte	0xc
 983 04b0 25       		.byte	0x25
 984 04b1 B5040000 		.4byte	0x4b5
 985 04b5 07       		.uleb128 0x7
 986 04b6 23090000 		.4byte	.LASF74
 987 04ba 10       		.byte	0x10
 988 04bb 0C       		.byte	0xc
 989 04bc 2A       		.byte	0x2a
 990 04bd F2040000 		.4byte	0x4f2
 991 04c1 08       		.uleb128 0x8
 992 04c2 CA040000 		.4byte	.LASF75
 993 04c6 0C       		.byte	0xc
 994 04c7 2B       		.byte	0x2b
 995 04c8 F2040000 		.4byte	0x4f2
 996 04cc 00       		.byte	0
 997 04cd 08       		.uleb128 0x8
 998 04ce BE060000 		.4byte	.LASF76
 999 04d2 0C       		.byte	0xc
 1000 04d3 2E       		.byte	0x2e
 1001 04d4 62020000 		.4byte	0x262
 1002 04d8 04       		.byte	0x4
 1003 04d9 08       		.uleb128 0x8
 1004 04da 04060000 		.4byte	.LASF77
 1005 04de 0C       		.byte	0xc
 1006 04df 30       		.byte	0x30
 1007 04e0 1F010000 		.4byte	0x11f
 1008 04e4 08       		.byte	0x8
 1009 04e5 08       		.uleb128 0x8
 1010 04e6 CA060000 		.4byte	.LASF78
 1011 04ea 0C       		.byte	0xc
 1012 04eb 33       		.byte	0x33
 1013 04ec 2A010000 		.4byte	0x12a
 1014 04f0 0C       		.byte	0xc
 1015 04f1 00       		.byte	0
 1016 04f2 0B       		.uleb128 0xb
 1017 04f3 04       		.byte	0x4
 1018 04f4 AA040000 		.4byte	0x4aa
 1019 04f8 07       		.uleb128 0x7
 1020 04f9 D4030000 		.4byte	.LASF79
 1021 04fd 04       		.byte	0x4
 1022 04fe 0C       		.byte	0xc
 1023 04ff 3A       		.byte	0x3a
 1024 0500 11050000 		.4byte	0x511
 1025 0504 08       		.uleb128 0x8
 1026 0505 4A090000 		.4byte	.LASF80
ARM GAS  /var/folders/3j/4xdnk5197cv_b7cw3n33qk7r0000gn/T//cceqryy0.s 			page 19


 1027 0509 0C       		.byte	0xc
 1028 050a 3B       		.byte	0x3b
 1029 050b F2040000 		.4byte	0x4f2
 1030 050f 00       		.byte	0
 1031 0510 00       		.byte	0
 1032 0511 03       		.uleb128 0x3
 1033 0512 D4030000 		.4byte	.LASF79
 1034 0516 0C       		.byte	0xc
 1035 0517 3E       		.byte	0x3e
 1036 0518 F8040000 		.4byte	0x4f8
 1037 051c 10       		.uleb128 0x10
 1038 051d 04       		.byte	0x4
 1039 051e 07       		.byte	0x7
 1040 051f 8F       		.byte	0x8f
 1041 0520 51050000 		.4byte	0x551
 1042 0524 11       		.uleb128 0x11
 1043 0525 6D000000 		.4byte	.LASF81
 1044 0529 07       		.byte	0x7
 1045 052a 96       		.byte	0x96
 1046 052b 14010000 		.4byte	0x114
 1047 052f 11       		.uleb128 0x11
 1048 0530 F4000000 		.4byte	.LASF82
 1049 0534 07       		.byte	0x7
 1050 0535 9D       		.byte	0x9d
 1051 0536 14010000 		.4byte	0x114
 1052 053a 11       		.uleb128 0x11
 1053 053b 31090000 		.4byte	.LASF83
 1054 053f 07       		.byte	0x7
 1055 0540 A4       		.byte	0xa4
 1056 0541 A9020000 		.4byte	0x2a9
 1057 0545 11       		.uleb128 0x11
 1058 0546 15070000 		.4byte	.LASF84
 1059 054a 07       		.byte	0x7
 1060 054b AB       		.byte	0xab
 1061 054c 1F010000 		.4byte	0x11f
 1062 0550 00       		.byte	0
 1063 0551 0B       		.uleb128 0xb
 1064 0552 04       		.byte	0x4
 1065 0553 5E050000 		.4byte	0x55e
 1066 0557 04       		.uleb128 0x4
 1067 0558 01       		.byte	0x1
 1068 0559 08       		.byte	0x8
 1069 055a CA070000 		.4byte	.LASF85
 1070 055e 06       		.uleb128 0x6
 1071 055f 57050000 		.4byte	0x557
 1072 0563 0B       		.uleb128 0xb
 1073 0564 04       		.byte	0x4
 1074 0565 9F040000 		.4byte	0x49f
 1075 0569 0B       		.uleb128 0xb
 1076 056a 04       		.byte	0x4
 1077 056b 6F050000 		.4byte	0x56f
 1078 056f 12       		.uleb128 0x12
 1079 0570 14010000 		.4byte	0x114
 1080 0574 7E050000 		.4byte	0x57e
 1081 0578 0E       		.uleb128 0xe
 1082 0579 A9020000 		.4byte	0x2a9
 1083 057d 00       		.byte	0
ARM GAS  /var/folders/3j/4xdnk5197cv_b7cw3n33qk7r0000gn/T//cceqryy0.s 			page 20


 1084 057e 0A       		.uleb128 0xa
 1085 057f 16       		.byte	0x16
 1086 0580 0D       		.byte	0xd
 1087 0581 25       		.byte	0x25
 1088 0582 5F060000 		.4byte	0x65f
 1089 0586 08       		.uleb128 0x8
 1090 0587 4A040000 		.4byte	.LASF86
 1091 058b 0D       		.byte	0xd
 1092 058c 26       		.byte	0x26
 1093 058d 5F060000 		.4byte	0x65f
 1094 0591 00       		.byte	0
 1095 0592 08       		.uleb128 0x8
 1096 0593 3D050000 		.4byte	.LASF87
 1097 0597 0D       		.byte	0xd
 1098 0598 27       		.byte	0x27
 1099 0599 A7000000 		.4byte	0xa7
 1100 059d 04       		.byte	0x4
 1101 059e 08       		.uleb128 0x8
 1102 059f E2050000 		.4byte	.LASF88
 1103 05a3 0D       		.byte	0xd
 1104 05a4 28       		.byte	0x28
 1105 05a5 A7000000 		.4byte	0xa7
 1106 05a9 05       		.byte	0x5
 1107 05aa 08       		.uleb128 0x8
 1108 05ab 64090000 		.4byte	.LASF89
 1109 05af 0D       		.byte	0xd
 1110 05b0 29       		.byte	0x29
 1111 05b1 B7000000 		.4byte	0xb7
 1112 05b5 06       		.byte	0x6
 1113 05b6 08       		.uleb128 0x8
 1114 05b7 4F060000 		.4byte	.LASF90
 1115 05bb 0D       		.byte	0xd
 1116 05bc 2A       		.byte	0x2a
 1117 05bd A7000000 		.4byte	0xa7
 1118 05c1 08       		.byte	0x8
 1119 05c2 08       		.uleb128 0x8
 1120 05c3 8C050000 		.4byte	.LASF91
 1121 05c7 0D       		.byte	0xd
 1122 05c8 2B       		.byte	0x2b
 1123 05c9 A7000000 		.4byte	0xa7
 1124 05cd 09       		.byte	0x9
 1125 05ce 08       		.uleb128 0x8
 1126 05cf DD000000 		.4byte	.LASF92
 1127 05d3 0D       		.byte	0xd
 1128 05d4 2C       		.byte	0x2c
 1129 05d5 A7000000 		.4byte	0xa7
 1130 05d9 0A       		.byte	0xa
 1131 05da 08       		.uleb128 0x8
 1132 05db 8D070000 		.4byte	.LASF93
 1133 05df 0D       		.byte	0xd
 1134 05e0 2D       		.byte	0x2d
 1135 05e1 A7000000 		.4byte	0xa7
 1136 05e5 0B       		.byte	0xb
 1137 05e6 08       		.uleb128 0x8
 1138 05e7 BE080000 		.4byte	.LASF94
 1139 05eb 0D       		.byte	0xd
 1140 05ec 2E       		.byte	0x2e
ARM GAS  /var/folders/3j/4xdnk5197cv_b7cw3n33qk7r0000gn/T//cceqryy0.s 			page 21


 1141 05ed A7000000 		.4byte	0xa7
 1142 05f1 0C       		.byte	0xc
 1143 05f2 08       		.uleb128 0x8
 1144 05f3 57070000 		.4byte	.LASF95
 1145 05f7 0D       		.byte	0xd
 1146 05f8 2F       		.byte	0x2f
 1147 05f9 A7000000 		.4byte	0xa7
 1148 05fd 0D       		.byte	0xd
 1149 05fe 08       		.uleb128 0x8
 1150 05ff 53000000 		.4byte	.LASF96
 1151 0603 0D       		.byte	0xd
 1152 0604 30       		.byte	0x30
 1153 0605 A7000000 		.4byte	0xa7
 1154 0609 0E       		.byte	0xe
 1155 060a 08       		.uleb128 0x8
 1156 060b A1050000 		.4byte	.LASF97
 1157 060f 0D       		.byte	0xd
 1158 0610 31       		.byte	0x31
 1159 0611 A7000000 		.4byte	0xa7
 1160 0615 0F       		.byte	0xf
 1161 0616 08       		.uleb128 0x8
 1162 0617 75010000 		.4byte	.LASF98
 1163 061b 0D       		.byte	0xd
 1164 061c 32       		.byte	0x32
 1165 061d A7000000 		.4byte	0xa7
 1166 0621 10       		.byte	0x10
 1167 0622 08       		.uleb128 0x8
 1168 0623 37010000 		.4byte	.LASF99
 1169 0627 0D       		.byte	0xd
 1170 0628 34       		.byte	0x34
 1171 0629 A7000000 		.4byte	0xa7
 1172 062d 11       		.byte	0x11
 1173 062e 08       		.uleb128 0x8
 1174 062f 8E010000 		.4byte	.LASF100
 1175 0633 0D       		.byte	0xd
 1176 0634 35       		.byte	0x35
 1177 0635 A7000000 		.4byte	0xa7
 1178 0639 12       		.byte	0x12
 1179 063a 08       		.uleb128 0x8
 1180 063b 45050000 		.4byte	.LASF101
 1181 063f 0D       		.byte	0xd
 1182 0640 36       		.byte	0x36
 1183 0641 A7000000 		.4byte	0xa7
 1184 0645 13       		.byte	0x13
 1185 0646 08       		.uleb128 0x8
 1186 0647 2B070000 		.4byte	.LASF102
 1187 064b 0D       		.byte	0xd
 1188 064c 37       		.byte	0x37
 1189 064d A7000000 		.4byte	0xa7
 1190 0651 14       		.byte	0x14
 1191 0652 08       		.uleb128 0x8
 1192 0653 F9060000 		.4byte	.LASF103
 1193 0657 0D       		.byte	0xd
 1194 0658 39       		.byte	0x39
 1195 0659 A7000000 		.4byte	0xa7
 1196 065d 15       		.byte	0x15
 1197 065e 00       		.byte	0
ARM GAS  /var/folders/3j/4xdnk5197cv_b7cw3n33qk7r0000gn/T//cceqryy0.s 			page 22


 1198 065f 13       		.uleb128 0x13
 1199 0660 57050000 		.4byte	0x557
 1200 0664 6F060000 		.4byte	0x66f
 1201 0668 14       		.uleb128 0x14
 1202 0669 37000000 		.4byte	0x37
 1203 066d 03       		.byte	0x3
 1204 066e 00       		.byte	0
 1205 066f 03       		.uleb128 0x3
 1206 0670 16030000 		.4byte	.LASF104
 1207 0674 0D       		.byte	0xd
 1208 0675 3A       		.byte	0x3a
 1209 0676 7E050000 		.4byte	0x57e
 1210 067a 06       		.uleb128 0x6
 1211 067b 6F060000 		.4byte	0x66f
 1212 067f 0F       		.uleb128 0xf
 1213 0680 2B040000 		.4byte	.LASF105
 1214 0684 0D       		.byte	0xd
 1215 0685 77       		.byte	0x77
 1216 0686 7A060000 		.4byte	0x67a
 1217 068a 03       		.uleb128 0x3
 1218 068b 18050000 		.4byte	.LASF106
 1219 068f 0E       		.byte	0xe
 1220 0690 30       		.byte	0x30
 1221 0691 95060000 		.4byte	0x695
 1222 0695 07       		.uleb128 0x7
 1223 0696 18050000 		.4byte	.LASF106
 1224 069a 24       		.byte	0x24
 1225 069b 0E       		.byte	0xe
 1226 069c 3E       		.byte	0x3e
 1227 069d 02070000 		.4byte	0x702
 1228 06a1 08       		.uleb128 0x8
 1229 06a2 51010000 		.4byte	.LASF107
 1230 06a6 0E       		.byte	0xe
 1231 06a7 3F       		.byte	0x3f
 1232 06a8 68020000 		.4byte	0x268
 1233 06ac 00       		.byte	0
 1234 06ad 08       		.uleb128 0x8
 1235 06ae 7A050000 		.4byte	.LASF108
 1236 06b2 0E       		.byte	0xe
 1237 06b3 40       		.byte	0x40
 1238 06b4 2C000000 		.4byte	0x2c
 1239 06b8 08       		.byte	0x8
 1240 06b9 08       		.uleb128 0x8
 1241 06ba FF020000 		.4byte	.LASF109
 1242 06be 0E       		.byte	0xe
 1243 06bf 41       		.byte	0x41
 1244 06c0 24070000 		.4byte	0x724
 1245 06c4 0C       		.byte	0xc
 1246 06c5 08       		.uleb128 0x8
 1247 06c6 B4000000 		.4byte	.LASF110
 1248 06ca 0E       		.byte	0xe
 1249 06cb 42       		.byte	0x42
 1250 06cc 24070000 		.4byte	0x724
 1251 06d0 10       		.byte	0x10
 1252 06d1 08       		.uleb128 0x8
 1253 06d2 C7050000 		.4byte	.LASF111
 1254 06d6 0E       		.byte	0xe
ARM GAS  /var/folders/3j/4xdnk5197cv_b7cw3n33qk7r0000gn/T//cceqryy0.s 			page 23


 1255 06d7 44       		.byte	0x44
 1256 06d8 24070000 		.4byte	0x724
 1257 06dc 14       		.byte	0x14
 1258 06dd 08       		.uleb128 0x8
 1259 06de 81060000 		.4byte	.LASF112
 1260 06e2 0E       		.byte	0xe
 1261 06e3 45       		.byte	0x45
 1262 06e4 24070000 		.4byte	0x724
 1263 06e8 18       		.byte	0x18
 1264 06e9 08       		.uleb128 0x8
 1265 06ea EE080000 		.4byte	.LASF113
 1266 06ee 0E       		.byte	0xe
 1267 06ef 46       		.byte	0x46
 1268 06f0 02070000 		.4byte	0x702
 1269 06f4 1C       		.byte	0x1c
 1270 06f5 08       		.uleb128 0x8
 1271 06f6 81090000 		.4byte	.LASF114
 1272 06fa 0E       		.byte	0xe
 1273 06fb 47       		.byte	0x47
 1274 06fc A9020000 		.4byte	0x2a9
 1275 0700 20       		.byte	0x20
 1276 0701 00       		.byte	0
 1277 0702 03       		.uleb128 0x3
 1278 0703 5A060000 		.4byte	.LASF115
 1279 0707 0E       		.byte	0xe
 1280 0708 33       		.byte	0x33
 1281 0709 0D070000 		.4byte	0x70d
 1282 070d 0B       		.uleb128 0xb
 1283 070e 04       		.byte	0x4
 1284 070f 13070000 		.4byte	0x713
 1285 0713 0D       		.uleb128 0xd
 1286 0714 1E070000 		.4byte	0x71e
 1287 0718 0E       		.uleb128 0xe
 1288 0719 1E070000 		.4byte	0x71e
 1289 071d 00       		.byte	0
 1290 071e 0B       		.uleb128 0xb
 1291 071f 04       		.byte	0x4
 1292 0720 8A060000 		.4byte	0x68a
 1293 0724 0B       		.uleb128 0xb
 1294 0725 04       		.byte	0x4
 1295 0726 A7000000 		.4byte	0xa7
 1296 072a 03       		.uleb128 0x3
 1297 072b F9040000 		.4byte	.LASF116
 1298 072f 0E       		.byte	0xe
 1299 0730 7B       		.byte	0x7b
 1300 0731 8A060000 		.4byte	0x68a
 1301 0735 03       		.uleb128 0x3
 1302 0736 7A000000 		.4byte	.LASF117
 1303 073a 0E       		.byte	0xe
 1304 073b EE       		.byte	0xee
 1305 073c 8A060000 		.4byte	0x68a
 1306 0740 12       		.uleb128 0x12
 1307 0741 2C000000 		.4byte	0x2c
 1308 0745 59070000 		.4byte	0x759
 1309 0749 0E       		.uleb128 0xe
 1310 074a A9020000 		.4byte	0x2a9
 1311 074e 0E       		.uleb128 0xe
ARM GAS  /var/folders/3j/4xdnk5197cv_b7cw3n33qk7r0000gn/T//cceqryy0.s 			page 24


 1312 074f 59070000 		.4byte	0x759
 1313 0753 0E       		.uleb128 0xe
 1314 0754 2C000000 		.4byte	0x2c
 1315 0758 00       		.byte	0
 1316 0759 0B       		.uleb128 0xb
 1317 075a 04       		.byte	0x4
 1318 075b B2000000 		.4byte	0xb2
 1319 075f 0B       		.uleb128 0xb
 1320 0760 04       		.byte	0x4
 1321 0761 40070000 		.4byte	0x740
 1322 0765 12       		.uleb128 0x12
 1323 0766 2C000000 		.4byte	0x2c
 1324 076a 7E070000 		.4byte	0x77e
 1325 076e 0E       		.uleb128 0xe
 1326 076f A9020000 		.4byte	0x2a9
 1327 0773 0E       		.uleb128 0xe
 1328 0774 24070000 		.4byte	0x724
 1329 0778 0E       		.uleb128 0xe
 1330 0779 2C000000 		.4byte	0x2c
 1331 077d 00       		.byte	0
 1332 077e 0B       		.uleb128 0xb
 1333 077f 04       		.byte	0x4
 1334 0780 65070000 		.4byte	0x765
 1335 0784 12       		.uleb128 0x12
 1336 0785 14010000 		.4byte	0x114
 1337 0789 98070000 		.4byte	0x798
 1338 078d 0E       		.uleb128 0xe
 1339 078e A9020000 		.4byte	0x2a9
 1340 0792 0E       		.uleb128 0xe
 1341 0793 A7000000 		.4byte	0xa7
 1342 0797 00       		.byte	0
 1343 0798 0B       		.uleb128 0xb
 1344 0799 04       		.byte	0x4
 1345 079a 84070000 		.4byte	0x784
 1346 079e 13       		.uleb128 0x13
 1347 079f 93020000 		.4byte	0x293
 1348 07a3 AE070000 		.4byte	0x7ae
 1349 07a7 14       		.uleb128 0x14
 1350 07a8 37000000 		.4byte	0x37
 1351 07ac 26       		.byte	0x26
 1352 07ad 00       		.byte	0
 1353 07ae 0F       		.uleb128 0xf
 1354 07af 42030000 		.4byte	.LASF118
 1355 07b3 0F       		.byte	0xf
 1356 07b4 82       		.byte	0x82
 1357 07b5 9E070000 		.4byte	0x79e
 1358 07b9 07       		.uleb128 0x7
 1359 07ba A2000000 		.4byte	.LASF119
 1360 07be 20       		.byte	0x20
 1361 07bf 10       		.byte	0x10
 1362 07c0 FD       		.byte	0xfd
 1363 07c1 2C080000 		.4byte	0x82c
 1364 07c5 08       		.uleb128 0x8
 1365 07c6 8B030000 		.4byte	.LASF120
 1366 07ca 10       		.byte	0x10
 1367 07cb FE       		.byte	0xfe
 1368 07cc 3E000000 		.4byte	0x3e
ARM GAS  /var/folders/3j/4xdnk5197cv_b7cw3n33qk7r0000gn/T//cceqryy0.s 			page 25


 1369 07d0 00       		.byte	0
 1370 07d1 08       		.uleb128 0x8
 1371 07d2 DD080000 		.4byte	.LASF121
 1372 07d6 10       		.byte	0x10
 1373 07d7 FF       		.byte	0xff
 1374 07d8 3E000000 		.4byte	0x3e
 1375 07dc 04       		.byte	0x4
 1376 07dd 15       		.uleb128 0x15
 1377 07de 6F090000 		.4byte	.LASF122
 1378 07e2 10       		.byte	0x10
 1379 07e3 0001     		.2byte	0x100
 1380 07e5 3E000000 		.4byte	0x3e
 1381 07e9 08       		.byte	0x8
 1382 07ea 15       		.uleb128 0x15
 1383 07eb AF030000 		.4byte	.LASF123
 1384 07ef 10       		.byte	0x10
 1385 07f0 0101     		.2byte	0x101
 1386 07f2 3E000000 		.4byte	0x3e
 1387 07f6 0C       		.byte	0xc
 1388 07f7 15       		.uleb128 0x15
 1389 07f8 27010000 		.4byte	.LASF124
 1390 07fc 10       		.byte	0x10
 1391 07fd 0201     		.2byte	0x102
 1392 07ff 3E000000 		.4byte	0x3e
 1393 0803 10       		.byte	0x10
 1394 0804 15       		.uleb128 0x15
 1395 0805 6D050000 		.4byte	.LASF125
 1396 0809 10       		.byte	0x10
 1397 080a 0301     		.2byte	0x103
 1398 080c 3E000000 		.4byte	0x3e
 1399 0810 14       		.byte	0x14
 1400 0811 15       		.uleb128 0x15
 1401 0812 EF020000 		.4byte	.LASF126
 1402 0816 10       		.byte	0x10
 1403 0817 0401     		.2byte	0x104
 1404 0819 3E000000 		.4byte	0x3e
 1405 081d 18       		.byte	0x18
 1406 081e 15       		.uleb128 0x15
 1407 081f C5090000 		.4byte	.LASF127
 1408 0823 10       		.byte	0x10
 1409 0824 0501     		.2byte	0x105
 1410 0826 3E000000 		.4byte	0x3e
 1411 082a 1C       		.byte	0x1c
 1412 082b 00       		.byte	0
 1413 082c 16       		.uleb128 0x16
 1414 082d A2000000 		.4byte	.LASF119
 1415 0831 10       		.byte	0x10
 1416 0832 0801     		.2byte	0x108
 1417 0834 B9070000 		.4byte	0x7b9
 1418 0838 12       		.uleb128 0x12
 1419 0839 14010000 		.4byte	0x114
 1420 083d 51080000 		.4byte	0x851
 1421 0841 0E       		.uleb128 0xe
 1422 0842 A9020000 		.4byte	0x2a9
 1423 0846 0E       		.uleb128 0xe
 1424 0847 A7000000 		.4byte	0xa7
 1425 084b 0E       		.uleb128 0xe
ARM GAS  /var/folders/3j/4xdnk5197cv_b7cw3n33qk7r0000gn/T//cceqryy0.s 			page 26


 1426 084c 35010000 		.4byte	0x135
 1427 0850 00       		.byte	0
 1428 0851 0B       		.uleb128 0xb
 1429 0852 04       		.byte	0x4
 1430 0853 38080000 		.4byte	0x838
 1431 0857 12       		.uleb128 0x12
 1432 0858 14010000 		.4byte	0x114
 1433 085c 6B080000 		.4byte	0x86b
 1434 0860 0E       		.uleb128 0xe
 1435 0861 A9020000 		.4byte	0x2a9
 1436 0865 0E       		.uleb128 0xe
 1437 0866 35010000 		.4byte	0x135
 1438 086a 00       		.byte	0
 1439 086b 0B       		.uleb128 0xb
 1440 086c 04       		.byte	0x4
 1441 086d 57080000 		.4byte	0x857
 1442 0871 12       		.uleb128 0x12
 1443 0872 2C000000 		.4byte	0x2c
 1444 0876 8F080000 		.4byte	0x88f
 1445 087a 0E       		.uleb128 0xe
 1446 087b A9020000 		.4byte	0x2a9
 1447 087f 0E       		.uleb128 0xe
 1448 0880 59070000 		.4byte	0x759
 1449 0884 0E       		.uleb128 0xe
 1450 0885 2C000000 		.4byte	0x2c
 1451 0889 0E       		.uleb128 0xe
 1452 088a 35010000 		.4byte	0x135
 1453 088e 00       		.byte	0
 1454 088f 0B       		.uleb128 0xb
 1455 0890 04       		.byte	0x4
 1456 0891 71080000 		.4byte	0x871
 1457 0895 12       		.uleb128 0x12
 1458 0896 2C000000 		.4byte	0x2c
 1459 089a B3080000 		.4byte	0x8b3
 1460 089e 0E       		.uleb128 0xe
 1461 089f A9020000 		.4byte	0x2a9
 1462 08a3 0E       		.uleb128 0xe
 1463 08a4 24070000 		.4byte	0x724
 1464 08a8 0E       		.uleb128 0xe
 1465 08a9 2C000000 		.4byte	0x2c
 1466 08ad 0E       		.uleb128 0xe
 1467 08ae 35010000 		.4byte	0x135
 1468 08b2 00       		.byte	0
 1469 08b3 0B       		.uleb128 0xb
 1470 08b4 04       		.byte	0x4
 1471 08b5 95080000 		.4byte	0x895
 1472 08b9 0A       		.uleb128 0xa
 1473 08ba 18       		.byte	0x18
 1474 08bb 11       		.byte	0x11
 1475 08bc 2A       		.byte	0x2a
 1476 08bd 0A090000 		.4byte	0x90a
 1477 08c1 08       		.uleb128 0x8
 1478 08c2 05090000 		.4byte	.LASF128
 1479 08c6 11       		.byte	0x11
 1480 08c7 2F       		.byte	0x2f
 1481 08c8 CD000000 		.4byte	0xcd
 1482 08cc 00       		.byte	0
ARM GAS  /var/folders/3j/4xdnk5197cv_b7cw3n33qk7r0000gn/T//cceqryy0.s 			page 27


 1483 08cd 08       		.uleb128 0x8
 1484 08ce 14060000 		.4byte	.LASF129
 1485 08d2 11       		.byte	0x11
 1486 08d3 31       		.byte	0x31
 1487 08d4 0A090000 		.4byte	0x90a
 1488 08d8 04       		.byte	0x4
 1489 08d9 08       		.uleb128 0x8
 1490 08da AF040000 		.4byte	.LASF130
 1491 08de 11       		.byte	0x11
 1492 08df 32       		.byte	0x32
 1493 08e0 0A090000 		.4byte	0x90a
 1494 08e4 08       		.byte	0x8
 1495 08e5 08       		.uleb128 0x8
 1496 08e6 51050000 		.4byte	.LASF131
 1497 08ea 11       		.byte	0x11
 1498 08eb 33       		.byte	0x33
 1499 08ec 0A090000 		.4byte	0x90a
 1500 08f0 0C       		.byte	0xc
 1501 08f1 08       		.uleb128 0x8
 1502 08f2 1A060000 		.4byte	.LASF132
 1503 08f6 11       		.byte	0x11
 1504 08f7 34       		.byte	0x34
 1505 08f8 0A090000 		.4byte	0x90a
 1506 08fc 10       		.byte	0x10
 1507 08fd 08       		.uleb128 0x8
 1508 08fe 0C070000 		.4byte	.LASF133
 1509 0902 11       		.byte	0x11
 1510 0903 35       		.byte	0x35
 1511 0904 37000000 		.4byte	0x37
 1512 0908 14       		.byte	0x14
 1513 0909 00       		.byte	0
 1514 090a 0B       		.uleb128 0xb
 1515 090b 04       		.byte	0x4
 1516 090c D8000000 		.4byte	0xd8
 1517 0910 03       		.uleb128 0x3
 1518 0911 A3040000 		.4byte	.LASF134
 1519 0915 11       		.byte	0x11
 1520 0916 37       		.byte	0x37
 1521 0917 B9080000 		.4byte	0x8b9
 1522 091b 17       		.uleb128 0x17
 1523 091c 00       		.byte	0
 1524 091d 11       		.byte	0x11
 1525 091e 43       		.byte	0x43
 1526 091f 03       		.uleb128 0x3
 1527 0920 88090000 		.4byte	.LASF135
 1528 0924 11       		.byte	0x11
 1529 0925 45       		.byte	0x45
 1530 0926 1B090000 		.4byte	0x91b
 1531 092a 06       		.uleb128 0x6
 1532 092b 1F090000 		.4byte	0x91f
 1533 092f 0F       		.uleb128 0xf
 1534 0930 EA050000 		.4byte	.LASF136
 1535 0934 11       		.byte	0x11
 1536 0935 6D       		.byte	0x6d
 1537 0936 10090000 		.4byte	0x910
 1538 093a 0F       		.uleb128 0xf
 1539 093b 23070000 		.4byte	.LASF137
ARM GAS  /var/folders/3j/4xdnk5197cv_b7cw3n33qk7r0000gn/T//cceqryy0.s 			page 28


 1540 093f 11       		.byte	0x11
 1541 0940 6E       		.byte	0x6e
 1542 0941 10090000 		.4byte	0x910
 1543 0945 0F       		.uleb128 0xf
 1544 0946 9A090000 		.4byte	.LASF138
 1545 094a 11       		.byte	0x11
 1546 094b 75       		.byte	0x75
 1547 094c 2A090000 		.4byte	0x92a
 1548 0950 18       		.uleb128 0x18
 1549 0951 07       		.byte	0x7
 1550 0952 01       		.byte	0x1
 1551 0953 55000000 		.4byte	0x55
 1552 0957 12       		.byte	0x12
 1553 0958 54       		.byte	0x54
 1554 0959 82090000 		.4byte	0x982
 1555 095d 19       		.uleb128 0x19
 1556 095e A2020000 		.4byte	.LASF139
 1557 0962 00       		.byte	0
 1558 0963 19       		.uleb128 0x19
 1559 0964 64050000 		.4byte	.LASF140
 1560 0968 01       		.byte	0x1
 1561 0969 19       		.uleb128 0x19
 1562 096a 1F080000 		.4byte	.LASF141
 1563 096e 02       		.byte	0x2
 1564 096f 19       		.uleb128 0x19
 1565 0970 20030000 		.4byte	.LASF142
 1566 0974 03       		.byte	0x3
 1567 0975 19       		.uleb128 0x19
 1568 0976 0A050000 		.4byte	.LASF143
 1569 097a 04       		.byte	0x4
 1570 097b 19       		.uleb128 0x19
 1571 097c 64070000 		.4byte	.LASF144
 1572 0980 05       		.byte	0x5
 1573 0981 00       		.byte	0
 1574 0982 03       		.uleb128 0x3
 1575 0983 44060000 		.4byte	.LASF145
 1576 0987 12       		.byte	0x12
 1577 0988 5B       		.byte	0x5b
 1578 0989 50090000 		.4byte	0x950
 1579 098d 03       		.uleb128 0x3
 1580 098e 29080000 		.4byte	.LASF146
 1581 0992 13       		.byte	0x13
 1582 0993 38       		.byte	0x38
 1583 0994 98090000 		.4byte	0x998
 1584 0998 07       		.uleb128 0x7
 1585 0999 29080000 		.4byte	.LASF146
 1586 099d 40       		.byte	0x40
 1587 099e 13       		.byte	0x13
 1588 099f 62       		.byte	0x62
 1589 09a0 410A0000 		.4byte	0xa41
 1590 09a4 08       		.uleb128 0x8
 1591 09a5 B7020000 		.4byte	.LASF147
 1592 09a9 13       		.byte	0x13
 1593 09aa 64       		.byte	0x64
 1594 09ab 82090000 		.4byte	0x982
 1595 09af 00       		.byte	0
 1596 09b0 08       		.uleb128 0x8
ARM GAS  /var/folders/3j/4xdnk5197cv_b7cw3n33qk7r0000gn/T//cceqryy0.s 			page 29


 1597 09b1 DC070000 		.4byte	.LASF148
 1598 09b5 13       		.byte	0x13
 1599 09b6 66       		.byte	0x66
 1600 09b7 820A0000 		.4byte	0xa82
 1601 09bb 04       		.byte	0x4
 1602 09bc 08       		.uleb128 0x8
 1603 09bd 0B040000 		.4byte	.LASF149
 1604 09c1 13       		.byte	0x13
 1605 09c2 68       		.byte	0x68
 1606 09c3 410A0000 		.4byte	0xa41
 1607 09c7 08       		.byte	0x8
 1608 09c8 08       		.uleb128 0x8
 1609 09c9 4A010000 		.4byte	.LASF150
 1610 09cd 13       		.byte	0x13
 1611 09ce 6A       		.byte	0x6a
 1612 09cf 880A0000 		.4byte	0xa88
 1613 09d3 0C       		.byte	0xc
 1614 09d4 08       		.uleb128 0x8
 1615 09d5 94060000 		.4byte	.LASF151
 1616 09d9 13       		.byte	0x13
 1617 09da 6D       		.byte	0x6d
 1618 09db 9F040000 		.4byte	0x49f
 1619 09df 10       		.byte	0x10
 1620 09e0 08       		.uleb128 0x8
 1621 09e1 E8020000 		.4byte	.LASF152
 1622 09e5 13       		.byte	0x13
 1623 09e6 77       		.byte	0x77
 1624 09e7 62020000 		.4byte	0x262
 1625 09eb 20       		.byte	0x20
 1626 09ec 08       		.uleb128 0x8
 1627 09ed CA010000 		.4byte	.LASF153
 1628 09f1 13       		.byte	0x13
 1629 09f2 7B       		.byte	0x7b
 1630 09f3 4C0A0000 		.4byte	0xa4c
 1631 09f7 24       		.byte	0x24
 1632 09f8 08       		.uleb128 0x8
 1633 09f9 F5030000 		.4byte	.LASF154
 1634 09fd 13       		.byte	0x13
 1635 09fe 7F       		.byte	0x7f
 1636 09ff 59070000 		.4byte	0x759
 1637 0a03 28       		.byte	0x28
 1638 0a04 08       		.uleb128 0x8
 1639 0a05 BD090000 		.4byte	.LASF155
 1640 0a09 13       		.byte	0x13
 1641 0a0a 83       		.byte	0x83
 1642 0a0b 2C000000 		.4byte	0x2c
 1643 0a0f 2C       		.byte	0x2c
 1644 0a10 08       		.uleb128 0x8
 1645 0a11 B8080000 		.4byte	.LASF156
 1646 0a15 13       		.byte	0x13
 1647 0a16 87       		.byte	0x87
 1648 0a17 2C000000 		.4byte	0x2c
 1649 0a1b 30       		.byte	0x30
 1650 0a1c 08       		.uleb128 0x8
 1651 0a1d AE000000 		.4byte	.LASF157
 1652 0a21 13       		.byte	0x13
 1653 0a22 8B       		.byte	0x8b
ARM GAS  /var/folders/3j/4xdnk5197cv_b7cw3n33qk7r0000gn/T//cceqryy0.s 			page 30


 1654 0a23 24070000 		.4byte	0x724
 1655 0a27 34       		.byte	0x34
 1656 0a28 08       		.uleb128 0x8
 1657 0a29 BF050000 		.4byte	.LASF158
 1658 0a2d 13       		.byte	0x13
 1659 0a2e 8F       		.byte	0x8f
 1660 0a2f 2C000000 		.4byte	0x2c
 1661 0a33 38       		.byte	0x38
 1662 0a34 08       		.uleb128 0x8
 1663 0a35 F9020000 		.4byte	.LASF159
 1664 0a39 13       		.byte	0x13
 1665 0a3a 93       		.byte	0x93
 1666 0a3b 2C000000 		.4byte	0x2c
 1667 0a3f 3C       		.byte	0x3c
 1668 0a40 00       		.byte	0
 1669 0a41 03       		.uleb128 0x3
 1670 0a42 89060000 		.4byte	.LASF160
 1671 0a46 13       		.byte	0x13
 1672 0a47 42       		.byte	0x42
 1673 0a48 CD000000 		.4byte	0xcd
 1674 0a4c 03       		.uleb128 0x3
 1675 0a4d AD020000 		.4byte	.LASF161
 1676 0a51 13       		.byte	0x13
 1677 0a52 48       		.byte	0x48
 1678 0a53 B7000000 		.4byte	0xb7
 1679 0a57 0B       		.uleb128 0xb
 1680 0a58 04       		.byte	0x4
 1681 0a59 8D090000 		.4byte	0x98d
 1682 0a5d 0A       		.uleb128 0xa
 1683 0a5e 04       		.byte	0x4
 1684 0a5f 13       		.byte	0x13
 1685 0a60 57       		.byte	0x57
 1686 0a61 720A0000 		.4byte	0xa72
 1687 0a65 08       		.uleb128 0x8
 1688 0a66 98050000 		.4byte	.LASF162
 1689 0a6a 13       		.byte	0x13
 1690 0a6b 59       		.byte	0x59
 1691 0a6c CD000000 		.4byte	0xcd
 1692 0a70 00       		.byte	0
 1693 0a71 00       		.byte	0
 1694 0a72 03       		.uleb128 0x3
 1695 0a73 A4080000 		.4byte	.LASF163
 1696 0a77 13       		.byte	0x13
 1697 0a78 5B       		.byte	0x5b
 1698 0a79 5D0A0000 		.4byte	0xa5d
 1699 0a7d 06       		.uleb128 0x6
 1700 0a7e 720A0000 		.4byte	0xa72
 1701 0a82 0B       		.uleb128 0xb
 1702 0a83 04       		.byte	0x4
 1703 0a84 7D0A0000 		.4byte	0xa7d
 1704 0a88 0B       		.uleb128 0xb
 1705 0a89 04       		.byte	0x4
 1706 0a8a 2C080000 		.4byte	0x82c
 1707 0a8e 0F       		.uleb128 0xf
 1708 0a8f CA030000 		.4byte	.LASF164
 1709 0a93 13       		.byte	0x13
 1710 0a94 A6       		.byte	0xa6
ARM GAS  /var/folders/3j/4xdnk5197cv_b7cw3n33qk7r0000gn/T//cceqryy0.s 			page 31


 1711 0a95 8D090000 		.4byte	0x98d
 1712 0a99 0F       		.uleb128 0xf
 1713 0a9a CF030000 		.4byte	.LASF165
 1714 0a9e 13       		.byte	0x13
 1715 0a9f A7       		.byte	0xa7
 1716 0aa0 8D090000 		.4byte	0x98d
 1717 0aa4 18       		.uleb128 0x18
 1718 0aa5 07       		.byte	0x7
 1719 0aa6 01       		.byte	0x1
 1720 0aa7 55000000 		.4byte	0x55
 1721 0aab 14       		.byte	0x14
 1722 0aac 5D       		.byte	0x5d
 1723 0aad C40A0000 		.4byte	0xac4
 1724 0ab1 19       		.uleb128 0x19
 1725 0ab2 7A070000 		.4byte	.LASF166
 1726 0ab6 00       		.byte	0
 1727 0ab7 19       		.uleb128 0x19
 1728 0ab8 9B010000 		.4byte	.LASF167
 1729 0abc 01       		.byte	0x1
 1730 0abd 19       		.uleb128 0x19
 1731 0abe 69080000 		.4byte	.LASF168
 1732 0ac2 02       		.byte	0x2
 1733 0ac3 00       		.byte	0
 1734 0ac4 03       		.uleb128 0x3
 1735 0ac5 AE080000 		.4byte	.LASF169
 1736 0ac9 14       		.byte	0x14
 1737 0aca 61       		.byte	0x61
 1738 0acb A40A0000 		.4byte	0xaa4
 1739 0acf 03       		.uleb128 0x3
 1740 0ad0 AE070000 		.4byte	.LASF170
 1741 0ad4 14       		.byte	0x14
 1742 0ad5 66       		.byte	0x66
 1743 0ad6 DA0A0000 		.4byte	0xada
 1744 0ada 07       		.uleb128 0x7
 1745 0adb AE070000 		.4byte	.LASF170
 1746 0adf 74       		.byte	0x74
 1747 0ae0 14       		.byte	0x14
 1748 0ae1 80       		.byte	0x80
 1749 0ae2 390B0000 		.4byte	0xb39
 1750 0ae6 09       		.uleb128 0x9
 1751 0ae7 766D7400 		.ascii	"vmt\000"
 1752 0aeb 14       		.byte	0x14
 1753 0aec 82       		.byte	0x82
 1754 0aed B60B0000 		.4byte	0xbb6
 1755 0af1 00       		.byte	0
 1756 0af2 08       		.uleb128 0x8
 1757 0af3 82040000 		.4byte	.LASF171
 1758 0af7 14       		.byte	0x14
 1759 0af8 83       		.byte	0x83
 1760 0af9 11050000 		.4byte	0x511
 1761 0afd 04       		.byte	0x4
 1762 0afe 08       		.uleb128 0x8
 1763 0aff B7020000 		.4byte	.LASF147
 1764 0b03 14       		.byte	0x14
 1765 0b04 83       		.byte	0x83
 1766 0b05 C40A0000 		.4byte	0xac4
 1767 0b09 08       		.byte	0x8
ARM GAS  /var/folders/3j/4xdnk5197cv_b7cw3n33qk7r0000gn/T//cceqryy0.s 			page 32


 1768 0b0a 08       		.uleb128 0x8
 1769 0b0b 12040000 		.4byte	.LASF172
 1770 0b0f 14       		.byte	0x14
 1771 0b10 83       		.byte	0x83
 1772 0b11 2A070000 		.4byte	0x72a
 1773 0b15 0C       		.byte	0xc
 1774 0b16 08       		.uleb128 0x8
 1775 0b17 BB040000 		.4byte	.LASF173
 1776 0b1b 14       		.byte	0x14
 1777 0b1c 83       		.byte	0x83
 1778 0b1d 35070000 		.4byte	0x735
 1779 0b21 30       		.byte	0x30
 1780 0b22 09       		.uleb128 0x9
 1781 0b23 696200   		.ascii	"ib\000"
 1782 0b26 14       		.byte	0x14
 1783 0b27 83       		.byte	0x83
 1784 0b28 BC0B0000 		.4byte	0xbbc
 1785 0b2c 54       		.byte	0x54
 1786 0b2d 09       		.uleb128 0x9
 1787 0b2e 6F6200   		.ascii	"ob\000"
 1788 0b31 14       		.byte	0x14
 1789 0b32 83       		.byte	0x83
 1790 0b33 BC0B0000 		.4byte	0xbbc
 1791 0b37 64       		.byte	0x64
 1792 0b38 00       		.byte	0
 1793 0b39 1A       		.uleb128 0x1a
 1794 0b3a 53443100 		.ascii	"SD1\000"
 1795 0b3e 17       		.byte	0x17
 1796 0b3f 62       		.byte	0x62
 1797 0b40 CF0A0000 		.4byte	0xacf
 1798 0b44 07       		.uleb128 0x7
 1799 0b45 FB030000 		.4byte	.LASF174
 1800 0b49 20       		.byte	0x20
 1801 0b4a 14       		.byte	0x14
 1802 0b4b 75       		.byte	0x75
 1803 0b4c B10B0000 		.4byte	0xbb1
 1804 0b50 08       		.uleb128 0x8
 1805 0b51 74000000 		.4byte	.LASF175
 1806 0b55 14       		.byte	0x14
 1807 0b56 76       		.byte	0x76
 1808 0b57 5F070000 		.4byte	0x75f
 1809 0b5b 00       		.byte	0
 1810 0b5c 08       		.uleb128 0x8
 1811 0b5d C5070000 		.4byte	.LASF176
 1812 0b61 14       		.byte	0x14
 1813 0b62 76       		.byte	0x76
 1814 0b63 7E070000 		.4byte	0x77e
 1815 0b67 04       		.byte	0x4
 1816 0b68 09       		.uleb128 0x9
 1817 0b69 70757400 		.ascii	"put\000"
 1818 0b6d 14       		.byte	0x14
 1819 0b6e 76       		.byte	0x76
 1820 0b6f 98070000 		.4byte	0x798
 1821 0b73 08       		.byte	0x8
 1822 0b74 09       		.uleb128 0x9
 1823 0b75 67657400 		.ascii	"get\000"
 1824 0b79 14       		.byte	0x14
ARM GAS  /var/folders/3j/4xdnk5197cv_b7cw3n33qk7r0000gn/T//cceqryy0.s 			page 33


 1825 0b7a 76       		.byte	0x76
 1826 0b7b 69050000 		.4byte	0x569
 1827 0b7f 0C       		.byte	0xc
 1828 0b80 08       		.uleb128 0x8
 1829 0b81 57050000 		.4byte	.LASF177
 1830 0b85 14       		.byte	0x14
 1831 0b86 76       		.byte	0x76
 1832 0b87 51080000 		.4byte	0x851
 1833 0b8b 10       		.byte	0x10
 1834 0b8c 08       		.uleb128 0x8
 1835 0b8d 3C040000 		.4byte	.LASF178
 1836 0b91 14       		.byte	0x14
 1837 0b92 76       		.byte	0x76
 1838 0b93 6B080000 		.4byte	0x86b
 1839 0b97 14       		.byte	0x14
 1840 0b98 08       		.uleb128 0x8
 1841 0b99 D2040000 		.4byte	.LASF179
 1842 0b9d 14       		.byte	0x14
 1843 0b9e 76       		.byte	0x76
 1844 0b9f 8F080000 		.4byte	0x88f
 1845 0ba3 18       		.byte	0x18
 1846 0ba4 08       		.uleb128 0x8
 1847 0ba5 44010000 		.4byte	.LASF180
 1848 0ba9 14       		.byte	0x14
 1849 0baa 76       		.byte	0x76
 1850 0bab B3080000 		.4byte	0x8b3
 1851 0baf 1C       		.byte	0x1c
 1852 0bb0 00       		.byte	0
 1853 0bb1 06       		.uleb128 0x6
 1854 0bb2 440B0000 		.4byte	0xb44
 1855 0bb6 0B       		.uleb128 0xb
 1856 0bb7 04       		.byte	0x4
 1857 0bb8 B10B0000 		.4byte	0xbb1
 1858 0bbc 13       		.uleb128 0x13
 1859 0bbd A7000000 		.4byte	0xa7
 1860 0bc1 CC0B0000 		.4byte	0xbcc
 1861 0bc5 14       		.uleb128 0x14
 1862 0bc6 37000000 		.4byte	0x37
 1863 0bca 0F       		.byte	0xf
 1864 0bcb 00       		.byte	0
 1865 0bcc 18       		.uleb128 0x18
 1866 0bcd 07       		.byte	0x7
 1867 0bce 01       		.byte	0x1
 1868 0bcf 55000000 		.4byte	0x55
 1869 0bd3 15       		.byte	0x15
 1870 0bd4 4E       		.byte	0x4e
 1871 0bd5 F80B0000 		.4byte	0xbf8
 1872 0bd9 19       		.uleb128 0x19
 1873 0bda 7C080000 		.4byte	.LASF181
 1874 0bde 00       		.byte	0
 1875 0bdf 19       		.uleb128 0x19
 1876 0be0 85010000 		.4byte	.LASF182
 1877 0be4 01       		.byte	0x1
 1878 0be5 19       		.uleb128 0x19
 1879 0be6 72080000 		.4byte	.LASF183
 1880 0bea 02       		.byte	0x2
 1881 0beb 19       		.uleb128 0x19
ARM GAS  /var/folders/3j/4xdnk5197cv_b7cw3n33qk7r0000gn/T//cceqryy0.s 			page 34


 1882 0bec 90000000 		.4byte	.LASF184
 1883 0bf0 03       		.byte	0x3
 1884 0bf1 19       		.uleb128 0x19
 1885 0bf2 CF070000 		.4byte	.LASF185
 1886 0bf6 04       		.byte	0x4
 1887 0bf7 00       		.byte	0
 1888 0bf8 03       		.uleb128 0x3
 1889 0bf9 EE070000 		.4byte	.LASF186
 1890 0bfd 15       		.byte	0x15
 1891 0bfe 54       		.byte	0x54
 1892 0bff CC0B0000 		.4byte	0xbcc
 1893 0c03 03       		.uleb128 0x3
 1894 0c04 18010000 		.4byte	.LASF187
 1895 0c08 16       		.byte	0x16
 1896 0c09 35       		.byte	0x35
 1897 0c0a 0E0C0000 		.4byte	0xc0e
 1898 0c0e 07       		.uleb128 0x7
 1899 0c0f 18010000 		.4byte	.LASF187
 1900 0c13 28       		.byte	0x28
 1901 0c14 16       		.byte	0x16
 1902 0c15 7C       		.byte	0x7c
 1903 0c16 6F0C0000 		.4byte	0xc6f
 1904 0c1a 08       		.uleb128 0x8
 1905 0c1b B7020000 		.4byte	.LASF147
 1906 0c1f 16       		.byte	0x16
 1907 0c20 80       		.byte	0x80
 1908 0c21 F80B0000 		.4byte	0xbf8
 1909 0c25 00       		.byte	0
 1910 0c26 08       		.uleb128 0x8
 1911 0c27 DC070000 		.4byte	.LASF148
 1912 0c2b 16       		.byte	0x16
 1913 0c2c 84       		.byte	0x84
 1914 0c2d 160D0000 		.4byte	0xd16
 1915 0c31 04       		.byte	0x4
 1916 0c32 08       		.uleb128 0x8
 1917 0c33 E8020000 		.4byte	.LASF152
 1918 0c37 16       		.byte	0x16
 1919 0c38 89       		.byte	0x89
 1920 0c39 62020000 		.4byte	0x262
 1921 0c3d 08       		.byte	0x8
 1922 0c3e 08       		.uleb128 0x8
 1923 0c3f 94060000 		.4byte	.LASF151
 1924 0c43 16       		.byte	0x16
 1925 0c44 90       		.byte	0x90
 1926 0c45 9F040000 		.4byte	0x49f
 1927 0c49 0C       		.byte	0xc
 1928 0c4a 08       		.uleb128 0x8
 1929 0c4b AE000000 		.4byte	.LASF157
 1930 0c4f 16       		.byte	0x16
 1931 0c50 98       		.byte	0x98
 1932 0c51 A9020000 		.4byte	0x2a9
 1933 0c55 1C       		.byte	0x1c
 1934 0c56 08       		.uleb128 0x8
 1935 0c57 F5030000 		.4byte	.LASF154
 1936 0c5b 16       		.byte	0x16
 1937 0c5c 9D       		.byte	0x9d
 1938 0c5d 1C0D0000 		.4byte	0xd1c
ARM GAS  /var/folders/3j/4xdnk5197cv_b7cw3n33qk7r0000gn/T//cceqryy0.s 			page 35


 1939 0c61 20       		.byte	0x20
 1940 0c62 08       		.uleb128 0x8
 1941 0c63 59030000 		.4byte	.LASF188
 1942 0c67 16       		.byte	0x16
 1943 0c68 A2       		.byte	0xa2
 1944 0c69 2C000000 		.4byte	0x2c
 1945 0c6d 24       		.byte	0x24
 1946 0c6e 00       		.byte	0
 1947 0c6f 03       		.uleb128 0x3
 1948 0c70 BC030000 		.4byte	.LASF189
 1949 0c74 16       		.byte	0x16
 1950 0c75 3D       		.byte	0x3d
 1951 0c76 7A0C0000 		.4byte	0xc7a
 1952 0c7a 0B       		.uleb128 0xb
 1953 0c7b 04       		.byte	0x4
 1954 0c7c 800C0000 		.4byte	0xc80
 1955 0c80 0D       		.uleb128 0xd
 1956 0c81 8B0C0000 		.4byte	0xc8b
 1957 0c85 0E       		.uleb128 0xe
 1958 0c86 8B0C0000 		.4byte	0xc8b
 1959 0c8a 00       		.byte	0
 1960 0c8b 0B       		.uleb128 0xb
 1961 0c8c 04       		.byte	0x4
 1962 0c8d 030C0000 		.4byte	0xc03
 1963 0c91 0A       		.uleb128 0xa
 1964 0c92 10       		.byte	0x10
 1965 0c93 16       		.byte	0x16
 1966 0c94 44       		.byte	0x44
 1967 0c95 060D0000 		.4byte	0xd06
 1968 0c99 08       		.uleb128 0x8
 1969 0c9a 52030000 		.4byte	.LASF190
 1970 0c9e 16       		.byte	0x16
 1971 0c9f 48       		.byte	0x48
 1972 0ca0 6F0C0000 		.4byte	0xc6f
 1973 0ca4 00       		.byte	0
 1974 0ca5 08       		.uleb128 0x8
 1975 0ca6 23060000 		.4byte	.LASF191
 1976 0caa 16       		.byte	0x16
 1977 0cab 4F       		.byte	0x4f
 1978 0cac A7000000 		.4byte	0xa7
 1979 0cb0 04       		.byte	0x4
 1980 0cb1 08       		.uleb128 0x8
 1981 0cb2 30060000 		.4byte	.LASF192
 1982 0cb6 16       		.byte	0x16
 1983 0cb7 52       		.byte	0x52
 1984 0cb8 A7000000 		.4byte	0xa7
 1985 0cbc 05       		.byte	0x5
 1986 0cbd 08       		.uleb128 0x8
 1987 0cbe 58040000 		.4byte	.LASF193
 1988 0cc2 16       		.byte	0x16
 1989 0cc3 58       		.byte	0x58
 1990 0cc4 A7000000 		.4byte	0xa7
 1991 0cc8 06       		.byte	0x6
 1992 0cc9 08       		.uleb128 0x8
 1993 0cca 5F030000 		.4byte	.LASF194
 1994 0cce 16       		.byte	0x16
 1995 0ccf 5E       		.byte	0x5e
ARM GAS  /var/folders/3j/4xdnk5197cv_b7cw3n33qk7r0000gn/T//cceqryy0.s 			page 36


 1996 0cd0 A7000000 		.4byte	0xa7
 1997 0cd4 07       		.byte	0x7
 1998 0cd5 08       		.uleb128 0x8
 1999 0cd6 75030000 		.4byte	.LASF195
 2000 0cda 16       		.byte	0x16
 2001 0cdb 64       		.byte	0x64
 2002 0cdc A7000000 		.4byte	0xa7
 2003 0ce0 08       		.byte	0x8
 2004 0ce1 08       		.uleb128 0x8
 2005 0ce2 3A080000 		.4byte	.LASF196
 2006 0ce6 16       		.byte	0x16
 2007 0ce7 6A       		.byte	0x6a
 2008 0ce8 A7000000 		.4byte	0xa7
 2009 0cec 09       		.byte	0x9
 2010 0ced 08       		.uleb128 0x8
 2011 0cee 2E030000 		.4byte	.LASF197
 2012 0cf2 16       		.byte	0x16
 2013 0cf3 70       		.byte	0x70
 2014 0cf4 A7000000 		.4byte	0xa7
 2015 0cf8 0A       		.byte	0xa
 2016 0cf9 08       		.uleb128 0x8
 2017 0cfa 49070000 		.4byte	.LASF198
 2018 0cfe 16       		.byte	0x16
 2019 0cff 73       		.byte	0x73
 2020 0d00 CD000000 		.4byte	0xcd
 2021 0d04 0C       		.byte	0xc
 2022 0d05 00       		.byte	0
 2023 0d06 03       		.uleb128 0x3
 2024 0d07 52090000 		.4byte	.LASF199
 2025 0d0b 16       		.byte	0x16
 2026 0d0c 75       		.byte	0x75
 2027 0d0d 910C0000 		.4byte	0xc91
 2028 0d11 06       		.uleb128 0x6
 2029 0d12 060D0000 		.4byte	0xd06
 2030 0d16 0B       		.uleb128 0xb
 2031 0d17 04       		.byte	0x4
 2032 0d18 110D0000 		.4byte	0xd11
 2033 0d1c 0B       		.uleb128 0xb
 2034 0d1d 04       		.byte	0x4
 2035 0d1e 220D0000 		.4byte	0xd22
 2036 0d22 1B       		.uleb128 0x1b
 2037 0d23 0F       		.uleb128 0xf
 2038 0d24 11030000 		.4byte	.LASF200
 2039 0d28 16       		.byte	0x16
 2040 0d29 B6       		.byte	0xb6
 2041 0d2a 030C0000 		.4byte	0xc03
 2042 0d2e 1C       		.uleb128 0x1c
 2043 0d2f 0A010000 		.4byte	.LASF201
 2044 0d33 01       		.byte	0x1
 2045 0d34 2101     		.2byte	0x121
 2046 0d36 00000000 		.4byte	.LFB15
 2047 0d3a 04000000 		.4byte	.LFE15-.LFB15
 2048 0d3e 01       		.uleb128 0x1
 2049 0d3f 9C       		.byte	0x9c
 2050 0d40 5E0D0000 		.4byte	0xd5e
 2051 0d44 1D       		.uleb128 0x1d
 2052 0d45 22010000 		.4byte	.LASF203
ARM GAS  /var/folders/3j/4xdnk5197cv_b7cw3n33qk7r0000gn/T//cceqryy0.s 			page 37


 2053 0d49 01       		.byte	0x1
 2054 0d4a 2101     		.2byte	0x121
 2055 0d4c 570A0000 		.4byte	0xa57
 2056 0d50 00000000 		.4byte	.LLST14
 2057 0d54 1E       		.uleb128 0x1e
 2058 0d55 04000000 		.4byte	.LVL18
 2059 0d59 D40F0000 		.4byte	0xfd4
 2060 0d5d 00       		.byte	0
 2061 0d5e 1C       		.uleb128 0x1c
 2062 0d5f 6B060000 		.4byte	.LASF202
 2063 0d63 01       		.byte	0x1
 2064 0d64 0D01     		.2byte	0x10d
 2065 0d66 00000000 		.4byte	.LFB14
 2066 0d6a 08000000 		.4byte	.LFE14-.LFB14
 2067 0d6e 01       		.uleb128 0x1
 2068 0d6f 9C       		.byte	0x9c
 2069 0d70 980D0000 		.4byte	0xd98
 2070 0d74 1D       		.uleb128 0x1d
 2071 0d75 22010000 		.4byte	.LASF203
 2072 0d79 01       		.byte	0x1
 2073 0d7a 0D01     		.2byte	0x10d
 2074 0d7c 570A0000 		.4byte	0xa57
 2075 0d80 21000000 		.4byte	.LLST13
 2076 0d84 1F       		.uleb128 0x1f
 2077 0d85 08000000 		.4byte	.LVL16
 2078 0d89 DF0F0000 		.4byte	0xfdf
 2079 0d8d 20       		.uleb128 0x20
 2080 0d8e 01       		.uleb128 0x1
 2081 0d8f 50       		.byte	0x50
 2082 0d90 05       		.uleb128 0x5
 2083 0d91 F3       		.byte	0xf3
 2084 0d92 01       		.uleb128 0x1
 2085 0d93 50       		.byte	0x50
 2086 0d94 23       		.byte	0x23
 2087 0d95 10       		.uleb128 0x10
 2088 0d96 00       		.byte	0
 2089 0d97 00       		.byte	0
 2090 0d98 21       		.uleb128 0x21
 2091 0d99 0B090000 		.4byte	.LASF205
 2092 0d9d 01       		.byte	0x1
 2093 0d9e E5       		.byte	0xe5
 2094 0d9f 14010000 		.4byte	0x114
 2095 0da3 00000000 		.4byte	.LFB13
 2096 0da7 48000000 		.4byte	.LFE13-.LFB13
 2097 0dab 01       		.uleb128 0x1
 2098 0dac 9C       		.byte	0x9c
 2099 0dad 270E0000 		.4byte	0xe27
 2100 0db1 22       		.uleb128 0x22
 2101 0db2 22010000 		.4byte	.LASF203
 2102 0db6 01       		.byte	0x1
 2103 0db7 E5       		.byte	0xe5
 2104 0db8 570A0000 		.4byte	0xa57
 2105 0dbc 4F000000 		.4byte	.LLST9
 2106 0dc0 22       		.uleb128 0x22
 2107 0dc1 CA010000 		.4byte	.LASF153
 2108 0dc5 01       		.byte	0x1
 2109 0dc6 E6       		.byte	0xe6
ARM GAS  /var/folders/3j/4xdnk5197cv_b7cw3n33qk7r0000gn/T//cceqryy0.s 			page 38


 2110 0dc7 4C0A0000 		.4byte	0xa4c
 2111 0dcb 6D000000 		.4byte	.LLST10
 2112 0dcf 22       		.uleb128 0x22
 2113 0dd0 AE000000 		.4byte	.LASF157
 2114 0dd4 01       		.byte	0x1
 2115 0dd5 E7       		.byte	0xe7
 2116 0dd6 24070000 		.4byte	0x724
 2117 0dda 8E000000 		.4byte	.LLST11
 2118 0dde 22       		.uleb128 0x22
 2119 0ddf BF050000 		.4byte	.LASF158
 2120 0de3 01       		.byte	0x1
 2121 0de4 E8       		.byte	0xe8
 2122 0de5 2C000000 		.4byte	0x2c
 2123 0de9 AF000000 		.4byte	.LLST12
 2124 0ded 23       		.uleb128 0x23
 2125 0dee 34040000 		.4byte	.LASF204
 2126 0df2 01       		.byte	0x1
 2127 0df3 E9       		.byte	0xe9
 2128 0df4 35010000 		.4byte	0x135
 2129 0df8 02       		.uleb128 0x2
 2130 0df9 91       		.byte	0x91
 2131 0dfa 00       		.sleb128 0
 2132 0dfb 24       		.uleb128 0x24
 2133 0dfc 6D000000 		.4byte	.LASF81
 2134 0e00 01       		.byte	0x1
 2135 0e01 EB       		.byte	0xeb
 2136 0e02 14010000 		.4byte	0x114
 2137 0e06 01       		.uleb128 0x1
 2138 0e07 50       		.byte	0x50
 2139 0e08 25       		.uleb128 0x25
 2140 0e09 2C000000 		.4byte	.LVL13
 2141 0e0d EA0F0000 		.4byte	0xfea
 2142 0e11 20       		.uleb128 0x20
 2143 0e12 01       		.uleb128 0x1
 2144 0e13 50       		.byte	0x50
 2145 0e14 02       		.uleb128 0x2
 2146 0e15 74       		.byte	0x74
 2147 0e16 00       		.sleb128 0
 2148 0e17 20       		.uleb128 0x20
 2149 0e18 01       		.uleb128 0x1
 2150 0e19 52       		.byte	0x52
 2151 0e1a 03       		.uleb128 0x3
 2152 0e1b F3       		.byte	0xf3
 2153 0e1c 01       		.uleb128 0x1
 2154 0e1d 52       		.byte	0x52
 2155 0e1e 20       		.uleb128 0x20
 2156 0e1f 01       		.uleb128 0x1
 2157 0e20 53       		.byte	0x53
 2158 0e21 03       		.uleb128 0x3
 2159 0e22 F3       		.byte	0xf3
 2160 0e23 01       		.uleb128 0x1
 2161 0e24 53       		.byte	0x53
 2162 0e25 00       		.byte	0
 2163 0e26 00       		.byte	0
 2164 0e27 21       		.uleb128 0x21
 2165 0e28 C6020000 		.4byte	.LASF206
 2166 0e2c 01       		.byte	0x1
ARM GAS  /var/folders/3j/4xdnk5197cv_b7cw3n33qk7r0000gn/T//cceqryy0.s 			page 39


 2167 0e2d B2       		.byte	0xb2
 2168 0e2e 14010000 		.4byte	0x114
 2169 0e32 00000000 		.4byte	.LFB12
 2170 0e36 5C000000 		.4byte	.LFE12-.LFB12
 2171 0e3a 01       		.uleb128 0x1
 2172 0e3b 9C       		.byte	0x9c
 2173 0e3c DB0E0000 		.4byte	0xedb
 2174 0e40 22       		.uleb128 0x22
 2175 0e41 22010000 		.4byte	.LASF203
 2176 0e45 01       		.byte	0x1
 2177 0e46 B2       		.byte	0xb2
 2178 0e47 570A0000 		.4byte	0xa57
 2179 0e4b D0000000 		.4byte	.LLST5
 2180 0e4f 22       		.uleb128 0x22
 2181 0e50 CA010000 		.4byte	.LASF153
 2182 0e54 01       		.byte	0x1
 2183 0e55 B3       		.byte	0xb3
 2184 0e56 4C0A0000 		.4byte	0xa4c
 2185 0e5a EE000000 		.4byte	.LLST6
 2186 0e5e 22       		.uleb128 0x22
 2187 0e5f F5030000 		.4byte	.LASF154
 2188 0e63 01       		.byte	0x1
 2189 0e64 B4       		.byte	0xb4
 2190 0e65 59070000 		.4byte	0x759
 2191 0e69 0F010000 		.4byte	.LLST7
 2192 0e6d 22       		.uleb128 0x22
 2193 0e6e BD090000 		.4byte	.LASF155
 2194 0e72 01       		.byte	0x1
 2195 0e73 B5       		.byte	0xb5
 2196 0e74 2C000000 		.4byte	0x2c
 2197 0e78 30010000 		.4byte	.LLST8
 2198 0e7c 23       		.uleb128 0x23
 2199 0e7d AE000000 		.4byte	.LASF157
 2200 0e81 01       		.byte	0x1
 2201 0e82 B6       		.byte	0xb6
 2202 0e83 24070000 		.4byte	0x724
 2203 0e87 02       		.uleb128 0x2
 2204 0e88 91       		.byte	0x91
 2205 0e89 00       		.sleb128 0
 2206 0e8a 23       		.uleb128 0x23
 2207 0e8b BF050000 		.4byte	.LASF158
 2208 0e8f 01       		.byte	0x1
 2209 0e90 B7       		.byte	0xb7
 2210 0e91 2C000000 		.4byte	0x2c
 2211 0e95 02       		.uleb128 0x2
 2212 0e96 91       		.byte	0x91
 2213 0e97 04       		.sleb128 4
 2214 0e98 23       		.uleb128 0x23
 2215 0e99 34040000 		.4byte	.LASF204
 2216 0e9d 01       		.byte	0x1
 2217 0e9e B8       		.byte	0xb8
 2218 0e9f 35010000 		.4byte	0x135
 2219 0ea3 02       		.uleb128 0x2
 2220 0ea4 91       		.byte	0x91
 2221 0ea5 08       		.sleb128 8
 2222 0ea6 24       		.uleb128 0x24
 2223 0ea7 6D000000 		.4byte	.LASF81
ARM GAS  /var/folders/3j/4xdnk5197cv_b7cw3n33qk7r0000gn/T//cceqryy0.s 			page 40


 2224 0eab 01       		.byte	0x1
 2225 0eac B9       		.byte	0xb9
 2226 0ead 14010000 		.4byte	0x114
 2227 0eb1 01       		.uleb128 0x1
 2228 0eb2 50       		.byte	0x50
 2229 0eb3 25       		.uleb128 0x25
 2230 0eb4 40000000 		.4byte	.LVL11
 2231 0eb8 F50F0000 		.4byte	0xff5
 2232 0ebc 20       		.uleb128 0x20
 2233 0ebd 01       		.uleb128 0x1
 2234 0ebe 50       		.byte	0x50
 2235 0ebf 02       		.uleb128 0x2
 2236 0ec0 74       		.byte	0x74
 2237 0ec1 00       		.sleb128 0
 2238 0ec2 20       		.uleb128 0x20
 2239 0ec3 01       		.uleb128 0x1
 2240 0ec4 52       		.byte	0x52
 2241 0ec5 03       		.uleb128 0x3
 2242 0ec6 F3       		.byte	0xf3
 2243 0ec7 01       		.uleb128 0x1
 2244 0ec8 52       		.byte	0x52
 2245 0ec9 20       		.uleb128 0x20
 2246 0eca 01       		.uleb128 0x1
 2247 0ecb 53       		.byte	0x53
 2248 0ecc 03       		.uleb128 0x3
 2249 0ecd F3       		.byte	0xf3
 2250 0ece 01       		.uleb128 0x1
 2251 0ecf 53       		.byte	0x53
 2252 0ed0 20       		.uleb128 0x20
 2253 0ed1 02       		.uleb128 0x2
 2254 0ed2 7D       		.byte	0x7d
 2255 0ed3 04       		.sleb128 4
 2256 0ed4 04       		.uleb128 0x4
 2257 0ed5 91       		.byte	0x91
 2258 0ed6 7C       		.sleb128 -4
 2259 0ed7 94       		.byte	0x94
 2260 0ed8 01       		.byte	0x1
 2261 0ed9 00       		.byte	0
 2262 0eda 00       		.byte	0
 2263 0edb 21       		.uleb128 0x21
 2264 0edc FD000000 		.4byte	.LASF207
 2265 0ee0 01       		.byte	0x1
 2266 0ee1 91       		.byte	0x91
 2267 0ee2 410A0000 		.4byte	0xa41
 2268 0ee6 00000000 		.4byte	.LFB11
 2269 0eea 08000000 		.4byte	.LFE11-.LFB11
 2270 0eee 01       		.uleb128 0x1
 2271 0eef 9C       		.byte	0x9c
 2272 0ef0 040F0000 		.4byte	0xf04
 2273 0ef4 22       		.uleb128 0x22
 2274 0ef5 22010000 		.4byte	.LASF203
 2275 0ef9 01       		.byte	0x1
 2276 0efa 91       		.byte	0x91
 2277 0efb 570A0000 		.4byte	0xa57
 2278 0eff 51010000 		.4byte	.LLST4
 2279 0f03 00       		.byte	0
 2280 0f04 26       		.uleb128 0x26
ARM GAS  /var/folders/3j/4xdnk5197cv_b7cw3n33qk7r0000gn/T//cceqryy0.s 			page 41


 2281 0f05 0C060000 		.4byte	.LASF208
 2282 0f09 01       		.byte	0x1
 2283 0f0a 7B       		.byte	0x7b
 2284 0f0b 00000000 		.4byte	.LFB10
 2285 0f0f 20000000 		.4byte	.LFE10-.LFB10
 2286 0f13 01       		.uleb128 0x1
 2287 0f14 9C       		.byte	0x9c
 2288 0f15 390F0000 		.4byte	0xf39
 2289 0f19 22       		.uleb128 0x22
 2290 0f1a 22010000 		.4byte	.LASF203
 2291 0f1e 01       		.byte	0x1
 2292 0f1f 7B       		.byte	0x7b
 2293 0f20 570A0000 		.4byte	0xa57
 2294 0f24 72010000 		.4byte	.LLST3
 2295 0f28 25       		.uleb128 0x25
 2296 0f29 10000000 		.4byte	.LVL7
 2297 0f2d 00100000 		.4byte	0x1000
 2298 0f31 20       		.uleb128 0x20
 2299 0f32 01       		.uleb128 0x1
 2300 0f33 50       		.byte	0x50
 2301 0f34 02       		.uleb128 0x2
 2302 0f35 74       		.byte	0x74
 2303 0f36 00       		.sleb128 0
 2304 0f37 00       		.byte	0
 2305 0f38 00       		.byte	0
 2306 0f39 26       		.uleb128 0x26
 2307 0f3a EB000000 		.4byte	.LASF209
 2308 0f3e 01       		.byte	0x1
 2309 0f3f 65       		.byte	0x65
 2310 0f40 00000000 		.4byte	.LFB9
 2311 0f44 24000000 		.4byte	.LFE9-.LFB9
 2312 0f48 01       		.uleb128 0x1
 2313 0f49 9C       		.byte	0x9c
 2314 0f4a 7D0F0000 		.4byte	0xf7d
 2315 0f4e 22       		.uleb128 0x22
 2316 0f4f 22010000 		.4byte	.LASF203
 2317 0f53 01       		.byte	0x1
 2318 0f54 65       		.byte	0x65
 2319 0f55 570A0000 		.4byte	0xa57
 2320 0f59 90010000 		.4byte	.LLST1
 2321 0f5d 22       		.uleb128 0x22
 2322 0f5e DC070000 		.4byte	.LASF148
 2323 0f62 01       		.byte	0x1
 2324 0f63 65       		.byte	0x65
 2325 0f64 820A0000 		.4byte	0xa82
 2326 0f68 AE010000 		.4byte	.LLST2
 2327 0f6c 25       		.uleb128 0x25
 2328 0f6d 14000000 		.4byte	.LVL5
 2329 0f71 0B100000 		.4byte	0x100b
 2330 0f75 20       		.uleb128 0x20
 2331 0f76 01       		.uleb128 0x1
 2332 0f77 50       		.byte	0x50
 2333 0f78 02       		.uleb128 0x2
 2334 0f79 74       		.byte	0x74
 2335 0f7a 00       		.sleb128 0
 2336 0f7b 00       		.byte	0
 2337 0f7c 00       		.byte	0
ARM GAS  /var/folders/3j/4xdnk5197cv_b7cw3n33qk7r0000gn/T//cceqryy0.s 			page 42


 2338 0f7d 26       		.uleb128 0x26
 2339 0f7e 49080000 		.4byte	.LASF210
 2340 0f82 01       		.byte	0x1
 2341 0f83 4B       		.byte	0x4b
 2342 0f84 00000000 		.4byte	.LFB8
 2343 0f88 18000000 		.4byte	.LFE8-.LFB8
 2344 0f8c 01       		.uleb128 0x1
 2345 0f8d 9C       		.byte	0x9c
 2346 0f8e B50F0000 		.4byte	0xfb5
 2347 0f92 22       		.uleb128 0x22
 2348 0f93 22010000 		.4byte	.LASF203
 2349 0f97 01       		.byte	0x1
 2350 0f98 4B       		.byte	0x4b
 2351 0f99 570A0000 		.4byte	0xa57
 2352 0f9d CF010000 		.4byte	.LLST0
 2353 0fa1 1F       		.uleb128 0x1f
 2354 0fa2 18000000 		.4byte	.LVL3
 2355 0fa6 16100000 		.4byte	0x1016
 2356 0faa 20       		.uleb128 0x20
 2357 0fab 01       		.uleb128 0x1
 2358 0fac 50       		.byte	0x50
 2359 0fad 05       		.uleb128 0x5
 2360 0fae F3       		.byte	0xf3
 2361 0faf 01       		.uleb128 0x1
 2362 0fb0 50       		.byte	0x50
 2363 0fb1 23       		.byte	0x23
 2364 0fb2 10       		.uleb128 0x10
 2365 0fb3 00       		.byte	0
 2366 0fb4 00       		.byte	0
 2367 0fb5 26       		.uleb128 0x26
 2368 0fb6 5C090000 		.4byte	.LASF211
 2369 0fba 01       		.byte	0x1
 2370 0fbb 40       		.byte	0x40
 2371 0fbc 00000000 		.4byte	.LFB7
 2372 0fc0 04000000 		.4byte	.LFE7-.LFB7
 2373 0fc4 01       		.uleb128 0x1
 2374 0fc5 9C       		.byte	0x9c
 2375 0fc6 D40F0000 		.4byte	0xfd4
 2376 0fca 1E       		.uleb128 0x1e
 2377 0fcb 04000000 		.4byte	.LVL0
 2378 0fcf 21100000 		.4byte	0x1021
 2379 0fd3 00       		.byte	0
 2380 0fd4 27       		.uleb128 0x27
 2381 0fd5 D1000000 		.4byte	.LASF212
 2382 0fd9 D1000000 		.4byte	.LASF212
 2383 0fdd 0B       		.byte	0xb
 2384 0fde 36       		.byte	0x36
 2385 0fdf 27       		.uleb128 0x27
 2386 0fe0 AD050000 		.4byte	.LASF213
 2387 0fe4 AD050000 		.4byte	.LASF213
 2388 0fe8 0B       		.byte	0xb
 2389 0fe9 32       		.byte	0x32
 2390 0fea 27       		.uleb128 0x27
 2391 0feb AB010000 		.4byte	.LASF214
 2392 0fef AB010000 		.4byte	.LASF214
 2393 0ff3 13       		.byte	0x13
 2394 0ff4 B5       		.byte	0xb5
ARM GAS  /var/folders/3j/4xdnk5197cv_b7cw3n33qk7r0000gn/T//cceqryy0.s 			page 43


 2395 0ff5 27       		.uleb128 0x27
 2396 0ff6 CF010000 		.4byte	.LASF215
 2397 0ffa CF010000 		.4byte	.LASF215
 2398 0ffe 13       		.byte	0x13
 2399 0fff B0       		.byte	0xb0
 2400 1000 27       		.uleb128 0x27
 2401 1001 30050000 		.4byte	.LASF216
 2402 1005 30050000 		.4byte	.LASF216
 2403 1009 13       		.byte	0x13
 2404 100a AE       		.byte	0xae
 2405 100b 27       		.uleb128 0x27
 2406 100c 9A060000 		.4byte	.LASF217
 2407 1010 9A060000 		.4byte	.LASF217
 2408 1014 13       		.byte	0x13
 2409 1015 AD       		.byte	0xad
 2410 1016 27       		.uleb128 0x27
 2411 1017 8E080000 		.4byte	.LASF218
 2412 101b 8E080000 		.4byte	.LASF218
 2413 101f 0B       		.byte	0xb
 2414 1020 31       		.byte	0x31
 2415 1021 27       		.uleb128 0x27
 2416 1022 C9080000 		.4byte	.LASF219
 2417 1026 C9080000 		.4byte	.LASF219
 2418 102a 13       		.byte	0x13
 2419 102b AC       		.byte	0xac
 2420 102c 00       		.byte	0
 2421              		.section	.debug_abbrev,"",%progbits
 2422              	.Ldebug_abbrev0:
 2423 0000 01       		.uleb128 0x1
 2424 0001 11       		.uleb128 0x11
 2425 0002 01       		.byte	0x1
 2426 0003 25       		.uleb128 0x25
 2427 0004 0E       		.uleb128 0xe
 2428 0005 13       		.uleb128 0x13
 2429 0006 0B       		.uleb128 0xb
 2430 0007 03       		.uleb128 0x3
 2431 0008 0E       		.uleb128 0xe
 2432 0009 1B       		.uleb128 0x1b
 2433 000a 0E       		.uleb128 0xe
 2434 000b 55       		.uleb128 0x55
 2435 000c 17       		.uleb128 0x17
 2436 000d 11       		.uleb128 0x11
 2437 000e 01       		.uleb128 0x1
 2438 000f 10       		.uleb128 0x10
 2439 0010 17       		.uleb128 0x17
 2440 0011 00       		.byte	0
 2441 0012 00       		.byte	0
 2442 0013 02       		.uleb128 0x2
 2443 0014 24       		.uleb128 0x24
 2444 0015 00       		.byte	0
 2445 0016 0B       		.uleb128 0xb
 2446 0017 0B       		.uleb128 0xb
 2447 0018 3E       		.uleb128 0x3e
 2448 0019 0B       		.uleb128 0xb
 2449 001a 03       		.uleb128 0x3
 2450 001b 08       		.uleb128 0x8
 2451 001c 00       		.byte	0
ARM GAS  /var/folders/3j/4xdnk5197cv_b7cw3n33qk7r0000gn/T//cceqryy0.s 			page 44


 2452 001d 00       		.byte	0
 2453 001e 03       		.uleb128 0x3
 2454 001f 16       		.uleb128 0x16
 2455 0020 00       		.byte	0
 2456 0021 03       		.uleb128 0x3
 2457 0022 0E       		.uleb128 0xe
 2458 0023 3A       		.uleb128 0x3a
 2459 0024 0B       		.uleb128 0xb
 2460 0025 3B       		.uleb128 0x3b
 2461 0026 0B       		.uleb128 0xb
 2462 0027 49       		.uleb128 0x49
 2463 0028 13       		.uleb128 0x13
 2464 0029 00       		.byte	0
 2465 002a 00       		.byte	0
 2466 002b 04       		.uleb128 0x4
 2467 002c 24       		.uleb128 0x24
 2468 002d 00       		.byte	0
 2469 002e 0B       		.uleb128 0xb
 2470 002f 0B       		.uleb128 0xb
 2471 0030 3E       		.uleb128 0x3e
 2472 0031 0B       		.uleb128 0xb
 2473 0032 03       		.uleb128 0x3
 2474 0033 0E       		.uleb128 0xe
 2475 0034 00       		.byte	0
 2476 0035 00       		.byte	0
 2477 0036 05       		.uleb128 0x5
 2478 0037 35       		.uleb128 0x35
 2479 0038 00       		.byte	0
 2480 0039 49       		.uleb128 0x49
 2481 003a 13       		.uleb128 0x13
 2482 003b 00       		.byte	0
 2483 003c 00       		.byte	0
 2484 003d 06       		.uleb128 0x6
 2485 003e 26       		.uleb128 0x26
 2486 003f 00       		.byte	0
 2487 0040 49       		.uleb128 0x49
 2488 0041 13       		.uleb128 0x13
 2489 0042 00       		.byte	0
 2490 0043 00       		.byte	0
 2491 0044 07       		.uleb128 0x7
 2492 0045 13       		.uleb128 0x13
 2493 0046 01       		.byte	0x1
 2494 0047 03       		.uleb128 0x3
 2495 0048 0E       		.uleb128 0xe
 2496 0049 0B       		.uleb128 0xb
 2497 004a 0B       		.uleb128 0xb
 2498 004b 3A       		.uleb128 0x3a
 2499 004c 0B       		.uleb128 0xb
 2500 004d 3B       		.uleb128 0x3b
 2501 004e 0B       		.uleb128 0xb
 2502 004f 01       		.uleb128 0x1
 2503 0050 13       		.uleb128 0x13
 2504 0051 00       		.byte	0
 2505 0052 00       		.byte	0
 2506 0053 08       		.uleb128 0x8
 2507 0054 0D       		.uleb128 0xd
 2508 0055 00       		.byte	0
ARM GAS  /var/folders/3j/4xdnk5197cv_b7cw3n33qk7r0000gn/T//cceqryy0.s 			page 45


 2509 0056 03       		.uleb128 0x3
 2510 0057 0E       		.uleb128 0xe
 2511 0058 3A       		.uleb128 0x3a
 2512 0059 0B       		.uleb128 0xb
 2513 005a 3B       		.uleb128 0x3b
 2514 005b 0B       		.uleb128 0xb
 2515 005c 49       		.uleb128 0x49
 2516 005d 13       		.uleb128 0x13
 2517 005e 38       		.uleb128 0x38
 2518 005f 0B       		.uleb128 0xb
 2519 0060 00       		.byte	0
 2520 0061 00       		.byte	0
 2521 0062 09       		.uleb128 0x9
 2522 0063 0D       		.uleb128 0xd
 2523 0064 00       		.byte	0
 2524 0065 03       		.uleb128 0x3
 2525 0066 08       		.uleb128 0x8
 2526 0067 3A       		.uleb128 0x3a
 2527 0068 0B       		.uleb128 0xb
 2528 0069 3B       		.uleb128 0x3b
 2529 006a 0B       		.uleb128 0xb
 2530 006b 49       		.uleb128 0x49
 2531 006c 13       		.uleb128 0x13
 2532 006d 38       		.uleb128 0x38
 2533 006e 0B       		.uleb128 0xb
 2534 006f 00       		.byte	0
 2535 0070 00       		.byte	0
 2536 0071 0A       		.uleb128 0xa
 2537 0072 13       		.uleb128 0x13
 2538 0073 01       		.byte	0x1
 2539 0074 0B       		.uleb128 0xb
 2540 0075 0B       		.uleb128 0xb
 2541 0076 3A       		.uleb128 0x3a
 2542 0077 0B       		.uleb128 0xb
 2543 0078 3B       		.uleb128 0x3b
 2544 0079 0B       		.uleb128 0xb
 2545 007a 01       		.uleb128 0x1
 2546 007b 13       		.uleb128 0x13
 2547 007c 00       		.byte	0
 2548 007d 00       		.byte	0
 2549 007e 0B       		.uleb128 0xb
 2550 007f 0F       		.uleb128 0xf
 2551 0080 00       		.byte	0
 2552 0081 0B       		.uleb128 0xb
 2553 0082 0B       		.uleb128 0xb
 2554 0083 49       		.uleb128 0x49
 2555 0084 13       		.uleb128 0x13
 2556 0085 00       		.byte	0
 2557 0086 00       		.byte	0
 2558 0087 0C       		.uleb128 0xc
 2559 0088 0F       		.uleb128 0xf
 2560 0089 00       		.byte	0
 2561 008a 0B       		.uleb128 0xb
 2562 008b 0B       		.uleb128 0xb
 2563 008c 00       		.byte	0
 2564 008d 00       		.byte	0
 2565 008e 0D       		.uleb128 0xd
ARM GAS  /var/folders/3j/4xdnk5197cv_b7cw3n33qk7r0000gn/T//cceqryy0.s 			page 46


 2566 008f 15       		.uleb128 0x15
 2567 0090 01       		.byte	0x1
 2568 0091 27       		.uleb128 0x27
 2569 0092 19       		.uleb128 0x19
 2570 0093 01       		.uleb128 0x1
 2571 0094 13       		.uleb128 0x13
 2572 0095 00       		.byte	0
 2573 0096 00       		.byte	0
 2574 0097 0E       		.uleb128 0xe
 2575 0098 05       		.uleb128 0x5
 2576 0099 00       		.byte	0
 2577 009a 49       		.uleb128 0x49
 2578 009b 13       		.uleb128 0x13
 2579 009c 00       		.byte	0
 2580 009d 00       		.byte	0
 2581 009e 0F       		.uleb128 0xf
 2582 009f 34       		.uleb128 0x34
 2583 00a0 00       		.byte	0
 2584 00a1 03       		.uleb128 0x3
 2585 00a2 0E       		.uleb128 0xe
 2586 00a3 3A       		.uleb128 0x3a
 2587 00a4 0B       		.uleb128 0xb
 2588 00a5 3B       		.uleb128 0x3b
 2589 00a6 0B       		.uleb128 0xb
 2590 00a7 49       		.uleb128 0x49
 2591 00a8 13       		.uleb128 0x13
 2592 00a9 3F       		.uleb128 0x3f
 2593 00aa 19       		.uleb128 0x19
 2594 00ab 3C       		.uleb128 0x3c
 2595 00ac 19       		.uleb128 0x19
 2596 00ad 00       		.byte	0
 2597 00ae 00       		.byte	0
 2598 00af 10       		.uleb128 0x10
 2599 00b0 17       		.uleb128 0x17
 2600 00b1 01       		.byte	0x1
 2601 00b2 0B       		.uleb128 0xb
 2602 00b3 0B       		.uleb128 0xb
 2603 00b4 3A       		.uleb128 0x3a
 2604 00b5 0B       		.uleb128 0xb
 2605 00b6 3B       		.uleb128 0x3b
 2606 00b7 0B       		.uleb128 0xb
 2607 00b8 01       		.uleb128 0x1
 2608 00b9 13       		.uleb128 0x13
 2609 00ba 00       		.byte	0
 2610 00bb 00       		.byte	0
 2611 00bc 11       		.uleb128 0x11
 2612 00bd 0D       		.uleb128 0xd
 2613 00be 00       		.byte	0
 2614 00bf 03       		.uleb128 0x3
 2615 00c0 0E       		.uleb128 0xe
 2616 00c1 3A       		.uleb128 0x3a
 2617 00c2 0B       		.uleb128 0xb
 2618 00c3 3B       		.uleb128 0x3b
 2619 00c4 0B       		.uleb128 0xb
 2620 00c5 49       		.uleb128 0x49
 2621 00c6 13       		.uleb128 0x13
 2622 00c7 00       		.byte	0
ARM GAS  /var/folders/3j/4xdnk5197cv_b7cw3n33qk7r0000gn/T//cceqryy0.s 			page 47


 2623 00c8 00       		.byte	0
 2624 00c9 12       		.uleb128 0x12
 2625 00ca 15       		.uleb128 0x15
 2626 00cb 01       		.byte	0x1
 2627 00cc 27       		.uleb128 0x27
 2628 00cd 19       		.uleb128 0x19
 2629 00ce 49       		.uleb128 0x49
 2630 00cf 13       		.uleb128 0x13
 2631 00d0 01       		.uleb128 0x1
 2632 00d1 13       		.uleb128 0x13
 2633 00d2 00       		.byte	0
 2634 00d3 00       		.byte	0
 2635 00d4 13       		.uleb128 0x13
 2636 00d5 01       		.uleb128 0x1
 2637 00d6 01       		.byte	0x1
 2638 00d7 49       		.uleb128 0x49
 2639 00d8 13       		.uleb128 0x13
 2640 00d9 01       		.uleb128 0x1
 2641 00da 13       		.uleb128 0x13
 2642 00db 00       		.byte	0
 2643 00dc 00       		.byte	0
 2644 00dd 14       		.uleb128 0x14
 2645 00de 21       		.uleb128 0x21
 2646 00df 00       		.byte	0
 2647 00e0 49       		.uleb128 0x49
 2648 00e1 13       		.uleb128 0x13
 2649 00e2 2F       		.uleb128 0x2f
 2650 00e3 0B       		.uleb128 0xb
 2651 00e4 00       		.byte	0
 2652 00e5 00       		.byte	0
 2653 00e6 15       		.uleb128 0x15
 2654 00e7 0D       		.uleb128 0xd
 2655 00e8 00       		.byte	0
 2656 00e9 03       		.uleb128 0x3
 2657 00ea 0E       		.uleb128 0xe
 2658 00eb 3A       		.uleb128 0x3a
 2659 00ec 0B       		.uleb128 0xb
 2660 00ed 3B       		.uleb128 0x3b
 2661 00ee 05       		.uleb128 0x5
 2662 00ef 49       		.uleb128 0x49
 2663 00f0 13       		.uleb128 0x13
 2664 00f1 38       		.uleb128 0x38
 2665 00f2 0B       		.uleb128 0xb
 2666 00f3 00       		.byte	0
 2667 00f4 00       		.byte	0
 2668 00f5 16       		.uleb128 0x16
 2669 00f6 16       		.uleb128 0x16
 2670 00f7 00       		.byte	0
 2671 00f8 03       		.uleb128 0x3
 2672 00f9 0E       		.uleb128 0xe
 2673 00fa 3A       		.uleb128 0x3a
 2674 00fb 0B       		.uleb128 0xb
 2675 00fc 3B       		.uleb128 0x3b
 2676 00fd 05       		.uleb128 0x5
 2677 00fe 49       		.uleb128 0x49
 2678 00ff 13       		.uleb128 0x13
 2679 0100 00       		.byte	0
ARM GAS  /var/folders/3j/4xdnk5197cv_b7cw3n33qk7r0000gn/T//cceqryy0.s 			page 48


 2680 0101 00       		.byte	0
 2681 0102 17       		.uleb128 0x17
 2682 0103 13       		.uleb128 0x13
 2683 0104 00       		.byte	0
 2684 0105 0B       		.uleb128 0xb
 2685 0106 0B       		.uleb128 0xb
 2686 0107 3A       		.uleb128 0x3a
 2687 0108 0B       		.uleb128 0xb
 2688 0109 3B       		.uleb128 0x3b
 2689 010a 0B       		.uleb128 0xb
 2690 010b 00       		.byte	0
 2691 010c 00       		.byte	0
 2692 010d 18       		.uleb128 0x18
 2693 010e 04       		.uleb128 0x4
 2694 010f 01       		.byte	0x1
 2695 0110 3E       		.uleb128 0x3e
 2696 0111 0B       		.uleb128 0xb
 2697 0112 0B       		.uleb128 0xb
 2698 0113 0B       		.uleb128 0xb
 2699 0114 49       		.uleb128 0x49
 2700 0115 13       		.uleb128 0x13
 2701 0116 3A       		.uleb128 0x3a
 2702 0117 0B       		.uleb128 0xb
 2703 0118 3B       		.uleb128 0x3b
 2704 0119 0B       		.uleb128 0xb
 2705 011a 01       		.uleb128 0x1
 2706 011b 13       		.uleb128 0x13
 2707 011c 00       		.byte	0
 2708 011d 00       		.byte	0
 2709 011e 19       		.uleb128 0x19
 2710 011f 28       		.uleb128 0x28
 2711 0120 00       		.byte	0
 2712 0121 03       		.uleb128 0x3
 2713 0122 0E       		.uleb128 0xe
 2714 0123 1C       		.uleb128 0x1c
 2715 0124 0B       		.uleb128 0xb
 2716 0125 00       		.byte	0
 2717 0126 00       		.byte	0
 2718 0127 1A       		.uleb128 0x1a
 2719 0128 34       		.uleb128 0x34
 2720 0129 00       		.byte	0
 2721 012a 03       		.uleb128 0x3
 2722 012b 08       		.uleb128 0x8
 2723 012c 3A       		.uleb128 0x3a
 2724 012d 0B       		.uleb128 0xb
 2725 012e 3B       		.uleb128 0x3b
 2726 012f 0B       		.uleb128 0xb
 2727 0130 49       		.uleb128 0x49
 2728 0131 13       		.uleb128 0x13
 2729 0132 3F       		.uleb128 0x3f
 2730 0133 19       		.uleb128 0x19
 2731 0134 3C       		.uleb128 0x3c
 2732 0135 19       		.uleb128 0x19
 2733 0136 00       		.byte	0
 2734 0137 00       		.byte	0
 2735 0138 1B       		.uleb128 0x1b
 2736 0139 26       		.uleb128 0x26
ARM GAS  /var/folders/3j/4xdnk5197cv_b7cw3n33qk7r0000gn/T//cceqryy0.s 			page 49


 2737 013a 00       		.byte	0
 2738 013b 00       		.byte	0
 2739 013c 00       		.byte	0
 2740 013d 1C       		.uleb128 0x1c
 2741 013e 2E       		.uleb128 0x2e
 2742 013f 01       		.byte	0x1
 2743 0140 3F       		.uleb128 0x3f
 2744 0141 19       		.uleb128 0x19
 2745 0142 03       		.uleb128 0x3
 2746 0143 0E       		.uleb128 0xe
 2747 0144 3A       		.uleb128 0x3a
 2748 0145 0B       		.uleb128 0xb
 2749 0146 3B       		.uleb128 0x3b
 2750 0147 05       		.uleb128 0x5
 2751 0148 27       		.uleb128 0x27
 2752 0149 19       		.uleb128 0x19
 2753 014a 11       		.uleb128 0x11
 2754 014b 01       		.uleb128 0x1
 2755 014c 12       		.uleb128 0x12
 2756 014d 06       		.uleb128 0x6
 2757 014e 40       		.uleb128 0x40
 2758 014f 18       		.uleb128 0x18
 2759 0150 9742     		.uleb128 0x2117
 2760 0152 19       		.uleb128 0x19
 2761 0153 01       		.uleb128 0x1
 2762 0154 13       		.uleb128 0x13
 2763 0155 00       		.byte	0
 2764 0156 00       		.byte	0
 2765 0157 1D       		.uleb128 0x1d
 2766 0158 05       		.uleb128 0x5
 2767 0159 00       		.byte	0
 2768 015a 03       		.uleb128 0x3
 2769 015b 0E       		.uleb128 0xe
 2770 015c 3A       		.uleb128 0x3a
 2771 015d 0B       		.uleb128 0xb
 2772 015e 3B       		.uleb128 0x3b
 2773 015f 05       		.uleb128 0x5
 2774 0160 49       		.uleb128 0x49
 2775 0161 13       		.uleb128 0x13
 2776 0162 02       		.uleb128 0x2
 2777 0163 17       		.uleb128 0x17
 2778 0164 00       		.byte	0
 2779 0165 00       		.byte	0
 2780 0166 1E       		.uleb128 0x1e
 2781 0167 898201   		.uleb128 0x4109
 2782 016a 00       		.byte	0
 2783 016b 11       		.uleb128 0x11
 2784 016c 01       		.uleb128 0x1
 2785 016d 9542     		.uleb128 0x2115
 2786 016f 19       		.uleb128 0x19
 2787 0170 31       		.uleb128 0x31
 2788 0171 13       		.uleb128 0x13
 2789 0172 00       		.byte	0
 2790 0173 00       		.byte	0
 2791 0174 1F       		.uleb128 0x1f
 2792 0175 898201   		.uleb128 0x4109
 2793 0178 01       		.byte	0x1
ARM GAS  /var/folders/3j/4xdnk5197cv_b7cw3n33qk7r0000gn/T//cceqryy0.s 			page 50


 2794 0179 11       		.uleb128 0x11
 2795 017a 01       		.uleb128 0x1
 2796 017b 9542     		.uleb128 0x2115
 2797 017d 19       		.uleb128 0x19
 2798 017e 31       		.uleb128 0x31
 2799 017f 13       		.uleb128 0x13
 2800 0180 00       		.byte	0
 2801 0181 00       		.byte	0
 2802 0182 20       		.uleb128 0x20
 2803 0183 8A8201   		.uleb128 0x410a
 2804 0186 00       		.byte	0
 2805 0187 02       		.uleb128 0x2
 2806 0188 18       		.uleb128 0x18
 2807 0189 9142     		.uleb128 0x2111
 2808 018b 18       		.uleb128 0x18
 2809 018c 00       		.byte	0
 2810 018d 00       		.byte	0
 2811 018e 21       		.uleb128 0x21
 2812 018f 2E       		.uleb128 0x2e
 2813 0190 01       		.byte	0x1
 2814 0191 3F       		.uleb128 0x3f
 2815 0192 19       		.uleb128 0x19
 2816 0193 03       		.uleb128 0x3
 2817 0194 0E       		.uleb128 0xe
 2818 0195 3A       		.uleb128 0x3a
 2819 0196 0B       		.uleb128 0xb
 2820 0197 3B       		.uleb128 0x3b
 2821 0198 0B       		.uleb128 0xb
 2822 0199 27       		.uleb128 0x27
 2823 019a 19       		.uleb128 0x19
 2824 019b 49       		.uleb128 0x49
 2825 019c 13       		.uleb128 0x13
 2826 019d 11       		.uleb128 0x11
 2827 019e 01       		.uleb128 0x1
 2828 019f 12       		.uleb128 0x12
 2829 01a0 06       		.uleb128 0x6
 2830 01a1 40       		.uleb128 0x40
 2831 01a2 18       		.uleb128 0x18
 2832 01a3 9742     		.uleb128 0x2117
 2833 01a5 19       		.uleb128 0x19
 2834 01a6 01       		.uleb128 0x1
 2835 01a7 13       		.uleb128 0x13
 2836 01a8 00       		.byte	0
 2837 01a9 00       		.byte	0
 2838 01aa 22       		.uleb128 0x22
 2839 01ab 05       		.uleb128 0x5
 2840 01ac 00       		.byte	0
 2841 01ad 03       		.uleb128 0x3
 2842 01ae 0E       		.uleb128 0xe
 2843 01af 3A       		.uleb128 0x3a
 2844 01b0 0B       		.uleb128 0xb
 2845 01b1 3B       		.uleb128 0x3b
 2846 01b2 0B       		.uleb128 0xb
 2847 01b3 49       		.uleb128 0x49
 2848 01b4 13       		.uleb128 0x13
 2849 01b5 02       		.uleb128 0x2
 2850 01b6 17       		.uleb128 0x17
ARM GAS  /var/folders/3j/4xdnk5197cv_b7cw3n33qk7r0000gn/T//cceqryy0.s 			page 51


 2851 01b7 00       		.byte	0
 2852 01b8 00       		.byte	0
 2853 01b9 23       		.uleb128 0x23
 2854 01ba 05       		.uleb128 0x5
 2855 01bb 00       		.byte	0
 2856 01bc 03       		.uleb128 0x3
 2857 01bd 0E       		.uleb128 0xe
 2858 01be 3A       		.uleb128 0x3a
 2859 01bf 0B       		.uleb128 0xb
 2860 01c0 3B       		.uleb128 0x3b
 2861 01c1 0B       		.uleb128 0xb
 2862 01c2 49       		.uleb128 0x49
 2863 01c3 13       		.uleb128 0x13
 2864 01c4 02       		.uleb128 0x2
 2865 01c5 18       		.uleb128 0x18
 2866 01c6 00       		.byte	0
 2867 01c7 00       		.byte	0
 2868 01c8 24       		.uleb128 0x24
 2869 01c9 34       		.uleb128 0x34
 2870 01ca 00       		.byte	0
 2871 01cb 03       		.uleb128 0x3
 2872 01cc 0E       		.uleb128 0xe
 2873 01cd 3A       		.uleb128 0x3a
 2874 01ce 0B       		.uleb128 0xb
 2875 01cf 3B       		.uleb128 0x3b
 2876 01d0 0B       		.uleb128 0xb
 2877 01d1 49       		.uleb128 0x49
 2878 01d2 13       		.uleb128 0x13
 2879 01d3 02       		.uleb128 0x2
 2880 01d4 18       		.uleb128 0x18
 2881 01d5 00       		.byte	0
 2882 01d6 00       		.byte	0
 2883 01d7 25       		.uleb128 0x25
 2884 01d8 898201   		.uleb128 0x4109
 2885 01db 01       		.byte	0x1
 2886 01dc 11       		.uleb128 0x11
 2887 01dd 01       		.uleb128 0x1
 2888 01de 31       		.uleb128 0x31
 2889 01df 13       		.uleb128 0x13
 2890 01e0 00       		.byte	0
 2891 01e1 00       		.byte	0
 2892 01e2 26       		.uleb128 0x26
 2893 01e3 2E       		.uleb128 0x2e
 2894 01e4 01       		.byte	0x1
 2895 01e5 3F       		.uleb128 0x3f
 2896 01e6 19       		.uleb128 0x19
 2897 01e7 03       		.uleb128 0x3
 2898 01e8 0E       		.uleb128 0xe
 2899 01e9 3A       		.uleb128 0x3a
 2900 01ea 0B       		.uleb128 0xb
 2901 01eb 3B       		.uleb128 0x3b
 2902 01ec 0B       		.uleb128 0xb
 2903 01ed 27       		.uleb128 0x27
 2904 01ee 19       		.uleb128 0x19
 2905 01ef 11       		.uleb128 0x11
 2906 01f0 01       		.uleb128 0x1
 2907 01f1 12       		.uleb128 0x12
ARM GAS  /var/folders/3j/4xdnk5197cv_b7cw3n33qk7r0000gn/T//cceqryy0.s 			page 52


 2908 01f2 06       		.uleb128 0x6
 2909 01f3 40       		.uleb128 0x40
 2910 01f4 18       		.uleb128 0x18
 2911 01f5 9742     		.uleb128 0x2117
 2912 01f7 19       		.uleb128 0x19
 2913 01f8 01       		.uleb128 0x1
 2914 01f9 13       		.uleb128 0x13
 2915 01fa 00       		.byte	0
 2916 01fb 00       		.byte	0
 2917 01fc 27       		.uleb128 0x27
 2918 01fd 2E       		.uleb128 0x2e
 2919 01fe 00       		.byte	0
 2920 01ff 3F       		.uleb128 0x3f
 2921 0200 19       		.uleb128 0x19
 2922 0201 3C       		.uleb128 0x3c
 2923 0202 19       		.uleb128 0x19
 2924 0203 6E       		.uleb128 0x6e
 2925 0204 0E       		.uleb128 0xe
 2926 0205 03       		.uleb128 0x3
 2927 0206 0E       		.uleb128 0xe
 2928 0207 3A       		.uleb128 0x3a
 2929 0208 0B       		.uleb128 0xb
 2930 0209 3B       		.uleb128 0x3b
 2931 020a 0B       		.uleb128 0xb
 2932 020b 00       		.byte	0
 2933 020c 00       		.byte	0
 2934 020d 00       		.byte	0
 2935              		.section	.debug_loc,"",%progbits
 2936              	.Ldebug_loc0:
 2937              	.LLST14:
 2938 0000 00000000 		.4byte	.LVL17
 2939 0004 03000000 		.4byte	.LVL18-1
 2940 0008 0100     		.2byte	0x1
 2941 000a 50       		.byte	0x50
 2942 000b 03000000 		.4byte	.LVL18-1
 2943 000f 04000000 		.4byte	.LFE15
 2944 0013 0400     		.2byte	0x4
 2945 0015 F3       		.byte	0xf3
 2946 0016 01       		.uleb128 0x1
 2947 0017 50       		.byte	0x50
 2948 0018 9F       		.byte	0x9f
 2949 0019 00000000 		.4byte	0
 2950 001d 00000000 		.4byte	0
 2951              	.LLST13:
 2952 0021 00000000 		.4byte	.LVL14
 2953 0025 04000000 		.4byte	.LVL15
 2954 0029 0100     		.2byte	0x1
 2955 002b 50       		.byte	0x50
 2956 002c 04000000 		.4byte	.LVL15
 2957 0030 07000000 		.4byte	.LVL16-1
 2958 0034 0300     		.2byte	0x3
 2959 0036 70       		.byte	0x70
 2960 0037 70       		.sleb128 -16
 2961 0038 9F       		.byte	0x9f
 2962 0039 07000000 		.4byte	.LVL16-1
 2963 003d 08000000 		.4byte	.LFE14
 2964 0041 0400     		.2byte	0x4
ARM GAS  /var/folders/3j/4xdnk5197cv_b7cw3n33qk7r0000gn/T//cceqryy0.s 			page 53


 2965 0043 F3       		.byte	0xf3
 2966 0044 01       		.uleb128 0x1
 2967 0045 50       		.byte	0x50
 2968 0046 9F       		.byte	0x9f
 2969 0047 00000000 		.4byte	0
 2970 004b 00000000 		.4byte	0
 2971              	.LLST9:
 2972 004f 00000000 		.4byte	.LVL12
 2973 0053 2B000000 		.4byte	.LVL13-1
 2974 0057 0100     		.2byte	0x1
 2975 0059 50       		.byte	0x50
 2976 005a 2B000000 		.4byte	.LVL13-1
 2977 005e 48000000 		.4byte	.LFE13
 2978 0062 0100     		.2byte	0x1
 2979 0064 54       		.byte	0x54
 2980 0065 00000000 		.4byte	0
 2981 0069 00000000 		.4byte	0
 2982              	.LLST10:
 2983 006d 00000000 		.4byte	.LVL12
 2984 0071 2B000000 		.4byte	.LVL13-1
 2985 0075 0100     		.2byte	0x1
 2986 0077 51       		.byte	0x51
 2987 0078 2B000000 		.4byte	.LVL13-1
 2988 007c 48000000 		.4byte	.LFE13
 2989 0080 0400     		.2byte	0x4
 2990 0082 F3       		.byte	0xf3
 2991 0083 01       		.uleb128 0x1
 2992 0084 51       		.byte	0x51
 2993 0085 9F       		.byte	0x9f
 2994 0086 00000000 		.4byte	0
 2995 008a 00000000 		.4byte	0
 2996              	.LLST11:
 2997 008e 00000000 		.4byte	.LVL12
 2998 0092 2B000000 		.4byte	.LVL13-1
 2999 0096 0100     		.2byte	0x1
 3000 0098 52       		.byte	0x52
 3001 0099 2B000000 		.4byte	.LVL13-1
 3002 009d 48000000 		.4byte	.LFE13
 3003 00a1 0400     		.2byte	0x4
 3004 00a3 F3       		.byte	0xf3
 3005 00a4 01       		.uleb128 0x1
 3006 00a5 52       		.byte	0x52
 3007 00a6 9F       		.byte	0x9f
 3008 00a7 00000000 		.4byte	0
 3009 00ab 00000000 		.4byte	0
 3010              	.LLST12:
 3011 00af 00000000 		.4byte	.LVL12
 3012 00b3 2B000000 		.4byte	.LVL13-1
 3013 00b7 0100     		.2byte	0x1
 3014 00b9 53       		.byte	0x53
 3015 00ba 2B000000 		.4byte	.LVL13-1
 3016 00be 48000000 		.4byte	.LFE13
 3017 00c2 0400     		.2byte	0x4
 3018 00c4 F3       		.byte	0xf3
 3019 00c5 01       		.uleb128 0x1
 3020 00c6 53       		.byte	0x53
 3021 00c7 9F       		.byte	0x9f
ARM GAS  /var/folders/3j/4xdnk5197cv_b7cw3n33qk7r0000gn/T//cceqryy0.s 			page 54


 3022 00c8 00000000 		.4byte	0
 3023 00cc 00000000 		.4byte	0
 3024              	.LLST5:
 3025 00d0 00000000 		.4byte	.LVL10
 3026 00d4 3F000000 		.4byte	.LVL11-1
 3027 00d8 0100     		.2byte	0x1
 3028 00da 50       		.byte	0x50
 3029 00db 3F000000 		.4byte	.LVL11-1
 3030 00df 5C000000 		.4byte	.LFE12
 3031 00e3 0100     		.2byte	0x1
 3032 00e5 54       		.byte	0x54
 3033 00e6 00000000 		.4byte	0
 3034 00ea 00000000 		.4byte	0
 3035              	.LLST6:
 3036 00ee 00000000 		.4byte	.LVL10
 3037 00f2 3F000000 		.4byte	.LVL11-1
 3038 00f6 0100     		.2byte	0x1
 3039 00f8 51       		.byte	0x51
 3040 00f9 3F000000 		.4byte	.LVL11-1
 3041 00fd 5C000000 		.4byte	.LFE12
 3042 0101 0400     		.2byte	0x4
 3043 0103 F3       		.byte	0xf3
 3044 0104 01       		.uleb128 0x1
 3045 0105 51       		.byte	0x51
 3046 0106 9F       		.byte	0x9f
 3047 0107 00000000 		.4byte	0
 3048 010b 00000000 		.4byte	0
 3049              	.LLST7:
 3050 010f 00000000 		.4byte	.LVL10
 3051 0113 3F000000 		.4byte	.LVL11-1
 3052 0117 0100     		.2byte	0x1
 3053 0119 52       		.byte	0x52
 3054 011a 3F000000 		.4byte	.LVL11-1
 3055 011e 5C000000 		.4byte	.LFE12
 3056 0122 0400     		.2byte	0x4
 3057 0124 F3       		.byte	0xf3
 3058 0125 01       		.uleb128 0x1
 3059 0126 52       		.byte	0x52
 3060 0127 9F       		.byte	0x9f
 3061 0128 00000000 		.4byte	0
 3062 012c 00000000 		.4byte	0
 3063              	.LLST8:
 3064 0130 00000000 		.4byte	.LVL10
 3065 0134 3F000000 		.4byte	.LVL11-1
 3066 0138 0100     		.2byte	0x1
 3067 013a 53       		.byte	0x53
 3068 013b 3F000000 		.4byte	.LVL11-1
 3069 013f 5C000000 		.4byte	.LFE12
 3070 0143 0400     		.2byte	0x4
 3071 0145 F3       		.byte	0xf3
 3072 0146 01       		.uleb128 0x1
 3073 0147 53       		.byte	0x53
 3074 0148 9F       		.byte	0x9f
 3075 0149 00000000 		.4byte	0
 3076 014d 00000000 		.4byte	0
 3077              	.LLST4:
 3078 0151 00000000 		.4byte	.LVL8
ARM GAS  /var/folders/3j/4xdnk5197cv_b7cw3n33qk7r0000gn/T//cceqryy0.s 			page 55


 3079 0155 04000000 		.4byte	.LVL9
 3080 0159 0100     		.2byte	0x1
 3081 015b 50       		.byte	0x50
 3082 015c 04000000 		.4byte	.LVL9
 3083 0160 08000000 		.4byte	.LFE11
 3084 0164 0400     		.2byte	0x4
 3085 0166 F3       		.byte	0xf3
 3086 0167 01       		.uleb128 0x1
 3087 0168 50       		.byte	0x50
 3088 0169 9F       		.byte	0x9f
 3089 016a 00000000 		.4byte	0
 3090 016e 00000000 		.4byte	0
 3091              	.LLST3:
 3092 0172 00000000 		.4byte	.LVL6
 3093 0176 0F000000 		.4byte	.LVL7-1
 3094 017a 0100     		.2byte	0x1
 3095 017c 50       		.byte	0x50
 3096 017d 0F000000 		.4byte	.LVL7-1
 3097 0181 20000000 		.4byte	.LFE10
 3098 0185 0100     		.2byte	0x1
 3099 0187 54       		.byte	0x54
 3100 0188 00000000 		.4byte	0
 3101 018c 00000000 		.4byte	0
 3102              	.LLST1:
 3103 0190 00000000 		.4byte	.LVL4
 3104 0194 13000000 		.4byte	.LVL5-1
 3105 0198 0100     		.2byte	0x1
 3106 019a 50       		.byte	0x50
 3107 019b 13000000 		.4byte	.LVL5-1
 3108 019f 24000000 		.4byte	.LFE9
 3109 01a3 0100     		.2byte	0x1
 3110 01a5 54       		.byte	0x54
 3111 01a6 00000000 		.4byte	0
 3112 01aa 00000000 		.4byte	0
 3113              	.LLST2:
 3114 01ae 00000000 		.4byte	.LVL4
 3115 01b2 13000000 		.4byte	.LVL5-1
 3116 01b6 0100     		.2byte	0x1
 3117 01b8 51       		.byte	0x51
 3118 01b9 13000000 		.4byte	.LVL5-1
 3119 01bd 24000000 		.4byte	.LFE9
 3120 01c1 0400     		.2byte	0x4
 3121 01c3 F3       		.byte	0xf3
 3122 01c4 01       		.uleb128 0x1
 3123 01c5 51       		.byte	0x51
 3124 01c6 9F       		.byte	0x9f
 3125 01c7 00000000 		.4byte	0
 3126 01cb 00000000 		.4byte	0
 3127              	.LLST0:
 3128 01cf 00000000 		.4byte	.LVL1
 3129 01d3 14000000 		.4byte	.LVL2
 3130 01d7 0100     		.2byte	0x1
 3131 01d9 50       		.byte	0x50
 3132 01da 14000000 		.4byte	.LVL2
 3133 01de 17000000 		.4byte	.LVL3-1
 3134 01e2 0300     		.2byte	0x3
 3135 01e4 70       		.byte	0x70
ARM GAS  /var/folders/3j/4xdnk5197cv_b7cw3n33qk7r0000gn/T//cceqryy0.s 			page 56


 3136 01e5 70       		.sleb128 -16
 3137 01e6 9F       		.byte	0x9f
 3138 01e7 17000000 		.4byte	.LVL3-1
 3139 01eb 18000000 		.4byte	.LFE8
 3140 01ef 0400     		.2byte	0x4
 3141 01f1 F3       		.byte	0xf3
 3142 01f2 01       		.uleb128 0x1
 3143 01f3 50       		.byte	0x50
 3144 01f4 9F       		.byte	0x9f
 3145 01f5 00000000 		.4byte	0
 3146 01f9 00000000 		.4byte	0
 3147              		.section	.debug_aranges,"",%progbits
 3148 0000 5C000000 		.4byte	0x5c
 3149 0004 0200     		.2byte	0x2
 3150 0006 00000000 		.4byte	.Ldebug_info0
 3151 000a 04       		.byte	0x4
 3152 000b 00       		.byte	0
 3153 000c 0000     		.2byte	0
 3154 000e 0000     		.2byte	0
 3155 0010 00000000 		.4byte	.LFB7
 3156 0014 04000000 		.4byte	.LFE7-.LFB7
 3157 0018 00000000 		.4byte	.LFB8
 3158 001c 18000000 		.4byte	.LFE8-.LFB8
 3159 0020 00000000 		.4byte	.LFB9
 3160 0024 24000000 		.4byte	.LFE9-.LFB9
 3161 0028 00000000 		.4byte	.LFB10
 3162 002c 20000000 		.4byte	.LFE10-.LFB10
 3163 0030 00000000 		.4byte	.LFB11
 3164 0034 08000000 		.4byte	.LFE11-.LFB11
 3165 0038 00000000 		.4byte	.LFB12
 3166 003c 5C000000 		.4byte	.LFE12-.LFB12
 3167 0040 00000000 		.4byte	.LFB13
 3168 0044 48000000 		.4byte	.LFE13-.LFB13
 3169 0048 00000000 		.4byte	.LFB14
 3170 004c 08000000 		.4byte	.LFE14-.LFB14
 3171 0050 00000000 		.4byte	.LFB15
 3172 0054 04000000 		.4byte	.LFE15-.LFB15
 3173 0058 00000000 		.4byte	0
 3174 005c 00000000 		.4byte	0
 3175              		.section	.debug_ranges,"",%progbits
 3176              	.Ldebug_ranges0:
 3177 0000 00000000 		.4byte	.LFB7
 3178 0004 04000000 		.4byte	.LFE7
 3179 0008 00000000 		.4byte	.LFB8
 3180 000c 18000000 		.4byte	.LFE8
 3181 0010 00000000 		.4byte	.LFB9
 3182 0014 24000000 		.4byte	.LFE9
 3183 0018 00000000 		.4byte	.LFB10
 3184 001c 20000000 		.4byte	.LFE10
 3185 0020 00000000 		.4byte	.LFB11
 3186 0024 08000000 		.4byte	.LFE11
 3187 0028 00000000 		.4byte	.LFB12
 3188 002c 5C000000 		.4byte	.LFE12
 3189 0030 00000000 		.4byte	.LFB13
 3190 0034 48000000 		.4byte	.LFE13
 3191 0038 00000000 		.4byte	.LFB14
 3192 003c 08000000 		.4byte	.LFE14
ARM GAS  /var/folders/3j/4xdnk5197cv_b7cw3n33qk7r0000gn/T//cceqryy0.s 			page 57


 3193 0040 00000000 		.4byte	.LFB15
 3194 0044 04000000 		.4byte	.LFE15
 3195 0048 00000000 		.4byte	0
 3196 004c 00000000 		.4byte	0
 3197              		.section	.debug_line,"",%progbits
 3198              	.Ldebug_line0:
 3199 0000 4B030000 		.section	.debug_str,"MS",%progbits,1
 3199      02008202 
 3199      00000201 
 3199      FB0E0D00 
 3199      01010101 
 3200              	.LASF222:
 3201 0000 2F557365 		.ascii	"/Users/kevinmalmsten/development_raspberry_pi/Backu"
 3201      72732F6B 
 3201      6576696E 
 3201      6D616C6D 
 3201      7374656E 
 3202 0033 7053656E 		.ascii	"pSensor_ChibiOS/__Backup_System\000"
 3202      736F725F 
 3202      43686962 
 3202      694F532F 
 3202      5F5F4261 
 3203              	.LASF96:
 3204 0053 63665F6F 		.ascii	"cf_off_older\000"
 3204      66665F6F 
 3204      6C646572 
 3204      00
 3205              	.LASF42:
 3206 0060 705F6D73 		.ascii	"p_msg\000"
 3206      6700
 3207              	.LASF2:
 3208 0066 73697A65 		.ascii	"size_t\000"
 3208      5F7400
 3209              	.LASF81:
 3210 006d 7264796D 		.ascii	"rdymsg\000"
 3210      736700
 3211              	.LASF175:
 3212 0074 77726974 		.ascii	"write\000"
 3212      6500
 3213              	.LASF117:
 3214 007a 4F757470 		.ascii	"OutputQueue\000"
 3214      75745175 
 3214      65756500 
 3215              	.LASF3:
 3216 0086 5F5F7569 		.ascii	"__uint8_t\000"
 3216      6E74385F 
 3216      7400
 3217              	.LASF184:
 3218 0090 5350495F 		.ascii	"SPI_ACTIVE\000"
 3218      41435449 
 3218      564500
 3219              	.LASF68:
 3220 009b 76746C69 		.ascii	"vtlist\000"
 3220      737400
 3221              	.LASF119:
 3222 00a2 62736364 		.ascii	"bscdevice_t\000"
 3222      65766963 
ARM GAS  /var/folders/3j/4xdnk5197cv_b7cw3n33qk7r0000gn/T//cceqryy0.s 			page 58


 3222      655F7400 
 3223              	.LASF157:
 3224 00ae 72786275 		.ascii	"rxbuf\000"
 3224      6600
 3225              	.LASF110:
 3226 00b4 715F746F 		.ascii	"q_top\000"
 3226      7000
 3227              	.LASF13:
 3228 00ba 6C6F6E67 		.ascii	"long long unsigned int\000"
 3228      206C6F6E 
 3228      6720756E 
 3228      7369676E 
 3228      65642069 
 3229              	.LASF212:
 3230 00d1 63684D74 		.ascii	"chMtxUnlock\000"
 3230      78556E6C 
 3230      6F636B00 
 3231              	.LASF92:
 3232 00dd 63685F74 		.ascii	"ch_threadsize\000"
 3232      68726561 
 3232      6473697A 
 3232      6500
 3233              	.LASF209:
 3234 00eb 69326353 		.ascii	"i2cStart\000"
 3234      74617274 
 3234      00
 3235              	.LASF82:
 3236 00f4 65786974 		.ascii	"exitcode\000"
 3236      636F6465 
 3236      00
 3237              	.LASF207:
 3238 00fd 69326347 		.ascii	"i2cGetErrors\000"
 3238      65744572 
 3238      726F7273 
 3238      00
 3239              	.LASF201:
 3240 010a 69326352 		.ascii	"i2cReleaseBus\000"
 3240      656C6561 
 3240      73654275 
 3240      7300
 3241              	.LASF187:
 3242 0118 53504944 		.ascii	"SPIDriver\000"
 3242      72697665 
 3242      7200
 3243              	.LASF203:
 3244 0122 69326370 		.ascii	"i2cp\000"
 3244      00
 3245              	.LASF124:
 3246 0127 64617461 		.ascii	"dataFifo\000"
 3246      4669666F 
 3246      00
 3247              	.LASF30:
 3248 0130 705F7072 		.ascii	"p_prio\000"
 3248      696F00
 3249              	.LASF99:
 3250 0137 63665F6F 		.ascii	"cf_off_state\000"
 3250      66665F73 
ARM GAS  /var/folders/3j/4xdnk5197cv_b7cw3n33qk7r0000gn/T//cceqryy0.s 			page 59


 3250      74617465 
 3250      00
 3251              	.LASF180:
 3252 0144 72656164 		.ascii	"readt\000"
 3252      7400
 3253              	.LASF150:
 3254 014a 64657669 		.ascii	"device\000"
 3254      636500
 3255              	.LASF107:
 3256 0151 715F7761 		.ascii	"q_waiting\000"
 3256      6974696E 
 3256      6700
 3257              	.LASF12:
 3258 015b 6C6F6E67 		.ascii	"long long int\000"
 3258      206C6F6E 
 3258      6720696E 
 3258      7400
 3259              	.LASF1:
 3260 0169 7369676E 		.ascii	"signed char\000"
 3260      65642063 
 3260      68617200 
 3261              	.LASF98:
 3262 0175 63665F6F 		.ascii	"cf_off_stklimit\000"
 3262      66665F73 
 3262      746B6C69 
 3262      6D697400 
 3263              	.LASF182:
 3264 0185 5350495F 		.ascii	"SPI_STOP\000"
 3264      53544F50 
 3264      00
 3265              	.LASF100:
 3266 018e 63665F6F 		.ascii	"cf_off_flags\000"
 3266      66665F66 
 3266      6C616773 
 3266      00
 3267              	.LASF167:
 3268 019b 53445F53 		.ascii	"SD_STOP\000"
 3268      544F5000 
 3269              	.LASF71:
 3270 01a3 6D5F7175 		.ascii	"m_queue\000"
 3270      65756500 
 3271              	.LASF214:
 3272 01ab 6932635F 		.ascii	"i2c_lld_master_receive_timeout\000"
 3272      6C6C645F 
 3272      6D617374 
 3272      65725F72 
 3272      65636569 
 3273              	.LASF153:
 3274 01ca 61646472 		.ascii	"addr\000"
 3274      00
 3275              	.LASF215:
 3276 01cf 6932635F 		.ascii	"i2c_lld_master_transmit_timeout\000"
 3276      6C6C645F 
 3276      6D617374 
 3276      65725F74 
 3276      72616E73 
 3277              	.LASF220:
ARM GAS  /var/folders/3j/4xdnk5197cv_b7cw3n33qk7r0000gn/T//cceqryy0.s 			page 60


 3278 01ef 474E5520 		.ascii	"GNU C11 7.3.1 20180622 (release) [ARM/embedded-7-br"
 3278      43313120 
 3278      372E332E 
 3278      31203230 
 3278      31383036 
 3279 0222 616E6368 		.ascii	"anch revision 261907] -mcpu=arm1176jz-s -mno-thumb-"
 3279      20726576 
 3279      6973696F 
 3279      6E203236 
 3279      31393037 
 3280 0255 696E7465 		.ascii	"interwork -ggdb -O2 -fomit-frame-pointer -ffunction"
 3280      72776F72 
 3280      6B202D67 
 3280      67646220 
 3280      2D4F3220 
 3281 0288 2D736563 		.ascii	"-sections -fdata-sections\000"
 3281      74696F6E 
 3281      73202D66 
 3281      64617461 
 3281      2D736563 
 3282              	.LASF139:
 3283 02a2 4932435F 		.ascii	"I2C_UNINIT\000"
 3283      554E494E 
 3283      495400
 3284              	.LASF161:
 3285 02ad 69326361 		.ascii	"i2caddr_t\000"
 3285      6464725F 
 3285      7400
 3286              	.LASF147:
 3287 02b7 73746174 		.ascii	"state\000"
 3287      6500
 3288              	.LASF9:
 3289 02bd 6C6F6E67 		.ascii	"long int\000"
 3289      20696E74 
 3289      00
 3290              	.LASF206:
 3291 02c6 6932634D 		.ascii	"i2cMasterTransmitTimeout\000"
 3291      61737465 
 3291      72547261 
 3291      6E736D69 
 3291      7454696D 
 3292              	.LASF19:
 3293 02df 74737461 		.ascii	"tstate_t\000"
 3293      74655F74 
 3293      00
 3294              	.LASF152:
 3295 02e8 74687265 		.ascii	"thread\000"
 3295      616400
 3296              	.LASF126:
 3297 02ef 64617461 		.ascii	"dataDelay\000"
 3297      44656C61 
 3297      7900
 3298              	.LASF159:
 3299 02f9 72786964 		.ascii	"rxidx\000"
 3299      7800
 3300              	.LASF109:
 3301 02ff 715F6275 		.ascii	"q_buffer\000"
ARM GAS  /var/folders/3j/4xdnk5197cv_b7cw3n33qk7r0000gn/T//cceqryy0.s 			page 61


 3301      66666572 
 3301      00
 3302              	.LASF15:
 3303 0308 75696E74 		.ascii	"uint16_t\000"
 3303      31365F74 
 3303      00
 3304              	.LASF200:
 3305 0311 53504930 		.ascii	"SPI0\000"
 3305      00
 3306              	.LASF104:
 3307 0316 63686465 		.ascii	"chdebug_t\000"
 3307      6275675F 
 3307      7400
 3308              	.LASF142:
 3309 0320 4932435F 		.ascii	"I2C_ACTIVE_TX\000"
 3309      41435449 
 3309      56455F54 
 3309      5800
 3310              	.LASF197:
 3311 032e 636C6F63 		.ascii	"clock_phase\000"
 3311      6B5F7068 
 3311      61736500 
 3312              	.LASF32:
 3313 033a 705F6E65 		.ascii	"p_newer\000"
 3313      77657200 
 3314              	.LASF118:
 3315 0342 5F69646C 		.ascii	"_idle_thread_wa\000"
 3315      655F7468 
 3315      72656164 
 3315      5F776100 
 3316              	.LASF190:
 3317 0352 656E645F 		.ascii	"end_cb\000"
 3317      636200
 3318              	.LASF188:
 3319 0359 7478636E 		.ascii	"txcnt\000"
 3319      7400
 3320              	.LASF194:
 3321 035f 63686970 		.ascii	"chip_select_polarity0\000"
 3321      5F73656C 
 3321      6563745F 
 3321      706F6C61 
 3321      72697479 
 3322              	.LASF195:
 3323 0375 63686970 		.ascii	"chip_select_polarity1\000"
 3323      5F73656C 
 3323      6563745F 
 3323      706F6C61 
 3323      72697479 
 3324              	.LASF120:
 3325 038b 636F6E74 		.ascii	"control\000"
 3325      726F6C00 
 3326              	.LASF10:
 3327 0393 5F5F7569 		.ascii	"__uint32_t\000"
 3327      6E743332 
 3327      5F7400
 3328              	.LASF49:
 3329 039e 72656761 		.ascii	"regarm_t\000"
ARM GAS  /var/folders/3j/4xdnk5197cv_b7cw3n33qk7r0000gn/T//cceqryy0.s 			page 62


 3329      726D5F74 
 3329      00
 3330              	.LASF55:
 3331 03a7 76745F70 		.ascii	"vt_prev\000"
 3331      72657600 
 3332              	.LASF123:
 3333 03af 736C6176 		.ascii	"slaveAddress\000"
 3333      65416464 
 3333      72657373 
 3333      00
 3334              	.LASF189:
 3335 03bc 73706963 		.ascii	"spicallback_t\000"
 3335      616C6C62 
 3335      61636B5F 
 3335      7400
 3336              	.LASF164:
 3337 03ca 49324330 		.ascii	"I2C0\000"
 3337      00
 3338              	.LASF165:
 3339 03cf 49324331 		.ascii	"I2C1\000"
 3339      00
 3340              	.LASF79:
 3341 03d4 4576656E 		.ascii	"EventSource\000"
 3341      74536F75 
 3341      72636500 
 3342              	.LASF0:
 3343 03e0 756E7369 		.ascii	"unsigned int\000"
 3343      676E6564 
 3343      20696E74 
 3343      00
 3344              	.LASF54:
 3345 03ed 76745F6E 		.ascii	"vt_next\000"
 3345      65787400 
 3346              	.LASF154:
 3347 03f5 74786275 		.ascii	"txbuf\000"
 3347      6600
 3348              	.LASF174:
 3349 03fb 53657269 		.ascii	"SerialDriverVMT\000"
 3349      616C4472 
 3349      69766572 
 3349      564D5400 
 3350              	.LASF149:
 3351 040b 6572726F 		.ascii	"errors\000"
 3351      727300
 3352              	.LASF172:
 3353 0412 69717565 		.ascii	"iqueue\000"
 3353      756500
 3354              	.LASF11:
 3355 0419 6C6F6E67 		.ascii	"long unsigned int\000"
 3355      20756E73 
 3355      69676E65 
 3355      6420696E 
 3355      7400
 3356              	.LASF105:
 3357 042b 63685F64 		.ascii	"ch_debug\000"
 3357      65627567 
 3357      00
ARM GAS  /var/folders/3j/4xdnk5197cv_b7cw3n33qk7r0000gn/T//cceqryy0.s 			page 63


 3358              	.LASF204:
 3359 0434 74696D65 		.ascii	"timeout\000"
 3359      6F757400 
 3360              	.LASF178:
 3361 043c 67657474 		.ascii	"gett\000"
 3361      00
 3362              	.LASF52:
 3363 0441 76746675 		.ascii	"vtfunc_t\000"
 3363      6E635F74 
 3363      00
 3364              	.LASF86:
 3365 044a 63685F69 		.ascii	"ch_identifier\000"
 3365      64656E74 
 3365      69666965 
 3365      7200
 3366              	.LASF193:
 3367 0458 63686970 		.ascii	"chip_select_polarity\000"
 3367      5F73656C 
 3367      6563745F 
 3367      706F6C61 
 3367      72697479 
 3368              	.LASF221:
 3369 046d 2E2E2F2F 		.ascii	"..//os/hal/src/i2c.c\000"
 3369      6F732F68 
 3369      616C2F73 
 3369      72632F69 
 3369      32632E63 
 3370              	.LASF171:
 3371 0482 6576656E 		.ascii	"event\000"
 3371      7400
 3372              	.LASF51:
 3373 0488 636F6E74 		.ascii	"context\000"
 3373      65787400 
 3374              	.LASF7:
 3375 0490 73686F72 		.ascii	"short unsigned int\000"
 3375      7420756E 
 3375      7369676E 
 3375      65642069 
 3375      6E7400
 3376              	.LASF134:
 3377 04a3 6770696F 		.ascii	"gpio_port_t\000"
 3377      5F706F72 
 3377      745F7400 
 3378              	.LASF130:
 3379 04af 6770636C 		.ascii	"gpclr\000"
 3379      7200
 3380              	.LASF23:
 3381 04b5 6D73675F 		.ascii	"msg_t\000"
 3381      7400
 3382              	.LASF173:
 3383 04bb 6F717565 		.ascii	"oqueue\000"
 3383      756500
 3384              	.LASF64:
 3385 04c2 725F6E65 		.ascii	"r_newer\000"
 3385      77657200 
 3386              	.LASF75:
 3387 04ca 656C5F6E 		.ascii	"el_next\000"
ARM GAS  /var/folders/3j/4xdnk5197cv_b7cw3n33qk7r0000gn/T//cceqryy0.s 			page 64


 3387      65787400 
 3388              	.LASF179:
 3389 04d2 77726974 		.ascii	"writet\000"
 3389      657400
 3390              	.LASF18:
 3391 04d9 746D6F64 		.ascii	"tmode_t\000"
 3391      655F7400 
 3392              	.LASF47:
 3393 04e1 54687265 		.ascii	"ThreadsList\000"
 3393      6164734C 
 3393      69737400 
 3394              	.LASF24:
 3395 04ed 6576656E 		.ascii	"eventmask_t\000"
 3395      746D6173 
 3395      6B5F7400 
 3396              	.LASF116:
 3397 04f9 496E7075 		.ascii	"InputQueue\000"
 3397      74517565 
 3397      756500
 3398              	.LASF70:
 3399 0504 4D757465 		.ascii	"Mutex\000"
 3399      7800
 3400              	.LASF143:
 3401 050a 4932435F 		.ascii	"I2C_ACTIVE_RX\000"
 3401      41435449 
 3401      56455F52 
 3401      5800
 3402              	.LASF106:
 3403 0518 47656E65 		.ascii	"GenericQueue\000"
 3403      72696351 
 3403      75657565 
 3403      00
 3404              	.LASF48:
 3405 0525 73746B61 		.ascii	"stkalign_t\000"
 3405      6C69676E 
 3405      5F7400
 3406              	.LASF216:
 3407 0530 6932635F 		.ascii	"i2c_lld_stop\000"
 3407      6C6C645F 
 3407      73746F70 
 3407      00
 3408              	.LASF87:
 3409 053d 63685F7A 		.ascii	"ch_zero\000"
 3409      65726F00 
 3410              	.LASF101:
 3411 0545 63665F6F 		.ascii	"cf_off_refs\000"
 3411      66665F72 
 3411      65667300 
 3412              	.LASF131:
 3413 0551 67706C65 		.ascii	"gplev\000"
 3413      7600
 3414              	.LASF177:
 3415 0557 70757474 		.ascii	"putt\000"
 3415      00
 3416              	.LASF56:
 3417 055c 76745F74 		.ascii	"vt_time\000"
 3417      696D6500 
ARM GAS  /var/folders/3j/4xdnk5197cv_b7cw3n33qk7r0000gn/T//cceqryy0.s 			page 65


 3418              	.LASF140:
 3419 0564 4932435F 		.ascii	"I2C_STOP\000"
 3419      53544F50 
 3419      00
 3420              	.LASF125:
 3421 056d 636C6F63 		.ascii	"clockDivider\000"
 3421      6B446976 
 3421      69646572 
 3421      00
 3422              	.LASF108:
 3423 057a 715F636F 		.ascii	"q_counter\000"
 3423      756E7465 
 3423      7200
 3424              	.LASF57:
 3425 0584 76745F66 		.ascii	"vt_func\000"
 3425      756E6300 
 3426              	.LASF91:
 3427 058c 63685F74 		.ascii	"ch_timesize\000"
 3427      696D6573 
 3427      697A6500 
 3428              	.LASF162:
 3429 0598 69635F73 		.ascii	"ic_speed\000"
 3429      70656564 
 3429      00
 3430              	.LASF97:
 3431 05a1 63665F6F 		.ascii	"cf_off_name\000"
 3431      66665F6E 
 3431      616D6500 
 3432              	.LASF213:
 3433 05ad 63684D74 		.ascii	"chMtxLock\000"
 3433      784C6F63 
 3433      6B00
 3434              	.LASF33:
 3435 05b7 705F6F6C 		.ascii	"p_older\000"
 3435      64657200 
 3436              	.LASF158:
 3437 05bf 72786279 		.ascii	"rxbytes\000"
 3437      74657300 
 3438              	.LASF111:
 3439 05c7 715F7772 		.ascii	"q_wrptr\000"
 3439      70747200 
 3440              	.LASF63:
 3441 05cf 725F6374 		.ascii	"r_ctx\000"
 3441      7800
 3442              	.LASF46:
 3443 05d5 54687265 		.ascii	"ThreadsQueue\000"
 3443      61647351 
 3443      75657565 
 3443      00
 3444              	.LASF88:
 3445 05e2 63685F73 		.ascii	"ch_size\000"
 3445      697A6500 
 3446              	.LASF136:
 3447 05ea 494F504F 		.ascii	"IOPORT0\000"
 3447      52543000 
 3448              	.LASF66:
 3449 05f2 725F6375 		.ascii	"r_current\000"
ARM GAS  /var/folders/3j/4xdnk5197cv_b7cw3n33qk7r0000gn/T//cceqryy0.s 			page 66


 3449      7272656E 
 3449      7400
 3450              	.LASF65:
 3451 05fc 725F6F6C 		.ascii	"r_older\000"
 3451      64657200 
 3452              	.LASF77:
 3453 0604 656C5F6D 		.ascii	"el_mask\000"
 3453      61736B00 
 3454              	.LASF208:
 3455 060c 69326353 		.ascii	"i2cStop\000"
 3455      746F7000 
 3456              	.LASF129:
 3457 0614 67707365 		.ascii	"gpset\000"
 3457      7400
 3458              	.LASF132:
 3459 061a 67707075 		.ascii	"gppudclk\000"
 3459      64636C6B 
 3459      00
 3460              	.LASF191:
 3461 0623 6C6F7373 		.ascii	"lossiEnabled\000"
 3461      69456E61 
 3461      626C6564 
 3461      00
 3462              	.LASF192:
 3463 0630 63686970 		.ascii	"chip_select\000"
 3463      5F73656C 
 3463      65637400 
 3464              	.LASF20:
 3465 063c 74726566 		.ascii	"trefs_t\000"
 3465      735F7400 
 3466              	.LASF145:
 3467 0644 69326373 		.ascii	"i2cstate_t\000"
 3467      74617465 
 3467      5F7400
 3468              	.LASF90:
 3469 064f 63685F70 		.ascii	"ch_ptrsize\000"
 3469      74727369 
 3469      7A6500
 3470              	.LASF115:
 3471 065a 716E6F74 		.ascii	"qnotify_t\000"
 3471      6966795F 
 3471      7400
 3472              	.LASF29:
 3473 0664 705F7072 		.ascii	"p_prev\000"
 3473      657600
 3474              	.LASF202:
 3475 066b 69326341 		.ascii	"i2cAcquireBus\000"
 3475      63717569 
 3475      72654275 
 3475      7300
 3476              	.LASF22:
 3477 0679 74707269 		.ascii	"tprio_t\000"
 3477      6F5F7400 
 3478              	.LASF112:
 3479 0681 715F7264 		.ascii	"q_rdptr\000"
 3479      70747200 
 3480              	.LASF160:
ARM GAS  /var/folders/3j/4xdnk5197cv_b7cw3n33qk7r0000gn/T//cceqryy0.s 			page 67


 3481 0689 69326366 		.ascii	"i2cflags_t\000"
 3481      6C616773 
 3481      5F7400
 3482              	.LASF151:
 3483 0694 6D757465 		.ascii	"mutex\000"
 3483      7800
 3484              	.LASF217:
 3485 069a 6932635F 		.ascii	"i2c_lld_start\000"
 3485      6C6C645F 
 3485      73746172 
 3485      7400
 3486              	.LASF16:
 3487 06a8 696E7433 		.ascii	"int32_t\000"
 3487      325F7400 
 3488              	.LASF4:
 3489 06b0 756E7369 		.ascii	"unsigned char\000"
 3489      676E6564 
 3489      20636861 
 3489      7200
 3490              	.LASF76:
 3491 06be 656C5F6C 		.ascii	"el_listener\000"
 3491      69737465 
 3491      6E657200 
 3492              	.LASF78:
 3493 06ca 656C5F66 		.ascii	"el_flags\000"
 3493      6C616773 
 3493      00
 3494              	.LASF44:
 3495 06d3 705F6D74 		.ascii	"p_mtxlist\000"
 3495      786C6973 
 3495      7400
 3496              	.LASF5:
 3497 06dd 73686F72 		.ascii	"short int\000"
 3497      7420696E 
 3497      7400
 3498              	.LASF35:
 3499 06e7 705F7374 		.ascii	"p_state\000"
 3499      61746500 
 3500              	.LASF38:
 3501 06ef 705F7072 		.ascii	"p_preempt\000"
 3501      65656D70 
 3501      7400
 3502              	.LASF103:
 3503 06f9 63665F6F 		.ascii	"cf_off_time\000"
 3503      66665F74 
 3503      696D6500 
 3504              	.LASF62:
 3505 0705 725F7072 		.ascii	"r_prio\000"
 3505      696F00
 3506              	.LASF133:
 3507 070c 70696E5F 		.ascii	"pin_base\000"
 3507      62617365 
 3507      00
 3508              	.LASF84:
 3509 0715 65776D61 		.ascii	"ewmask\000"
 3509      736B00
 3510              	.LASF28:
ARM GAS  /var/folders/3j/4xdnk5197cv_b7cw3n33qk7r0000gn/T//cceqryy0.s 			page 68


 3511 071c 705F6E65 		.ascii	"p_next\000"
 3511      787400
 3512              	.LASF137:
 3513 0723 494F504F 		.ascii	"IOPORT1\000"
 3513      52543100 
 3514              	.LASF102:
 3515 072b 63665F6F 		.ascii	"cf_off_preempt\000"
 3515      66665F70 
 3515      7265656D 
 3515      707400
 3516              	.LASF36:
 3517 073a 705F666C 		.ascii	"p_flags\000"
 3517      61677300 
 3518              	.LASF27:
 3519 0742 54687265 		.ascii	"Thread\000"
 3519      616400
 3520              	.LASF198:
 3521 0749 636C6F63 		.ascii	"clock_divider\000"
 3521      6B5F6469 
 3521      76696465 
 3521      7200
 3522              	.LASF95:
 3523 0757 63665F6F 		.ascii	"cf_off_newer\000"
 3523      66665F6E 
 3523      65776572 
 3523      00
 3524              	.LASF144:
 3525 0764 4932435F 		.ascii	"I2C_LOCKED\000"
 3525      4C4F434B 
 3525      454400
 3526              	.LASF43:
 3527 076f 705F6570 		.ascii	"p_epending\000"
 3527      656E6469 
 3527      6E6700
 3528              	.LASF166:
 3529 077a 53445F55 		.ascii	"SD_UNINIT\000"
 3529      4E494E49 
 3529      5400
 3530              	.LASF17:
 3531 0784 75696E74 		.ascii	"uint32_t\000"
 3531      33325F74 
 3531      00
 3532              	.LASF93:
 3533 078d 63665F6F 		.ascii	"cf_off_prio\000"
 3533      66665F70 
 3533      72696F00 
 3534              	.LASF61:
 3535 0799 725F7175 		.ascii	"r_queue\000"
 3535      65756500 
 3536              	.LASF53:
 3537 07a1 56697274 		.ascii	"VirtualTimer\000"
 3537      75616C54 
 3537      696D6572 
 3537      00
 3538              	.LASF170:
 3539 07ae 53657269 		.ascii	"SerialDriver\000"
 3539      616C4472 
ARM GAS  /var/folders/3j/4xdnk5197cv_b7cw3n33qk7r0000gn/T//cceqryy0.s 			page 69


 3539      69766572 
 3539      00
 3540              	.LASF21:
 3541 07bb 74736C69 		.ascii	"tslices_t\000"
 3541      6365735F 
 3541      7400
 3542              	.LASF176:
 3543 07c5 72656164 		.ascii	"read\000"
 3543      00
 3544              	.LASF85:
 3545 07ca 63686172 		.ascii	"char\000"
 3545      00
 3546              	.LASF185:
 3547 07cf 5350495F 		.ascii	"SPI_COMPLETE\000"
 3547      434F4D50 
 3547      4C455445 
 3547      00
 3548              	.LASF148:
 3549 07dc 636F6E66 		.ascii	"config\000"
 3549      696700
 3550              	.LASF6:
 3551 07e3 5F5F7569 		.ascii	"__uint16_t\000"
 3551      6E743136 
 3551      5F7400
 3552              	.LASF186:
 3553 07ee 73706973 		.ascii	"spistate_t\000"
 3553      74617465 
 3553      5F7400
 3554              	.LASF73:
 3555 07f9 6D5F6E65 		.ascii	"m_next\000"
 3555      787400
 3556              	.LASF26:
 3557 0800 73797374 		.ascii	"systime_t\000"
 3557      696D655F 
 3557      7400
 3558              	.LASF45:
 3559 080a 705F7265 		.ascii	"p_realprio\000"
 3559      616C7072 
 3559      696F00
 3560              	.LASF8:
 3561 0815 5F5F696E 		.ascii	"__int32_t\000"
 3561      7433325F 
 3561      7400
 3562              	.LASF141:
 3563 081f 4932435F 		.ascii	"I2C_READY\000"
 3563      52454144 
 3563      5900
 3564              	.LASF146:
 3565 0829 49324344 		.ascii	"I2CDriver\000"
 3565      72697665 
 3565      7200
 3566              	.LASF39:
 3567 0833 705F7469 		.ascii	"p_time\000"
 3567      6D6500
 3568              	.LASF196:
 3569 083a 636C6F63 		.ascii	"clock_polarity\000"
 3569      6B5F706F 
ARM GAS  /var/folders/3j/4xdnk5197cv_b7cw3n33qk7r0000gn/T//cceqryy0.s 			page 70


 3569      6C617269 
 3569      747900
 3570              	.LASF210:
 3571 0849 6932634F 		.ascii	"i2cObjectInit\000"
 3571      626A6563 
 3571      74496E69 
 3571      7400
 3572              	.LASF50:
 3573 0857 696E7463 		.ascii	"intctx\000"
 3573      747800
 3574              	.LASF41:
 3575 085e 705F6D73 		.ascii	"p_msgqueue\000"
 3575      67717565 
 3575      756500
 3576              	.LASF168:
 3577 0869 53445F52 		.ascii	"SD_READY\000"
 3577      45414459 
 3577      00
 3578              	.LASF183:
 3579 0872 5350495F 		.ascii	"SPI_READY\000"
 3579      52454144 
 3579      5900
 3580              	.LASF181:
 3581 087c 5350495F 		.ascii	"SPI_UNINIT\000"
 3581      554E494E 
 3581      495400
 3582              	.LASF58:
 3583 0887 76745F70 		.ascii	"vt_par\000"
 3583      617200
 3584              	.LASF218:
 3585 088e 63684D74 		.ascii	"chMtxInit\000"
 3585      78496E69 
 3585      7400
 3586              	.LASF25:
 3587 0898 666C6167 		.ascii	"flagsmask_t\000"
 3587      736D6173 
 3587      6B5F7400 
 3588              	.LASF163:
 3589 08a4 49324343 		.ascii	"I2CConfig\000"
 3589      6F6E6669 
 3589      6700
 3590              	.LASF169:
 3591 08ae 73647374 		.ascii	"sdstate_t\000"
 3591      6174655F 
 3591      7400
 3592              	.LASF156:
 3593 08b8 74786964 		.ascii	"txidx\000"
 3593      7800
 3594              	.LASF94:
 3595 08be 63665F6F 		.ascii	"cf_off_ctx\000"
 3595      66665F63 
 3595      747800
 3596              	.LASF219:
 3597 08c9 6932635F 		.ascii	"i2c_lld_init\000"
 3597      6C6C645F 
 3597      696E6974 
 3597      00
ARM GAS  /var/folders/3j/4xdnk5197cv_b7cw3n33qk7r0000gn/T//cceqryy0.s 			page 71


 3598              	.LASF37:
 3599 08d6 705F7265 		.ascii	"p_refs\000"
 3599      667300
 3600              	.LASF121:
 3601 08dd 73746174 		.ascii	"status\000"
 3601      757300
 3602              	.LASF67:
 3603 08e4 52656164 		.ascii	"ReadyList\000"
 3603      794C6973 
 3603      7400
 3604              	.LASF113:
 3605 08ee 715F6E6F 		.ascii	"q_notify\000"
 3605      74696679 
 3605      00
 3606              	.LASF69:
 3607 08f7 726C6973 		.ascii	"rlist\000"
 3607      7400
 3608              	.LASF14:
 3609 08fd 75696E74 		.ascii	"uint8_t\000"
 3609      385F7400 
 3610              	.LASF128:
 3611 0905 6C617463 		.ascii	"latch\000"
 3611      6800
 3612              	.LASF205:
 3613 090b 6932634D 		.ascii	"i2cMasterReceiveTimeout\000"
 3613      61737465 
 3613      72526563 
 3613      65697665 
 3613      54696D65 
 3614              	.LASF74:
 3615 0923 4576656E 		.ascii	"EventListener\000"
 3615      744C6973 
 3615      74656E65 
 3615      7200
 3616              	.LASF83:
 3617 0931 77746F62 		.ascii	"wtobjp\000"
 3617      6A7000
 3618              	.LASF34:
 3619 0938 705F6E61 		.ascii	"p_name\000"
 3619      6D6500
 3620              	.LASF59:
 3621 093f 76745F73 		.ascii	"vt_systime\000"
 3621      79737469 
 3621      6D6500
 3622              	.LASF80:
 3623 094a 65735F6E 		.ascii	"es_next\000"
 3623      65787400 
 3624              	.LASF199:
 3625 0952 53504943 		.ascii	"SPIConfig\000"
 3625      6F6E6669 
 3625      6700
 3626              	.LASF211:
 3627 095c 69326349 		.ascii	"i2cInit\000"
 3627      6E697400 
 3628              	.LASF89:
 3629 0964 63685F76 		.ascii	"ch_version\000"
 3629      65727369 
ARM GAS  /var/folders/3j/4xdnk5197cv_b7cw3n33qk7r0000gn/T//cceqryy0.s 			page 72


 3629      6F6E00
 3630              	.LASF122:
 3631 096f 64617461 		.ascii	"dataLength\000"
 3631      4C656E67 
 3631      746800
 3632              	.LASF60:
 3633 097a 56544C69 		.ascii	"VTList\000"
 3633      737400
 3634              	.LASF114:
 3635 0981 715F6C69 		.ascii	"q_link\000"
 3635      6E6B00
 3636              	.LASF135:
 3637 0988 50414C43 		.ascii	"PALConfig\000"
 3637      6F6E6669 
 3637      6700
 3638              	.LASF72:
 3639 0992 6D5F6F77 		.ascii	"m_owner\000"
 3639      6E657200 
 3640              	.LASF138:
 3641 099a 70616C5F 		.ascii	"pal_default_config\000"
 3641      64656661 
 3641      756C745F 
 3641      636F6E66 
 3641      696700
 3642              	.LASF31:
 3643 09ad 705F6374 		.ascii	"p_ctx\000"
 3643      7800
 3644              	.LASF40:
 3645 09b3 705F7761 		.ascii	"p_waiting\000"
 3645      6974696E 
 3645      6700
 3646              	.LASF155:
 3647 09bd 74786279 		.ascii	"txbytes\000"
 3647      74657300 
 3648              	.LASF127:
 3649 09c5 636C6F63 		.ascii	"clockStretchTimeout\000"
 3649      6B537472 
 3649      65746368 
 3649      54696D65 
 3649      6F757400 
 3650              		.ident	"GCC: (GNU Tools for Arm Embedded Processors 7-2018-q2-update) 7.3.1 20180622 (release) [AR
ARM GAS  /var/folders/3j/4xdnk5197cv_b7cw3n33qk7r0000gn/T//cceqryy0.s 			page 73


DEFINED SYMBOLS
                            *ABS*:0000000000000000 i2c.c
/var/folders/3j/4xdnk5197cv_b7cw3n33qk7r0000gn/T//cceqryy0.s:16     .text.i2cInit:0000000000000000 $a
/var/folders/3j/4xdnk5197cv_b7cw3n33qk7r0000gn/T//cceqryy0.s:22     .text.i2cInit:0000000000000000 i2cInit
/var/folders/3j/4xdnk5197cv_b7cw3n33qk7r0000gn/T//cceqryy0.s:37     .text.i2cObjectInit:0000000000000000 $a
/var/folders/3j/4xdnk5197cv_b7cw3n33qk7r0000gn/T//cceqryy0.s:43     .text.i2cObjectInit:0000000000000000 i2cObjectInit
/var/folders/3j/4xdnk5197cv_b7cw3n33qk7r0000gn/T//cceqryy0.s:68     .text.i2cStart:0000000000000000 $a
/var/folders/3j/4xdnk5197cv_b7cw3n33qk7r0000gn/T//cceqryy0.s:74     .text.i2cStart:0000000000000000 i2cStart
/var/folders/3j/4xdnk5197cv_b7cw3n33qk7r0000gn/T//cceqryy0.s:115    .text.i2cStop:0000000000000000 $a
/var/folders/3j/4xdnk5197cv_b7cw3n33qk7r0000gn/T//cceqryy0.s:121    .text.i2cStop:0000000000000000 i2cStop
/var/folders/3j/4xdnk5197cv_b7cw3n33qk7r0000gn/T//cceqryy0.s:160    .text.i2cGetErrors:0000000000000000 $a
/var/folders/3j/4xdnk5197cv_b7cw3n33qk7r0000gn/T//cceqryy0.s:166    .text.i2cGetErrors:0000000000000000 i2cGetErrors
/var/folders/3j/4xdnk5197cv_b7cw3n33qk7r0000gn/T//cceqryy0.s:182    .text.i2cMasterTransmitTimeout:0000000000000000 $a
/var/folders/3j/4xdnk5197cv_b7cw3n33qk7r0000gn/T//cceqryy0.s:188    .text.i2cMasterTransmitTimeout:0000000000000000 i2cMasterTransmitTimeout
/var/folders/3j/4xdnk5197cv_b7cw3n33qk7r0000gn/T//cceqryy0.s:254    .text.i2cMasterReceiveTimeout:0000000000000000 $a
/var/folders/3j/4xdnk5197cv_b7cw3n33qk7r0000gn/T//cceqryy0.s:260    .text.i2cMasterReceiveTimeout:0000000000000000 i2cMasterReceiveTimeout
/var/folders/3j/4xdnk5197cv_b7cw3n33qk7r0000gn/T//cceqryy0.s:320    .text.i2cAcquireBus:0000000000000000 $a
/var/folders/3j/4xdnk5197cv_b7cw3n33qk7r0000gn/T//cceqryy0.s:326    .text.i2cAcquireBus:0000000000000000 i2cAcquireBus
/var/folders/3j/4xdnk5197cv_b7cw3n33qk7r0000gn/T//cceqryy0.s:343    .text.i2cReleaseBus:0000000000000000 $a
/var/folders/3j/4xdnk5197cv_b7cw3n33qk7r0000gn/T//cceqryy0.s:349    .text.i2cReleaseBus:0000000000000000 i2cReleaseBus

UNDEFINED SYMBOLS
i2c_lld_init
chMtxInit
i2c_lld_start
i2c_lld_stop
i2c_lld_master_transmit_timeout
i2c_lld_master_receive_timeout
chMtxLock
chMtxUnlock
