ARM GAS  /var/folders/3j/4xdnk5197cv_b7cw3n33qk7r0000gn/T//ccrJgg3J.s 			page 1


   1              		.cpu arm1176jz-s
   2              		.eabi_attribute 20, 1
   3              		.eabi_attribute 21, 1
   4              		.eabi_attribute 23, 3
   5              		.eabi_attribute 24, 1
   6              		.eabi_attribute 25, 1
   7              		.eabi_attribute 26, 1
   8              		.eabi_attribute 30, 2
   9              		.eabi_attribute 34, 1
  10              		.eabi_attribute 18, 4
  11              		.file	"i2c_lld.c"
  12              		.text
  13              	.Ltext0:
  14              		.cfi_sections	.debug_frame
  15              		.section	.text.i2c_lld_safety_timeout,"ax",%progbits
  16              		.align	2
  17              		.syntax unified
  18              		.arm
  19              		.fpu softvfp
  20              		.type	i2c_lld_safety_timeout, %function
  21              	i2c_lld_safety_timeout:
  22              	.LFB7:
  23              		.file 1 "..//os/hal/platforms/BCM2835/i2c_lld.c"
  24              		.loc 1 78 0
  25              		.cfi_startproc
  26              		@ args = 0, pretend = 0, frame = 0
  27              		@ frame_needed = 0, uses_anonymous_args = 0
  28              	.LVL0:
  29              		.loc 1 81 0
  30 0000 201090E5 		ldr	r1, [r0, #32]
  31 0004 000051E3 		cmp	r1, #0
  32 0008 1EFF2F01 		bxeq	lr
  33 000c 0030A0E1 		mov	r3, r0
  34              	.LBB2:
  35              		.loc 1 82 0
  36 0010 0C2090E5 		ldr	r2, [r0, #12]
  37              	.LVL1:
  38              		.loc 1 84 0
  39 0014 080090E5 		ldr	r0, [r0, #8]
  40              	.LVL2:
  41              	.LBE2:
  42              		.loc 1 78 0
  43 0018 04E02DE5 		str	lr, [sp, #-4]!
  44              		.cfi_def_cfa_offset 4
  45              		.cfi_offset 14, -4
  46              	.LBB3:
  47              		.loc 1 85 0
  48 001c 04E092E5 		ldr	lr, [r2, #4]
  49              		.loc 1 84 0
  50 0020 20C080E3 		orr	ip, r0, #32
  51 0024 08C083E5 		str	ip, [r3, #8]
  52              		.loc 1 85 0
  53 0028 020C1EE3 		tst	lr, #512
  54              		.loc 1 90 0
  55 002c 00C0A0E3 		mov	ip, #0
  56              		.loc 1 95 0
  57 0030 00E0E0E3 		mvn	lr, #0
ARM GAS  /var/folders/3j/4xdnk5197cv_b7cw3n33qk7r0000gn/T//ccrJgg3J.s 			page 2


  58              		.loc 1 86 0
  59 0034 21008013 		orrne	r0, r0, #33
  60 0038 08008315 		strne	r0, [r3, #8]
  61              		.loc 1 87 0
  62 003c 040092E5 		ldr	r0, [r2, #4]
  63 0040 010C10E3 		tst	r0, #256
  64              		.loc 1 88 0
  65 0044 08009315 		ldrne	r0, [r3, #8]
  66 0048 04008013 		orrne	r0, r0, #4
  67 004c 08008315 		strne	r0, [r3, #8]
  68              		.loc 1 91 0
  69 0050 18009FE5 		ldr	r0, .L15
  70              		.loc 1 90 0
  71 0054 00C082E5 		str	ip, [r2]
  72              		.loc 1 91 0
  73 0058 040082E5 		str	r0, [r2, #4]
  74              	.LVL3:
  75              		.loc 1 94 0
  76 005c 20C083E5 		str	ip, [r3, #32]
  77              		.loc 1 96 0
  78 0060 0100A0E1 		mov	r0, r1
  79              		.loc 1 95 0
  80 0064 24E081E5 		str	lr, [r1, #36]
  81              	.LBE3:
  82              		.loc 1 99 0
  83 0068 04E09DE4 		ldr	lr, [sp], #4
  84              		.cfi_restore 14
  85              		.cfi_def_cfa_offset 0
  86              	.LBB4:
  87              		.loc 1 96 0
  88 006c FEFFFFEA 		b	chSchReadyI
  89              	.LVL4:
  90              	.L16:
  91              		.align	2
  92              	.L15:
  93 0070 02030000 		.word	770
  94              	.LBE4:
  95              		.cfi_endproc
  96              	.LFE7:
  97              		.size	i2c_lld_safety_timeout, .-i2c_lld_safety_timeout
  98              		.section	.text.i2c_lld_serve_interrupt,"ax",%progbits
  99              		.align	2
 100              		.global	i2c_lld_serve_interrupt
 101              		.syntax unified
 102              		.arm
 103              		.fpu softvfp
 104              		.type	i2c_lld_serve_interrupt, %function
 105              	i2c_lld_serve_interrupt:
 106              	.LFB8:
 107              		.loc 1 105 0
 108              		.cfi_startproc
 109              		@ args = 0, pretend = 0, frame = 0
 110              		@ frame_needed = 0, uses_anonymous_args = 0
 111              	.LVL5:
 112              		.loc 1 107 0
 113 0000 0C2090E5 		ldr	r2, [r0, #12]
 114              	.LVL6:
ARM GAS  /var/folders/3j/4xdnk5197cv_b7cw3n33qk7r0000gn/T//ccrJgg3J.s 			page 3


 115              		.loc 1 108 0
 116 0004 041092E5 		ldr	r1, [r2, #4]
 117              	.LVL7:
 118              		.loc 1 110 0
 119 0008 030C11E3 		tst	r1, #768
 120 000c 0800000A 		beq	.L18
 121              		.loc 1 112 0
 122 0010 203090E5 		ldr	r3, [r0, #32]
 123 0014 000053E3 		cmp	r3, #0
 124 0018 1EFF2F01 		bxeq	lr
 125              	.LVL8:
 126              	.LBB5:
 127              		.loc 1 112 0 is_stmt 0 discriminator 1
 128 001c 0010A0E3 		mov	r1, #0
 129              	.LVL9:
 130 0020 0120E0E3 		mvn	r2, #1
 131              	.LVL10:
 132 0024 201080E5 		str	r1, [r0, #32]
 133 0028 0300A0E1 		mov	r0, r3
 134              	.LVL11:
 135 002c 242083E5 		str	r2, [r3, #36]
 136 0030 FEFFFFEA 		b	chSchReadyI
 137              	.LVL12:
 138              	.L18:
 139              	.LBE5:
 140              		.loc 1 114 0 is_stmt 1
 141 0034 020011E3 		tst	r1, #2
 142              		.loc 1 105 0
 143 0038 04E02DE5 		str	lr, [sp, #-4]!
 144              		.cfi_def_cfa_offset 4
 145              		.cfi_offset 14, -4
 146              		.loc 1 114 0
 147 003c 1A00000A 		beq	.L20
 148              		.loc 1 115 0
 149 0040 200011E3 		tst	r1, #32
 150 0044 0C00000A 		beq	.L21
 151 0048 3C3090E5 		ldr	r3, [r0, #60]
 152 004c 381090E5 		ldr	r1, [r0, #56]
 153              	.LVL13:
 154 0050 030051E1 		cmp	r1, r3
 155 0054 0800009A 		bls	.L21
 156              	.L22:
 157              		.loc 1 116 0
 158 0058 10C092E5 		ldr	ip, [r2, #16]
 159 005c 341090E5 		ldr	r1, [r0, #52]
 160 0060 01E083E2 		add	lr, r3, #1
 161 0064 3CE080E5 		str	lr, [r0, #60]
 162 0068 03C0C1E7 		strb	ip, [r1, r3]
 163              		.loc 1 115 0
 164 006c 3C3090E5 		ldr	r3, [r0, #60]
 165 0070 381090E5 		ldr	r1, [r0, #56]
 166 0074 010053E1 		cmp	r3, r1
 167 0078 F6FFFF3A 		bcc	.L22
 168              	.L21:
 169              		.loc 1 117 0
 170 007c 0010A0E3 		mov	r1, #0
 171              		.loc 1 119 0
ARM GAS  /var/folders/3j/4xdnk5197cv_b7cw3n33qk7r0000gn/T//ccrJgg3J.s 			page 4


 172 0080 203090E5 		ldr	r3, [r0, #32]
 173              		.loc 1 118 0
 174 0084 BCC09FE5 		ldr	ip, .L51
 175              		.loc 1 119 0
 176 0088 010053E1 		cmp	r3, r1
 177              		.loc 1 117 0
 178 008c 001082E5 		str	r1, [r2]
 179              		.loc 1 118 0
 180 0090 04C082E5 		str	ip, [r2, #4]
 181              		.loc 1 119 0
 182 0094 04F09D04 		ldreq	pc, [sp], #4
 183              	.LVL14:
 184              	.LBB6:
 185              		.loc 1 119 0 is_stmt 0 discriminator 1
 186 0098 201080E5 		str	r1, [r0, #32]
 187              	.LBE6:
 188              		.loc 1 129 0 is_stmt 1 discriminator 1
 189 009c 04E09DE4 		ldr	lr, [sp], #4
 190              		.cfi_remember_state
 191              		.cfi_restore 14
 192              		.cfi_def_cfa_offset 0
 193              	.LBB7:
 194              		.loc 1 119 0 discriminator 1
 195 00a0 0300A0E1 		mov	r0, r3
 196              	.LVL15:
 197 00a4 241083E5 		str	r1, [r3, #36]
 198 00a8 FEFFFFEA 		b	chSchReadyI
 199              	.LVL16:
 200              	.L20:
 201              		.cfi_restore_state
 202              	.LBE7:
 203              		.loc 1 121 0
 204 00ac 040011E3 		tst	r1, #4
 205 00b0 1200000A 		beq	.L23
 206              		.loc 1 122 0
 207 00b4 303090E5 		ldr	r3, [r0, #48]
 208 00b8 2CC090E5 		ldr	ip, [r0, #44]
 209 00bc 0C0053E1 		cmp	r3, ip
 210 00c0 04F09D24 		ldrcs	pc, [sp], #4
 211 00c4 100011E3 		tst	r1, #16
 212 00c8 04F09D04 		ldreq	pc, [sp], #4
 213              		.loc 1 123 0
 214 00cc 28E090E5 		ldr	lr, [r0, #40]
 215 00d0 013043E2 		sub	r3, r3, #1
 216 00d4 01C04CE2 		sub	ip, ip, #1
 217 00d8 03308EE0 		add	r3, lr, r3
 218 00dc 0CC08EE0 		add	ip, lr, ip
 219 00e0 02E06EE2 		rsb	lr, lr, #2
 220              	.LVL17:
 221              	.L24:
 222 00e4 03108EE0 		add	r1, lr, r3
 223 00e8 301080E5 		str	r1, [r0, #48]
 224 00ec 0110F3E5 		ldrb	r1, [r3, #1]!	@ zero_extendqisi2
 225              		.loc 1 122 0
 226 00f0 0C0053E1 		cmp	r3, ip
 227              		.loc 1 123 0
 228 00f4 101082E5 		str	r1, [r2, #16]
ARM GAS  /var/folders/3j/4xdnk5197cv_b7cw3n33qk7r0000gn/T//ccrJgg3J.s 			page 5


 229              		.loc 1 122 0
 230 00f8 F9FFFF1A 		bne	.L24
 231 00fc 04F09DE4 		ldr	pc, [sp], #4
 232              	.LVL18:
 233              	.L23:
 234              		.loc 1 125 0
 235 0100 080011E3 		tst	r1, #8
 236 0104 04F09D04 		ldreq	pc, [sp], #4
 237              		.loc 1 126 0
 238 0108 3C3090E5 		ldr	r3, [r0, #60]
 239 010c 38C090E5 		ldr	ip, [r0, #56]
 240 0110 03005CE1 		cmp	ip, r3
 241 0114 04F09D94 		ldrls	pc, [sp], #4
 242 0118 200011E3 		tst	r1, #32
 243 011c 04F09D04 		ldreq	pc, [sp], #4
 244              	.LVL19:
 245              	.L25:
 246              		.loc 1 127 0
 247 0120 10C092E5 		ldr	ip, [r2, #16]
 248 0124 341090E5 		ldr	r1, [r0, #52]
 249 0128 01E083E2 		add	lr, r3, #1
 250 012c 3CE080E5 		str	lr, [r0, #60]
 251 0130 03C0C1E7 		strb	ip, [r1, r3]
 252              		.loc 1 126 0
 253 0134 3C3090E5 		ldr	r3, [r0, #60]
 254 0138 381090E5 		ldr	r1, [r0, #56]
 255 013c 010053E1 		cmp	r3, r1
 256 0140 F6FFFF3A 		bcc	.L25
 257 0144 04F09DE4 		ldr	pc, [sp], #4
 258              	.L52:
 259              		.align	2
 260              	.L51:
 261 0148 02030000 		.word	770
 262              		.cfi_endproc
 263              	.LFE8:
 264              		.size	i2c_lld_serve_interrupt, .-i2c_lld_serve_interrupt
 265              		.section	.text.i2c_lld_init,"ax",%progbits
 266              		.align	2
 267              		.global	i2c_lld_init
 268              		.syntax unified
 269              		.arm
 270              		.fpu softvfp
 271              		.type	i2c_lld_init, %function
 272              	i2c_lld_init:
 273              	.LFB9:
 274              		.loc 1 140 0
 275              		.cfi_startproc
 276              		@ args = 0, pretend = 0, frame = 0
 277              		@ frame_needed = 0, uses_anonymous_args = 0
 278              		@ link register save eliminated.
 279              		.loc 1 141 0
 280 0000 0C309FE5 		ldr	r3, .L54
 281 0004 0C209FE5 		ldr	r2, .L54+4
 282              		.loc 1 142 0
 283 0008 0300A0E1 		mov	r0, r3
 284              		.loc 1 141 0
 285 000c 0C2083E5 		str	r2, [r3, #12]
ARM GAS  /var/folders/3j/4xdnk5197cv_b7cw3n33qk7r0000gn/T//ccrJgg3J.s 			page 6


 286              		.loc 1 142 0
 287 0010 FEFFFFEA 		b	i2cObjectInit
 288              	.LVL20:
 289              	.L55:
 290              		.align	2
 291              	.L54:
 292 0014 00000000 		.word	I2C0
 293 0018 00502020 		.word	538988544
 294              		.cfi_endproc
 295              	.LFE9:
 296              		.size	i2c_lld_init, .-i2c_lld_init
 297              		.global	__aeabi_uidiv
 298              		.section	.text.i2c_lld_start,"ax",%progbits
 299              		.align	2
 300              		.global	i2c_lld_start
 301              		.syntax unified
 302              		.arm
 303              		.fpu softvfp
 304              		.type	i2c_lld_start, %function
 305              	i2c_lld_start:
 306              	.LFB10:
 307              		.loc 1 152 0
 308              		.cfi_startproc
 309              		@ args = 0, pretend = 0, frame = 0
 310              		@ frame_needed = 0, uses_anonymous_args = 0
 311              	.LVL21:
 312 0000 10402DE9 		push	{r4, lr}
 313              		.cfi_def_cfa_offset 8
 314              		.cfi_offset 4, -8
 315              		.cfi_offset 14, -4
 316              		.loc 1 152 0
 317 0004 0040A0E1 		mov	r4, r0
 318              		.loc 1 154 0
 319 0008 0410A0E3 		mov	r1, #4
 320 000c 0000A0E3 		mov	r0, #0
 321              	.LVL22:
 322 0010 FEFFFFEB 		bl	bcm2835_gpio_fnsel
 323              	.LVL23:
 324              		.loc 1 155 0
 325 0014 0410A0E3 		mov	r1, #4
 326 0018 0100A0E3 		mov	r0, #1
 327 001c FEFFFFEB 		bl	bcm2835_gpio_fnsel
 328              	.LVL24:
 329              		.loc 1 157 0
 330 0020 042094E5 		ldr	r2, [r4, #4]
 331              		.loc 1 158 0
 332 0024 34309FE5 		ldr	r3, .L61
 333              		.loc 1 157 0
 334 0028 001092E5 		ldr	r1, [r2]
 335              	.LVL25:
 336              		.loc 1 158 0
 337 002c 000051E3 		cmp	r1, #0
 338 0030 03005111 		cmpne	r1, r3
 339 0034 0700000A 		beq	.L60
 340              		.loc 1 159 0
 341 0038 24009FE5 		ldr	r0, .L61+4
 342 003c FEFFFFEB 		bl	__aeabi_uidiv
ARM GAS  /var/folders/3j/4xdnk5197cv_b7cw3n33qk7r0000gn/T//ccrJgg3J.s 			page 7


 343              	.LVL26:
 344 0040 0C2094E5 		ldr	r2, [r4, #12]
 345 0044 140082E5 		str	r0, [r2, #20]
 346              	.L58:
 347              		.loc 1 161 0
 348 0048 003092E5 		ldr	r3, [r2]
 349 004c 023983E3 		orr	r3, r3, #32768
 350 0050 003082E5 		str	r3, [r2]
 351              		.loc 1 162 0
 352 0054 1080BDE8 		pop	{r4, pc}
 353              	.LVL27:
 354              	.L60:
 355 0058 0C2094E5 		ldr	r2, [r4, #12]
 356 005c F9FFFFEA 		b	.L58
 357              	.L62:
 358              		.align	2
 359              	.L61:
 360 0060 A0860100 		.word	100000
 361 0064 80D1F008 		.word	150000000
 362              		.cfi_endproc
 363              	.LFE10:
 364              		.size	i2c_lld_start, .-i2c_lld_start
 365              		.section	.text.i2c_lld_stop,"ax",%progbits
 366              		.align	2
 367              		.global	i2c_lld_stop
 368              		.syntax unified
 369              		.arm
 370              		.fpu softvfp
 371              		.type	i2c_lld_stop, %function
 372              	i2c_lld_stop:
 373              	.LFB11:
 374              		.loc 1 171 0
 375              		.cfi_startproc
 376              		@ args = 0, pretend = 0, frame = 0
 377              		@ frame_needed = 0, uses_anonymous_args = 0
 378              	.LVL28:
 379              		.loc 1 173 0
 380 0000 0010A0E3 		mov	r1, #0
 381              		.loc 1 171 0
 382 0004 10402DE9 		push	{r4, lr}
 383              		.cfi_def_cfa_offset 8
 384              		.cfi_offset 4, -8
 385              		.cfi_offset 14, -4
 386              		.loc 1 171 0
 387 0008 0040A0E1 		mov	r4, r0
 388              		.loc 1 173 0
 389 000c 0100A0E1 		mov	r0, r1
 390              	.LVL29:
 391 0010 FEFFFFEB 		bl	bcm2835_gpio_fnsel
 392              	.LVL30:
 393              		.loc 1 174 0
 394 0014 0010A0E3 		mov	r1, #0
 395 0018 0100A0E3 		mov	r0, #1
 396 001c FEFFFFEB 		bl	bcm2835_gpio_fnsel
 397              	.LVL31:
 398              		.loc 1 176 0
 399 0020 0C2094E5 		ldr	r2, [r4, #12]
ARM GAS  /var/folders/3j/4xdnk5197cv_b7cw3n33qk7r0000gn/T//ccrJgg3J.s 			page 8


 400 0024 003092E5 		ldr	r3, [r2]
 401 0028 0239C3E3 		bic	r3, r3, #32768
 402 002c 003082E5 		str	r3, [r2]
 403              		.loc 1 177 0
 404 0030 1080BDE8 		pop	{r4, pc}
 405              		.cfi_endproc
 406              	.LFE11:
 407              		.size	i2c_lld_stop, .-i2c_lld_stop
 408              		.section	.text.i2c_lld_master_receive_timeout,"ax",%progbits
 409              		.align	2
 410              		.global	i2c_lld_master_receive_timeout
 411              		.syntax unified
 412              		.arm
 413              		.fpu softvfp
 414              		.type	i2c_lld_master_receive_timeout, %function
 415              	i2c_lld_master_receive_timeout:
 416              	.LFB13:
 417              		.loc 1 261 0
 418              		.cfi_startproc
 419              		@ args = 4, pretend = 0, frame = 24
 420              		@ frame_needed = 0, uses_anonymous_args = 0
 421              	.LVL32:
 422 0000 F0412DE9 		push	{r4, r5, r6, r7, r8, lr}
 423              		.cfi_def_cfa_offset 24
 424              		.cfi_offset 4, -24
 425              		.cfi_offset 5, -20
 426              		.cfi_offset 6, -16
 427              		.cfi_offset 7, -12
 428              		.cfi_offset 8, -8
 429              		.cfi_offset 14, -4
 430 0004 18D04DE2 		sub	sp, sp, #24
 431              		.cfi_def_cfa_offset 48
 432              		.loc 1 261 0
 433 0008 30509DE5 		ldr	r5, [sp, #48]
 434 000c 0040A0E1 		mov	r4, r0
 435              		.loc 1 265 0
 436 0010 010075E3 		cmn	r5, #1
 437              		.loc 1 261 0
 438 0014 0170A0E1 		mov	r7, r1
 439 0018 0280A0E1 		mov	r8, r2
 440 001c 0360A0E1 		mov	r6, r3
 441              		.loc 1 265 0
 442 0020 0400000A 		beq	.L66
 443              		.loc 1 266 0
 444 0024 0030A0E1 		mov	r3, r0
 445              	.LVL33:
 446 0028 8C209FE5 		ldr	r2, .L78
 447              	.LVL34:
 448 002c 0510A0E1 		mov	r1, r5
 449              	.LVL35:
 450 0030 04008DE2 		add	r0, sp, #4
 451              	.LVL36:
 452 0034 FEFFFFEB 		bl	chVTSetI
 453              	.LVL37:
 454              	.L66:
 455              		.loc 1 269 0
 456 0038 0020A0E3 		mov	r2, #0
ARM GAS  /var/folders/3j/4xdnk5197cv_b7cw3n33qk7r0000gn/T//ccrJgg3J.s 			page 9


 457              		.loc 1 277 0
 458 003c 0C3094E5 		ldr	r3, [r4, #12]
 459              	.LVL38:
 460              		.loc 1 269 0
 461 0040 282084E5 		str	r2, [r4, #40]
 462              		.loc 1 270 0
 463 0044 2C2084E5 		str	r2, [r4, #44]
 464              		.loc 1 271 0
 465 0048 302084E5 		str	r2, [r4, #48]
 466              		.loc 1 274 0
 467 004c 3C2084E5 		str	r2, [r4, #60]
 468              		.loc 1 280 0
 469 0050 68109FE5 		ldr	r1, .L78+4
 470              		.loc 1 283 0
 471 0054 68209FE5 		ldr	r2, .L78+8
 472              		.loc 1 268 0
 473 0058 B472C4E1 		strh	r7, [r4, #36]	@ movhi
 474              		.loc 1 272 0
 475 005c 348084E5 		str	r8, [r4, #52]
 476              		.loc 1 273 0
 477 0060 386084E5 		str	r6, [r4, #56]
 478              		.loc 1 278 0
 479 0064 0C7083E5 		str	r7, [r3, #12]
 480              		.loc 1 279 0
 481 0068 086083E5 		str	r6, [r3, #8]
 482              		.loc 1 280 0
 483 006c 041083E5 		str	r1, [r3, #4]
 484              		.loc 1 283 0
 485 0070 002083E5 		str	r2, [r3]
 486              		.loc 1 286 0
 487              		.syntax divided
 488              	@ 286 "..//os/hal/platforms/BCM2835/i2c_lld.c" 1
 489 0074 9FF021E3 		msr     CPSR_c, #0x9F
 490              	@ 0 "" 2
 491              		.loc 1 287 0
 492              		.arm
 493              		.syntax unified
 494 0078 48609FE5 		ldr	r6, .L78+12
 495              	.LVL39:
 496              		.loc 1 288 0
 497 007c 0200A0E3 		mov	r0, #2
 498              		.loc 1 287 0
 499 0080 183096E5 		ldr	r3, [r6, #24]
 500              	.LVL40:
 501 0084 203084E5 		str	r3, [r4, #32]
 502              		.loc 1 288 0
 503 0088 FEFFFFEB 		bl	chSchGoSleepS
 504              	.LVL41:
 505              		.loc 1 289 0
 506 008c 010075E3 		cmn	r5, #1
 507 0090 0400000A 		beq	.L67
 508              		.loc 1 289 0 is_stmt 0 discriminator 1
 509 0094 10309DE5 		ldr	r3, [sp, #16]
 510 0098 000053E3 		cmp	r3, #0
 511 009c 0100000A 		beq	.L67
 512              		.loc 1 290 0 is_stmt 1
 513 00a0 04008DE2 		add	r0, sp, #4
ARM GAS  /var/folders/3j/4xdnk5197cv_b7cw3n33qk7r0000gn/T//ccrJgg3J.s 			page 10


 514 00a4 FEFFFFEB 		bl	chVTResetI
 515              	.LVL42:
 516              	.L67:
 517              		.loc 1 291 0
 518              		.syntax divided
 519              	@ 291 "..//os/hal/platforms/BCM2835/i2c_lld.c" 1
 520 00a8 1FF021E3 		msr     CPSR_c, #0x1F
 521              	@ 0 "" 2
 522              		.loc 1 293 0
 523              		.arm
 524              		.syntax unified
 525 00ac 183096E5 		ldr	r3, [r6, #24]
 526              		.loc 1 294 0
 527 00b0 240093E5 		ldr	r0, [r3, #36]
 528 00b4 18D08DE2 		add	sp, sp, #24
 529              		.cfi_def_cfa_offset 24
 530              		@ sp needed
 531 00b8 F081BDE8 		pop	{r4, r5, r6, r7, r8, pc}
 532              	.LVL43:
 533              	.L79:
 534              		.align	2
 535              	.L78:
 536 00bc 00000000 		.word	i2c_lld_safety_timeout
 537 00c0 02030000 		.word	770
 538 00c4 91850000 		.word	34193
 539 00c8 00000000 		.word	rlist
 540              		.cfi_endproc
 541              	.LFE13:
 542              		.size	i2c_lld_master_receive_timeout, .-i2c_lld_master_receive_timeout
 543              		.section	.text.i2c_lld_master_transmit_timeout,"ax",%progbits
 544              		.align	2
 545              		.global	i2c_lld_master_transmit_timeout
 546              		.syntax unified
 547              		.arm
 548              		.fpu softvfp
 549              		.type	i2c_lld_master_transmit_timeout, %function
 550              	i2c_lld_master_transmit_timeout:
 551              	.LFB12:
 552              		.loc 1 198 0
 553              		.cfi_startproc
 554              		@ args = 12, pretend = 0, frame = 24
 555              		@ frame_needed = 0, uses_anonymous_args = 0
 556              	.LVL44:
 557 0000 F0472DE9 		push	{r4, r5, r6, r7, r8, r9, r10, lr}
 558              		.cfi_def_cfa_offset 32
 559              		.cfi_offset 4, -32
 560              		.cfi_offset 5, -28
 561              		.cfi_offset 6, -24
 562              		.cfi_offset 7, -20
 563              		.cfi_offset 8, -16
 564              		.cfi_offset 9, -12
 565              		.cfi_offset 10, -8
 566              		.cfi_offset 14, -4
 567 0004 20D04DE2 		sub	sp, sp, #32
 568              		.cfi_def_cfa_offset 64
 569              		.loc 1 198 0
 570 0008 48509DE5 		ldr	r5, [sp, #72]
ARM GAS  /var/folders/3j/4xdnk5197cv_b7cw3n33qk7r0000gn/T//ccrJgg3J.s 			page 11


 571 000c 0040A0E1 		mov	r4, r0
 572              		.loc 1 202 0
 573 0010 010075E3 		cmn	r5, #1
 574              		.loc 1 198 0
 575 0014 0160A0E1 		mov	r6, r1
 576 0018 02A0A0E1 		mov	r10, r2
 577 001c 0390A0E1 		mov	r9, r3
 578 0020 40809DE5 		ldr	r8, [sp, #64]
 579 0024 4470DDE5 		ldrb	r7, [sp, #68]	@ zero_extendqisi2
 580              		.loc 1 202 0
 581 0028 0400000A 		beq	.L81
 582              		.loc 1 203 0
 583 002c 0030A0E1 		mov	r3, r0
 584              	.LVL45:
 585 0030 F8209FE5 		ldr	r2, .L104
 586              	.LVL46:
 587 0034 0510A0E1 		mov	r1, r5
 588              	.LVL47:
 589 0038 0C008DE2 		add	r0, sp, #12
 590              	.LVL48:
 591 003c FEFFFFEB 		bl	chVTSetI
 592              	.LVL49:
 593              	.L81:
 594              		.loc 1 208 0
 595 0040 0020A0E3 		mov	r2, #0
 596              		.loc 1 213 0
 597 0044 0C3094E5 		ldr	r3, [r4, #12]
 598              	.LVL50:
 599              		.loc 1 216 0
 600 0048 E4109FE5 		ldr	r1, .L104+4
 601              		.loc 1 208 0
 602 004c 302084E5 		str	r2, [r4, #48]
 603              		.loc 1 211 0
 604 0050 3C2084E5 		str	r2, [r4, #60]
 605              		.loc 1 205 0
 606 0054 B462C4E1 		strh	r6, [r4, #36]	@ movhi
 607              		.loc 1 206 0
 608 0058 28A084E5 		str	r10, [r4, #40]
 609              		.loc 1 207 0
 610 005c 2C9084E5 		str	r9, [r4, #44]
 611              		.loc 1 209 0
 612 0060 348084E5 		str	r8, [r4, #52]
 613              		.loc 1 210 0
 614 0064 387084E5 		str	r7, [r4, #56]
 615              		.loc 1 214 0
 616 0068 0C6083E5 		str	r6, [r3, #12]
 617              		.loc 1 215 0
 618 006c 089083E5 		str	r9, [r3, #8]
 619              		.loc 1 216 0
 620 0070 041083E5 		str	r1, [r3, #4]
 621              		.loc 1 219 0
 622 0074 002093E5 		ldr	r2, [r3]
 623 0078 832C82E3 		orr	r2, r2, #33536
 624 007c 802082E3 		orr	r2, r2, #128
 625 0080 002083E5 		str	r2, [r3]
 626              		.loc 1 222 0
 627              		.syntax divided
ARM GAS  /var/folders/3j/4xdnk5197cv_b7cw3n33qk7r0000gn/T//ccrJgg3J.s 			page 12


 628              	@ 222 "..//os/hal/platforms/BCM2835/i2c_lld.c" 1
 629 0084 9FF021E3 		msr     CPSR_c, #0x9F
 630              	@ 0 "" 2
 631              		.loc 1 224 0
 632              		.arm
 633              		.syntax unified
 634 0088 A8909FE5 		ldr	r9, .L104+8
 635              	.LVL51:
 636              		.loc 1 225 0
 637 008c 0200A0E3 		mov	r0, #2
 638              		.loc 1 224 0
 639 0090 183099E5 		ldr	r3, [r9, #24]
 640              	.LVL52:
 641 0094 203084E5 		str	r3, [r4, #32]
 642              		.loc 1 225 0
 643 0098 FEFFFFEB 		bl	chSchGoSleepS
 644              	.LVL53:
 645              		.loc 1 226 0
 646 009c 010075E3 		cmn	r5, #1
 647 00a0 0400000A 		beq	.L82
 648              		.loc 1 226 0 is_stmt 0 discriminator 1
 649 00a4 18309DE5 		ldr	r3, [sp, #24]
 650 00a8 000053E3 		cmp	r3, #0
 651 00ac 0100000A 		beq	.L82
 652              		.loc 1 227 0 is_stmt 1
 653 00b0 0C008DE2 		add	r0, sp, #12
 654 00b4 FEFFFFEB 		bl	chVTResetI
 655              	.LVL54:
 656              	.L82:
 657              		.loc 1 229 0
 658              		.syntax divided
 659              	@ 229 "..//os/hal/platforms/BCM2835/i2c_lld.c" 1
 660 00b8 1FF021E3 		msr     CPSR_c, #0x1F
 661              	@ 0 "" 2
 662              		.loc 1 231 0
 663              		.arm
 664              		.syntax unified
 665 00bc 182099E5 		ldr	r2, [r9, #24]
 666              		.loc 1 233 0
 667 00c0 003097E2 		adds	r3, r7, #0
 668              		.loc 1 231 0
 669 00c4 249092E5 		ldr	r9, [r2, #36]
 670              	.LVL55:
 671              		.loc 1 233 0
 672 00c8 0130A013 		movne	r3, #1
 673 00cc 000059E3 		cmp	r9, #0
 674 00d0 0030A013 		movne	r3, #0
 675 00d4 000053E3 		cmp	r3, #0
 676 00d8 0200001A 		bne	.L103
 677              	.L80:
 678              		.loc 1 242 0
 679 00dc 0900A0E1 		mov	r0, r9
 680 00e0 20D08DE2 		add	sp, sp, #32
 681              		.cfi_remember_state
 682              		.cfi_def_cfa_offset 32
 683              		@ sp needed
 684 00e4 F087BDE8 		pop	{r4, r5, r6, r7, r8, r9, r10, pc}
ARM GAS  /var/folders/3j/4xdnk5197cv_b7cw3n33qk7r0000gn/T//ccrJgg3J.s 			page 13


 685              	.LVL56:
 686              	.L103:
 687              		.cfi_restore_state
 688              		.loc 1 235 0
 689 00e8 00C0E0E3 		mvn	ip, #0
 690 00ec 0730A0E1 		mov	r3, r7
 691 00f0 0820A0E1 		mov	r2, r8
 692 00f4 0610A0E1 		mov	r1, r6
 693 00f8 0400A0E1 		mov	r0, r4
 694 00fc 00C08DE5 		str	ip, [sp]
 695 0100 FEFFFFEB 		bl	i2c_lld_master_receive_timeout
 696              	.LVL57:
 697              		.loc 1 237 0
 698 0104 010075E3 		cmn	r5, #1
 699              		.loc 1 235 0
 700 0108 0090A0E1 		mov	r9, r0
 701              	.LVL58:
 702              		.loc 1 237 0
 703 010c F2FFFF0A 		beq	.L80
 704              		.loc 1 237 0 is_stmt 0 discriminator 1
 705 0110 18309DE5 		ldr	r3, [sp, #24]
 706 0114 000053E3 		cmp	r3, #0
 707 0118 EFFFFF0A 		beq	.L80
 708              		.loc 1 238 0 is_stmt 1
 709 011c 0C008DE2 		add	r0, sp, #12
 710              	.LVL59:
 711 0120 FEFFFFEB 		bl	chVTResetI
 712              	.LVL60:
 713              		.loc 1 242 0
 714 0124 0900A0E1 		mov	r0, r9
 715 0128 20D08DE2 		add	sp, sp, #32
 716              		.cfi_def_cfa_offset 32
 717              		@ sp needed
 718 012c F087BDE8 		pop	{r4, r5, r6, r7, r8, r9, r10, pc}
 719              	.LVL61:
 720              	.L105:
 721              		.align	2
 722              	.L104:
 723 0130 00000000 		.word	i2c_lld_safety_timeout
 724 0134 02030000 		.word	770
 725 0138 00000000 		.word	rlist
 726              		.cfi_endproc
 727              	.LFE12:
 728              		.size	i2c_lld_master_transmit_timeout, .-i2c_lld_master_transmit_timeout
 729              		.comm	I2C0,64,4
 730              		.text
 731              	.Letext0:
 732              		.file 2 "/usr/local/Cellar/gcc-arm-none-eabi/20180627/lib/gcc/arm-none-eabi/7.3.1/include/stddef.h
 733              		.file 3 "/usr/local/Cellar/gcc-arm-none-eabi/20180627/arm-none-eabi/include/machine/_default_types
 734              		.file 4 "/usr/local/Cellar/gcc-arm-none-eabi/20180627/arm-none-eabi/include/sys/_stdint.h"
 735              		.file 5 "..//os/ports/GCC/ARM/chtypes.h"
 736              		.file 6 "..//os/kernel/include/chlists.h"
 737              		.file 7 "..//os/kernel/include/chthreads.h"
 738              		.file 8 "..//os/ports/GCC/ARM/chcore.h"
 739              		.file 9 "..//os/kernel/include/chvt.h"
 740              		.file 10 "..//os/kernel/include/chschd.h"
 741              		.file 11 "..//os/kernel/include/chmtx.h"
ARM GAS  /var/folders/3j/4xdnk5197cv_b7cw3n33qk7r0000gn/T//ccrJgg3J.s 			page 14


 742              		.file 12 "..//os/kernel/include/chevents.h"
 743              		.file 13 "..//os/kernel/include/chregistry.h"
 744              		.file 14 "..//os/kernel/include/chqueues.h"
 745              		.file 15 "..//os/kernel/include/ch.h"
 746              		.file 16 "..//os/hal/platforms/BCM2835/bcm2835.h"
 747              		.file 17 "..//os/hal/platforms/BCM2835/pal_lld.h"
 748              		.file 18 "..//os/hal/include/i2c.h"
 749              		.file 19 "..//os/hal/platforms/BCM2835/i2c_lld.h"
 750              		.file 20 "..//os/hal/include/serial.h"
 751              		.file 21 "..//os/hal/include/spi.h"
 752              		.file 22 "..//os/hal/platforms/BCM2835/spi_lld.h"
 753              		.file 23 "..//os/hal/platforms/BCM2835/serial_lld.h"
 754              		.section	.debug_info,"",%progbits
 755              	.Ldebug_info0:
 756 0000 39110000 		.4byte	0x1139
 757 0004 0400     		.2byte	0x4
 758 0006 00000000 		.4byte	.Ldebug_abbrev0
 759 000a 04       		.byte	0x4
 760 000b 01       		.uleb128 0x1
 761 000c 84010000 		.4byte	.LASF215
 762 0010 0C       		.byte	0xc
 763 0011 F6080000 		.4byte	.LASF216
 764 0015 33060000 		.4byte	.LASF217
 765 0019 38000000 		.4byte	.Ldebug_ranges0+0x38
 766 001d 00000000 		.4byte	0
 767 0021 00000000 		.4byte	.Ldebug_line0
 768 0025 02       		.uleb128 0x2
 769 0026 04       		.byte	0x4
 770 0027 05       		.byte	0x5
 771 0028 696E7400 		.ascii	"int\000"
 772 002c 03       		.uleb128 0x3
 773 002d 13000000 		.4byte	.LASF2
 774 0031 02       		.byte	0x2
 775 0032 D8       		.byte	0xd8
 776 0033 37000000 		.4byte	0x37
 777 0037 04       		.uleb128 0x4
 778 0038 04       		.byte	0x4
 779 0039 07       		.byte	0x7
 780 003a 62030000 		.4byte	.LASF0
 781 003e 05       		.uleb128 0x5
 782 003f 37000000 		.4byte	0x37
 783 0043 04       		.uleb128 0x4
 784 0044 01       		.byte	0x1
 785 0045 06       		.byte	0x6
 786 0046 E6000000 		.4byte	.LASF1
 787 004a 03       		.uleb128 0x3
 788 004b 33000000 		.4byte	.LASF3
 789 004f 03       		.byte	0x3
 790 0050 2B       		.byte	0x2b
 791 0051 55000000 		.4byte	0x55
 792 0055 04       		.uleb128 0x4
 793 0056 01       		.byte	0x1
 794 0057 08       		.byte	0x8
 795 0058 19060000 		.4byte	.LASF4
 796 005c 04       		.uleb128 0x4
 797 005d 02       		.byte	0x2
 798 005e 05       		.byte	0x5
ARM GAS  /var/folders/3j/4xdnk5197cv_b7cw3n33qk7r0000gn/T//ccrJgg3J.s 			page 15


 799 005f 93060000 		.4byte	.LASF5
 800 0063 03       		.uleb128 0x3
 801 0064 BE070000 		.4byte	.LASF6
 802 0068 03       		.byte	0x3
 803 0069 39       		.byte	0x39
 804 006a 6E000000 		.4byte	0x6e
 805 006e 04       		.uleb128 0x4
 806 006f 02       		.byte	0x2
 807 0070 07       		.byte	0x7
 808 0071 FD030000 		.4byte	.LASF7
 809 0075 03       		.uleb128 0x3
 810 0076 FC070000 		.4byte	.LASF8
 811 007a 03       		.byte	0x3
 812 007b 4D       		.byte	0x4d
 813 007c 80000000 		.4byte	0x80
 814 0080 04       		.uleb128 0x4
 815 0081 04       		.byte	0x4
 816 0082 05       		.byte	0x5
 817 0083 52020000 		.4byte	.LASF9
 818 0087 03       		.uleb128 0x3
 819 0088 1A030000 		.4byte	.LASF10
 820 008c 03       		.byte	0x3
 821 008d 4F       		.byte	0x4f
 822 008e 92000000 		.4byte	0x92
 823 0092 04       		.uleb128 0x4
 824 0093 04       		.byte	0x4
 825 0094 07       		.byte	0x7
 826 0095 9B030000 		.4byte	.LASF11
 827 0099 04       		.uleb128 0x4
 828 009a 08       		.byte	0x8
 829 009b 05       		.byte	0x5
 830 009c D8000000 		.4byte	.LASF12
 831 00a0 04       		.uleb128 0x4
 832 00a1 08       		.byte	0x8
 833 00a2 07       		.byte	0x7
 834 00a3 67000000 		.4byte	.LASF13
 835 00a7 03       		.uleb128 0x3
 836 00a8 E8080000 		.4byte	.LASF14
 837 00ac 04       		.byte	0x4
 838 00ad 18       		.byte	0x18
 839 00ae 4A000000 		.4byte	0x4a
 840 00b2 06       		.uleb128 0x6
 841 00b3 A7000000 		.4byte	0xa7
 842 00b7 03       		.uleb128 0x3
 843 00b8 8F020000 		.4byte	.LASF15
 844 00bc 04       		.byte	0x4
 845 00bd 24       		.byte	0x24
 846 00be 63000000 		.4byte	0x63
 847 00c2 03       		.uleb128 0x3
 848 00c3 11060000 		.4byte	.LASF16
 849 00c7 04       		.byte	0x4
 850 00c8 2C       		.byte	0x2c
 851 00c9 75000000 		.4byte	0x75
 852 00cd 03       		.uleb128 0x3
 853 00ce 48070000 		.4byte	.LASF17
 854 00d2 04       		.byte	0x4
 855 00d3 30       		.byte	0x30
ARM GAS  /var/folders/3j/4xdnk5197cv_b7cw3n33qk7r0000gn/T//ccrJgg3J.s 			page 16


 856 00d4 87000000 		.4byte	0x87
 857 00d8 05       		.uleb128 0x5
 858 00d9 CD000000 		.4byte	0xcd
 859 00dd 03       		.uleb128 0x3
 860 00de 46040000 		.4byte	.LASF18
 861 00e2 05       		.byte	0x5
 862 00e3 2A       		.byte	0x2a
 863 00e4 A7000000 		.4byte	0xa7
 864 00e8 03       		.uleb128 0x3
 865 00e9 66020000 		.4byte	.LASF19
 866 00ed 05       		.byte	0x5
 867 00ee 2B       		.byte	0x2b
 868 00ef A7000000 		.4byte	0xa7
 869 00f3 03       		.uleb128 0x3
 870 00f4 B3050000 		.4byte	.LASF20
 871 00f8 05       		.byte	0x5
 872 00f9 2C       		.byte	0x2c
 873 00fa A7000000 		.4byte	0xa7
 874 00fe 03       		.uleb128 0x3
 875 00ff 7F070000 		.4byte	.LASF21
 876 0103 05       		.byte	0x5
 877 0104 2D       		.byte	0x2d
 878 0105 A7000000 		.4byte	0xa7
 879 0109 03       		.uleb128 0x3
 880 010a E2050000 		.4byte	.LASF22
 881 010e 05       		.byte	0x5
 882 010f 2E       		.byte	0x2e
 883 0110 CD000000 		.4byte	0xcd
 884 0114 03       		.uleb128 0x3
 885 0115 22040000 		.4byte	.LASF23
 886 0119 05       		.byte	0x5
 887 011a 2F       		.byte	0x2f
 888 011b C2000000 		.4byte	0xc2
 889 011f 03       		.uleb128 0x3
 890 0120 5A040000 		.4byte	.LASF24
 891 0124 05       		.byte	0x5
 892 0125 31       		.byte	0x31
 893 0126 CD000000 		.4byte	0xcd
 894 012a 03       		.uleb128 0x3
 895 012b 83080000 		.4byte	.LASF25
 896 012f 05       		.byte	0x5
 897 0130 32       		.byte	0x32
 898 0131 CD000000 		.4byte	0xcd
 899 0135 03       		.uleb128 0x3
 900 0136 E7070000 		.4byte	.LASF26
 901 013a 05       		.byte	0x5
 902 013b 33       		.byte	0x33
 903 013c CD000000 		.4byte	0xcd
 904 0140 05       		.uleb128 0x5
 905 0141 35010000 		.4byte	0x135
 906 0145 03       		.uleb128 0x3
 907 0146 F8060000 		.4byte	.LASF27
 908 014a 06       		.byte	0x6
 909 014b 23       		.byte	0x23
 910 014c 50010000 		.4byte	0x150
 911 0150 07       		.uleb128 0x7
 912 0151 F8060000 		.4byte	.LASF27
ARM GAS  /var/folders/3j/4xdnk5197cv_b7cw3n33qk7r0000gn/T//ccrJgg3J.s 			page 17


 913 0155 44       		.byte	0x44
 914 0156 07       		.byte	0x7
 915 0157 57       		.byte	0x57
 916 0158 41020000 		.4byte	0x241
 917 015c 08       		.uleb128 0x8
 918 015d D2060000 		.4byte	.LASF28
 919 0161 07       		.byte	0x7
 920 0162 58       		.byte	0x58
 921 0163 62020000 		.4byte	0x262
 922 0167 00       		.byte	0
 923 0168 08       		.uleb128 0x8
 924 0169 DB050000 		.4byte	.LASF29
 925 016d 07       		.byte	0x7
 926 016e 5A       		.byte	0x5a
 927 016f 62020000 		.4byte	0x262
 928 0173 04       		.byte	0x4
 929 0174 08       		.uleb128 0x8
 930 0175 AD000000 		.4byte	.LASF30
 931 0179 07       		.byte	0x7
 932 017a 5C       		.byte	0x5c
 933 017b 09010000 		.4byte	0x109
 934 017f 08       		.byte	0x8
 935 0180 08       		.uleb128 0x8
 936 0181 97090000 		.4byte	.LASF31
 937 0185 07       		.byte	0x7
 938 0186 5D       		.byte	0x5d
 939 0187 1D030000 		.4byte	0x31d
 940 018b 0C       		.byte	0xc
 941 018c 08       		.uleb128 0x8
 942 018d C1020000 		.4byte	.LASF32
 943 0191 07       		.byte	0x7
 944 0192 5F       		.byte	0x5f
 945 0193 62020000 		.4byte	0x262
 946 0197 10       		.byte	0x10
 947 0198 08       		.uleb128 0x8
 948 0199 23050000 		.4byte	.LASF33
 949 019d 07       		.byte	0x7
 950 019e 60       		.byte	0x60
 951 019f 62020000 		.4byte	0x262
 952 01a3 14       		.byte	0x14
 953 01a4 08       		.uleb128 0x8
 954 01a5 24090000 		.4byte	.LASF34
 955 01a9 07       		.byte	0x7
 956 01aa 67       		.byte	0x67
 957 01ab 51050000 		.4byte	0x551
 958 01af 18       		.byte	0x18
 959 01b0 08       		.uleb128 0x8
 960 01b1 9D060000 		.4byte	.LASF35
 961 01b5 07       		.byte	0x7
 962 01b6 72       		.byte	0x72
 963 01b7 E8000000 		.4byte	0xe8
 964 01bb 1C       		.byte	0x1c
 965 01bc 08       		.uleb128 0x8
 966 01bd F0060000 		.4byte	.LASF36
 967 01c1 07       		.byte	0x7
 968 01c2 76       		.byte	0x76
 969 01c3 DD000000 		.4byte	0xdd
ARM GAS  /var/folders/3j/4xdnk5197cv_b7cw3n33qk7r0000gn/T//ccrJgg3J.s 			page 18


 970 01c7 1D       		.byte	0x1d
 971 01c8 08       		.uleb128 0x8
 972 01c9 C1080000 		.4byte	.LASF37
 973 01cd 07       		.byte	0x7
 974 01ce 7B       		.byte	0x7b
 975 01cf F3000000 		.4byte	0xf3
 976 01d3 1E       		.byte	0x1e
 977 01d4 08       		.uleb128 0x8
 978 01d5 A5060000 		.4byte	.LASF38
 979 01d9 07       		.byte	0x7
 980 01da 81       		.byte	0x81
 981 01db FE000000 		.4byte	0xfe
 982 01df 1F       		.byte	0x1f
 983 01e0 08       		.uleb128 0x8
 984 01e1 1A080000 		.4byte	.LASF39
 985 01e5 07       		.byte	0x7
 986 01e6 88       		.byte	0x88
 987 01e7 40010000 		.4byte	0x140
 988 01eb 20       		.byte	0x20
 989 01ec 09       		.uleb128 0x9
 990 01ed 705F7500 		.ascii	"p_u\000"
 991 01f1 07       		.byte	0x7
 992 01f2 AD       		.byte	0xad
 993 01f3 1C050000 		.4byte	0x51c
 994 01f7 24       		.byte	0x24
 995 01f8 08       		.uleb128 0x8
 996 01f9 9D090000 		.4byte	.LASF40
 997 01fd 07       		.byte	0x7
 998 01fe B2       		.byte	0xb2
 999 01ff 88020000 		.4byte	0x288
 1000 0203 28       		.byte	0x28
 1001 0204 08       		.uleb128 0x8
 1002 0205 53080000 		.4byte	.LASF41
 1003 0209 07       		.byte	0x7
 1004 020a B8       		.byte	0xb8
 1005 020b 68020000 		.4byte	0x268
 1006 020f 2C       		.byte	0x2c
 1007 0210 08       		.uleb128 0x8
 1008 0211 0D000000 		.4byte	.LASF42
 1009 0215 07       		.byte	0x7
 1010 0216 BC       		.byte	0xbc
 1011 0217 14010000 		.4byte	0x114
 1012 021b 34       		.byte	0x34
 1013 021c 08       		.uleb128 0x8
 1014 021d 33070000 		.4byte	.LASF43
 1015 0221 07       		.byte	0x7
 1016 0222 C2       		.byte	0xc2
 1017 0223 1F010000 		.4byte	0x11f
 1018 0227 38       		.byte	0x38
 1019 0228 08       		.uleb128 0x8
 1020 0229 89060000 		.4byte	.LASF44
 1021 022d 07       		.byte	0x7
 1022 022e C9       		.byte	0xc9
 1023 022f 63050000 		.4byte	0x563
 1024 0233 3C       		.byte	0x3c
 1025 0234 08       		.uleb128 0x8
 1026 0235 F1070000 		.4byte	.LASF45
ARM GAS  /var/folders/3j/4xdnk5197cv_b7cw3n33qk7r0000gn/T//ccrJgg3J.s 			page 19


 1027 0239 07       		.byte	0x7
 1028 023a CD       		.byte	0xcd
 1029 023b 09010000 		.4byte	0x109
 1030 023f 40       		.byte	0x40
 1031 0240 00       		.byte	0
 1032 0241 0A       		.uleb128 0xa
 1033 0242 08       		.byte	0x8
 1034 0243 06       		.byte	0x6
 1035 0244 5A       		.byte	0x5a
 1036 0245 62020000 		.4byte	0x262
 1037 0249 08       		.uleb128 0x8
 1038 024a D2060000 		.4byte	.LASF28
 1039 024e 06       		.byte	0x6
 1040 024f 5B       		.byte	0x5b
 1041 0250 62020000 		.4byte	0x262
 1042 0254 00       		.byte	0
 1043 0255 08       		.uleb128 0x8
 1044 0256 DB050000 		.4byte	.LASF29
 1045 025a 06       		.byte	0x6
 1046 025b 5D       		.byte	0x5d
 1047 025c 62020000 		.4byte	0x262
 1048 0260 04       		.byte	0x4
 1049 0261 00       		.byte	0
 1050 0262 0B       		.uleb128 0xb
 1051 0263 04       		.byte	0x4
 1052 0264 45010000 		.4byte	0x145
 1053 0268 03       		.uleb128 0x3
 1054 0269 41050000 		.4byte	.LASF46
 1055 026d 06       		.byte	0x6
 1056 026e 5F       		.byte	0x5f
 1057 026f 41020000 		.4byte	0x241
 1058 0273 0A       		.uleb128 0xa
 1059 0274 04       		.byte	0x4
 1060 0275 06       		.byte	0x6
 1061 0276 64       		.byte	0x64
 1062 0277 88020000 		.4byte	0x288
 1063 027b 08       		.uleb128 0x8
 1064 027c D2060000 		.4byte	.LASF28
 1065 0280 06       		.byte	0x6
 1066 0281 66       		.byte	0x66
 1067 0282 62020000 		.4byte	0x262
 1068 0286 00       		.byte	0
 1069 0287 00       		.byte	0
 1070 0288 03       		.uleb128 0x3
 1071 0289 4E040000 		.4byte	.LASF47
 1072 028d 06       		.byte	0x6
 1073 028e 69       		.byte	0x69
 1074 028f 73020000 		.4byte	0x273
 1075 0293 03       		.uleb128 0x3
 1076 0294 92040000 		.4byte	.LASF48
 1077 0298 08       		.byte	0x8
 1078 0299 9D       		.byte	0x9d
 1079 029a CD000000 		.4byte	0xcd
 1080 029e 03       		.uleb128 0x3
 1081 029f 25030000 		.4byte	.LASF49
 1082 02a3 08       		.byte	0x8
 1083 02a4 A2       		.byte	0xa2
ARM GAS  /var/folders/3j/4xdnk5197cv_b7cw3n33qk7r0000gn/T//ccrJgg3J.s 			page 20


 1084 02a5 A9020000 		.4byte	0x2a9
 1085 02a9 0C       		.uleb128 0xc
 1086 02aa 04       		.byte	0x4
 1087 02ab 07       		.uleb128 0x7
 1088 02ac 4C080000 		.4byte	.LASF50
 1089 02b0 24       		.byte	0x24
 1090 02b1 08       		.byte	0x8
 1091 02b2 B9       		.byte	0xb9
 1092 02b3 1D030000 		.4byte	0x31d
 1093 02b7 09       		.uleb128 0x9
 1094 02b8 723400   		.ascii	"r4\000"
 1095 02bb 08       		.byte	0x8
 1096 02bc BA       		.byte	0xba
 1097 02bd 9E020000 		.4byte	0x29e
 1098 02c1 00       		.byte	0
 1099 02c2 09       		.uleb128 0x9
 1100 02c3 723500   		.ascii	"r5\000"
 1101 02c6 08       		.byte	0x8
 1102 02c7 BB       		.byte	0xbb
 1103 02c8 9E020000 		.4byte	0x29e
 1104 02cc 04       		.byte	0x4
 1105 02cd 09       		.uleb128 0x9
 1106 02ce 723600   		.ascii	"r6\000"
 1107 02d1 08       		.byte	0x8
 1108 02d2 BC       		.byte	0xbc
 1109 02d3 9E020000 		.4byte	0x29e
 1110 02d7 08       		.byte	0x8
 1111 02d8 09       		.uleb128 0x9
 1112 02d9 723700   		.ascii	"r7\000"
 1113 02dc 08       		.byte	0x8
 1114 02dd BD       		.byte	0xbd
 1115 02de 9E020000 		.4byte	0x29e
 1116 02e2 0C       		.byte	0xc
 1117 02e3 09       		.uleb128 0x9
 1118 02e4 723800   		.ascii	"r8\000"
 1119 02e7 08       		.byte	0x8
 1120 02e8 BE       		.byte	0xbe
 1121 02e9 9E020000 		.4byte	0x29e
 1122 02ed 10       		.byte	0x10
 1123 02ee 09       		.uleb128 0x9
 1124 02ef 723900   		.ascii	"r9\000"
 1125 02f2 08       		.byte	0x8
 1126 02f3 BF       		.byte	0xbf
 1127 02f4 9E020000 		.4byte	0x29e
 1128 02f8 14       		.byte	0x14
 1129 02f9 09       		.uleb128 0x9
 1130 02fa 72313000 		.ascii	"r10\000"
 1131 02fe 08       		.byte	0x8
 1132 02ff C0       		.byte	0xc0
 1133 0300 9E020000 		.4byte	0x29e
 1134 0304 18       		.byte	0x18
 1135 0305 09       		.uleb128 0x9
 1136 0306 72313100 		.ascii	"r11\000"
 1137 030a 08       		.byte	0x8
 1138 030b C1       		.byte	0xc1
 1139 030c 9E020000 		.4byte	0x29e
 1140 0310 1C       		.byte	0x1c
ARM GAS  /var/folders/3j/4xdnk5197cv_b7cw3n33qk7r0000gn/T//ccrJgg3J.s 			page 21


 1141 0311 09       		.uleb128 0x9
 1142 0312 6C7200   		.ascii	"lr\000"
 1143 0315 08       		.byte	0x8
 1144 0316 C2       		.byte	0xc2
 1145 0317 9E020000 		.4byte	0x29e
 1146 031b 20       		.byte	0x20
 1147 031c 00       		.byte	0
 1148 031d 07       		.uleb128 0x7
 1149 031e F5030000 		.4byte	.LASF51
 1150 0322 04       		.byte	0x4
 1151 0323 08       		.byte	0x8
 1152 0324 CA       		.byte	0xca
 1153 0325 36030000 		.4byte	0x336
 1154 0329 09       		.uleb128 0x9
 1155 032a 72313300 		.ascii	"r13\000"
 1156 032e 08       		.byte	0x8
 1157 032f CB       		.byte	0xcb
 1158 0330 36030000 		.4byte	0x336
 1159 0334 00       		.byte	0
 1160 0335 00       		.byte	0
 1161 0336 0B       		.uleb128 0xb
 1162 0337 04       		.byte	0x4
 1163 0338 AB020000 		.4byte	0x2ab
 1164 033c 03       		.uleb128 0x3
 1165 033d C3030000 		.4byte	.LASF52
 1166 0341 09       		.byte	0x9
 1167 0342 4E       		.byte	0x4e
 1168 0343 47030000 		.4byte	0x347
 1169 0347 0B       		.uleb128 0xb
 1170 0348 04       		.byte	0x4
 1171 0349 4D030000 		.4byte	0x34d
 1172 034d 0D       		.uleb128 0xd
 1173 034e 58030000 		.4byte	0x358
 1174 0352 0E       		.uleb128 0xe
 1175 0353 A9020000 		.4byte	0x2a9
 1176 0357 00       		.byte	0
 1177 0358 03       		.uleb128 0x3
 1178 0359 65070000 		.4byte	.LASF53
 1179 035d 09       		.byte	0x9
 1180 035e 53       		.byte	0x53
 1181 035f 63030000 		.4byte	0x363
 1182 0363 07       		.uleb128 0x7
 1183 0364 65070000 		.4byte	.LASF53
 1184 0368 14       		.byte	0x14
 1185 0369 09       		.byte	0x9
 1186 036a 5A       		.byte	0x5a
 1187 036b AC030000 		.4byte	0x3ac
 1188 036f 08       		.uleb128 0x8
 1189 0370 6F030000 		.4byte	.LASF54
 1190 0374 09       		.byte	0x9
 1191 0375 5B       		.byte	0x5b
 1192 0376 AC030000 		.4byte	0x3ac
 1193 037a 00       		.byte	0
 1194 037b 08       		.uleb128 0x8
 1195 037c 2E030000 		.4byte	.LASF55
 1196 0380 09       		.byte	0x9
 1197 0381 5D       		.byte	0x5d
ARM GAS  /var/folders/3j/4xdnk5197cv_b7cw3n33qk7r0000gn/T//ccrJgg3J.s 			page 22


 1198 0382 AC030000 		.4byte	0x3ac
 1199 0386 04       		.byte	0x4
 1200 0387 08       		.uleb128 0x8
 1201 0388 C9040000 		.4byte	.LASF56
 1202 038c 09       		.byte	0x9
 1203 038d 5F       		.byte	0x5f
 1204 038e 35010000 		.4byte	0x135
 1205 0392 08       		.byte	0x8
 1206 0393 08       		.uleb128 0x8
 1207 0394 F1040000 		.4byte	.LASF57
 1208 0398 09       		.byte	0x9
 1209 0399 60       		.byte	0x60
 1210 039a 3C030000 		.4byte	0x33c
 1211 039e 0C       		.byte	0xc
 1212 039f 08       		.uleb128 0x8
 1213 03a0 7C080000 		.4byte	.LASF58
 1214 03a4 09       		.byte	0x9
 1215 03a5 62       		.byte	0x62
 1216 03a6 A9020000 		.4byte	0x2a9
 1217 03aa 10       		.byte	0x10
 1218 03ab 00       		.byte	0
 1219 03ac 0B       		.uleb128 0xb
 1220 03ad 04       		.byte	0x4
 1221 03ae 58030000 		.4byte	0x358
 1222 03b2 0A       		.uleb128 0xa
 1223 03b3 10       		.byte	0x10
 1224 03b4 09       		.byte	0x9
 1225 03b5 6C       		.byte	0x6c
 1226 03b6 EB030000 		.4byte	0x3eb
 1227 03ba 08       		.uleb128 0x8
 1228 03bb 6F030000 		.4byte	.LASF54
 1229 03bf 09       		.byte	0x9
 1230 03c0 6D       		.byte	0x6d
 1231 03c1 AC030000 		.4byte	0x3ac
 1232 03c5 00       		.byte	0
 1233 03c6 08       		.uleb128 0x8
 1234 03c7 2E030000 		.4byte	.LASF55
 1235 03cb 09       		.byte	0x9
 1236 03cc 6F       		.byte	0x6f
 1237 03cd AC030000 		.4byte	0x3ac
 1238 03d1 04       		.byte	0x4
 1239 03d2 08       		.uleb128 0x8
 1240 03d3 C9040000 		.4byte	.LASF56
 1241 03d7 09       		.byte	0x9
 1242 03d8 71       		.byte	0x71
 1243 03d9 35010000 		.4byte	0x135
 1244 03dd 08       		.byte	0x8
 1245 03de 08       		.uleb128 0x8
 1246 03df 2B090000 		.4byte	.LASF59
 1247 03e3 09       		.byte	0x9
 1248 03e4 72       		.byte	0x72
 1249 03e5 40010000 		.4byte	0x140
 1250 03e9 0C       		.byte	0xc
 1251 03ea 00       		.byte	0
 1252 03eb 03       		.uleb128 0x3
 1253 03ec 5E090000 		.4byte	.LASF60
 1254 03f0 09       		.byte	0x9
ARM GAS  /var/folders/3j/4xdnk5197cv_b7cw3n33qk7r0000gn/T//ccrJgg3J.s 			page 23


 1255 03f1 73       		.byte	0x73
 1256 03f2 B2030000 		.4byte	0x3b2
 1257 03f6 0F       		.uleb128 0xf
 1258 03f7 48000000 		.4byte	.LASF68
 1259 03fb 09       		.byte	0x9
 1260 03fc D1       		.byte	0xd1
 1261 03fd EB030000 		.4byte	0x3eb
 1262 0401 0A       		.uleb128 0xa
 1263 0402 1C       		.byte	0x1c
 1264 0403 0A       		.byte	0xa
 1265 0404 57       		.byte	0x57
 1266 0405 52040000 		.4byte	0x452
 1267 0409 08       		.uleb128 0x8
 1268 040a 5D070000 		.4byte	.LASF61
 1269 040e 0A       		.byte	0xa
 1270 040f 58       		.byte	0x58
 1271 0410 68020000 		.4byte	0x268
 1272 0414 00       		.byte	0
 1273 0415 08       		.uleb128 0x8
 1274 0416 BB060000 		.4byte	.LASF62
 1275 041a 0A       		.byte	0xa
 1276 041b 59       		.byte	0x59
 1277 041c 09010000 		.4byte	0x109
 1278 0420 08       		.byte	0x8
 1279 0421 08       		.uleb128 0x8
 1280 0422 3B050000 		.4byte	.LASF63
 1281 0426 0A       		.byte	0xa
 1282 0427 5B       		.byte	0x5b
 1283 0428 1D030000 		.4byte	0x31d
 1284 042c 0C       		.byte	0xc
 1285 042d 08       		.uleb128 0x8
 1286 042e 2F040000 		.4byte	.LASF64
 1287 0432 0A       		.byte	0xa
 1288 0433 5E       		.byte	0x5e
 1289 0434 62020000 		.4byte	0x262
 1290 0438 10       		.byte	0x10
 1291 0439 08       		.uleb128 0x8
 1292 043a 68050000 		.4byte	.LASF65
 1293 043e 0A       		.byte	0xa
 1294 043f 5F       		.byte	0x5f
 1295 0440 62020000 		.4byte	0x262
 1296 0444 14       		.byte	0x14
 1297 0445 08       		.uleb128 0x8
 1298 0446 5E050000 		.4byte	.LASF66
 1299 044a 0A       		.byte	0xa
 1300 044b 62       		.byte	0x62
 1301 044c 62020000 		.4byte	0x262
 1302 0450 18       		.byte	0x18
 1303 0451 00       		.byte	0
 1304 0452 03       		.uleb128 0x3
 1305 0453 CF080000 		.4byte	.LASF67
 1306 0457 0A       		.byte	0xa
 1307 0458 64       		.byte	0x64
 1308 0459 01040000 		.4byte	0x401
 1309 045d 0F       		.uleb128 0xf
 1310 045e E2080000 		.4byte	.LASF69
 1311 0462 0A       		.byte	0xa
ARM GAS  /var/folders/3j/4xdnk5197cv_b7cw3n33qk7r0000gn/T//ccrJgg3J.s 			page 24


 1312 0463 68       		.byte	0x68
 1313 0464 52040000 		.4byte	0x452
 1314 0468 07       		.uleb128 0x7
 1315 0469 71040000 		.4byte	.LASF70
 1316 046d 10       		.byte	0x10
 1317 046e 0B       		.byte	0xb
 1318 046f 25       		.byte	0x25
 1319 0470 99040000 		.4byte	0x499
 1320 0474 08       		.uleb128 0x8
 1321 0475 20010000 		.4byte	.LASF71
 1322 0479 0B       		.byte	0xb
 1323 047a 26       		.byte	0x26
 1324 047b 68020000 		.4byte	0x268
 1325 047f 00       		.byte	0
 1326 0480 08       		.uleb128 0x8
 1327 0481 7C090000 		.4byte	.LASF72
 1328 0485 0B       		.byte	0xb
 1329 0486 28       		.byte	0x28
 1330 0487 62020000 		.4byte	0x262
 1331 048b 08       		.byte	0x8
 1332 048c 08       		.uleb128 0x8
 1333 048d E0070000 		.4byte	.LASF73
 1334 0491 0B       		.byte	0xb
 1335 0492 2A       		.byte	0x2a
 1336 0493 99040000 		.4byte	0x499
 1337 0497 0C       		.byte	0xc
 1338 0498 00       		.byte	0
 1339 0499 0B       		.uleb128 0xb
 1340 049a 04       		.byte	0x4
 1341 049b 68040000 		.4byte	0x468
 1342 049f 03       		.uleb128 0x3
 1343 04a0 71040000 		.4byte	.LASF70
 1344 04a4 0B       		.byte	0xb
 1345 04a5 2C       		.byte	0x2c
 1346 04a6 68040000 		.4byte	0x468
 1347 04aa 03       		.uleb128 0x3
 1348 04ab 3E080000 		.4byte	.LASF74
 1349 04af 0C       		.byte	0xc
 1350 04b0 25       		.byte	0x25
 1351 04b1 B5040000 		.4byte	0x4b5
 1352 04b5 07       		.uleb128 0x7
 1353 04b6 3E080000 		.4byte	.LASF74
 1354 04ba 10       		.byte	0x10
 1355 04bb 0C       		.byte	0xc
 1356 04bc 2A       		.byte	0x2a
 1357 04bd F2040000 		.4byte	0x4f2
 1358 04c1 08       		.uleb128 0x8
 1359 04c2 37040000 		.4byte	.LASF75
 1360 04c6 0C       		.byte	0xc
 1361 04c7 2B       		.byte	0x2b
 1362 04c8 F2040000 		.4byte	0x4f2
 1363 04cc 00       		.byte	0
 1364 04cd 08       		.uleb128 0x8
 1365 04ce 27060000 		.4byte	.LASF76
 1366 04d2 0C       		.byte	0xc
 1367 04d3 2E       		.byte	0x2e
 1368 04d4 62020000 		.4byte	0x262
ARM GAS  /var/folders/3j/4xdnk5197cv_b7cw3n33qk7r0000gn/T//ccrJgg3J.s 			page 25


 1369 04d8 04       		.byte	0x4
 1370 04d9 08       		.uleb128 0x8
 1371 04da 70050000 		.4byte	.LASF77
 1372 04de 0C       		.byte	0xc
 1373 04df 30       		.byte	0x30
 1374 04e0 1F010000 		.4byte	0x11f
 1375 04e4 08       		.byte	0x8
 1376 04e5 08       		.uleb128 0x8
 1377 04e6 80060000 		.4byte	.LASF78
 1378 04ea 0C       		.byte	0xc
 1379 04eb 33       		.byte	0x33
 1380 04ec 2A010000 		.4byte	0x12a
 1381 04f0 0C       		.byte	0xc
 1382 04f1 00       		.byte	0
 1383 04f2 0B       		.uleb128 0xb
 1384 04f3 04       		.byte	0x4
 1385 04f4 AA040000 		.4byte	0x4aa
 1386 04f8 07       		.uleb128 0x7
 1387 04f9 56030000 		.4byte	.LASF79
 1388 04fd 04       		.byte	0x4
 1389 04fe 0C       		.byte	0xc
 1390 04ff 3A       		.byte	0x3a
 1391 0500 11050000 		.4byte	0x511
 1392 0504 08       		.uleb128 0x8
 1393 0505 36090000 		.4byte	.LASF80
 1394 0509 0C       		.byte	0xc
 1395 050a 3B       		.byte	0x3b
 1396 050b F2040000 		.4byte	0x4f2
 1397 050f 00       		.byte	0
 1398 0510 00       		.byte	0
 1399 0511 03       		.uleb128 0x3
 1400 0512 56030000 		.4byte	.LASF79
 1401 0516 0C       		.byte	0xc
 1402 0517 3E       		.byte	0x3e
 1403 0518 F8040000 		.4byte	0x4f8
 1404 051c 10       		.uleb128 0x10
 1405 051d 04       		.byte	0x4
 1406 051e 07       		.byte	0x7
 1407 051f 8F       		.byte	0x8f
 1408 0520 51050000 		.4byte	0x551
 1409 0524 11       		.uleb128 0x11
 1410 0525 1A000000 		.4byte	.LASF81
 1411 0529 07       		.byte	0x7
 1412 052a 96       		.byte	0x96
 1413 052b 14010000 		.4byte	0x114
 1414 052f 11       		.uleb128 0x11
 1415 0530 8C000000 		.4byte	.LASF82
 1416 0534 07       		.byte	0x7
 1417 0535 9D       		.byte	0x9d
 1418 0536 14010000 		.4byte	0x114
 1419 053a 11       		.uleb128 0x11
 1420 053b 1D090000 		.4byte	.LASF83
 1421 053f 07       		.byte	0x7
 1422 0540 A4       		.byte	0xa4
 1423 0541 A9020000 		.4byte	0x2a9
 1424 0545 11       		.uleb128 0x11
 1425 0546 CB060000 		.4byte	.LASF84
ARM GAS  /var/folders/3j/4xdnk5197cv_b7cw3n33qk7r0000gn/T//ccrJgg3J.s 			page 26


 1426 054a 07       		.byte	0x7
 1427 054b AB       		.byte	0xab
 1428 054c 1F010000 		.4byte	0x11f
 1429 0550 00       		.byte	0
 1430 0551 0B       		.uleb128 0xb
 1431 0552 04       		.byte	0x4
 1432 0553 5E050000 		.4byte	0x55e
 1433 0557 04       		.uleb128 0x4
 1434 0558 01       		.byte	0x1
 1435 0559 08       		.byte	0x8
 1436 055a 8E070000 		.4byte	.LASF85
 1437 055e 06       		.uleb128 0x6
 1438 055f 57050000 		.4byte	0x557
 1439 0563 0B       		.uleb128 0xb
 1440 0564 04       		.byte	0x4
 1441 0565 9F040000 		.4byte	0x49f
 1442 0569 0B       		.uleb128 0xb
 1443 056a 04       		.byte	0x4
 1444 056b 6F050000 		.4byte	0x56f
 1445 056f 12       		.uleb128 0x12
 1446 0570 14010000 		.4byte	0x114
 1447 0574 7E050000 		.4byte	0x57e
 1448 0578 0E       		.uleb128 0xe
 1449 0579 A9020000 		.4byte	0x2a9
 1450 057d 00       		.byte	0
 1451 057e 0A       		.uleb128 0xa
 1452 057f 16       		.byte	0x16
 1453 0580 0D       		.byte	0xd
 1454 0581 25       		.byte	0x25
 1455 0582 5F060000 		.4byte	0x65f
 1456 0586 08       		.uleb128 0x8
 1457 0587 CC030000 		.4byte	.LASF86
 1458 058b 0D       		.byte	0xd
 1459 058c 26       		.byte	0x26
 1460 058d 5F060000 		.4byte	0x65f
 1461 0591 00       		.byte	0
 1462 0592 08       		.uleb128 0x8
 1463 0593 AA040000 		.4byte	.LASF87
 1464 0597 0D       		.byte	0xd
 1465 0598 27       		.byte	0x27
 1466 0599 A7000000 		.4byte	0xa7
 1467 059d 04       		.byte	0x4
 1468 059e 08       		.uleb128 0x8
 1469 059f 4E050000 		.4byte	.LASF88
 1470 05a3 0D       		.byte	0xd
 1471 05a4 28       		.byte	0x28
 1472 05a5 A7000000 		.4byte	0xa7
 1473 05a9 05       		.byte	0x5
 1474 05aa 08       		.uleb128 0x8
 1475 05ab 48090000 		.4byte	.LASF89
 1476 05af 0D       		.byte	0xd
 1477 05b0 29       		.byte	0x29
 1478 05b1 B7000000 		.4byte	0xb7
 1479 05b5 06       		.byte	0x6
 1480 05b6 08       		.uleb128 0x8
 1481 05b7 C6050000 		.4byte	.LASF90
 1482 05bb 0D       		.byte	0xd
ARM GAS  /var/folders/3j/4xdnk5197cv_b7cw3n33qk7r0000gn/T//ccrJgg3J.s 			page 27


 1483 05bc 2A       		.byte	0x2a
 1484 05bd A7000000 		.4byte	0xa7
 1485 05c1 08       		.byte	0x8
 1486 05c2 08       		.uleb128 0x8
 1487 05c3 F9040000 		.4byte	.LASF91
 1488 05c7 0D       		.byte	0xd
 1489 05c8 2B       		.byte	0x2b
 1490 05c9 A7000000 		.4byte	0xa7
 1491 05cd 09       		.byte	0x9
 1492 05ce 08       		.uleb128 0x8
 1493 05cf 7E000000 		.4byte	.LASF92
 1494 05d3 0D       		.byte	0xd
 1495 05d4 2C       		.byte	0x2c
 1496 05d5 A7000000 		.4byte	0xa7
 1497 05d9 0A       		.byte	0xa
 1498 05da 08       		.uleb128 0x8
 1499 05db 51070000 		.4byte	.LASF93
 1500 05df 0D       		.byte	0xd
 1501 05e0 2D       		.byte	0x2d
 1502 05e1 A7000000 		.4byte	0xa7
 1503 05e5 0B       		.byte	0xb
 1504 05e6 08       		.uleb128 0x8
 1505 05e7 A9080000 		.4byte	.LASF94
 1506 05eb 0D       		.byte	0xd
 1507 05ec 2E       		.byte	0x2e
 1508 05ed A7000000 		.4byte	0xa7
 1509 05f1 0C       		.byte	0xc
 1510 05f2 08       		.uleb128 0x8
 1511 05f3 0D070000 		.4byte	.LASF95
 1512 05f7 0D       		.byte	0xd
 1513 05f8 2F       		.byte	0x2f
 1514 05f9 A7000000 		.4byte	0xa7
 1515 05fd 0D       		.byte	0xd
 1516 05fe 08       		.uleb128 0x8
 1517 05ff 00000000 		.4byte	.LASF96
 1518 0603 0D       		.byte	0xd
 1519 0604 30       		.byte	0x30
 1520 0605 A7000000 		.4byte	0xa7
 1521 0609 0E       		.byte	0xe
 1522 060a 08       		.uleb128 0x8
 1523 060b 0E050000 		.4byte	.LASF97
 1524 060f 0D       		.byte	0xd
 1525 0610 31       		.byte	0x31
 1526 0611 A7000000 		.4byte	0xa7
 1527 0615 0F       		.byte	0xf
 1528 0616 08       		.uleb128 0x8
 1529 0617 F2000000 		.4byte	.LASF98
 1530 061b 0D       		.byte	0xd
 1531 061c 32       		.byte	0x32
 1532 061d A7000000 		.4byte	0xa7
 1533 0621 10       		.byte	0x10
 1534 0622 08       		.uleb128 0x8
 1535 0623 B4000000 		.4byte	.LASF99
 1536 0627 0D       		.byte	0xd
 1537 0628 34       		.byte	0x34
 1538 0629 A7000000 		.4byte	0xa7
 1539 062d 11       		.byte	0x11
ARM GAS  /var/folders/3j/4xdnk5197cv_b7cw3n33qk7r0000gn/T//ccrJgg3J.s 			page 28


 1540 062e 08       		.uleb128 0x8
 1541 062f 0B010000 		.4byte	.LASF100
 1542 0633 0D       		.byte	0xd
 1543 0634 35       		.byte	0x35
 1544 0635 A7000000 		.4byte	0xa7
 1545 0639 12       		.byte	0x12
 1546 063a 08       		.uleb128 0x8
 1547 063b B2040000 		.4byte	.LASF101
 1548 063f 0D       		.byte	0xd
 1549 0640 36       		.byte	0x36
 1550 0641 A7000000 		.4byte	0xa7
 1551 0645 13       		.byte	0x13
 1552 0646 08       		.uleb128 0x8
 1553 0647 E1060000 		.4byte	.LASF102
 1554 064b 0D       		.byte	0xd
 1555 064c 37       		.byte	0x37
 1556 064d A7000000 		.4byte	0xa7
 1557 0651 14       		.byte	0x14
 1558 0652 08       		.uleb128 0x8
 1559 0653 AF060000 		.4byte	.LASF103
 1560 0657 0D       		.byte	0xd
 1561 0658 39       		.byte	0x39
 1562 0659 A7000000 		.4byte	0xa7
 1563 065d 15       		.byte	0x15
 1564 065e 00       		.byte	0
 1565 065f 13       		.uleb128 0x13
 1566 0660 57050000 		.4byte	0x557
 1567 0664 6F060000 		.4byte	0x66f
 1568 0668 14       		.uleb128 0x14
 1569 0669 37000000 		.4byte	0x37
 1570 066d 03       		.byte	0x3
 1571 066e 00       		.byte	0
 1572 066f 03       		.uleb128 0x3
 1573 0670 9D020000 		.4byte	.LASF104
 1574 0674 0D       		.byte	0xd
 1575 0675 3A       		.byte	0x3a
 1576 0676 7E050000 		.4byte	0x57e
 1577 067a 06       		.uleb128 0x6
 1578 067b 6F060000 		.4byte	0x66f
 1579 067f 0F       		.uleb128 0xf
 1580 0680 AD030000 		.4byte	.LASF105
 1581 0684 0D       		.byte	0xd
 1582 0685 77       		.byte	0x77
 1583 0686 7A060000 		.4byte	0x67a
 1584 068a 03       		.uleb128 0x3
 1585 068b 85040000 		.4byte	.LASF106
 1586 068f 0E       		.byte	0xe
 1587 0690 30       		.byte	0x30
 1588 0691 95060000 		.4byte	0x695
 1589 0695 07       		.uleb128 0x7
 1590 0696 85040000 		.4byte	.LASF106
 1591 069a 24       		.byte	0x24
 1592 069b 0E       		.byte	0xe
 1593 069c 3E       		.byte	0x3e
 1594 069d 02070000 		.4byte	0x702
 1595 06a1 08       		.uleb128 0x8
 1596 06a2 CE000000 		.4byte	.LASF107
ARM GAS  /var/folders/3j/4xdnk5197cv_b7cw3n33qk7r0000gn/T//ccrJgg3J.s 			page 29


 1597 06a6 0E       		.byte	0xe
 1598 06a7 3F       		.byte	0x3f
 1599 06a8 68020000 		.4byte	0x268
 1600 06ac 00       		.byte	0
 1601 06ad 08       		.uleb128 0x8
 1602 06ae E7040000 		.4byte	.LASF108
 1603 06b2 0E       		.byte	0xe
 1604 06b3 40       		.byte	0x40
 1605 06b4 2C000000 		.4byte	0x2c
 1606 06b8 08       		.byte	0x8
 1607 06b9 08       		.uleb128 0x8
 1608 06ba 86020000 		.4byte	.LASF109
 1609 06be 0E       		.byte	0xe
 1610 06bf 41       		.byte	0x41
 1611 06c0 24070000 		.4byte	0x724
 1612 06c4 0C       		.byte	0xc
 1613 06c5 08       		.uleb128 0x8
 1614 06c6 61000000 		.4byte	.LASF110
 1615 06ca 0E       		.byte	0xe
 1616 06cb 42       		.byte	0x42
 1617 06cc 24070000 		.4byte	0x724
 1618 06d0 10       		.byte	0x10
 1619 06d1 08       		.uleb128 0x8
 1620 06d2 33050000 		.4byte	.LASF111
 1621 06d6 0E       		.byte	0xe
 1622 06d7 44       		.byte	0x44
 1623 06d8 24070000 		.4byte	0x724
 1624 06dc 14       		.byte	0x14
 1625 06dd 08       		.uleb128 0x8
 1626 06de EA050000 		.4byte	.LASF112
 1627 06e2 0E       		.byte	0xe
 1628 06e3 45       		.byte	0x45
 1629 06e4 24070000 		.4byte	0x724
 1630 06e8 18       		.byte	0x18
 1631 06e9 08       		.uleb128 0x8
 1632 06ea D9080000 		.4byte	.LASF113
 1633 06ee 0E       		.byte	0xe
 1634 06ef 46       		.byte	0x46
 1635 06f0 02070000 		.4byte	0x702
 1636 06f4 1C       		.byte	0x1c
 1637 06f5 08       		.uleb128 0x8
 1638 06f6 65090000 		.4byte	.LASF114
 1639 06fa 0E       		.byte	0xe
 1640 06fb 47       		.byte	0x47
 1641 06fc A9020000 		.4byte	0x2a9
 1642 0700 20       		.byte	0x20
 1643 0701 00       		.byte	0
 1644 0702 03       		.uleb128 0x3
 1645 0703 D1050000 		.4byte	.LASF115
 1646 0707 0E       		.byte	0xe
 1647 0708 33       		.byte	0x33
 1648 0709 0D070000 		.4byte	0x70d
 1649 070d 0B       		.uleb128 0xb
 1650 070e 04       		.byte	0x4
 1651 070f 13070000 		.4byte	0x713
 1652 0713 0D       		.uleb128 0xd
 1653 0714 1E070000 		.4byte	0x71e
ARM GAS  /var/folders/3j/4xdnk5197cv_b7cw3n33qk7r0000gn/T//ccrJgg3J.s 			page 30


 1654 0718 0E       		.uleb128 0xe
 1655 0719 1E070000 		.4byte	0x71e
 1656 071d 00       		.byte	0
 1657 071e 0B       		.uleb128 0xb
 1658 071f 04       		.byte	0x4
 1659 0720 8A060000 		.4byte	0x68a
 1660 0724 0B       		.uleb128 0xb
 1661 0725 04       		.byte	0x4
 1662 0726 A7000000 		.4byte	0xa7
 1663 072a 03       		.uleb128 0x3
 1664 072b 66040000 		.4byte	.LASF116
 1665 072f 0E       		.byte	0xe
 1666 0730 7B       		.byte	0x7b
 1667 0731 8A060000 		.4byte	0x68a
 1668 0735 03       		.uleb128 0x3
 1669 0736 27000000 		.4byte	.LASF117
 1670 073a 0E       		.byte	0xe
 1671 073b EE       		.byte	0xee
 1672 073c 8A060000 		.4byte	0x68a
 1673 0740 12       		.uleb128 0x12
 1674 0741 2C000000 		.4byte	0x2c
 1675 0745 59070000 		.4byte	0x759
 1676 0749 0E       		.uleb128 0xe
 1677 074a A9020000 		.4byte	0x2a9
 1678 074e 0E       		.uleb128 0xe
 1679 074f 59070000 		.4byte	0x759
 1680 0753 0E       		.uleb128 0xe
 1681 0754 2C000000 		.4byte	0x2c
 1682 0758 00       		.byte	0
 1683 0759 0B       		.uleb128 0xb
 1684 075a 04       		.byte	0x4
 1685 075b B2000000 		.4byte	0xb2
 1686 075f 0B       		.uleb128 0xb
 1687 0760 04       		.byte	0x4
 1688 0761 40070000 		.4byte	0x740
 1689 0765 12       		.uleb128 0x12
 1690 0766 2C000000 		.4byte	0x2c
 1691 076a 7E070000 		.4byte	0x77e
 1692 076e 0E       		.uleb128 0xe
 1693 076f A9020000 		.4byte	0x2a9
 1694 0773 0E       		.uleb128 0xe
 1695 0774 24070000 		.4byte	0x724
 1696 0778 0E       		.uleb128 0xe
 1697 0779 2C000000 		.4byte	0x2c
 1698 077d 00       		.byte	0
 1699 077e 0B       		.uleb128 0xb
 1700 077f 04       		.byte	0x4
 1701 0780 65070000 		.4byte	0x765
 1702 0784 12       		.uleb128 0x12
 1703 0785 14010000 		.4byte	0x114
 1704 0789 98070000 		.4byte	0x798
 1705 078d 0E       		.uleb128 0xe
 1706 078e A9020000 		.4byte	0x2a9
 1707 0792 0E       		.uleb128 0xe
 1708 0793 A7000000 		.4byte	0xa7
 1709 0797 00       		.byte	0
 1710 0798 0B       		.uleb128 0xb
ARM GAS  /var/folders/3j/4xdnk5197cv_b7cw3n33qk7r0000gn/T//ccrJgg3J.s 			page 31


 1711 0799 04       		.byte	0x4
 1712 079a 84070000 		.4byte	0x784
 1713 079e 13       		.uleb128 0x13
 1714 079f 93020000 		.4byte	0x293
 1715 07a3 AE070000 		.4byte	0x7ae
 1716 07a7 14       		.uleb128 0x14
 1717 07a8 37000000 		.4byte	0x37
 1718 07ac 26       		.byte	0x26
 1719 07ad 00       		.byte	0
 1720 07ae 0F       		.uleb128 0xf
 1721 07af C9020000 		.4byte	.LASF118
 1722 07b3 0F       		.byte	0xf
 1723 07b4 82       		.byte	0x82
 1724 07b5 9E070000 		.4byte	0x79e
 1725 07b9 07       		.uleb128 0x7
 1726 07ba 4F000000 		.4byte	.LASF119
 1727 07be 20       		.byte	0x20
 1728 07bf 10       		.byte	0x10
 1729 07c0 FD       		.byte	0xfd
 1730 07c1 2C080000 		.4byte	0x82c
 1731 07c5 08       		.uleb128 0x8
 1732 07c6 12030000 		.4byte	.LASF120
 1733 07ca 10       		.byte	0x10
 1734 07cb FE       		.byte	0xfe
 1735 07cc 3E000000 		.4byte	0x3e
 1736 07d0 00       		.byte	0
 1737 07d1 08       		.uleb128 0x8
 1738 07d2 C8080000 		.4byte	.LASF121
 1739 07d6 10       		.byte	0x10
 1740 07d7 FF       		.byte	0xff
 1741 07d8 3E000000 		.4byte	0x3e
 1742 07dc 04       		.byte	0x4
 1743 07dd 15       		.uleb128 0x15
 1744 07de 53090000 		.4byte	.LASF122
 1745 07e2 10       		.byte	0x10
 1746 07e3 0001     		.2byte	0x100
 1747 07e5 3E000000 		.4byte	0x3e
 1748 07e9 08       		.byte	0x8
 1749 07ea 15       		.uleb128 0x15
 1750 07eb 36030000 		.4byte	.LASF123
 1751 07ef 10       		.byte	0x10
 1752 07f0 0101     		.2byte	0x101
 1753 07f2 3E000000 		.4byte	0x3e
 1754 07f6 0C       		.byte	0xc
 1755 07f7 15       		.uleb128 0x15
 1756 07f8 A4000000 		.4byte	.LASF124
 1757 07fc 10       		.byte	0x10
 1758 07fd 0201     		.2byte	0x102
 1759 07ff 3E000000 		.4byte	0x3e
 1760 0803 10       		.byte	0x10
 1761 0804 15       		.uleb128 0x15
 1762 0805 DA040000 		.4byte	.LASF125
 1763 0809 10       		.byte	0x10
 1764 080a 0301     		.2byte	0x103
 1765 080c 3E000000 		.4byte	0x3e
 1766 0810 14       		.byte	0x14
 1767 0811 15       		.uleb128 0x15
ARM GAS  /var/folders/3j/4xdnk5197cv_b7cw3n33qk7r0000gn/T//ccrJgg3J.s 			page 32


 1768 0812 76020000 		.4byte	.LASF126
 1769 0816 10       		.byte	0x10
 1770 0817 0401     		.2byte	0x104
 1771 0819 3E000000 		.4byte	0x3e
 1772 081d 18       		.byte	0x18
 1773 081e 15       		.uleb128 0x15
 1774 081f AF090000 		.4byte	.LASF127
 1775 0823 10       		.byte	0x10
 1776 0824 0501     		.2byte	0x105
 1777 0826 3E000000 		.4byte	0x3e
 1778 082a 1C       		.byte	0x1c
 1779 082b 00       		.byte	0
 1780 082c 16       		.uleb128 0x16
 1781 082d 4F000000 		.4byte	.LASF119
 1782 0831 10       		.byte	0x10
 1783 0832 0801     		.2byte	0x108
 1784 0834 B9070000 		.4byte	0x7b9
 1785 0838 12       		.uleb128 0x12
 1786 0839 14010000 		.4byte	0x114
 1787 083d 51080000 		.4byte	0x851
 1788 0841 0E       		.uleb128 0xe
 1789 0842 A9020000 		.4byte	0x2a9
 1790 0846 0E       		.uleb128 0xe
 1791 0847 A7000000 		.4byte	0xa7
 1792 084b 0E       		.uleb128 0xe
 1793 084c 35010000 		.4byte	0x135
 1794 0850 00       		.byte	0
 1795 0851 0B       		.uleb128 0xb
 1796 0852 04       		.byte	0x4
 1797 0853 38080000 		.4byte	0x838
 1798 0857 12       		.uleb128 0x12
 1799 0858 14010000 		.4byte	0x114
 1800 085c 6B080000 		.4byte	0x86b
 1801 0860 0E       		.uleb128 0xe
 1802 0861 A9020000 		.4byte	0x2a9
 1803 0865 0E       		.uleb128 0xe
 1804 0866 35010000 		.4byte	0x135
 1805 086a 00       		.byte	0
 1806 086b 0B       		.uleb128 0xb
 1807 086c 04       		.byte	0x4
 1808 086d 57080000 		.4byte	0x857
 1809 0871 12       		.uleb128 0x12
 1810 0872 2C000000 		.4byte	0x2c
 1811 0876 8F080000 		.4byte	0x88f
 1812 087a 0E       		.uleb128 0xe
 1813 087b A9020000 		.4byte	0x2a9
 1814 087f 0E       		.uleb128 0xe
 1815 0880 59070000 		.4byte	0x759
 1816 0884 0E       		.uleb128 0xe
 1817 0885 2C000000 		.4byte	0x2c
 1818 0889 0E       		.uleb128 0xe
 1819 088a 35010000 		.4byte	0x135
 1820 088e 00       		.byte	0
 1821 088f 0B       		.uleb128 0xb
 1822 0890 04       		.byte	0x4
 1823 0891 71080000 		.4byte	0x871
 1824 0895 12       		.uleb128 0x12
ARM GAS  /var/folders/3j/4xdnk5197cv_b7cw3n33qk7r0000gn/T//ccrJgg3J.s 			page 33


 1825 0896 2C000000 		.4byte	0x2c
 1826 089a B3080000 		.4byte	0x8b3
 1827 089e 0E       		.uleb128 0xe
 1828 089f A9020000 		.4byte	0x2a9
 1829 08a3 0E       		.uleb128 0xe
 1830 08a4 24070000 		.4byte	0x724
 1831 08a8 0E       		.uleb128 0xe
 1832 08a9 2C000000 		.4byte	0x2c
 1833 08ad 0E       		.uleb128 0xe
 1834 08ae 35010000 		.4byte	0x135
 1835 08b2 00       		.byte	0
 1836 08b3 0B       		.uleb128 0xb
 1837 08b4 04       		.byte	0x4
 1838 08b5 95080000 		.4byte	0x895
 1839 08b9 0A       		.uleb128 0xa
 1840 08ba 18       		.byte	0x18
 1841 08bb 11       		.byte	0x11
 1842 08bc 2A       		.byte	0x2a
 1843 08bd 0A090000 		.4byte	0x90a
 1844 08c1 08       		.uleb128 0x8
 1845 08c2 F0080000 		.4byte	.LASF128
 1846 08c6 11       		.byte	0x11
 1847 08c7 2F       		.byte	0x2f
 1848 08c8 CD000000 		.4byte	0xcd
 1849 08cc 00       		.byte	0
 1850 08cd 08       		.uleb128 0x8
 1851 08ce 78050000 		.4byte	.LASF129
 1852 08d2 11       		.byte	0x11
 1853 08d3 31       		.byte	0x31
 1854 08d4 0A090000 		.4byte	0x90a
 1855 08d8 04       		.byte	0x4
 1856 08d9 08       		.uleb128 0x8
 1857 08da 1C040000 		.4byte	.LASF130
 1858 08de 11       		.byte	0x11
 1859 08df 32       		.byte	0x32
 1860 08e0 0A090000 		.4byte	0x90a
 1861 08e4 08       		.byte	0x8
 1862 08e5 08       		.uleb128 0x8
 1863 08e6 BE040000 		.4byte	.LASF131
 1864 08ea 11       		.byte	0x11
 1865 08eb 33       		.byte	0x33
 1866 08ec 0A090000 		.4byte	0x90a
 1867 08f0 0C       		.byte	0xc
 1868 08f1 08       		.uleb128 0x8
 1869 08f2 7E050000 		.4byte	.LASF132
 1870 08f6 11       		.byte	0x11
 1871 08f7 34       		.byte	0x34
 1872 08f8 0A090000 		.4byte	0x90a
 1873 08fc 10       		.byte	0x10
 1874 08fd 08       		.uleb128 0x8
 1875 08fe C2060000 		.4byte	.LASF133
 1876 0902 11       		.byte	0x11
 1877 0903 35       		.byte	0x35
 1878 0904 37000000 		.4byte	0x37
 1879 0908 14       		.byte	0x14
 1880 0909 00       		.byte	0
 1881 090a 0B       		.uleb128 0xb
ARM GAS  /var/folders/3j/4xdnk5197cv_b7cw3n33qk7r0000gn/T//ccrJgg3J.s 			page 34


 1882 090b 04       		.byte	0x4
 1883 090c D8000000 		.4byte	0xd8
 1884 0910 03       		.uleb128 0x3
 1885 0911 10040000 		.4byte	.LASF134
 1886 0915 11       		.byte	0x11
 1887 0916 37       		.byte	0x37
 1888 0917 B9080000 		.4byte	0x8b9
 1889 091b 17       		.uleb128 0x17
 1890 091c 00       		.byte	0
 1891 091d 11       		.byte	0x11
 1892 091e 43       		.byte	0x43
 1893 091f 03       		.uleb128 0x3
 1894 0920 72090000 		.4byte	.LASF135
 1895 0924 11       		.byte	0x11
 1896 0925 45       		.byte	0x45
 1897 0926 1B090000 		.4byte	0x91b
 1898 092a 06       		.uleb128 0x6
 1899 092b 1F090000 		.4byte	0x91f
 1900 092f 0F       		.uleb128 0xf
 1901 0930 56050000 		.4byte	.LASF136
 1902 0934 11       		.byte	0x11
 1903 0935 6D       		.byte	0x6d
 1904 0936 10090000 		.4byte	0x910
 1905 093a 0F       		.uleb128 0xf
 1906 093b D9060000 		.4byte	.LASF137
 1907 093f 11       		.byte	0x11
 1908 0940 6E       		.byte	0x6e
 1909 0941 10090000 		.4byte	0x910
 1910 0945 0F       		.uleb128 0xf
 1911 0946 84090000 		.4byte	.LASF138
 1912 094a 11       		.byte	0x11
 1913 094b 75       		.byte	0x75
 1914 094c 2A090000 		.4byte	0x92a
 1915 0950 18       		.uleb128 0x18
 1916 0951 07       		.byte	0x7
 1917 0952 01       		.byte	0x1
 1918 0953 55000000 		.4byte	0x55
 1919 0957 12       		.byte	0x12
 1920 0958 54       		.byte	0x54
 1921 0959 82090000 		.4byte	0x982
 1922 095d 19       		.uleb128 0x19
 1923 095e 37020000 		.4byte	.LASF139
 1924 0962 00       		.byte	0
 1925 0963 19       		.uleb128 0x19
 1926 0964 D1040000 		.4byte	.LASF140
 1927 0968 01       		.byte	0x1
 1928 0969 19       		.uleb128 0x19
 1929 096a 06080000 		.4byte	.LASF141
 1930 096e 02       		.byte	0x2
 1931 096f 19       		.uleb128 0x19
 1932 0970 A7020000 		.4byte	.LASF142
 1933 0974 03       		.byte	0x3
 1934 0975 19       		.uleb128 0x19
 1935 0976 77040000 		.4byte	.LASF143
 1936 097a 04       		.byte	0x4
 1937 097b 19       		.uleb128 0x19
 1938 097c 1A070000 		.4byte	.LASF144
ARM GAS  /var/folders/3j/4xdnk5197cv_b7cw3n33qk7r0000gn/T//ccrJgg3J.s 			page 35


 1939 0980 05       		.byte	0x5
 1940 0981 00       		.byte	0
 1941 0982 03       		.uleb128 0x3
 1942 0983 BB050000 		.4byte	.LASF145
 1943 0987 12       		.byte	0x12
 1944 0988 5B       		.byte	0x5b
 1945 0989 50090000 		.4byte	0x950
 1946 098d 03       		.uleb128 0x3
 1947 098e 10080000 		.4byte	.LASF146
 1948 0992 13       		.byte	0x13
 1949 0993 38       		.byte	0x38
 1950 0994 98090000 		.4byte	0x998
 1951 0998 07       		.uleb128 0x7
 1952 0999 10080000 		.4byte	.LASF146
 1953 099d 40       		.byte	0x40
 1954 099e 13       		.byte	0x13
 1955 099f 62       		.byte	0x62
 1956 09a0 410A0000 		.4byte	0xa41
 1957 09a4 08       		.uleb128 0x8
 1958 09a5 4C020000 		.4byte	.LASF147
 1959 09a9 13       		.byte	0x13
 1960 09aa 64       		.byte	0x64
 1961 09ab 82090000 		.4byte	0x982
 1962 09af 00       		.byte	0
 1963 09b0 08       		.uleb128 0x8
 1964 09b1 B7070000 		.4byte	.LASF148
 1965 09b5 13       		.byte	0x13
 1966 09b6 66       		.byte	0x66
 1967 09b7 820A0000 		.4byte	0xa82
 1968 09bb 04       		.byte	0x4
 1969 09bc 08       		.uleb128 0x8
 1970 09bd 8D030000 		.4byte	.LASF149
 1971 09c1 13       		.byte	0x13
 1972 09c2 68       		.byte	0x68
 1973 09c3 410A0000 		.4byte	0xa41
 1974 09c7 08       		.byte	0x8
 1975 09c8 08       		.uleb128 0x8
 1976 09c9 C7000000 		.4byte	.LASF150
 1977 09cd 13       		.byte	0x13
 1978 09ce 6A       		.byte	0x6a
 1979 09cf 880A0000 		.4byte	0xa88
 1980 09d3 0C       		.byte	0xc
 1981 09d4 08       		.uleb128 0x8
 1982 09d5 FD050000 		.4byte	.LASF151
 1983 09d9 13       		.byte	0x13
 1984 09da 6D       		.byte	0x6d
 1985 09db 9F040000 		.4byte	0x49f
 1986 09df 10       		.byte	0x10
 1987 09e0 08       		.uleb128 0x8
 1988 09e1 6F020000 		.4byte	.LASF152
 1989 09e5 13       		.byte	0x13
 1990 09e6 77       		.byte	0x77
 1991 09e7 62020000 		.4byte	0x262
 1992 09eb 20       		.byte	0x20
 1993 09ec 08       		.uleb128 0x8
 1994 09ed 5F010000 		.4byte	.LASF153
 1995 09f1 13       		.byte	0x13
ARM GAS  /var/folders/3j/4xdnk5197cv_b7cw3n33qk7r0000gn/T//ccrJgg3J.s 			page 36


 1996 09f2 7B       		.byte	0x7b
 1997 09f3 4C0A0000 		.4byte	0xa4c
 1998 09f7 24       		.byte	0x24
 1999 09f8 08       		.uleb128 0x8
 2000 09f9 77030000 		.4byte	.LASF154
 2001 09fd 13       		.byte	0x13
 2002 09fe 7F       		.byte	0x7f
 2003 09ff 59070000 		.4byte	0x759
 2004 0a03 28       		.byte	0x28
 2005 0a04 08       		.uleb128 0x8
 2006 0a05 A7090000 		.4byte	.LASF155
 2007 0a09 13       		.byte	0x13
 2008 0a0a 83       		.byte	0x83
 2009 0a0b 2C000000 		.4byte	0x2c
 2010 0a0f 2C       		.byte	0x2c
 2011 0a10 08       		.uleb128 0x8
 2012 0a11 A3080000 		.4byte	.LASF156
 2013 0a15 13       		.byte	0x13
 2014 0a16 87       		.byte	0x87
 2015 0a17 2C000000 		.4byte	0x2c
 2016 0a1b 30       		.byte	0x30
 2017 0a1c 08       		.uleb128 0x8
 2018 0a1d 5B000000 		.4byte	.LASF157
 2019 0a21 13       		.byte	0x13
 2020 0a22 8B       		.byte	0x8b
 2021 0a23 24070000 		.4byte	0x724
 2022 0a27 34       		.byte	0x34
 2023 0a28 08       		.uleb128 0x8
 2024 0a29 2B050000 		.4byte	.LASF158
 2025 0a2d 13       		.byte	0x13
 2026 0a2e 8F       		.byte	0x8f
 2027 0a2f 2C000000 		.4byte	0x2c
 2028 0a33 38       		.byte	0x38
 2029 0a34 08       		.uleb128 0x8
 2030 0a35 80020000 		.4byte	.LASF159
 2031 0a39 13       		.byte	0x13
 2032 0a3a 93       		.byte	0x93
 2033 0a3b 2C000000 		.4byte	0x2c
 2034 0a3f 3C       		.byte	0x3c
 2035 0a40 00       		.byte	0
 2036 0a41 03       		.uleb128 0x3
 2037 0a42 F2050000 		.4byte	.LASF160
 2038 0a46 13       		.byte	0x13
 2039 0a47 42       		.byte	0x42
 2040 0a48 CD000000 		.4byte	0xcd
 2041 0a4c 03       		.uleb128 0x3
 2042 0a4d 42020000 		.4byte	.LASF161
 2043 0a51 13       		.byte	0x13
 2044 0a52 48       		.byte	0x48
 2045 0a53 B7000000 		.4byte	0xb7
 2046 0a57 0B       		.uleb128 0xb
 2047 0a58 04       		.byte	0x4
 2048 0a59 8D090000 		.4byte	0x98d
 2049 0a5d 0A       		.uleb128 0xa
 2050 0a5e 04       		.byte	0x4
 2051 0a5f 13       		.byte	0x13
 2052 0a60 57       		.byte	0x57
ARM GAS  /var/folders/3j/4xdnk5197cv_b7cw3n33qk7r0000gn/T//ccrJgg3J.s 			page 37


 2053 0a61 720A0000 		.4byte	0xa72
 2054 0a65 08       		.uleb128 0x8
 2055 0a66 05050000 		.4byte	.LASF162
 2056 0a6a 13       		.byte	0x13
 2057 0a6b 59       		.byte	0x59
 2058 0a6c CD000000 		.4byte	0xcd
 2059 0a70 00       		.byte	0
 2060 0a71 00       		.byte	0
 2061 0a72 03       		.uleb128 0x3
 2062 0a73 8F080000 		.4byte	.LASF163
 2063 0a77 13       		.byte	0x13
 2064 0a78 5B       		.byte	0x5b
 2065 0a79 5D0A0000 		.4byte	0xa5d
 2066 0a7d 06       		.uleb128 0x6
 2067 0a7e 720A0000 		.4byte	0xa72
 2068 0a82 0B       		.uleb128 0xb
 2069 0a83 04       		.byte	0x4
 2070 0a84 7D0A0000 		.4byte	0xa7d
 2071 0a88 0B       		.uleb128 0xb
 2072 0a89 04       		.byte	0x4
 2073 0a8a 2C080000 		.4byte	0x82c
 2074 0a8e 0F       		.uleb128 0xf
 2075 0a8f 51030000 		.4byte	.LASF164
 2076 0a93 13       		.byte	0x13
 2077 0a94 A6       		.byte	0xa6
 2078 0a95 8D090000 		.4byte	0x98d
 2079 0a99 18       		.uleb128 0x18
 2080 0a9a 07       		.byte	0x7
 2081 0a9b 01       		.byte	0x1
 2082 0a9c 55000000 		.4byte	0x55
 2083 0aa0 14       		.byte	0x14
 2084 0aa1 5D       		.byte	0x5d
 2085 0aa2 B90A0000 		.4byte	0xab9
 2086 0aa6 19       		.uleb128 0x19
 2087 0aa7 3E070000 		.4byte	.LASF165
 2088 0aab 00       		.byte	0
 2089 0aac 19       		.uleb128 0x19
 2090 0aad 18010000 		.4byte	.LASF166
 2091 0ab1 01       		.byte	0x1
 2092 0ab2 19       		.uleb128 0x19
 2093 0ab3 5E080000 		.4byte	.LASF167
 2094 0ab7 02       		.byte	0x2
 2095 0ab8 00       		.byte	0
 2096 0ab9 03       		.uleb128 0x3
 2097 0aba 99080000 		.4byte	.LASF168
 2098 0abe 14       		.byte	0x14
 2099 0abf 61       		.byte	0x61
 2100 0ac0 990A0000 		.4byte	0xa99
 2101 0ac4 03       		.uleb128 0x3
 2102 0ac5 72070000 		.4byte	.LASF169
 2103 0ac9 14       		.byte	0x14
 2104 0aca 66       		.byte	0x66
 2105 0acb CF0A0000 		.4byte	0xacf
 2106 0acf 07       		.uleb128 0x7
 2107 0ad0 72070000 		.4byte	.LASF169
 2108 0ad4 74       		.byte	0x74
 2109 0ad5 14       		.byte	0x14
ARM GAS  /var/folders/3j/4xdnk5197cv_b7cw3n33qk7r0000gn/T//ccrJgg3J.s 			page 38


 2110 0ad6 80       		.byte	0x80
 2111 0ad7 2E0B0000 		.4byte	0xb2e
 2112 0adb 09       		.uleb128 0x9
 2113 0adc 766D7400 		.ascii	"vmt\000"
 2114 0ae0 14       		.byte	0x14
 2115 0ae1 82       		.byte	0x82
 2116 0ae2 AB0B0000 		.4byte	0xbab
 2117 0ae6 00       		.byte	0
 2118 0ae7 08       		.uleb128 0x8
 2119 0ae8 EF030000 		.4byte	.LASF170
 2120 0aec 14       		.byte	0x14
 2121 0aed 83       		.byte	0x83
 2122 0aee 11050000 		.4byte	0x511
 2123 0af2 04       		.byte	0x4
 2124 0af3 08       		.uleb128 0x8
 2125 0af4 4C020000 		.4byte	.LASF147
 2126 0af8 14       		.byte	0x14
 2127 0af9 83       		.byte	0x83
 2128 0afa B90A0000 		.4byte	0xab9
 2129 0afe 08       		.byte	0x8
 2130 0aff 08       		.uleb128 0x8
 2131 0b00 94030000 		.4byte	.LASF171
 2132 0b04 14       		.byte	0x14
 2133 0b05 83       		.byte	0x83
 2134 0b06 2A070000 		.4byte	0x72a
 2135 0b0a 0C       		.byte	0xc
 2136 0b0b 08       		.uleb128 0x8
 2137 0b0c 28040000 		.4byte	.LASF172
 2138 0b10 14       		.byte	0x14
 2139 0b11 83       		.byte	0x83
 2140 0b12 35070000 		.4byte	0x735
 2141 0b16 30       		.byte	0x30
 2142 0b17 09       		.uleb128 0x9
 2143 0b18 696200   		.ascii	"ib\000"
 2144 0b1b 14       		.byte	0x14
 2145 0b1c 83       		.byte	0x83
 2146 0b1d B10B0000 		.4byte	0xbb1
 2147 0b21 54       		.byte	0x54
 2148 0b22 09       		.uleb128 0x9
 2149 0b23 6F6200   		.ascii	"ob\000"
 2150 0b26 14       		.byte	0x14
 2151 0b27 83       		.byte	0x83
 2152 0b28 B10B0000 		.4byte	0xbb1
 2153 0b2c 64       		.byte	0x64
 2154 0b2d 00       		.byte	0
 2155 0b2e 1A       		.uleb128 0x1a
 2156 0b2f 53443100 		.ascii	"SD1\000"
 2157 0b33 17       		.byte	0x17
 2158 0b34 62       		.byte	0x62
 2159 0b35 C40A0000 		.4byte	0xac4
 2160 0b39 07       		.uleb128 0x7
 2161 0b3a 7D030000 		.4byte	.LASF173
 2162 0b3e 20       		.byte	0x20
 2163 0b3f 14       		.byte	0x14
 2164 0b40 75       		.byte	0x75
 2165 0b41 A60B0000 		.4byte	0xba6
 2166 0b45 08       		.uleb128 0x8
ARM GAS  /var/folders/3j/4xdnk5197cv_b7cw3n33qk7r0000gn/T//ccrJgg3J.s 			page 39


 2167 0b46 21000000 		.4byte	.LASF174
 2168 0b4a 14       		.byte	0x14
 2169 0b4b 76       		.byte	0x76
 2170 0b4c 5F070000 		.4byte	0x75f
 2171 0b50 00       		.byte	0
 2172 0b51 08       		.uleb128 0x8
 2173 0b52 89070000 		.4byte	.LASF175
 2174 0b56 14       		.byte	0x14
 2175 0b57 76       		.byte	0x76
 2176 0b58 7E070000 		.4byte	0x77e
 2177 0b5c 04       		.byte	0x4
 2178 0b5d 09       		.uleb128 0x9
 2179 0b5e 70757400 		.ascii	"put\000"
 2180 0b62 14       		.byte	0x14
 2181 0b63 76       		.byte	0x76
 2182 0b64 98070000 		.4byte	0x798
 2183 0b68 08       		.byte	0x8
 2184 0b69 09       		.uleb128 0x9
 2185 0b6a 67657400 		.ascii	"get\000"
 2186 0b6e 14       		.byte	0x14
 2187 0b6f 76       		.byte	0x76
 2188 0b70 69050000 		.4byte	0x569
 2189 0b74 0C       		.byte	0xc
 2190 0b75 08       		.uleb128 0x8
 2191 0b76 C4040000 		.4byte	.LASF176
 2192 0b7a 14       		.byte	0x14
 2193 0b7b 76       		.byte	0x76
 2194 0b7c 51080000 		.4byte	0x851
 2195 0b80 10       		.byte	0x10
 2196 0b81 08       		.uleb128 0x8
 2197 0b82 BE030000 		.4byte	.LASF177
 2198 0b86 14       		.byte	0x14
 2199 0b87 76       		.byte	0x76
 2200 0b88 6B080000 		.4byte	0x86b
 2201 0b8c 14       		.byte	0x14
 2202 0b8d 08       		.uleb128 0x8
 2203 0b8e 3F040000 		.4byte	.LASF178
 2204 0b92 14       		.byte	0x14
 2205 0b93 76       		.byte	0x76
 2206 0b94 8F080000 		.4byte	0x88f
 2207 0b98 18       		.byte	0x18
 2208 0b99 08       		.uleb128 0x8
 2209 0b9a C1000000 		.4byte	.LASF179
 2210 0b9e 14       		.byte	0x14
 2211 0b9f 76       		.byte	0x76
 2212 0ba0 B3080000 		.4byte	0x8b3
 2213 0ba4 1C       		.byte	0x1c
 2214 0ba5 00       		.byte	0
 2215 0ba6 06       		.uleb128 0x6
 2216 0ba7 390B0000 		.4byte	0xb39
 2217 0bab 0B       		.uleb128 0xb
 2218 0bac 04       		.byte	0x4
 2219 0bad A60B0000 		.4byte	0xba6
 2220 0bb1 13       		.uleb128 0x13
 2221 0bb2 A7000000 		.4byte	0xa7
 2222 0bb6 C10B0000 		.4byte	0xbc1
 2223 0bba 14       		.uleb128 0x14
ARM GAS  /var/folders/3j/4xdnk5197cv_b7cw3n33qk7r0000gn/T//ccrJgg3J.s 			page 40


 2224 0bbb 37000000 		.4byte	0x37
 2225 0bbf 0F       		.byte	0xf
 2226 0bc0 00       		.byte	0
 2227 0bc1 18       		.uleb128 0x18
 2228 0bc2 07       		.byte	0x7
 2229 0bc3 01       		.byte	0x1
 2230 0bc4 55000000 		.4byte	0x55
 2231 0bc8 15       		.byte	0x15
 2232 0bc9 4E       		.byte	0x4e
 2233 0bca ED0B0000 		.4byte	0xbed
 2234 0bce 19       		.uleb128 0x19
 2235 0bcf 71080000 		.4byte	.LASF180
 2236 0bd3 00       		.byte	0
 2237 0bd4 19       		.uleb128 0x19
 2238 0bd5 02010000 		.4byte	.LASF181
 2239 0bd9 01       		.byte	0x1
 2240 0bda 19       		.uleb128 0x19
 2241 0bdb 67080000 		.4byte	.LASF182
 2242 0bdf 02       		.byte	0x2
 2243 0be0 19       		.uleb128 0x19
 2244 0be1 3D000000 		.4byte	.LASF183
 2245 0be5 03       		.byte	0x3
 2246 0be6 19       		.uleb128 0x19
 2247 0be7 AA070000 		.4byte	.LASF184
 2248 0beb 04       		.byte	0x4
 2249 0bec 00       		.byte	0
 2250 0bed 03       		.uleb128 0x3
 2251 0bee D5070000 		.4byte	.LASF185
 2252 0bf2 15       		.byte	0x15
 2253 0bf3 54       		.byte	0x54
 2254 0bf4 C10B0000 		.4byte	0xbc1
 2255 0bf8 03       		.uleb128 0x3
 2256 0bf9 95000000 		.4byte	.LASF186
 2257 0bfd 16       		.byte	0x16
 2258 0bfe 35       		.byte	0x35
 2259 0bff 030C0000 		.4byte	0xc03
 2260 0c03 07       		.uleb128 0x7
 2261 0c04 95000000 		.4byte	.LASF186
 2262 0c08 28       		.byte	0x28
 2263 0c09 16       		.byte	0x16
 2264 0c0a 7C       		.byte	0x7c
 2265 0c0b 640C0000 		.4byte	0xc64
 2266 0c0f 08       		.uleb128 0x8
 2267 0c10 4C020000 		.4byte	.LASF147
 2268 0c14 16       		.byte	0x16
 2269 0c15 80       		.byte	0x80
 2270 0c16 ED0B0000 		.4byte	0xbed
 2271 0c1a 00       		.byte	0
 2272 0c1b 08       		.uleb128 0x8
 2273 0c1c B7070000 		.4byte	.LASF148
 2274 0c20 16       		.byte	0x16
 2275 0c21 84       		.byte	0x84
 2276 0c22 0B0D0000 		.4byte	0xd0b
 2277 0c26 04       		.byte	0x4
 2278 0c27 08       		.uleb128 0x8
 2279 0c28 6F020000 		.4byte	.LASF152
 2280 0c2c 16       		.byte	0x16
ARM GAS  /var/folders/3j/4xdnk5197cv_b7cw3n33qk7r0000gn/T//ccrJgg3J.s 			page 41


 2281 0c2d 89       		.byte	0x89
 2282 0c2e 62020000 		.4byte	0x262
 2283 0c32 08       		.byte	0x8
 2284 0c33 08       		.uleb128 0x8
 2285 0c34 FD050000 		.4byte	.LASF151
 2286 0c38 16       		.byte	0x16
 2287 0c39 90       		.byte	0x90
 2288 0c3a 9F040000 		.4byte	0x49f
 2289 0c3e 0C       		.byte	0xc
 2290 0c3f 08       		.uleb128 0x8
 2291 0c40 5B000000 		.4byte	.LASF157
 2292 0c44 16       		.byte	0x16
 2293 0c45 98       		.byte	0x98
 2294 0c46 A9020000 		.4byte	0x2a9
 2295 0c4a 1C       		.byte	0x1c
 2296 0c4b 08       		.uleb128 0x8
 2297 0c4c 77030000 		.4byte	.LASF154
 2298 0c50 16       		.byte	0x16
 2299 0c51 9D       		.byte	0x9d
 2300 0c52 110D0000 		.4byte	0xd11
 2301 0c56 20       		.byte	0x20
 2302 0c57 08       		.uleb128 0x8
 2303 0c58 E0020000 		.4byte	.LASF187
 2304 0c5c 16       		.byte	0x16
 2305 0c5d A2       		.byte	0xa2
 2306 0c5e 2C000000 		.4byte	0x2c
 2307 0c62 24       		.byte	0x24
 2308 0c63 00       		.byte	0
 2309 0c64 03       		.uleb128 0x3
 2310 0c65 43030000 		.4byte	.LASF188
 2311 0c69 16       		.byte	0x16
 2312 0c6a 3D       		.byte	0x3d
 2313 0c6b 6F0C0000 		.4byte	0xc6f
 2314 0c6f 0B       		.uleb128 0xb
 2315 0c70 04       		.byte	0x4
 2316 0c71 750C0000 		.4byte	0xc75
 2317 0c75 0D       		.uleb128 0xd
 2318 0c76 800C0000 		.4byte	0xc80
 2319 0c7a 0E       		.uleb128 0xe
 2320 0c7b 800C0000 		.4byte	0xc80
 2321 0c7f 00       		.byte	0
 2322 0c80 0B       		.uleb128 0xb
 2323 0c81 04       		.byte	0x4
 2324 0c82 F80B0000 		.4byte	0xbf8
 2325 0c86 0A       		.uleb128 0xa
 2326 0c87 10       		.byte	0x10
 2327 0c88 16       		.byte	0x16
 2328 0c89 44       		.byte	0x44
 2329 0c8a FB0C0000 		.4byte	0xcfb
 2330 0c8e 08       		.uleb128 0x8
 2331 0c8f D9020000 		.4byte	.LASF189
 2332 0c93 16       		.byte	0x16
 2333 0c94 48       		.byte	0x48
 2334 0c95 640C0000 		.4byte	0xc64
 2335 0c99 00       		.byte	0
 2336 0c9a 08       		.uleb128 0x8
 2337 0c9b 87050000 		.4byte	.LASF190
ARM GAS  /var/folders/3j/4xdnk5197cv_b7cw3n33qk7r0000gn/T//ccrJgg3J.s 			page 42


 2338 0c9f 16       		.byte	0x16
 2339 0ca0 4F       		.byte	0x4f
 2340 0ca1 A7000000 		.4byte	0xa7
 2341 0ca5 04       		.byte	0x4
 2342 0ca6 08       		.uleb128 0x8
 2343 0ca7 A7050000 		.4byte	.LASF191
 2344 0cab 16       		.byte	0x16
 2345 0cac 52       		.byte	0x52
 2346 0cad A7000000 		.4byte	0xa7
 2347 0cb1 05       		.byte	0x5
 2348 0cb2 08       		.uleb128 0x8
 2349 0cb3 DA030000 		.4byte	.LASF192
 2350 0cb7 16       		.byte	0x16
 2351 0cb8 58       		.byte	0x58
 2352 0cb9 A7000000 		.4byte	0xa7
 2353 0cbd 06       		.byte	0x6
 2354 0cbe 08       		.uleb128 0x8
 2355 0cbf E6020000 		.4byte	.LASF193
 2356 0cc3 16       		.byte	0x16
 2357 0cc4 5E       		.byte	0x5e
 2358 0cc5 A7000000 		.4byte	0xa7
 2359 0cc9 07       		.byte	0x7
 2360 0cca 08       		.uleb128 0x8
 2361 0ccb FC020000 		.4byte	.LASF194
 2362 0ccf 16       		.byte	0x16
 2363 0cd0 64       		.byte	0x64
 2364 0cd1 A7000000 		.4byte	0xa7
 2365 0cd5 08       		.byte	0x8
 2366 0cd6 08       		.uleb128 0x8
 2367 0cd7 21080000 		.4byte	.LASF195
 2368 0cdb 16       		.byte	0x16
 2369 0cdc 6A       		.byte	0x6a
 2370 0cdd A7000000 		.4byte	0xa7
 2371 0ce1 09       		.byte	0x9
 2372 0ce2 08       		.uleb128 0x8
 2373 0ce3 B5020000 		.4byte	.LASF196
 2374 0ce7 16       		.byte	0x16
 2375 0ce8 70       		.byte	0x70
 2376 0ce9 A7000000 		.4byte	0xa7
 2377 0ced 0A       		.byte	0xa
 2378 0cee 08       		.uleb128 0x8
 2379 0cef FF060000 		.4byte	.LASF197
 2380 0cf3 16       		.byte	0x16
 2381 0cf4 73       		.byte	0x73
 2382 0cf5 CD000000 		.4byte	0xcd
 2383 0cf9 0C       		.byte	0xc
 2384 0cfa 00       		.byte	0
 2385 0cfb 03       		.uleb128 0x3
 2386 0cfc 3E090000 		.4byte	.LASF198
 2387 0d00 16       		.byte	0x16
 2388 0d01 75       		.byte	0x75
 2389 0d02 860C0000 		.4byte	0xc86
 2390 0d06 06       		.uleb128 0x6
 2391 0d07 FB0C0000 		.4byte	0xcfb
 2392 0d0b 0B       		.uleb128 0xb
 2393 0d0c 04       		.byte	0x4
 2394 0d0d 060D0000 		.4byte	0xd06
ARM GAS  /var/folders/3j/4xdnk5197cv_b7cw3n33qk7r0000gn/T//ccrJgg3J.s 			page 43


 2395 0d11 0B       		.uleb128 0xb
 2396 0d12 04       		.byte	0x4
 2397 0d13 170D0000 		.4byte	0xd17
 2398 0d17 1B       		.uleb128 0x1b
 2399 0d18 0F       		.uleb128 0xf
 2400 0d19 98020000 		.4byte	.LASF199
 2401 0d1d 16       		.byte	0x16
 2402 0d1e B6       		.byte	0xb6
 2403 0d1f F80B0000 		.4byte	0xbf8
 2404 0d23 1C       		.uleb128 0x1c
 2405 0d24 8E0A0000 		.4byte	0xa8e
 2406 0d28 01       		.byte	0x1
 2407 0d29 2A       		.byte	0x2a
 2408 0d2a 05       		.uleb128 0x5
 2409 0d2b 03       		.byte	0x3
 2410 0d2c 00000000 		.4byte	I2C0
 2411 0d30 1D       		.uleb128 0x1d
 2412 0d31 28010000 		.4byte	.LASF202
 2413 0d35 01       		.byte	0x1
 2414 0d36 0301     		.2byte	0x103
 2415 0d38 14010000 		.4byte	0x114
 2416 0d3c 00000000 		.4byte	.LFB13
 2417 0d40 CC000000 		.4byte	.LFE13-.LFB13
 2418 0d44 01       		.uleb128 0x1
 2419 0d45 9C       		.byte	0x9c
 2420 0d46 040E0000 		.4byte	0xe04
 2421 0d4a 1E       		.uleb128 0x1e
 2422 0d4b 9F000000 		.4byte	.LASF200
 2423 0d4f 01       		.byte	0x1
 2424 0d50 0301     		.2byte	0x103
 2425 0d52 570A0000 		.4byte	0xa57
 2426 0d56 00000000 		.4byte	.LLST12
 2427 0d5a 1E       		.uleb128 0x1e
 2428 0d5b 5F010000 		.4byte	.LASF153
 2429 0d5f 01       		.byte	0x1
 2430 0d60 0301     		.2byte	0x103
 2431 0d62 4C0A0000 		.4byte	0xa4c
 2432 0d66 37000000 		.4byte	.LLST13
 2433 0d6a 1E       		.uleb128 0x1e
 2434 0d6b 5B000000 		.4byte	.LASF157
 2435 0d6f 01       		.byte	0x1
 2436 0d70 0401     		.2byte	0x104
 2437 0d72 24070000 		.4byte	0x724
 2438 0d76 58000000 		.4byte	.LLST14
 2439 0d7a 1E       		.uleb128 0x1e
 2440 0d7b 2B050000 		.4byte	.LASF158
 2441 0d7f 01       		.byte	0x1
 2442 0d80 0401     		.2byte	0x104
 2443 0d82 2C000000 		.4byte	0x2c
 2444 0d86 84000000 		.4byte	.LLST15
 2445 0d8a 1F       		.uleb128 0x1f
 2446 0d8b B6030000 		.4byte	.LASF201
 2447 0d8f 01       		.byte	0x1
 2448 0d90 0501     		.2byte	0x105
 2449 0d92 35010000 		.4byte	0x135
 2450 0d96 02       		.uleb128 0x2
 2451 0d97 91       		.byte	0x91
ARM GAS  /var/folders/3j/4xdnk5197cv_b7cw3n33qk7r0000gn/T//ccrJgg3J.s 			page 44


 2452 0d98 00       		.sleb128 0
 2453 0d99 20       		.uleb128 0x20
 2454 0d9a 767400   		.ascii	"vt\000"
 2455 0d9d 01       		.byte	0x1
 2456 0d9e 0601     		.2byte	0x106
 2457 0da0 58030000 		.4byte	0x358
 2458 0da4 02       		.uleb128 0x2
 2459 0da5 91       		.byte	0x91
 2460 0da6 54       		.sleb128 -44
 2461 0da7 21       		.uleb128 0x21
 2462 0da8 C7000000 		.4byte	.LASF150
 2463 0dac 01       		.byte	0x1
 2464 0dad 1501     		.2byte	0x115
 2465 0daf 880A0000 		.4byte	0xa88
 2466 0db3 BC000000 		.4byte	.LLST16
 2467 0db7 22       		.uleb128 0x22
 2468 0db8 38000000 		.4byte	.LVL37
 2469 0dbc F9100000 		.4byte	0x10f9
 2470 0dc0 E00D0000 		.4byte	0xde0
 2471 0dc4 23       		.uleb128 0x23
 2472 0dc5 01       		.uleb128 0x1
 2473 0dc6 50       		.byte	0x50
 2474 0dc7 02       		.uleb128 0x2
 2475 0dc8 91       		.byte	0x91
 2476 0dc9 4C       		.sleb128 -52
 2477 0dca 23       		.uleb128 0x23
 2478 0dcb 01       		.uleb128 0x1
 2479 0dcc 51       		.byte	0x51
 2480 0dcd 02       		.uleb128 0x2
 2481 0dce 75       		.byte	0x75
 2482 0dcf 00       		.sleb128 0
 2483 0dd0 23       		.uleb128 0x23
 2484 0dd1 01       		.uleb128 0x1
 2485 0dd2 52       		.byte	0x52
 2486 0dd3 05       		.uleb128 0x5
 2487 0dd4 03       		.byte	0x3
 2488 0dd5 00000000 		.4byte	i2c_lld_safety_timeout
 2489 0dd9 23       		.uleb128 0x23
 2490 0dda 01       		.uleb128 0x1
 2491 0ddb 53       		.byte	0x53
 2492 0ddc 02       		.uleb128 0x2
 2493 0ddd 74       		.byte	0x74
 2494 0dde 00       		.sleb128 0
 2495 0ddf 00       		.byte	0
 2496 0de0 22       		.uleb128 0x22
 2497 0de1 8C000000 		.4byte	.LVL41
 2498 0de5 04110000 		.4byte	0x1104
 2499 0de9 F30D0000 		.4byte	0xdf3
 2500 0ded 23       		.uleb128 0x23
 2501 0dee 01       		.uleb128 0x1
 2502 0def 50       		.byte	0x50
 2503 0df0 01       		.uleb128 0x1
 2504 0df1 32       		.byte	0x32
 2505 0df2 00       		.byte	0
 2506 0df3 24       		.uleb128 0x24
 2507 0df4 A8000000 		.4byte	.LVL42
 2508 0df8 0F110000 		.4byte	0x110f
ARM GAS  /var/folders/3j/4xdnk5197cv_b7cw3n33qk7r0000gn/T//ccrJgg3J.s 			page 45


 2509 0dfc 23       		.uleb128 0x23
 2510 0dfd 01       		.uleb128 0x1
 2511 0dfe 50       		.byte	0x50
 2512 0dff 02       		.uleb128 0x2
 2513 0e00 91       		.byte	0x91
 2514 0e01 4C       		.sleb128 -52
 2515 0e02 00       		.byte	0
 2516 0e03 00       		.byte	0
 2517 0e04 25       		.uleb128 0x25
 2518 0e05 64010000 		.4byte	.LASF203
 2519 0e09 01       		.byte	0x1
 2520 0e0a C3       		.byte	0xc3
 2521 0e0b 14010000 		.4byte	0x114
 2522 0e0f 00000000 		.4byte	.LFB12
 2523 0e13 3C010000 		.4byte	.LFE12-.LFB12
 2524 0e17 01       		.uleb128 0x1
 2525 0e18 9C       		.byte	0x9c
 2526 0e19 3C0F0000 		.4byte	0xf3c
 2527 0e1d 26       		.uleb128 0x26
 2528 0e1e 9F000000 		.4byte	.LASF200
 2529 0e22 01       		.byte	0x1
 2530 0e23 C3       		.byte	0xc3
 2531 0e24 570A0000 		.4byte	0xa57
 2532 0e28 DB000000 		.4byte	.LLST17
 2533 0e2c 26       		.uleb128 0x26
 2534 0e2d 5F010000 		.4byte	.LASF153
 2535 0e31 01       		.byte	0x1
 2536 0e32 C3       		.byte	0xc3
 2537 0e33 4C0A0000 		.4byte	0xa4c
 2538 0e37 12010000 		.4byte	.LLST18
 2539 0e3b 26       		.uleb128 0x26
 2540 0e3c 77030000 		.4byte	.LASF154
 2541 0e40 01       		.byte	0x1
 2542 0e41 C4       		.byte	0xc4
 2543 0e42 59070000 		.4byte	0x759
 2544 0e46 33010000 		.4byte	.LLST19
 2545 0e4a 26       		.uleb128 0x26
 2546 0e4b A7090000 		.4byte	.LASF155
 2547 0e4f 01       		.byte	0x1
 2548 0e50 C4       		.byte	0xc4
 2549 0e51 2C000000 		.4byte	0x2c
 2550 0e55 5F010000 		.4byte	.LLST20
 2551 0e59 27       		.uleb128 0x27
 2552 0e5a 5B000000 		.4byte	.LASF157
 2553 0e5e 01       		.byte	0x1
 2554 0e5f C5       		.byte	0xc5
 2555 0e60 24070000 		.4byte	0x724
 2556 0e64 02       		.uleb128 0x2
 2557 0e65 91       		.byte	0x91
 2558 0e66 00       		.sleb128 0
 2559 0e67 27       		.uleb128 0x27
 2560 0e68 2B050000 		.4byte	.LASF158
 2561 0e6c 01       		.byte	0x1
 2562 0e6d C5       		.byte	0xc5
 2563 0e6e B2000000 		.4byte	0xb2
 2564 0e72 02       		.uleb128 0x2
 2565 0e73 91       		.byte	0x91
ARM GAS  /var/folders/3j/4xdnk5197cv_b7cw3n33qk7r0000gn/T//ccrJgg3J.s 			page 46


 2566 0e74 04       		.sleb128 4
 2567 0e75 27       		.uleb128 0x27
 2568 0e76 B6030000 		.4byte	.LASF201
 2569 0e7a 01       		.byte	0x1
 2570 0e7b C6       		.byte	0xc6
 2571 0e7c 35010000 		.4byte	0x135
 2572 0e80 02       		.uleb128 0x2
 2573 0e81 91       		.byte	0x91
 2574 0e82 08       		.sleb128 8
 2575 0e83 28       		.uleb128 0x28
 2576 0e84 767400   		.ascii	"vt\000"
 2577 0e87 01       		.byte	0x1
 2578 0e88 C7       		.byte	0xc7
 2579 0e89 58030000 		.4byte	0x358
 2580 0e8d 02       		.uleb128 0x2
 2581 0e8e 91       		.byte	0x91
 2582 0e8f 4C       		.sleb128 -52
 2583 0e90 29       		.uleb128 0x29
 2584 0e91 C7000000 		.4byte	.LASF150
 2585 0e95 01       		.byte	0x1
 2586 0e96 D5       		.byte	0xd5
 2587 0e97 880A0000 		.4byte	0xa88
 2588 0e9b 97010000 		.4byte	.LLST21
 2589 0e9f 29       		.uleb128 0x29
 2590 0ea0 C8080000 		.4byte	.LASF121
 2591 0ea4 01       		.byte	0x1
 2592 0ea5 E7       		.byte	0xe7
 2593 0ea6 14010000 		.4byte	0x114
 2594 0eaa B6010000 		.4byte	.LLST22
 2595 0eae 22       		.uleb128 0x22
 2596 0eaf 40000000 		.4byte	.LVL49
 2597 0eb3 F9100000 		.4byte	0x10f9
 2598 0eb7 D70E0000 		.4byte	0xed7
 2599 0ebb 23       		.uleb128 0x23
 2600 0ebc 01       		.uleb128 0x1
 2601 0ebd 50       		.byte	0x50
 2602 0ebe 02       		.uleb128 0x2
 2603 0ebf 91       		.byte	0x91
 2604 0ec0 44       		.sleb128 -60
 2605 0ec1 23       		.uleb128 0x23
 2606 0ec2 01       		.uleb128 0x1
 2607 0ec3 51       		.byte	0x51
 2608 0ec4 02       		.uleb128 0x2
 2609 0ec5 75       		.byte	0x75
 2610 0ec6 00       		.sleb128 0
 2611 0ec7 23       		.uleb128 0x23
 2612 0ec8 01       		.uleb128 0x1
 2613 0ec9 52       		.byte	0x52
 2614 0eca 05       		.uleb128 0x5
 2615 0ecb 03       		.byte	0x3
 2616 0ecc 00000000 		.4byte	i2c_lld_safety_timeout
 2617 0ed0 23       		.uleb128 0x23
 2618 0ed1 01       		.uleb128 0x1
 2619 0ed2 53       		.byte	0x53
 2620 0ed3 02       		.uleb128 0x2
 2621 0ed4 74       		.byte	0x74
 2622 0ed5 00       		.sleb128 0
ARM GAS  /var/folders/3j/4xdnk5197cv_b7cw3n33qk7r0000gn/T//ccrJgg3J.s 			page 47


 2623 0ed6 00       		.byte	0
 2624 0ed7 22       		.uleb128 0x22
 2625 0ed8 9C000000 		.4byte	.LVL53
 2626 0edc 04110000 		.4byte	0x1104
 2627 0ee0 EA0E0000 		.4byte	0xeea
 2628 0ee4 23       		.uleb128 0x23
 2629 0ee5 01       		.uleb128 0x1
 2630 0ee6 50       		.byte	0x50
 2631 0ee7 01       		.uleb128 0x1
 2632 0ee8 32       		.byte	0x32
 2633 0ee9 00       		.byte	0
 2634 0eea 22       		.uleb128 0x22
 2635 0eeb B8000000 		.4byte	.LVL54
 2636 0eef 0F110000 		.4byte	0x110f
 2637 0ef3 FE0E0000 		.4byte	0xefe
 2638 0ef7 23       		.uleb128 0x23
 2639 0ef8 01       		.uleb128 0x1
 2640 0ef9 50       		.byte	0x50
 2641 0efa 02       		.uleb128 0x2
 2642 0efb 91       		.byte	0x91
 2643 0efc 44       		.sleb128 -60
 2644 0efd 00       		.byte	0
 2645 0efe 22       		.uleb128 0x22
 2646 0eff 04010000 		.4byte	.LVL57
 2647 0f03 300D0000 		.4byte	0xd30
 2648 0f07 2B0F0000 		.4byte	0xf2b
 2649 0f0b 23       		.uleb128 0x23
 2650 0f0c 01       		.uleb128 0x1
 2651 0f0d 50       		.byte	0x50
 2652 0f0e 02       		.uleb128 0x2
 2653 0f0f 74       		.byte	0x74
 2654 0f10 00       		.sleb128 0
 2655 0f11 23       		.uleb128 0x23
 2656 0f12 01       		.uleb128 0x1
 2657 0f13 51       		.byte	0x51
 2658 0f14 02       		.uleb128 0x2
 2659 0f15 76       		.byte	0x76
 2660 0f16 00       		.sleb128 0
 2661 0f17 23       		.uleb128 0x23
 2662 0f18 01       		.uleb128 0x1
 2663 0f19 52       		.byte	0x52
 2664 0f1a 02       		.uleb128 0x2
 2665 0f1b 78       		.byte	0x78
 2666 0f1c 00       		.sleb128 0
 2667 0f1d 23       		.uleb128 0x23
 2668 0f1e 01       		.uleb128 0x1
 2669 0f1f 53       		.byte	0x53
 2670 0f20 02       		.uleb128 0x2
 2671 0f21 77       		.byte	0x77
 2672 0f22 00       		.sleb128 0
 2673 0f23 23       		.uleb128 0x23
 2674 0f24 02       		.uleb128 0x2
 2675 0f25 7D       		.byte	0x7d
 2676 0f26 00       		.sleb128 0
 2677 0f27 02       		.uleb128 0x2
 2678 0f28 09       		.byte	0x9
 2679 0f29 FF       		.byte	0xff
ARM GAS  /var/folders/3j/4xdnk5197cv_b7cw3n33qk7r0000gn/T//ccrJgg3J.s 			page 48


 2680 0f2a 00       		.byte	0
 2681 0f2b 24       		.uleb128 0x24
 2682 0f2c 24010000 		.4byte	.LVL60
 2683 0f30 0F110000 		.4byte	0x110f
 2684 0f34 23       		.uleb128 0x23
 2685 0f35 01       		.uleb128 0x1
 2686 0f36 50       		.byte	0x50
 2687 0f37 02       		.uleb128 0x2
 2688 0f38 91       		.byte	0x91
 2689 0f39 44       		.sleb128 -60
 2690 0f3a 00       		.byte	0
 2691 0f3b 00       		.byte	0
 2692 0f3c 2A       		.uleb128 0x2a
 2693 0f3d 9D040000 		.4byte	.LASF204
 2694 0f41 01       		.byte	0x1
 2695 0f42 AB       		.byte	0xab
 2696 0f43 00000000 		.4byte	.LFB11
 2697 0f47 34000000 		.4byte	.LFE11-.LFB11
 2698 0f4b 01       		.uleb128 0x1
 2699 0f4c 9C       		.byte	0x9c
 2700 0f4d 8D0F0000 		.4byte	0xf8d
 2701 0f51 26       		.uleb128 0x26
 2702 0f52 9F000000 		.4byte	.LASF200
 2703 0f56 01       		.byte	0x1
 2704 0f57 AB       		.byte	0xab
 2705 0f58 570A0000 		.4byte	0xa57
 2706 0f5c EA010000 		.4byte	.LLST11
 2707 0f60 22       		.uleb128 0x22
 2708 0f61 14000000 		.4byte	.LVL30
 2709 0f65 1A110000 		.4byte	0x111a
 2710 0f69 780F0000 		.4byte	0xf78
 2711 0f6d 23       		.uleb128 0x23
 2712 0f6e 01       		.uleb128 0x1
 2713 0f6f 50       		.byte	0x50
 2714 0f70 01       		.uleb128 0x1
 2715 0f71 30       		.byte	0x30
 2716 0f72 23       		.uleb128 0x23
 2717 0f73 01       		.uleb128 0x1
 2718 0f74 51       		.byte	0x51
 2719 0f75 01       		.uleb128 0x1
 2720 0f76 30       		.byte	0x30
 2721 0f77 00       		.byte	0
 2722 0f78 24       		.uleb128 0x24
 2723 0f79 20000000 		.4byte	.LVL31
 2724 0f7d 1A110000 		.4byte	0x111a
 2725 0f81 23       		.uleb128 0x23
 2726 0f82 01       		.uleb128 0x1
 2727 0f83 50       		.byte	0x50
 2728 0f84 01       		.uleb128 0x1
 2729 0f85 31       		.byte	0x31
 2730 0f86 23       		.uleb128 0x23
 2731 0f87 01       		.uleb128 0x1
 2732 0f88 51       		.byte	0x51
 2733 0f89 01       		.uleb128 0x1
 2734 0f8a 30       		.byte	0x30
 2735 0f8b 00       		.byte	0
 2736 0f8c 00       		.byte	0
ARM GAS  /var/folders/3j/4xdnk5197cv_b7cw3n33qk7r0000gn/T//ccrJgg3J.s 			page 49


 2737 0f8d 2B       		.uleb128 0x2b
 2738 0f8e 03060000 		.4byte	.LASF205
 2739 0f92 01       		.byte	0x1
 2740 0f93 98       		.byte	0x98
 2741 0f94 00000000 		.4byte	.LFB10
 2742 0f98 68000000 		.4byte	.LFE10-.LFB10
 2743 0f9c 01       		.uleb128 0x1
 2744 0f9d 9C       		.byte	0x9c
 2745 0f9e ED0F0000 		.4byte	0xfed
 2746 0fa2 26       		.uleb128 0x26
 2747 0fa3 9F000000 		.4byte	.LASF200
 2748 0fa7 01       		.byte	0x1
 2749 0fa8 98       		.byte	0x98
 2750 0fa9 570A0000 		.4byte	0xa57
 2751 0fad 08020000 		.4byte	.LLST9
 2752 0fb1 29       		.uleb128 0x29
 2753 0fb2 6C090000 		.4byte	.LASF206
 2754 0fb6 01       		.byte	0x1
 2755 0fb7 9D       		.byte	0x9d
 2756 0fb8 CD000000 		.4byte	0xcd
 2757 0fbc 26020000 		.4byte	.LLST10
 2758 0fc0 22       		.uleb128 0x22
 2759 0fc1 14000000 		.4byte	.LVL23
 2760 0fc5 1A110000 		.4byte	0x111a
 2761 0fc9 D80F0000 		.4byte	0xfd8
 2762 0fcd 23       		.uleb128 0x23
 2763 0fce 01       		.uleb128 0x1
 2764 0fcf 50       		.byte	0x50
 2765 0fd0 01       		.uleb128 0x1
 2766 0fd1 30       		.byte	0x30
 2767 0fd2 23       		.uleb128 0x23
 2768 0fd3 01       		.uleb128 0x1
 2769 0fd4 51       		.byte	0x51
 2770 0fd5 01       		.uleb128 0x1
 2771 0fd6 34       		.byte	0x34
 2772 0fd7 00       		.byte	0
 2773 0fd8 24       		.uleb128 0x24
 2774 0fd9 20000000 		.4byte	.LVL24
 2775 0fdd 1A110000 		.4byte	0x111a
 2776 0fe1 23       		.uleb128 0x23
 2777 0fe2 01       		.uleb128 0x1
 2778 0fe3 50       		.byte	0x50
 2779 0fe4 01       		.uleb128 0x1
 2780 0fe5 31       		.byte	0x31
 2781 0fe6 23       		.uleb128 0x23
 2782 0fe7 01       		.uleb128 0x1
 2783 0fe8 51       		.byte	0x51
 2784 0fe9 01       		.uleb128 0x1
 2785 0fea 34       		.byte	0x34
 2786 0feb 00       		.byte	0
 2787 0fec 00       		.byte	0
 2788 0fed 2A       		.uleb128 0x2a
 2789 0fee B4080000 		.4byte	.LASF207
 2790 0ff2 01       		.byte	0x1
 2791 0ff3 8C       		.byte	0x8c
 2792 0ff4 00000000 		.4byte	.LFB9
 2793 0ff8 1C000000 		.4byte	.LFE9-.LFB9
ARM GAS  /var/folders/3j/4xdnk5197cv_b7cw3n33qk7r0000gn/T//ccrJgg3J.s 			page 50


 2794 0ffc 01       		.uleb128 0x1
 2795 0ffd 9C       		.byte	0x9c
 2796 0ffe 16100000 		.4byte	0x1016
 2797 1002 2C       		.uleb128 0x2c
 2798 1003 14000000 		.4byte	.LVL20
 2799 1007 26110000 		.4byte	0x1126
 2800 100b 23       		.uleb128 0x23
 2801 100c 01       		.uleb128 0x1
 2802 100d 50       		.byte	0x50
 2803 100e 05       		.uleb128 0x5
 2804 100f 03       		.byte	0x3
 2805 1010 00000000 		.4byte	I2C0
 2806 1014 00       		.byte	0
 2807 1015 00       		.byte	0
 2808 1016 2A       		.uleb128 0x2a
 2809 1017 47010000 		.4byte	.LASF208
 2810 101b 01       		.byte	0x1
 2811 101c 69       		.byte	0x69
 2812 101d 00000000 		.4byte	.LFB8
 2813 1021 4C010000 		.4byte	.LFE8-.LFB8
 2814 1025 01       		.uleb128 0x1
 2815 1026 9C       		.byte	0x9c
 2816 1027 9B100000 		.4byte	0x109b
 2817 102b 26       		.uleb128 0x26
 2818 102c 9F000000 		.4byte	.LASF200
 2819 1030 01       		.byte	0x1
 2820 1031 69       		.byte	0x69
 2821 1032 570A0000 		.4byte	0xa57
 2822 1036 44020000 		.4byte	.LLST4
 2823 103a 29       		.uleb128 0x29
 2824 103b C7000000 		.4byte	.LASF150
 2825 103f 01       		.byte	0x1
 2826 1040 6B       		.byte	0x6b
 2827 1041 880A0000 		.4byte	0xa88
 2828 1045 89020000 		.4byte	.LLST5
 2829 1049 29       		.uleb128 0x29
 2830 104a C8080000 		.4byte	.LASF121
 2831 104e 01       		.byte	0x1
 2832 104f 6C       		.byte	0x6c
 2833 1050 CD000000 		.4byte	0xcd
 2834 1054 CD020000 		.4byte	.LLST6
 2835 1058 2D       		.uleb128 0x2d
 2836 1059 1C000000 		.4byte	.LBB5
 2837 105d 18000000 		.4byte	.LBE5-.LBB5
 2838 1061 7D100000 		.4byte	0x107d
 2839 1065 2E       		.uleb128 0x2e
 2840 1066 747000   		.ascii	"tp\000"
 2841 1069 01       		.byte	0x1
 2842 106a 70       		.byte	0x70
 2843 106b 62020000 		.4byte	0x262
 2844 106f 01030000 		.4byte	.LLST7
 2845 1073 2F       		.uleb128 0x2f
 2846 1074 34000000 		.4byte	.LVL12
 2847 1078 31110000 		.4byte	0x1131
 2848 107c 00       		.byte	0
 2849 107d 30       		.uleb128 0x30
 2850 107e 20000000 		.4byte	.Ldebug_ranges0+0x20
ARM GAS  /var/folders/3j/4xdnk5197cv_b7cw3n33qk7r0000gn/T//ccrJgg3J.s 			page 51


 2851 1082 2E       		.uleb128 0x2e
 2852 1083 747000   		.ascii	"tp\000"
 2853 1086 01       		.byte	0x1
 2854 1087 77       		.byte	0x77
 2855 1088 62020000 		.4byte	0x262
 2856 108c 14030000 		.4byte	.LLST8
 2857 1090 2F       		.uleb128 0x2f
 2858 1091 AC000000 		.4byte	.LVL16
 2859 1095 31110000 		.4byte	0x1131
 2860 1099 00       		.byte	0
 2861 109a 00       		.byte	0
 2862 109b 31       		.uleb128 0x31
 2863 109c 93070000 		.4byte	.LASF218
 2864 10a0 01       		.byte	0x1
 2865 10a1 4E       		.byte	0x4e
 2866 10a2 00000000 		.4byte	.LFB7
 2867 10a6 74000000 		.4byte	.LFE7-.LFB7
 2868 10aa 01       		.uleb128 0x1
 2869 10ab 9C       		.byte	0x9c
 2870 10ac F9100000 		.4byte	0x10f9
 2871 10b0 32       		.uleb128 0x32
 2872 10b1 7000     		.ascii	"p\000"
 2873 10b3 01       		.byte	0x1
 2874 10b4 4E       		.byte	0x4e
 2875 10b5 A9020000 		.4byte	0x2a9
 2876 10b9 27030000 		.4byte	.LLST0
 2877 10bd 29       		.uleb128 0x29
 2878 10be 9F000000 		.4byte	.LASF200
 2879 10c2 01       		.byte	0x1
 2880 10c3 4F       		.byte	0x4f
 2881 10c4 570A0000 		.4byte	0xa57
 2882 10c8 53030000 		.4byte	.LLST1
 2883 10cc 30       		.uleb128 0x30
 2884 10cd 00000000 		.4byte	.Ldebug_ranges0+0
 2885 10d1 29       		.uleb128 0x29
 2886 10d2 C7000000 		.4byte	.LASF150
 2887 10d6 01       		.byte	0x1
 2888 10d7 52       		.byte	0x52
 2889 10d8 880A0000 		.4byte	0xa88
 2890 10dc 7F030000 		.4byte	.LLST2
 2891 10e0 2E       		.uleb128 0x2e
 2892 10e1 747000   		.ascii	"tp\000"
 2893 10e4 01       		.byte	0x1
 2894 10e5 5D       		.byte	0x5d
 2895 10e6 62020000 		.4byte	0x262
 2896 10ea 92030000 		.4byte	.LLST3
 2897 10ee 2F       		.uleb128 0x2f
 2898 10ef 70000000 		.4byte	.LVL4
 2899 10f3 31110000 		.4byte	0x1131
 2900 10f7 00       		.byte	0
 2901 10f8 00       		.byte	0
 2902 10f9 33       		.uleb128 0x33
 2903 10fa 1A050000 		.4byte	.LASF209
 2904 10fe 1A050000 		.4byte	.LASF209
 2905 1102 09       		.byte	0x9
 2906 1103 DA       		.byte	0xda
 2907 1104 33       		.uleb128 0x33
ARM GAS  /var/folders/3j/4xdnk5197cv_b7cw3n33qk7r0000gn/T//ccrJgg3J.s 			page 52


 2908 1105 25070000 		.4byte	.LASF210
 2909 1109 25070000 		.4byte	.LASF210
 2910 110d 0A       		.byte	0xa
 2911 110e 8C       		.byte	0x8c
 2912 110f 33       		.uleb128 0x33
 2913 1110 5B020000 		.4byte	.LASF211
 2914 1114 5B020000 		.4byte	.LASF211
 2915 1118 09       		.byte	0x9
 2916 1119 DB       		.byte	0xdb
 2917 111a 34       		.uleb128 0x34
 2918 111b 94050000 		.4byte	.LASF212
 2919 111f 94050000 		.4byte	.LASF212
 2920 1123 10       		.byte	0x10
 2921 1124 8C01     		.2byte	0x18c
 2922 1126 33       		.uleb128 0x33
 2923 1127 30080000 		.4byte	.LASF213
 2924 112b 30080000 		.4byte	.LASF213
 2925 112f 12       		.byte	0x12
 2926 1130 7A       		.byte	0x7a
 2927 1131 33       		.uleb128 0x33
 2928 1132 C9070000 		.4byte	.LASF214
 2929 1136 C9070000 		.4byte	.LASF214
 2930 113a 0A       		.byte	0xa
 2931 113b 89       		.byte	0x89
 2932 113c 00       		.byte	0
 2933              		.section	.debug_abbrev,"",%progbits
 2934              	.Ldebug_abbrev0:
 2935 0000 01       		.uleb128 0x1
 2936 0001 11       		.uleb128 0x11
 2937 0002 01       		.byte	0x1
 2938 0003 25       		.uleb128 0x25
 2939 0004 0E       		.uleb128 0xe
 2940 0005 13       		.uleb128 0x13
 2941 0006 0B       		.uleb128 0xb
 2942 0007 03       		.uleb128 0x3
 2943 0008 0E       		.uleb128 0xe
 2944 0009 1B       		.uleb128 0x1b
 2945 000a 0E       		.uleb128 0xe
 2946 000b 55       		.uleb128 0x55
 2947 000c 17       		.uleb128 0x17
 2948 000d 11       		.uleb128 0x11
 2949 000e 01       		.uleb128 0x1
 2950 000f 10       		.uleb128 0x10
 2951 0010 17       		.uleb128 0x17
 2952 0011 00       		.byte	0
 2953 0012 00       		.byte	0
 2954 0013 02       		.uleb128 0x2
 2955 0014 24       		.uleb128 0x24
 2956 0015 00       		.byte	0
 2957 0016 0B       		.uleb128 0xb
 2958 0017 0B       		.uleb128 0xb
 2959 0018 3E       		.uleb128 0x3e
 2960 0019 0B       		.uleb128 0xb
 2961 001a 03       		.uleb128 0x3
 2962 001b 08       		.uleb128 0x8
 2963 001c 00       		.byte	0
 2964 001d 00       		.byte	0
ARM GAS  /var/folders/3j/4xdnk5197cv_b7cw3n33qk7r0000gn/T//ccrJgg3J.s 			page 53


 2965 001e 03       		.uleb128 0x3
 2966 001f 16       		.uleb128 0x16
 2967 0020 00       		.byte	0
 2968 0021 03       		.uleb128 0x3
 2969 0022 0E       		.uleb128 0xe
 2970 0023 3A       		.uleb128 0x3a
 2971 0024 0B       		.uleb128 0xb
 2972 0025 3B       		.uleb128 0x3b
 2973 0026 0B       		.uleb128 0xb
 2974 0027 49       		.uleb128 0x49
 2975 0028 13       		.uleb128 0x13
 2976 0029 00       		.byte	0
 2977 002a 00       		.byte	0
 2978 002b 04       		.uleb128 0x4
 2979 002c 24       		.uleb128 0x24
 2980 002d 00       		.byte	0
 2981 002e 0B       		.uleb128 0xb
 2982 002f 0B       		.uleb128 0xb
 2983 0030 3E       		.uleb128 0x3e
 2984 0031 0B       		.uleb128 0xb
 2985 0032 03       		.uleb128 0x3
 2986 0033 0E       		.uleb128 0xe
 2987 0034 00       		.byte	0
 2988 0035 00       		.byte	0
 2989 0036 05       		.uleb128 0x5
 2990 0037 35       		.uleb128 0x35
 2991 0038 00       		.byte	0
 2992 0039 49       		.uleb128 0x49
 2993 003a 13       		.uleb128 0x13
 2994 003b 00       		.byte	0
 2995 003c 00       		.byte	0
 2996 003d 06       		.uleb128 0x6
 2997 003e 26       		.uleb128 0x26
 2998 003f 00       		.byte	0
 2999 0040 49       		.uleb128 0x49
 3000 0041 13       		.uleb128 0x13
 3001 0042 00       		.byte	0
 3002 0043 00       		.byte	0
 3003 0044 07       		.uleb128 0x7
 3004 0045 13       		.uleb128 0x13
 3005 0046 01       		.byte	0x1
 3006 0047 03       		.uleb128 0x3
 3007 0048 0E       		.uleb128 0xe
 3008 0049 0B       		.uleb128 0xb
 3009 004a 0B       		.uleb128 0xb
 3010 004b 3A       		.uleb128 0x3a
 3011 004c 0B       		.uleb128 0xb
 3012 004d 3B       		.uleb128 0x3b
 3013 004e 0B       		.uleb128 0xb
 3014 004f 01       		.uleb128 0x1
 3015 0050 13       		.uleb128 0x13
 3016 0051 00       		.byte	0
 3017 0052 00       		.byte	0
 3018 0053 08       		.uleb128 0x8
 3019 0054 0D       		.uleb128 0xd
 3020 0055 00       		.byte	0
 3021 0056 03       		.uleb128 0x3
ARM GAS  /var/folders/3j/4xdnk5197cv_b7cw3n33qk7r0000gn/T//ccrJgg3J.s 			page 54


 3022 0057 0E       		.uleb128 0xe
 3023 0058 3A       		.uleb128 0x3a
 3024 0059 0B       		.uleb128 0xb
 3025 005a 3B       		.uleb128 0x3b
 3026 005b 0B       		.uleb128 0xb
 3027 005c 49       		.uleb128 0x49
 3028 005d 13       		.uleb128 0x13
 3029 005e 38       		.uleb128 0x38
 3030 005f 0B       		.uleb128 0xb
 3031 0060 00       		.byte	0
 3032 0061 00       		.byte	0
 3033 0062 09       		.uleb128 0x9
 3034 0063 0D       		.uleb128 0xd
 3035 0064 00       		.byte	0
 3036 0065 03       		.uleb128 0x3
 3037 0066 08       		.uleb128 0x8
 3038 0067 3A       		.uleb128 0x3a
 3039 0068 0B       		.uleb128 0xb
 3040 0069 3B       		.uleb128 0x3b
 3041 006a 0B       		.uleb128 0xb
 3042 006b 49       		.uleb128 0x49
 3043 006c 13       		.uleb128 0x13
 3044 006d 38       		.uleb128 0x38
 3045 006e 0B       		.uleb128 0xb
 3046 006f 00       		.byte	0
 3047 0070 00       		.byte	0
 3048 0071 0A       		.uleb128 0xa
 3049 0072 13       		.uleb128 0x13
 3050 0073 01       		.byte	0x1
 3051 0074 0B       		.uleb128 0xb
 3052 0075 0B       		.uleb128 0xb
 3053 0076 3A       		.uleb128 0x3a
 3054 0077 0B       		.uleb128 0xb
 3055 0078 3B       		.uleb128 0x3b
 3056 0079 0B       		.uleb128 0xb
 3057 007a 01       		.uleb128 0x1
 3058 007b 13       		.uleb128 0x13
 3059 007c 00       		.byte	0
 3060 007d 00       		.byte	0
 3061 007e 0B       		.uleb128 0xb
 3062 007f 0F       		.uleb128 0xf
 3063 0080 00       		.byte	0
 3064 0081 0B       		.uleb128 0xb
 3065 0082 0B       		.uleb128 0xb
 3066 0083 49       		.uleb128 0x49
 3067 0084 13       		.uleb128 0x13
 3068 0085 00       		.byte	0
 3069 0086 00       		.byte	0
 3070 0087 0C       		.uleb128 0xc
 3071 0088 0F       		.uleb128 0xf
 3072 0089 00       		.byte	0
 3073 008a 0B       		.uleb128 0xb
 3074 008b 0B       		.uleb128 0xb
 3075 008c 00       		.byte	0
 3076 008d 00       		.byte	0
 3077 008e 0D       		.uleb128 0xd
 3078 008f 15       		.uleb128 0x15
ARM GAS  /var/folders/3j/4xdnk5197cv_b7cw3n33qk7r0000gn/T//ccrJgg3J.s 			page 55


 3079 0090 01       		.byte	0x1
 3080 0091 27       		.uleb128 0x27
 3081 0092 19       		.uleb128 0x19
 3082 0093 01       		.uleb128 0x1
 3083 0094 13       		.uleb128 0x13
 3084 0095 00       		.byte	0
 3085 0096 00       		.byte	0
 3086 0097 0E       		.uleb128 0xe
 3087 0098 05       		.uleb128 0x5
 3088 0099 00       		.byte	0
 3089 009a 49       		.uleb128 0x49
 3090 009b 13       		.uleb128 0x13
 3091 009c 00       		.byte	0
 3092 009d 00       		.byte	0
 3093 009e 0F       		.uleb128 0xf
 3094 009f 34       		.uleb128 0x34
 3095 00a0 00       		.byte	0
 3096 00a1 03       		.uleb128 0x3
 3097 00a2 0E       		.uleb128 0xe
 3098 00a3 3A       		.uleb128 0x3a
 3099 00a4 0B       		.uleb128 0xb
 3100 00a5 3B       		.uleb128 0x3b
 3101 00a6 0B       		.uleb128 0xb
 3102 00a7 49       		.uleb128 0x49
 3103 00a8 13       		.uleb128 0x13
 3104 00a9 3F       		.uleb128 0x3f
 3105 00aa 19       		.uleb128 0x19
 3106 00ab 3C       		.uleb128 0x3c
 3107 00ac 19       		.uleb128 0x19
 3108 00ad 00       		.byte	0
 3109 00ae 00       		.byte	0
 3110 00af 10       		.uleb128 0x10
 3111 00b0 17       		.uleb128 0x17
 3112 00b1 01       		.byte	0x1
 3113 00b2 0B       		.uleb128 0xb
 3114 00b3 0B       		.uleb128 0xb
 3115 00b4 3A       		.uleb128 0x3a
 3116 00b5 0B       		.uleb128 0xb
 3117 00b6 3B       		.uleb128 0x3b
 3118 00b7 0B       		.uleb128 0xb
 3119 00b8 01       		.uleb128 0x1
 3120 00b9 13       		.uleb128 0x13
 3121 00ba 00       		.byte	0
 3122 00bb 00       		.byte	0
 3123 00bc 11       		.uleb128 0x11
 3124 00bd 0D       		.uleb128 0xd
 3125 00be 00       		.byte	0
 3126 00bf 03       		.uleb128 0x3
 3127 00c0 0E       		.uleb128 0xe
 3128 00c1 3A       		.uleb128 0x3a
 3129 00c2 0B       		.uleb128 0xb
 3130 00c3 3B       		.uleb128 0x3b
 3131 00c4 0B       		.uleb128 0xb
 3132 00c5 49       		.uleb128 0x49
 3133 00c6 13       		.uleb128 0x13
 3134 00c7 00       		.byte	0
 3135 00c8 00       		.byte	0
ARM GAS  /var/folders/3j/4xdnk5197cv_b7cw3n33qk7r0000gn/T//ccrJgg3J.s 			page 56


 3136 00c9 12       		.uleb128 0x12
 3137 00ca 15       		.uleb128 0x15
 3138 00cb 01       		.byte	0x1
 3139 00cc 27       		.uleb128 0x27
 3140 00cd 19       		.uleb128 0x19
 3141 00ce 49       		.uleb128 0x49
 3142 00cf 13       		.uleb128 0x13
 3143 00d0 01       		.uleb128 0x1
 3144 00d1 13       		.uleb128 0x13
 3145 00d2 00       		.byte	0
 3146 00d3 00       		.byte	0
 3147 00d4 13       		.uleb128 0x13
 3148 00d5 01       		.uleb128 0x1
 3149 00d6 01       		.byte	0x1
 3150 00d7 49       		.uleb128 0x49
 3151 00d8 13       		.uleb128 0x13
 3152 00d9 01       		.uleb128 0x1
 3153 00da 13       		.uleb128 0x13
 3154 00db 00       		.byte	0
 3155 00dc 00       		.byte	0
 3156 00dd 14       		.uleb128 0x14
 3157 00de 21       		.uleb128 0x21
 3158 00df 00       		.byte	0
 3159 00e0 49       		.uleb128 0x49
 3160 00e1 13       		.uleb128 0x13
 3161 00e2 2F       		.uleb128 0x2f
 3162 00e3 0B       		.uleb128 0xb
 3163 00e4 00       		.byte	0
 3164 00e5 00       		.byte	0
 3165 00e6 15       		.uleb128 0x15
 3166 00e7 0D       		.uleb128 0xd
 3167 00e8 00       		.byte	0
 3168 00e9 03       		.uleb128 0x3
 3169 00ea 0E       		.uleb128 0xe
 3170 00eb 3A       		.uleb128 0x3a
 3171 00ec 0B       		.uleb128 0xb
 3172 00ed 3B       		.uleb128 0x3b
 3173 00ee 05       		.uleb128 0x5
 3174 00ef 49       		.uleb128 0x49
 3175 00f0 13       		.uleb128 0x13
 3176 00f1 38       		.uleb128 0x38
 3177 00f2 0B       		.uleb128 0xb
 3178 00f3 00       		.byte	0
 3179 00f4 00       		.byte	0
 3180 00f5 16       		.uleb128 0x16
 3181 00f6 16       		.uleb128 0x16
 3182 00f7 00       		.byte	0
 3183 00f8 03       		.uleb128 0x3
 3184 00f9 0E       		.uleb128 0xe
 3185 00fa 3A       		.uleb128 0x3a
 3186 00fb 0B       		.uleb128 0xb
 3187 00fc 3B       		.uleb128 0x3b
 3188 00fd 05       		.uleb128 0x5
 3189 00fe 49       		.uleb128 0x49
 3190 00ff 13       		.uleb128 0x13
 3191 0100 00       		.byte	0
 3192 0101 00       		.byte	0
ARM GAS  /var/folders/3j/4xdnk5197cv_b7cw3n33qk7r0000gn/T//ccrJgg3J.s 			page 57


 3193 0102 17       		.uleb128 0x17
 3194 0103 13       		.uleb128 0x13
 3195 0104 00       		.byte	0
 3196 0105 0B       		.uleb128 0xb
 3197 0106 0B       		.uleb128 0xb
 3198 0107 3A       		.uleb128 0x3a
 3199 0108 0B       		.uleb128 0xb
 3200 0109 3B       		.uleb128 0x3b
 3201 010a 0B       		.uleb128 0xb
 3202 010b 00       		.byte	0
 3203 010c 00       		.byte	0
 3204 010d 18       		.uleb128 0x18
 3205 010e 04       		.uleb128 0x4
 3206 010f 01       		.byte	0x1
 3207 0110 3E       		.uleb128 0x3e
 3208 0111 0B       		.uleb128 0xb
 3209 0112 0B       		.uleb128 0xb
 3210 0113 0B       		.uleb128 0xb
 3211 0114 49       		.uleb128 0x49
 3212 0115 13       		.uleb128 0x13
 3213 0116 3A       		.uleb128 0x3a
 3214 0117 0B       		.uleb128 0xb
 3215 0118 3B       		.uleb128 0x3b
 3216 0119 0B       		.uleb128 0xb
 3217 011a 01       		.uleb128 0x1
 3218 011b 13       		.uleb128 0x13
 3219 011c 00       		.byte	0
 3220 011d 00       		.byte	0
 3221 011e 19       		.uleb128 0x19
 3222 011f 28       		.uleb128 0x28
 3223 0120 00       		.byte	0
 3224 0121 03       		.uleb128 0x3
 3225 0122 0E       		.uleb128 0xe
 3226 0123 1C       		.uleb128 0x1c
 3227 0124 0B       		.uleb128 0xb
 3228 0125 00       		.byte	0
 3229 0126 00       		.byte	0
 3230 0127 1A       		.uleb128 0x1a
 3231 0128 34       		.uleb128 0x34
 3232 0129 00       		.byte	0
 3233 012a 03       		.uleb128 0x3
 3234 012b 08       		.uleb128 0x8
 3235 012c 3A       		.uleb128 0x3a
 3236 012d 0B       		.uleb128 0xb
 3237 012e 3B       		.uleb128 0x3b
 3238 012f 0B       		.uleb128 0xb
 3239 0130 49       		.uleb128 0x49
 3240 0131 13       		.uleb128 0x13
 3241 0132 3F       		.uleb128 0x3f
 3242 0133 19       		.uleb128 0x19
 3243 0134 3C       		.uleb128 0x3c
 3244 0135 19       		.uleb128 0x19
 3245 0136 00       		.byte	0
 3246 0137 00       		.byte	0
 3247 0138 1B       		.uleb128 0x1b
 3248 0139 26       		.uleb128 0x26
 3249 013a 00       		.byte	0
ARM GAS  /var/folders/3j/4xdnk5197cv_b7cw3n33qk7r0000gn/T//ccrJgg3J.s 			page 58


 3250 013b 00       		.byte	0
 3251 013c 00       		.byte	0
 3252 013d 1C       		.uleb128 0x1c
 3253 013e 34       		.uleb128 0x34
 3254 013f 00       		.byte	0
 3255 0140 47       		.uleb128 0x47
 3256 0141 13       		.uleb128 0x13
 3257 0142 3A       		.uleb128 0x3a
 3258 0143 0B       		.uleb128 0xb
 3259 0144 3B       		.uleb128 0x3b
 3260 0145 0B       		.uleb128 0xb
 3261 0146 02       		.uleb128 0x2
 3262 0147 18       		.uleb128 0x18
 3263 0148 00       		.byte	0
 3264 0149 00       		.byte	0
 3265 014a 1D       		.uleb128 0x1d
 3266 014b 2E       		.uleb128 0x2e
 3267 014c 01       		.byte	0x1
 3268 014d 3F       		.uleb128 0x3f
 3269 014e 19       		.uleb128 0x19
 3270 014f 03       		.uleb128 0x3
 3271 0150 0E       		.uleb128 0xe
 3272 0151 3A       		.uleb128 0x3a
 3273 0152 0B       		.uleb128 0xb
 3274 0153 3B       		.uleb128 0x3b
 3275 0154 05       		.uleb128 0x5
 3276 0155 27       		.uleb128 0x27
 3277 0156 19       		.uleb128 0x19
 3278 0157 49       		.uleb128 0x49
 3279 0158 13       		.uleb128 0x13
 3280 0159 11       		.uleb128 0x11
 3281 015a 01       		.uleb128 0x1
 3282 015b 12       		.uleb128 0x12
 3283 015c 06       		.uleb128 0x6
 3284 015d 40       		.uleb128 0x40
 3285 015e 18       		.uleb128 0x18
 3286 015f 9742     		.uleb128 0x2117
 3287 0161 19       		.uleb128 0x19
 3288 0162 01       		.uleb128 0x1
 3289 0163 13       		.uleb128 0x13
 3290 0164 00       		.byte	0
 3291 0165 00       		.byte	0
 3292 0166 1E       		.uleb128 0x1e
 3293 0167 05       		.uleb128 0x5
 3294 0168 00       		.byte	0
 3295 0169 03       		.uleb128 0x3
 3296 016a 0E       		.uleb128 0xe
 3297 016b 3A       		.uleb128 0x3a
 3298 016c 0B       		.uleb128 0xb
 3299 016d 3B       		.uleb128 0x3b
 3300 016e 05       		.uleb128 0x5
 3301 016f 49       		.uleb128 0x49
 3302 0170 13       		.uleb128 0x13
 3303 0171 02       		.uleb128 0x2
 3304 0172 17       		.uleb128 0x17
 3305 0173 00       		.byte	0
 3306 0174 00       		.byte	0
ARM GAS  /var/folders/3j/4xdnk5197cv_b7cw3n33qk7r0000gn/T//ccrJgg3J.s 			page 59


 3307 0175 1F       		.uleb128 0x1f
 3308 0176 05       		.uleb128 0x5
 3309 0177 00       		.byte	0
 3310 0178 03       		.uleb128 0x3
 3311 0179 0E       		.uleb128 0xe
 3312 017a 3A       		.uleb128 0x3a
 3313 017b 0B       		.uleb128 0xb
 3314 017c 3B       		.uleb128 0x3b
 3315 017d 05       		.uleb128 0x5
 3316 017e 49       		.uleb128 0x49
 3317 017f 13       		.uleb128 0x13
 3318 0180 02       		.uleb128 0x2
 3319 0181 18       		.uleb128 0x18
 3320 0182 00       		.byte	0
 3321 0183 00       		.byte	0
 3322 0184 20       		.uleb128 0x20
 3323 0185 34       		.uleb128 0x34
 3324 0186 00       		.byte	0
 3325 0187 03       		.uleb128 0x3
 3326 0188 08       		.uleb128 0x8
 3327 0189 3A       		.uleb128 0x3a
 3328 018a 0B       		.uleb128 0xb
 3329 018b 3B       		.uleb128 0x3b
 3330 018c 05       		.uleb128 0x5
 3331 018d 49       		.uleb128 0x49
 3332 018e 13       		.uleb128 0x13
 3333 018f 02       		.uleb128 0x2
 3334 0190 18       		.uleb128 0x18
 3335 0191 00       		.byte	0
 3336 0192 00       		.byte	0
 3337 0193 21       		.uleb128 0x21
 3338 0194 34       		.uleb128 0x34
 3339 0195 00       		.byte	0
 3340 0196 03       		.uleb128 0x3
 3341 0197 0E       		.uleb128 0xe
 3342 0198 3A       		.uleb128 0x3a
 3343 0199 0B       		.uleb128 0xb
 3344 019a 3B       		.uleb128 0x3b
 3345 019b 05       		.uleb128 0x5
 3346 019c 49       		.uleb128 0x49
 3347 019d 13       		.uleb128 0x13
 3348 019e 02       		.uleb128 0x2
 3349 019f 17       		.uleb128 0x17
 3350 01a0 00       		.byte	0
 3351 01a1 00       		.byte	0
 3352 01a2 22       		.uleb128 0x22
 3353 01a3 898201   		.uleb128 0x4109
 3354 01a6 01       		.byte	0x1
 3355 01a7 11       		.uleb128 0x11
 3356 01a8 01       		.uleb128 0x1
 3357 01a9 31       		.uleb128 0x31
 3358 01aa 13       		.uleb128 0x13
 3359 01ab 01       		.uleb128 0x1
 3360 01ac 13       		.uleb128 0x13
 3361 01ad 00       		.byte	0
 3362 01ae 00       		.byte	0
 3363 01af 23       		.uleb128 0x23
ARM GAS  /var/folders/3j/4xdnk5197cv_b7cw3n33qk7r0000gn/T//ccrJgg3J.s 			page 60


 3364 01b0 8A8201   		.uleb128 0x410a
 3365 01b3 00       		.byte	0
 3366 01b4 02       		.uleb128 0x2
 3367 01b5 18       		.uleb128 0x18
 3368 01b6 9142     		.uleb128 0x2111
 3369 01b8 18       		.uleb128 0x18
 3370 01b9 00       		.byte	0
 3371 01ba 00       		.byte	0
 3372 01bb 24       		.uleb128 0x24
 3373 01bc 898201   		.uleb128 0x4109
 3374 01bf 01       		.byte	0x1
 3375 01c0 11       		.uleb128 0x11
 3376 01c1 01       		.uleb128 0x1
 3377 01c2 31       		.uleb128 0x31
 3378 01c3 13       		.uleb128 0x13
 3379 01c4 00       		.byte	0
 3380 01c5 00       		.byte	0
 3381 01c6 25       		.uleb128 0x25
 3382 01c7 2E       		.uleb128 0x2e
 3383 01c8 01       		.byte	0x1
 3384 01c9 3F       		.uleb128 0x3f
 3385 01ca 19       		.uleb128 0x19
 3386 01cb 03       		.uleb128 0x3
 3387 01cc 0E       		.uleb128 0xe
 3388 01cd 3A       		.uleb128 0x3a
 3389 01ce 0B       		.uleb128 0xb
 3390 01cf 3B       		.uleb128 0x3b
 3391 01d0 0B       		.uleb128 0xb
 3392 01d1 27       		.uleb128 0x27
 3393 01d2 19       		.uleb128 0x19
 3394 01d3 49       		.uleb128 0x49
 3395 01d4 13       		.uleb128 0x13
 3396 01d5 11       		.uleb128 0x11
 3397 01d6 01       		.uleb128 0x1
 3398 01d7 12       		.uleb128 0x12
 3399 01d8 06       		.uleb128 0x6
 3400 01d9 40       		.uleb128 0x40
 3401 01da 18       		.uleb128 0x18
 3402 01db 9742     		.uleb128 0x2117
 3403 01dd 19       		.uleb128 0x19
 3404 01de 01       		.uleb128 0x1
 3405 01df 13       		.uleb128 0x13
 3406 01e0 00       		.byte	0
 3407 01e1 00       		.byte	0
 3408 01e2 26       		.uleb128 0x26
 3409 01e3 05       		.uleb128 0x5
 3410 01e4 00       		.byte	0
 3411 01e5 03       		.uleb128 0x3
 3412 01e6 0E       		.uleb128 0xe
 3413 01e7 3A       		.uleb128 0x3a
 3414 01e8 0B       		.uleb128 0xb
 3415 01e9 3B       		.uleb128 0x3b
 3416 01ea 0B       		.uleb128 0xb
 3417 01eb 49       		.uleb128 0x49
 3418 01ec 13       		.uleb128 0x13
 3419 01ed 02       		.uleb128 0x2
 3420 01ee 17       		.uleb128 0x17
ARM GAS  /var/folders/3j/4xdnk5197cv_b7cw3n33qk7r0000gn/T//ccrJgg3J.s 			page 61


 3421 01ef 00       		.byte	0
 3422 01f0 00       		.byte	0
 3423 01f1 27       		.uleb128 0x27
 3424 01f2 05       		.uleb128 0x5
 3425 01f3 00       		.byte	0
 3426 01f4 03       		.uleb128 0x3
 3427 01f5 0E       		.uleb128 0xe
 3428 01f6 3A       		.uleb128 0x3a
 3429 01f7 0B       		.uleb128 0xb
 3430 01f8 3B       		.uleb128 0x3b
 3431 01f9 0B       		.uleb128 0xb
 3432 01fa 49       		.uleb128 0x49
 3433 01fb 13       		.uleb128 0x13
 3434 01fc 02       		.uleb128 0x2
 3435 01fd 18       		.uleb128 0x18
 3436 01fe 00       		.byte	0
 3437 01ff 00       		.byte	0
 3438 0200 28       		.uleb128 0x28
 3439 0201 34       		.uleb128 0x34
 3440 0202 00       		.byte	0
 3441 0203 03       		.uleb128 0x3
 3442 0204 08       		.uleb128 0x8
 3443 0205 3A       		.uleb128 0x3a
 3444 0206 0B       		.uleb128 0xb
 3445 0207 3B       		.uleb128 0x3b
 3446 0208 0B       		.uleb128 0xb
 3447 0209 49       		.uleb128 0x49
 3448 020a 13       		.uleb128 0x13
 3449 020b 02       		.uleb128 0x2
 3450 020c 18       		.uleb128 0x18
 3451 020d 00       		.byte	0
 3452 020e 00       		.byte	0
 3453 020f 29       		.uleb128 0x29
 3454 0210 34       		.uleb128 0x34
 3455 0211 00       		.byte	0
 3456 0212 03       		.uleb128 0x3
 3457 0213 0E       		.uleb128 0xe
 3458 0214 3A       		.uleb128 0x3a
 3459 0215 0B       		.uleb128 0xb
 3460 0216 3B       		.uleb128 0x3b
 3461 0217 0B       		.uleb128 0xb
 3462 0218 49       		.uleb128 0x49
 3463 0219 13       		.uleb128 0x13
 3464 021a 02       		.uleb128 0x2
 3465 021b 17       		.uleb128 0x17
 3466 021c 00       		.byte	0
 3467 021d 00       		.byte	0
 3468 021e 2A       		.uleb128 0x2a
 3469 021f 2E       		.uleb128 0x2e
 3470 0220 01       		.byte	0x1
 3471 0221 3F       		.uleb128 0x3f
 3472 0222 19       		.uleb128 0x19
 3473 0223 03       		.uleb128 0x3
 3474 0224 0E       		.uleb128 0xe
 3475 0225 3A       		.uleb128 0x3a
 3476 0226 0B       		.uleb128 0xb
 3477 0227 3B       		.uleb128 0x3b
ARM GAS  /var/folders/3j/4xdnk5197cv_b7cw3n33qk7r0000gn/T//ccrJgg3J.s 			page 62


 3478 0228 0B       		.uleb128 0xb
 3479 0229 27       		.uleb128 0x27
 3480 022a 19       		.uleb128 0x19
 3481 022b 11       		.uleb128 0x11
 3482 022c 01       		.uleb128 0x1
 3483 022d 12       		.uleb128 0x12
 3484 022e 06       		.uleb128 0x6
 3485 022f 40       		.uleb128 0x40
 3486 0230 18       		.uleb128 0x18
 3487 0231 9742     		.uleb128 0x2117
 3488 0233 19       		.uleb128 0x19
 3489 0234 01       		.uleb128 0x1
 3490 0235 13       		.uleb128 0x13
 3491 0236 00       		.byte	0
 3492 0237 00       		.byte	0
 3493 0238 2B       		.uleb128 0x2b
 3494 0239 2E       		.uleb128 0x2e
 3495 023a 01       		.byte	0x1
 3496 023b 3F       		.uleb128 0x3f
 3497 023c 19       		.uleb128 0x19
 3498 023d 03       		.uleb128 0x3
 3499 023e 0E       		.uleb128 0xe
 3500 023f 3A       		.uleb128 0x3a
 3501 0240 0B       		.uleb128 0xb
 3502 0241 3B       		.uleb128 0x3b
 3503 0242 0B       		.uleb128 0xb
 3504 0243 27       		.uleb128 0x27
 3505 0244 19       		.uleb128 0x19
 3506 0245 11       		.uleb128 0x11
 3507 0246 01       		.uleb128 0x1
 3508 0247 12       		.uleb128 0x12
 3509 0248 06       		.uleb128 0x6
 3510 0249 40       		.uleb128 0x40
 3511 024a 18       		.uleb128 0x18
 3512 024b 9642     		.uleb128 0x2116
 3513 024d 19       		.uleb128 0x19
 3514 024e 01       		.uleb128 0x1
 3515 024f 13       		.uleb128 0x13
 3516 0250 00       		.byte	0
 3517 0251 00       		.byte	0
 3518 0252 2C       		.uleb128 0x2c
 3519 0253 898201   		.uleb128 0x4109
 3520 0256 01       		.byte	0x1
 3521 0257 11       		.uleb128 0x11
 3522 0258 01       		.uleb128 0x1
 3523 0259 9542     		.uleb128 0x2115
 3524 025b 19       		.uleb128 0x19
 3525 025c 31       		.uleb128 0x31
 3526 025d 13       		.uleb128 0x13
 3527 025e 00       		.byte	0
 3528 025f 00       		.byte	0
 3529 0260 2D       		.uleb128 0x2d
 3530 0261 0B       		.uleb128 0xb
 3531 0262 01       		.byte	0x1
 3532 0263 11       		.uleb128 0x11
 3533 0264 01       		.uleb128 0x1
 3534 0265 12       		.uleb128 0x12
ARM GAS  /var/folders/3j/4xdnk5197cv_b7cw3n33qk7r0000gn/T//ccrJgg3J.s 			page 63


 3535 0266 06       		.uleb128 0x6
 3536 0267 01       		.uleb128 0x1
 3537 0268 13       		.uleb128 0x13
 3538 0269 00       		.byte	0
 3539 026a 00       		.byte	0
 3540 026b 2E       		.uleb128 0x2e
 3541 026c 34       		.uleb128 0x34
 3542 026d 00       		.byte	0
 3543 026e 03       		.uleb128 0x3
 3544 026f 08       		.uleb128 0x8
 3545 0270 3A       		.uleb128 0x3a
 3546 0271 0B       		.uleb128 0xb
 3547 0272 3B       		.uleb128 0x3b
 3548 0273 0B       		.uleb128 0xb
 3549 0274 49       		.uleb128 0x49
 3550 0275 13       		.uleb128 0x13
 3551 0276 02       		.uleb128 0x2
 3552 0277 17       		.uleb128 0x17
 3553 0278 00       		.byte	0
 3554 0279 00       		.byte	0
 3555 027a 2F       		.uleb128 0x2f
 3556 027b 898201   		.uleb128 0x4109
 3557 027e 00       		.byte	0
 3558 027f 11       		.uleb128 0x11
 3559 0280 01       		.uleb128 0x1
 3560 0281 9542     		.uleb128 0x2115
 3561 0283 19       		.uleb128 0x19
 3562 0284 31       		.uleb128 0x31
 3563 0285 13       		.uleb128 0x13
 3564 0286 00       		.byte	0
 3565 0287 00       		.byte	0
 3566 0288 30       		.uleb128 0x30
 3567 0289 0B       		.uleb128 0xb
 3568 028a 01       		.byte	0x1
 3569 028b 55       		.uleb128 0x55
 3570 028c 17       		.uleb128 0x17
 3571 028d 00       		.byte	0
 3572 028e 00       		.byte	0
 3573 028f 31       		.uleb128 0x31
 3574 0290 2E       		.uleb128 0x2e
 3575 0291 01       		.byte	0x1
 3576 0292 03       		.uleb128 0x3
 3577 0293 0E       		.uleb128 0xe
 3578 0294 3A       		.uleb128 0x3a
 3579 0295 0B       		.uleb128 0xb
 3580 0296 3B       		.uleb128 0x3b
 3581 0297 0B       		.uleb128 0xb
 3582 0298 27       		.uleb128 0x27
 3583 0299 19       		.uleb128 0x19
 3584 029a 11       		.uleb128 0x11
 3585 029b 01       		.uleb128 0x1
 3586 029c 12       		.uleb128 0x12
 3587 029d 06       		.uleb128 0x6
 3588 029e 40       		.uleb128 0x40
 3589 029f 18       		.uleb128 0x18
 3590 02a0 9742     		.uleb128 0x2117
 3591 02a2 19       		.uleb128 0x19
ARM GAS  /var/folders/3j/4xdnk5197cv_b7cw3n33qk7r0000gn/T//ccrJgg3J.s 			page 64


 3592 02a3 01       		.uleb128 0x1
 3593 02a4 13       		.uleb128 0x13
 3594 02a5 00       		.byte	0
 3595 02a6 00       		.byte	0
 3596 02a7 32       		.uleb128 0x32
 3597 02a8 05       		.uleb128 0x5
 3598 02a9 00       		.byte	0
 3599 02aa 03       		.uleb128 0x3
 3600 02ab 08       		.uleb128 0x8
 3601 02ac 3A       		.uleb128 0x3a
 3602 02ad 0B       		.uleb128 0xb
 3603 02ae 3B       		.uleb128 0x3b
 3604 02af 0B       		.uleb128 0xb
 3605 02b0 49       		.uleb128 0x49
 3606 02b1 13       		.uleb128 0x13
 3607 02b2 02       		.uleb128 0x2
 3608 02b3 17       		.uleb128 0x17
 3609 02b4 00       		.byte	0
 3610 02b5 00       		.byte	0
 3611 02b6 33       		.uleb128 0x33
 3612 02b7 2E       		.uleb128 0x2e
 3613 02b8 00       		.byte	0
 3614 02b9 3F       		.uleb128 0x3f
 3615 02ba 19       		.uleb128 0x19
 3616 02bb 3C       		.uleb128 0x3c
 3617 02bc 19       		.uleb128 0x19
 3618 02bd 6E       		.uleb128 0x6e
 3619 02be 0E       		.uleb128 0xe
 3620 02bf 03       		.uleb128 0x3
 3621 02c0 0E       		.uleb128 0xe
 3622 02c1 3A       		.uleb128 0x3a
 3623 02c2 0B       		.uleb128 0xb
 3624 02c3 3B       		.uleb128 0x3b
 3625 02c4 0B       		.uleb128 0xb
 3626 02c5 00       		.byte	0
 3627 02c6 00       		.byte	0
 3628 02c7 34       		.uleb128 0x34
 3629 02c8 2E       		.uleb128 0x2e
 3630 02c9 00       		.byte	0
 3631 02ca 3F       		.uleb128 0x3f
 3632 02cb 19       		.uleb128 0x19
 3633 02cc 3C       		.uleb128 0x3c
 3634 02cd 19       		.uleb128 0x19
 3635 02ce 6E       		.uleb128 0x6e
 3636 02cf 0E       		.uleb128 0xe
 3637 02d0 03       		.uleb128 0x3
 3638 02d1 0E       		.uleb128 0xe
 3639 02d2 3A       		.uleb128 0x3a
 3640 02d3 0B       		.uleb128 0xb
 3641 02d4 3B       		.uleb128 0x3b
 3642 02d5 05       		.uleb128 0x5
 3643 02d6 00       		.byte	0
 3644 02d7 00       		.byte	0
 3645 02d8 00       		.byte	0
 3646              		.section	.debug_loc,"",%progbits
 3647              	.Ldebug_loc0:
 3648              	.LLST12:
ARM GAS  /var/folders/3j/4xdnk5197cv_b7cw3n33qk7r0000gn/T//ccrJgg3J.s 			page 65


 3649 0000 00000000 		.4byte	.LVL32
 3650 0004 34000000 		.4byte	.LVL36
 3651 0008 0100     		.2byte	0x1
 3652 000a 50       		.byte	0x50
 3653 000b 34000000 		.4byte	.LVL36
 3654 000f 37000000 		.4byte	.LVL37-1
 3655 0013 0100     		.2byte	0x1
 3656 0015 53       		.byte	0x53
 3657 0016 37000000 		.4byte	.LVL37-1
 3658 001a BC000000 		.4byte	.LVL43
 3659 001e 0100     		.2byte	0x1
 3660 0020 54       		.byte	0x54
 3661 0021 BC000000 		.4byte	.LVL43
 3662 0025 CC000000 		.4byte	.LFE13
 3663 0029 0400     		.2byte	0x4
 3664 002b F3       		.byte	0xf3
 3665 002c 01       		.uleb128 0x1
 3666 002d 50       		.byte	0x50
 3667 002e 9F       		.byte	0x9f
 3668 002f 00000000 		.4byte	0
 3669 0033 00000000 		.4byte	0
 3670              	.LLST13:
 3671 0037 00000000 		.4byte	.LVL32
 3672 003b 30000000 		.4byte	.LVL35
 3673 003f 0100     		.2byte	0x1
 3674 0041 51       		.byte	0x51
 3675 0042 30000000 		.4byte	.LVL35
 3676 0046 CC000000 		.4byte	.LFE13
 3677 004a 0400     		.2byte	0x4
 3678 004c F3       		.byte	0xf3
 3679 004d 01       		.uleb128 0x1
 3680 004e 51       		.byte	0x51
 3681 004f 9F       		.byte	0x9f
 3682 0050 00000000 		.4byte	0
 3683 0054 00000000 		.4byte	0
 3684              	.LLST14:
 3685 0058 00000000 		.4byte	.LVL32
 3686 005c 2C000000 		.4byte	.LVL34
 3687 0060 0100     		.2byte	0x1
 3688 0062 52       		.byte	0x52
 3689 0063 2C000000 		.4byte	.LVL34
 3690 0067 BC000000 		.4byte	.LVL43
 3691 006b 0100     		.2byte	0x1
 3692 006d 58       		.byte	0x58
 3693 006e BC000000 		.4byte	.LVL43
 3694 0072 CC000000 		.4byte	.LFE13
 3695 0076 0400     		.2byte	0x4
 3696 0078 F3       		.byte	0xf3
 3697 0079 01       		.uleb128 0x1
 3698 007a 52       		.byte	0x52
 3699 007b 9F       		.byte	0x9f
 3700 007c 00000000 		.4byte	0
 3701 0080 00000000 		.4byte	0
 3702              	.LLST15:
 3703 0084 00000000 		.4byte	.LVL32
 3704 0088 28000000 		.4byte	.LVL33
 3705 008c 0100     		.2byte	0x1
ARM GAS  /var/folders/3j/4xdnk5197cv_b7cw3n33qk7r0000gn/T//ccrJgg3J.s 			page 66


 3706 008e 53       		.byte	0x53
 3707 008f 28000000 		.4byte	.LVL33
 3708 0093 7C000000 		.4byte	.LVL39
 3709 0097 0100     		.2byte	0x1
 3710 0099 56       		.byte	0x56
 3711 009a 7C000000 		.4byte	.LVL39
 3712 009e 8B000000 		.4byte	.LVL41-1
 3713 00a2 0200     		.2byte	0x2
 3714 00a4 74       		.byte	0x74
 3715 00a5 38       		.sleb128 56
 3716 00a6 8B000000 		.4byte	.LVL41-1
 3717 00aa CC000000 		.4byte	.LFE13
 3718 00ae 0400     		.2byte	0x4
 3719 00b0 F3       		.byte	0xf3
 3720 00b1 01       		.uleb128 0x1
 3721 00b2 53       		.byte	0x53
 3722 00b3 9F       		.byte	0x9f
 3723 00b4 00000000 		.4byte	0
 3724 00b8 00000000 		.4byte	0
 3725              	.LLST16:
 3726 00bc 40000000 		.4byte	.LVL38
 3727 00c0 84000000 		.4byte	.LVL40
 3728 00c4 0100     		.2byte	0x1
 3729 00c6 53       		.byte	0x53
 3730 00c7 84000000 		.4byte	.LVL40
 3731 00cb 8B000000 		.4byte	.LVL41-1
 3732 00cf 0200     		.2byte	0x2
 3733 00d1 74       		.byte	0x74
 3734 00d2 0C       		.sleb128 12
 3735 00d3 00000000 		.4byte	0
 3736 00d7 00000000 		.4byte	0
 3737              	.LLST17:
 3738 00db 00000000 		.4byte	.LVL44
 3739 00df 3C000000 		.4byte	.LVL48
 3740 00e3 0100     		.2byte	0x1
 3741 00e5 50       		.byte	0x50
 3742 00e6 3C000000 		.4byte	.LVL48
 3743 00ea 3F000000 		.4byte	.LVL49-1
 3744 00ee 0100     		.2byte	0x1
 3745 00f0 53       		.byte	0x53
 3746 00f1 3F000000 		.4byte	.LVL49-1
 3747 00f5 30010000 		.4byte	.LVL61
 3748 00f9 0100     		.2byte	0x1
 3749 00fb 54       		.byte	0x54
 3750 00fc 30010000 		.4byte	.LVL61
 3751 0100 3C010000 		.4byte	.LFE12
 3752 0104 0400     		.2byte	0x4
 3753 0106 F3       		.byte	0xf3
 3754 0107 01       		.uleb128 0x1
 3755 0108 50       		.byte	0x50
 3756 0109 9F       		.byte	0x9f
 3757 010a 00000000 		.4byte	0
 3758 010e 00000000 		.4byte	0
 3759              	.LLST18:
 3760 0112 00000000 		.4byte	.LVL44
 3761 0116 38000000 		.4byte	.LVL47
 3762 011a 0100     		.2byte	0x1
ARM GAS  /var/folders/3j/4xdnk5197cv_b7cw3n33qk7r0000gn/T//ccrJgg3J.s 			page 67


 3763 011c 51       		.byte	0x51
 3764 011d 38000000 		.4byte	.LVL47
 3765 0121 3C010000 		.4byte	.LFE12
 3766 0125 0400     		.2byte	0x4
 3767 0127 F3       		.byte	0xf3
 3768 0128 01       		.uleb128 0x1
 3769 0129 51       		.byte	0x51
 3770 012a 9F       		.byte	0x9f
 3771 012b 00000000 		.4byte	0
 3772 012f 00000000 		.4byte	0
 3773              	.LLST19:
 3774 0133 00000000 		.4byte	.LVL44
 3775 0137 34000000 		.4byte	.LVL46
 3776 013b 0100     		.2byte	0x1
 3777 013d 52       		.byte	0x52
 3778 013e 34000000 		.4byte	.LVL46
 3779 0142 30010000 		.4byte	.LVL61
 3780 0146 0100     		.2byte	0x1
 3781 0148 5A       		.byte	0x5a
 3782 0149 30010000 		.4byte	.LVL61
 3783 014d 3C010000 		.4byte	.LFE12
 3784 0151 0400     		.2byte	0x4
 3785 0153 F3       		.byte	0xf3
 3786 0154 01       		.uleb128 0x1
 3787 0155 52       		.byte	0x52
 3788 0156 9F       		.byte	0x9f
 3789 0157 00000000 		.4byte	0
 3790 015b 00000000 		.4byte	0
 3791              	.LLST20:
 3792 015f 00000000 		.4byte	.LVL44
 3793 0163 30000000 		.4byte	.LVL45
 3794 0167 0100     		.2byte	0x1
 3795 0169 53       		.byte	0x53
 3796 016a 30000000 		.4byte	.LVL45
 3797 016e 8C000000 		.4byte	.LVL51
 3798 0172 0100     		.2byte	0x1
 3799 0174 59       		.byte	0x59
 3800 0175 8C000000 		.4byte	.LVL51
 3801 0179 9B000000 		.4byte	.LVL53-1
 3802 017d 0200     		.2byte	0x2
 3803 017f 74       		.byte	0x74
 3804 0180 2C       		.sleb128 44
 3805 0181 9B000000 		.4byte	.LVL53-1
 3806 0185 3C010000 		.4byte	.LFE12
 3807 0189 0400     		.2byte	0x4
 3808 018b F3       		.byte	0xf3
 3809 018c 01       		.uleb128 0x1
 3810 018d 53       		.byte	0x53
 3811 018e 9F       		.byte	0x9f
 3812 018f 00000000 		.4byte	0
 3813 0193 00000000 		.4byte	0
 3814              	.LLST21:
 3815 0197 48000000 		.4byte	.LVL50
 3816 019b 94000000 		.4byte	.LVL52
 3817 019f 0100     		.2byte	0x1
 3818 01a1 53       		.byte	0x53
 3819 01a2 94000000 		.4byte	.LVL52
ARM GAS  /var/folders/3j/4xdnk5197cv_b7cw3n33qk7r0000gn/T//ccrJgg3J.s 			page 68


 3820 01a6 9B000000 		.4byte	.LVL53-1
 3821 01aa 0200     		.2byte	0x2
 3822 01ac 74       		.byte	0x74
 3823 01ad 0C       		.sleb128 12
 3824 01ae 00000000 		.4byte	0
 3825 01b2 00000000 		.4byte	0
 3826              	.LLST22:
 3827 01b6 C8000000 		.4byte	.LVL55
 3828 01ba 0C010000 		.4byte	.LVL58
 3829 01be 0100     		.2byte	0x1
 3830 01c0 59       		.byte	0x59
 3831 01c1 0C010000 		.4byte	.LVL58
 3832 01c5 20010000 		.4byte	.LVL59
 3833 01c9 0100     		.2byte	0x1
 3834 01cb 50       		.byte	0x50
 3835 01cc 20010000 		.4byte	.LVL59
 3836 01d0 30010000 		.4byte	.LVL61
 3837 01d4 0100     		.2byte	0x1
 3838 01d6 59       		.byte	0x59
 3839 01d7 30010000 		.4byte	.LVL61
 3840 01db 3C010000 		.4byte	.LFE12
 3841 01df 0100     		.2byte	0x1
 3842 01e1 50       		.byte	0x50
 3843 01e2 00000000 		.4byte	0
 3844 01e6 00000000 		.4byte	0
 3845              	.LLST11:
 3846 01ea 00000000 		.4byte	.LVL28
 3847 01ee 10000000 		.4byte	.LVL29
 3848 01f2 0100     		.2byte	0x1
 3849 01f4 50       		.byte	0x50
 3850 01f5 10000000 		.4byte	.LVL29
 3851 01f9 34000000 		.4byte	.LFE11
 3852 01fd 0100     		.2byte	0x1
 3853 01ff 54       		.byte	0x54
 3854 0200 00000000 		.4byte	0
 3855 0204 00000000 		.4byte	0
 3856              	.LLST9:
 3857 0208 00000000 		.4byte	.LVL21
 3858 020c 10000000 		.4byte	.LVL22
 3859 0210 0100     		.2byte	0x1
 3860 0212 50       		.byte	0x50
 3861 0213 10000000 		.4byte	.LVL22
 3862 0217 68000000 		.4byte	.LFE10
 3863 021b 0100     		.2byte	0x1
 3864 021d 54       		.byte	0x54
 3865 021e 00000000 		.4byte	0
 3866 0222 00000000 		.4byte	0
 3867              	.LLST10:
 3868 0226 2C000000 		.4byte	.LVL25
 3869 022a 3F000000 		.4byte	.LVL26-1
 3870 022e 0100     		.2byte	0x1
 3871 0230 51       		.byte	0x51
 3872 0231 58000000 		.4byte	.LVL27
 3873 0235 68000000 		.4byte	.LFE10
 3874 0239 0100     		.2byte	0x1
 3875 023b 51       		.byte	0x51
 3876 023c 00000000 		.4byte	0
ARM GAS  /var/folders/3j/4xdnk5197cv_b7cw3n33qk7r0000gn/T//ccrJgg3J.s 			page 69


 3877 0240 00000000 		.4byte	0
 3878              	.LLST4:
 3879 0244 00000000 		.4byte	.LVL5
 3880 0248 2C000000 		.4byte	.LVL11
 3881 024c 0100     		.2byte	0x1
 3882 024e 50       		.byte	0x50
 3883 024f 2C000000 		.4byte	.LVL11
 3884 0253 34000000 		.4byte	.LVL12
 3885 0257 0400     		.2byte	0x4
 3886 0259 F3       		.byte	0xf3
 3887 025a 01       		.uleb128 0x1
 3888 025b 50       		.byte	0x50
 3889 025c 9F       		.byte	0x9f
 3890 025d 34000000 		.4byte	.LVL12
 3891 0261 A4000000 		.4byte	.LVL15
 3892 0265 0100     		.2byte	0x1
 3893 0267 50       		.byte	0x50
 3894 0268 A4000000 		.4byte	.LVL15
 3895 026c AC000000 		.4byte	.LVL16
 3896 0270 0400     		.2byte	0x4
 3897 0272 F3       		.byte	0xf3
 3898 0273 01       		.uleb128 0x1
 3899 0274 50       		.byte	0x50
 3900 0275 9F       		.byte	0x9f
 3901 0276 AC000000 		.4byte	.LVL16
 3902 027a 4C010000 		.4byte	.LFE8
 3903 027e 0100     		.2byte	0x1
 3904 0280 50       		.byte	0x50
 3905 0281 00000000 		.4byte	0
 3906 0285 00000000 		.4byte	0
 3907              	.LLST5:
 3908 0289 04000000 		.4byte	.LVL6
 3909 028d 24000000 		.4byte	.LVL10
 3910 0291 0100     		.2byte	0x1
 3911 0293 52       		.byte	0x52
 3912 0294 24000000 		.4byte	.LVL10
 3913 0298 2C000000 		.4byte	.LVL11
 3914 029c 0200     		.2byte	0x2
 3915 029e 70       		.byte	0x70
 3916 029f 0C       		.sleb128 12
 3917 02a0 2C000000 		.4byte	.LVL11
 3918 02a4 33000000 		.4byte	.LVL12-1
 3919 02a8 0500     		.2byte	0x5
 3920 02aa F3       		.byte	0xf3
 3921 02ab 01       		.uleb128 0x1
 3922 02ac 50       		.byte	0x50
 3923 02ad 23       		.byte	0x23
 3924 02ae 0C       		.uleb128 0xc
 3925 02af 34000000 		.4byte	.LVL12
 3926 02b3 AB000000 		.4byte	.LVL16-1
 3927 02b7 0100     		.2byte	0x1
 3928 02b9 52       		.byte	0x52
 3929 02ba AC000000 		.4byte	.LVL16
 3930 02be 4C010000 		.4byte	.LFE8
 3931 02c2 0100     		.2byte	0x1
 3932 02c4 52       		.byte	0x52
 3933 02c5 00000000 		.4byte	0
ARM GAS  /var/folders/3j/4xdnk5197cv_b7cw3n33qk7r0000gn/T//ccrJgg3J.s 			page 70


 3934 02c9 00000000 		.4byte	0
 3935              	.LLST6:
 3936 02cd 08000000 		.4byte	.LVL7
 3937 02d1 20000000 		.4byte	.LVL9
 3938 02d5 0100     		.2byte	0x1
 3939 02d7 51       		.byte	0x51
 3940 02d8 34000000 		.4byte	.LVL12
 3941 02dc 50000000 		.4byte	.LVL13
 3942 02e0 0100     		.2byte	0x1
 3943 02e2 51       		.byte	0x51
 3944 02e3 AC000000 		.4byte	.LVL16
 3945 02e7 E4000000 		.4byte	.LVL17
 3946 02eb 0100     		.2byte	0x1
 3947 02ed 51       		.byte	0x51
 3948 02ee 00010000 		.4byte	.LVL18
 3949 02f2 20010000 		.4byte	.LVL19
 3950 02f6 0100     		.2byte	0x1
 3951 02f8 51       		.byte	0x51
 3952 02f9 00000000 		.4byte	0
 3953 02fd 00000000 		.4byte	0
 3954              	.LLST7:
 3955 0301 1C000000 		.4byte	.LVL8
 3956 0305 33000000 		.4byte	.LVL12-1
 3957 0309 0100     		.2byte	0x1
 3958 030b 53       		.byte	0x53
 3959 030c 00000000 		.4byte	0
 3960 0310 00000000 		.4byte	0
 3961              	.LLST8:
 3962 0314 98000000 		.4byte	.LVL14
 3963 0318 AB000000 		.4byte	.LVL16-1
 3964 031c 0100     		.2byte	0x1
 3965 031e 53       		.byte	0x53
 3966 031f 00000000 		.4byte	0
 3967 0323 00000000 		.4byte	0
 3968              	.LLST0:
 3969 0327 00000000 		.4byte	.LVL0
 3970 032b 18000000 		.4byte	.LVL2
 3971 032f 0100     		.2byte	0x1
 3972 0331 50       		.byte	0x50
 3973 0332 18000000 		.4byte	.LVL2
 3974 0336 6F000000 		.4byte	.LVL4-1
 3975 033a 0100     		.2byte	0x1
 3976 033c 53       		.byte	0x53
 3977 033d 6F000000 		.4byte	.LVL4-1
 3978 0341 74000000 		.4byte	.LFE7
 3979 0345 0400     		.2byte	0x4
 3980 0347 F3       		.byte	0xf3
 3981 0348 01       		.uleb128 0x1
 3982 0349 50       		.byte	0x50
 3983 034a 9F       		.byte	0x9f
 3984 034b 00000000 		.4byte	0
 3985 034f 00000000 		.4byte	0
 3986              	.LLST1:
 3987 0353 00000000 		.4byte	.LVL0
 3988 0357 18000000 		.4byte	.LVL2
 3989 035b 0100     		.2byte	0x1
 3990 035d 50       		.byte	0x50
ARM GAS  /var/folders/3j/4xdnk5197cv_b7cw3n33qk7r0000gn/T//ccrJgg3J.s 			page 71


 3991 035e 18000000 		.4byte	.LVL2
 3992 0362 6F000000 		.4byte	.LVL4-1
 3993 0366 0100     		.2byte	0x1
 3994 0368 53       		.byte	0x53
 3995 0369 6F000000 		.4byte	.LVL4-1
 3996 036d 74000000 		.4byte	.LFE7
 3997 0371 0400     		.2byte	0x4
 3998 0373 F3       		.byte	0xf3
 3999 0374 01       		.uleb128 0x1
 4000 0375 50       		.byte	0x50
 4001 0376 9F       		.byte	0x9f
 4002 0377 00000000 		.4byte	0
 4003 037b 00000000 		.4byte	0
 4004              	.LLST2:
 4005 037f 14000000 		.4byte	.LVL1
 4006 0383 6F000000 		.4byte	.LVL4-1
 4007 0387 0100     		.2byte	0x1
 4008 0389 52       		.byte	0x52
 4009 038a 00000000 		.4byte	0
 4010 038e 00000000 		.4byte	0
 4011              	.LLST3:
 4012 0392 5C000000 		.4byte	.LVL3
 4013 0396 6F000000 		.4byte	.LVL4-1
 4014 039a 0100     		.2byte	0x1
 4015 039c 51       		.byte	0x51
 4016 039d 00000000 		.4byte	0
 4017 03a1 00000000 		.4byte	0
 4018              		.section	.debug_aranges,"",%progbits
 4019 0000 4C000000 		.4byte	0x4c
 4020 0004 0200     		.2byte	0x2
 4021 0006 00000000 		.4byte	.Ldebug_info0
 4022 000a 04       		.byte	0x4
 4023 000b 00       		.byte	0
 4024 000c 0000     		.2byte	0
 4025 000e 0000     		.2byte	0
 4026 0010 00000000 		.4byte	.LFB7
 4027 0014 74000000 		.4byte	.LFE7-.LFB7
 4028 0018 00000000 		.4byte	.LFB8
 4029 001c 4C010000 		.4byte	.LFE8-.LFB8
 4030 0020 00000000 		.4byte	.LFB9
 4031 0024 1C000000 		.4byte	.LFE9-.LFB9
 4032 0028 00000000 		.4byte	.LFB10
 4033 002c 68000000 		.4byte	.LFE10-.LFB10
 4034 0030 00000000 		.4byte	.LFB11
 4035 0034 34000000 		.4byte	.LFE11-.LFB11
 4036 0038 00000000 		.4byte	.LFB13
 4037 003c CC000000 		.4byte	.LFE13-.LFB13
 4038 0040 00000000 		.4byte	.LFB12
 4039 0044 3C010000 		.4byte	.LFE12-.LFB12
 4040 0048 00000000 		.4byte	0
 4041 004c 00000000 		.4byte	0
 4042              		.section	.debug_ranges,"",%progbits
 4043              	.Ldebug_ranges0:
 4044 0000 10000000 		.4byte	.LBB2
 4045 0004 18000000 		.4byte	.LBE2
 4046 0008 1C000000 		.4byte	.LBB3
 4047 000c 68000000 		.4byte	.LBE3
ARM GAS  /var/folders/3j/4xdnk5197cv_b7cw3n33qk7r0000gn/T//ccrJgg3J.s 			page 72


 4048 0010 6C000000 		.4byte	.LBB4
 4049 0014 74000000 		.4byte	.LBE4
 4050 0018 00000000 		.4byte	0
 4051 001c 00000000 		.4byte	0
 4052 0020 98000000 		.4byte	.LBB6
 4053 0024 9C000000 		.4byte	.LBE6
 4054 0028 A0000000 		.4byte	.LBB7
 4055 002c AC000000 		.4byte	.LBE7
 4056 0030 00000000 		.4byte	0
 4057 0034 00000000 		.4byte	0
 4058 0038 00000000 		.4byte	.LFB7
 4059 003c 74000000 		.4byte	.LFE7
 4060 0040 00000000 		.4byte	.LFB8
 4061 0044 4C010000 		.4byte	.LFE8
 4062 0048 00000000 		.4byte	.LFB9
 4063 004c 1C000000 		.4byte	.LFE9
 4064 0050 00000000 		.4byte	.LFB10
 4065 0054 68000000 		.4byte	.LFE10
 4066 0058 00000000 		.4byte	.LFB11
 4067 005c 34000000 		.4byte	.LFE11
 4068 0060 00000000 		.4byte	.LFB13
 4069 0064 CC000000 		.4byte	.LFE13
 4070 0068 00000000 		.4byte	.LFB12
 4071 006c 3C010000 		.4byte	.LFE12
 4072 0070 00000000 		.4byte	0
 4073 0074 00000000 		.4byte	0
 4074              		.section	.debug_line,"",%progbits
 4075              	.Ldebug_line0:
 4076 0000 BB030000 		.section	.debug_str,"MS",%progbits,1
 4076      02007702 
 4076      00000201 
 4076      FB0E0D00 
 4076      01010101 
 4077              	.LASF96:
 4078 0000 63665F6F 		.ascii	"cf_off_older\000"
 4078      66665F6F 
 4078      6C646572 
 4078      00
 4079              	.LASF42:
 4080 000d 705F6D73 		.ascii	"p_msg\000"
 4080      6700
 4081              	.LASF2:
 4082 0013 73697A65 		.ascii	"size_t\000"
 4082      5F7400
 4083              	.LASF81:
 4084 001a 7264796D 		.ascii	"rdymsg\000"
 4084      736700
 4085              	.LASF174:
 4086 0021 77726974 		.ascii	"write\000"
 4086      6500
 4087              	.LASF117:
 4088 0027 4F757470 		.ascii	"OutputQueue\000"
 4088      75745175 
 4088      65756500 
 4089              	.LASF3:
 4090 0033 5F5F7569 		.ascii	"__uint8_t\000"
 4090      6E74385F 
ARM GAS  /var/folders/3j/4xdnk5197cv_b7cw3n33qk7r0000gn/T//ccrJgg3J.s 			page 73


 4090      7400
 4091              	.LASF183:
 4092 003d 5350495F 		.ascii	"SPI_ACTIVE\000"
 4092      41435449 
 4092      564500
 4093              	.LASF68:
 4094 0048 76746C69 		.ascii	"vtlist\000"
 4094      737400
 4095              	.LASF119:
 4096 004f 62736364 		.ascii	"bscdevice_t\000"
 4096      65766963 
 4096      655F7400 
 4097              	.LASF157:
 4098 005b 72786275 		.ascii	"rxbuf\000"
 4098      6600
 4099              	.LASF110:
 4100 0061 715F746F 		.ascii	"q_top\000"
 4100      7000
 4101              	.LASF13:
 4102 0067 6C6F6E67 		.ascii	"long long unsigned int\000"
 4102      206C6F6E 
 4102      6720756E 
 4102      7369676E 
 4102      65642069 
 4103              	.LASF92:
 4104 007e 63685F74 		.ascii	"ch_threadsize\000"
 4104      68726561 
 4104      6473697A 
 4104      6500
 4105              	.LASF82:
 4106 008c 65786974 		.ascii	"exitcode\000"
 4106      636F6465 
 4106      00
 4107              	.LASF186:
 4108 0095 53504944 		.ascii	"SPIDriver\000"
 4108      72697665 
 4108      7200
 4109              	.LASF200:
 4110 009f 69326370 		.ascii	"i2cp\000"
 4110      00
 4111              	.LASF124:
 4112 00a4 64617461 		.ascii	"dataFifo\000"
 4112      4669666F 
 4112      00
 4113              	.LASF30:
 4114 00ad 705F7072 		.ascii	"p_prio\000"
 4114      696F00
 4115              	.LASF99:
 4116 00b4 63665F6F 		.ascii	"cf_off_state\000"
 4116      66665F73 
 4116      74617465 
 4116      00
 4117              	.LASF179:
 4118 00c1 72656164 		.ascii	"readt\000"
 4118      7400
 4119              	.LASF150:
 4120 00c7 64657669 		.ascii	"device\000"
ARM GAS  /var/folders/3j/4xdnk5197cv_b7cw3n33qk7r0000gn/T//ccrJgg3J.s 			page 74


 4120      636500
 4121              	.LASF107:
 4122 00ce 715F7761 		.ascii	"q_waiting\000"
 4122      6974696E 
 4122      6700
 4123              	.LASF12:
 4124 00d8 6C6F6E67 		.ascii	"long long int\000"
 4124      206C6F6E 
 4124      6720696E 
 4124      7400
 4125              	.LASF1:
 4126 00e6 7369676E 		.ascii	"signed char\000"
 4126      65642063 
 4126      68617200 
 4127              	.LASF98:
 4128 00f2 63665F6F 		.ascii	"cf_off_stklimit\000"
 4128      66665F73 
 4128      746B6C69 
 4128      6D697400 
 4129              	.LASF181:
 4130 0102 5350495F 		.ascii	"SPI_STOP\000"
 4130      53544F50 
 4130      00
 4131              	.LASF100:
 4132 010b 63665F6F 		.ascii	"cf_off_flags\000"
 4132      66665F66 
 4132      6C616773 
 4132      00
 4133              	.LASF166:
 4134 0118 53445F53 		.ascii	"SD_STOP\000"
 4134      544F5000 
 4135              	.LASF71:
 4136 0120 6D5F7175 		.ascii	"m_queue\000"
 4136      65756500 
 4137              	.LASF202:
 4138 0128 6932635F 		.ascii	"i2c_lld_master_receive_timeout\000"
 4138      6C6C645F 
 4138      6D617374 
 4138      65725F72 
 4138      65636569 
 4139              	.LASF208:
 4140 0147 6932635F 		.ascii	"i2c_lld_serve_interrupt\000"
 4140      6C6C645F 
 4140      73657276 
 4140      655F696E 
 4140      74657272 
 4141              	.LASF153:
 4142 015f 61646472 		.ascii	"addr\000"
 4142      00
 4143              	.LASF203:
 4144 0164 6932635F 		.ascii	"i2c_lld_master_transmit_timeout\000"
 4144      6C6C645F 
 4144      6D617374 
 4144      65725F74 
 4144      72616E73 
 4145              	.LASF215:
 4146 0184 474E5520 		.ascii	"GNU C11 7.3.1 20180622 (release) [ARM/embedded-7-br"
ARM GAS  /var/folders/3j/4xdnk5197cv_b7cw3n33qk7r0000gn/T//ccrJgg3J.s 			page 75


 4146      43313120 
 4146      372E332E 
 4146      31203230 
 4146      31383036 
 4147 01b7 616E6368 		.ascii	"anch revision 261907] -mcpu=arm1176jz-s -mno-thumb-"
 4147      20726576 
 4147      6973696F 
 4147      6E203236 
 4147      31393037 
 4148 01ea 696E7465 		.ascii	"interwork -ggdb -O2 -fomit-frame-pointer -ffunction"
 4148      72776F72 
 4148      6B202D67 
 4148      67646220 
 4148      2D4F3220 
 4149 021d 2D736563 		.ascii	"-sections -fdata-sections\000"
 4149      74696F6E 
 4149      73202D66 
 4149      64617461 
 4149      2D736563 
 4150              	.LASF139:
 4151 0237 4932435F 		.ascii	"I2C_UNINIT\000"
 4151      554E494E 
 4151      495400
 4152              	.LASF161:
 4153 0242 69326361 		.ascii	"i2caddr_t\000"
 4153      6464725F 
 4153      7400
 4154              	.LASF147:
 4155 024c 73746174 		.ascii	"state\000"
 4155      6500
 4156              	.LASF9:
 4157 0252 6C6F6E67 		.ascii	"long int\000"
 4157      20696E74 
 4157      00
 4158              	.LASF211:
 4159 025b 63685654 		.ascii	"chVTResetI\000"
 4159      52657365 
 4159      744900
 4160              	.LASF19:
 4161 0266 74737461 		.ascii	"tstate_t\000"
 4161      74655F74 
 4161      00
 4162              	.LASF152:
 4163 026f 74687265 		.ascii	"thread\000"
 4163      616400
 4164              	.LASF126:
 4165 0276 64617461 		.ascii	"dataDelay\000"
 4165      44656C61 
 4165      7900
 4166              	.LASF159:
 4167 0280 72786964 		.ascii	"rxidx\000"
 4167      7800
 4168              	.LASF109:
 4169 0286 715F6275 		.ascii	"q_buffer\000"
 4169      66666572 
 4169      00
 4170              	.LASF15:
ARM GAS  /var/folders/3j/4xdnk5197cv_b7cw3n33qk7r0000gn/T//ccrJgg3J.s 			page 76


 4171 028f 75696E74 		.ascii	"uint16_t\000"
 4171      31365F74 
 4171      00
 4172              	.LASF199:
 4173 0298 53504930 		.ascii	"SPI0\000"
 4173      00
 4174              	.LASF104:
 4175 029d 63686465 		.ascii	"chdebug_t\000"
 4175      6275675F 
 4175      7400
 4176              	.LASF142:
 4177 02a7 4932435F 		.ascii	"I2C_ACTIVE_TX\000"
 4177      41435449 
 4177      56455F54 
 4177      5800
 4178              	.LASF196:
 4179 02b5 636C6F63 		.ascii	"clock_phase\000"
 4179      6B5F7068 
 4179      61736500 
 4180              	.LASF32:
 4181 02c1 705F6E65 		.ascii	"p_newer\000"
 4181      77657200 
 4182              	.LASF118:
 4183 02c9 5F69646C 		.ascii	"_idle_thread_wa\000"
 4183      655F7468 
 4183      72656164 
 4183      5F776100 
 4184              	.LASF189:
 4185 02d9 656E645F 		.ascii	"end_cb\000"
 4185      636200
 4186              	.LASF187:
 4187 02e0 7478636E 		.ascii	"txcnt\000"
 4187      7400
 4188              	.LASF193:
 4189 02e6 63686970 		.ascii	"chip_select_polarity0\000"
 4189      5F73656C 
 4189      6563745F 
 4189      706F6C61 
 4189      72697479 
 4190              	.LASF194:
 4191 02fc 63686970 		.ascii	"chip_select_polarity1\000"
 4191      5F73656C 
 4191      6563745F 
 4191      706F6C61 
 4191      72697479 
 4192              	.LASF120:
 4193 0312 636F6E74 		.ascii	"control\000"
 4193      726F6C00 
 4194              	.LASF10:
 4195 031a 5F5F7569 		.ascii	"__uint32_t\000"
 4195      6E743332 
 4195      5F7400
 4196              	.LASF49:
 4197 0325 72656761 		.ascii	"regarm_t\000"
 4197      726D5F74 
 4197      00
 4198              	.LASF55:
ARM GAS  /var/folders/3j/4xdnk5197cv_b7cw3n33qk7r0000gn/T//ccrJgg3J.s 			page 77


 4199 032e 76745F70 		.ascii	"vt_prev\000"
 4199      72657600 
 4200              	.LASF123:
 4201 0336 736C6176 		.ascii	"slaveAddress\000"
 4201      65416464 
 4201      72657373 
 4201      00
 4202              	.LASF188:
 4203 0343 73706963 		.ascii	"spicallback_t\000"
 4203      616C6C62 
 4203      61636B5F 
 4203      7400
 4204              	.LASF164:
 4205 0351 49324330 		.ascii	"I2C0\000"
 4205      00
 4206              	.LASF79:
 4207 0356 4576656E 		.ascii	"EventSource\000"
 4207      74536F75 
 4207      72636500 
 4208              	.LASF0:
 4209 0362 756E7369 		.ascii	"unsigned int\000"
 4209      676E6564 
 4209      20696E74 
 4209      00
 4210              	.LASF54:
 4211 036f 76745F6E 		.ascii	"vt_next\000"
 4211      65787400 
 4212              	.LASF154:
 4213 0377 74786275 		.ascii	"txbuf\000"
 4213      6600
 4214              	.LASF173:
 4215 037d 53657269 		.ascii	"SerialDriverVMT\000"
 4215      616C4472 
 4215      69766572 
 4215      564D5400 
 4216              	.LASF149:
 4217 038d 6572726F 		.ascii	"errors\000"
 4217      727300
 4218              	.LASF171:
 4219 0394 69717565 		.ascii	"iqueue\000"
 4219      756500
 4220              	.LASF11:
 4221 039b 6C6F6E67 		.ascii	"long unsigned int\000"
 4221      20756E73 
 4221      69676E65 
 4221      6420696E 
 4221      7400
 4222              	.LASF105:
 4223 03ad 63685F64 		.ascii	"ch_debug\000"
 4223      65627567 
 4223      00
 4224              	.LASF201:
 4225 03b6 74696D65 		.ascii	"timeout\000"
 4225      6F757400 
 4226              	.LASF177:
 4227 03be 67657474 		.ascii	"gett\000"
 4227      00
ARM GAS  /var/folders/3j/4xdnk5197cv_b7cw3n33qk7r0000gn/T//ccrJgg3J.s 			page 78


 4228              	.LASF52:
 4229 03c3 76746675 		.ascii	"vtfunc_t\000"
 4229      6E635F74 
 4229      00
 4230              	.LASF86:
 4231 03cc 63685F69 		.ascii	"ch_identifier\000"
 4231      64656E74 
 4231      69666965 
 4231      7200
 4232              	.LASF192:
 4233 03da 63686970 		.ascii	"chip_select_polarity\000"
 4233      5F73656C 
 4233      6563745F 
 4233      706F6C61 
 4233      72697479 
 4234              	.LASF170:
 4235 03ef 6576656E 		.ascii	"event\000"
 4235      7400
 4236              	.LASF51:
 4237 03f5 636F6E74 		.ascii	"context\000"
 4237      65787400 
 4238              	.LASF7:
 4239 03fd 73686F72 		.ascii	"short unsigned int\000"
 4239      7420756E 
 4239      7369676E 
 4239      65642069 
 4239      6E7400
 4240              	.LASF134:
 4241 0410 6770696F 		.ascii	"gpio_port_t\000"
 4241      5F706F72 
 4241      745F7400 
 4242              	.LASF130:
 4243 041c 6770636C 		.ascii	"gpclr\000"
 4243      7200
 4244              	.LASF23:
 4245 0422 6D73675F 		.ascii	"msg_t\000"
 4245      7400
 4246              	.LASF172:
 4247 0428 6F717565 		.ascii	"oqueue\000"
 4247      756500
 4248              	.LASF64:
 4249 042f 725F6E65 		.ascii	"r_newer\000"
 4249      77657200 
 4250              	.LASF75:
 4251 0437 656C5F6E 		.ascii	"el_next\000"
 4251      65787400 
 4252              	.LASF178:
 4253 043f 77726974 		.ascii	"writet\000"
 4253      657400
 4254              	.LASF18:
 4255 0446 746D6F64 		.ascii	"tmode_t\000"
 4255      655F7400 
 4256              	.LASF47:
 4257 044e 54687265 		.ascii	"ThreadsList\000"
 4257      6164734C 
 4257      69737400 
 4258              	.LASF24:
ARM GAS  /var/folders/3j/4xdnk5197cv_b7cw3n33qk7r0000gn/T//ccrJgg3J.s 			page 79


 4259 045a 6576656E 		.ascii	"eventmask_t\000"
 4259      746D6173 
 4259      6B5F7400 
 4260              	.LASF116:
 4261 0466 496E7075 		.ascii	"InputQueue\000"
 4261      74517565 
 4261      756500
 4262              	.LASF70:
 4263 0471 4D757465 		.ascii	"Mutex\000"
 4263      7800
 4264              	.LASF143:
 4265 0477 4932435F 		.ascii	"I2C_ACTIVE_RX\000"
 4265      41435449 
 4265      56455F52 
 4265      5800
 4266              	.LASF106:
 4267 0485 47656E65 		.ascii	"GenericQueue\000"
 4267      72696351 
 4267      75657565 
 4267      00
 4268              	.LASF48:
 4269 0492 73746B61 		.ascii	"stkalign_t\000"
 4269      6C69676E 
 4269      5F7400
 4270              	.LASF204:
 4271 049d 6932635F 		.ascii	"i2c_lld_stop\000"
 4271      6C6C645F 
 4271      73746F70 
 4271      00
 4272              	.LASF87:
 4273 04aa 63685F7A 		.ascii	"ch_zero\000"
 4273      65726F00 
 4274              	.LASF101:
 4275 04b2 63665F6F 		.ascii	"cf_off_refs\000"
 4275      66665F72 
 4275      65667300 
 4276              	.LASF131:
 4277 04be 67706C65 		.ascii	"gplev\000"
 4277      7600
 4278              	.LASF176:
 4279 04c4 70757474 		.ascii	"putt\000"
 4279      00
 4280              	.LASF56:
 4281 04c9 76745F74 		.ascii	"vt_time\000"
 4281      696D6500 
 4282              	.LASF140:
 4283 04d1 4932435F 		.ascii	"I2C_STOP\000"
 4283      53544F50 
 4283      00
 4284              	.LASF125:
 4285 04da 636C6F63 		.ascii	"clockDivider\000"
 4285      6B446976 
 4285      69646572 
 4285      00
 4286              	.LASF108:
 4287 04e7 715F636F 		.ascii	"q_counter\000"
 4287      756E7465 
ARM GAS  /var/folders/3j/4xdnk5197cv_b7cw3n33qk7r0000gn/T//ccrJgg3J.s 			page 80


 4287      7200
 4288              	.LASF57:
 4289 04f1 76745F66 		.ascii	"vt_func\000"
 4289      756E6300 
 4290              	.LASF91:
 4291 04f9 63685F74 		.ascii	"ch_timesize\000"
 4291      696D6573 
 4291      697A6500 
 4292              	.LASF162:
 4293 0505 69635F73 		.ascii	"ic_speed\000"
 4293      70656564 
 4293      00
 4294              	.LASF97:
 4295 050e 63665F6F 		.ascii	"cf_off_name\000"
 4295      66665F6E 
 4295      616D6500 
 4296              	.LASF209:
 4297 051a 63685654 		.ascii	"chVTSetI\000"
 4297      53657449 
 4297      00
 4298              	.LASF33:
 4299 0523 705F6F6C 		.ascii	"p_older\000"
 4299      64657200 
 4300              	.LASF158:
 4301 052b 72786279 		.ascii	"rxbytes\000"
 4301      74657300 
 4302              	.LASF111:
 4303 0533 715F7772 		.ascii	"q_wrptr\000"
 4303      70747200 
 4304              	.LASF63:
 4305 053b 725F6374 		.ascii	"r_ctx\000"
 4305      7800
 4306              	.LASF46:
 4307 0541 54687265 		.ascii	"ThreadsQueue\000"
 4307      61647351 
 4307      75657565 
 4307      00
 4308              	.LASF88:
 4309 054e 63685F73 		.ascii	"ch_size\000"
 4309      697A6500 
 4310              	.LASF136:
 4311 0556 494F504F 		.ascii	"IOPORT0\000"
 4311      52543000 
 4312              	.LASF66:
 4313 055e 725F6375 		.ascii	"r_current\000"
 4313      7272656E 
 4313      7400
 4314              	.LASF65:
 4315 0568 725F6F6C 		.ascii	"r_older\000"
 4315      64657200 
 4316              	.LASF77:
 4317 0570 656C5F6D 		.ascii	"el_mask\000"
 4317      61736B00 
 4318              	.LASF129:
 4319 0578 67707365 		.ascii	"gpset\000"
 4319      7400
 4320              	.LASF132:
ARM GAS  /var/folders/3j/4xdnk5197cv_b7cw3n33qk7r0000gn/T//ccrJgg3J.s 			page 81


 4321 057e 67707075 		.ascii	"gppudclk\000"
 4321      64636C6B 
 4321      00
 4322              	.LASF190:
 4323 0587 6C6F7373 		.ascii	"lossiEnabled\000"
 4323      69456E61 
 4323      626C6564 
 4323      00
 4324              	.LASF212:
 4325 0594 62636D32 		.ascii	"bcm2835_gpio_fnsel\000"
 4325      3833355F 
 4325      6770696F 
 4325      5F666E73 
 4325      656C00
 4326              	.LASF191:
 4327 05a7 63686970 		.ascii	"chip_select\000"
 4327      5F73656C 
 4327      65637400 
 4328              	.LASF20:
 4329 05b3 74726566 		.ascii	"trefs_t\000"
 4329      735F7400 
 4330              	.LASF145:
 4331 05bb 69326373 		.ascii	"i2cstate_t\000"
 4331      74617465 
 4331      5F7400
 4332              	.LASF90:
 4333 05c6 63685F70 		.ascii	"ch_ptrsize\000"
 4333      74727369 
 4333      7A6500
 4334              	.LASF115:
 4335 05d1 716E6F74 		.ascii	"qnotify_t\000"
 4335      6966795F 
 4335      7400
 4336              	.LASF29:
 4337 05db 705F7072 		.ascii	"p_prev\000"
 4337      657600
 4338              	.LASF22:
 4339 05e2 74707269 		.ascii	"tprio_t\000"
 4339      6F5F7400 
 4340              	.LASF112:
 4341 05ea 715F7264 		.ascii	"q_rdptr\000"
 4341      70747200 
 4342              	.LASF160:
 4343 05f2 69326366 		.ascii	"i2cflags_t\000"
 4343      6C616773 
 4343      5F7400
 4344              	.LASF151:
 4345 05fd 6D757465 		.ascii	"mutex\000"
 4345      7800
 4346              	.LASF205:
 4347 0603 6932635F 		.ascii	"i2c_lld_start\000"
 4347      6C6C645F 
 4347      73746172 
 4347      7400
 4348              	.LASF16:
 4349 0611 696E7433 		.ascii	"int32_t\000"
 4349      325F7400 
ARM GAS  /var/folders/3j/4xdnk5197cv_b7cw3n33qk7r0000gn/T//ccrJgg3J.s 			page 82


 4350              	.LASF4:
 4351 0619 756E7369 		.ascii	"unsigned char\000"
 4351      676E6564 
 4351      20636861 
 4351      7200
 4352              	.LASF76:
 4353 0627 656C5F6C 		.ascii	"el_listener\000"
 4353      69737465 
 4353      6E657200 
 4354              	.LASF217:
 4355 0633 2F557365 		.ascii	"/Users/kevinmalmsten/development_raspberry_pi/Chibi"
 4355      72732F6B 
 4355      6576696E 
 4355      6D616C6D 
 4355      7374656E 
 4356 0666 4F532D42 		.ascii	"OS-Backup/__Backup_System\000"
 4356      61636B75 
 4356      702F5F5F 
 4356      4261636B 
 4356      75705F53 
 4357              	.LASF78:
 4358 0680 656C5F66 		.ascii	"el_flags\000"
 4358      6C616773 
 4358      00
 4359              	.LASF44:
 4360 0689 705F6D74 		.ascii	"p_mtxlist\000"
 4360      786C6973 
 4360      7400
 4361              	.LASF5:
 4362 0693 73686F72 		.ascii	"short int\000"
 4362      7420696E 
 4362      7400
 4363              	.LASF35:
 4364 069d 705F7374 		.ascii	"p_state\000"
 4364      61746500 
 4365              	.LASF38:
 4366 06a5 705F7072 		.ascii	"p_preempt\000"
 4366      65656D70 
 4366      7400
 4367              	.LASF103:
 4368 06af 63665F6F 		.ascii	"cf_off_time\000"
 4368      66665F74 
 4368      696D6500 
 4369              	.LASF62:
 4370 06bb 725F7072 		.ascii	"r_prio\000"
 4370      696F00
 4371              	.LASF133:
 4372 06c2 70696E5F 		.ascii	"pin_base\000"
 4372      62617365 
 4372      00
 4373              	.LASF84:
 4374 06cb 65776D61 		.ascii	"ewmask\000"
 4374      736B00
 4375              	.LASF28:
 4376 06d2 705F6E65 		.ascii	"p_next\000"
 4376      787400
 4377              	.LASF137:
ARM GAS  /var/folders/3j/4xdnk5197cv_b7cw3n33qk7r0000gn/T//ccrJgg3J.s 			page 83


 4378 06d9 494F504F 		.ascii	"IOPORT1\000"
 4378      52543100 
 4379              	.LASF102:
 4380 06e1 63665F6F 		.ascii	"cf_off_preempt\000"
 4380      66665F70 
 4380      7265656D 
 4380      707400
 4381              	.LASF36:
 4382 06f0 705F666C 		.ascii	"p_flags\000"
 4382      61677300 
 4383              	.LASF27:
 4384 06f8 54687265 		.ascii	"Thread\000"
 4384      616400
 4385              	.LASF197:
 4386 06ff 636C6F63 		.ascii	"clock_divider\000"
 4386      6B5F6469 
 4386      76696465 
 4386      7200
 4387              	.LASF95:
 4388 070d 63665F6F 		.ascii	"cf_off_newer\000"
 4388      66665F6E 
 4388      65776572 
 4388      00
 4389              	.LASF144:
 4390 071a 4932435F 		.ascii	"I2C_LOCKED\000"
 4390      4C4F434B 
 4390      454400
 4391              	.LASF210:
 4392 0725 63685363 		.ascii	"chSchGoSleepS\000"
 4392      68476F53 
 4392      6C656570 
 4392      5300
 4393              	.LASF43:
 4394 0733 705F6570 		.ascii	"p_epending\000"
 4394      656E6469 
 4394      6E6700
 4395              	.LASF165:
 4396 073e 53445F55 		.ascii	"SD_UNINIT\000"
 4396      4E494E49 
 4396      5400
 4397              	.LASF17:
 4398 0748 75696E74 		.ascii	"uint32_t\000"
 4398      33325F74 
 4398      00
 4399              	.LASF93:
 4400 0751 63665F6F 		.ascii	"cf_off_prio\000"
 4400      66665F70 
 4400      72696F00 
 4401              	.LASF61:
 4402 075d 725F7175 		.ascii	"r_queue\000"
 4402      65756500 
 4403              	.LASF53:
 4404 0765 56697274 		.ascii	"VirtualTimer\000"
 4404      75616C54 
 4404      696D6572 
 4404      00
 4405              	.LASF169:
ARM GAS  /var/folders/3j/4xdnk5197cv_b7cw3n33qk7r0000gn/T//ccrJgg3J.s 			page 84


 4406 0772 53657269 		.ascii	"SerialDriver\000"
 4406      616C4472 
 4406      69766572 
 4406      00
 4407              	.LASF21:
 4408 077f 74736C69 		.ascii	"tslices_t\000"
 4408      6365735F 
 4408      7400
 4409              	.LASF175:
 4410 0789 72656164 		.ascii	"read\000"
 4410      00
 4411              	.LASF85:
 4412 078e 63686172 		.ascii	"char\000"
 4412      00
 4413              	.LASF218:
 4414 0793 6932635F 		.ascii	"i2c_lld_safety_timeout\000"
 4414      6C6C645F 
 4414      73616665 
 4414      74795F74 
 4414      696D656F 
 4415              	.LASF184:
 4416 07aa 5350495F 		.ascii	"SPI_COMPLETE\000"
 4416      434F4D50 
 4416      4C455445 
 4416      00
 4417              	.LASF148:
 4418 07b7 636F6E66 		.ascii	"config\000"
 4418      696700
 4419              	.LASF6:
 4420 07be 5F5F7569 		.ascii	"__uint16_t\000"
 4420      6E743136 
 4420      5F7400
 4421              	.LASF214:
 4422 07c9 63685363 		.ascii	"chSchReadyI\000"
 4422      68526561 
 4422      64794900 
 4423              	.LASF185:
 4424 07d5 73706973 		.ascii	"spistate_t\000"
 4424      74617465 
 4424      5F7400
 4425              	.LASF73:
 4426 07e0 6D5F6E65 		.ascii	"m_next\000"
 4426      787400
 4427              	.LASF26:
 4428 07e7 73797374 		.ascii	"systime_t\000"
 4428      696D655F 
 4428      7400
 4429              	.LASF45:
 4430 07f1 705F7265 		.ascii	"p_realprio\000"
 4430      616C7072 
 4430      696F00
 4431              	.LASF8:
 4432 07fc 5F5F696E 		.ascii	"__int32_t\000"
 4432      7433325F 
 4432      7400
 4433              	.LASF141:
 4434 0806 4932435F 		.ascii	"I2C_READY\000"
ARM GAS  /var/folders/3j/4xdnk5197cv_b7cw3n33qk7r0000gn/T//ccrJgg3J.s 			page 85


 4434      52454144 
 4434      5900
 4435              	.LASF146:
 4436 0810 49324344 		.ascii	"I2CDriver\000"
 4436      72697665 
 4436      7200
 4437              	.LASF39:
 4438 081a 705F7469 		.ascii	"p_time\000"
 4438      6D6500
 4439              	.LASF195:
 4440 0821 636C6F63 		.ascii	"clock_polarity\000"
 4440      6B5F706F 
 4440      6C617269 
 4440      747900
 4441              	.LASF213:
 4442 0830 6932634F 		.ascii	"i2cObjectInit\000"
 4442      626A6563 
 4442      74496E69 
 4442      7400
 4443              	.LASF74:
 4444 083e 4576656E 		.ascii	"EventListener\000"
 4444      744C6973 
 4444      74656E65 
 4444      7200
 4445              	.LASF50:
 4446 084c 696E7463 		.ascii	"intctx\000"
 4446      747800
 4447              	.LASF41:
 4448 0853 705F6D73 		.ascii	"p_msgqueue\000"
 4448      67717565 
 4448      756500
 4449              	.LASF167:
 4450 085e 53445F52 		.ascii	"SD_READY\000"
 4450      45414459 
 4450      00
 4451              	.LASF182:
 4452 0867 5350495F 		.ascii	"SPI_READY\000"
 4452      52454144 
 4452      5900
 4453              	.LASF180:
 4454 0871 5350495F 		.ascii	"SPI_UNINIT\000"
 4454      554E494E 
 4454      495400
 4455              	.LASF58:
 4456 087c 76745F70 		.ascii	"vt_par\000"
 4456      617200
 4457              	.LASF25:
 4458 0883 666C6167 		.ascii	"flagsmask_t\000"
 4458      736D6173 
 4458      6B5F7400 
 4459              	.LASF163:
 4460 088f 49324343 		.ascii	"I2CConfig\000"
 4460      6F6E6669 
 4460      6700
 4461              	.LASF168:
 4462 0899 73647374 		.ascii	"sdstate_t\000"
 4462      6174655F 
ARM GAS  /var/folders/3j/4xdnk5197cv_b7cw3n33qk7r0000gn/T//ccrJgg3J.s 			page 86


 4462      7400
 4463              	.LASF156:
 4464 08a3 74786964 		.ascii	"txidx\000"
 4464      7800
 4465              	.LASF94:
 4466 08a9 63665F6F 		.ascii	"cf_off_ctx\000"
 4466      66665F63 
 4466      747800
 4467              	.LASF207:
 4468 08b4 6932635F 		.ascii	"i2c_lld_init\000"
 4468      6C6C645F 
 4468      696E6974 
 4468      00
 4469              	.LASF37:
 4470 08c1 705F7265 		.ascii	"p_refs\000"
 4470      667300
 4471              	.LASF121:
 4472 08c8 73746174 		.ascii	"status\000"
 4472      757300
 4473              	.LASF67:
 4474 08cf 52656164 		.ascii	"ReadyList\000"
 4474      794C6973 
 4474      7400
 4475              	.LASF113:
 4476 08d9 715F6E6F 		.ascii	"q_notify\000"
 4476      74696679 
 4476      00
 4477              	.LASF69:
 4478 08e2 726C6973 		.ascii	"rlist\000"
 4478      7400
 4479              	.LASF14:
 4480 08e8 75696E74 		.ascii	"uint8_t\000"
 4480      385F7400 
 4481              	.LASF128:
 4482 08f0 6C617463 		.ascii	"latch\000"
 4482      6800
 4483              	.LASF216:
 4484 08f6 2E2E2F2F 		.ascii	"..//os/hal/platforms/BCM2835/i2c_lld.c\000"
 4484      6F732F68 
 4484      616C2F70 
 4484      6C617466 
 4484      6F726D73 
 4485              	.LASF83:
 4486 091d 77746F62 		.ascii	"wtobjp\000"
 4486      6A7000
 4487              	.LASF34:
 4488 0924 705F6E61 		.ascii	"p_name\000"
 4488      6D6500
 4489              	.LASF59:
 4490 092b 76745F73 		.ascii	"vt_systime\000"
 4490      79737469 
 4490      6D6500
 4491              	.LASF80:
 4492 0936 65735F6E 		.ascii	"es_next\000"
 4492      65787400 
 4493              	.LASF198:
 4494 093e 53504943 		.ascii	"SPIConfig\000"
ARM GAS  /var/folders/3j/4xdnk5197cv_b7cw3n33qk7r0000gn/T//ccrJgg3J.s 			page 87


 4494      6F6E6669 
 4494      6700
 4495              	.LASF89:
 4496 0948 63685F76 		.ascii	"ch_version\000"
 4496      65727369 
 4496      6F6E00
 4497              	.LASF122:
 4498 0953 64617461 		.ascii	"dataLength\000"
 4498      4C656E67 
 4498      746800
 4499              	.LASF60:
 4500 095e 56544C69 		.ascii	"VTList\000"
 4500      737400
 4501              	.LASF114:
 4502 0965 715F6C69 		.ascii	"q_link\000"
 4502      6E6B00
 4503              	.LASF206:
 4504 096c 73706565 		.ascii	"speed\000"
 4504      6400
 4505              	.LASF135:
 4506 0972 50414C43 		.ascii	"PALConfig\000"
 4506      6F6E6669 
 4506      6700
 4507              	.LASF72:
 4508 097c 6D5F6F77 		.ascii	"m_owner\000"
 4508      6E657200 
 4509              	.LASF138:
 4510 0984 70616C5F 		.ascii	"pal_default_config\000"
 4510      64656661 
 4510      756C745F 
 4510      636F6E66 
 4510      696700
 4511              	.LASF31:
 4512 0997 705F6374 		.ascii	"p_ctx\000"
 4512      7800
 4513              	.LASF40:
 4514 099d 705F7761 		.ascii	"p_waiting\000"
 4514      6974696E 
 4514      6700
 4515              	.LASF155:
 4516 09a7 74786279 		.ascii	"txbytes\000"
 4516      74657300 
 4517              	.LASF127:
 4518 09af 636C6F63 		.ascii	"clockStretchTimeout\000"
 4518      6B537472 
 4518      65746368 
 4518      54696D65 
 4518      6F757400 
 4519              		.ident	"GCC: (GNU Tools for Arm Embedded Processors 7-2018-q2-update) 7.3.1 20180622 (release) [AR
ARM GAS  /var/folders/3j/4xdnk5197cv_b7cw3n33qk7r0000gn/T//ccrJgg3J.s 			page 88


DEFINED SYMBOLS
                            *ABS*:0000000000000000 i2c_lld.c
/var/folders/3j/4xdnk5197cv_b7cw3n33qk7r0000gn/T//ccrJgg3J.s:16     .text.i2c_lld_safety_timeout:0000000000000000 $a
/var/folders/3j/4xdnk5197cv_b7cw3n33qk7r0000gn/T//ccrJgg3J.s:21     .text.i2c_lld_safety_timeout:0000000000000000 i2c_lld_safety_timeout
/var/folders/3j/4xdnk5197cv_b7cw3n33qk7r0000gn/T//ccrJgg3J.s:93     .text.i2c_lld_safety_timeout:0000000000000070 $d
/var/folders/3j/4xdnk5197cv_b7cw3n33qk7r0000gn/T//ccrJgg3J.s:99     .text.i2c_lld_serve_interrupt:0000000000000000 $a
/var/folders/3j/4xdnk5197cv_b7cw3n33qk7r0000gn/T//ccrJgg3J.s:105    .text.i2c_lld_serve_interrupt:0000000000000000 i2c_lld_serve_interrupt
/var/folders/3j/4xdnk5197cv_b7cw3n33qk7r0000gn/T//ccrJgg3J.s:261    .text.i2c_lld_serve_interrupt:0000000000000148 $d
/var/folders/3j/4xdnk5197cv_b7cw3n33qk7r0000gn/T//ccrJgg3J.s:266    .text.i2c_lld_init:0000000000000000 $a
/var/folders/3j/4xdnk5197cv_b7cw3n33qk7r0000gn/T//ccrJgg3J.s:272    .text.i2c_lld_init:0000000000000000 i2c_lld_init
/var/folders/3j/4xdnk5197cv_b7cw3n33qk7r0000gn/T//ccrJgg3J.s:292    .text.i2c_lld_init:0000000000000014 $d
                            *COM*:0000000000000040 I2C0
/var/folders/3j/4xdnk5197cv_b7cw3n33qk7r0000gn/T//ccrJgg3J.s:299    .text.i2c_lld_start:0000000000000000 $a
/var/folders/3j/4xdnk5197cv_b7cw3n33qk7r0000gn/T//ccrJgg3J.s:305    .text.i2c_lld_start:0000000000000000 i2c_lld_start
/var/folders/3j/4xdnk5197cv_b7cw3n33qk7r0000gn/T//ccrJgg3J.s:360    .text.i2c_lld_start:0000000000000060 $d
/var/folders/3j/4xdnk5197cv_b7cw3n33qk7r0000gn/T//ccrJgg3J.s:366    .text.i2c_lld_stop:0000000000000000 $a
/var/folders/3j/4xdnk5197cv_b7cw3n33qk7r0000gn/T//ccrJgg3J.s:372    .text.i2c_lld_stop:0000000000000000 i2c_lld_stop
/var/folders/3j/4xdnk5197cv_b7cw3n33qk7r0000gn/T//ccrJgg3J.s:409    .text.i2c_lld_master_receive_timeout:0000000000000000 $a
/var/folders/3j/4xdnk5197cv_b7cw3n33qk7r0000gn/T//ccrJgg3J.s:415    .text.i2c_lld_master_receive_timeout:0000000000000000 i2c_lld_master_receive_timeout
/var/folders/3j/4xdnk5197cv_b7cw3n33qk7r0000gn/T//ccrJgg3J.s:536    .text.i2c_lld_master_receive_timeout:00000000000000bc $d
/var/folders/3j/4xdnk5197cv_b7cw3n33qk7r0000gn/T//ccrJgg3J.s:544    .text.i2c_lld_master_transmit_timeout:0000000000000000 $a
/var/folders/3j/4xdnk5197cv_b7cw3n33qk7r0000gn/T//ccrJgg3J.s:550    .text.i2c_lld_master_transmit_timeout:0000000000000000 i2c_lld_master_transmit_timeout
/var/folders/3j/4xdnk5197cv_b7cw3n33qk7r0000gn/T//ccrJgg3J.s:723    .text.i2c_lld_master_transmit_timeout:0000000000000130 $d

UNDEFINED SYMBOLS
chSchReadyI
i2cObjectInit
__aeabi_uidiv
bcm2835_gpio_fnsel
chVTSetI
chSchGoSleepS
chVTResetI
rlist
