ARM GAS  /var/folders/3j/4xdnk5197cv_b7cw3n33qk7r0000gn/T//ccUlDA21.s 			page 1


   1              		.cpu arm1176jz-s
   2              		.eabi_attribute 20, 1
   3              		.eabi_attribute 21, 1
   4              		.eabi_attribute 23, 3
   5              		.eabi_attribute 24, 1
   6              		.eabi_attribute 25, 1
   7              		.eabi_attribute 26, 1
   8              		.eabi_attribute 30, 2
   9              		.eabi_attribute 34, 1
  10              		.eabi_attribute 18, 4
  11              		.file	"i2c_lld.c"
  12              		.text
  13              	.Ltext0:
  14              		.cfi_sections	.debug_frame
  15              		.section	.text.i2c_lld_safety_timeout,"ax",%progbits
  16              		.align	2
  17              		.syntax unified
  18              		.arm
  19              		.fpu softvfp
  20              		.type	i2c_lld_safety_timeout, %function
  21              	i2c_lld_safety_timeout:
  22              	.LFB7:
  23              		.file 1 "..//os/hal/platforms/BCM2835/i2c_lld.c"
  24              		.loc 1 78 0
  25              		.cfi_startproc
  26              		@ args = 0, pretend = 0, frame = 0
  27              		@ frame_needed = 0, uses_anonymous_args = 0
  28              	.LVL0:
  29              		.loc 1 81 0
  30 0000 201090E5 		ldr	r1, [r0, #32]
  31 0004 000051E3 		cmp	r1, #0
  32 0008 1EFF2F01 		bxeq	lr
  33 000c 0030A0E1 		mov	r3, r0
  34              	.LBB2:
  35              		.loc 1 82 0
  36 0010 0C2090E5 		ldr	r2, [r0, #12]
  37              	.LVL1:
  38              		.loc 1 84 0
  39 0014 080090E5 		ldr	r0, [r0, #8]
  40              	.LVL2:
  41              	.LBE2:
  42              		.loc 1 78 0
  43 0018 04E02DE5 		str	lr, [sp, #-4]!
  44              		.cfi_def_cfa_offset 4
  45              		.cfi_offset 14, -4
  46              	.LBB3:
  47              		.loc 1 85 0
  48 001c 04E092E5 		ldr	lr, [r2, #4]
  49              		.loc 1 84 0
  50 0020 20C080E3 		orr	ip, r0, #32
  51 0024 08C083E5 		str	ip, [r3, #8]
  52              		.loc 1 85 0
  53 0028 020C1EE3 		tst	lr, #512
  54              		.loc 1 90 0
  55 002c 00C0A0E3 		mov	ip, #0
  56              		.loc 1 95 0
  57 0030 00E0E0E3 		mvn	lr, #0
ARM GAS  /var/folders/3j/4xdnk5197cv_b7cw3n33qk7r0000gn/T//ccUlDA21.s 			page 2


  58              		.loc 1 86 0
  59 0034 21008013 		orrne	r0, r0, #33
  60 0038 08008315 		strne	r0, [r3, #8]
  61              		.loc 1 87 0
  62 003c 040092E5 		ldr	r0, [r2, #4]
  63 0040 010C10E3 		tst	r0, #256
  64              		.loc 1 88 0
  65 0044 08009315 		ldrne	r0, [r3, #8]
  66 0048 04008013 		orrne	r0, r0, #4
  67 004c 08008315 		strne	r0, [r3, #8]
  68              		.loc 1 91 0
  69 0050 18009FE5 		ldr	r0, .L15
  70              		.loc 1 90 0
  71 0054 00C082E5 		str	ip, [r2]
  72              		.loc 1 91 0
  73 0058 040082E5 		str	r0, [r2, #4]
  74              	.LVL3:
  75              		.loc 1 94 0
  76 005c 20C083E5 		str	ip, [r3, #32]
  77              		.loc 1 96 0
  78 0060 0100A0E1 		mov	r0, r1
  79              		.loc 1 95 0
  80 0064 24E081E5 		str	lr, [r1, #36]
  81              	.LBE3:
  82              		.loc 1 99 0
  83 0068 04E09DE4 		ldr	lr, [sp], #4
  84              		.cfi_restore 14
  85              		.cfi_def_cfa_offset 0
  86              	.LBB4:
  87              		.loc 1 96 0
  88 006c FEFFFFEA 		b	chSchReadyI
  89              	.LVL4:
  90              	.L16:
  91              		.align	2
  92              	.L15:
  93 0070 02030000 		.word	770
  94              	.LBE4:
  95              		.cfi_endproc
  96              	.LFE7:
  97              		.size	i2c_lld_safety_timeout, .-i2c_lld_safety_timeout
  98              		.section	.text.i2c_lld_serve_interrupt,"ax",%progbits
  99              		.align	2
 100              		.global	i2c_lld_serve_interrupt
 101              		.syntax unified
 102              		.arm
 103              		.fpu softvfp
 104              		.type	i2c_lld_serve_interrupt, %function
 105              	i2c_lld_serve_interrupt:
 106              	.LFB8:
 107              		.loc 1 105 0
 108              		.cfi_startproc
 109              		@ args = 0, pretend = 0, frame = 0
 110              		@ frame_needed = 0, uses_anonymous_args = 0
 111              	.LVL5:
 112              		.loc 1 107 0
 113 0000 0C2090E5 		ldr	r2, [r0, #12]
 114              	.LVL6:
ARM GAS  /var/folders/3j/4xdnk5197cv_b7cw3n33qk7r0000gn/T//ccUlDA21.s 			page 3


 115              		.loc 1 108 0
 116 0004 041092E5 		ldr	r1, [r2, #4]
 117              	.LVL7:
 118              		.loc 1 110 0
 119 0008 030C11E3 		tst	r1, #768
 120 000c 0800000A 		beq	.L18
 121              		.loc 1 112 0
 122 0010 203090E5 		ldr	r3, [r0, #32]
 123 0014 000053E3 		cmp	r3, #0
 124 0018 1EFF2F01 		bxeq	lr
 125              	.LVL8:
 126              	.LBB5:
 127              		.loc 1 112 0 is_stmt 0 discriminator 1
 128 001c 0010A0E3 		mov	r1, #0
 129              	.LVL9:
 130 0020 0120E0E3 		mvn	r2, #1
 131              	.LVL10:
 132 0024 201080E5 		str	r1, [r0, #32]
 133 0028 0300A0E1 		mov	r0, r3
 134              	.LVL11:
 135 002c 242083E5 		str	r2, [r3, #36]
 136 0030 FEFFFFEA 		b	chSchReadyI
 137              	.LVL12:
 138              	.L18:
 139              	.LBE5:
 140              		.loc 1 114 0 is_stmt 1
 141 0034 020011E3 		tst	r1, #2
 142              		.loc 1 105 0
 143 0038 04E02DE5 		str	lr, [sp, #-4]!
 144              		.cfi_def_cfa_offset 4
 145              		.cfi_offset 14, -4
 146              		.loc 1 114 0
 147 003c 1A00000A 		beq	.L20
 148              		.loc 1 115 0
 149 0040 200011E3 		tst	r1, #32
 150 0044 0C00000A 		beq	.L21
 151 0048 3C3090E5 		ldr	r3, [r0, #60]
 152 004c 381090E5 		ldr	r1, [r0, #56]
 153              	.LVL13:
 154 0050 030051E1 		cmp	r1, r3
 155 0054 0800009A 		bls	.L21
 156              	.L22:
 157              		.loc 1 116 0
 158 0058 10C092E5 		ldr	ip, [r2, #16]
 159 005c 341090E5 		ldr	r1, [r0, #52]
 160 0060 01E083E2 		add	lr, r3, #1
 161 0064 3CE080E5 		str	lr, [r0, #60]
 162 0068 03C0C1E7 		strb	ip, [r1, r3]
 163              		.loc 1 115 0
 164 006c 3C3090E5 		ldr	r3, [r0, #60]
 165 0070 381090E5 		ldr	r1, [r0, #56]
 166 0074 010053E1 		cmp	r3, r1
 167 0078 F6FFFF3A 		bcc	.L22
 168              	.L21:
 169              		.loc 1 117 0
 170 007c 0010A0E3 		mov	r1, #0
 171              		.loc 1 119 0
ARM GAS  /var/folders/3j/4xdnk5197cv_b7cw3n33qk7r0000gn/T//ccUlDA21.s 			page 4


 172 0080 203090E5 		ldr	r3, [r0, #32]
 173              		.loc 1 118 0
 174 0084 BCC09FE5 		ldr	ip, .L51
 175              		.loc 1 119 0
 176 0088 010053E1 		cmp	r3, r1
 177              		.loc 1 117 0
 178 008c 001082E5 		str	r1, [r2]
 179              		.loc 1 118 0
 180 0090 04C082E5 		str	ip, [r2, #4]
 181              		.loc 1 119 0
 182 0094 04F09D04 		ldreq	pc, [sp], #4
 183              	.LVL14:
 184              	.LBB6:
 185              		.loc 1 119 0 is_stmt 0 discriminator 1
 186 0098 201080E5 		str	r1, [r0, #32]
 187              	.LBE6:
 188              		.loc 1 129 0 is_stmt 1 discriminator 1
 189 009c 04E09DE4 		ldr	lr, [sp], #4
 190              		.cfi_remember_state
 191              		.cfi_restore 14
 192              		.cfi_def_cfa_offset 0
 193              	.LBB7:
 194              		.loc 1 119 0 discriminator 1
 195 00a0 0300A0E1 		mov	r0, r3
 196              	.LVL15:
 197 00a4 241083E5 		str	r1, [r3, #36]
 198 00a8 FEFFFFEA 		b	chSchReadyI
 199              	.LVL16:
 200              	.L20:
 201              		.cfi_restore_state
 202              	.LBE7:
 203              		.loc 1 121 0
 204 00ac 040011E3 		tst	r1, #4
 205 00b0 1200000A 		beq	.L23
 206              		.loc 1 122 0
 207 00b4 303090E5 		ldr	r3, [r0, #48]
 208 00b8 2CC090E5 		ldr	ip, [r0, #44]
 209 00bc 0C0053E1 		cmp	r3, ip
 210 00c0 04F09D24 		ldrcs	pc, [sp], #4
 211 00c4 100011E3 		tst	r1, #16
 212 00c8 04F09D04 		ldreq	pc, [sp], #4
 213              		.loc 1 123 0
 214 00cc 28E090E5 		ldr	lr, [r0, #40]
 215 00d0 013043E2 		sub	r3, r3, #1
 216 00d4 01C04CE2 		sub	ip, ip, #1
 217 00d8 03308EE0 		add	r3, lr, r3
 218 00dc 0CC08EE0 		add	ip, lr, ip
 219 00e0 02E06EE2 		rsb	lr, lr, #2
 220              	.LVL17:
 221              	.L24:
 222 00e4 03108EE0 		add	r1, lr, r3
 223 00e8 301080E5 		str	r1, [r0, #48]
 224 00ec 0110F3E5 		ldrb	r1, [r3, #1]!	@ zero_extendqisi2
 225              		.loc 1 122 0
 226 00f0 0C0053E1 		cmp	r3, ip
 227              		.loc 1 123 0
 228 00f4 101082E5 		str	r1, [r2, #16]
ARM GAS  /var/folders/3j/4xdnk5197cv_b7cw3n33qk7r0000gn/T//ccUlDA21.s 			page 5


 229              		.loc 1 122 0
 230 00f8 F9FFFF1A 		bne	.L24
 231 00fc 04F09DE4 		ldr	pc, [sp], #4
 232              	.LVL18:
 233              	.L23:
 234              		.loc 1 125 0
 235 0100 080011E3 		tst	r1, #8
 236 0104 04F09D04 		ldreq	pc, [sp], #4
 237              		.loc 1 126 0
 238 0108 3C3090E5 		ldr	r3, [r0, #60]
 239 010c 38C090E5 		ldr	ip, [r0, #56]
 240 0110 03005CE1 		cmp	ip, r3
 241 0114 04F09D94 		ldrls	pc, [sp], #4
 242 0118 200011E3 		tst	r1, #32
 243 011c 04F09D04 		ldreq	pc, [sp], #4
 244              	.LVL19:
 245              	.L25:
 246              		.loc 1 127 0
 247 0120 10C092E5 		ldr	ip, [r2, #16]
 248 0124 341090E5 		ldr	r1, [r0, #52]
 249 0128 01E083E2 		add	lr, r3, #1
 250 012c 3CE080E5 		str	lr, [r0, #60]
 251 0130 03C0C1E7 		strb	ip, [r1, r3]
 252              		.loc 1 126 0
 253 0134 3C3090E5 		ldr	r3, [r0, #60]
 254 0138 381090E5 		ldr	r1, [r0, #56]
 255 013c 010053E1 		cmp	r3, r1
 256 0140 F6FFFF3A 		bcc	.L25
 257 0144 04F09DE4 		ldr	pc, [sp], #4
 258              	.L52:
 259              		.align	2
 260              	.L51:
 261 0148 02030000 		.word	770
 262              		.cfi_endproc
 263              	.LFE8:
 264              		.size	i2c_lld_serve_interrupt, .-i2c_lld_serve_interrupt
 265              		.section	.text.i2c_lld_init,"ax",%progbits
 266              		.align	2
 267              		.global	i2c_lld_init
 268              		.syntax unified
 269              		.arm
 270              		.fpu softvfp
 271              		.type	i2c_lld_init, %function
 272              	i2c_lld_init:
 273              	.LFB9:
 274              		.loc 1 140 0
 275              		.cfi_startproc
 276              		@ args = 0, pretend = 0, frame = 0
 277              		@ frame_needed = 0, uses_anonymous_args = 0
 278              		.loc 1 141 0
 279 0000 28309FE5 		ldr	r3, .L55
 280              		.loc 1 140 0
 281 0004 10402DE9 		push	{r4, lr}
 282              		.cfi_def_cfa_offset 8
 283              		.cfi_offset 4, -8
 284              		.cfi_offset 14, -4
 285              		.loc 1 141 0
ARM GAS  /var/folders/3j/4xdnk5197cv_b7cw3n33qk7r0000gn/T//ccUlDA21.s 			page 6


 286 0008 24209FE5 		ldr	r2, .L55+4
 287              		.loc 1 142 0
 288 000c 0300A0E1 		mov	r0, r3
 289              		.loc 1 141 0
 290 0010 0C2083E5 		str	r2, [r3, #12]
 291              		.loc 1 142 0
 292 0014 FEFFFFEB 		bl	i2cObjectInit
 293              	.LVL20:
 294              		.loc 1 146 0
 295 0018 1040BDE8 		pop	{r4, lr}
 296              		.cfi_restore 14
 297              		.cfi_restore 4
 298              		.cfi_def_cfa_offset 0
 299              		.loc 1 144 0
 300 001c 14309FE5 		ldr	r3, .L55+8
 301 0020 14209FE5 		ldr	r2, .L55+12
 302              		.loc 1 145 0
 303 0024 0300A0E1 		mov	r0, r3
 304              		.loc 1 144 0
 305 0028 0C2083E5 		str	r2, [r3, #12]
 306              		.loc 1 145 0
 307 002c FEFFFFEA 		b	i2cObjectInit
 308              	.LVL21:
 309              	.L56:
 310              		.align	2
 311              	.L55:
 312 0030 00000000 		.word	I2C0
 313 0034 00502020 		.word	538988544
 314 0038 00000000 		.word	I2C1
 315 003c 00408020 		.word	545275904
 316              		.cfi_endproc
 317              	.LFE9:
 318              		.size	i2c_lld_init, .-i2c_lld_init
 319              		.global	__aeabi_uidiv
 320              		.section	.text.i2c_lld_start,"ax",%progbits
 321              		.align	2
 322              		.global	i2c_lld_start
 323              		.syntax unified
 324              		.arm
 325              		.fpu softvfp
 326              		.type	i2c_lld_start, %function
 327              	i2c_lld_start:
 328              	.LFB10:
 329              		.loc 1 155 0
 330              		.cfi_startproc
 331              		@ args = 0, pretend = 0, frame = 0
 332              		@ frame_needed = 0, uses_anonymous_args = 0
 333              	.LVL22:
 334 0000 10402DE9 		push	{r4, lr}
 335              		.cfi_def_cfa_offset 8
 336              		.cfi_offset 4, -8
 337              		.cfi_offset 14, -4
 338              		.loc 1 155 0
 339 0004 0040A0E1 		mov	r4, r0
 340              		.loc 1 157 0
 341 0008 0410A0E3 		mov	r1, #4
 342 000c 0000A0E3 		mov	r0, #0
ARM GAS  /var/folders/3j/4xdnk5197cv_b7cw3n33qk7r0000gn/T//ccUlDA21.s 			page 7


 343              	.LVL23:
 344 0010 FEFFFFEB 		bl	bcm2835_gpio_fnsel
 345              	.LVL24:
 346              		.loc 1 158 0
 347 0014 0410A0E3 		mov	r1, #4
 348 0018 0100A0E3 		mov	r0, #1
 349 001c FEFFFFEB 		bl	bcm2835_gpio_fnsel
 350              	.LVL25:
 351              		.loc 1 161 0
 352 0020 0410A0E3 		mov	r1, #4
 353 0024 0200A0E3 		mov	r0, #2
 354 0028 FEFFFFEB 		bl	bcm2835_gpio_fnsel
 355              	.LVL26:
 356              		.loc 1 162 0
 357 002c 0410A0E3 		mov	r1, #4
 358 0030 0300A0E3 		mov	r0, #3
 359 0034 FEFFFFEB 		bl	bcm2835_gpio_fnsel
 360              	.LVL27:
 361              		.loc 1 164 0
 362 0038 042094E5 		ldr	r2, [r4, #4]
 363              		.loc 1 165 0
 364 003c 34309FE5 		ldr	r3, .L62
 365              		.loc 1 164 0
 366 0040 001092E5 		ldr	r1, [r2]
 367              	.LVL28:
 368              		.loc 1 165 0
 369 0044 000051E3 		cmp	r1, #0
 370 0048 03005111 		cmpne	r1, r3
 371 004c 0700000A 		beq	.L61
 372              		.loc 1 166 0
 373 0050 24009FE5 		ldr	r0, .L62+4
 374 0054 FEFFFFEB 		bl	__aeabi_uidiv
 375              	.LVL29:
 376 0058 0C2094E5 		ldr	r2, [r4, #12]
 377 005c 140082E5 		str	r0, [r2, #20]
 378              	.L59:
 379              		.loc 1 168 0
 380 0060 003092E5 		ldr	r3, [r2]
 381 0064 023983E3 		orr	r3, r3, #32768
 382 0068 003082E5 		str	r3, [r2]
 383              		.loc 1 169 0
 384 006c 1080BDE8 		pop	{r4, pc}
 385              	.LVL30:
 386              	.L61:
 387 0070 0C2094E5 		ldr	r2, [r4, #12]
 388 0074 F9FFFFEA 		b	.L59
 389              	.L63:
 390              		.align	2
 391              	.L62:
 392 0078 A0860100 		.word	100000
 393 007c 80D1F008 		.word	150000000
 394              		.cfi_endproc
 395              	.LFE10:
 396              		.size	i2c_lld_start, .-i2c_lld_start
 397              		.section	.text.i2c_lld_stop,"ax",%progbits
 398              		.align	2
 399              		.global	i2c_lld_stop
ARM GAS  /var/folders/3j/4xdnk5197cv_b7cw3n33qk7r0000gn/T//ccUlDA21.s 			page 8


 400              		.syntax unified
 401              		.arm
 402              		.fpu softvfp
 403              		.type	i2c_lld_stop, %function
 404              	i2c_lld_stop:
 405              	.LFB11:
 406              		.loc 1 178 0
 407              		.cfi_startproc
 408              		@ args = 0, pretend = 0, frame = 0
 409              		@ frame_needed = 0, uses_anonymous_args = 0
 410              	.LVL31:
 411              		.loc 1 180 0
 412 0000 0010A0E3 		mov	r1, #0
 413              		.loc 1 178 0
 414 0004 10402DE9 		push	{r4, lr}
 415              		.cfi_def_cfa_offset 8
 416              		.cfi_offset 4, -8
 417              		.cfi_offset 14, -4
 418              		.loc 1 178 0
 419 0008 0040A0E1 		mov	r4, r0
 420              		.loc 1 180 0
 421 000c 0100A0E1 		mov	r0, r1
 422              	.LVL32:
 423 0010 FEFFFFEB 		bl	bcm2835_gpio_fnsel
 424              	.LVL33:
 425              		.loc 1 181 0
 426 0014 0010A0E3 		mov	r1, #0
 427 0018 0100A0E3 		mov	r0, #1
 428 001c FEFFFFEB 		bl	bcm2835_gpio_fnsel
 429              	.LVL34:
 430              		.loc 1 183 0
 431 0020 0C2094E5 		ldr	r2, [r4, #12]
 432 0024 003092E5 		ldr	r3, [r2]
 433 0028 0239C3E3 		bic	r3, r3, #32768
 434 002c 003082E5 		str	r3, [r2]
 435              		.loc 1 184 0
 436 0030 1080BDE8 		pop	{r4, pc}
 437              		.cfi_endproc
 438              	.LFE11:
 439              		.size	i2c_lld_stop, .-i2c_lld_stop
 440              		.section	.text.i2c_lld_master_receive_timeout,"ax",%progbits
 441              		.align	2
 442              		.global	i2c_lld_master_receive_timeout
 443              		.syntax unified
 444              		.arm
 445              		.fpu softvfp
 446              		.type	i2c_lld_master_receive_timeout, %function
 447              	i2c_lld_master_receive_timeout:
 448              	.LFB13:
 449              		.loc 1 268 0
 450              		.cfi_startproc
 451              		@ args = 4, pretend = 0, frame = 24
 452              		@ frame_needed = 0, uses_anonymous_args = 0
 453              	.LVL35:
 454 0000 F0412DE9 		push	{r4, r5, r6, r7, r8, lr}
 455              		.cfi_def_cfa_offset 24
 456              		.cfi_offset 4, -24
ARM GAS  /var/folders/3j/4xdnk5197cv_b7cw3n33qk7r0000gn/T//ccUlDA21.s 			page 9


 457              		.cfi_offset 5, -20
 458              		.cfi_offset 6, -16
 459              		.cfi_offset 7, -12
 460              		.cfi_offset 8, -8
 461              		.cfi_offset 14, -4
 462 0004 18D04DE2 		sub	sp, sp, #24
 463              		.cfi_def_cfa_offset 48
 464              		.loc 1 268 0
 465 0008 30509DE5 		ldr	r5, [sp, #48]
 466 000c 0040A0E1 		mov	r4, r0
 467              		.loc 1 272 0
 468 0010 010075E3 		cmn	r5, #1
 469              		.loc 1 268 0
 470 0014 0170A0E1 		mov	r7, r1
 471 0018 0280A0E1 		mov	r8, r2
 472 001c 0360A0E1 		mov	r6, r3
 473              		.loc 1 272 0
 474 0020 0400000A 		beq	.L67
 475              		.loc 1 273 0
 476 0024 0030A0E1 		mov	r3, r0
 477              	.LVL36:
 478 0028 8C209FE5 		ldr	r2, .L79
 479              	.LVL37:
 480 002c 0510A0E1 		mov	r1, r5
 481              	.LVL38:
 482 0030 04008DE2 		add	r0, sp, #4
 483              	.LVL39:
 484 0034 FEFFFFEB 		bl	chVTSetI
 485              	.LVL40:
 486              	.L67:
 487              		.loc 1 276 0
 488 0038 0020A0E3 		mov	r2, #0
 489              		.loc 1 284 0
 490 003c 0C3094E5 		ldr	r3, [r4, #12]
 491              	.LVL41:
 492              		.loc 1 276 0
 493 0040 282084E5 		str	r2, [r4, #40]
 494              		.loc 1 277 0
 495 0044 2C2084E5 		str	r2, [r4, #44]
 496              		.loc 1 278 0
 497 0048 302084E5 		str	r2, [r4, #48]
 498              		.loc 1 281 0
 499 004c 3C2084E5 		str	r2, [r4, #60]
 500              		.loc 1 287 0
 501 0050 68109FE5 		ldr	r1, .L79+4
 502              		.loc 1 290 0
 503 0054 68209FE5 		ldr	r2, .L79+8
 504              		.loc 1 275 0
 505 0058 B472C4E1 		strh	r7, [r4, #36]	@ movhi
 506              		.loc 1 279 0
 507 005c 348084E5 		str	r8, [r4, #52]
 508              		.loc 1 280 0
 509 0060 386084E5 		str	r6, [r4, #56]
 510              		.loc 1 285 0
 511 0064 0C7083E5 		str	r7, [r3, #12]
 512              		.loc 1 286 0
 513 0068 086083E5 		str	r6, [r3, #8]
ARM GAS  /var/folders/3j/4xdnk5197cv_b7cw3n33qk7r0000gn/T//ccUlDA21.s 			page 10


 514              		.loc 1 287 0
 515 006c 041083E5 		str	r1, [r3, #4]
 516              		.loc 1 290 0
 517 0070 002083E5 		str	r2, [r3]
 518              		.loc 1 293 0
 519              		.syntax divided
 520              	@ 293 "..//os/hal/platforms/BCM2835/i2c_lld.c" 1
 521 0074 9FF021E3 		msr     CPSR_c, #0x9F
 522              	@ 0 "" 2
 523              		.loc 1 294 0
 524              		.arm
 525              		.syntax unified
 526 0078 48609FE5 		ldr	r6, .L79+12
 527              	.LVL42:
 528              		.loc 1 295 0
 529 007c 0200A0E3 		mov	r0, #2
 530              		.loc 1 294 0
 531 0080 183096E5 		ldr	r3, [r6, #24]
 532              	.LVL43:
 533 0084 203084E5 		str	r3, [r4, #32]
 534              		.loc 1 295 0
 535 0088 FEFFFFEB 		bl	chSchGoSleepS
 536              	.LVL44:
 537              		.loc 1 296 0
 538 008c 010075E3 		cmn	r5, #1
 539 0090 0400000A 		beq	.L68
 540              		.loc 1 296 0 is_stmt 0 discriminator 1
 541 0094 10309DE5 		ldr	r3, [sp, #16]
 542 0098 000053E3 		cmp	r3, #0
 543 009c 0100000A 		beq	.L68
 544              		.loc 1 297 0 is_stmt 1
 545 00a0 04008DE2 		add	r0, sp, #4
 546 00a4 FEFFFFEB 		bl	chVTResetI
 547              	.LVL45:
 548              	.L68:
 549              		.loc 1 298 0
 550              		.syntax divided
 551              	@ 298 "..//os/hal/platforms/BCM2835/i2c_lld.c" 1
 552 00a8 1FF021E3 		msr     CPSR_c, #0x1F
 553              	@ 0 "" 2
 554              		.loc 1 300 0
 555              		.arm
 556              		.syntax unified
 557 00ac 183096E5 		ldr	r3, [r6, #24]
 558              		.loc 1 301 0
 559 00b0 240093E5 		ldr	r0, [r3, #36]
 560 00b4 18D08DE2 		add	sp, sp, #24
 561              		.cfi_def_cfa_offset 24
 562              		@ sp needed
 563 00b8 F081BDE8 		pop	{r4, r5, r6, r7, r8, pc}
 564              	.LVL46:
 565              	.L80:
 566              		.align	2
 567              	.L79:
 568 00bc 00000000 		.word	i2c_lld_safety_timeout
 569 00c0 02030000 		.word	770
 570 00c4 91850000 		.word	34193
ARM GAS  /var/folders/3j/4xdnk5197cv_b7cw3n33qk7r0000gn/T//ccUlDA21.s 			page 11


 571 00c8 00000000 		.word	rlist
 572              		.cfi_endproc
 573              	.LFE13:
 574              		.size	i2c_lld_master_receive_timeout, .-i2c_lld_master_receive_timeout
 575              		.section	.text.i2c_lld_master_transmit_timeout,"ax",%progbits
 576              		.align	2
 577              		.global	i2c_lld_master_transmit_timeout
 578              		.syntax unified
 579              		.arm
 580              		.fpu softvfp
 581              		.type	i2c_lld_master_transmit_timeout, %function
 582              	i2c_lld_master_transmit_timeout:
 583              	.LFB12:
 584              		.loc 1 205 0
 585              		.cfi_startproc
 586              		@ args = 12, pretend = 0, frame = 24
 587              		@ frame_needed = 0, uses_anonymous_args = 0
 588              	.LVL47:
 589 0000 F0472DE9 		push	{r4, r5, r6, r7, r8, r9, r10, lr}
 590              		.cfi_def_cfa_offset 32
 591              		.cfi_offset 4, -32
 592              		.cfi_offset 5, -28
 593              		.cfi_offset 6, -24
 594              		.cfi_offset 7, -20
 595              		.cfi_offset 8, -16
 596              		.cfi_offset 9, -12
 597              		.cfi_offset 10, -8
 598              		.cfi_offset 14, -4
 599 0004 20D04DE2 		sub	sp, sp, #32
 600              		.cfi_def_cfa_offset 64
 601              		.loc 1 205 0
 602 0008 48509DE5 		ldr	r5, [sp, #72]
 603 000c 0040A0E1 		mov	r4, r0
 604              		.loc 1 209 0
 605 0010 010075E3 		cmn	r5, #1
 606              		.loc 1 205 0
 607 0014 0160A0E1 		mov	r6, r1
 608 0018 02A0A0E1 		mov	r10, r2
 609 001c 0390A0E1 		mov	r9, r3
 610 0020 40809DE5 		ldr	r8, [sp, #64]
 611 0024 4470DDE5 		ldrb	r7, [sp, #68]	@ zero_extendqisi2
 612              		.loc 1 209 0
 613 0028 0400000A 		beq	.L82
 614              		.loc 1 210 0
 615 002c 0030A0E1 		mov	r3, r0
 616              	.LVL48:
 617 0030 F8209FE5 		ldr	r2, .L105
 618              	.LVL49:
 619 0034 0510A0E1 		mov	r1, r5
 620              	.LVL50:
 621 0038 0C008DE2 		add	r0, sp, #12
 622              	.LVL51:
 623 003c FEFFFFEB 		bl	chVTSetI
 624              	.LVL52:
 625              	.L82:
 626              		.loc 1 215 0
 627 0040 0020A0E3 		mov	r2, #0
ARM GAS  /var/folders/3j/4xdnk5197cv_b7cw3n33qk7r0000gn/T//ccUlDA21.s 			page 12


 628              		.loc 1 220 0
 629 0044 0C3094E5 		ldr	r3, [r4, #12]
 630              	.LVL53:
 631              		.loc 1 223 0
 632 0048 E4109FE5 		ldr	r1, .L105+4
 633              		.loc 1 215 0
 634 004c 302084E5 		str	r2, [r4, #48]
 635              		.loc 1 218 0
 636 0050 3C2084E5 		str	r2, [r4, #60]
 637              		.loc 1 212 0
 638 0054 B462C4E1 		strh	r6, [r4, #36]	@ movhi
 639              		.loc 1 213 0
 640 0058 28A084E5 		str	r10, [r4, #40]
 641              		.loc 1 214 0
 642 005c 2C9084E5 		str	r9, [r4, #44]
 643              		.loc 1 216 0
 644 0060 348084E5 		str	r8, [r4, #52]
 645              		.loc 1 217 0
 646 0064 387084E5 		str	r7, [r4, #56]
 647              		.loc 1 221 0
 648 0068 0C6083E5 		str	r6, [r3, #12]
 649              		.loc 1 222 0
 650 006c 089083E5 		str	r9, [r3, #8]
 651              		.loc 1 223 0
 652 0070 041083E5 		str	r1, [r3, #4]
 653              		.loc 1 226 0
 654 0074 002093E5 		ldr	r2, [r3]
 655 0078 832C82E3 		orr	r2, r2, #33536
 656 007c 802082E3 		orr	r2, r2, #128
 657 0080 002083E5 		str	r2, [r3]
 658              		.loc 1 229 0
 659              		.syntax divided
 660              	@ 229 "..//os/hal/platforms/BCM2835/i2c_lld.c" 1
 661 0084 9FF021E3 		msr     CPSR_c, #0x9F
 662              	@ 0 "" 2
 663              		.loc 1 231 0
 664              		.arm
 665              		.syntax unified
 666 0088 A8909FE5 		ldr	r9, .L105+8
 667              	.LVL54:
 668              		.loc 1 232 0
 669 008c 0200A0E3 		mov	r0, #2
 670              		.loc 1 231 0
 671 0090 183099E5 		ldr	r3, [r9, #24]
 672              	.LVL55:
 673 0094 203084E5 		str	r3, [r4, #32]
 674              		.loc 1 232 0
 675 0098 FEFFFFEB 		bl	chSchGoSleepS
 676              	.LVL56:
 677              		.loc 1 233 0
 678 009c 010075E3 		cmn	r5, #1
 679 00a0 0400000A 		beq	.L83
 680              		.loc 1 233 0 is_stmt 0 discriminator 1
 681 00a4 18309DE5 		ldr	r3, [sp, #24]
 682 00a8 000053E3 		cmp	r3, #0
 683 00ac 0100000A 		beq	.L83
 684              		.loc 1 234 0 is_stmt 1
ARM GAS  /var/folders/3j/4xdnk5197cv_b7cw3n33qk7r0000gn/T//ccUlDA21.s 			page 13


 685 00b0 0C008DE2 		add	r0, sp, #12
 686 00b4 FEFFFFEB 		bl	chVTResetI
 687              	.LVL57:
 688              	.L83:
 689              		.loc 1 236 0
 690              		.syntax divided
 691              	@ 236 "..//os/hal/platforms/BCM2835/i2c_lld.c" 1
 692 00b8 1FF021E3 		msr     CPSR_c, #0x1F
 693              	@ 0 "" 2
 694              		.loc 1 238 0
 695              		.arm
 696              		.syntax unified
 697 00bc 182099E5 		ldr	r2, [r9, #24]
 698              		.loc 1 240 0
 699 00c0 003097E2 		adds	r3, r7, #0
 700              		.loc 1 238 0
 701 00c4 249092E5 		ldr	r9, [r2, #36]
 702              	.LVL58:
 703              		.loc 1 240 0
 704 00c8 0130A013 		movne	r3, #1
 705 00cc 000059E3 		cmp	r9, #0
 706 00d0 0030A013 		movne	r3, #0
 707 00d4 000053E3 		cmp	r3, #0
 708 00d8 0200001A 		bne	.L104
 709              	.L81:
 710              		.loc 1 249 0
 711 00dc 0900A0E1 		mov	r0, r9
 712 00e0 20D08DE2 		add	sp, sp, #32
 713              		.cfi_remember_state
 714              		.cfi_def_cfa_offset 32
 715              		@ sp needed
 716 00e4 F087BDE8 		pop	{r4, r5, r6, r7, r8, r9, r10, pc}
 717              	.LVL59:
 718              	.L104:
 719              		.cfi_restore_state
 720              		.loc 1 242 0
 721 00e8 00C0E0E3 		mvn	ip, #0
 722 00ec 0730A0E1 		mov	r3, r7
 723 00f0 0820A0E1 		mov	r2, r8
 724 00f4 0610A0E1 		mov	r1, r6
 725 00f8 0400A0E1 		mov	r0, r4
 726 00fc 00C08DE5 		str	ip, [sp]
 727 0100 FEFFFFEB 		bl	i2c_lld_master_receive_timeout
 728              	.LVL60:
 729              		.loc 1 244 0
 730 0104 010075E3 		cmn	r5, #1
 731              		.loc 1 242 0
 732 0108 0090A0E1 		mov	r9, r0
 733              	.LVL61:
 734              		.loc 1 244 0
 735 010c F2FFFF0A 		beq	.L81
 736              		.loc 1 244 0 is_stmt 0 discriminator 1
 737 0110 18309DE5 		ldr	r3, [sp, #24]
 738 0114 000053E3 		cmp	r3, #0
 739 0118 EFFFFF0A 		beq	.L81
 740              		.loc 1 245 0 is_stmt 1
 741 011c 0C008DE2 		add	r0, sp, #12
ARM GAS  /var/folders/3j/4xdnk5197cv_b7cw3n33qk7r0000gn/T//ccUlDA21.s 			page 14


 742              	.LVL62:
 743 0120 FEFFFFEB 		bl	chVTResetI
 744              	.LVL63:
 745              		.loc 1 249 0
 746 0124 0900A0E1 		mov	r0, r9
 747 0128 20D08DE2 		add	sp, sp, #32
 748              		.cfi_def_cfa_offset 32
 749              		@ sp needed
 750 012c F087BDE8 		pop	{r4, r5, r6, r7, r8, r9, r10, pc}
 751              	.LVL64:
 752              	.L106:
 753              		.align	2
 754              	.L105:
 755 0130 00000000 		.word	i2c_lld_safety_timeout
 756 0134 02030000 		.word	770
 757 0138 00000000 		.word	rlist
 758              		.cfi_endproc
 759              	.LFE12:
 760              		.size	i2c_lld_master_transmit_timeout, .-i2c_lld_master_transmit_timeout
 761              		.comm	I2C1,64,4
 762              		.comm	I2C0,64,4
 763              		.text
 764              	.Letext0:
 765              		.file 2 "/usr/local/Cellar/gcc-arm-none-eabi/20180627/lib/gcc/arm-none-eabi/7.3.1/include/stddef.h
 766              		.file 3 "/usr/local/Cellar/gcc-arm-none-eabi/20180627/arm-none-eabi/include/machine/_default_types
 767              		.file 4 "/usr/local/Cellar/gcc-arm-none-eabi/20180627/arm-none-eabi/include/sys/_stdint.h"
 768              		.file 5 "..//os/ports/GCC/ARM/chtypes.h"
 769              		.file 6 "..//os/kernel/include/chlists.h"
 770              		.file 7 "..//os/kernel/include/chthreads.h"
 771              		.file 8 "..//os/ports/GCC/ARM/chcore.h"
 772              		.file 9 "..//os/kernel/include/chvt.h"
 773              		.file 10 "..//os/kernel/include/chschd.h"
 774              		.file 11 "..//os/kernel/include/chmtx.h"
 775              		.file 12 "..//os/kernel/include/chevents.h"
 776              		.file 13 "..//os/kernel/include/chregistry.h"
 777              		.file 14 "..//os/kernel/include/chqueues.h"
 778              		.file 15 "..//os/kernel/include/ch.h"
 779              		.file 16 "..//os/hal/platforms/BCM2835/bcm2835.h"
 780              		.file 17 "..//os/hal/platforms/BCM2835/pal_lld.h"
 781              		.file 18 "..//os/hal/include/i2c.h"
 782              		.file 19 "..//os/hal/platforms/BCM2835/i2c_lld.h"
 783              		.file 20 "..//os/hal/include/serial.h"
 784              		.file 21 "..//os/hal/include/spi.h"
 785              		.file 22 "..//os/hal/platforms/BCM2835/spi_lld.h"
 786              		.file 23 "..//os/hal/platforms/BCM2835/serial_lld.h"