ARM GAS  /var/folders/3j/4xdnk5197cv_b7cw3n33qk7r0000gn/T//ccUlDA21.s 			page 1


   1              		.cpu arm1176jz-s
   2              		.eabi_attribute 20, 1
   3              		.eabi_attribute 21, 1
   4              		.eabi_attribute 23, 3
   5              		.eabi_attribute 24, 1
   6              		.eabi_attribute 25, 1
   7              		.eabi_attribute 26, 1
   8              		.eabi_attribute 30, 2
   9              		.eabi_attribute 34, 1
  10              		.eabi_attribute 18, 4
  11              		.file	"i2c_lld.c"
  12              		.text
  13              	.Ltext0:
  14              		.cfi_sections	.debug_frame
  15              		.section	.text.i2c_lld_safety_timeout,"ax",%progbits
  16              		.align	2
  17              		.syntax unified
  18              		.arm
  19              		.fpu softvfp
  20              		.type	i2c_lld_safety_timeout, %function
  21              	i2c_lld_safety_timeout:
  22              	.LFB7:
  23              		.file 1 "..//os/hal/platforms/BCM2835/i2c_lld.c"
  24              		.loc 1 78 0
  25              		.cfi_startproc
  26              		@ args = 0, pretend = 0, frame = 0
  27              		@ frame_needed = 0, uses_anonymous_args = 0
  28              	.LVL0:
  29              		.loc 1 81 0
  30 0000 201090E5 		ldr	r1, [r0, #32]
  31 0004 000051E3 		cmp	r1, #0
  32 0008 1EFF2F01 		bxeq	lr
  33 000c 0030A0E1 		mov	r3, r0
  34              	.LBB2:
  35              		.loc 1 82 0
  36 0010 0C2090E5 		ldr	r2, [r0, #12]
  37              	.LVL1:
  38              		.loc 1 84 0
  39 0014 080090E5 		ldr	r0, [r0, #8]
  40              	.LVL2:
  41              	.LBE2:
  42              		.loc 1 78 0
  43 0018 04E02DE5 		str	lr, [sp, #-4]!
  44              		.cfi_def_cfa_offset 4
  45              		.cfi_offset 14, -4
  46              	.LBB3:
  47              		.loc 1 85 0
  48 001c 04E092E5 		ldr	lr, [r2, #4]
  49              		.loc 1 84 0
  50 0020 20C080E3 		orr	ip, r0, #32
  51 0024 08C083E5 		str	ip, [r3, #8]
  52              		.loc 1 85 0
  53 0028 020C1EE3 		tst	lr, #512
  54              		.loc 1 90 0
  55 002c 00C0A0E3 		mov	ip, #0
  56              		.loc 1 95 0
  57 0030 00E0E0E3 		mvn	lr, #0
ARM GAS  /var/folders/3j/4xdnk5197cv_b7cw3n33qk7r0000gn/T//ccUlDA21.s 			page 2


  58              		.loc 1 86 0
  59 0034 21008013 		orrne	r0, r0, #33
  60 0038 08008315 		strne	r0, [r3, #8]
  61              		.loc 1 87 0
  62 003c 040092E5 		ldr	r0, [r2, #4]
  63 0040 010C10E3 		tst	r0, #256
  64              		.loc 1 88 0
  65 0044 08009315 		ldrne	r0, [r3, #8]
  66 0048 04008013 		orrne	r0, r0, #4
  67 004c 08008315 		strne	r0, [r3, #8]
  68              		.loc 1 91 0
  69 0050 18009FE5 		ldr	r0, .L15
  70              		.loc 1 90 0
  71 0054 00C082E5 		str	ip, [r2]
  72              		.loc 1 91 0
  73 0058 040082E5 		str	r0, [r2, #4]
  74              	.LVL3:
  75              		.loc 1 94 0
  76 005c 20C083E5 		str	ip, [r3, #32]
  77              		.loc 1 96 0
  78 0060 0100A0E1 		mov	r0, r1
  79              		.loc 1 95 0
  80 0064 24E081E5 		str	lr, [r1, #36]
  81              	.LBE3:
  82              		.loc 1 99 0
  83 0068 04E09DE4 		ldr	lr, [sp], #4
  84              		.cfi_restore 14
  85              		.cfi_def_cfa_offset 0
  86              	.LBB4:
  87              		.loc 1 96 0
  88 006c FEFFFFEA 		b	chSchReadyI
  89              	.LVL4:
  90              	.L16:
  91              		.align	2
  92              	.L15:
  93 0070 02030000 		.word	770
  94              	.LBE4:
  95              		.cfi_endproc
  96              	.LFE7:
  97              		.size	i2c_lld_safety_timeout, .-i2c_lld_safety_timeout
  98              		.section	.text.i2c_lld_serve_interrupt,"ax",%progbits
  99              		.align	2
 100              		.global	i2c_lld_serve_interrupt
 101              		.syntax unified
 102              		.arm
 103              		.fpu softvfp
 104              		.type	i2c_lld_serve_interrupt, %function
 105              	i2c_lld_serve_interrupt:
 106              	.LFB8:
 107              		.loc 1 105 0
 108              		.cfi_startproc
 109              		@ args = 0, pretend = 0, frame = 0
 110              		@ frame_needed = 0, uses_anonymous_args = 0
 111              	.LVL5:
 112              		.loc 1 107 0
 113 0000 0C2090E5 		ldr	r2, [r0, #12]
 114              	.LVL6:
ARM GAS  /var/folders/3j/4xdnk5197cv_b7cw3n33qk7r0000gn/T//ccUlDA21.s 			page 3


 115              		.loc 1 108 0
 116 0004 041092E5 		ldr	r1, [r2, #4]
 117              	.LVL7:
 118              		.loc 1 110 0
 119 0008 030C11E3 		tst	r1, #768
 120 000c 0800000A 		beq	.L18
 121              		.loc 1 112 0
 122 0010 203090E5 		ldr	r3, [r0, #32]
 123 0014 000053E3 		cmp	r3, #0
 124 0018 1EFF2F01 		bxeq	lr
 125              	.LVL8:
 126              	.LBB5:
 127              		.loc 1 112 0 is_stmt 0 discriminator 1
 128 001c 0010A0E3 		mov	r1, #0
 129              	.LVL9:
 130 0020 0120E0E3 		mvn	r2, #1
 131              	.LVL10:
 132 0024 201080E5 		str	r1, [r0, #32]
 133 0028 0300A0E1 		mov	r0, r3
 134              	.LVL11:
 135 002c 242083E5 		str	r2, [r3, #36]
 136 0030 FEFFFFEA 		b	chSchReadyI
 137              	.LVL12:
 138              	.L18:
 139              	.LBE5:
 140              		.loc 1 114 0 is_stmt 1
 141 0034 020011E3 		tst	r1, #2
 142              		.loc 1 105 0
 143 0038 04E02DE5 		str	lr, [sp, #-4]!
 144              		.cfi_def_cfa_offset 4
 145              		.cfi_offset 14, -4
 146              		.loc 1 114 0
 147 003c 1A00000A 		beq	.L20
 148              		.loc 1 115 0
 149 0040 200011E3 		tst	r1, #32
 150 0044 0C00000A 		beq	.L21
 151 0048 3C3090E5 		ldr	r3, [r0, #60]
 152 004c 381090E5 		ldr	r1, [r0, #56]
 153              	.LVL13:
 154 0050 030051E1 		cmp	r1, r3
 155 0054 0800009A 		bls	.L21
 156              	.L22:
 157              		.loc 1 116 0
 158 0058 10C092E5 		ldr	ip, [r2, #16]
 159 005c 341090E5 		ldr	r1, [r0, #52]
 160 0060 01E083E2 		add	lr, r3, #1
 161 0064 3CE080E5 		str	lr, [r0, #60]
 162 0068 03C0C1E7 		strb	ip, [r1, r3]
 163              		.loc 1 115 0
 164 006c 3C3090E5 		ldr	r3, [r0, #60]
 165 0070 381090E5 		ldr	r1, [r0, #56]
 166 0074 010053E1 		cmp	r3, r1
 167 0078 F6FFFF3A 		bcc	.L22
 168              	.L21:
 169              		.loc 1 117 0
 170 007c 0010A0E3 		mov	r1, #0
 171              		.loc 1 119 0
ARM GAS  /var/folders/3j/4xdnk5197cv_b7cw3n33qk7r0000gn/T//ccUlDA21.s 			page 4


 172 0080 203090E5 		ldr	r3, [r0, #32]
 173              		.loc 1 118 0
 174 0084 BCC09FE5 		ldr	ip, .L51
 175              		.loc 1 119 0
 176 0088 010053E1 		cmp	r3, r1
 177              		.loc 1 117 0
 178 008c 001082E5 		str	r1, [r2]
 179              		.loc 1 118 0
 180 0090 04C082E5 		str	ip, [r2, #4]
 181              		.loc 1 119 0
 182 0094 04F09D04 		ldreq	pc, [sp], #4
 183              	.LVL14:
 184              	.LBB6:
 185              		.loc 1 119 0 is_stmt 0 discriminator 1
 186 0098 201080E5 		str	r1, [r0, #32]
 187              	.LBE6:
 188              		.loc 1 129 0 is_stmt 1 discriminator 1
 189 009c 04E09DE4 		ldr	lr, [sp], #4
 190              		.cfi_remember_state
 191              		.cfi_restore 14
 192              		.cfi_def_cfa_offset 0
 193              	.LBB7:
 194              		.loc 1 119 0 discriminator 1
 195 00a0 0300A0E1 		mov	r0, r3
 196              	.LVL15:
 197 00a4 241083E5 		str	r1, [r3, #36]
 198 00a8 FEFFFFEA 		b	chSchReadyI
 199              	.LVL16:
 200              	.L20:
 201              		.cfi_restore_state
 202              	.LBE7:
 203              		.loc 1 121 0
 204 00ac 040011E3 		tst	r1, #4
 205 00b0 1200000A 		beq	.L23
 206              		.loc 1 122 0
 207 00b4 303090E5 		ldr	r3, [r0, #48]
 208 00b8 2CC090E5 		ldr	ip, [r0, #44]
 209 00bc 0C0053E1 		cmp	r3, ip
 210 00c0 04F09D24 		ldrcs	pc, [sp], #4
 211 00c4 100011E3 		tst	r1, #16
 212 00c8 04F09D04 		ldreq	pc, [sp], #4
 213              		.loc 1 123 0
 214 00cc 28E090E5 		ldr	lr, [r0, #40]
 215 00d0 013043E2 		sub	r3, r3, #1
 216 00d4 01C04CE2 		sub	ip, ip, #1
 217 00d8 03308EE0 		add	r3, lr, r3
 218 00dc 0CC08EE0 		add	ip, lr, ip
 219 00e0 02E06EE2 		rsb	lr, lr, #2
 220              	.LVL17:
 221              	.L24:
 222 00e4 03108EE0 		add	r1, lr, r3
 223 00e8 301080E5 		str	r1, [r0, #48]
 224 00ec 0110F3E5 		ldrb	r1, [r3, #1]!	@ zero_extendqisi2
 225              		.loc 1 122 0
 226 00f0 0C0053E1 		cmp	r3, ip
 227              		.loc 1 123 0
 228 00f4 101082E5 		str	r1, [r2, #16]
ARM GAS  /var/folders/3j/4xdnk5197cv_b7cw3n33qk7r0000gn/T//ccUlDA21.s 			page 5


 229              		.loc 1 122 0
 230 00f8 F9FFFF1A 		bne	.L24
 231 00fc 04F09DE4 		ldr	pc, [sp], #4
 232              	.LVL18:
 233              	.L23:
 234              		.loc 1 125 0
 235 0100 080011E3 		tst	r1, #8
 236 0104 04F09D04 		ldreq	pc, [sp], #4
 237              		.loc 1 126 0
 238 0108 3C3090E5 		ldr	r3, [r0, #60]
 239 010c 38C090E5 		ldr	ip, [r0, #56]
 240 0110 03005CE1 		cmp	ip, r3
 241 0114 04F09D94 		ldrls	pc, [sp], #4
 242 0118 200011E3 		tst	r1, #32
 243 011c 04F09D04 		ldreq	pc, [sp], #4
 244              	.LVL19:
 245              	.L25:
 246              		.loc 1 127 0
 247 0120 10C092E5 		ldr	ip, [r2, #16]
 248 0124 341090E5 		ldr	r1, [r0, #52]
 249 0128 01E083E2 		add	lr, r3, #1
 250 012c 3CE080E5 		str	lr, [r0, #60]
 251 0130 03C0C1E7 		strb	ip, [r1, r3]
 252              		.loc 1 126 0
 253 0134 3C3090E5 		ldr	r3, [r0, #60]
 254 0138 381090E5 		ldr	r1, [r0, #56]
 255 013c 010053E1 		cmp	r3, r1
 256 0140 F6FFFF3A 		bcc	.L25
 257 0144 04F09DE4 		ldr	pc, [sp], #4
 258              	.L52:
 259              		.align	2
 260              	.L51:
 261 0148 02030000 		.word	770
 262              		.cfi_endproc
 263              	.LFE8:
 264              		.size	i2c_lld_serve_interrupt, .-i2c_lld_serve_interrupt
 265              		.section	.text.i2c_lld_init,"ax",%progbits
 266              		.align	2
 267              		.global	i2c_lld_init
 268              		.syntax unified
 269              		.arm
 270              		.fpu softvfp
 271              		.type	i2c_lld_init, %function
 272              	i2c_lld_init:
 273              	.LFB9:
 274              		.loc 1 140 0
 275              		.cfi_startproc
 276              		@ args = 0, pretend = 0, frame = 0
 277              		@ frame_needed = 0, uses_anonymous_args = 0
 278              		.loc 1 141 0
 279 0000 28309FE5 		ldr	r3, .L55
 280              		.loc 1 140 0
 281 0004 10402DE9 		push	{r4, lr}
 282              		.cfi_def_cfa_offset 8
 283              		.cfi_offset 4, -8
 284              		.cfi_offset 14, -4
 285              		.loc 1 141 0
ARM GAS  /var/folders/3j/4xdnk5197cv_b7cw3n33qk7r0000gn/T//ccUlDA21.s 			page 6


 286 0008 24209FE5 		ldr	r2, .L55+4
 287              		.loc 1 142 0
 288 000c 0300A0E1 		mov	r0, r3
 289              		.loc 1 141 0
 290 0010 0C2083E5 		str	r2, [r3, #12]
 291              		.loc 1 142 0
 292 0014 FEFFFFEB 		bl	i2cObjectInit
 293              	.LVL20:
 294              		.loc 1 146 0
 295 0018 1040BDE8 		pop	{r4, lr}
 296              		.cfi_restore 14
 297              		.cfi_restore 4
 298              		.cfi_def_cfa_offset 0
 299              		.loc 1 144 0
 300 001c 14309FE5 		ldr	r3, .L55+8
 301 0020 14209FE5 		ldr	r2, .L55+12
 302              		.loc 1 145 0
 303 0024 0300A0E1 		mov	r0, r3
 304              		.loc 1 144 0
 305 0028 0C2083E5 		str	r2, [r3, #12]
 306              		.loc 1 145 0
 307 002c FEFFFFEA 		b	i2cObjectInit
 308              	.LVL21:
 309              	.L56:
 310              		.align	2
 311              	.L55:
 312 0030 00000000 		.word	I2C0
 313 0034 00502020 		.word	538988544
 314 0038 00000000 		.word	I2C1
 315 003c 00408020 		.word	545275904
 316              		.cfi_endproc
 317              	.LFE9:
 318              		.size	i2c_lld_init, .-i2c_lld_init
 319              		.global	__aeabi_uidiv
 320              		.section	.text.i2c_lld_start,"ax",%progbits
 321              		.align	2
 322              		.global	i2c_lld_start
 323              		.syntax unified
 324              		.arm
 325              		.fpu softvfp
 326              		.type	i2c_lld_start, %function
 327              	i2c_lld_start:
 328              	.LFB10:
 329              		.loc 1 155 0
 330              		.cfi_startproc
 331              		@ args = 0, pretend = 0, frame = 0
 332              		@ frame_needed = 0, uses_anonymous_args = 0
 333              	.LVL22:
 334 0000 10402DE9 		push	{r4, lr}
 335              		.cfi_def_cfa_offset 8
 336              		.cfi_offset 4, -8
 337              		.cfi_offset 14, -4
 338              		.loc 1 155 0
 339 0004 0040A0E1 		mov	r4, r0
 340              		.loc 1 157 0
 341 0008 0410A0E3 		mov	r1, #4
 342 000c 0000A0E3 		mov	r0, #0
ARM GAS  /var/folders/3j/4xdnk5197cv_b7cw3n33qk7r0000gn/T//ccUlDA21.s 			page 7


 343              	.LVL23:
 344 0010 FEFFFFEB 		bl	bcm2835_gpio_fnsel
 345              	.LVL24:
 346              		.loc 1 158 0
 347 0014 0410A0E3 		mov	r1, #4
 348 0018 0100A0E3 		mov	r0, #1
 349 001c FEFFFFEB 		bl	bcm2835_gpio_fnsel
 350              	.LVL25:
 351              		.loc 1 161 0
 352 0020 0410A0E3 		mov	r1, #4
 353 0024 0200A0E3 		mov	r0, #2
 354 0028 FEFFFFEB 		bl	bcm2835_gpio_fnsel
 355              	.LVL26:
 356              		.loc 1 162 0
 357 002c 0410A0E3 		mov	r1, #4
 358 0030 0300A0E3 		mov	r0, #3
 359 0034 FEFFFFEB 		bl	bcm2835_gpio_fnsel
 360              	.LVL27:
 361              		.loc 1 164 0
 362 0038 042094E5 		ldr	r2, [r4, #4]
 363              		.loc 1 165 0
 364 003c 34309FE5 		ldr	r3, .L62
 365              		.loc 1 164 0
 366 0040 001092E5 		ldr	r1, [r2]
 367              	.LVL28:
 368              		.loc 1 165 0
 369 0044 000051E3 		cmp	r1, #0
 370 0048 03005111 		cmpne	r1, r3
 371 004c 0700000A 		beq	.L61
 372              		.loc 1 166 0
 373 0050 24009FE5 		ldr	r0, .L62+4
 374 0054 FEFFFFEB 		bl	__aeabi_uidiv
 375              	.LVL29:
 376 0058 0C2094E5 		ldr	r2, [r4, #12]
 377 005c 140082E5 		str	r0, [r2, #20]
 378              	.L59:
 379              		.loc 1 168 0
 380 0060 003092E5 		ldr	r3, [r2]
 381 0064 023983E3 		orr	r3, r3, #32768
 382 0068 003082E5 		str	r3, [r2]
 383              		.loc 1 169 0
 384 006c 1080BDE8 		pop	{r4, pc}
 385              	.LVL30:
 386              	.L61:
 387 0070 0C2094E5 		ldr	r2, [r4, #12]
 388 0074 F9FFFFEA 		b	.L59
 389              	.L63:
 390              		.align	2
 391              	.L62:
 392 0078 A0860100 		.word	100000
 393 007c 80D1F008 		.word	150000000
 394              		.cfi_endproc
 395              	.LFE10:
 396              		.size	i2c_lld_start, .-i2c_lld_start
 397              		.section	.text.i2c_lld_stop,"ax",%progbits
 398              		.align	2
 399              		.global	i2c_lld_stop
ARM GAS  /var/folders/3j/4xdnk5197cv_b7cw3n33qk7r0000gn/T//ccUlDA21.s 			page 8


 400              		.syntax unified
 401              		.arm
 402              		.fpu softvfp
 403              		.type	i2c_lld_stop, %function
 404              	i2c_lld_stop:
 405              	.LFB11:
 406              		.loc 1 178 0
 407              		.cfi_startproc
 408              		@ args = 0, pretend = 0, frame = 0
 409              		@ frame_needed = 0, uses_anonymous_args = 0
 410              	.LVL31:
 411              		.loc 1 180 0
 412 0000 0010A0E3 		mov	r1, #0
 413              		.loc 1 178 0
 414 0004 10402DE9 		push	{r4, lr}
 415              		.cfi_def_cfa_offset 8
 416              		.cfi_offset 4, -8
 417              		.cfi_offset 14, -4
 418              		.loc 1 178 0
 419 0008 0040A0E1 		mov	r4, r0
 420              		.loc 1 180 0
 421 000c 0100A0E1 		mov	r0, r1
 422              	.LVL32:
 423 0010 FEFFFFEB 		bl	bcm2835_gpio_fnsel
 424              	.LVL33:
 425              		.loc 1 181 0
 426 0014 0010A0E3 		mov	r1, #0
 427 0018 0100A0E3 		mov	r0, #1
 428 001c FEFFFFEB 		bl	bcm2835_gpio_fnsel
 429              	.LVL34:
 430              		.loc 1 183 0
 431 0020 0C2094E5 		ldr	r2, [r4, #12]
 432 0024 003092E5 		ldr	r3, [r2]
 433 0028 0239C3E3 		bic	r3, r3, #32768
 434 002c 003082E5 		str	r3, [r2]
 435              		.loc 1 184 0
 436 0030 1080BDE8 		pop	{r4, pc}
 437              		.cfi_endproc
 438              	.LFE11:
 439              		.size	i2c_lld_stop, .-i2c_lld_stop
 440              		.section	.text.i2c_lld_master_receive_timeout,"ax",%progbits
 441              		.align	2
 442              		.global	i2c_lld_master_receive_timeout
 443              		.syntax unified
 444              		.arm
 445              		.fpu softvfp
 446              		.type	i2c_lld_master_receive_timeout, %function
 447              	i2c_lld_master_receive_timeout:
 448              	.LFB13:
 449              		.loc 1 268 0
 450              		.cfi_startproc
 451              		@ args = 4, pretend = 0, frame = 24
 452              		@ frame_needed = 0, uses_anonymous_args = 0
 453              	.LVL35:
 454 0000 F0412DE9 		push	{r4, r5, r6, r7, r8, lr}
 455              		.cfi_def_cfa_offset 24
 456              		.cfi_offset 4, -24
ARM GAS  /var/folders/3j/4xdnk5197cv_b7cw3n33qk7r0000gn/T//ccUlDA21.s 			page 9


 457              		.cfi_offset 5, -20
 458              		.cfi_offset 6, -16
 459              		.cfi_offset 7, -12
 460              		.cfi_offset 8, -8
 461              		.cfi_offset 14, -4
 462 0004 18D04DE2 		sub	sp, sp, #24
 463              		.cfi_def_cfa_offset 48
 464              		.loc 1 268 0
 465 0008 30509DE5 		ldr	r5, [sp, #48]
 466 000c 0040A0E1 		mov	r4, r0
 467              		.loc 1 272 0
 468 0010 010075E3 		cmn	r5, #1
 469              		.loc 1 268 0
 470 0014 0170A0E1 		mov	r7, r1
 471 0018 0280A0E1 		mov	r8, r2
 472 001c 0360A0E1 		mov	r6, r3
 473              		.loc 1 272 0
 474 0020 0400000A 		beq	.L67
 475              		.loc 1 273 0
 476 0024 0030A0E1 		mov	r3, r0
 477              	.LVL36:
 478 0028 8C209FE5 		ldr	r2, .L79
 479              	.LVL37:
 480 002c 0510A0E1 		mov	r1, r5
 481              	.LVL38:
 482 0030 04008DE2 		add	r0, sp, #4
 483              	.LVL39:
 484 0034 FEFFFFEB 		bl	chVTSetI
 485              	.LVL40:
 486              	.L67:
 487              		.loc 1 276 0
 488 0038 0020A0E3 		mov	r2, #0
 489              		.loc 1 284 0
 490 003c 0C3094E5 		ldr	r3, [r4, #12]
 491              	.LVL41:
 492              		.loc 1 276 0
 493 0040 282084E5 		str	r2, [r4, #40]
 494              		.loc 1 277 0
 495 0044 2C2084E5 		str	r2, [r4, #44]
 496              		.loc 1 278 0
 497 0048 302084E5 		str	r2, [r4, #48]
 498              		.loc 1 281 0
 499 004c 3C2084E5 		str	r2, [r4, #60]
 500              		.loc 1 287 0
 501 0050 68109FE5 		ldr	r1, .L79+4
 502              		.loc 1 290 0
 503 0054 68209FE5 		ldr	r2, .L79+8
 504              		.loc 1 275 0
 505 0058 B472C4E1 		strh	r7, [r4, #36]	@ movhi
 506              		.loc 1 279 0
 507 005c 348084E5 		str	r8, [r4, #52]
 508              		.loc 1 280 0
 509 0060 386084E5 		str	r6, [r4, #56]
 510              		.loc 1 285 0
 511 0064 0C7083E5 		str	r7, [r3, #12]
 512              		.loc 1 286 0
 513 0068 086083E5 		str	r6, [r3, #8]
ARM GAS  /var/folders/3j/4xdnk5197cv_b7cw3n33qk7r0000gn/T//ccUlDA21.s 			page 10


 514              		.loc 1 287 0
 515 006c 041083E5 		str	r1, [r3, #4]
 516              		.loc 1 290 0
 517 0070 002083E5 		str	r2, [r3]
 518              		.loc 1 293 0
 519              		.syntax divided
 520              	@ 293 "..//os/hal/platforms/BCM2835/i2c_lld.c" 1
 521 0074 9FF021E3 		msr     CPSR_c, #0x9F
 522              	@ 0 "" 2
 523              		.loc 1 294 0
 524              		.arm
 525              		.syntax unified
 526 0078 48609FE5 		ldr	r6, .L79+12
 527              	.LVL42:
 528              		.loc 1 295 0
 529 007c 0200A0E3 		mov	r0, #2
 530              		.loc 1 294 0
 531 0080 183096E5 		ldr	r3, [r6, #24]
 532              	.LVL43:
 533 0084 203084E5 		str	r3, [r4, #32]
 534              		.loc 1 295 0
 535 0088 FEFFFFEB 		bl	chSchGoSleepS
 536              	.LVL44:
 537              		.loc 1 296 0
 538 008c 010075E3 		cmn	r5, #1
 539 0090 0400000A 		beq	.L68
 540              		.loc 1 296 0 is_stmt 0 discriminator 1
 541 0094 10309DE5 		ldr	r3, [sp, #16]
 542 0098 000053E3 		cmp	r3, #0
 543 009c 0100000A 		beq	.L68
 544              		.loc 1 297 0 is_stmt 1
 545 00a0 04008DE2 		add	r0, sp, #4
 546 00a4 FEFFFFEB 		bl	chVTResetI
 547              	.LVL45:
 548              	.L68:
 549              		.loc 1 298 0
 550              		.syntax divided
 551              	@ 298 "..//os/hal/platforms/BCM2835/i2c_lld.c" 1
 552 00a8 1FF021E3 		msr     CPSR_c, #0x1F
 553              	@ 0 "" 2
 554              		.loc 1 300 0
 555              		.arm
 556              		.syntax unified
 557 00ac 183096E5 		ldr	r3, [r6, #24]
 558              		.loc 1 301 0
 559 00b0 240093E5 		ldr	r0, [r3, #36]
 560 00b4 18D08DE2 		add	sp, sp, #24
 561              		.cfi_def_cfa_offset 24
 562              		@ sp needed
 563 00b8 F081BDE8 		pop	{r4, r5, r6, r7, r8, pc}
 564              	.LVL46:
 565              	.L80:
 566              		.align	2
 567              	.L79:
 568 00bc 00000000 		.word	i2c_lld_safety_timeout
 569 00c0 02030000 		.word	770
 570 00c4 91850000 		.word	34193
ARM GAS  /var/folders/3j/4xdnk5197cv_b7cw3n33qk7r0000gn/T//ccUlDA21.s 			page 11


 571 00c8 00000000 		.word	rlist
 572              		.cfi_endproc
 573              	.LFE13:
 574              		.size	i2c_lld_master_receive_timeout, .-i2c_lld_master_receive_timeout
 575              		.section	.text.i2c_lld_master_transmit_timeout,"ax",%progbits
 576              		.align	2
 577              		.global	i2c_lld_master_transmit_timeout
 578              		.syntax unified
 579              		.arm
 580              		.fpu softvfp
 581              		.type	i2c_lld_master_transmit_timeout, %function
 582              	i2c_lld_master_transmit_timeout:
 583              	.LFB12:
 584              		.loc 1 205 0
 585              		.cfi_startproc
 586              		@ args = 12, pretend = 0, frame = 24
 587              		@ frame_needed = 0, uses_anonymous_args = 0
 588              	.LVL47:
 589 0000 F0472DE9 		push	{r4, r5, r6, r7, r8, r9, r10, lr}
 590              		.cfi_def_cfa_offset 32
 591              		.cfi_offset 4, -32
 592              		.cfi_offset 5, -28
 593              		.cfi_offset 6, -24
 594              		.cfi_offset 7, -20
 595              		.cfi_offset 8, -16
 596              		.cfi_offset 9, -12
 597              		.cfi_offset 10, -8
 598              		.cfi_offset 14, -4
 599 0004 20D04DE2 		sub	sp, sp, #32
 600              		.cfi_def_cfa_offset 64
 601              		.loc 1 205 0
 602 0008 48509DE5 		ldr	r5, [sp, #72]
 603 000c 0040A0E1 		mov	r4, r0
 604              		.loc 1 209 0
 605 0010 010075E3 		cmn	r5, #1
 606              		.loc 1 205 0
 607 0014 0160A0E1 		mov	r6, r1
 608 0018 02A0A0E1 		mov	r10, r2
 609 001c 0390A0E1 		mov	r9, r3
 610 0020 40809DE5 		ldr	r8, [sp, #64]
 611 0024 4470DDE5 		ldrb	r7, [sp, #68]	@ zero_extendqisi2
 612              		.loc 1 209 0
 613 0028 0400000A 		beq	.L82
 614              		.loc 1 210 0
 615 002c 0030A0E1 		mov	r3, r0
 616              	.LVL48:
 617 0030 F8209FE5 		ldr	r2, .L105
 618              	.LVL49:
 619 0034 0510A0E1 		mov	r1, r5
 620              	.LVL50:
 621 0038 0C008DE2 		add	r0, sp, #12
 622              	.LVL51:
 623 003c FEFFFFEB 		bl	chVTSetI
 624              	.LVL52:
 625              	.L82:
 626              		.loc 1 215 0
 627 0040 0020A0E3 		mov	r2, #0
ARM GAS  /var/folders/3j/4xdnk5197cv_b7cw3n33qk7r0000gn/T//ccUlDA21.s 			page 12


 628              		.loc 1 220 0
 629 0044 0C3094E5 		ldr	r3, [r4, #12]
 630              	.LVL53:
 631              		.loc 1 223 0
 632 0048 E4109FE5 		ldr	r1, .L105+4
 633              		.loc 1 215 0
 634 004c 302084E5 		str	r2, [r4, #48]
 635              		.loc 1 218 0
 636 0050 3C2084E5 		str	r2, [r4, #60]
 637              		.loc 1 212 0
 638 0054 B462C4E1 		strh	r6, [r4, #36]	@ movhi
 639              		.loc 1 213 0
 640 0058 28A084E5 		str	r10, [r4, #40]
 641              		.loc 1 214 0
 642 005c 2C9084E5 		str	r9, [r4, #44]
 643              		.loc 1 216 0
 644 0060 348084E5 		str	r8, [r4, #52]
 645              		.loc 1 217 0
 646 0064 387084E5 		str	r7, [r4, #56]
 647              		.loc 1 221 0
 648 0068 0C6083E5 		str	r6, [r3, #12]
 649              		.loc 1 222 0
 650 006c 089083E5 		str	r9, [r3, #8]
 651              		.loc 1 223 0
 652 0070 041083E5 		str	r1, [r3, #4]
 653              		.loc 1 226 0
 654 0074 002093E5 		ldr	r2, [r3]
 655 0078 832C82E3 		orr	r2, r2, #33536
 656 007c 802082E3 		orr	r2, r2, #128
 657 0080 002083E5 		str	r2, [r3]
 658              		.loc 1 229 0
 659              		.syntax divided
 660              	@ 229 "..//os/hal/platforms/BCM2835/i2c_lld.c" 1
 661 0084 9FF021E3 		msr     CPSR_c, #0x9F
 662              	@ 0 "" 2
 663              		.loc 1 231 0
 664              		.arm
 665              		.syntax unified
 666 0088 A8909FE5 		ldr	r9, .L105+8
 667              	.LVL54:
 668              		.loc 1 232 0
 669 008c 0200A0E3 		mov	r0, #2
 670              		.loc 1 231 0
 671 0090 183099E5 		ldr	r3, [r9, #24]
 672              	.LVL55:
 673 0094 203084E5 		str	r3, [r4, #32]
 674              		.loc 1 232 0
 675 0098 FEFFFFEB 		bl	chSchGoSleepS
 676              	.LVL56:
 677              		.loc 1 233 0
 678 009c 010075E3 		cmn	r5, #1
 679 00a0 0400000A 		beq	.L83
 680              		.loc 1 233 0 is_stmt 0 discriminator 1
 681 00a4 18309DE5 		ldr	r3, [sp, #24]
 682 00a8 000053E3 		cmp	r3, #0
 683 00ac 0100000A 		beq	.L83
 684              		.loc 1 234 0 is_stmt 1
ARM GAS  /var/folders/3j/4xdnk5197cv_b7cw3n33qk7r0000gn/T//ccUlDA21.s 			page 13


 685 00b0 0C008DE2 		add	r0, sp, #12
 686 00b4 FEFFFFEB 		bl	chVTResetI
 687              	.LVL57:
 688              	.L83:
 689              		.loc 1 236 0
 690              		.syntax divided
 691              	@ 236 "..//os/hal/platforms/BCM2835/i2c_lld.c" 1
 692 00b8 1FF021E3 		msr     CPSR_c, #0x1F
 693              	@ 0 "" 2
 694              		.loc 1 238 0
 695              		.arm
 696              		.syntax unified
 697 00bc 182099E5 		ldr	r2, [r9, #24]
 698              		.loc 1 240 0
 699 00c0 003097E2 		adds	r3, r7, #0
 700              		.loc 1 238 0
 701 00c4 249092E5 		ldr	r9, [r2, #36]
 702              	.LVL58:
 703              		.loc 1 240 0
 704 00c8 0130A013 		movne	r3, #1
 705 00cc 000059E3 		cmp	r9, #0
 706 00d0 0030A013 		movne	r3, #0
 707 00d4 000053E3 		cmp	r3, #0
 708 00d8 0200001A 		bne	.L104
 709              	.L81:
 710              		.loc 1 249 0
 711 00dc 0900A0E1 		mov	r0, r9
 712 00e0 20D08DE2 		add	sp, sp, #32
 713              		.cfi_remember_state
 714              		.cfi_def_cfa_offset 32
 715              		@ sp needed
 716 00e4 F087BDE8 		pop	{r4, r5, r6, r7, r8, r9, r10, pc}
 717              	.LVL59:
 718              	.L104:
 719              		.cfi_restore_state
 720              		.loc 1 242 0
 721 00e8 00C0E0E3 		mvn	ip, #0
 722 00ec 0730A0E1 		mov	r3, r7
 723 00f0 0820A0E1 		mov	r2, r8
 724 00f4 0610A0E1 		mov	r1, r6
 725 00f8 0400A0E1 		mov	r0, r4
 726 00fc 00C08DE5 		str	ip, [sp]
 727 0100 FEFFFFEB 		bl	i2c_lld_master_receive_timeout
 728              	.LVL60:
 729              		.loc 1 244 0
 730 0104 010075E3 		cmn	r5, #1
 731              		.loc 1 242 0
 732 0108 0090A0E1 		mov	r9, r0
 733              	.LVL61:
 734              		.loc 1 244 0
 735 010c F2FFFF0A 		beq	.L81
 736              		.loc 1 244 0 is_stmt 0 discriminator 1
 737 0110 18309DE5 		ldr	r3, [sp, #24]
 738 0114 000053E3 		cmp	r3, #0
 739 0118 EFFFFF0A 		beq	.L81
 740              		.loc 1 245 0 is_stmt 1
 741 011c 0C008DE2 		add	r0, sp, #12
ARM GAS  /var/folders/3j/4xdnk5197cv_b7cw3n33qk7r0000gn/T//ccUlDA21.s 			page 14


 742              	.LVL62:
 743 0120 FEFFFFEB 		bl	chVTResetI
 744              	.LVL63:
 745              		.loc 1 249 0
 746 0124 0900A0E1 		mov	r0, r9
 747 0128 20D08DE2 		add	sp, sp, #32
 748              		.cfi_def_cfa_offset 32
 749              		@ sp needed
 750 012c F087BDE8 		pop	{r4, r5, r6, r7, r8, r9, r10, pc}
 751              	.LVL64:
 752              	.L106:
 753              		.align	2
 754              	.L105:
 755 0130 00000000 		.word	i2c_lld_safety_timeout
 756 0134 02030000 		.word	770
 757 0138 00000000 		.word	rlist
 758              		.cfi_endproc
 759              	.LFE12:
 760              		.size	i2c_lld_master_transmit_timeout, .-i2c_lld_master_transmit_timeout
 761              		.comm	I2C1,64,4
 762              		.comm	I2C0,64,4
 763              		.text
 764              	.Letext0:
 765              		.file 2 "/usr/local/Cellar/gcc-arm-none-eabi/20180627/lib/gcc/arm-none-eabi/7.3.1/include/stddef.h
 766              		.file 3 "/usr/local/Cellar/gcc-arm-none-eabi/20180627/arm-none-eabi/include/machine/_default_types
 767              		.file 4 "/usr/local/Cellar/gcc-arm-none-eabi/20180627/arm-none-eabi/include/sys/_stdint.h"
 768              		.file 5 "..//os/ports/GCC/ARM/chtypes.h"
 769              		.file 6 "..//os/kernel/include/chlists.h"
 770              		.file 7 "..//os/kernel/include/chthreads.h"
 771              		.file 8 "..//os/ports/GCC/ARM/chcore.h"
 772              		.file 9 "..//os/kernel/include/chvt.h"
 773              		.file 10 "..//os/kernel/include/chschd.h"
 774              		.file 11 "..//os/kernel/include/chmtx.h"
 775              		.file 12 "..//os/kernel/include/chevents.h"
 776              		.file 13 "..//os/kernel/include/chregistry.h"
 777              		.file 14 "..//os/kernel/include/chqueues.h"
 778              		.file 15 "..//os/kernel/include/ch.h"
 779              		.file 16 "..//os/hal/platforms/BCM2835/bcm2835.h"
 780              		.file 17 "..//os/hal/platforms/BCM2835/pal_lld.h"
 781              		.file 18 "..//os/hal/include/i2c.h"
 782              		.file 19 "..//os/hal/platforms/BCM2835/i2c_lld.h"
 783              		.file 20 "..//os/hal/include/serial.h"
 784              		.file 21 "..//os/hal/include/spi.h"
 785              		.file 22 "..//os/hal/platforms/BCM2835/spi_lld.h"
 786              		.file 23 "..//os/hal/platforms/BCM2835/serial_lld.h"
 787              		.section	.debug_info,"",%progbits
 788              	.Ldebug_info0:
 789 0000 98110000 		.4byte	0x1198
 790 0004 0400     		.2byte	0x4
 791 0006 00000000 		.4byte	.Ldebug_abbrev0
 792 000a 04       		.byte	0x4
 793 000b 01       		.uleb128 0x1
 794 000c D7010000 		.4byte	.LASF216
 795 0010 0C       		.byte	0xc
 796 0011 01090000 		.4byte	.LASF217
 797 0015 00000000 		.4byte	.LASF218
 798 0019 38000000 		.4byte	.Ldebug_ranges0+0x38
ARM GAS  /var/folders/3j/4xdnk5197cv_b7cw3n33qk7r0000gn/T//ccUlDA21.s 			page 15


 799 001d 00000000 		.4byte	0
 800 0021 00000000 		.4byte	.Ldebug_line0
 801 0025 02       		.uleb128 0x2
 802 0026 04       		.byte	0x4
 803 0027 05       		.byte	0x5
 804 0028 696E7400 		.ascii	"int\000"
 805 002c 03       		.uleb128 0x3
 806 002d 66000000 		.4byte	.LASF2
 807 0031 02       		.byte	0x2
 808 0032 D8       		.byte	0xd8
 809 0033 37000000 		.4byte	0x37
 810 0037 04       		.uleb128 0x4
 811 0038 04       		.byte	0x4
 812 0039 07       		.byte	0x7
 813 003a BA030000 		.4byte	.LASF0
 814 003e 05       		.uleb128 0x5
 815 003f 37000000 		.4byte	0x37
 816 0043 04       		.uleb128 0x4
 817 0044 01       		.byte	0x1
 818 0045 06       		.byte	0x6
 819 0046 39010000 		.4byte	.LASF1
 820 004a 03       		.uleb128 0x3
 821 004b 86000000 		.4byte	.LASF3
 822 004f 03       		.byte	0x3
 823 0050 2B       		.byte	0x2b
 824 0051 55000000 		.4byte	0x55
 825 0055 04       		.uleb128 0x4
 826 0056 01       		.byte	0x1
 827 0057 08       		.byte	0x8
 828 0058 71060000 		.4byte	.LASF4
 829 005c 04       		.uleb128 0x4
 830 005d 02       		.byte	0x2
 831 005e 05       		.byte	0x5
 832 005f 9E060000 		.4byte	.LASF5
 833 0063 03       		.uleb128 0x3
 834 0064 C9070000 		.4byte	.LASF6
 835 0068 03       		.byte	0x3
 836 0069 39       		.byte	0x39
 837 006a 6E000000 		.4byte	0x6e
 838 006e 04       		.uleb128 0x4
 839 006f 02       		.byte	0x2
 840 0070 07       		.byte	0x7
 841 0071 55040000 		.4byte	.LASF7
 842 0075 03       		.uleb128 0x3
 843 0076 07080000 		.4byte	.LASF8
 844 007a 03       		.byte	0x3
 845 007b 4D       		.byte	0x4d
 846 007c 80000000 		.4byte	0x80
 847 0080 04       		.uleb128 0x4
 848 0081 04       		.byte	0x4
 849 0082 05       		.byte	0x5
 850 0083 A5020000 		.4byte	.LASF9
 851 0087 03       		.uleb128 0x3
 852 0088 6D030000 		.4byte	.LASF10
 853 008c 03       		.byte	0x3
 854 008d 4F       		.byte	0x4f
 855 008e 92000000 		.4byte	0x92
ARM GAS  /var/folders/3j/4xdnk5197cv_b7cw3n33qk7r0000gn/T//ccUlDA21.s 			page 16


 856 0092 04       		.uleb128 0x4
 857 0093 04       		.byte	0x4
 858 0094 07       		.byte	0x7
 859 0095 F3030000 		.4byte	.LASF11
 860 0099 04       		.uleb128 0x4
 861 009a 08       		.byte	0x8
 862 009b 05       		.byte	0x5
 863 009c 2B010000 		.4byte	.LASF12
 864 00a0 04       		.uleb128 0x4
 865 00a1 08       		.byte	0x8
 866 00a2 07       		.byte	0x7
 867 00a3 BA000000 		.4byte	.LASF13
 868 00a7 03       		.uleb128 0x3
 869 00a8 F3080000 		.4byte	.LASF14
 870 00ac 04       		.byte	0x4
 871 00ad 18       		.byte	0x18
 872 00ae 4A000000 		.4byte	0x4a
 873 00b2 06       		.uleb128 0x6
 874 00b3 A7000000 		.4byte	0xa7
 875 00b7 03       		.uleb128 0x3
 876 00b8 E2020000 		.4byte	.LASF15
 877 00bc 04       		.byte	0x4
 878 00bd 24       		.byte	0x24
 879 00be 63000000 		.4byte	0x63
 880 00c2 03       		.uleb128 0x3
 881 00c3 69060000 		.4byte	.LASF16
 882 00c7 04       		.byte	0x4
 883 00c8 2C       		.byte	0x2c
 884 00c9 75000000 		.4byte	0x75
 885 00cd 03       		.uleb128 0x3
 886 00ce 53070000 		.4byte	.LASF17
 887 00d2 04       		.byte	0x4
 888 00d3 30       		.byte	0x30
 889 00d4 87000000 		.4byte	0x87
 890 00d8 05       		.uleb128 0x5
 891 00d9 CD000000 		.4byte	0xcd
 892 00dd 03       		.uleb128 0x3
 893 00de 9E040000 		.4byte	.LASF18
 894 00e2 05       		.byte	0x5
 895 00e3 2A       		.byte	0x2a
 896 00e4 A7000000 		.4byte	0xa7
 897 00e8 03       		.uleb128 0x3
 898 00e9 B9020000 		.4byte	.LASF19
 899 00ed 05       		.byte	0x5
 900 00ee 2B       		.byte	0x2b
 901 00ef A7000000 		.4byte	0xa7
 902 00f3 03       		.uleb128 0x3
 903 00f4 0B060000 		.4byte	.LASF20
 904 00f8 05       		.byte	0x5
 905 00f9 2C       		.byte	0x2c
 906 00fa A7000000 		.4byte	0xa7
 907 00fe 03       		.uleb128 0x3
 908 00ff 8A070000 		.4byte	.LASF21
 909 0103 05       		.byte	0x5
 910 0104 2D       		.byte	0x2d
 911 0105 A7000000 		.4byte	0xa7
 912 0109 03       		.uleb128 0x3
ARM GAS  /var/folders/3j/4xdnk5197cv_b7cw3n33qk7r0000gn/T//ccUlDA21.s 			page 17


 913 010a 3A060000 		.4byte	.LASF22
 914 010e 05       		.byte	0x5
 915 010f 2E       		.byte	0x2e
 916 0110 CD000000 		.4byte	0xcd
 917 0114 03       		.uleb128 0x3
 918 0115 7A040000 		.4byte	.LASF23
 919 0119 05       		.byte	0x5
 920 011a 2F       		.byte	0x2f
 921 011b C2000000 		.4byte	0xc2
 922 011f 03       		.uleb128 0x3
 923 0120 B2040000 		.4byte	.LASF24
 924 0124 05       		.byte	0x5
 925 0125 31       		.byte	0x31
 926 0126 CD000000 		.4byte	0xcd
 927 012a 03       		.uleb128 0x3
 928 012b 8E080000 		.4byte	.LASF25
 929 012f 05       		.byte	0x5
 930 0130 32       		.byte	0x32
 931 0131 CD000000 		.4byte	0xcd
 932 0135 03       		.uleb128 0x3
 933 0136 F2070000 		.4byte	.LASF26
 934 013a 05       		.byte	0x5
 935 013b 33       		.byte	0x33
 936 013c CD000000 		.4byte	0xcd
 937 0140 05       		.uleb128 0x5
 938 0141 35010000 		.4byte	0x135
 939 0145 03       		.uleb128 0x3
 940 0146 03070000 		.4byte	.LASF27
 941 014a 06       		.byte	0x6
 942 014b 23       		.byte	0x23
 943 014c 50010000 		.4byte	0x150
 944 0150 07       		.uleb128 0x7
 945 0151 03070000 		.4byte	.LASF27
 946 0155 44       		.byte	0x44
 947 0156 07       		.byte	0x7
 948 0157 57       		.byte	0x57
 949 0158 41020000 		.4byte	0x241
 950 015c 08       		.uleb128 0x8
 951 015d DD060000 		.4byte	.LASF28
 952 0161 07       		.byte	0x7
 953 0162 58       		.byte	0x58
 954 0163 62020000 		.4byte	0x262
 955 0167 00       		.byte	0
 956 0168 08       		.uleb128 0x8
 957 0169 33060000 		.4byte	.LASF29
 958 016d 07       		.byte	0x7
 959 016e 5A       		.byte	0x5a
 960 016f 62020000 		.4byte	0x262
 961 0173 04       		.byte	0x4
 962 0174 08       		.uleb128 0x8
 963 0175 00010000 		.4byte	.LASF30
 964 0179 07       		.byte	0x7
 965 017a 5C       		.byte	0x5c
 966 017b 09010000 		.4byte	0x109
 967 017f 08       		.byte	0x8
 968 0180 08       		.uleb128 0x8
 969 0181 A2090000 		.4byte	.LASF31
ARM GAS  /var/folders/3j/4xdnk5197cv_b7cw3n33qk7r0000gn/T//ccUlDA21.s 			page 18


 970 0185 07       		.byte	0x7
 971 0186 5D       		.byte	0x5d
 972 0187 1D030000 		.4byte	0x31d
 973 018b 0C       		.byte	0xc
 974 018c 08       		.uleb128 0x8
 975 018d 14030000 		.4byte	.LASF32
 976 0191 07       		.byte	0x7
 977 0192 5F       		.byte	0x5f
 978 0193 62020000 		.4byte	0x262
 979 0197 10       		.byte	0x10
 980 0198 08       		.uleb128 0x8
 981 0199 7B050000 		.4byte	.LASF33
 982 019d 07       		.byte	0x7
 983 019e 60       		.byte	0x60
 984 019f 62020000 		.4byte	0x262
 985 01a3 14       		.byte	0x14
 986 01a4 08       		.uleb128 0x8
 987 01a5 2F090000 		.4byte	.LASF34
 988 01a9 07       		.byte	0x7
 989 01aa 67       		.byte	0x67
 990 01ab 51050000 		.4byte	0x551
 991 01af 18       		.byte	0x18
 992 01b0 08       		.uleb128 0x8
 993 01b1 A8060000 		.4byte	.LASF35
 994 01b5 07       		.byte	0x7
 995 01b6 72       		.byte	0x72
 996 01b7 E8000000 		.4byte	0xe8
 997 01bb 1C       		.byte	0x1c
 998 01bc 08       		.uleb128 0x8
 999 01bd FB060000 		.4byte	.LASF36
 1000 01c1 07       		.byte	0x7
 1001 01c2 76       		.byte	0x76
 1002 01c3 DD000000 		.4byte	0xdd
 1003 01c7 1D       		.byte	0x1d
 1004 01c8 08       		.uleb128 0x8
 1005 01c9 CC080000 		.4byte	.LASF37
 1006 01cd 07       		.byte	0x7
 1007 01ce 7B       		.byte	0x7b
 1008 01cf F3000000 		.4byte	0xf3
 1009 01d3 1E       		.byte	0x1e
 1010 01d4 08       		.uleb128 0x8
 1011 01d5 B0060000 		.4byte	.LASF38
 1012 01d9 07       		.byte	0x7
 1013 01da 81       		.byte	0x81
 1014 01db FE000000 		.4byte	0xfe
 1015 01df 1F       		.byte	0x1f
 1016 01e0 08       		.uleb128 0x8
 1017 01e1 25080000 		.4byte	.LASF39
 1018 01e5 07       		.byte	0x7
 1019 01e6 88       		.byte	0x88
 1020 01e7 40010000 		.4byte	0x140
 1021 01eb 20       		.byte	0x20
 1022 01ec 09       		.uleb128 0x9
 1023 01ed 705F7500 		.ascii	"p_u\000"
 1024 01f1 07       		.byte	0x7
 1025 01f2 AD       		.byte	0xad
 1026 01f3 1C050000 		.4byte	0x51c
ARM GAS  /var/folders/3j/4xdnk5197cv_b7cw3n33qk7r0000gn/T//ccUlDA21.s 			page 19


 1027 01f7 24       		.byte	0x24
 1028 01f8 08       		.uleb128 0x8
 1029 01f9 A8090000 		.4byte	.LASF40
 1030 01fd 07       		.byte	0x7
 1031 01fe B2       		.byte	0xb2
 1032 01ff 88020000 		.4byte	0x288
 1033 0203 28       		.byte	0x28
 1034 0204 08       		.uleb128 0x8
 1035 0205 5E080000 		.4byte	.LASF41
 1036 0209 07       		.byte	0x7
 1037 020a B8       		.byte	0xb8
 1038 020b 68020000 		.4byte	0x268
 1039 020f 2C       		.byte	0x2c
 1040 0210 08       		.uleb128 0x8
 1041 0211 60000000 		.4byte	.LASF42
 1042 0215 07       		.byte	0x7
 1043 0216 BC       		.byte	0xbc
 1044 0217 14010000 		.4byte	0x114
 1045 021b 34       		.byte	0x34
 1046 021c 08       		.uleb128 0x8
 1047 021d 3E070000 		.4byte	.LASF43
 1048 0221 07       		.byte	0x7
 1049 0222 C2       		.byte	0xc2
 1050 0223 1F010000 		.4byte	0x11f
 1051 0227 38       		.byte	0x38
 1052 0228 08       		.uleb128 0x8
 1053 0229 94060000 		.4byte	.LASF44
 1054 022d 07       		.byte	0x7
 1055 022e C9       		.byte	0xc9
 1056 022f 63050000 		.4byte	0x563
 1057 0233 3C       		.byte	0x3c
 1058 0234 08       		.uleb128 0x8
 1059 0235 FC070000 		.4byte	.LASF45
 1060 0239 07       		.byte	0x7
 1061 023a CD       		.byte	0xcd
 1062 023b 09010000 		.4byte	0x109
 1063 023f 40       		.byte	0x40
 1064 0240 00       		.byte	0
 1065 0241 0A       		.uleb128 0xa
 1066 0242 08       		.byte	0x8
 1067 0243 06       		.byte	0x6
 1068 0244 5A       		.byte	0x5a
 1069 0245 62020000 		.4byte	0x262
 1070 0249 08       		.uleb128 0x8
 1071 024a DD060000 		.4byte	.LASF28
 1072 024e 06       		.byte	0x6
 1073 024f 5B       		.byte	0x5b
 1074 0250 62020000 		.4byte	0x262
 1075 0254 00       		.byte	0
 1076 0255 08       		.uleb128 0x8
 1077 0256 33060000 		.4byte	.LASF29
 1078 025a 06       		.byte	0x6
 1079 025b 5D       		.byte	0x5d
 1080 025c 62020000 		.4byte	0x262
 1081 0260 04       		.byte	0x4
 1082 0261 00       		.byte	0
 1083 0262 0B       		.uleb128 0xb
ARM GAS  /var/folders/3j/4xdnk5197cv_b7cw3n33qk7r0000gn/T//ccUlDA21.s 			page 20


 1084 0263 04       		.byte	0x4
 1085 0264 45010000 		.4byte	0x145
 1086 0268 03       		.uleb128 0x3
 1087 0269 99050000 		.4byte	.LASF46
 1088 026d 06       		.byte	0x6
 1089 026e 5F       		.byte	0x5f
 1090 026f 41020000 		.4byte	0x241
 1091 0273 0A       		.uleb128 0xa
 1092 0274 04       		.byte	0x4
 1093 0275 06       		.byte	0x6
 1094 0276 64       		.byte	0x64
 1095 0277 88020000 		.4byte	0x288
 1096 027b 08       		.uleb128 0x8
 1097 027c DD060000 		.4byte	.LASF28
 1098 0280 06       		.byte	0x6
 1099 0281 66       		.byte	0x66
 1100 0282 62020000 		.4byte	0x262
 1101 0286 00       		.byte	0
 1102 0287 00       		.byte	0
 1103 0288 03       		.uleb128 0x3
 1104 0289 A6040000 		.4byte	.LASF47
 1105 028d 06       		.byte	0x6
 1106 028e 69       		.byte	0x69
 1107 028f 73020000 		.4byte	0x273
 1108 0293 03       		.uleb128 0x3
 1109 0294 EA040000 		.4byte	.LASF48
 1110 0298 08       		.byte	0x8
 1111 0299 9D       		.byte	0x9d
 1112 029a CD000000 		.4byte	0xcd
 1113 029e 03       		.uleb128 0x3
 1114 029f 78030000 		.4byte	.LASF49
 1115 02a3 08       		.byte	0x8
 1116 02a4 A2       		.byte	0xa2
 1117 02a5 A9020000 		.4byte	0x2a9
 1118 02a9 0C       		.uleb128 0xc
 1119 02aa 04       		.byte	0x4
 1120 02ab 07       		.uleb128 0x7
 1121 02ac 57080000 		.4byte	.LASF50
 1122 02b0 24       		.byte	0x24
 1123 02b1 08       		.byte	0x8
 1124 02b2 B9       		.byte	0xb9
 1125 02b3 1D030000 		.4byte	0x31d
 1126 02b7 09       		.uleb128 0x9
 1127 02b8 723400   		.ascii	"r4\000"
 1128 02bb 08       		.byte	0x8
 1129 02bc BA       		.byte	0xba
 1130 02bd 9E020000 		.4byte	0x29e
 1131 02c1 00       		.byte	0
 1132 02c2 09       		.uleb128 0x9
 1133 02c3 723500   		.ascii	"r5\000"
 1134 02c6 08       		.byte	0x8
 1135 02c7 BB       		.byte	0xbb
 1136 02c8 9E020000 		.4byte	0x29e
 1137 02cc 04       		.byte	0x4
 1138 02cd 09       		.uleb128 0x9
 1139 02ce 723600   		.ascii	"r6\000"
 1140 02d1 08       		.byte	0x8
ARM GAS  /var/folders/3j/4xdnk5197cv_b7cw3n33qk7r0000gn/T//ccUlDA21.s 			page 21


 1141 02d2 BC       		.byte	0xbc
 1142 02d3 9E020000 		.4byte	0x29e
 1143 02d7 08       		.byte	0x8
 1144 02d8 09       		.uleb128 0x9
 1145 02d9 723700   		.ascii	"r7\000"
 1146 02dc 08       		.byte	0x8
 1147 02dd BD       		.byte	0xbd
 1148 02de 9E020000 		.4byte	0x29e
 1149 02e2 0C       		.byte	0xc
 1150 02e3 09       		.uleb128 0x9
 1151 02e4 723800   		.ascii	"r8\000"
 1152 02e7 08       		.byte	0x8
 1153 02e8 BE       		.byte	0xbe
 1154 02e9 9E020000 		.4byte	0x29e
 1155 02ed 10       		.byte	0x10
 1156 02ee 09       		.uleb128 0x9
 1157 02ef 723900   		.ascii	"r9\000"
 1158 02f2 08       		.byte	0x8
 1159 02f3 BF       		.byte	0xbf
 1160 02f4 9E020000 		.4byte	0x29e
 1161 02f8 14       		.byte	0x14
 1162 02f9 09       		.uleb128 0x9
 1163 02fa 72313000 		.ascii	"r10\000"
 1164 02fe 08       		.byte	0x8
 1165 02ff C0       		.byte	0xc0
 1166 0300 9E020000 		.4byte	0x29e
 1167 0304 18       		.byte	0x18
 1168 0305 09       		.uleb128 0x9
 1169 0306 72313100 		.ascii	"r11\000"
 1170 030a 08       		.byte	0x8
 1171 030b C1       		.byte	0xc1
 1172 030c 9E020000 		.4byte	0x29e
 1173 0310 1C       		.byte	0x1c
 1174 0311 09       		.uleb128 0x9
 1175 0312 6C7200   		.ascii	"lr\000"
 1176 0315 08       		.byte	0x8
 1177 0316 C2       		.byte	0xc2
 1178 0317 9E020000 		.4byte	0x29e
 1179 031b 20       		.byte	0x20
 1180 031c 00       		.byte	0
 1181 031d 07       		.uleb128 0x7
 1182 031e 4D040000 		.4byte	.LASF51
 1183 0322 04       		.byte	0x4
 1184 0323 08       		.byte	0x8
 1185 0324 CA       		.byte	0xca
 1186 0325 36030000 		.4byte	0x336
 1187 0329 09       		.uleb128 0x9
 1188 032a 72313300 		.ascii	"r13\000"
 1189 032e 08       		.byte	0x8
 1190 032f CB       		.byte	0xcb
 1191 0330 36030000 		.4byte	0x336
 1192 0334 00       		.byte	0
 1193 0335 00       		.byte	0
 1194 0336 0B       		.uleb128 0xb
 1195 0337 04       		.byte	0x4
 1196 0338 AB020000 		.4byte	0x2ab
 1197 033c 03       		.uleb128 0x3
ARM GAS  /var/folders/3j/4xdnk5197cv_b7cw3n33qk7r0000gn/T//ccUlDA21.s 			page 22


 1198 033d 1B040000 		.4byte	.LASF52
 1199 0341 09       		.byte	0x9
 1200 0342 4E       		.byte	0x4e
 1201 0343 47030000 		.4byte	0x347
 1202 0347 0B       		.uleb128 0xb
 1203 0348 04       		.byte	0x4
 1204 0349 4D030000 		.4byte	0x34d
 1205 034d 0D       		.uleb128 0xd
 1206 034e 58030000 		.4byte	0x358
 1207 0352 0E       		.uleb128 0xe
 1208 0353 A9020000 		.4byte	0x2a9
 1209 0357 00       		.byte	0
 1210 0358 03       		.uleb128 0x3
 1211 0359 70070000 		.4byte	.LASF53
 1212 035d 09       		.byte	0x9
 1213 035e 53       		.byte	0x53
 1214 035f 63030000 		.4byte	0x363
 1215 0363 07       		.uleb128 0x7
 1216 0364 70070000 		.4byte	.LASF53
 1217 0368 14       		.byte	0x14
 1218 0369 09       		.byte	0x9
 1219 036a 5A       		.byte	0x5a
 1220 036b AC030000 		.4byte	0x3ac
 1221 036f 08       		.uleb128 0x8
 1222 0370 C7030000 		.4byte	.LASF54
 1223 0374 09       		.byte	0x9
 1224 0375 5B       		.byte	0x5b
 1225 0376 AC030000 		.4byte	0x3ac
 1226 037a 00       		.byte	0
 1227 037b 08       		.uleb128 0x8
 1228 037c 81030000 		.4byte	.LASF55
 1229 0380 09       		.byte	0x9
 1230 0381 5D       		.byte	0x5d
 1231 0382 AC030000 		.4byte	0x3ac
 1232 0386 04       		.byte	0x4
 1233 0387 08       		.uleb128 0x8
 1234 0388 21050000 		.4byte	.LASF56
 1235 038c 09       		.byte	0x9
 1236 038d 5F       		.byte	0x5f
 1237 038e 35010000 		.4byte	0x135
 1238 0392 08       		.byte	0x8
 1239 0393 08       		.uleb128 0x8
 1240 0394 49050000 		.4byte	.LASF57
 1241 0398 09       		.byte	0x9
 1242 0399 60       		.byte	0x60
 1243 039a 3C030000 		.4byte	0x33c
 1244 039e 0C       		.byte	0xc
 1245 039f 08       		.uleb128 0x8
 1246 03a0 87080000 		.4byte	.LASF58
 1247 03a4 09       		.byte	0x9
 1248 03a5 62       		.byte	0x62
 1249 03a6 A9020000 		.4byte	0x2a9
 1250 03aa 10       		.byte	0x10
 1251 03ab 00       		.byte	0
 1252 03ac 0B       		.uleb128 0xb
 1253 03ad 04       		.byte	0x4
 1254 03ae 58030000 		.4byte	0x358
ARM GAS  /var/folders/3j/4xdnk5197cv_b7cw3n33qk7r0000gn/T//ccUlDA21.s 			page 23


 1255 03b2 0A       		.uleb128 0xa
 1256 03b3 10       		.byte	0x10
 1257 03b4 09       		.byte	0x9
 1258 03b5 6C       		.byte	0x6c
 1259 03b6 EB030000 		.4byte	0x3eb
 1260 03ba 08       		.uleb128 0x8
 1261 03bb C7030000 		.4byte	.LASF54
 1262 03bf 09       		.byte	0x9
 1263 03c0 6D       		.byte	0x6d
 1264 03c1 AC030000 		.4byte	0x3ac
 1265 03c5 00       		.byte	0
 1266 03c6 08       		.uleb128 0x8
 1267 03c7 81030000 		.4byte	.LASF55
 1268 03cb 09       		.byte	0x9
 1269 03cc 6F       		.byte	0x6f
 1270 03cd AC030000 		.4byte	0x3ac
 1271 03d1 04       		.byte	0x4
 1272 03d2 08       		.uleb128 0x8
 1273 03d3 21050000 		.4byte	.LASF56
 1274 03d7 09       		.byte	0x9
 1275 03d8 71       		.byte	0x71
 1276 03d9 35010000 		.4byte	0x135
 1277 03dd 08       		.byte	0x8
 1278 03de 08       		.uleb128 0x8
 1279 03df 36090000 		.4byte	.LASF59
 1280 03e3 09       		.byte	0x9
 1281 03e4 72       		.byte	0x72
 1282 03e5 40010000 		.4byte	0x140
 1283 03e9 0C       		.byte	0xc
 1284 03ea 00       		.byte	0
 1285 03eb 03       		.uleb128 0x3
 1286 03ec 69090000 		.4byte	.LASF60
 1287 03f0 09       		.byte	0x9
 1288 03f1 73       		.byte	0x73
 1289 03f2 B2030000 		.4byte	0x3b2
 1290 03f6 0F       		.uleb128 0xf
 1291 03f7 9B000000 		.4byte	.LASF68
 1292 03fb 09       		.byte	0x9
 1293 03fc D1       		.byte	0xd1
 1294 03fd EB030000 		.4byte	0x3eb
 1295 0401 0A       		.uleb128 0xa
 1296 0402 1C       		.byte	0x1c
 1297 0403 0A       		.byte	0xa
 1298 0404 57       		.byte	0x57
 1299 0405 52040000 		.4byte	0x452
 1300 0409 08       		.uleb128 0x8
 1301 040a 68070000 		.4byte	.LASF61
 1302 040e 0A       		.byte	0xa
 1303 040f 58       		.byte	0x58
 1304 0410 68020000 		.4byte	0x268
 1305 0414 00       		.byte	0
 1306 0415 08       		.uleb128 0x8
 1307 0416 C6060000 		.4byte	.LASF62
 1308 041a 0A       		.byte	0xa
 1309 041b 59       		.byte	0x59
 1310 041c 09010000 		.4byte	0x109
 1311 0420 08       		.byte	0x8
ARM GAS  /var/folders/3j/4xdnk5197cv_b7cw3n33qk7r0000gn/T//ccUlDA21.s 			page 24


 1312 0421 08       		.uleb128 0x8
 1313 0422 93050000 		.4byte	.LASF63
 1314 0426 0A       		.byte	0xa
 1315 0427 5B       		.byte	0x5b
 1316 0428 1D030000 		.4byte	0x31d
 1317 042c 0C       		.byte	0xc
 1318 042d 08       		.uleb128 0x8
 1319 042e 87040000 		.4byte	.LASF64
 1320 0432 0A       		.byte	0xa
 1321 0433 5E       		.byte	0x5e
 1322 0434 62020000 		.4byte	0x262
 1323 0438 10       		.byte	0x10
 1324 0439 08       		.uleb128 0x8
 1325 043a C0050000 		.4byte	.LASF65
 1326 043e 0A       		.byte	0xa
 1327 043f 5F       		.byte	0x5f
 1328 0440 62020000 		.4byte	0x262
 1329 0444 14       		.byte	0x14
 1330 0445 08       		.uleb128 0x8
 1331 0446 B6050000 		.4byte	.LASF66
 1332 044a 0A       		.byte	0xa
 1333 044b 62       		.byte	0x62
 1334 044c 62020000 		.4byte	0x262
 1335 0450 18       		.byte	0x18
 1336 0451 00       		.byte	0
 1337 0452 03       		.uleb128 0x3
 1338 0453 DA080000 		.4byte	.LASF67
 1339 0457 0A       		.byte	0xa
 1340 0458 64       		.byte	0x64
 1341 0459 01040000 		.4byte	0x401
 1342 045d 0F       		.uleb128 0xf
 1343 045e ED080000 		.4byte	.LASF69
 1344 0462 0A       		.byte	0xa
 1345 0463 68       		.byte	0x68
 1346 0464 52040000 		.4byte	0x452
 1347 0468 07       		.uleb128 0x7
 1348 0469 C9040000 		.4byte	.LASF70
 1349 046d 10       		.byte	0x10
 1350 046e 0B       		.byte	0xb
 1351 046f 25       		.byte	0x25
 1352 0470 99040000 		.4byte	0x499
 1353 0474 08       		.uleb128 0x8
 1354 0475 73010000 		.4byte	.LASF71
 1355 0479 0B       		.byte	0xb
 1356 047a 26       		.byte	0x26
 1357 047b 68020000 		.4byte	0x268
 1358 047f 00       		.byte	0
 1359 0480 08       		.uleb128 0x8
 1360 0481 87090000 		.4byte	.LASF72
 1361 0485 0B       		.byte	0xb
 1362 0486 28       		.byte	0x28
 1363 0487 62020000 		.4byte	0x262
 1364 048b 08       		.byte	0x8
 1365 048c 08       		.uleb128 0x8
 1366 048d EB070000 		.4byte	.LASF73
 1367 0491 0B       		.byte	0xb
 1368 0492 2A       		.byte	0x2a
ARM GAS  /var/folders/3j/4xdnk5197cv_b7cw3n33qk7r0000gn/T//ccUlDA21.s 			page 25


 1369 0493 99040000 		.4byte	0x499
 1370 0497 0C       		.byte	0xc
 1371 0498 00       		.byte	0
 1372 0499 0B       		.uleb128 0xb
 1373 049a 04       		.byte	0x4
 1374 049b 68040000 		.4byte	0x468
 1375 049f 03       		.uleb128 0x3
 1376 04a0 C9040000 		.4byte	.LASF70
 1377 04a4 0B       		.byte	0xb
 1378 04a5 2C       		.byte	0x2c
 1379 04a6 68040000 		.4byte	0x468
 1380 04aa 03       		.uleb128 0x3
 1381 04ab 49080000 		.4byte	.LASF74
 1382 04af 0C       		.byte	0xc
 1383 04b0 25       		.byte	0x25
 1384 04b1 B5040000 		.4byte	0x4b5
 1385 04b5 07       		.uleb128 0x7
 1386 04b6 49080000 		.4byte	.LASF74
 1387 04ba 10       		.byte	0x10
 1388 04bb 0C       		.byte	0xc
 1389 04bc 2A       		.byte	0x2a
 1390 04bd F2040000 		.4byte	0x4f2
 1391 04c1 08       		.uleb128 0x8
 1392 04c2 8F040000 		.4byte	.LASF75
 1393 04c6 0C       		.byte	0xc
 1394 04c7 2B       		.byte	0x2b
 1395 04c8 F2040000 		.4byte	0x4f2
 1396 04cc 00       		.byte	0
 1397 04cd 08       		.uleb128 0x8
 1398 04ce 7F060000 		.4byte	.LASF76
 1399 04d2 0C       		.byte	0xc
 1400 04d3 2E       		.byte	0x2e
 1401 04d4 62020000 		.4byte	0x262
 1402 04d8 04       		.byte	0x4
 1403 04d9 08       		.uleb128 0x8
 1404 04da C8050000 		.4byte	.LASF77
 1405 04de 0C       		.byte	0xc
 1406 04df 30       		.byte	0x30
 1407 04e0 1F010000 		.4byte	0x11f
 1408 04e4 08       		.byte	0x8
 1409 04e5 08       		.uleb128 0x8
 1410 04e6 8B060000 		.4byte	.LASF78
 1411 04ea 0C       		.byte	0xc
 1412 04eb 33       		.byte	0x33
 1413 04ec 2A010000 		.4byte	0x12a
 1414 04f0 0C       		.byte	0xc
 1415 04f1 00       		.byte	0
 1416 04f2 0B       		.uleb128 0xb
 1417 04f3 04       		.byte	0x4
 1418 04f4 AA040000 		.4byte	0x4aa
 1419 04f8 07       		.uleb128 0x7
 1420 04f9 AE030000 		.4byte	.LASF79
 1421 04fd 04       		.byte	0x4
 1422 04fe 0C       		.byte	0xc
 1423 04ff 3A       		.byte	0x3a
 1424 0500 11050000 		.4byte	0x511
 1425 0504 08       		.uleb128 0x8
ARM GAS  /var/folders/3j/4xdnk5197cv_b7cw3n33qk7r0000gn/T//ccUlDA21.s 			page 26


 1426 0505 41090000 		.4byte	.LASF80
 1427 0509 0C       		.byte	0xc
 1428 050a 3B       		.byte	0x3b
 1429 050b F2040000 		.4byte	0x4f2
 1430 050f 00       		.byte	0
 1431 0510 00       		.byte	0
 1432 0511 03       		.uleb128 0x3
 1433 0512 AE030000 		.4byte	.LASF79
 1434 0516 0C       		.byte	0xc
 1435 0517 3E       		.byte	0x3e
 1436 0518 F8040000 		.4byte	0x4f8
 1437 051c 10       		.uleb128 0x10
 1438 051d 04       		.byte	0x4
 1439 051e 07       		.byte	0x7
 1440 051f 8F       		.byte	0x8f
 1441 0520 51050000 		.4byte	0x551
 1442 0524 11       		.uleb128 0x11
 1443 0525 6D000000 		.4byte	.LASF81
 1444 0529 07       		.byte	0x7
 1445 052a 96       		.byte	0x96
 1446 052b 14010000 		.4byte	0x114
 1447 052f 11       		.uleb128 0x11
 1448 0530 DF000000 		.4byte	.LASF82
 1449 0534 07       		.byte	0x7
 1450 0535 9D       		.byte	0x9d
 1451 0536 14010000 		.4byte	0x114
 1452 053a 11       		.uleb128 0x11
 1453 053b 28090000 		.4byte	.LASF83
 1454 053f 07       		.byte	0x7
 1455 0540 A4       		.byte	0xa4
 1456 0541 A9020000 		.4byte	0x2a9
 1457 0545 11       		.uleb128 0x11
 1458 0546 D6060000 		.4byte	.LASF84
 1459 054a 07       		.byte	0x7
 1460 054b AB       		.byte	0xab
 1461 054c 1F010000 		.4byte	0x11f
 1462 0550 00       		.byte	0
 1463 0551 0B       		.uleb128 0xb
 1464 0552 04       		.byte	0x4
 1465 0553 5E050000 		.4byte	0x55e
 1466 0557 04       		.uleb128 0x4
 1467 0558 01       		.byte	0x1
 1468 0559 08       		.byte	0x8
 1469 055a 99070000 		.4byte	.LASF85
 1470 055e 06       		.uleb128 0x6
 1471 055f 57050000 		.4byte	0x557
 1472 0563 0B       		.uleb128 0xb
 1473 0564 04       		.byte	0x4
 1474 0565 9F040000 		.4byte	0x49f
 1475 0569 0B       		.uleb128 0xb
 1476 056a 04       		.byte	0x4
 1477 056b 6F050000 		.4byte	0x56f
 1478 056f 12       		.uleb128 0x12
 1479 0570 14010000 		.4byte	0x114
 1480 0574 7E050000 		.4byte	0x57e
 1481 0578 0E       		.uleb128 0xe
 1482 0579 A9020000 		.4byte	0x2a9
ARM GAS  /var/folders/3j/4xdnk5197cv_b7cw3n33qk7r0000gn/T//ccUlDA21.s 			page 27


 1483 057d 00       		.byte	0
 1484 057e 0A       		.uleb128 0xa
 1485 057f 16       		.byte	0x16
 1486 0580 0D       		.byte	0xd
 1487 0581 25       		.byte	0x25
 1488 0582 5F060000 		.4byte	0x65f
 1489 0586 08       		.uleb128 0x8
 1490 0587 24040000 		.4byte	.LASF86
 1491 058b 0D       		.byte	0xd
 1492 058c 26       		.byte	0x26
 1493 058d 5F060000 		.4byte	0x65f
 1494 0591 00       		.byte	0
 1495 0592 08       		.uleb128 0x8
 1496 0593 02050000 		.4byte	.LASF87
 1497 0597 0D       		.byte	0xd
 1498 0598 27       		.byte	0x27
 1499 0599 A7000000 		.4byte	0xa7
 1500 059d 04       		.byte	0x4
 1501 059e 08       		.uleb128 0x8
 1502 059f A6050000 		.4byte	.LASF88
 1503 05a3 0D       		.byte	0xd
 1504 05a4 28       		.byte	0x28
 1505 05a5 A7000000 		.4byte	0xa7
 1506 05a9 05       		.byte	0x5
 1507 05aa 08       		.uleb128 0x8
 1508 05ab 53090000 		.4byte	.LASF89
 1509 05af 0D       		.byte	0xd
 1510 05b0 29       		.byte	0x29
 1511 05b1 B7000000 		.4byte	0xb7
 1512 05b5 06       		.byte	0x6
 1513 05b6 08       		.uleb128 0x8
 1514 05b7 1E060000 		.4byte	.LASF90
 1515 05bb 0D       		.byte	0xd
 1516 05bc 2A       		.byte	0x2a
 1517 05bd A7000000 		.4byte	0xa7
 1518 05c1 08       		.byte	0x8
 1519 05c2 08       		.uleb128 0x8
 1520 05c3 51050000 		.4byte	.LASF91
 1521 05c7 0D       		.byte	0xd
 1522 05c8 2B       		.byte	0x2b
 1523 05c9 A7000000 		.4byte	0xa7
 1524 05cd 09       		.byte	0x9
 1525 05ce 08       		.uleb128 0x8
 1526 05cf D1000000 		.4byte	.LASF92
 1527 05d3 0D       		.byte	0xd
 1528 05d4 2C       		.byte	0x2c
 1529 05d5 A7000000 		.4byte	0xa7
 1530 05d9 0A       		.byte	0xa
 1531 05da 08       		.uleb128 0x8
 1532 05db 5C070000 		.4byte	.LASF93
 1533 05df 0D       		.byte	0xd
 1534 05e0 2D       		.byte	0x2d
 1535 05e1 A7000000 		.4byte	0xa7
 1536 05e5 0B       		.byte	0xb
 1537 05e6 08       		.uleb128 0x8
 1538 05e7 B4080000 		.4byte	.LASF94
 1539 05eb 0D       		.byte	0xd
ARM GAS  /var/folders/3j/4xdnk5197cv_b7cw3n33qk7r0000gn/T//ccUlDA21.s 			page 28


 1540 05ec 2E       		.byte	0x2e
 1541 05ed A7000000 		.4byte	0xa7
 1542 05f1 0C       		.byte	0xc
 1543 05f2 08       		.uleb128 0x8
 1544 05f3 18070000 		.4byte	.LASF95
 1545 05f7 0D       		.byte	0xd
 1546 05f8 2F       		.byte	0x2f
 1547 05f9 A7000000 		.4byte	0xa7
 1548 05fd 0D       		.byte	0xd
 1549 05fe 08       		.uleb128 0x8
 1550 05ff 53000000 		.4byte	.LASF96
 1551 0603 0D       		.byte	0xd
 1552 0604 30       		.byte	0x30
 1553 0605 A7000000 		.4byte	0xa7
 1554 0609 0E       		.byte	0xe
 1555 060a 08       		.uleb128 0x8
 1556 060b 66050000 		.4byte	.LASF97
 1557 060f 0D       		.byte	0xd
 1558 0610 31       		.byte	0x31
 1559 0611 A7000000 		.4byte	0xa7
 1560 0615 0F       		.byte	0xf
 1561 0616 08       		.uleb128 0x8
 1562 0617 45010000 		.4byte	.LASF98
 1563 061b 0D       		.byte	0xd
 1564 061c 32       		.byte	0x32
 1565 061d A7000000 		.4byte	0xa7
 1566 0621 10       		.byte	0x10
 1567 0622 08       		.uleb128 0x8
 1568 0623 07010000 		.4byte	.LASF99
 1569 0627 0D       		.byte	0xd
 1570 0628 34       		.byte	0x34
 1571 0629 A7000000 		.4byte	0xa7
 1572 062d 11       		.byte	0x11
 1573 062e 08       		.uleb128 0x8
 1574 062f 5E010000 		.4byte	.LASF100
 1575 0633 0D       		.byte	0xd
 1576 0634 35       		.byte	0x35
 1577 0635 A7000000 		.4byte	0xa7
 1578 0639 12       		.byte	0x12
 1579 063a 08       		.uleb128 0x8
 1580 063b 0A050000 		.4byte	.LASF101
 1581 063f 0D       		.byte	0xd
 1582 0640 36       		.byte	0x36
 1583 0641 A7000000 		.4byte	0xa7
 1584 0645 13       		.byte	0x13
 1585 0646 08       		.uleb128 0x8
 1586 0647 EC060000 		.4byte	.LASF102
 1587 064b 0D       		.byte	0xd
 1588 064c 37       		.byte	0x37
 1589 064d A7000000 		.4byte	0xa7
 1590 0651 14       		.byte	0x14
 1591 0652 08       		.uleb128 0x8
 1592 0653 BA060000 		.4byte	.LASF103
 1593 0657 0D       		.byte	0xd
 1594 0658 39       		.byte	0x39
 1595 0659 A7000000 		.4byte	0xa7
 1596 065d 15       		.byte	0x15
ARM GAS  /var/folders/3j/4xdnk5197cv_b7cw3n33qk7r0000gn/T//ccUlDA21.s 			page 29


 1597 065e 00       		.byte	0
 1598 065f 13       		.uleb128 0x13
 1599 0660 57050000 		.4byte	0x557
 1600 0664 6F060000 		.4byte	0x66f
 1601 0668 14       		.uleb128 0x14
 1602 0669 37000000 		.4byte	0x37
 1603 066d 03       		.byte	0x3
 1604 066e 00       		.byte	0
 1605 066f 03       		.uleb128 0x3
 1606 0670 F0020000 		.4byte	.LASF104
 1607 0674 0D       		.byte	0xd
 1608 0675 3A       		.byte	0x3a
 1609 0676 7E050000 		.4byte	0x57e
 1610 067a 06       		.uleb128 0x6
 1611 067b 6F060000 		.4byte	0x66f
 1612 067f 0F       		.uleb128 0xf
 1613 0680 05040000 		.4byte	.LASF105
 1614 0684 0D       		.byte	0xd
 1615 0685 77       		.byte	0x77
 1616 0686 7A060000 		.4byte	0x67a
 1617 068a 03       		.uleb128 0x3
 1618 068b DD040000 		.4byte	.LASF106
 1619 068f 0E       		.byte	0xe
 1620 0690 30       		.byte	0x30
 1621 0691 95060000 		.4byte	0x695
 1622 0695 07       		.uleb128 0x7
 1623 0696 DD040000 		.4byte	.LASF106
 1624 069a 24       		.byte	0x24
 1625 069b 0E       		.byte	0xe
 1626 069c 3E       		.byte	0x3e
 1627 069d 02070000 		.4byte	0x702
 1628 06a1 08       		.uleb128 0x8
 1629 06a2 21010000 		.4byte	.LASF107
 1630 06a6 0E       		.byte	0xe
 1631 06a7 3F       		.byte	0x3f
 1632 06a8 68020000 		.4byte	0x268
 1633 06ac 00       		.byte	0
 1634 06ad 08       		.uleb128 0x8
 1635 06ae 3F050000 		.4byte	.LASF108
 1636 06b2 0E       		.byte	0xe
 1637 06b3 40       		.byte	0x40
 1638 06b4 2C000000 		.4byte	0x2c
 1639 06b8 08       		.byte	0x8
 1640 06b9 08       		.uleb128 0x8
 1641 06ba D9020000 		.4byte	.LASF109
 1642 06be 0E       		.byte	0xe
 1643 06bf 41       		.byte	0x41
 1644 06c0 24070000 		.4byte	0x724
 1645 06c4 0C       		.byte	0xc
 1646 06c5 08       		.uleb128 0x8
 1647 06c6 B4000000 		.4byte	.LASF110
 1648 06ca 0E       		.byte	0xe
 1649 06cb 42       		.byte	0x42
 1650 06cc 24070000 		.4byte	0x724
 1651 06d0 10       		.byte	0x10
 1652 06d1 08       		.uleb128 0x8
 1653 06d2 8B050000 		.4byte	.LASF111
ARM GAS  /var/folders/3j/4xdnk5197cv_b7cw3n33qk7r0000gn/T//ccUlDA21.s 			page 30


 1654 06d6 0E       		.byte	0xe
 1655 06d7 44       		.byte	0x44
 1656 06d8 24070000 		.4byte	0x724
 1657 06dc 14       		.byte	0x14
 1658 06dd 08       		.uleb128 0x8
 1659 06de 42060000 		.4byte	.LASF112
 1660 06e2 0E       		.byte	0xe
 1661 06e3 45       		.byte	0x45
 1662 06e4 24070000 		.4byte	0x724
 1663 06e8 18       		.byte	0x18
 1664 06e9 08       		.uleb128 0x8
 1665 06ea E4080000 		.4byte	.LASF113
 1666 06ee 0E       		.byte	0xe
 1667 06ef 46       		.byte	0x46
 1668 06f0 02070000 		.4byte	0x702
 1669 06f4 1C       		.byte	0x1c
 1670 06f5 08       		.uleb128 0x8
 1671 06f6 70090000 		.4byte	.LASF114
 1672 06fa 0E       		.byte	0xe
 1673 06fb 47       		.byte	0x47
 1674 06fc A9020000 		.4byte	0x2a9
 1675 0700 20       		.byte	0x20
 1676 0701 00       		.byte	0
 1677 0702 03       		.uleb128 0x3
 1678 0703 29060000 		.4byte	.LASF115
 1679 0707 0E       		.byte	0xe
 1680 0708 33       		.byte	0x33
 1681 0709 0D070000 		.4byte	0x70d
 1682 070d 0B       		.uleb128 0xb
 1683 070e 04       		.byte	0x4
 1684 070f 13070000 		.4byte	0x713
 1685 0713 0D       		.uleb128 0xd
 1686 0714 1E070000 		.4byte	0x71e
 1687 0718 0E       		.uleb128 0xe
 1688 0719 1E070000 		.4byte	0x71e
 1689 071d 00       		.byte	0
 1690 071e 0B       		.uleb128 0xb
 1691 071f 04       		.byte	0x4
 1692 0720 8A060000 		.4byte	0x68a
 1693 0724 0B       		.uleb128 0xb
 1694 0725 04       		.byte	0x4
 1695 0726 A7000000 		.4byte	0xa7
 1696 072a 03       		.uleb128 0x3
 1697 072b BE040000 		.4byte	.LASF116
 1698 072f 0E       		.byte	0xe
 1699 0730 7B       		.byte	0x7b
 1700 0731 8A060000 		.4byte	0x68a
 1701 0735 03       		.uleb128 0x3
 1702 0736 7A000000 		.4byte	.LASF117
 1703 073a 0E       		.byte	0xe
 1704 073b EE       		.byte	0xee
 1705 073c 8A060000 		.4byte	0x68a
 1706 0740 12       		.uleb128 0x12
 1707 0741 2C000000 		.4byte	0x2c
 1708 0745 59070000 		.4byte	0x759
 1709 0749 0E       		.uleb128 0xe
 1710 074a A9020000 		.4byte	0x2a9
ARM GAS  /var/folders/3j/4xdnk5197cv_b7cw3n33qk7r0000gn/T//ccUlDA21.s 			page 31


 1711 074e 0E       		.uleb128 0xe
 1712 074f 59070000 		.4byte	0x759
 1713 0753 0E       		.uleb128 0xe
 1714 0754 2C000000 		.4byte	0x2c
 1715 0758 00       		.byte	0
 1716 0759 0B       		.uleb128 0xb
 1717 075a 04       		.byte	0x4
 1718 075b B2000000 		.4byte	0xb2
 1719 075f 0B       		.uleb128 0xb
 1720 0760 04       		.byte	0x4
 1721 0761 40070000 		.4byte	0x740
 1722 0765 12       		.uleb128 0x12
 1723 0766 2C000000 		.4byte	0x2c
 1724 076a 7E070000 		.4byte	0x77e
 1725 076e 0E       		.uleb128 0xe
 1726 076f A9020000 		.4byte	0x2a9
 1727 0773 0E       		.uleb128 0xe
 1728 0774 24070000 		.4byte	0x724
 1729 0778 0E       		.uleb128 0xe
 1730 0779 2C000000 		.4byte	0x2c
 1731 077d 00       		.byte	0
 1732 077e 0B       		.uleb128 0xb
 1733 077f 04       		.byte	0x4
 1734 0780 65070000 		.4byte	0x765
 1735 0784 12       		.uleb128 0x12
 1736 0785 14010000 		.4byte	0x114
 1737 0789 98070000 		.4byte	0x798
 1738 078d 0E       		.uleb128 0xe
 1739 078e A9020000 		.4byte	0x2a9
 1740 0792 0E       		.uleb128 0xe
 1741 0793 A7000000 		.4byte	0xa7
 1742 0797 00       		.byte	0
 1743 0798 0B       		.uleb128 0xb
 1744 0799 04       		.byte	0x4
 1745 079a 84070000 		.4byte	0x784
 1746 079e 13       		.uleb128 0x13
 1747 079f 93020000 		.4byte	0x293
 1748 07a3 AE070000 		.4byte	0x7ae
 1749 07a7 14       		.uleb128 0x14
 1750 07a8 37000000 		.4byte	0x37
 1751 07ac 26       		.byte	0x26
 1752 07ad 00       		.byte	0
 1753 07ae 0F       		.uleb128 0xf
 1754 07af 1C030000 		.4byte	.LASF118
 1755 07b3 0F       		.byte	0xf
 1756 07b4 82       		.byte	0x82
 1757 07b5 9E070000 		.4byte	0x79e
 1758 07b9 07       		.uleb128 0x7
 1759 07ba A2000000 		.4byte	.LASF119
 1760 07be 20       		.byte	0x20
 1761 07bf 10       		.byte	0x10
 1762 07c0 FD       		.byte	0xfd
 1763 07c1 2C080000 		.4byte	0x82c
 1764 07c5 08       		.uleb128 0x8
 1765 07c6 65030000 		.4byte	.LASF120
 1766 07ca 10       		.byte	0x10
 1767 07cb FE       		.byte	0xfe
ARM GAS  /var/folders/3j/4xdnk5197cv_b7cw3n33qk7r0000gn/T//ccUlDA21.s 			page 32


 1768 07cc 3E000000 		.4byte	0x3e
 1769 07d0 00       		.byte	0
 1770 07d1 08       		.uleb128 0x8
 1771 07d2 D3080000 		.4byte	.LASF121
 1772 07d6 10       		.byte	0x10
 1773 07d7 FF       		.byte	0xff
 1774 07d8 3E000000 		.4byte	0x3e
 1775 07dc 04       		.byte	0x4
 1776 07dd 15       		.uleb128 0x15
 1777 07de 5E090000 		.4byte	.LASF122
 1778 07e2 10       		.byte	0x10
 1779 07e3 0001     		.2byte	0x100
 1780 07e5 3E000000 		.4byte	0x3e
 1781 07e9 08       		.byte	0x8
 1782 07ea 15       		.uleb128 0x15
 1783 07eb 89030000 		.4byte	.LASF123
 1784 07ef 10       		.byte	0x10
 1785 07f0 0101     		.2byte	0x101
 1786 07f2 3E000000 		.4byte	0x3e
 1787 07f6 0C       		.byte	0xc
 1788 07f7 15       		.uleb128 0x15
 1789 07f8 F7000000 		.4byte	.LASF124
 1790 07fc 10       		.byte	0x10
 1791 07fd 0201     		.2byte	0x102
 1792 07ff 3E000000 		.4byte	0x3e
 1793 0803 10       		.byte	0x10
 1794 0804 15       		.uleb128 0x15
 1795 0805 32050000 		.4byte	.LASF125
 1796 0809 10       		.byte	0x10
 1797 080a 0301     		.2byte	0x103
 1798 080c 3E000000 		.4byte	0x3e
 1799 0810 14       		.byte	0x14
 1800 0811 15       		.uleb128 0x15
 1801 0812 C9020000 		.4byte	.LASF126
 1802 0816 10       		.byte	0x10
 1803 0817 0401     		.2byte	0x104
 1804 0819 3E000000 		.4byte	0x3e
 1805 081d 18       		.byte	0x18
 1806 081e 15       		.uleb128 0x15
 1807 081f BA090000 		.4byte	.LASF127
 1808 0823 10       		.byte	0x10
 1809 0824 0501     		.2byte	0x105
 1810 0826 3E000000 		.4byte	0x3e
 1811 082a 1C       		.byte	0x1c
 1812 082b 00       		.byte	0
 1813 082c 16       		.uleb128 0x16
 1814 082d A2000000 		.4byte	.LASF119
 1815 0831 10       		.byte	0x10
 1816 0832 0801     		.2byte	0x108
 1817 0834 B9070000 		.4byte	0x7b9
 1818 0838 12       		.uleb128 0x12
 1819 0839 14010000 		.4byte	0x114
 1820 083d 51080000 		.4byte	0x851
 1821 0841 0E       		.uleb128 0xe
 1822 0842 A9020000 		.4byte	0x2a9
 1823 0846 0E       		.uleb128 0xe
 1824 0847 A7000000 		.4byte	0xa7
ARM GAS  /var/folders/3j/4xdnk5197cv_b7cw3n33qk7r0000gn/T//ccUlDA21.s 			page 33


 1825 084b 0E       		.uleb128 0xe
 1826 084c 35010000 		.4byte	0x135
 1827 0850 00       		.byte	0
 1828 0851 0B       		.uleb128 0xb
 1829 0852 04       		.byte	0x4
 1830 0853 38080000 		.4byte	0x838
 1831 0857 12       		.uleb128 0x12
 1832 0858 14010000 		.4byte	0x114
 1833 085c 6B080000 		.4byte	0x86b
 1834 0860 0E       		.uleb128 0xe
 1835 0861 A9020000 		.4byte	0x2a9
 1836 0865 0E       		.uleb128 0xe
 1837 0866 35010000 		.4byte	0x135
 1838 086a 00       		.byte	0
 1839 086b 0B       		.uleb128 0xb
 1840 086c 04       		.byte	0x4
 1841 086d 57080000 		.4byte	0x857
 1842 0871 12       		.uleb128 0x12
 1843 0872 2C000000 		.4byte	0x2c
 1844 0876 8F080000 		.4byte	0x88f
 1845 087a 0E       		.uleb128 0xe
 1846 087b A9020000 		.4byte	0x2a9
 1847 087f 0E       		.uleb128 0xe
 1848 0880 59070000 		.4byte	0x759
 1849 0884 0E       		.uleb128 0xe
 1850 0885 2C000000 		.4byte	0x2c
 1851 0889 0E       		.uleb128 0xe
 1852 088a 35010000 		.4byte	0x135
 1853 088e 00       		.byte	0
 1854 088f 0B       		.uleb128 0xb
 1855 0890 04       		.byte	0x4
 1856 0891 71080000 		.4byte	0x871
 1857 0895 12       		.uleb128 0x12
 1858 0896 2C000000 		.4byte	0x2c
 1859 089a B3080000 		.4byte	0x8b3
 1860 089e 0E       		.uleb128 0xe
 1861 089f A9020000 		.4byte	0x2a9
 1862 08a3 0E       		.uleb128 0xe
 1863 08a4 24070000 		.4byte	0x724
 1864 08a8 0E       		.uleb128 0xe
 1865 08a9 2C000000 		.4byte	0x2c
 1866 08ad 0E       		.uleb128 0xe
 1867 08ae 35010000 		.4byte	0x135
 1868 08b2 00       		.byte	0
 1869 08b3 0B       		.uleb128 0xb
 1870 08b4 04       		.byte	0x4
 1871 08b5 95080000 		.4byte	0x895
 1872 08b9 0A       		.uleb128 0xa
 1873 08ba 18       		.byte	0x18
 1874 08bb 11       		.byte	0x11
 1875 08bc 2A       		.byte	0x2a
 1876 08bd 0A090000 		.4byte	0x90a
 1877 08c1 08       		.uleb128 0x8
 1878 08c2 FB080000 		.4byte	.LASF128
 1879 08c6 11       		.byte	0x11
 1880 08c7 2F       		.byte	0x2f
 1881 08c8 CD000000 		.4byte	0xcd
ARM GAS  /var/folders/3j/4xdnk5197cv_b7cw3n33qk7r0000gn/T//ccUlDA21.s 			page 34


 1882 08cc 00       		.byte	0
 1883 08cd 08       		.uleb128 0x8
 1884 08ce D0050000 		.4byte	.LASF129
 1885 08d2 11       		.byte	0x11
 1886 08d3 31       		.byte	0x31
 1887 08d4 0A090000 		.4byte	0x90a
 1888 08d8 04       		.byte	0x4
 1889 08d9 08       		.uleb128 0x8
 1890 08da 74040000 		.4byte	.LASF130
 1891 08de 11       		.byte	0x11
 1892 08df 32       		.byte	0x32
 1893 08e0 0A090000 		.4byte	0x90a
 1894 08e4 08       		.byte	0x8
 1895 08e5 08       		.uleb128 0x8
 1896 08e6 16050000 		.4byte	.LASF131
 1897 08ea 11       		.byte	0x11
 1898 08eb 33       		.byte	0x33
 1899 08ec 0A090000 		.4byte	0x90a
 1900 08f0 0C       		.byte	0xc
 1901 08f1 08       		.uleb128 0x8
 1902 08f2 D6050000 		.4byte	.LASF132
 1903 08f6 11       		.byte	0x11
 1904 08f7 34       		.byte	0x34
 1905 08f8 0A090000 		.4byte	0x90a
 1906 08fc 10       		.byte	0x10
 1907 08fd 08       		.uleb128 0x8
 1908 08fe CD060000 		.4byte	.LASF133
 1909 0902 11       		.byte	0x11
 1910 0903 35       		.byte	0x35
 1911 0904 37000000 		.4byte	0x37
 1912 0908 14       		.byte	0x14
 1913 0909 00       		.byte	0
 1914 090a 0B       		.uleb128 0xb
 1915 090b 04       		.byte	0x4
 1916 090c D8000000 		.4byte	0xd8
 1917 0910 03       		.uleb128 0x3
 1918 0911 68040000 		.4byte	.LASF134
 1919 0915 11       		.byte	0x11
 1920 0916 37       		.byte	0x37
 1921 0917 B9080000 		.4byte	0x8b9
 1922 091b 17       		.uleb128 0x17
 1923 091c 00       		.byte	0
 1924 091d 11       		.byte	0x11
 1925 091e 43       		.byte	0x43
 1926 091f 03       		.uleb128 0x3
 1927 0920 7D090000 		.4byte	.LASF135
 1928 0924 11       		.byte	0x11
 1929 0925 45       		.byte	0x45
 1930 0926 1B090000 		.4byte	0x91b
 1931 092a 06       		.uleb128 0x6
 1932 092b 1F090000 		.4byte	0x91f
 1933 092f 0F       		.uleb128 0xf
 1934 0930 AE050000 		.4byte	.LASF136
 1935 0934 11       		.byte	0x11
 1936 0935 6D       		.byte	0x6d
 1937 0936 10090000 		.4byte	0x910
 1938 093a 0F       		.uleb128 0xf
ARM GAS  /var/folders/3j/4xdnk5197cv_b7cw3n33qk7r0000gn/T//ccUlDA21.s 			page 35


 1939 093b E4060000 		.4byte	.LASF137
 1940 093f 11       		.byte	0x11
 1941 0940 6E       		.byte	0x6e
 1942 0941 10090000 		.4byte	0x910
 1943 0945 0F       		.uleb128 0xf
 1944 0946 8F090000 		.4byte	.LASF138
 1945 094a 11       		.byte	0x11
 1946 094b 75       		.byte	0x75
 1947 094c 2A090000 		.4byte	0x92a
 1948 0950 18       		.uleb128 0x18
 1949 0951 07       		.byte	0x7
 1950 0952 01       		.byte	0x1
 1951 0953 55000000 		.4byte	0x55
 1952 0957 12       		.byte	0x12
 1953 0958 54       		.byte	0x54
 1954 0959 82090000 		.4byte	0x982
 1955 095d 19       		.uleb128 0x19
 1956 095e 8A020000 		.4byte	.LASF139
 1957 0962 00       		.byte	0
 1958 0963 19       		.uleb128 0x19
 1959 0964 29050000 		.4byte	.LASF140
 1960 0968 01       		.byte	0x1
 1961 0969 19       		.uleb128 0x19
 1962 096a 11080000 		.4byte	.LASF141
 1963 096e 02       		.byte	0x2
 1964 096f 19       		.uleb128 0x19
 1965 0970 FA020000 		.4byte	.LASF142
 1966 0974 03       		.byte	0x3
 1967 0975 19       		.uleb128 0x19
 1968 0976 CF040000 		.4byte	.LASF143
 1969 097a 04       		.byte	0x4
 1970 097b 19       		.uleb128 0x19
 1971 097c 25070000 		.4byte	.LASF144
 1972 0980 05       		.byte	0x5
 1973 0981 00       		.byte	0
 1974 0982 03       		.uleb128 0x3
 1975 0983 13060000 		.4byte	.LASF145
 1976 0987 12       		.byte	0x12
 1977 0988 5B       		.byte	0x5b
 1978 0989 50090000 		.4byte	0x950
 1979 098d 03       		.uleb128 0x3
 1980 098e 1B080000 		.4byte	.LASF146
 1981 0992 13       		.byte	0x13
 1982 0993 38       		.byte	0x38
 1983 0994 98090000 		.4byte	0x998
 1984 0998 07       		.uleb128 0x7
 1985 0999 1B080000 		.4byte	.LASF146
 1986 099d 40       		.byte	0x40
 1987 099e 13       		.byte	0x13
 1988 099f 62       		.byte	0x62
 1989 09a0 410A0000 		.4byte	0xa41
 1990 09a4 08       		.uleb128 0x8
 1991 09a5 9F020000 		.4byte	.LASF147
 1992 09a9 13       		.byte	0x13
 1993 09aa 64       		.byte	0x64
 1994 09ab 82090000 		.4byte	0x982
 1995 09af 00       		.byte	0
ARM GAS  /var/folders/3j/4xdnk5197cv_b7cw3n33qk7r0000gn/T//ccUlDA21.s 			page 36


 1996 09b0 08       		.uleb128 0x8
 1997 09b1 C2070000 		.4byte	.LASF148
 1998 09b5 13       		.byte	0x13
 1999 09b6 66       		.byte	0x66
 2000 09b7 820A0000 		.4byte	0xa82
 2001 09bb 04       		.byte	0x4
 2002 09bc 08       		.uleb128 0x8
 2003 09bd E5030000 		.4byte	.LASF149
 2004 09c1 13       		.byte	0x13
 2005 09c2 68       		.byte	0x68
 2006 09c3 410A0000 		.4byte	0xa41
 2007 09c7 08       		.byte	0x8
 2008 09c8 08       		.uleb128 0x8
 2009 09c9 1A010000 		.4byte	.LASF150
 2010 09cd 13       		.byte	0x13
 2011 09ce 6A       		.byte	0x6a
 2012 09cf 880A0000 		.4byte	0xa88
 2013 09d3 0C       		.byte	0xc
 2014 09d4 08       		.uleb128 0x8
 2015 09d5 55060000 		.4byte	.LASF151
 2016 09d9 13       		.byte	0x13
 2017 09da 6D       		.byte	0x6d
 2018 09db 9F040000 		.4byte	0x49f
 2019 09df 10       		.byte	0x10
 2020 09e0 08       		.uleb128 0x8
 2021 09e1 C2020000 		.4byte	.LASF152
 2022 09e5 13       		.byte	0x13
 2023 09e6 77       		.byte	0x77
 2024 09e7 62020000 		.4byte	0x262
 2025 09eb 20       		.byte	0x20
 2026 09ec 08       		.uleb128 0x8
 2027 09ed B2010000 		.4byte	.LASF153
 2028 09f1 13       		.byte	0x13
 2029 09f2 7B       		.byte	0x7b
 2030 09f3 4C0A0000 		.4byte	0xa4c
 2031 09f7 24       		.byte	0x24
 2032 09f8 08       		.uleb128 0x8
 2033 09f9 CF030000 		.4byte	.LASF154
 2034 09fd 13       		.byte	0x13
 2035 09fe 7F       		.byte	0x7f
 2036 09ff 59070000 		.4byte	0x759
 2037 0a03 28       		.byte	0x28
 2038 0a04 08       		.uleb128 0x8
 2039 0a05 B2090000 		.4byte	.LASF155
 2040 0a09 13       		.byte	0x13
 2041 0a0a 83       		.byte	0x83
 2042 0a0b 2C000000 		.4byte	0x2c
 2043 0a0f 2C       		.byte	0x2c
 2044 0a10 08       		.uleb128 0x8
 2045 0a11 AE080000 		.4byte	.LASF156
 2046 0a15 13       		.byte	0x13
 2047 0a16 87       		.byte	0x87
 2048 0a17 2C000000 		.4byte	0x2c
 2049 0a1b 30       		.byte	0x30
 2050 0a1c 08       		.uleb128 0x8
 2051 0a1d AE000000 		.4byte	.LASF157
 2052 0a21 13       		.byte	0x13
ARM GAS  /var/folders/3j/4xdnk5197cv_b7cw3n33qk7r0000gn/T//ccUlDA21.s 			page 37


 2053 0a22 8B       		.byte	0x8b
 2054 0a23 24070000 		.4byte	0x724
 2055 0a27 34       		.byte	0x34
 2056 0a28 08       		.uleb128 0x8
 2057 0a29 83050000 		.4byte	.LASF158
 2058 0a2d 13       		.byte	0x13
 2059 0a2e 8F       		.byte	0x8f
 2060 0a2f 2C000000 		.4byte	0x2c
 2061 0a33 38       		.byte	0x38
 2062 0a34 08       		.uleb128 0x8
 2063 0a35 D3020000 		.4byte	.LASF159
 2064 0a39 13       		.byte	0x13
 2065 0a3a 93       		.byte	0x93
 2066 0a3b 2C000000 		.4byte	0x2c
 2067 0a3f 3C       		.byte	0x3c
 2068 0a40 00       		.byte	0
 2069 0a41 03       		.uleb128 0x3
 2070 0a42 4A060000 		.4byte	.LASF160
 2071 0a46 13       		.byte	0x13
 2072 0a47 42       		.byte	0x42
 2073 0a48 CD000000 		.4byte	0xcd
 2074 0a4c 03       		.uleb128 0x3
 2075 0a4d 95020000 		.4byte	.LASF161
 2076 0a51 13       		.byte	0x13
 2077 0a52 48       		.byte	0x48
 2078 0a53 B7000000 		.4byte	0xb7
 2079 0a57 0B       		.uleb128 0xb
 2080 0a58 04       		.byte	0x4
 2081 0a59 8D090000 		.4byte	0x98d
 2082 0a5d 0A       		.uleb128 0xa
 2083 0a5e 04       		.byte	0x4
 2084 0a5f 13       		.byte	0x13
 2085 0a60 57       		.byte	0x57
 2086 0a61 720A0000 		.4byte	0xa72
 2087 0a65 08       		.uleb128 0x8
 2088 0a66 5D050000 		.4byte	.LASF162
 2089 0a6a 13       		.byte	0x13
 2090 0a6b 59       		.byte	0x59
 2091 0a6c CD000000 		.4byte	0xcd
 2092 0a70 00       		.byte	0
 2093 0a71 00       		.byte	0
 2094 0a72 03       		.uleb128 0x3
 2095 0a73 9A080000 		.4byte	.LASF163
 2096 0a77 13       		.byte	0x13
 2097 0a78 5B       		.byte	0x5b
 2098 0a79 5D0A0000 		.4byte	0xa5d
 2099 0a7d 06       		.uleb128 0x6
 2100 0a7e 720A0000 		.4byte	0xa72
 2101 0a82 0B       		.uleb128 0xb
 2102 0a83 04       		.byte	0x4
 2103 0a84 7D0A0000 		.4byte	0xa7d
 2104 0a88 0B       		.uleb128 0xb
 2105 0a89 04       		.byte	0x4
 2106 0a8a 2C080000 		.4byte	0x82c
 2107 0a8e 0F       		.uleb128 0xf
 2108 0a8f A4030000 		.4byte	.LASF164
 2109 0a93 13       		.byte	0x13
ARM GAS  /var/folders/3j/4xdnk5197cv_b7cw3n33qk7r0000gn/T//ccUlDA21.s 			page 38


 2110 0a94 A6       		.byte	0xa6
 2111 0a95 8D090000 		.4byte	0x98d
 2112 0a99 0F       		.uleb128 0xf
 2113 0a9a A9030000 		.4byte	.LASF165
 2114 0a9e 13       		.byte	0x13
 2115 0a9f A7       		.byte	0xa7
 2116 0aa0 8D090000 		.4byte	0x98d
 2117 0aa4 18       		.uleb128 0x18
 2118 0aa5 07       		.byte	0x7
 2119 0aa6 01       		.byte	0x1
 2120 0aa7 55000000 		.4byte	0x55
 2121 0aab 14       		.byte	0x14
 2122 0aac 5D       		.byte	0x5d
 2123 0aad C40A0000 		.4byte	0xac4
 2124 0ab1 19       		.uleb128 0x19
 2125 0ab2 49070000 		.4byte	.LASF166
 2126 0ab6 00       		.byte	0
 2127 0ab7 19       		.uleb128 0x19
 2128 0ab8 6B010000 		.4byte	.LASF167
 2129 0abc 01       		.byte	0x1
 2130 0abd 19       		.uleb128 0x19
 2131 0abe 69080000 		.4byte	.LASF168
 2132 0ac2 02       		.byte	0x2
 2133 0ac3 00       		.byte	0
 2134 0ac4 03       		.uleb128 0x3
 2135 0ac5 A4080000 		.4byte	.LASF169
 2136 0ac9 14       		.byte	0x14
 2137 0aca 61       		.byte	0x61
 2138 0acb A40A0000 		.4byte	0xaa4
 2139 0acf 03       		.uleb128 0x3
 2140 0ad0 7D070000 		.4byte	.LASF170
 2141 0ad4 14       		.byte	0x14
 2142 0ad5 66       		.byte	0x66
 2143 0ad6 DA0A0000 		.4byte	0xada
 2144 0ada 07       		.uleb128 0x7
 2145 0adb 7D070000 		.4byte	.LASF170
 2146 0adf 74       		.byte	0x74
 2147 0ae0 14       		.byte	0x14
 2148 0ae1 80       		.byte	0x80
 2149 0ae2 390B0000 		.4byte	0xb39
 2150 0ae6 09       		.uleb128 0x9
 2151 0ae7 766D7400 		.ascii	"vmt\000"
 2152 0aeb 14       		.byte	0x14
 2153 0aec 82       		.byte	0x82
 2154 0aed B60B0000 		.4byte	0xbb6
 2155 0af1 00       		.byte	0
 2156 0af2 08       		.uleb128 0x8
 2157 0af3 47040000 		.4byte	.LASF171
 2158 0af7 14       		.byte	0x14
 2159 0af8 83       		.byte	0x83
 2160 0af9 11050000 		.4byte	0x511
 2161 0afd 04       		.byte	0x4
 2162 0afe 08       		.uleb128 0x8
 2163 0aff 9F020000 		.4byte	.LASF147
 2164 0b03 14       		.byte	0x14
 2165 0b04 83       		.byte	0x83
 2166 0b05 C40A0000 		.4byte	0xac4
ARM GAS  /var/folders/3j/4xdnk5197cv_b7cw3n33qk7r0000gn/T//ccUlDA21.s 			page 39


 2167 0b09 08       		.byte	0x8
 2168 0b0a 08       		.uleb128 0x8
 2169 0b0b EC030000 		.4byte	.LASF172
 2170 0b0f 14       		.byte	0x14
 2171 0b10 83       		.byte	0x83
 2172 0b11 2A070000 		.4byte	0x72a
 2173 0b15 0C       		.byte	0xc
 2174 0b16 08       		.uleb128 0x8
 2175 0b17 80040000 		.4byte	.LASF173
 2176 0b1b 14       		.byte	0x14
 2177 0b1c 83       		.byte	0x83
 2178 0b1d 35070000 		.4byte	0x735
 2179 0b21 30       		.byte	0x30
 2180 0b22 09       		.uleb128 0x9
 2181 0b23 696200   		.ascii	"ib\000"
 2182 0b26 14       		.byte	0x14
 2183 0b27 83       		.byte	0x83
 2184 0b28 BC0B0000 		.4byte	0xbbc
 2185 0b2c 54       		.byte	0x54
 2186 0b2d 09       		.uleb128 0x9
 2187 0b2e 6F6200   		.ascii	"ob\000"
 2188 0b31 14       		.byte	0x14
 2189 0b32 83       		.byte	0x83
 2190 0b33 BC0B0000 		.4byte	0xbbc
 2191 0b37 64       		.byte	0x64
 2192 0b38 00       		.byte	0
 2193 0b39 1A       		.uleb128 0x1a
 2194 0b3a 53443100 		.ascii	"SD1\000"
 2195 0b3e 17       		.byte	0x17
 2196 0b3f 62       		.byte	0x62
 2197 0b40 CF0A0000 		.4byte	0xacf
 2198 0b44 07       		.uleb128 0x7
 2199 0b45 D5030000 		.4byte	.LASF174
 2200 0b49 20       		.byte	0x20
 2201 0b4a 14       		.byte	0x14
 2202 0b4b 75       		.byte	0x75
 2203 0b4c B10B0000 		.4byte	0xbb1
 2204 0b50 08       		.uleb128 0x8
 2205 0b51 74000000 		.4byte	.LASF175
 2206 0b55 14       		.byte	0x14
 2207 0b56 76       		.byte	0x76
 2208 0b57 5F070000 		.4byte	0x75f
 2209 0b5b 00       		.byte	0
 2210 0b5c 08       		.uleb128 0x8
 2211 0b5d 94070000 		.4byte	.LASF176
 2212 0b61 14       		.byte	0x14
 2213 0b62 76       		.byte	0x76
 2214 0b63 7E070000 		.4byte	0x77e
 2215 0b67 04       		.byte	0x4
 2216 0b68 09       		.uleb128 0x9
 2217 0b69 70757400 		.ascii	"put\000"
 2218 0b6d 14       		.byte	0x14
 2219 0b6e 76       		.byte	0x76
 2220 0b6f 98070000 		.4byte	0x798
 2221 0b73 08       		.byte	0x8
 2222 0b74 09       		.uleb128 0x9
 2223 0b75 67657400 		.ascii	"get\000"
ARM GAS  /var/folders/3j/4xdnk5197cv_b7cw3n33qk7r0000gn/T//ccUlDA21.s 			page 40


 2224 0b79 14       		.byte	0x14
 2225 0b7a 76       		.byte	0x76
 2226 0b7b 69050000 		.4byte	0x569
 2227 0b7f 0C       		.byte	0xc
 2228 0b80 08       		.uleb128 0x8
 2229 0b81 1C050000 		.4byte	.LASF177
 2230 0b85 14       		.byte	0x14
 2231 0b86 76       		.byte	0x76
 2232 0b87 51080000 		.4byte	0x851
 2233 0b8b 10       		.byte	0x10
 2234 0b8c 08       		.uleb128 0x8
 2235 0b8d 16040000 		.4byte	.LASF178
 2236 0b91 14       		.byte	0x14
 2237 0b92 76       		.byte	0x76
 2238 0b93 6B080000 		.4byte	0x86b
 2239 0b97 14       		.byte	0x14
 2240 0b98 08       		.uleb128 0x8
 2241 0b99 97040000 		.4byte	.LASF179
 2242 0b9d 14       		.byte	0x14
 2243 0b9e 76       		.byte	0x76
 2244 0b9f 8F080000 		.4byte	0x88f
 2245 0ba3 18       		.byte	0x18
 2246 0ba4 08       		.uleb128 0x8
 2247 0ba5 14010000 		.4byte	.LASF180
 2248 0ba9 14       		.byte	0x14
 2249 0baa 76       		.byte	0x76
 2250 0bab B3080000 		.4byte	0x8b3
 2251 0baf 1C       		.byte	0x1c
 2252 0bb0 00       		.byte	0
 2253 0bb1 06       		.uleb128 0x6
 2254 0bb2 440B0000 		.4byte	0xb44
 2255 0bb6 0B       		.uleb128 0xb
 2256 0bb7 04       		.byte	0x4
 2257 0bb8 B10B0000 		.4byte	0xbb1
 2258 0bbc 13       		.uleb128 0x13
 2259 0bbd A7000000 		.4byte	0xa7
 2260 0bc1 CC0B0000 		.4byte	0xbcc
 2261 0bc5 14       		.uleb128 0x14
 2262 0bc6 37000000 		.4byte	0x37
 2263 0bca 0F       		.byte	0xf
 2264 0bcb 00       		.byte	0
 2265 0bcc 18       		.uleb128 0x18
 2266 0bcd 07       		.byte	0x7
 2267 0bce 01       		.byte	0x1
 2268 0bcf 55000000 		.4byte	0x55
 2269 0bd3 15       		.byte	0x15
 2270 0bd4 4E       		.byte	0x4e
 2271 0bd5 F80B0000 		.4byte	0xbf8
 2272 0bd9 19       		.uleb128 0x19
 2273 0bda 7C080000 		.4byte	.LASF181
 2274 0bde 00       		.byte	0
 2275 0bdf 19       		.uleb128 0x19
 2276 0be0 55010000 		.4byte	.LASF182
 2277 0be4 01       		.byte	0x1
 2278 0be5 19       		.uleb128 0x19
 2279 0be6 72080000 		.4byte	.LASF183
 2280 0bea 02       		.byte	0x2
ARM GAS  /var/folders/3j/4xdnk5197cv_b7cw3n33qk7r0000gn/T//ccUlDA21.s 			page 41


 2281 0beb 19       		.uleb128 0x19
 2282 0bec 90000000 		.4byte	.LASF184
 2283 0bf0 03       		.byte	0x3
 2284 0bf1 19       		.uleb128 0x19
 2285 0bf2 B5070000 		.4byte	.LASF185
 2286 0bf6 04       		.byte	0x4
 2287 0bf7 00       		.byte	0
 2288 0bf8 03       		.uleb128 0x3
 2289 0bf9 E0070000 		.4byte	.LASF186
 2290 0bfd 15       		.byte	0x15
 2291 0bfe 54       		.byte	0x54
 2292 0bff CC0B0000 		.4byte	0xbcc
 2293 0c03 03       		.uleb128 0x3
 2294 0c04 E8000000 		.4byte	.LASF187
 2295 0c08 16       		.byte	0x16
 2296 0c09 35       		.byte	0x35
 2297 0c0a 0E0C0000 		.4byte	0xc0e
 2298 0c0e 07       		.uleb128 0x7
 2299 0c0f E8000000 		.4byte	.LASF187
 2300 0c13 28       		.byte	0x28
 2301 0c14 16       		.byte	0x16
 2302 0c15 7C       		.byte	0x7c
 2303 0c16 6F0C0000 		.4byte	0xc6f
 2304 0c1a 08       		.uleb128 0x8
 2305 0c1b 9F020000 		.4byte	.LASF147
 2306 0c1f 16       		.byte	0x16
 2307 0c20 80       		.byte	0x80
 2308 0c21 F80B0000 		.4byte	0xbf8
 2309 0c25 00       		.byte	0
 2310 0c26 08       		.uleb128 0x8
 2311 0c27 C2070000 		.4byte	.LASF148
 2312 0c2b 16       		.byte	0x16
 2313 0c2c 84       		.byte	0x84
 2314 0c2d 160D0000 		.4byte	0xd16
 2315 0c31 04       		.byte	0x4
 2316 0c32 08       		.uleb128 0x8
 2317 0c33 C2020000 		.4byte	.LASF152
 2318 0c37 16       		.byte	0x16
 2319 0c38 89       		.byte	0x89
 2320 0c39 62020000 		.4byte	0x262
 2321 0c3d 08       		.byte	0x8
 2322 0c3e 08       		.uleb128 0x8
 2323 0c3f 55060000 		.4byte	.LASF151
 2324 0c43 16       		.byte	0x16
 2325 0c44 90       		.byte	0x90
 2326 0c45 9F040000 		.4byte	0x49f
 2327 0c49 0C       		.byte	0xc
 2328 0c4a 08       		.uleb128 0x8
 2329 0c4b AE000000 		.4byte	.LASF157
 2330 0c4f 16       		.byte	0x16
 2331 0c50 98       		.byte	0x98
 2332 0c51 A9020000 		.4byte	0x2a9
 2333 0c55 1C       		.byte	0x1c
 2334 0c56 08       		.uleb128 0x8
 2335 0c57 CF030000 		.4byte	.LASF154
 2336 0c5b 16       		.byte	0x16
 2337 0c5c 9D       		.byte	0x9d
ARM GAS  /var/folders/3j/4xdnk5197cv_b7cw3n33qk7r0000gn/T//ccUlDA21.s 			page 42


 2338 0c5d 1C0D0000 		.4byte	0xd1c
 2339 0c61 20       		.byte	0x20
 2340 0c62 08       		.uleb128 0x8
 2341 0c63 33030000 		.4byte	.LASF188
 2342 0c67 16       		.byte	0x16
 2343 0c68 A2       		.byte	0xa2
 2344 0c69 2C000000 		.4byte	0x2c
 2345 0c6d 24       		.byte	0x24
 2346 0c6e 00       		.byte	0
 2347 0c6f 03       		.uleb128 0x3
 2348 0c70 96030000 		.4byte	.LASF189
 2349 0c74 16       		.byte	0x16
 2350 0c75 3D       		.byte	0x3d
 2351 0c76 7A0C0000 		.4byte	0xc7a
 2352 0c7a 0B       		.uleb128 0xb
 2353 0c7b 04       		.byte	0x4
 2354 0c7c 800C0000 		.4byte	0xc80
 2355 0c80 0D       		.uleb128 0xd
 2356 0c81 8B0C0000 		.4byte	0xc8b
 2357 0c85 0E       		.uleb128 0xe
 2358 0c86 8B0C0000 		.4byte	0xc8b
 2359 0c8a 00       		.byte	0
 2360 0c8b 0B       		.uleb128 0xb
 2361 0c8c 04       		.byte	0x4
 2362 0c8d 030C0000 		.4byte	0xc03
 2363 0c91 0A       		.uleb128 0xa
 2364 0c92 10       		.byte	0x10
 2365 0c93 16       		.byte	0x16
 2366 0c94 44       		.byte	0x44
 2367 0c95 060D0000 		.4byte	0xd06
 2368 0c99 08       		.uleb128 0x8
 2369 0c9a 2C030000 		.4byte	.LASF190
 2370 0c9e 16       		.byte	0x16
 2371 0c9f 48       		.byte	0x48
 2372 0ca0 6F0C0000 		.4byte	0xc6f
 2373 0ca4 00       		.byte	0
 2374 0ca5 08       		.uleb128 0x8
 2375 0ca6 DF050000 		.4byte	.LASF191
 2376 0caa 16       		.byte	0x16
 2377 0cab 4F       		.byte	0x4f
 2378 0cac A7000000 		.4byte	0xa7
 2379 0cb0 04       		.byte	0x4
 2380 0cb1 08       		.uleb128 0x8
 2381 0cb2 FF050000 		.4byte	.LASF192
 2382 0cb6 16       		.byte	0x16
 2383 0cb7 52       		.byte	0x52
 2384 0cb8 A7000000 		.4byte	0xa7
 2385 0cbc 05       		.byte	0x5
 2386 0cbd 08       		.uleb128 0x8
 2387 0cbe 32040000 		.4byte	.LASF193
 2388 0cc2 16       		.byte	0x16
 2389 0cc3 58       		.byte	0x58
 2390 0cc4 A7000000 		.4byte	0xa7
 2391 0cc8 06       		.byte	0x6
 2392 0cc9 08       		.uleb128 0x8
 2393 0cca 39030000 		.4byte	.LASF194
 2394 0cce 16       		.byte	0x16
ARM GAS  /var/folders/3j/4xdnk5197cv_b7cw3n33qk7r0000gn/T//ccUlDA21.s 			page 43


 2395 0ccf 5E       		.byte	0x5e
 2396 0cd0 A7000000 		.4byte	0xa7
 2397 0cd4 07       		.byte	0x7
 2398 0cd5 08       		.uleb128 0x8
 2399 0cd6 4F030000 		.4byte	.LASF195
 2400 0cda 16       		.byte	0x16
 2401 0cdb 64       		.byte	0x64
 2402 0cdc A7000000 		.4byte	0xa7
 2403 0ce0 08       		.byte	0x8
 2404 0ce1 08       		.uleb128 0x8
 2405 0ce2 2C080000 		.4byte	.LASF196
 2406 0ce6 16       		.byte	0x16
 2407 0ce7 6A       		.byte	0x6a
 2408 0ce8 A7000000 		.4byte	0xa7
 2409 0cec 09       		.byte	0x9
 2410 0ced 08       		.uleb128 0x8
 2411 0cee 08030000 		.4byte	.LASF197
 2412 0cf2 16       		.byte	0x16
 2413 0cf3 70       		.byte	0x70
 2414 0cf4 A7000000 		.4byte	0xa7
 2415 0cf8 0A       		.byte	0xa
 2416 0cf9 08       		.uleb128 0x8
 2417 0cfa 0A070000 		.4byte	.LASF198
 2418 0cfe 16       		.byte	0x16
 2419 0cff 73       		.byte	0x73
 2420 0d00 CD000000 		.4byte	0xcd
 2421 0d04 0C       		.byte	0xc
 2422 0d05 00       		.byte	0
 2423 0d06 03       		.uleb128 0x3
 2424 0d07 49090000 		.4byte	.LASF199
 2425 0d0b 16       		.byte	0x16
 2426 0d0c 75       		.byte	0x75
 2427 0d0d 910C0000 		.4byte	0xc91
 2428 0d11 06       		.uleb128 0x6
 2429 0d12 060D0000 		.4byte	0xd06
 2430 0d16 0B       		.uleb128 0xb
 2431 0d17 04       		.byte	0x4
 2432 0d18 110D0000 		.4byte	0xd11
 2433 0d1c 0B       		.uleb128 0xb
 2434 0d1d 04       		.byte	0x4
 2435 0d1e 220D0000 		.4byte	0xd22
 2436 0d22 1B       		.uleb128 0x1b
 2437 0d23 0F       		.uleb128 0xf
 2438 0d24 EB020000 		.4byte	.LASF200
 2439 0d28 16       		.byte	0x16
 2440 0d29 B6       		.byte	0xb6
 2441 0d2a 030C0000 		.4byte	0xc03
 2442 0d2e 1C       		.uleb128 0x1c
 2443 0d2f 8E0A0000 		.4byte	0xa8e
 2444 0d33 01       		.byte	0x1
 2445 0d34 29       		.byte	0x29
 2446 0d35 05       		.uleb128 0x5
 2447 0d36 03       		.byte	0x3
 2448 0d37 00000000 		.4byte	I2C0
 2449 0d3b 1C       		.uleb128 0x1c
 2450 0d3c 990A0000 		.4byte	0xa99
 2451 0d40 01       		.byte	0x1
ARM GAS  /var/folders/3j/4xdnk5197cv_b7cw3n33qk7r0000gn/T//ccUlDA21.s 			page 44


 2452 0d41 2A       		.byte	0x2a
 2453 0d42 05       		.uleb128 0x5
 2454 0d43 03       		.byte	0x3
 2455 0d44 00000000 		.4byte	I2C1
 2456 0d48 1D       		.uleb128 0x1d
 2457 0d49 7B010000 		.4byte	.LASF203
 2458 0d4d 01       		.byte	0x1
 2459 0d4e 0A01     		.2byte	0x10a
 2460 0d50 14010000 		.4byte	0x114
 2461 0d54 00000000 		.4byte	.LFB13
 2462 0d58 CC000000 		.4byte	.LFE13-.LFB13
 2463 0d5c 01       		.uleb128 0x1
 2464 0d5d 9C       		.byte	0x9c
 2465 0d5e 1C0E0000 		.4byte	0xe1c
 2466 0d62 1E       		.uleb128 0x1e
 2467 0d63 F2000000 		.4byte	.LASF201
 2468 0d67 01       		.byte	0x1
 2469 0d68 0A01     		.2byte	0x10a
 2470 0d6a 570A0000 		.4byte	0xa57
 2471 0d6e 00000000 		.4byte	.LLST12
 2472 0d72 1E       		.uleb128 0x1e
 2473 0d73 B2010000 		.4byte	.LASF153
 2474 0d77 01       		.byte	0x1
 2475 0d78 0A01     		.2byte	0x10a
 2476 0d7a 4C0A0000 		.4byte	0xa4c
 2477 0d7e 37000000 		.4byte	.LLST13
 2478 0d82 1E       		.uleb128 0x1e
 2479 0d83 AE000000 		.4byte	.LASF157
 2480 0d87 01       		.byte	0x1
 2481 0d88 0B01     		.2byte	0x10b
 2482 0d8a 24070000 		.4byte	0x724
 2483 0d8e 58000000 		.4byte	.LLST14
 2484 0d92 1E       		.uleb128 0x1e
 2485 0d93 83050000 		.4byte	.LASF158
 2486 0d97 01       		.byte	0x1
 2487 0d98 0B01     		.2byte	0x10b
 2488 0d9a 2C000000 		.4byte	0x2c
 2489 0d9e 84000000 		.4byte	.LLST15
 2490 0da2 1F       		.uleb128 0x1f
 2491 0da3 0E040000 		.4byte	.LASF202
 2492 0da7 01       		.byte	0x1
 2493 0da8 0C01     		.2byte	0x10c
 2494 0daa 35010000 		.4byte	0x135
 2495 0dae 02       		.uleb128 0x2
 2496 0daf 91       		.byte	0x91
 2497 0db0 00       		.sleb128 0
 2498 0db1 20       		.uleb128 0x20
 2499 0db2 767400   		.ascii	"vt\000"
 2500 0db5 01       		.byte	0x1
 2501 0db6 0D01     		.2byte	0x10d
 2502 0db8 58030000 		.4byte	0x358
 2503 0dbc 02       		.uleb128 0x2
 2504 0dbd 91       		.byte	0x91
 2505 0dbe 54       		.sleb128 -44
 2506 0dbf 21       		.uleb128 0x21
 2507 0dc0 1A010000 		.4byte	.LASF150
 2508 0dc4 01       		.byte	0x1
ARM GAS  /var/folders/3j/4xdnk5197cv_b7cw3n33qk7r0000gn/T//ccUlDA21.s 			page 45


 2509 0dc5 1C01     		.2byte	0x11c
 2510 0dc7 880A0000 		.4byte	0xa88
 2511 0dcb BC000000 		.4byte	.LLST16
 2512 0dcf 22       		.uleb128 0x22
 2513 0dd0 38000000 		.4byte	.LVL40
 2514 0dd4 58110000 		.4byte	0x1158
 2515 0dd8 F80D0000 		.4byte	0xdf8
 2516 0ddc 23       		.uleb128 0x23
 2517 0ddd 01       		.uleb128 0x1
 2518 0dde 50       		.byte	0x50
 2519 0ddf 02       		.uleb128 0x2
 2520 0de0 91       		.byte	0x91
 2521 0de1 4C       		.sleb128 -52
 2522 0de2 23       		.uleb128 0x23
 2523 0de3 01       		.uleb128 0x1
 2524 0de4 51       		.byte	0x51
 2525 0de5 02       		.uleb128 0x2
 2526 0de6 75       		.byte	0x75
 2527 0de7 00       		.sleb128 0
 2528 0de8 23       		.uleb128 0x23
 2529 0de9 01       		.uleb128 0x1
 2530 0dea 52       		.byte	0x52
 2531 0deb 05       		.uleb128 0x5
 2532 0dec 03       		.byte	0x3
 2533 0ded 00000000 		.4byte	i2c_lld_safety_timeout
 2534 0df1 23       		.uleb128 0x23
 2535 0df2 01       		.uleb128 0x1
 2536 0df3 53       		.byte	0x53
 2537 0df4 02       		.uleb128 0x2
 2538 0df5 74       		.byte	0x74
 2539 0df6 00       		.sleb128 0
 2540 0df7 00       		.byte	0
 2541 0df8 22       		.uleb128 0x22
 2542 0df9 8C000000 		.4byte	.LVL44
 2543 0dfd 63110000 		.4byte	0x1163
 2544 0e01 0B0E0000 		.4byte	0xe0b
 2545 0e05 23       		.uleb128 0x23
 2546 0e06 01       		.uleb128 0x1
 2547 0e07 50       		.byte	0x50
 2548 0e08 01       		.uleb128 0x1
 2549 0e09 32       		.byte	0x32
 2550 0e0a 00       		.byte	0
 2551 0e0b 24       		.uleb128 0x24
 2552 0e0c A8000000 		.4byte	.LVL45
 2553 0e10 6E110000 		.4byte	0x116e
 2554 0e14 23       		.uleb128 0x23
 2555 0e15 01       		.uleb128 0x1
 2556 0e16 50       		.byte	0x50
 2557 0e17 02       		.uleb128 0x2
 2558 0e18 91       		.byte	0x91
 2559 0e19 4C       		.sleb128 -52
 2560 0e1a 00       		.byte	0
 2561 0e1b 00       		.byte	0
 2562 0e1c 25       		.uleb128 0x25
 2563 0e1d B7010000 		.4byte	.LASF204
 2564 0e21 01       		.byte	0x1
 2565 0e22 CA       		.byte	0xca
ARM GAS  /var/folders/3j/4xdnk5197cv_b7cw3n33qk7r0000gn/T//ccUlDA21.s 			page 46


 2566 0e23 14010000 		.4byte	0x114
 2567 0e27 00000000 		.4byte	.LFB12
 2568 0e2b 3C010000 		.4byte	.LFE12-.LFB12
 2569 0e2f 01       		.uleb128 0x1
 2570 0e30 9C       		.byte	0x9c
 2571 0e31 540F0000 		.4byte	0xf54
 2572 0e35 26       		.uleb128 0x26
 2573 0e36 F2000000 		.4byte	.LASF201
 2574 0e3a 01       		.byte	0x1
 2575 0e3b CA       		.byte	0xca
 2576 0e3c 570A0000 		.4byte	0xa57
 2577 0e40 DB000000 		.4byte	.LLST17
 2578 0e44 26       		.uleb128 0x26
 2579 0e45 B2010000 		.4byte	.LASF153
 2580 0e49 01       		.byte	0x1
 2581 0e4a CA       		.byte	0xca
 2582 0e4b 4C0A0000 		.4byte	0xa4c
 2583 0e4f 12010000 		.4byte	.LLST18
 2584 0e53 26       		.uleb128 0x26
 2585 0e54 CF030000 		.4byte	.LASF154
 2586 0e58 01       		.byte	0x1
 2587 0e59 CB       		.byte	0xcb
 2588 0e5a 59070000 		.4byte	0x759
 2589 0e5e 33010000 		.4byte	.LLST19
 2590 0e62 26       		.uleb128 0x26
 2591 0e63 B2090000 		.4byte	.LASF155
 2592 0e67 01       		.byte	0x1
 2593 0e68 CB       		.byte	0xcb
 2594 0e69 2C000000 		.4byte	0x2c
 2595 0e6d 5F010000 		.4byte	.LLST20
 2596 0e71 27       		.uleb128 0x27
 2597 0e72 AE000000 		.4byte	.LASF157
 2598 0e76 01       		.byte	0x1
 2599 0e77 CC       		.byte	0xcc
 2600 0e78 24070000 		.4byte	0x724
 2601 0e7c 02       		.uleb128 0x2
 2602 0e7d 91       		.byte	0x91
 2603 0e7e 00       		.sleb128 0
 2604 0e7f 27       		.uleb128 0x27
 2605 0e80 83050000 		.4byte	.LASF158
 2606 0e84 01       		.byte	0x1
 2607 0e85 CC       		.byte	0xcc
 2608 0e86 B2000000 		.4byte	0xb2
 2609 0e8a 02       		.uleb128 0x2
 2610 0e8b 91       		.byte	0x91
 2611 0e8c 04       		.sleb128 4
 2612 0e8d 27       		.uleb128 0x27
 2613 0e8e 0E040000 		.4byte	.LASF202
 2614 0e92 01       		.byte	0x1
 2615 0e93 CD       		.byte	0xcd
 2616 0e94 35010000 		.4byte	0x135
 2617 0e98 02       		.uleb128 0x2
 2618 0e99 91       		.byte	0x91
 2619 0e9a 08       		.sleb128 8
 2620 0e9b 28       		.uleb128 0x28
 2621 0e9c 767400   		.ascii	"vt\000"
 2622 0e9f 01       		.byte	0x1
ARM GAS  /var/folders/3j/4xdnk5197cv_b7cw3n33qk7r0000gn/T//ccUlDA21.s 			page 47


 2623 0ea0 CE       		.byte	0xce
 2624 0ea1 58030000 		.4byte	0x358
 2625 0ea5 02       		.uleb128 0x2
 2626 0ea6 91       		.byte	0x91
 2627 0ea7 4C       		.sleb128 -52
 2628 0ea8 29       		.uleb128 0x29
 2629 0ea9 1A010000 		.4byte	.LASF150
 2630 0ead 01       		.byte	0x1
 2631 0eae DC       		.byte	0xdc
 2632 0eaf 880A0000 		.4byte	0xa88
 2633 0eb3 97010000 		.4byte	.LLST21
 2634 0eb7 29       		.uleb128 0x29
 2635 0eb8 D3080000 		.4byte	.LASF121
 2636 0ebc 01       		.byte	0x1
 2637 0ebd EE       		.byte	0xee
 2638 0ebe 14010000 		.4byte	0x114
 2639 0ec2 B6010000 		.4byte	.LLST22
 2640 0ec6 22       		.uleb128 0x22
 2641 0ec7 40000000 		.4byte	.LVL52
 2642 0ecb 58110000 		.4byte	0x1158
 2643 0ecf EF0E0000 		.4byte	0xeef
 2644 0ed3 23       		.uleb128 0x23
 2645 0ed4 01       		.uleb128 0x1
 2646 0ed5 50       		.byte	0x50
 2647 0ed6 02       		.uleb128 0x2
 2648 0ed7 91       		.byte	0x91
 2649 0ed8 44       		.sleb128 -60
 2650 0ed9 23       		.uleb128 0x23
 2651 0eda 01       		.uleb128 0x1
 2652 0edb 51       		.byte	0x51
 2653 0edc 02       		.uleb128 0x2
 2654 0edd 75       		.byte	0x75
 2655 0ede 00       		.sleb128 0
 2656 0edf 23       		.uleb128 0x23
 2657 0ee0 01       		.uleb128 0x1
 2658 0ee1 52       		.byte	0x52
 2659 0ee2 05       		.uleb128 0x5
 2660 0ee3 03       		.byte	0x3
 2661 0ee4 00000000 		.4byte	i2c_lld_safety_timeout
 2662 0ee8 23       		.uleb128 0x23
 2663 0ee9 01       		.uleb128 0x1
 2664 0eea 53       		.byte	0x53
 2665 0eeb 02       		.uleb128 0x2
 2666 0eec 74       		.byte	0x74
 2667 0eed 00       		.sleb128 0
 2668 0eee 00       		.byte	0
 2669 0eef 22       		.uleb128 0x22
 2670 0ef0 9C000000 		.4byte	.LVL56
 2671 0ef4 63110000 		.4byte	0x1163
 2672 0ef8 020F0000 		.4byte	0xf02
 2673 0efc 23       		.uleb128 0x23
 2674 0efd 01       		.uleb128 0x1
 2675 0efe 50       		.byte	0x50
 2676 0eff 01       		.uleb128 0x1
 2677 0f00 32       		.byte	0x32
 2678 0f01 00       		.byte	0
 2679 0f02 22       		.uleb128 0x22
ARM GAS  /var/folders/3j/4xdnk5197cv_b7cw3n33qk7r0000gn/T//ccUlDA21.s 			page 48


 2680 0f03 B8000000 		.4byte	.LVL57
 2681 0f07 6E110000 		.4byte	0x116e
 2682 0f0b 160F0000 		.4byte	0xf16
 2683 0f0f 23       		.uleb128 0x23
 2684 0f10 01       		.uleb128 0x1
 2685 0f11 50       		.byte	0x50
 2686 0f12 02       		.uleb128 0x2
 2687 0f13 91       		.byte	0x91
 2688 0f14 44       		.sleb128 -60
 2689 0f15 00       		.byte	0
 2690 0f16 22       		.uleb128 0x22
 2691 0f17 04010000 		.4byte	.LVL60
 2692 0f1b 480D0000 		.4byte	0xd48
 2693 0f1f 430F0000 		.4byte	0xf43
 2694 0f23 23       		.uleb128 0x23
 2695 0f24 01       		.uleb128 0x1
 2696 0f25 50       		.byte	0x50
 2697 0f26 02       		.uleb128 0x2
 2698 0f27 74       		.byte	0x74
 2699 0f28 00       		.sleb128 0
 2700 0f29 23       		.uleb128 0x23
 2701 0f2a 01       		.uleb128 0x1
 2702 0f2b 51       		.byte	0x51
 2703 0f2c 02       		.uleb128 0x2
 2704 0f2d 76       		.byte	0x76
 2705 0f2e 00       		.sleb128 0
 2706 0f2f 23       		.uleb128 0x23
 2707 0f30 01       		.uleb128 0x1
 2708 0f31 52       		.byte	0x52
 2709 0f32 02       		.uleb128 0x2
 2710 0f33 78       		.byte	0x78
 2711 0f34 00       		.sleb128 0
 2712 0f35 23       		.uleb128 0x23
 2713 0f36 01       		.uleb128 0x1
 2714 0f37 53       		.byte	0x53
 2715 0f38 02       		.uleb128 0x2
 2716 0f39 77       		.byte	0x77
 2717 0f3a 00       		.sleb128 0
 2718 0f3b 23       		.uleb128 0x23
 2719 0f3c 02       		.uleb128 0x2
 2720 0f3d 7D       		.byte	0x7d
 2721 0f3e 00       		.sleb128 0
 2722 0f3f 02       		.uleb128 0x2
 2723 0f40 09       		.byte	0x9
 2724 0f41 FF       		.byte	0xff
 2725 0f42 00       		.byte	0
 2726 0f43 24       		.uleb128 0x24
 2727 0f44 24010000 		.4byte	.LVL63
 2728 0f48 6E110000 		.4byte	0x116e
 2729 0f4c 23       		.uleb128 0x23
 2730 0f4d 01       		.uleb128 0x1
 2731 0f4e 50       		.byte	0x50
 2732 0f4f 02       		.uleb128 0x2
 2733 0f50 91       		.byte	0x91
 2734 0f51 44       		.sleb128 -60
 2735 0f52 00       		.byte	0
 2736 0f53 00       		.byte	0
ARM GAS  /var/folders/3j/4xdnk5197cv_b7cw3n33qk7r0000gn/T//ccUlDA21.s 			page 49


 2737 0f54 2A       		.uleb128 0x2a
 2738 0f55 F5040000 		.4byte	.LASF205
 2739 0f59 01       		.byte	0x1
 2740 0f5a B2       		.byte	0xb2
 2741 0f5b 00000000 		.4byte	.LFB11
 2742 0f5f 34000000 		.4byte	.LFE11-.LFB11
 2743 0f63 01       		.uleb128 0x1
 2744 0f64 9C       		.byte	0x9c
 2745 0f65 A50F0000 		.4byte	0xfa5
 2746 0f69 26       		.uleb128 0x26
 2747 0f6a F2000000 		.4byte	.LASF201
 2748 0f6e 01       		.byte	0x1
 2749 0f6f B2       		.byte	0xb2
 2750 0f70 570A0000 		.4byte	0xa57
 2751 0f74 EA010000 		.4byte	.LLST11
 2752 0f78 22       		.uleb128 0x22
 2753 0f79 14000000 		.4byte	.LVL33
 2754 0f7d 79110000 		.4byte	0x1179
 2755 0f81 900F0000 		.4byte	0xf90
 2756 0f85 23       		.uleb128 0x23
 2757 0f86 01       		.uleb128 0x1
 2758 0f87 50       		.byte	0x50
 2759 0f88 01       		.uleb128 0x1
 2760 0f89 30       		.byte	0x30
 2761 0f8a 23       		.uleb128 0x23
 2762 0f8b 01       		.uleb128 0x1
 2763 0f8c 51       		.byte	0x51
 2764 0f8d 01       		.uleb128 0x1
 2765 0f8e 30       		.byte	0x30
 2766 0f8f 00       		.byte	0
 2767 0f90 24       		.uleb128 0x24
 2768 0f91 20000000 		.4byte	.LVL34
 2769 0f95 79110000 		.4byte	0x1179
 2770 0f99 23       		.uleb128 0x23
 2771 0f9a 01       		.uleb128 0x1
 2772 0f9b 50       		.byte	0x50
 2773 0f9c 01       		.uleb128 0x1
 2774 0f9d 31       		.byte	0x31
 2775 0f9e 23       		.uleb128 0x23
 2776 0f9f 01       		.uleb128 0x1
 2777 0fa0 51       		.byte	0x51
 2778 0fa1 01       		.uleb128 0x1
 2779 0fa2 30       		.byte	0x30
 2780 0fa3 00       		.byte	0
 2781 0fa4 00       		.byte	0
 2782 0fa5 2B       		.uleb128 0x2b
 2783 0fa6 5B060000 		.4byte	.LASF206
 2784 0faa 01       		.byte	0x1
 2785 0fab 9B       		.byte	0x9b
 2786 0fac 00000000 		.4byte	.LFB10
 2787 0fb0 80000000 		.4byte	.LFE10-.LFB10
 2788 0fb4 01       		.uleb128 0x1
 2789 0fb5 9C       		.byte	0x9c
 2790 0fb6 35100000 		.4byte	0x1035
 2791 0fba 26       		.uleb128 0x26
 2792 0fbb F2000000 		.4byte	.LASF201
 2793 0fbf 01       		.byte	0x1
ARM GAS  /var/folders/3j/4xdnk5197cv_b7cw3n33qk7r0000gn/T//ccUlDA21.s 			page 50


 2794 0fc0 9B       		.byte	0x9b
 2795 0fc1 570A0000 		.4byte	0xa57
 2796 0fc5 08020000 		.4byte	.LLST9
 2797 0fc9 29       		.uleb128 0x29
 2798 0fca 77090000 		.4byte	.LASF207
 2799 0fce 01       		.byte	0x1
 2800 0fcf A4       		.byte	0xa4
 2801 0fd0 CD000000 		.4byte	0xcd
 2802 0fd4 26020000 		.4byte	.LLST10
 2803 0fd8 22       		.uleb128 0x22
 2804 0fd9 14000000 		.4byte	.LVL24
 2805 0fdd 79110000 		.4byte	0x1179
 2806 0fe1 F00F0000 		.4byte	0xff0
 2807 0fe5 23       		.uleb128 0x23
 2808 0fe6 01       		.uleb128 0x1
 2809 0fe7 50       		.byte	0x50
 2810 0fe8 01       		.uleb128 0x1
 2811 0fe9 30       		.byte	0x30
 2812 0fea 23       		.uleb128 0x23
 2813 0feb 01       		.uleb128 0x1
 2814 0fec 51       		.byte	0x51
 2815 0fed 01       		.uleb128 0x1
 2816 0fee 34       		.byte	0x34
 2817 0fef 00       		.byte	0
 2818 0ff0 22       		.uleb128 0x22
 2819 0ff1 20000000 		.4byte	.LVL25
 2820 0ff5 79110000 		.4byte	0x1179
 2821 0ff9 08100000 		.4byte	0x1008
 2822 0ffd 23       		.uleb128 0x23
 2823 0ffe 01       		.uleb128 0x1
 2824 0fff 50       		.byte	0x50
 2825 1000 01       		.uleb128 0x1
 2826 1001 31       		.byte	0x31
 2827 1002 23       		.uleb128 0x23
 2828 1003 01       		.uleb128 0x1
 2829 1004 51       		.byte	0x51
 2830 1005 01       		.uleb128 0x1
 2831 1006 34       		.byte	0x34
 2832 1007 00       		.byte	0
 2833 1008 22       		.uleb128 0x22
 2834 1009 2C000000 		.4byte	.LVL26
 2835 100d 79110000 		.4byte	0x1179
 2836 1011 20100000 		.4byte	0x1020
 2837 1015 23       		.uleb128 0x23
 2838 1016 01       		.uleb128 0x1
 2839 1017 50       		.byte	0x50
 2840 1018 01       		.uleb128 0x1
 2841 1019 32       		.byte	0x32
 2842 101a 23       		.uleb128 0x23
 2843 101b 01       		.uleb128 0x1
 2844 101c 51       		.byte	0x51
 2845 101d 01       		.uleb128 0x1
 2846 101e 34       		.byte	0x34
 2847 101f 00       		.byte	0
 2848 1020 24       		.uleb128 0x24
 2849 1021 38000000 		.4byte	.LVL27
 2850 1025 79110000 		.4byte	0x1179
ARM GAS  /var/folders/3j/4xdnk5197cv_b7cw3n33qk7r0000gn/T//ccUlDA21.s 			page 51


 2851 1029 23       		.uleb128 0x23
 2852 102a 01       		.uleb128 0x1
 2853 102b 50       		.byte	0x50
 2854 102c 01       		.uleb128 0x1
 2855 102d 33       		.byte	0x33
 2856 102e 23       		.uleb128 0x23
 2857 102f 01       		.uleb128 0x1
 2858 1030 51       		.byte	0x51
 2859 1031 01       		.uleb128 0x1
 2860 1032 34       		.byte	0x34
 2861 1033 00       		.byte	0
 2862 1034 00       		.byte	0
 2863 1035 2A       		.uleb128 0x2a
 2864 1036 BF080000 		.4byte	.LASF208
 2865 103a 01       		.byte	0x1
 2866 103b 8C       		.byte	0x8c
 2867 103c 00000000 		.4byte	.LFB9
 2868 1040 40000000 		.4byte	.LFE9-.LFB9
 2869 1044 01       		.uleb128 0x1
 2870 1045 9C       		.byte	0x9c
 2871 1046 75100000 		.4byte	0x1075
 2872 104a 22       		.uleb128 0x22
 2873 104b 18000000 		.4byte	.LVL20
 2874 104f 85110000 		.4byte	0x1185
 2875 1053 61100000 		.4byte	0x1061
 2876 1057 23       		.uleb128 0x23
 2877 1058 01       		.uleb128 0x1
 2878 1059 50       		.byte	0x50
 2879 105a 05       		.uleb128 0x5
 2880 105b 03       		.byte	0x3
 2881 105c 00000000 		.4byte	I2C0
 2882 1060 00       		.byte	0
 2883 1061 2C       		.uleb128 0x2c
 2884 1062 30000000 		.4byte	.LVL21
 2885 1066 85110000 		.4byte	0x1185
 2886 106a 23       		.uleb128 0x23
 2887 106b 01       		.uleb128 0x1
 2888 106c 50       		.byte	0x50
 2889 106d 05       		.uleb128 0x5
 2890 106e 03       		.byte	0x3
 2891 106f 00000000 		.4byte	I2C1
 2892 1073 00       		.byte	0
 2893 1074 00       		.byte	0
 2894 1075 2A       		.uleb128 0x2a
 2895 1076 9A010000 		.4byte	.LASF209
 2896 107a 01       		.byte	0x1
 2897 107b 69       		.byte	0x69
 2898 107c 00000000 		.4byte	.LFB8
 2899 1080 4C010000 		.4byte	.LFE8-.LFB8
 2900 1084 01       		.uleb128 0x1
 2901 1085 9C       		.byte	0x9c
 2902 1086 FA100000 		.4byte	0x10fa
 2903 108a 26       		.uleb128 0x26
 2904 108b F2000000 		.4byte	.LASF201
 2905 108f 01       		.byte	0x1
 2906 1090 69       		.byte	0x69
 2907 1091 570A0000 		.4byte	0xa57
ARM GAS  /var/folders/3j/4xdnk5197cv_b7cw3n33qk7r0000gn/T//ccUlDA21.s 			page 52


 2908 1095 44020000 		.4byte	.LLST4
 2909 1099 29       		.uleb128 0x29
 2910 109a 1A010000 		.4byte	.LASF150
 2911 109e 01       		.byte	0x1
 2912 109f 6B       		.byte	0x6b
 2913 10a0 880A0000 		.4byte	0xa88
 2914 10a4 89020000 		.4byte	.LLST5
 2915 10a8 29       		.uleb128 0x29
 2916 10a9 D3080000 		.4byte	.LASF121
 2917 10ad 01       		.byte	0x1
 2918 10ae 6C       		.byte	0x6c
 2919 10af CD000000 		.4byte	0xcd
 2920 10b3 CD020000 		.4byte	.LLST6
 2921 10b7 2D       		.uleb128 0x2d
 2922 10b8 1C000000 		.4byte	.LBB5
 2923 10bc 18000000 		.4byte	.LBE5-.LBB5
 2924 10c0 DC100000 		.4byte	0x10dc
 2925 10c4 2E       		.uleb128 0x2e
 2926 10c5 747000   		.ascii	"tp\000"
 2927 10c8 01       		.byte	0x1
 2928 10c9 70       		.byte	0x70
 2929 10ca 62020000 		.4byte	0x262
 2930 10ce 01030000 		.4byte	.LLST7
 2931 10d2 2F       		.uleb128 0x2f
 2932 10d3 34000000 		.4byte	.LVL12
 2933 10d7 90110000 		.4byte	0x1190
 2934 10db 00       		.byte	0
 2935 10dc 30       		.uleb128 0x30
 2936 10dd 20000000 		.4byte	.Ldebug_ranges0+0x20
 2937 10e1 2E       		.uleb128 0x2e
 2938 10e2 747000   		.ascii	"tp\000"
 2939 10e5 01       		.byte	0x1
 2940 10e6 77       		.byte	0x77
 2941 10e7 62020000 		.4byte	0x262
 2942 10eb 14030000 		.4byte	.LLST8
 2943 10ef 2F       		.uleb128 0x2f
 2944 10f0 AC000000 		.4byte	.LVL16
 2945 10f4 90110000 		.4byte	0x1190
 2946 10f8 00       		.byte	0
 2947 10f9 00       		.byte	0
 2948 10fa 31       		.uleb128 0x31
 2949 10fb 9E070000 		.4byte	.LASF219
 2950 10ff 01       		.byte	0x1
 2951 1100 4E       		.byte	0x4e
 2952 1101 00000000 		.4byte	.LFB7
 2953 1105 74000000 		.4byte	.LFE7-.LFB7
 2954 1109 01       		.uleb128 0x1
 2955 110a 9C       		.byte	0x9c
 2956 110b 58110000 		.4byte	0x1158
 2957 110f 32       		.uleb128 0x32
 2958 1110 7000     		.ascii	"p\000"
 2959 1112 01       		.byte	0x1
 2960 1113 4E       		.byte	0x4e
 2961 1114 A9020000 		.4byte	0x2a9
 2962 1118 27030000 		.4byte	.LLST0
 2963 111c 29       		.uleb128 0x29
 2964 111d F2000000 		.4byte	.LASF201
ARM GAS  /var/folders/3j/4xdnk5197cv_b7cw3n33qk7r0000gn/T//ccUlDA21.s 			page 53


 2965 1121 01       		.byte	0x1
 2966 1122 4F       		.byte	0x4f
 2967 1123 570A0000 		.4byte	0xa57
 2968 1127 53030000 		.4byte	.LLST1
 2969 112b 30       		.uleb128 0x30
 2970 112c 00000000 		.4byte	.Ldebug_ranges0+0
 2971 1130 29       		.uleb128 0x29
 2972 1131 1A010000 		.4byte	.LASF150
 2973 1135 01       		.byte	0x1
 2974 1136 52       		.byte	0x52
 2975 1137 880A0000 		.4byte	0xa88
 2976 113b 7F030000 		.4byte	.LLST2
 2977 113f 2E       		.uleb128 0x2e
 2978 1140 747000   		.ascii	"tp\000"
 2979 1143 01       		.byte	0x1
 2980 1144 5D       		.byte	0x5d
 2981 1145 62020000 		.4byte	0x262
 2982 1149 92030000 		.4byte	.LLST3
 2983 114d 2F       		.uleb128 0x2f
 2984 114e 70000000 		.4byte	.LVL4
 2985 1152 90110000 		.4byte	0x1190
 2986 1156 00       		.byte	0
 2987 1157 00       		.byte	0
 2988 1158 33       		.uleb128 0x33
 2989 1159 72050000 		.4byte	.LASF210
 2990 115d 72050000 		.4byte	.LASF210
 2991 1161 09       		.byte	0x9
 2992 1162 DA       		.byte	0xda
 2993 1163 33       		.uleb128 0x33
 2994 1164 30070000 		.4byte	.LASF211
 2995 1168 30070000 		.4byte	.LASF211
 2996 116c 0A       		.byte	0xa
 2997 116d 8C       		.byte	0x8c
 2998 116e 33       		.uleb128 0x33
 2999 116f AE020000 		.4byte	.LASF212
 3000 1173 AE020000 		.4byte	.LASF212
 3001 1177 09       		.byte	0x9
 3002 1178 DB       		.byte	0xdb
 3003 1179 34       		.uleb128 0x34
 3004 117a EC050000 		.4byte	.LASF213
 3005 117e EC050000 		.4byte	.LASF213
 3006 1182 10       		.byte	0x10
 3007 1183 8C01     		.2byte	0x18c
 3008 1185 33       		.uleb128 0x33
 3009 1186 3B080000 		.4byte	.LASF214
 3010 118a 3B080000 		.4byte	.LASF214
 3011 118e 12       		.byte	0x12
 3012 118f 7A       		.byte	0x7a
 3013 1190 33       		.uleb128 0x33
 3014 1191 D4070000 		.4byte	.LASF215
 3015 1195 D4070000 		.4byte	.LASF215
 3016 1199 0A       		.byte	0xa
 3017 119a 89       		.byte	0x89
 3018 119b 00       		.byte	0
 3019              		.section	.debug_abbrev,"",%progbits
 3020              	.Ldebug_abbrev0:
 3021 0000 01       		.uleb128 0x1
ARM GAS  /var/folders/3j/4xdnk5197cv_b7cw3n33qk7r0000gn/T//ccUlDA21.s 			page 54


 3022 0001 11       		.uleb128 0x11
 3023 0002 01       		.byte	0x1
 3024 0003 25       		.uleb128 0x25
 3025 0004 0E       		.uleb128 0xe
 3026 0005 13       		.uleb128 0x13
 3027 0006 0B       		.uleb128 0xb
 3028 0007 03       		.uleb128 0x3
 3029 0008 0E       		.uleb128 0xe
 3030 0009 1B       		.uleb128 0x1b
 3031 000a 0E       		.uleb128 0xe
 3032 000b 55       		.uleb128 0x55
 3033 000c 17       		.uleb128 0x17
 3034 000d 11       		.uleb128 0x11
 3035 000e 01       		.uleb128 0x1
 3036 000f 10       		.uleb128 0x10
 3037 0010 17       		.uleb128 0x17
 3038 0011 00       		.byte	0
 3039 0012 00       		.byte	0
 3040 0013 02       		.uleb128 0x2
 3041 0014 24       		.uleb128 0x24
 3042 0015 00       		.byte	0
 3043 0016 0B       		.uleb128 0xb
 3044 0017 0B       		.uleb128 0xb
 3045 0018 3E       		.uleb128 0x3e
 3046 0019 0B       		.uleb128 0xb
 3047 001a 03       		.uleb128 0x3
 3048 001b 08       		.uleb128 0x8
 3049 001c 00       		.byte	0
 3050 001d 00       		.byte	0
 3051 001e 03       		.uleb128 0x3
 3052 001f 16       		.uleb128 0x16
 3053 0020 00       		.byte	0
 3054 0021 03       		.uleb128 0x3
 3055 0022 0E       		.uleb128 0xe
 3056 0023 3A       		.uleb128 0x3a
 3057 0024 0B       		.uleb128 0xb
 3058 0025 3B       		.uleb128 0x3b
 3059 0026 0B       		.uleb128 0xb
 3060 0027 49       		.uleb128 0x49
 3061 0028 13       		.uleb128 0x13
 3062 0029 00       		.byte	0
 3063 002a 00       		.byte	0
 3064 002b 04       		.uleb128 0x4
 3065 002c 24       		.uleb128 0x24
 3066 002d 00       		.byte	0
 3067 002e 0B       		.uleb128 0xb
 3068 002f 0B       		.uleb128 0xb
 3069 0030 3E       		.uleb128 0x3e
 3070 0031 0B       		.uleb128 0xb
 3071 0032 03       		.uleb128 0x3
 3072 0033 0E       		.uleb128 0xe
 3073 0034 00       		.byte	0
 3074 0035 00       		.byte	0
 3075 0036 05       		.uleb128 0x5
 3076 0037 35       		.uleb128 0x35
 3077 0038 00       		.byte	0
 3078 0039 49       		.uleb128 0x49
ARM GAS  /var/folders/3j/4xdnk5197cv_b7cw3n33qk7r0000gn/T//ccUlDA21.s 			page 55


 3079 003a 13       		.uleb128 0x13
 3080 003b 00       		.byte	0
 3081 003c 00       		.byte	0
 3082 003d 06       		.uleb128 0x6
 3083 003e 26       		.uleb128 0x26
 3084 003f 00       		.byte	0
 3085 0040 49       		.uleb128 0x49
 3086 0041 13       		.uleb128 0x13
 3087 0042 00       		.byte	0
 3088 0043 00       		.byte	0
 3089 0044 07       		.uleb128 0x7
 3090 0045 13       		.uleb128 0x13
 3091 0046 01       		.byte	0x1
 3092 0047 03       		.uleb128 0x3
 3093 0048 0E       		.uleb128 0xe
 3094 0049 0B       		.uleb128 0xb
 3095 004a 0B       		.uleb128 0xb
 3096 004b 3A       		.uleb128 0x3a
 3097 004c 0B       		.uleb128 0xb
 3098 004d 3B       		.uleb128 0x3b
 3099 004e 0B       		.uleb128 0xb
 3100 004f 01       		.uleb128 0x1
 3101 0050 13       		.uleb128 0x13
 3102 0051 00       		.byte	0
 3103 0052 00       		.byte	0
 3104 0053 08       		.uleb128 0x8
 3105 0054 0D       		.uleb128 0xd
 3106 0055 00       		.byte	0
 3107 0056 03       		.uleb128 0x3
 3108 0057 0E       		.uleb128 0xe
 3109 0058 3A       		.uleb128 0x3a
 3110 0059 0B       		.uleb128 0xb
 3111 005a 3B       		.uleb128 0x3b
 3112 005b 0B       		.uleb128 0xb
 3113 005c 49       		.uleb128 0x49
 3114 005d 13       		.uleb128 0x13
 3115 005e 38       		.uleb128 0x38
 3116 005f 0B       		.uleb128 0xb
 3117 0060 00       		.byte	0
 3118 0061 00       		.byte	0
 3119 0062 09       		.uleb128 0x9
 3120 0063 0D       		.uleb128 0xd
 3121 0064 00       		.byte	0
 3122 0065 03       		.uleb128 0x3
 3123 0066 08       		.uleb128 0x8
 3124 0067 3A       		.uleb128 0x3a
 3125 0068 0B       		.uleb128 0xb
 3126 0069 3B       		.uleb128 0x3b
 3127 006a 0B       		.uleb128 0xb
 3128 006b 49       		.uleb128 0x49
 3129 006c 13       		.uleb128 0x13
 3130 006d 38       		.uleb128 0x38
 3131 006e 0B       		.uleb128 0xb
 3132 006f 00       		.byte	0
 3133 0070 00       		.byte	0
 3134 0071 0A       		.uleb128 0xa
 3135 0072 13       		.uleb128 0x13
ARM GAS  /var/folders/3j/4xdnk5197cv_b7cw3n33qk7r0000gn/T//ccUlDA21.s 			page 56


 3136 0073 01       		.byte	0x1
 3137 0074 0B       		.uleb128 0xb
 3138 0075 0B       		.uleb128 0xb
 3139 0076 3A       		.uleb128 0x3a
 3140 0077 0B       		.uleb128 0xb
 3141 0078 3B       		.uleb128 0x3b
 3142 0079 0B       		.uleb128 0xb
 3143 007a 01       		.uleb128 0x1
 3144 007b 13       		.uleb128 0x13
 3145 007c 00       		.byte	0
 3146 007d 00       		.byte	0
 3147 007e 0B       		.uleb128 0xb
 3148 007f 0F       		.uleb128 0xf
 3149 0080 00       		.byte	0
 3150 0081 0B       		.uleb128 0xb
 3151 0082 0B       		.uleb128 0xb
 3152 0083 49       		.uleb128 0x49
 3153 0084 13       		.uleb128 0x13
 3154 0085 00       		.byte	0
 3155 0086 00       		.byte	0
 3156 0087 0C       		.uleb128 0xc
 3157 0088 0F       		.uleb128 0xf
 3158 0089 00       		.byte	0
 3159 008a 0B       		.uleb128 0xb
 3160 008b 0B       		.uleb128 0xb
 3161 008c 00       		.byte	0
 3162 008d 00       		.byte	0
 3163 008e 0D       		.uleb128 0xd
 3164 008f 15       		.uleb128 0x15
 3165 0090 01       		.byte	0x1
 3166 0091 27       		.uleb128 0x27
 3167 0092 19       		.uleb128 0x19
 3168 0093 01       		.uleb128 0x1
 3169 0094 13       		.uleb128 0x13
 3170 0095 00       		.byte	0
 3171 0096 00       		.byte	0
 3172 0097 0E       		.uleb128 0xe
 3173 0098 05       		.uleb128 0x5
 3174 0099 00       		.byte	0
 3175 009a 49       		.uleb128 0x49
 3176 009b 13       		.uleb128 0x13
 3177 009c 00       		.byte	0
 3178 009d 00       		.byte	0
 3179 009e 0F       		.uleb128 0xf
 3180 009f 34       		.uleb128 0x34
 3181 00a0 00       		.byte	0
 3182 00a1 03       		.uleb128 0x3
 3183 00a2 0E       		.uleb128 0xe
 3184 00a3 3A       		.uleb128 0x3a
 3185 00a4 0B       		.uleb128 0xb
 3186 00a5 3B       		.uleb128 0x3b
 3187 00a6 0B       		.uleb128 0xb
 3188 00a7 49       		.uleb128 0x49
 3189 00a8 13       		.uleb128 0x13
 3190 00a9 3F       		.uleb128 0x3f
 3191 00aa 19       		.uleb128 0x19
 3192 00ab 3C       		.uleb128 0x3c
ARM GAS  /var/folders/3j/4xdnk5197cv_b7cw3n33qk7r0000gn/T//ccUlDA21.s 			page 57


 3193 00ac 19       		.uleb128 0x19
 3194 00ad 00       		.byte	0
 3195 00ae 00       		.byte	0
 3196 00af 10       		.uleb128 0x10
 3197 00b0 17       		.uleb128 0x17
 3198 00b1 01       		.byte	0x1
 3199 00b2 0B       		.uleb128 0xb
 3200 00b3 0B       		.uleb128 0xb
 3201 00b4 3A       		.uleb128 0x3a
 3202 00b5 0B       		.uleb128 0xb
 3203 00b6 3B       		.uleb128 0x3b
 3204 00b7 0B       		.uleb128 0xb
 3205 00b8 01       		.uleb128 0x1
 3206 00b9 13       		.uleb128 0x13
 3207 00ba 00       		.byte	0
 3208 00bb 00       		.byte	0
 3209 00bc 11       		.uleb128 0x11
 3210 00bd 0D       		.uleb128 0xd
 3211 00be 00       		.byte	0
 3212 00bf 03       		.uleb128 0x3
 3213 00c0 0E       		.uleb128 0xe
 3214 00c1 3A       		.uleb128 0x3a
 3215 00c2 0B       		.uleb128 0xb
 3216 00c3 3B       		.uleb128 0x3b
 3217 00c4 0B       		.uleb128 0xb
 3218 00c5 49       		.uleb128 0x49
 3219 00c6 13       		.uleb128 0x13
 3220 00c7 00       		.byte	0
 3221 00c8 00       		.byte	0
 3222 00c9 12       		.uleb128 0x12
 3223 00ca 15       		.uleb128 0x15
 3224 00cb 01       		.byte	0x1
 3225 00cc 27       		.uleb128 0x27
 3226 00cd 19       		.uleb128 0x19
 3227 00ce 49       		.uleb128 0x49
 3228 00cf 13       		.uleb128 0x13
 3229 00d0 01       		.uleb128 0x1
 3230 00d1 13       		.uleb128 0x13
 3231 00d2 00       		.byte	0
 3232 00d3 00       		.byte	0
 3233 00d4 13       		.uleb128 0x13
 3234 00d5 01       		.uleb128 0x1
 3235 00d6 01       		.byte	0x1
 3236 00d7 49       		.uleb128 0x49
 3237 00d8 13       		.uleb128 0x13
 3238 00d9 01       		.uleb128 0x1
 3239 00da 13       		.uleb128 0x13
 3240 00db 00       		.byte	0
 3241 00dc 00       		.byte	0
 3242 00dd 14       		.uleb128 0x14
 3243 00de 21       		.uleb128 0x21
 3244 00df 00       		.byte	0
 3245 00e0 49       		.uleb128 0x49
 3246 00e1 13       		.uleb128 0x13
 3247 00e2 2F       		.uleb128 0x2f
 3248 00e3 0B       		.uleb128 0xb
 3249 00e4 00       		.byte	0
ARM GAS  /var/folders/3j/4xdnk5197cv_b7cw3n33qk7r0000gn/T//ccUlDA21.s 			page 58


 3250 00e5 00       		.byte	0
 3251 00e6 15       		.uleb128 0x15
 3252 00e7 0D       		.uleb128 0xd
 3253 00e8 00       		.byte	0
 3254 00e9 03       		.uleb128 0x3
 3255 00ea 0E       		.uleb128 0xe
 3256 00eb 3A       		.uleb128 0x3a
 3257 00ec 0B       		.uleb128 0xb
 3258 00ed 3B       		.uleb128 0x3b
 3259 00ee 05       		.uleb128 0x5
 3260 00ef 49       		.uleb128 0x49
 3261 00f0 13       		.uleb128 0x13
 3262 00f1 38       		.uleb128 0x38
 3263 00f2 0B       		.uleb128 0xb
 3264 00f3 00       		.byte	0
 3265 00f4 00       		.byte	0
 3266 00f5 16       		.uleb128 0x16
 3267 00f6 16       		.uleb128 0x16
 3268 00f7 00       		.byte	0
 3269 00f8 03       		.uleb128 0x3
 3270 00f9 0E       		.uleb128 0xe
 3271 00fa 3A       		.uleb128 0x3a
 3272 00fb 0B       		.uleb128 0xb
 3273 00fc 3B       		.uleb128 0x3b
 3274 00fd 05       		.uleb128 0x5
 3275 00fe 49       		.uleb128 0x49
 3276 00ff 13       		.uleb128 0x13
 3277 0100 00       		.byte	0
 3278 0101 00       		.byte	0
 3279 0102 17       		.uleb128 0x17
 3280 0103 13       		.uleb128 0x13
 3281 0104 00       		.byte	0
 3282 0105 0B       		.uleb128 0xb
 3283 0106 0B       		.uleb128 0xb
 3284 0107 3A       		.uleb128 0x3a
 3285 0108 0B       		.uleb128 0xb
 3286 0109 3B       		.uleb128 0x3b
 3287 010a 0B       		.uleb128 0xb
 3288 010b 00       		.byte	0
 3289 010c 00       		.byte	0
 3290 010d 18       		.uleb128 0x18
 3291 010e 04       		.uleb128 0x4
 3292 010f 01       		.byte	0x1
 3293 0110 3E       		.uleb128 0x3e
 3294 0111 0B       		.uleb128 0xb
 3295 0112 0B       		.uleb128 0xb
 3296 0113 0B       		.uleb128 0xb
 3297 0114 49       		.uleb128 0x49
 3298 0115 13       		.uleb128 0x13
 3299 0116 3A       		.uleb128 0x3a
 3300 0117 0B       		.uleb128 0xb
 3301 0118 3B       		.uleb128 0x3b
 3302 0119 0B       		.uleb128 0xb
 3303 011a 01       		.uleb128 0x1
 3304 011b 13       		.uleb128 0x13
 3305 011c 00       		.byte	0
 3306 011d 00       		.byte	0
ARM GAS  /var/folders/3j/4xdnk5197cv_b7cw3n33qk7r0000gn/T//ccUlDA21.s 			page 59


 3307 011e 19       		.uleb128 0x19
 3308 011f 28       		.uleb128 0x28
 3309 0120 00       		.byte	0
 3310 0121 03       		.uleb128 0x3
 3311 0122 0E       		.uleb128 0xe
 3312 0123 1C       		.uleb128 0x1c
 3313 0124 0B       		.uleb128 0xb
 3314 0125 00       		.byte	0
 3315 0126 00       		.byte	0
 3316 0127 1A       		.uleb128 0x1a
 3317 0128 34       		.uleb128 0x34
 3318 0129 00       		.byte	0
 3319 012a 03       		.uleb128 0x3
 3320 012b 08       		.uleb128 0x8
 3321 012c 3A       		.uleb128 0x3a
 3322 012d 0B       		.uleb128 0xb
 3323 012e 3B       		.uleb128 0x3b
 3324 012f 0B       		.uleb128 0xb
 3325 0130 49       		.uleb128 0x49
 3326 0131 13       		.uleb128 0x13
 3327 0132 3F       		.uleb128 0x3f
 3328 0133 19       		.uleb128 0x19
 3329 0134 3C       		.uleb128 0x3c
 3330 0135 19       		.uleb128 0x19
 3331 0136 00       		.byte	0
 3332 0137 00       		.byte	0
 3333 0138 1B       		.uleb128 0x1b
 3334 0139 26       		.uleb128 0x26
 3335 013a 00       		.byte	0
 3336 013b 00       		.byte	0
 3337 013c 00       		.byte	0
 3338 013d 1C       		.uleb128 0x1c
 3339 013e 34       		.uleb128 0x34
 3340 013f 00       		.byte	0
 3341 0140 47       		.uleb128 0x47
 3342 0141 13       		.uleb128 0x13
 3343 0142 3A       		.uleb128 0x3a
 3344 0143 0B       		.uleb128 0xb
 3345 0144 3B       		.uleb128 0x3b
 3346 0145 0B       		.uleb128 0xb
 3347 0146 02       		.uleb128 0x2
 3348 0147 18       		.uleb128 0x18
 3349 0148 00       		.byte	0
 3350 0149 00       		.byte	0
 3351 014a 1D       		.uleb128 0x1d
 3352 014b 2E       		.uleb128 0x2e
 3353 014c 01       		.byte	0x1
 3354 014d 3F       		.uleb128 0x3f
 3355 014e 19       		.uleb128 0x19
 3356 014f 03       		.uleb128 0x3
 3357 0150 0E       		.uleb128 0xe
 3358 0151 3A       		.uleb128 0x3a
 3359 0152 0B       		.uleb128 0xb
 3360 0153 3B       		.uleb128 0x3b
 3361 0154 05       		.uleb128 0x5
 3362 0155 27       		.uleb128 0x27
 3363 0156 19       		.uleb128 0x19
ARM GAS  /var/folders/3j/4xdnk5197cv_b7cw3n33qk7r0000gn/T//ccUlDA21.s 			page 60


 3364 0157 49       		.uleb128 0x49
 3365 0158 13       		.uleb128 0x13
 3366 0159 11       		.uleb128 0x11
 3367 015a 01       		.uleb128 0x1
 3368 015b 12       		.uleb128 0x12
 3369 015c 06       		.uleb128 0x6
 3370 015d 40       		.uleb128 0x40
 3371 015e 18       		.uleb128 0x18
 3372 015f 9742     		.uleb128 0x2117
 3373 0161 19       		.uleb128 0x19
 3374 0162 01       		.uleb128 0x1
 3375 0163 13       		.uleb128 0x13
 3376 0164 00       		.byte	0
 3377 0165 00       		.byte	0
 3378 0166 1E       		.uleb128 0x1e
 3379 0167 05       		.uleb128 0x5
 3380 0168 00       		.byte	0
 3381 0169 03       		.uleb128 0x3
 3382 016a 0E       		.uleb128 0xe
 3383 016b 3A       		.uleb128 0x3a
 3384 016c 0B       		.uleb128 0xb
 3385 016d 3B       		.uleb128 0x3b
 3386 016e 05       		.uleb128 0x5
 3387 016f 49       		.uleb128 0x49
 3388 0170 13       		.uleb128 0x13
 3389 0171 02       		.uleb128 0x2
 3390 0172 17       		.uleb128 0x17
 3391 0173 00       		.byte	0
 3392 0174 00       		.byte	0
 3393 0175 1F       		.uleb128 0x1f
 3394 0176 05       		.uleb128 0x5
 3395 0177 00       		.byte	0
 3396 0178 03       		.uleb128 0x3
 3397 0179 0E       		.uleb128 0xe
 3398 017a 3A       		.uleb128 0x3a
 3399 017b 0B       		.uleb128 0xb
 3400 017c 3B       		.uleb128 0x3b
 3401 017d 05       		.uleb128 0x5
 3402 017e 49       		.uleb128 0x49
 3403 017f 13       		.uleb128 0x13
 3404 0180 02       		.uleb128 0x2
 3405 0181 18       		.uleb128 0x18
 3406 0182 00       		.byte	0
 3407 0183 00       		.byte	0
 3408 0184 20       		.uleb128 0x20
 3409 0185 34       		.uleb128 0x34
 3410 0186 00       		.byte	0
 3411 0187 03       		.uleb128 0x3
 3412 0188 08       		.uleb128 0x8
 3413 0189 3A       		.uleb128 0x3a
 3414 018a 0B       		.uleb128 0xb
 3415 018b 3B       		.uleb128 0x3b
 3416 018c 05       		.uleb128 0x5
 3417 018d 49       		.uleb128 0x49
 3418 018e 13       		.uleb128 0x13
 3419 018f 02       		.uleb128 0x2
 3420 0190 18       		.uleb128 0x18
ARM GAS  /var/folders/3j/4xdnk5197cv_b7cw3n33qk7r0000gn/T//ccUlDA21.s 			page 61


 3421 0191 00       		.byte	0
 3422 0192 00       		.byte	0
 3423 0193 21       		.uleb128 0x21
 3424 0194 34       		.uleb128 0x34
 3425 0195 00       		.byte	0
 3426 0196 03       		.uleb128 0x3
 3427 0197 0E       		.uleb128 0xe
 3428 0198 3A       		.uleb128 0x3a
 3429 0199 0B       		.uleb128 0xb
 3430 019a 3B       		.uleb128 0x3b
 3431 019b 05       		.uleb128 0x5
 3432 019c 49       		.uleb128 0x49
 3433 019d 13       		.uleb128 0x13
 3434 019e 02       		.uleb128 0x2
 3435 019f 17       		.uleb128 0x17
 3436 01a0 00       		.byte	0
 3437 01a1 00       		.byte	0
 3438 01a2 22       		.uleb128 0x22
 3439 01a3 898201   		.uleb128 0x4109
 3440 01a6 01       		.byte	0x1
 3441 01a7 11       		.uleb128 0x11
 3442 01a8 01       		.uleb128 0x1
 3443 01a9 31       		.uleb128 0x31
 3444 01aa 13       		.uleb128 0x13
 3445 01ab 01       		.uleb128 0x1
 3446 01ac 13       		.uleb128 0x13
 3447 01ad 00       		.byte	0
 3448 01ae 00       		.byte	0
 3449 01af 23       		.uleb128 0x23
 3450 01b0 8A8201   		.uleb128 0x410a
 3451 01b3 00       		.byte	0
 3452 01b4 02       		.uleb128 0x2
 3453 01b5 18       		.uleb128 0x18
 3454 01b6 9142     		.uleb128 0x2111
 3455 01b8 18       		.uleb128 0x18
 3456 01b9 00       		.byte	0
 3457 01ba 00       		.byte	0
 3458 01bb 24       		.uleb128 0x24
 3459 01bc 898201   		.uleb128 0x4109
 3460 01bf 01       		.byte	0x1
 3461 01c0 11       		.uleb128 0x11
 3462 01c1 01       		.uleb128 0x1
 3463 01c2 31       		.uleb128 0x31
 3464 01c3 13       		.uleb128 0x13
 3465 01c4 00       		.byte	0
 3466 01c5 00       		.byte	0
 3467 01c6 25       		.uleb128 0x25
 3468 01c7 2E       		.uleb128 0x2e
 3469 01c8 01       		.byte	0x1
 3470 01c9 3F       		.uleb128 0x3f
 3471 01ca 19       		.uleb128 0x19
 3472 01cb 03       		.uleb128 0x3
 3473 01cc 0E       		.uleb128 0xe
 3474 01cd 3A       		.uleb128 0x3a
 3475 01ce 0B       		.uleb128 0xb
 3476 01cf 3B       		.uleb128 0x3b
 3477 01d0 0B       		.uleb128 0xb
ARM GAS  /var/folders/3j/4xdnk5197cv_b7cw3n33qk7r0000gn/T//ccUlDA21.s 			page 62


 3478 01d1 27       		.uleb128 0x27
 3479 01d2 19       		.uleb128 0x19
 3480 01d3 49       		.uleb128 0x49
 3481 01d4 13       		.uleb128 0x13
 3482 01d5 11       		.uleb128 0x11
 3483 01d6 01       		.uleb128 0x1
 3484 01d7 12       		.uleb128 0x12
 3485 01d8 06       		.uleb128 0x6
 3486 01d9 40       		.uleb128 0x40
 3487 01da 18       		.uleb128 0x18
 3488 01db 9742     		.uleb128 0x2117
 3489 01dd 19       		.uleb128 0x19
 3490 01de 01       		.uleb128 0x1
 3491 01df 13       		.uleb128 0x13
 3492 01e0 00       		.byte	0
 3493 01e1 00       		.byte	0
 3494 01e2 26       		.uleb128 0x26
 3495 01e3 05       		.uleb128 0x5
 3496 01e4 00       		.byte	0
 3497 01e5 03       		.uleb128 0x3
 3498 01e6 0E       		.uleb128 0xe
 3499 01e7 3A       		.uleb128 0x3a
 3500 01e8 0B       		.uleb128 0xb
 3501 01e9 3B       		.uleb128 0x3b
 3502 01ea 0B       		.uleb128 0xb
 3503 01eb 49       		.uleb128 0x49
 3504 01ec 13       		.uleb128 0x13
 3505 01ed 02       		.uleb128 0x2
 3506 01ee 17       		.uleb128 0x17
 3507 01ef 00       		.byte	0
 3508 01f0 00       		.byte	0
 3509 01f1 27       		.uleb128 0x27
 3510 01f2 05       		.uleb128 0x5
 3511 01f3 00       		.byte	0
 3512 01f4 03       		.uleb128 0x3
 3513 01f5 0E       		.uleb128 0xe
 3514 01f6 3A       		.uleb128 0x3a
 3515 01f7 0B       		.uleb128 0xb
 3516 01f8 3B       		.uleb128 0x3b
 3517 01f9 0B       		.uleb128 0xb
 3518 01fa 49       		.uleb128 0x49
 3519 01fb 13       		.uleb128 0x13
 3520 01fc 02       		.uleb128 0x2
 3521 01fd 18       		.uleb128 0x18
 3522 01fe 00       		.byte	0
 3523 01ff 00       		.byte	0
 3524 0200 28       		.uleb128 0x28
 3525 0201 34       		.uleb128 0x34
 3526 0202 00       		.byte	0
 3527 0203 03       		.uleb128 0x3
 3528 0204 08       		.uleb128 0x8
 3529 0205 3A       		.uleb128 0x3a
 3530 0206 0B       		.uleb128 0xb
 3531 0207 3B       		.uleb128 0x3b
 3532 0208 0B       		.uleb128 0xb
 3533 0209 49       		.uleb128 0x49
 3534 020a 13       		.uleb128 0x13
ARM GAS  /var/folders/3j/4xdnk5197cv_b7cw3n33qk7r0000gn/T//ccUlDA21.s 			page 63


 3535 020b 02       		.uleb128 0x2
 3536 020c 18       		.uleb128 0x18
 3537 020d 00       		.byte	0
 3538 020e 00       		.byte	0
 3539 020f 29       		.uleb128 0x29
 3540 0210 34       		.uleb128 0x34
 3541 0211 00       		.byte	0
 3542 0212 03       		.uleb128 0x3
 3543 0213 0E       		.uleb128 0xe
 3544 0214 3A       		.uleb128 0x3a
 3545 0215 0B       		.uleb128 0xb
 3546 0216 3B       		.uleb128 0x3b
 3547 0217 0B       		.uleb128 0xb
 3548 0218 49       		.uleb128 0x49
 3549 0219 13       		.uleb128 0x13
 3550 021a 02       		.uleb128 0x2
 3551 021b 17       		.uleb128 0x17
 3552 021c 00       		.byte	0
 3553 021d 00       		.byte	0
 3554 021e 2A       		.uleb128 0x2a
 3555 021f 2E       		.uleb128 0x2e
 3556 0220 01       		.byte	0x1
 3557 0221 3F       		.uleb128 0x3f
 3558 0222 19       		.uleb128 0x19
 3559 0223 03       		.uleb128 0x3
 3560 0224 0E       		.uleb128 0xe
 3561 0225 3A       		.uleb128 0x3a
 3562 0226 0B       		.uleb128 0xb
 3563 0227 3B       		.uleb128 0x3b
 3564 0228 0B       		.uleb128 0xb
 3565 0229 27       		.uleb128 0x27
 3566 022a 19       		.uleb128 0x19
 3567 022b 11       		.uleb128 0x11
 3568 022c 01       		.uleb128 0x1
 3569 022d 12       		.uleb128 0x12
 3570 022e 06       		.uleb128 0x6
 3571 022f 40       		.uleb128 0x40
 3572 0230 18       		.uleb128 0x18
 3573 0231 9742     		.uleb128 0x2117
 3574 0233 19       		.uleb128 0x19
 3575 0234 01       		.uleb128 0x1
 3576 0235 13       		.uleb128 0x13
 3577 0236 00       		.byte	0
 3578 0237 00       		.byte	0
 3579 0238 2B       		.uleb128 0x2b
 3580 0239 2E       		.uleb128 0x2e
 3581 023a 01       		.byte	0x1
 3582 023b 3F       		.uleb128 0x3f
 3583 023c 19       		.uleb128 0x19
 3584 023d 03       		.uleb128 0x3
 3585 023e 0E       		.uleb128 0xe
 3586 023f 3A       		.uleb128 0x3a
 3587 0240 0B       		.uleb128 0xb
 3588 0241 3B       		.uleb128 0x3b
 3589 0242 0B       		.uleb128 0xb
 3590 0243 27       		.uleb128 0x27
 3591 0244 19       		.uleb128 0x19
ARM GAS  /var/folders/3j/4xdnk5197cv_b7cw3n33qk7r0000gn/T//ccUlDA21.s 			page 64


 3592 0245 11       		.uleb128 0x11
 3593 0246 01       		.uleb128 0x1
 3594 0247 12       		.uleb128 0x12
 3595 0248 06       		.uleb128 0x6
 3596 0249 40       		.uleb128 0x40
 3597 024a 18       		.uleb128 0x18
 3598 024b 9642     		.uleb128 0x2116
 3599 024d 19       		.uleb128 0x19
 3600 024e 01       		.uleb128 0x1
 3601 024f 13       		.uleb128 0x13
 3602 0250 00       		.byte	0
 3603 0251 00       		.byte	0
 3604 0252 2C       		.uleb128 0x2c
 3605 0253 898201   		.uleb128 0x4109
 3606 0256 01       		.byte	0x1
 3607 0257 11       		.uleb128 0x11
 3608 0258 01       		.uleb128 0x1
 3609 0259 9542     		.uleb128 0x2115
 3610 025b 19       		.uleb128 0x19
 3611 025c 31       		.uleb128 0x31
 3612 025d 13       		.uleb128 0x13
 3613 025e 00       		.byte	0
 3614 025f 00       		.byte	0
 3615 0260 2D       		.uleb128 0x2d
 3616 0261 0B       		.uleb128 0xb
 3617 0262 01       		.byte	0x1
 3618 0263 11       		.uleb128 0x11
 3619 0264 01       		.uleb128 0x1
 3620 0265 12       		.uleb128 0x12
 3621 0266 06       		.uleb128 0x6
 3622 0267 01       		.uleb128 0x1
 3623 0268 13       		.uleb128 0x13
 3624 0269 00       		.byte	0
 3625 026a 00       		.byte	0
 3626 026b 2E       		.uleb128 0x2e
 3627 026c 34       		.uleb128 0x34
 3628 026d 00       		.byte	0
 3629 026e 03       		.uleb128 0x3
 3630 026f 08       		.uleb128 0x8
 3631 0270 3A       		.uleb128 0x3a
 3632 0271 0B       		.uleb128 0xb
 3633 0272 3B       		.uleb128 0x3b
 3634 0273 0B       		.uleb128 0xb
 3635 0274 49       		.uleb128 0x49
 3636 0275 13       		.uleb128 0x13
 3637 0276 02       		.uleb128 0x2
 3638 0277 17       		.uleb128 0x17
 3639 0278 00       		.byte	0
 3640 0279 00       		.byte	0
 3641 027a 2F       		.uleb128 0x2f
 3642 027b 898201   		.uleb128 0x4109
 3643 027e 00       		.byte	0
 3644 027f 11       		.uleb128 0x11
 3645 0280 01       		.uleb128 0x1
 3646 0281 9542     		.uleb128 0x2115
 3647 0283 19       		.uleb128 0x19
 3648 0284 31       		.uleb128 0x31
ARM GAS  /var/folders/3j/4xdnk5197cv_b7cw3n33qk7r0000gn/T//ccUlDA21.s 			page 65


 3649 0285 13       		.uleb128 0x13
 3650 0286 00       		.byte	0
 3651 0287 00       		.byte	0
 3652 0288 30       		.uleb128 0x30
 3653 0289 0B       		.uleb128 0xb
 3654 028a 01       		.byte	0x1
 3655 028b 55       		.uleb128 0x55
 3656 028c 17       		.uleb128 0x17
 3657 028d 00       		.byte	0
 3658 028e 00       		.byte	0
 3659 028f 31       		.uleb128 0x31
 3660 0290 2E       		.uleb128 0x2e
 3661 0291 01       		.byte	0x1
 3662 0292 03       		.uleb128 0x3
 3663 0293 0E       		.uleb128 0xe
 3664 0294 3A       		.uleb128 0x3a
 3665 0295 0B       		.uleb128 0xb
 3666 0296 3B       		.uleb128 0x3b
 3667 0297 0B       		.uleb128 0xb
 3668 0298 27       		.uleb128 0x27
 3669 0299 19       		.uleb128 0x19
 3670 029a 11       		.uleb128 0x11
 3671 029b 01       		.uleb128 0x1
 3672 029c 12       		.uleb128 0x12
 3673 029d 06       		.uleb128 0x6
 3674 029e 40       		.uleb128 0x40
 3675 029f 18       		.uleb128 0x18
 3676 02a0 9742     		.uleb128 0x2117
 3677 02a2 19       		.uleb128 0x19
 3678 02a3 01       		.uleb128 0x1
 3679 02a4 13       		.uleb128 0x13
 3680 02a5 00       		.byte	0
 3681 02a6 00       		.byte	0
 3682 02a7 32       		.uleb128 0x32
 3683 02a8 05       		.uleb128 0x5
 3684 02a9 00       		.byte	0
 3685 02aa 03       		.uleb128 0x3
 3686 02ab 08       		.uleb128 0x8
 3687 02ac 3A       		.uleb128 0x3a
 3688 02ad 0B       		.uleb128 0xb
 3689 02ae 3B       		.uleb128 0x3b
 3690 02af 0B       		.uleb128 0xb
 3691 02b0 49       		.uleb128 0x49
 3692 02b1 13       		.uleb128 0x13
 3693 02b2 02       		.uleb128 0x2
 3694 02b3 17       		.uleb128 0x17
 3695 02b4 00       		.byte	0
 3696 02b5 00       		.byte	0
 3697 02b6 33       		.uleb128 0x33
 3698 02b7 2E       		.uleb128 0x2e
 3699 02b8 00       		.byte	0
 3700 02b9 3F       		.uleb128 0x3f
 3701 02ba 19       		.uleb128 0x19
 3702 02bb 3C       		.uleb128 0x3c
 3703 02bc 19       		.uleb128 0x19
 3704 02bd 6E       		.uleb128 0x6e
 3705 02be 0E       		.uleb128 0xe
ARM GAS  /var/folders/3j/4xdnk5197cv_b7cw3n33qk7r0000gn/T//ccUlDA21.s 			page 66


 3706 02bf 03       		.uleb128 0x3
 3707 02c0 0E       		.uleb128 0xe
 3708 02c1 3A       		.uleb128 0x3a
 3709 02c2 0B       		.uleb128 0xb
 3710 02c3 3B       		.uleb128 0x3b
 3711 02c4 0B       		.uleb128 0xb
 3712 02c5 00       		.byte	0
 3713 02c6 00       		.byte	0
 3714 02c7 34       		.uleb128 0x34
 3715 02c8 2E       		.uleb128 0x2e
 3716 02c9 00       		.byte	0
 3717 02ca 3F       		.uleb128 0x3f
 3718 02cb 19       		.uleb128 0x19
 3719 02cc 3C       		.uleb128 0x3c
 3720 02cd 19       		.uleb128 0x19
 3721 02ce 6E       		.uleb128 0x6e
 3722 02cf 0E       		.uleb128 0xe
 3723 02d0 03       		.uleb128 0x3
 3724 02d1 0E       		.uleb128 0xe
 3725 02d2 3A       		.uleb128 0x3a
 3726 02d3 0B       		.uleb128 0xb
 3727 02d4 3B       		.uleb128 0x3b
 3728 02d5 05       		.uleb128 0x5
 3729 02d6 00       		.byte	0
 3730 02d7 00       		.byte	0
 3731 02d8 00       		.byte	0
 3732              		.section	.debug_loc,"",%progbits
 3733              	.Ldebug_loc0:
 3734              	.LLST12:
 3735 0000 00000000 		.4byte	.LVL35
 3736 0004 34000000 		.4byte	.LVL39
 3737 0008 0100     		.2byte	0x1
 3738 000a 50       		.byte	0x50
 3739 000b 34000000 		.4byte	.LVL39
 3740 000f 37000000 		.4byte	.LVL40-1
 3741 0013 0100     		.2byte	0x1
 3742 0015 53       		.byte	0x53
 3743 0016 37000000 		.4byte	.LVL40-1
 3744 001a BC000000 		.4byte	.LVL46
 3745 001e 0100     		.2byte	0x1
 3746 0020 54       		.byte	0x54
 3747 0021 BC000000 		.4byte	.LVL46
 3748 0025 CC000000 		.4byte	.LFE13
 3749 0029 0400     		.2byte	0x4
 3750 002b F3       		.byte	0xf3
 3751 002c 01       		.uleb128 0x1
 3752 002d 50       		.byte	0x50
 3753 002e 9F       		.byte	0x9f
 3754 002f 00000000 		.4byte	0
 3755 0033 00000000 		.4byte	0
 3756              	.LLST13:
 3757 0037 00000000 		.4byte	.LVL35
 3758 003b 30000000 		.4byte	.LVL38
 3759 003f 0100     		.2byte	0x1
 3760 0041 51       		.byte	0x51
 3761 0042 30000000 		.4byte	.LVL38
 3762 0046 CC000000 		.4byte	.LFE13
ARM GAS  /var/folders/3j/4xdnk5197cv_b7cw3n33qk7r0000gn/T//ccUlDA21.s 			page 67


 3763 004a 0400     		.2byte	0x4
 3764 004c F3       		.byte	0xf3
 3765 004d 01       		.uleb128 0x1
 3766 004e 51       		.byte	0x51
 3767 004f 9F       		.byte	0x9f
 3768 0050 00000000 		.4byte	0
 3769 0054 00000000 		.4byte	0
 3770              	.LLST14:
 3771 0058 00000000 		.4byte	.LVL35
 3772 005c 2C000000 		.4byte	.LVL37
 3773 0060 0100     		.2byte	0x1
 3774 0062 52       		.byte	0x52
 3775 0063 2C000000 		.4byte	.LVL37
 3776 0067 BC000000 		.4byte	.LVL46
 3777 006b 0100     		.2byte	0x1
 3778 006d 58       		.byte	0x58
 3779 006e BC000000 		.4byte	.LVL46
 3780 0072 CC000000 		.4byte	.LFE13
 3781 0076 0400     		.2byte	0x4
 3782 0078 F3       		.byte	0xf3
 3783 0079 01       		.uleb128 0x1
 3784 007a 52       		.byte	0x52
 3785 007b 9F       		.byte	0x9f
 3786 007c 00000000 		.4byte	0
 3787 0080 00000000 		.4byte	0
 3788              	.LLST15:
 3789 0084 00000000 		.4byte	.LVL35
 3790 0088 28000000 		.4byte	.LVL36
 3791 008c 0100     		.2byte	0x1
 3792 008e 53       		.byte	0x53
 3793 008f 28000000 		.4byte	.LVL36
 3794 0093 7C000000 		.4byte	.LVL42
 3795 0097 0100     		.2byte	0x1
 3796 0099 56       		.byte	0x56
 3797 009a 7C000000 		.4byte	.LVL42
 3798 009e 8B000000 		.4byte	.LVL44-1
 3799 00a2 0200     		.2byte	0x2
 3800 00a4 74       		.byte	0x74
 3801 00a5 38       		.sleb128 56
 3802 00a6 8B000000 		.4byte	.LVL44-1
 3803 00aa CC000000 		.4byte	.LFE13
 3804 00ae 0400     		.2byte	0x4
 3805 00b0 F3       		.byte	0xf3
 3806 00b1 01       		.uleb128 0x1
 3807 00b2 53       		.byte	0x53
 3808 00b3 9F       		.byte	0x9f
 3809 00b4 00000000 		.4byte	0
 3810 00b8 00000000 		.4byte	0
 3811              	.LLST16:
 3812 00bc 40000000 		.4byte	.LVL41
 3813 00c0 84000000 		.4byte	.LVL43
 3814 00c4 0100     		.2byte	0x1
 3815 00c6 53       		.byte	0x53
 3816 00c7 84000000 		.4byte	.LVL43
 3817 00cb 8B000000 		.4byte	.LVL44-1
 3818 00cf 0200     		.2byte	0x2
 3819 00d1 74       		.byte	0x74
ARM GAS  /var/folders/3j/4xdnk5197cv_b7cw3n33qk7r0000gn/T//ccUlDA21.s 			page 68


 3820 00d2 0C       		.sleb128 12
 3821 00d3 00000000 		.4byte	0
 3822 00d7 00000000 		.4byte	0
 3823              	.LLST17:
 3824 00db 00000000 		.4byte	.LVL47
 3825 00df 3C000000 		.4byte	.LVL51
 3826 00e3 0100     		.2byte	0x1
 3827 00e5 50       		.byte	0x50
 3828 00e6 3C000000 		.4byte	.LVL51
 3829 00ea 3F000000 		.4byte	.LVL52-1
 3830 00ee 0100     		.2byte	0x1
 3831 00f0 53       		.byte	0x53
 3832 00f1 3F000000 		.4byte	.LVL52-1
 3833 00f5 30010000 		.4byte	.LVL64
 3834 00f9 0100     		.2byte	0x1
 3835 00fb 54       		.byte	0x54
 3836 00fc 30010000 		.4byte	.LVL64
 3837 0100 3C010000 		.4byte	.LFE12
 3838 0104 0400     		.2byte	0x4
 3839 0106 F3       		.byte	0xf3
 3840 0107 01       		.uleb128 0x1
 3841 0108 50       		.byte	0x50
 3842 0109 9F       		.byte	0x9f
 3843 010a 00000000 		.4byte	0
 3844 010e 00000000 		.4byte	0
 3845              	.LLST18:
 3846 0112 00000000 		.4byte	.LVL47
 3847 0116 38000000 		.4byte	.LVL50
 3848 011a 0100     		.2byte	0x1
 3849 011c 51       		.byte	0x51
 3850 011d 38000000 		.4byte	.LVL50
 3851 0121 3C010000 		.4byte	.LFE12
 3852 0125 0400     		.2byte	0x4
 3853 0127 F3       		.byte	0xf3
 3854 0128 01       		.uleb128 0x1
 3855 0129 51       		.byte	0x51
 3856 012a 9F       		.byte	0x9f
 3857 012b 00000000 		.4byte	0
 3858 012f 00000000 		.4byte	0
 3859              	.LLST19:
 3860 0133 00000000 		.4byte	.LVL47
 3861 0137 34000000 		.4byte	.LVL49
 3862 013b 0100     		.2byte	0x1
 3863 013d 52       		.byte	0x52
 3864 013e 34000000 		.4byte	.LVL49
 3865 0142 30010000 		.4byte	.LVL64
 3866 0146 0100     		.2byte	0x1
 3867 0148 5A       		.byte	0x5a
 3868 0149 30010000 		.4byte	.LVL64
 3869 014d 3C010000 		.4byte	.LFE12
 3870 0151 0400     		.2byte	0x4
 3871 0153 F3       		.byte	0xf3
 3872 0154 01       		.uleb128 0x1
 3873 0155 52       		.byte	0x52
 3874 0156 9F       		.byte	0x9f
 3875 0157 00000000 		.4byte	0
 3876 015b 00000000 		.4byte	0
ARM GAS  /var/folders/3j/4xdnk5197cv_b7cw3n33qk7r0000gn/T//ccUlDA21.s 			page 69


 3877              	.LLST20:
 3878 015f 00000000 		.4byte	.LVL47
 3879 0163 30000000 		.4byte	.LVL48
 3880 0167 0100     		.2byte	0x1
 3881 0169 53       		.byte	0x53
 3882 016a 30000000 		.4byte	.LVL48
 3883 016e 8C000000 		.4byte	.LVL54
 3884 0172 0100     		.2byte	0x1
 3885 0174 59       		.byte	0x59
 3886 0175 8C000000 		.4byte	.LVL54
 3887 0179 9B000000 		.4byte	.LVL56-1
 3888 017d 0200     		.2byte	0x2
 3889 017f 74       		.byte	0x74
 3890 0180 2C       		.sleb128 44
 3891 0181 9B000000 		.4byte	.LVL56-1
 3892 0185 3C010000 		.4byte	.LFE12
 3893 0189 0400     		.2byte	0x4
 3894 018b F3       		.byte	0xf3
 3895 018c 01       		.uleb128 0x1
 3896 018d 53       		.byte	0x53
 3897 018e 9F       		.byte	0x9f
 3898 018f 00000000 		.4byte	0
 3899 0193 00000000 		.4byte	0
 3900              	.LLST21:
 3901 0197 48000000 		.4byte	.LVL53
 3902 019b 94000000 		.4byte	.LVL55
 3903 019f 0100     		.2byte	0x1
 3904 01a1 53       		.byte	0x53
 3905 01a2 94000000 		.4byte	.LVL55
 3906 01a6 9B000000 		.4byte	.LVL56-1
 3907 01aa 0200     		.2byte	0x2
 3908 01ac 74       		.byte	0x74
 3909 01ad 0C       		.sleb128 12
 3910 01ae 00000000 		.4byte	0
 3911 01b2 00000000 		.4byte	0
 3912              	.LLST22:
 3913 01b6 C8000000 		.4byte	.LVL58
 3914 01ba 0C010000 		.4byte	.LVL61
 3915 01be 0100     		.2byte	0x1
 3916 01c0 59       		.byte	0x59
 3917 01c1 0C010000 		.4byte	.LVL61
 3918 01c5 20010000 		.4byte	.LVL62
 3919 01c9 0100     		.2byte	0x1
 3920 01cb 50       		.byte	0x50
 3921 01cc 20010000 		.4byte	.LVL62
 3922 01d0 30010000 		.4byte	.LVL64
 3923 01d4 0100     		.2byte	0x1
 3924 01d6 59       		.byte	0x59
 3925 01d7 30010000 		.4byte	.LVL64
 3926 01db 3C010000 		.4byte	.LFE12
 3927 01df 0100     		.2byte	0x1
 3928 01e1 50       		.byte	0x50
 3929 01e2 00000000 		.4byte	0
 3930 01e6 00000000 		.4byte	0
 3931              	.LLST11:
 3932 01ea 00000000 		.4byte	.LVL31
 3933 01ee 10000000 		.4byte	.LVL32
ARM GAS  /var/folders/3j/4xdnk5197cv_b7cw3n33qk7r0000gn/T//ccUlDA21.s 			page 70


 3934 01f2 0100     		.2byte	0x1
 3935 01f4 50       		.byte	0x50
 3936 01f5 10000000 		.4byte	.LVL32
 3937 01f9 34000000 		.4byte	.LFE11
 3938 01fd 0100     		.2byte	0x1
 3939 01ff 54       		.byte	0x54
 3940 0200 00000000 		.4byte	0
 3941 0204 00000000 		.4byte	0
 3942              	.LLST9:
 3943 0208 00000000 		.4byte	.LVL22
 3944 020c 10000000 		.4byte	.LVL23
 3945 0210 0100     		.2byte	0x1
 3946 0212 50       		.byte	0x50
 3947 0213 10000000 		.4byte	.LVL23
 3948 0217 80000000 		.4byte	.LFE10
 3949 021b 0100     		.2byte	0x1
 3950 021d 54       		.byte	0x54
 3951 021e 00000000 		.4byte	0
 3952 0222 00000000 		.4byte	0
 3953              	.LLST10:
 3954 0226 44000000 		.4byte	.LVL28
 3955 022a 57000000 		.4byte	.LVL29-1
 3956 022e 0100     		.2byte	0x1
 3957 0230 51       		.byte	0x51
 3958 0231 70000000 		.4byte	.LVL30
 3959 0235 80000000 		.4byte	.LFE10
 3960 0239 0100     		.2byte	0x1
 3961 023b 51       		.byte	0x51
 3962 023c 00000000 		.4byte	0
 3963 0240 00000000 		.4byte	0
 3964              	.LLST4:
 3965 0244 00000000 		.4byte	.LVL5
 3966 0248 2C000000 		.4byte	.LVL11
 3967 024c 0100     		.2byte	0x1
 3968 024e 50       		.byte	0x50
 3969 024f 2C000000 		.4byte	.LVL11
 3970 0253 34000000 		.4byte	.LVL12
 3971 0257 0400     		.2byte	0x4
 3972 0259 F3       		.byte	0xf3
 3973 025a 01       		.uleb128 0x1
 3974 025b 50       		.byte	0x50
 3975 025c 9F       		.byte	0x9f
 3976 025d 34000000 		.4byte	.LVL12
 3977 0261 A4000000 		.4byte	.LVL15
 3978 0265 0100     		.2byte	0x1
 3979 0267 50       		.byte	0x50
 3980 0268 A4000000 		.4byte	.LVL15
 3981 026c AC000000 		.4byte	.LVL16
 3982 0270 0400     		.2byte	0x4
 3983 0272 F3       		.byte	0xf3
 3984 0273 01       		.uleb128 0x1
 3985 0274 50       		.byte	0x50
 3986 0275 9F       		.byte	0x9f
 3987 0276 AC000000 		.4byte	.LVL16
 3988 027a 4C010000 		.4byte	.LFE8
 3989 027e 0100     		.2byte	0x1
 3990 0280 50       		.byte	0x50
ARM GAS  /var/folders/3j/4xdnk5197cv_b7cw3n33qk7r0000gn/T//ccUlDA21.s 			page 71


 3991 0281 00000000 		.4byte	0
 3992 0285 00000000 		.4byte	0
 3993              	.LLST5:
 3994 0289 04000000 		.4byte	.LVL6
 3995 028d 24000000 		.4byte	.LVL10
 3996 0291 0100     		.2byte	0x1
 3997 0293 52       		.byte	0x52
 3998 0294 24000000 		.4byte	.LVL10
 3999 0298 2C000000 		.4byte	.LVL11
 4000 029c 0200     		.2byte	0x2
 4001 029e 70       		.byte	0x70
 4002 029f 0C       		.sleb128 12
 4003 02a0 2C000000 		.4byte	.LVL11
 4004 02a4 33000000 		.4byte	.LVL12-1
 4005 02a8 0500     		.2byte	0x5
 4006 02aa F3       		.byte	0xf3
 4007 02ab 01       		.uleb128 0x1
 4008 02ac 50       		.byte	0x50
 4009 02ad 23       		.byte	0x23
 4010 02ae 0C       		.uleb128 0xc
 4011 02af 34000000 		.4byte	.LVL12
 4012 02b3 AB000000 		.4byte	.LVL16-1
 4013 02b7 0100     		.2byte	0x1
 4014 02b9 52       		.byte	0x52
 4015 02ba AC000000 		.4byte	.LVL16
 4016 02be 4C010000 		.4byte	.LFE8
 4017 02c2 0100     		.2byte	0x1
 4018 02c4 52       		.byte	0x52
 4019 02c5 00000000 		.4byte	0
 4020 02c9 00000000 		.4byte	0
 4021              	.LLST6:
 4022 02cd 08000000 		.4byte	.LVL7
 4023 02d1 20000000 		.4byte	.LVL9
 4024 02d5 0100     		.2byte	0x1
 4025 02d7 51       		.byte	0x51
 4026 02d8 34000000 		.4byte	.LVL12
 4027 02dc 50000000 		.4byte	.LVL13
 4028 02e0 0100     		.2byte	0x1
 4029 02e2 51       		.byte	0x51
 4030 02e3 AC000000 		.4byte	.LVL16
 4031 02e7 E4000000 		.4byte	.LVL17
 4032 02eb 0100     		.2byte	0x1
 4033 02ed 51       		.byte	0x51
 4034 02ee 00010000 		.4byte	.LVL18
 4035 02f2 20010000 		.4byte	.LVL19
 4036 02f6 0100     		.2byte	0x1
 4037 02f8 51       		.byte	0x51
 4038 02f9 00000000 		.4byte	0
 4039 02fd 00000000 		.4byte	0
 4040              	.LLST7:
 4041 0301 1C000000 		.4byte	.LVL8
 4042 0305 33000000 		.4byte	.LVL12-1
 4043 0309 0100     		.2byte	0x1
 4044 030b 53       		.byte	0x53
 4045 030c 00000000 		.4byte	0
 4046 0310 00000000 		.4byte	0
 4047              	.LLST8:
ARM GAS  /var/folders/3j/4xdnk5197cv_b7cw3n33qk7r0000gn/T//ccUlDA21.s 			page 72


 4048 0314 98000000 		.4byte	.LVL14
 4049 0318 AB000000 		.4byte	.LVL16-1
 4050 031c 0100     		.2byte	0x1
 4051 031e 53       		.byte	0x53
 4052 031f 00000000 		.4byte	0
 4053 0323 00000000 		.4byte	0
 4054              	.LLST0:
 4055 0327 00000000 		.4byte	.LVL0
 4056 032b 18000000 		.4byte	.LVL2
 4057 032f 0100     		.2byte	0x1
 4058 0331 50       		.byte	0x50
 4059 0332 18000000 		.4byte	.LVL2
 4060 0336 6F000000 		.4byte	.LVL4-1
 4061 033a 0100     		.2byte	0x1
 4062 033c 53       		.byte	0x53
 4063 033d 6F000000 		.4byte	.LVL4-1
 4064 0341 74000000 		.4byte	.LFE7
 4065 0345 0400     		.2byte	0x4
 4066 0347 F3       		.byte	0xf3
 4067 0348 01       		.uleb128 0x1
 4068 0349 50       		.byte	0x50
 4069 034a 9F       		.byte	0x9f
 4070 034b 00000000 		.4byte	0
 4071 034f 00000000 		.4byte	0
 4072              	.LLST1:
 4073 0353 00000000 		.4byte	.LVL0
 4074 0357 18000000 		.4byte	.LVL2
 4075 035b 0100     		.2byte	0x1
 4076 035d 50       		.byte	0x50
 4077 035e 18000000 		.4byte	.LVL2
 4078 0362 6F000000 		.4byte	.LVL4-1
 4079 0366 0100     		.2byte	0x1
 4080 0368 53       		.byte	0x53
 4081 0369 6F000000 		.4byte	.LVL4-1
 4082 036d 74000000 		.4byte	.LFE7
 4083 0371 0400     		.2byte	0x4
 4084 0373 F3       		.byte	0xf3
 4085 0374 01       		.uleb128 0x1
 4086 0375 50       		.byte	0x50
 4087 0376 9F       		.byte	0x9f
 4088 0377 00000000 		.4byte	0
 4089 037b 00000000 		.4byte	0
 4090              	.LLST2:
 4091 037f 14000000 		.4byte	.LVL1
 4092 0383 6F000000 		.4byte	.LVL4-1
 4093 0387 0100     		.2byte	0x1
 4094 0389 52       		.byte	0x52
 4095 038a 00000000 		.4byte	0
 4096 038e 00000000 		.4byte	0
 4097              	.LLST3:
 4098 0392 5C000000 		.4byte	.LVL3
 4099 0396 6F000000 		.4byte	.LVL4-1
 4100 039a 0100     		.2byte	0x1
 4101 039c 51       		.byte	0x51
 4102 039d 00000000 		.4byte	0
 4103 03a1 00000000 		.4byte	0
 4104              		.section	.debug_aranges,"",%progbits
ARM GAS  /var/folders/3j/4xdnk5197cv_b7cw3n33qk7r0000gn/T//ccUlDA21.s 			page 73


 4105 0000 4C000000 		.4byte	0x4c
 4106 0004 0200     		.2byte	0x2
 4107 0006 00000000 		.4byte	.Ldebug_info0
 4108 000a 04       		.byte	0x4
 4109 000b 00       		.byte	0
 4110 000c 0000     		.2byte	0
 4111 000e 0000     		.2byte	0
 4112 0010 00000000 		.4byte	.LFB7
 4113 0014 74000000 		.4byte	.LFE7-.LFB7
 4114 0018 00000000 		.4byte	.LFB8
 4115 001c 4C010000 		.4byte	.LFE8-.LFB8
 4116 0020 00000000 		.4byte	.LFB9
 4117 0024 40000000 		.4byte	.LFE9-.LFB9
 4118 0028 00000000 		.4byte	.LFB10
 4119 002c 80000000 		.4byte	.LFE10-.LFB10
 4120 0030 00000000 		.4byte	.LFB11
 4121 0034 34000000 		.4byte	.LFE11-.LFB11
 4122 0038 00000000 		.4byte	.LFB13
 4123 003c CC000000 		.4byte	.LFE13-.LFB13
 4124 0040 00000000 		.4byte	.LFB12
 4125 0044 3C010000 		.4byte	.LFE12-.LFB12
 4126 0048 00000000 		.4byte	0
 4127 004c 00000000 		.4byte	0
 4128              		.section	.debug_ranges,"",%progbits
 4129              	.Ldebug_ranges0:
 4130 0000 10000000 		.4byte	.LBB2
 4131 0004 18000000 		.4byte	.LBE2
 4132 0008 1C000000 		.4byte	.LBB3
 4133 000c 68000000 		.4byte	.LBE3
 4134 0010 6C000000 		.4byte	.LBB4
 4135 0014 74000000 		.4byte	.LBE4
 4136 0018 00000000 		.4byte	0
 4137 001c 00000000 		.4byte	0
 4138 0020 98000000 		.4byte	.LBB6
 4139 0024 9C000000 		.4byte	.LBE6
 4140 0028 A0000000 		.4byte	.LBB7
 4141 002c AC000000 		.4byte	.LBE7
 4142 0030 00000000 		.4byte	0
 4143 0034 00000000 		.4byte	0
 4144 0038 00000000 		.4byte	.LFB7
 4145 003c 74000000 		.4byte	.LFE7
 4146 0040 00000000 		.4byte	.LFB8
 4147 0044 4C010000 		.4byte	.LFE8
 4148 0048 00000000 		.4byte	.LFB9
 4149 004c 40000000 		.4byte	.LFE9
 4150 0050 00000000 		.4byte	.LFB10
 4151 0054 80000000 		.4byte	.LFE10
 4152 0058 00000000 		.4byte	.LFB11
 4153 005c 34000000 		.4byte	.LFE11
 4154 0060 00000000 		.4byte	.LFB13
 4155 0064 CC000000 		.4byte	.LFE13
 4156 0068 00000000 		.4byte	.LFB12
 4157 006c 3C010000 		.4byte	.LFE12
 4158 0070 00000000 		.4byte	0
 4159 0074 00000000 		.4byte	0
 4160              		.section	.debug_line,"",%progbits
 4161              	.Ldebug_line0:
ARM GAS  /var/folders/3j/4xdnk5197cv_b7cw3n33qk7r0000gn/T//ccUlDA21.s 			page 74


 4162 0000 C4030000 		.section	.debug_str,"MS",%progbits,1
 4162      02007702 
 4162      00000201 
 4162      FB0E0D00 
 4162      01010101 
 4163              	.LASF218:
 4164 0000 2F557365 		.ascii	"/Users/kevinmalmsten/development_raspberry_pi/Backu"
 4164      72732F6B 
 4164      6576696E 
 4164      6D616C6D 
 4164      7374656E 
 4165 0033 7053656E 		.ascii	"pSensor_ChibiOS/__Backup_System\000"
 4165      736F725F 
 4165      43686962 
 4165      694F532F 
 4165      5F5F4261 
 4166              	.LASF96:
 4167 0053 63665F6F 		.ascii	"cf_off_older\000"
 4167      66665F6F 
 4167      6C646572 
 4167      00
 4168              	.LASF42:
 4169 0060 705F6D73 		.ascii	"p_msg\000"
 4169      6700
 4170              	.LASF2:
 4171 0066 73697A65 		.ascii	"size_t\000"
 4171      5F7400
 4172              	.LASF81:
 4173 006d 7264796D 		.ascii	"rdymsg\000"
 4173      736700
 4174              	.LASF175:
 4175 0074 77726974 		.ascii	"write\000"
 4175      6500
 4176              	.LASF117:
 4177 007a 4F757470 		.ascii	"OutputQueue\000"
 4177      75745175 
 4177      65756500 
 4178              	.LASF3:
 4179 0086 5F5F7569 		.ascii	"__uint8_t\000"
 4179      6E74385F 
 4179      7400
 4180              	.LASF184:
 4181 0090 5350495F 		.ascii	"SPI_ACTIVE\000"
 4181      41435449 
 4181      564500
 4182              	.LASF68:
 4183 009b 76746C69 		.ascii	"vtlist\000"
 4183      737400
 4184              	.LASF119:
 4185 00a2 62736364 		.ascii	"bscdevice_t\000"
 4185      65766963 
 4185      655F7400 
 4186              	.LASF157:
 4187 00ae 72786275 		.ascii	"rxbuf\000"
 4187      6600
 4188              	.LASF110:
 4189 00b4 715F746F 		.ascii	"q_top\000"
ARM GAS  /var/folders/3j/4xdnk5197cv_b7cw3n33qk7r0000gn/T//ccUlDA21.s 			page 75


 4189      7000
 4190              	.LASF13:
 4191 00ba 6C6F6E67 		.ascii	"long long unsigned int\000"
 4191      206C6F6E 
 4191      6720756E 
 4191      7369676E 
 4191      65642069 
 4192              	.LASF92:
 4193 00d1 63685F74 		.ascii	"ch_threadsize\000"
 4193      68726561 
 4193      6473697A 
 4193      6500
 4194              	.LASF82:
 4195 00df 65786974 		.ascii	"exitcode\000"
 4195      636F6465 
 4195      00
 4196              	.LASF187:
 4197 00e8 53504944 		.ascii	"SPIDriver\000"
 4197      72697665 
 4197      7200
 4198              	.LASF201:
 4199 00f2 69326370 		.ascii	"i2cp\000"
 4199      00
 4200              	.LASF124:
 4201 00f7 64617461 		.ascii	"dataFifo\000"
 4201      4669666F 
 4201      00
 4202              	.LASF30:
 4203 0100 705F7072 		.ascii	"p_prio\000"
 4203      696F00
 4204              	.LASF99:
 4205 0107 63665F6F 		.ascii	"cf_off_state\000"
 4205      66665F73 
 4205      74617465 
 4205      00
 4206              	.LASF180:
 4207 0114 72656164 		.ascii	"readt\000"
 4207      7400
 4208              	.LASF150:
 4209 011a 64657669 		.ascii	"device\000"
 4209      636500
 4210              	.LASF107:
 4211 0121 715F7761 		.ascii	"q_waiting\000"
 4211      6974696E 
 4211      6700
 4212              	.LASF12:
 4213 012b 6C6F6E67 		.ascii	"long long int\000"
 4213      206C6F6E 
 4213      6720696E 
 4213      7400
 4214              	.LASF1:
 4215 0139 7369676E 		.ascii	"signed char\000"
 4215      65642063 
 4215      68617200 
 4216              	.LASF98:
 4217 0145 63665F6F 		.ascii	"cf_off_stklimit\000"
 4217      66665F73 
ARM GAS  /var/folders/3j/4xdnk5197cv_b7cw3n33qk7r0000gn/T//ccUlDA21.s 			page 76


 4217      746B6C69 
 4217      6D697400 
 4218              	.LASF182:
 4219 0155 5350495F 		.ascii	"SPI_STOP\000"
 4219      53544F50 
 4219      00
 4220              	.LASF100:
 4221 015e 63665F6F 		.ascii	"cf_off_flags\000"
 4221      66665F66 
 4221      6C616773 
 4221      00
 4222              	.LASF167:
 4223 016b 53445F53 		.ascii	"SD_STOP\000"
 4223      544F5000 
 4224              	.LASF71:
 4225 0173 6D5F7175 		.ascii	"m_queue\000"
 4225      65756500 
 4226              	.LASF203:
 4227 017b 6932635F 		.ascii	"i2c_lld_master_receive_timeout\000"
 4227      6C6C645F 
 4227      6D617374 
 4227      65725F72 
 4227      65636569 
 4228              	.LASF209:
 4229 019a 6932635F 		.ascii	"i2c_lld_serve_interrupt\000"
 4229      6C6C645F 
 4229      73657276 
 4229      655F696E 
 4229      74657272 
 4230              	.LASF153:
 4231 01b2 61646472 		.ascii	"addr\000"
 4231      00
 4232              	.LASF204:
 4233 01b7 6932635F 		.ascii	"i2c_lld_master_transmit_timeout\000"
 4233      6C6C645F 
 4233      6D617374 
 4233      65725F74 
 4233      72616E73 
 4234              	.LASF216:
 4235 01d7 474E5520 		.ascii	"GNU C11 7.3.1 20180622 (release) [ARM/embedded-7-br"
 4235      43313120 
 4235      372E332E 
 4235      31203230 
 4235      31383036 
 4236 020a 616E6368 		.ascii	"anch revision 261907] -mcpu=arm1176jz-s -mno-thumb-"
 4236      20726576 
 4236      6973696F 
 4236      6E203236 
 4236      31393037 
 4237 023d 696E7465 		.ascii	"interwork -ggdb -O2 -fomit-frame-pointer -ffunction"
 4237      72776F72 
 4237      6B202D67 
 4237      67646220 
 4237      2D4F3220 
 4238 0270 2D736563 		.ascii	"-sections -fdata-sections\000"
 4238      74696F6E 
 4238      73202D66 
ARM GAS  /var/folders/3j/4xdnk5197cv_b7cw3n33qk7r0000gn/T//ccUlDA21.s 			page 77


 4238      64617461 
 4238      2D736563 
 4239              	.LASF139:
 4240 028a 4932435F 		.ascii	"I2C_UNINIT\000"
 4240      554E494E 
 4240      495400
 4241              	.LASF161:
 4242 0295 69326361 		.ascii	"i2caddr_t\000"
 4242      6464725F 
 4242      7400
 4243              	.LASF147:
 4244 029f 73746174 		.ascii	"state\000"
 4244      6500
 4245              	.LASF9:
 4246 02a5 6C6F6E67 		.ascii	"long int\000"
 4246      20696E74 
 4246      00
 4247              	.LASF212:
 4248 02ae 63685654 		.ascii	"chVTResetI\000"
 4248      52657365 
 4248      744900
 4249              	.LASF19:
 4250 02b9 74737461 		.ascii	"tstate_t\000"
 4250      74655F74 
 4250      00
 4251              	.LASF152:
 4252 02c2 74687265 		.ascii	"thread\000"
 4252      616400
 4253              	.LASF126:
 4254 02c9 64617461 		.ascii	"dataDelay\000"
 4254      44656C61 
 4254      7900
 4255              	.LASF159:
 4256 02d3 72786964 		.ascii	"rxidx\000"
 4256      7800
 4257              	.LASF109:
 4258 02d9 715F6275 		.ascii	"q_buffer\000"
 4258      66666572 
 4258      00
 4259              	.LASF15:
 4260 02e2 75696E74 		.ascii	"uint16_t\000"
 4260      31365F74 
 4260      00
 4261              	.LASF200:
 4262 02eb 53504930 		.ascii	"SPI0\000"
 4262      00
 4263              	.LASF104:
 4264 02f0 63686465 		.ascii	"chdebug_t\000"
 4264      6275675F 
 4264      7400
 4265              	.LASF142:
 4266 02fa 4932435F 		.ascii	"I2C_ACTIVE_TX\000"
 4266      41435449 
 4266      56455F54 
 4266      5800
 4267              	.LASF197:
 4268 0308 636C6F63 		.ascii	"clock_phase\000"
ARM GAS  /var/folders/3j/4xdnk5197cv_b7cw3n33qk7r0000gn/T//ccUlDA21.s 			page 78


 4268      6B5F7068 
 4268      61736500 
 4269              	.LASF32:
 4270 0314 705F6E65 		.ascii	"p_newer\000"
 4270      77657200 
 4271              	.LASF118:
 4272 031c 5F69646C 		.ascii	"_idle_thread_wa\000"
 4272      655F7468 
 4272      72656164 
 4272      5F776100 
 4273              	.LASF190:
 4274 032c 656E645F 		.ascii	"end_cb\000"
 4274      636200
 4275              	.LASF188:
 4276 0333 7478636E 		.ascii	"txcnt\000"
 4276      7400
 4277              	.LASF194:
 4278 0339 63686970 		.ascii	"chip_select_polarity0\000"
 4278      5F73656C 
 4278      6563745F 
 4278      706F6C61 
 4278      72697479 
 4279              	.LASF195:
 4280 034f 63686970 		.ascii	"chip_select_polarity1\000"
 4280      5F73656C 
 4280      6563745F 
 4280      706F6C61 
 4280      72697479 
 4281              	.LASF120:
 4282 0365 636F6E74 		.ascii	"control\000"
 4282      726F6C00 
 4283              	.LASF10:
 4284 036d 5F5F7569 		.ascii	"__uint32_t\000"
 4284      6E743332 
 4284      5F7400
 4285              	.LASF49:
 4286 0378 72656761 		.ascii	"regarm_t\000"
 4286      726D5F74 
 4286      00
 4287              	.LASF55:
 4288 0381 76745F70 		.ascii	"vt_prev\000"
 4288      72657600 
 4289              	.LASF123:
 4290 0389 736C6176 		.ascii	"slaveAddress\000"
 4290      65416464 
 4290      72657373 
 4290      00
 4291              	.LASF189:
 4292 0396 73706963 		.ascii	"spicallback_t\000"
 4292      616C6C62 
 4292      61636B5F 
 4292      7400
 4293              	.LASF164:
 4294 03a4 49324330 		.ascii	"I2C0\000"
 4294      00
 4295              	.LASF165:
 4296 03a9 49324331 		.ascii	"I2C1\000"
ARM GAS  /var/folders/3j/4xdnk5197cv_b7cw3n33qk7r0000gn/T//ccUlDA21.s 			page 79


 4296      00
 4297              	.LASF79:
 4298 03ae 4576656E 		.ascii	"EventSource\000"
 4298      74536F75 
 4298      72636500 
 4299              	.LASF0:
 4300 03ba 756E7369 		.ascii	"unsigned int\000"
 4300      676E6564 
 4300      20696E74 
 4300      00
 4301              	.LASF54:
 4302 03c7 76745F6E 		.ascii	"vt_next\000"
 4302      65787400 
 4303              	.LASF154:
 4304 03cf 74786275 		.ascii	"txbuf\000"
 4304      6600
 4305              	.LASF174:
 4306 03d5 53657269 		.ascii	"SerialDriverVMT\000"
 4306      616C4472 
 4306      69766572 
 4306      564D5400 
 4307              	.LASF149:
 4308 03e5 6572726F 		.ascii	"errors\000"
 4308      727300
 4309              	.LASF172:
 4310 03ec 69717565 		.ascii	"iqueue\000"
 4310      756500
 4311              	.LASF11:
 4312 03f3 6C6F6E67 		.ascii	"long unsigned int\000"
 4312      20756E73 
 4312      69676E65 
 4312      6420696E 
 4312      7400
 4313              	.LASF105:
 4314 0405 63685F64 		.ascii	"ch_debug\000"
 4314      65627567 
 4314      00
 4315              	.LASF202:
 4316 040e 74696D65 		.ascii	"timeout\000"
 4316      6F757400 
 4317              	.LASF178:
 4318 0416 67657474 		.ascii	"gett\000"
 4318      00
 4319              	.LASF52:
 4320 041b 76746675 		.ascii	"vtfunc_t\000"
 4320      6E635F74 
 4320      00
 4321              	.LASF86:
 4322 0424 63685F69 		.ascii	"ch_identifier\000"
 4322      64656E74 
 4322      69666965 
 4322      7200
 4323              	.LASF193:
 4324 0432 63686970 		.ascii	"chip_select_polarity\000"
 4324      5F73656C 
 4324      6563745F 
 4324      706F6C61 
ARM GAS  /var/folders/3j/4xdnk5197cv_b7cw3n33qk7r0000gn/T//ccUlDA21.s 			page 80


 4324      72697479 
 4325              	.LASF171:
 4326 0447 6576656E 		.ascii	"event\000"
 4326      7400
 4327              	.LASF51:
 4328 044d 636F6E74 		.ascii	"context\000"
 4328      65787400 
 4329              	.LASF7:
 4330 0455 73686F72 		.ascii	"short unsigned int\000"
 4330      7420756E 
 4330      7369676E 
 4330      65642069 
 4330      6E7400
 4331              	.LASF134:
 4332 0468 6770696F 		.ascii	"gpio_port_t\000"
 4332      5F706F72 
 4332      745F7400 
 4333              	.LASF130:
 4334 0474 6770636C 		.ascii	"gpclr\000"
 4334      7200
 4335              	.LASF23:
 4336 047a 6D73675F 		.ascii	"msg_t\000"
 4336      7400
 4337              	.LASF173:
 4338 0480 6F717565 		.ascii	"oqueue\000"
 4338      756500
 4339              	.LASF64:
 4340 0487 725F6E65 		.ascii	"r_newer\000"
 4340      77657200 
 4341              	.LASF75:
 4342 048f 656C5F6E 		.ascii	"el_next\000"
 4342      65787400 
 4343              	.LASF179:
 4344 0497 77726974 		.ascii	"writet\000"
 4344      657400
 4345              	.LASF18:
 4346 049e 746D6F64 		.ascii	"tmode_t\000"
 4346      655F7400 
 4347              	.LASF47:
 4348 04a6 54687265 		.ascii	"ThreadsList\000"
 4348      6164734C 
 4348      69737400 
 4349              	.LASF24:
 4350 04b2 6576656E 		.ascii	"eventmask_t\000"
 4350      746D6173 
 4350      6B5F7400 
 4351              	.LASF116:
 4352 04be 496E7075 		.ascii	"InputQueue\000"
 4352      74517565 
 4352      756500
 4353              	.LASF70:
 4354 04c9 4D757465 		.ascii	"Mutex\000"
 4354      7800
 4355              	.LASF143:
 4356 04cf 4932435F 		.ascii	"I2C_ACTIVE_RX\000"
 4356      41435449 
 4356      56455F52 
ARM GAS  /var/folders/3j/4xdnk5197cv_b7cw3n33qk7r0000gn/T//ccUlDA21.s 			page 81


 4356      5800
 4357              	.LASF106:
 4358 04dd 47656E65 		.ascii	"GenericQueue\000"
 4358      72696351 
 4358      75657565 
 4358      00
 4359              	.LASF48:
 4360 04ea 73746B61 		.ascii	"stkalign_t\000"
 4360      6C69676E 
 4360      5F7400
 4361              	.LASF205:
 4362 04f5 6932635F 		.ascii	"i2c_lld_stop\000"
 4362      6C6C645F 
 4362      73746F70 
 4362      00
 4363              	.LASF87:
 4364 0502 63685F7A 		.ascii	"ch_zero\000"
 4364      65726F00 
 4365              	.LASF101:
 4366 050a 63665F6F 		.ascii	"cf_off_refs\000"
 4366      66665F72 
 4366      65667300 
 4367              	.LASF131:
 4368 0516 67706C65 		.ascii	"gplev\000"
 4368      7600
 4369              	.LASF177:
 4370 051c 70757474 		.ascii	"putt\000"
 4370      00
 4371              	.LASF56:
 4372 0521 76745F74 		.ascii	"vt_time\000"
 4372      696D6500 
 4373              	.LASF140:
 4374 0529 4932435F 		.ascii	"I2C_STOP\000"
 4374      53544F50 
 4374      00
 4375              	.LASF125:
 4376 0532 636C6F63 		.ascii	"clockDivider\000"
 4376      6B446976 
 4376      69646572 
 4376      00
 4377              	.LASF108:
 4378 053f 715F636F 		.ascii	"q_counter\000"
 4378      756E7465 
 4378      7200
 4379              	.LASF57:
 4380 0549 76745F66 		.ascii	"vt_func\000"
 4380      756E6300 
 4381              	.LASF91:
 4382 0551 63685F74 		.ascii	"ch_timesize\000"
 4382      696D6573 
 4382      697A6500 
 4383              	.LASF162:
 4384 055d 69635F73 		.ascii	"ic_speed\000"
 4384      70656564 
 4384      00
 4385              	.LASF97:
 4386 0566 63665F6F 		.ascii	"cf_off_name\000"
ARM GAS  /var/folders/3j/4xdnk5197cv_b7cw3n33qk7r0000gn/T//ccUlDA21.s 			page 82


 4386      66665F6E 
 4386      616D6500 
 4387              	.LASF210:
 4388 0572 63685654 		.ascii	"chVTSetI\000"
 4388      53657449 
 4388      00
 4389              	.LASF33:
 4390 057b 705F6F6C 		.ascii	"p_older\000"
 4390      64657200 
 4391              	.LASF158:
 4392 0583 72786279 		.ascii	"rxbytes\000"
 4392      74657300 
 4393              	.LASF111:
 4394 058b 715F7772 		.ascii	"q_wrptr\000"
 4394      70747200 
 4395              	.LASF63:
 4396 0593 725F6374 		.ascii	"r_ctx\000"
 4396      7800
 4397              	.LASF46:
 4398 0599 54687265 		.ascii	"ThreadsQueue\000"
 4398      61647351 
 4398      75657565 
 4398      00
 4399              	.LASF88:
 4400 05a6 63685F73 		.ascii	"ch_size\000"
 4400      697A6500 
 4401              	.LASF136:
 4402 05ae 494F504F 		.ascii	"IOPORT0\000"
 4402      52543000 
 4403              	.LASF66:
 4404 05b6 725F6375 		.ascii	"r_current\000"
 4404      7272656E 
 4404      7400
 4405              	.LASF65:
 4406 05c0 725F6F6C 		.ascii	"r_older\000"
 4406      64657200 
 4407              	.LASF77:
 4408 05c8 656C5F6D 		.ascii	"el_mask\000"
 4408      61736B00 
 4409              	.LASF129:
 4410 05d0 67707365 		.ascii	"gpset\000"
 4410      7400
 4411              	.LASF132:
 4412 05d6 67707075 		.ascii	"gppudclk\000"
 4412      64636C6B 
 4412      00
 4413              	.LASF191:
 4414 05df 6C6F7373 		.ascii	"lossiEnabled\000"
 4414      69456E61 
 4414      626C6564 
 4414      00
 4415              	.LASF213:
 4416 05ec 62636D32 		.ascii	"bcm2835_gpio_fnsel\000"
 4416      3833355F 
 4416      6770696F 
 4416      5F666E73 
 4416      656C00
ARM GAS  /var/folders/3j/4xdnk5197cv_b7cw3n33qk7r0000gn/T//ccUlDA21.s 			page 83


 4417              	.LASF192:
 4418 05ff 63686970 		.ascii	"chip_select\000"
 4418      5F73656C 
 4418      65637400 
 4419              	.LASF20:
 4420 060b 74726566 		.ascii	"trefs_t\000"
 4420      735F7400 
 4421              	.LASF145:
 4422 0613 69326373 		.ascii	"i2cstate_t\000"
 4422      74617465 
 4422      5F7400
 4423              	.LASF90:
 4424 061e 63685F70 		.ascii	"ch_ptrsize\000"
 4424      74727369 
 4424      7A6500
 4425              	.LASF115:
 4426 0629 716E6F74 		.ascii	"qnotify_t\000"
 4426      6966795F 
 4426      7400
 4427              	.LASF29:
 4428 0633 705F7072 		.ascii	"p_prev\000"
 4428      657600
 4429              	.LASF22:
 4430 063a 74707269 		.ascii	"tprio_t\000"
 4430      6F5F7400 
 4431              	.LASF112:
 4432 0642 715F7264 		.ascii	"q_rdptr\000"
 4432      70747200 
 4433              	.LASF160:
 4434 064a 69326366 		.ascii	"i2cflags_t\000"
 4434      6C616773 
 4434      5F7400
 4435              	.LASF151:
 4436 0655 6D757465 		.ascii	"mutex\000"
 4436      7800
 4437              	.LASF206:
 4438 065b 6932635F 		.ascii	"i2c_lld_start\000"
 4438      6C6C645F 
 4438      73746172 
 4438      7400
 4439              	.LASF16:
 4440 0669 696E7433 		.ascii	"int32_t\000"
 4440      325F7400 
 4441              	.LASF4:
 4442 0671 756E7369 		.ascii	"unsigned char\000"
 4442      676E6564 
 4442      20636861 
 4442      7200
 4443              	.LASF76:
 4444 067f 656C5F6C 		.ascii	"el_listener\000"
 4444      69737465 
 4444      6E657200 
 4445              	.LASF78:
 4446 068b 656C5F66 		.ascii	"el_flags\000"
 4446      6C616773 
 4446      00
 4447              	.LASF44:
ARM GAS  /var/folders/3j/4xdnk5197cv_b7cw3n33qk7r0000gn/T//ccUlDA21.s 			page 84


 4448 0694 705F6D74 		.ascii	"p_mtxlist\000"
 4448      786C6973 
 4448      7400
 4449              	.LASF5:
 4450 069e 73686F72 		.ascii	"short int\000"
 4450      7420696E 
 4450      7400
 4451              	.LASF35:
 4452 06a8 705F7374 		.ascii	"p_state\000"
 4452      61746500 
 4453              	.LASF38:
 4454 06b0 705F7072 		.ascii	"p_preempt\000"
 4454      65656D70 
 4454      7400
 4455              	.LASF103:
 4456 06ba 63665F6F 		.ascii	"cf_off_time\000"
 4456      66665F74 
 4456      696D6500 
 4457              	.LASF62:
 4458 06c6 725F7072 		.ascii	"r_prio\000"
 4458      696F00
 4459              	.LASF133:
 4460 06cd 70696E5F 		.ascii	"pin_base\000"
 4460      62617365 
 4460      00
 4461              	.LASF84:
 4462 06d6 65776D61 		.ascii	"ewmask\000"
 4462      736B00
 4463              	.LASF28:
 4464 06dd 705F6E65 		.ascii	"p_next\000"
 4464      787400
 4465              	.LASF137:
 4466 06e4 494F504F 		.ascii	"IOPORT1\000"
 4466      52543100 
 4467              	.LASF102:
 4468 06ec 63665F6F 		.ascii	"cf_off_preempt\000"
 4468      66665F70 
 4468      7265656D 
 4468      707400
 4469              	.LASF36:
 4470 06fb 705F666C 		.ascii	"p_flags\000"
 4470      61677300 
 4471              	.LASF27:
 4472 0703 54687265 		.ascii	"Thread\000"
 4472      616400
 4473              	.LASF198:
 4474 070a 636C6F63 		.ascii	"clock_divider\000"
 4474      6B5F6469 
 4474      76696465 
 4474      7200
 4475              	.LASF95:
 4476 0718 63665F6F 		.ascii	"cf_off_newer\000"
 4476      66665F6E 
 4476      65776572 
 4476      00
 4477              	.LASF144:
 4478 0725 4932435F 		.ascii	"I2C_LOCKED\000"
ARM GAS  /var/folders/3j/4xdnk5197cv_b7cw3n33qk7r0000gn/T//ccUlDA21.s 			page 85


 4478      4C4F434B 
 4478      454400
 4479              	.LASF211:
 4480 0730 63685363 		.ascii	"chSchGoSleepS\000"
 4480      68476F53 
 4480      6C656570 
 4480      5300
 4481              	.LASF43:
 4482 073e 705F6570 		.ascii	"p_epending\000"
 4482      656E6469 
 4482      6E6700
 4483              	.LASF166:
 4484 0749 53445F55 		.ascii	"SD_UNINIT\000"
 4484      4E494E49 
 4484      5400
 4485              	.LASF17:
 4486 0753 75696E74 		.ascii	"uint32_t\000"
 4486      33325F74 
 4486      00
 4487              	.LASF93:
 4488 075c 63665F6F 		.ascii	"cf_off_prio\000"
 4488      66665F70 
 4488      72696F00 
 4489              	.LASF61:
 4490 0768 725F7175 		.ascii	"r_queue\000"
 4490      65756500 
 4491              	.LASF53:
 4492 0770 56697274 		.ascii	"VirtualTimer\000"
 4492      75616C54 
 4492      696D6572 
 4492      00
 4493              	.LASF170:
 4494 077d 53657269 		.ascii	"SerialDriver\000"
 4494      616C4472 
 4494      69766572 
 4494      00
 4495              	.LASF21:
 4496 078a 74736C69 		.ascii	"tslices_t\000"
 4496      6365735F 
 4496      7400
 4497              	.LASF176:
 4498 0794 72656164 		.ascii	"read\000"
 4498      00
 4499              	.LASF85:
 4500 0799 63686172 		.ascii	"char\000"
 4500      00
 4501              	.LASF219:
 4502 079e 6932635F 		.ascii	"i2c_lld_safety_timeout\000"
 4502      6C6C645F 
 4502      73616665 
 4502      74795F74 
 4502      696D656F 
 4503              	.LASF185:
 4504 07b5 5350495F 		.ascii	"SPI_COMPLETE\000"
 4504      434F4D50 
 4504      4C455445 
 4504      00
ARM GAS  /var/folders/3j/4xdnk5197cv_b7cw3n33qk7r0000gn/T//ccUlDA21.s 			page 86


 4505              	.LASF148:
 4506 07c2 636F6E66 		.ascii	"config\000"
 4506      696700
 4507              	.LASF6:
 4508 07c9 5F5F7569 		.ascii	"__uint16_t\000"
 4508      6E743136 
 4508      5F7400
 4509              	.LASF215:
 4510 07d4 63685363 		.ascii	"chSchReadyI\000"
 4510      68526561 
 4510      64794900 
 4511              	.LASF186:
 4512 07e0 73706973 		.ascii	"spistate_t\000"
 4512      74617465 
 4512      5F7400
 4513              	.LASF73:
 4514 07eb 6D5F6E65 		.ascii	"m_next\000"
 4514      787400
 4515              	.LASF26:
 4516 07f2 73797374 		.ascii	"systime_t\000"
 4516      696D655F 
 4516      7400
 4517              	.LASF45:
 4518 07fc 705F7265 		.ascii	"p_realprio\000"
 4518      616C7072 
 4518      696F00
 4519              	.LASF8:
 4520 0807 5F5F696E 		.ascii	"__int32_t\000"
 4520      7433325F 
 4520      7400
 4521              	.LASF141:
 4522 0811 4932435F 		.ascii	"I2C_READY\000"
 4522      52454144 
 4522      5900
 4523              	.LASF146:
 4524 081b 49324344 		.ascii	"I2CDriver\000"
 4524      72697665 
 4524      7200
 4525              	.LASF39:
 4526 0825 705F7469 		.ascii	"p_time\000"
 4526      6D6500
 4527              	.LASF196:
 4528 082c 636C6F63 		.ascii	"clock_polarity\000"
 4528      6B5F706F 
 4528      6C617269 
 4528      747900
 4529              	.LASF214:
 4530 083b 6932634F 		.ascii	"i2cObjectInit\000"
 4530      626A6563 
 4530      74496E69 
 4530      7400
 4531              	.LASF74:
 4532 0849 4576656E 		.ascii	"EventListener\000"
 4532      744C6973 
 4532      74656E65 
 4532      7200
 4533              	.LASF50:
ARM GAS  /var/folders/3j/4xdnk5197cv_b7cw3n33qk7r0000gn/T//ccUlDA21.s 			page 87


 4534 0857 696E7463 		.ascii	"intctx\000"
 4534      747800
 4535              	.LASF41:
 4536 085e 705F6D73 		.ascii	"p_msgqueue\000"
 4536      67717565 
 4536      756500
 4537              	.LASF168:
 4538 0869 53445F52 		.ascii	"SD_READY\000"
 4538      45414459 
 4538      00
 4539              	.LASF183:
 4540 0872 5350495F 		.ascii	"SPI_READY\000"
 4540      52454144 
 4540      5900
 4541              	.LASF181:
 4542 087c 5350495F 		.ascii	"SPI_UNINIT\000"
 4542      554E494E 
 4542      495400
 4543              	.LASF58:
 4544 0887 76745F70 		.ascii	"vt_par\000"
 4544      617200
 4545              	.LASF25:
 4546 088e 666C6167 		.ascii	"flagsmask_t\000"
 4546      736D6173 
 4546      6B5F7400 
 4547              	.LASF163:
 4548 089a 49324343 		.ascii	"I2CConfig\000"
 4548      6F6E6669 
 4548      6700
 4549              	.LASF169:
 4550 08a4 73647374 		.ascii	"sdstate_t\000"
 4550      6174655F 
 4550      7400
 4551              	.LASF156:
 4552 08ae 74786964 		.ascii	"txidx\000"
 4552      7800
 4553              	.LASF94:
 4554 08b4 63665F6F 		.ascii	"cf_off_ctx\000"
 4554      66665F63 
 4554      747800
 4555              	.LASF208:
 4556 08bf 6932635F 		.ascii	"i2c_lld_init\000"
 4556      6C6C645F 
 4556      696E6974 
 4556      00
 4557              	.LASF37:
 4558 08cc 705F7265 		.ascii	"p_refs\000"
 4558      667300
 4559              	.LASF121:
 4560 08d3 73746174 		.ascii	"status\000"
 4560      757300
 4561              	.LASF67:
 4562 08da 52656164 		.ascii	"ReadyList\000"
 4562      794C6973 
 4562      7400
 4563              	.LASF113:
 4564 08e4 715F6E6F 		.ascii	"q_notify\000"
ARM GAS  /var/folders/3j/4xdnk5197cv_b7cw3n33qk7r0000gn/T//ccUlDA21.s 			page 88


 4564      74696679 
 4564      00
 4565              	.LASF69:
 4566 08ed 726C6973 		.ascii	"rlist\000"
 4566      7400
 4567              	.LASF14:
 4568 08f3 75696E74 		.ascii	"uint8_t\000"
 4568      385F7400 
 4569              	.LASF128:
 4570 08fb 6C617463 		.ascii	"latch\000"
 4570      6800
 4571              	.LASF217:
 4572 0901 2E2E2F2F 		.ascii	"..//os/hal/platforms/BCM2835/i2c_lld.c\000"
 4572      6F732F68 
 4572      616C2F70 
 4572      6C617466 
 4572      6F726D73 
 4573              	.LASF83:
 4574 0928 77746F62 		.ascii	"wtobjp\000"
 4574      6A7000
 4575              	.LASF34:
 4576 092f 705F6E61 		.ascii	"p_name\000"
 4576      6D6500
 4577              	.LASF59:
 4578 0936 76745F73 		.ascii	"vt_systime\000"
 4578      79737469 
 4578      6D6500
 4579              	.LASF80:
 4580 0941 65735F6E 		.ascii	"es_next\000"
 4580      65787400 
 4581              	.LASF199:
 4582 0949 53504943 		.ascii	"SPIConfig\000"
 4582      6F6E6669 
 4582      6700
 4583              	.LASF89:
 4584 0953 63685F76 		.ascii	"ch_version\000"
 4584      65727369 
 4584      6F6E00
 4585              	.LASF122:
 4586 095e 64617461 		.ascii	"dataLength\000"
 4586      4C656E67 
 4586      746800
 4587              	.LASF60:
 4588 0969 56544C69 		.ascii	"VTList\000"
 4588      737400
 4589              	.LASF114:
 4590 0970 715F6C69 		.ascii	"q_link\000"
 4590      6E6B00
 4591              	.LASF207:
 4592 0977 73706565 		.ascii	"speed\000"
 4592      6400
 4593              	.LASF135:
 4594 097d 50414C43 		.ascii	"PALConfig\000"
 4594      6F6E6669 
 4594      6700
 4595              	.LASF72:
 4596 0987 6D5F6F77 		.ascii	"m_owner\000"
ARM GAS  /var/folders/3j/4xdnk5197cv_b7cw3n33qk7r0000gn/T//ccUlDA21.s 			page 89


 4596      6E657200 
 4597              	.LASF138:
 4598 098f 70616C5F 		.ascii	"pal_default_config\000"
 4598      64656661 
 4598      756C745F 
 4598      636F6E66 
 4598      696700
 4599              	.LASF31:
 4600 09a2 705F6374 		.ascii	"p_ctx\000"
 4600      7800
 4601              	.LASF40:
 4602 09a8 705F7761 		.ascii	"p_waiting\000"
 4602      6974696E 
 4602      6700
 4603              	.LASF155:
 4604 09b2 74786279 		.ascii	"txbytes\000"
 4604      74657300 
 4605              	.LASF127:
 4606 09ba 636C6F63 		.ascii	"clockStretchTimeout\000"
 4606      6B537472 
 4606      65746368 
 4606      54696D65 
 4606      6F757400 
 4607              		.ident	"GCC: (GNU Tools for Arm Embedded Processors 7-2018-q2-update) 7.3.1 20180622 (release) [AR
ARM GAS  /var/folders/3j/4xdnk5197cv_b7cw3n33qk7r0000gn/T//ccUlDA21.s 			page 90


DEFINED SYMBOLS
                            *ABS*:0000000000000000 i2c_lld.c
/var/folders/3j/4xdnk5197cv_b7cw3n33qk7r0000gn/T//ccUlDA21.s:16     .text.i2c_lld_safety_timeout:0000000000000000 $a
/var/folders/3j/4xdnk5197cv_b7cw3n33qk7r0000gn/T//ccUlDA21.s:21     .text.i2c_lld_safety_timeout:0000000000000000 i2c_lld_safety_timeout
/var/folders/3j/4xdnk5197cv_b7cw3n33qk7r0000gn/T//ccUlDA21.s:93     .text.i2c_lld_safety_timeout:0000000000000070 $d
/var/folders/3j/4xdnk5197cv_b7cw3n33qk7r0000gn/T//ccUlDA21.s:99     .text.i2c_lld_serve_interrupt:0000000000000000 $a
/var/folders/3j/4xdnk5197cv_b7cw3n33qk7r0000gn/T//ccUlDA21.s:105    .text.i2c_lld_serve_interrupt:0000000000000000 i2c_lld_serve_interrupt
/var/folders/3j/4xdnk5197cv_b7cw3n33qk7r0000gn/T//ccUlDA21.s:261    .text.i2c_lld_serve_interrupt:0000000000000148 $d
/var/folders/3j/4xdnk5197cv_b7cw3n33qk7r0000gn/T//ccUlDA21.s:266    .text.i2c_lld_init:0000000000000000 $a
/var/folders/3j/4xdnk5197cv_b7cw3n33qk7r0000gn/T//ccUlDA21.s:272    .text.i2c_lld_init:0000000000000000 i2c_lld_init
/var/folders/3j/4xdnk5197cv_b7cw3n33qk7r0000gn/T//ccUlDA21.s:312    .text.i2c_lld_init:0000000000000030 $d
                            *COM*:0000000000000040 I2C0
                            *COM*:0000000000000040 I2C1
/var/folders/3j/4xdnk5197cv_b7cw3n33qk7r0000gn/T//ccUlDA21.s:321    .text.i2c_lld_start:0000000000000000 $a
/var/folders/3j/4xdnk5197cv_b7cw3n33qk7r0000gn/T//ccUlDA21.s:327    .text.i2c_lld_start:0000000000000000 i2c_lld_start
/var/folders/3j/4xdnk5197cv_b7cw3n33qk7r0000gn/T//ccUlDA21.s:392    .text.i2c_lld_start:0000000000000078 $d
/var/folders/3j/4xdnk5197cv_b7cw3n33qk7r0000gn/T//ccUlDA21.s:398    .text.i2c_lld_stop:0000000000000000 $a
/var/folders/3j/4xdnk5197cv_b7cw3n33qk7r0000gn/T//ccUlDA21.s:404    .text.i2c_lld_stop:0000000000000000 i2c_lld_stop
/var/folders/3j/4xdnk5197cv_b7cw3n33qk7r0000gn/T//ccUlDA21.s:441    .text.i2c_lld_master_receive_timeout:0000000000000000 $a
/var/folders/3j/4xdnk5197cv_b7cw3n33qk7r0000gn/T//ccUlDA21.s:447    .text.i2c_lld_master_receive_timeout:0000000000000000 i2c_lld_master_receive_timeout
/var/folders/3j/4xdnk5197cv_b7cw3n33qk7r0000gn/T//ccUlDA21.s:568    .text.i2c_lld_master_receive_timeout:00000000000000bc $d
/var/folders/3j/4xdnk5197cv_b7cw3n33qk7r0000gn/T//ccUlDA21.s:576    .text.i2c_lld_master_transmit_timeout:0000000000000000 $a
/var/folders/3j/4xdnk5197cv_b7cw3n33qk7r0000gn/T//ccUlDA21.s:582    .text.i2c_lld_master_transmit_timeout:0000000000000000 i2c_lld_master_transmit_timeout
/var/folders/3j/4xdnk5197cv_b7cw3n33qk7r0000gn/T//ccUlDA21.s:755    .text.i2c_lld_master_transmit_timeout:0000000000000130 $d

UNDEFINED SYMBOLS
chSchReadyI
i2cObjectInit
__aeabi_uidiv
bcm2835_gpio_fnsel
chVTSetI
chSchGoSleepS
chVTResetI
rlist
