ARM GAS  /var/folders/3j/4xdnk5197cv_b7cw3n33qk7r0000gn/T//ccxkT2Pi.s 			page 1


   1              		.cpu arm1176jz-s
   2              		.eabi_attribute 20, 1
   3              		.eabi_attribute 21, 1
   4              		.eabi_attribute 23, 3
   5              		.eabi_attribute 24, 1
   6              		.eabi_attribute 25, 1
   7              		.eabi_attribute 26, 1
   8              		.eabi_attribute 30, 2
   9              		.eabi_attribute 34, 1
  10              		.eabi_attribute 18, 4
  11              		.file	"main.c"
  12              		.text
  13              	.Ltext0:
  14              		.cfi_sections	.debug_frame
  15              		.section	.text.Thread_Diplsay,"ax",%progbits
  16              		.align	2
  17              		.syntax unified
  18              		.arm
  19              		.fpu softvfp
  20              		.type	Thread_Diplsay, %function
  21              	Thread_Diplsay:
  22              	.LFB37:
  23              		.file 1 "main.c"
  24              		.loc 1 225 0
  25              		.cfi_startproc
  26              		@ Volatile: function does not return.
  27              		@ args = 0, pretend = 0, frame = 0
  28              		@ frame_needed = 0, uses_anonymous_args = 0
  29              		@ link register save eliminated.
  30              	.LVL0:
  31              		.loc 1 227 0
  32 0000 0C309FE5 		ldr	r3, .L4
  33 0004 0C209FE5 		ldr	r2, .L4+4
  34 0008 183093E5 		ldr	r3, [r3, #24]
  35 000c 182083E5 		str	r2, [r3, #24]
  36              	.L2:
  37 0010 FEFFFFEA 		b	.L2
  38              	.L5:
  39              		.align	2
  40              	.L4:
  41 0014 00000000 		.word	rlist
  42 0018 00000000 		.word	.LC0
  43              		.cfi_endproc
  44              	.LFE37:
  45              		.size	Thread_Diplsay, .-Thread_Diplsay
  46              		.section	.text.cmd_reboot,"ax",%progbits
  47              		.align	2
  48              		.syntax unified
  49              		.arm
  50              		.fpu softvfp
  51              		.type	cmd_reboot, %function
  52              	cmd_reboot:
  53              	.LFB34:
  54              		.loc 1 91 0
  55              		.cfi_startproc
  56              		@ args = 0, pretend = 0, frame = 0
  57              		@ frame_needed = 0, uses_anonymous_args = 0
ARM GAS  /var/folders/3j/4xdnk5197cv_b7cw3n33qk7r0000gn/T//ccxkT2Pi.s 			page 2


  58              		@ link register save eliminated.
  59              	.LVL1:
  60              		.loc 1 93 0
  61 0000 000051E3 		cmp	r1, #0
  62 0004 010000DA 		ble	.L7
  63              		.loc 1 94 0
  64 0008 08109FE5 		ldr	r1, .L8
  65              	.LVL2:
  66 000c FEFFFFEA 		b	chprintf
  67              	.LVL3:
  68              	.L7:
  69              		.loc 1 99 0
  70 0010 0100A0E3 		mov	r0, #1
  71              	.LVL4:
  72 0014 FEFFFFEA 		b	watchdog_start
  73              	.LVL5:
  74              	.L9:
  75              		.align	2
  76              	.L8:
  77 0018 00000000 		.word	.LC1
  78              		.cfi_endproc
  79              	.LFE34:
  80              		.size	cmd_reboot, .-cmd_reboot
  81              		.section	.text.VL53L0X_RdByte,"ax",%progbits
  82              		.align	2
  83              		.global	VL53L0X_RdByte
  84              		.syntax unified
  85              		.arm
  86              		.fpu softvfp
  87              		.type	VL53L0X_RdByte, %function
  88              	VL53L0X_RdByte:
  89              	.LFB11:
  90              		.file 2 "src/I2C_interface.h"
  91              		.loc 2 19 0
  92              		.cfi_startproc
  93              		@ args = 0, pretend = 0, frame = 0
  94              		@ frame_needed = 0, uses_anonymous_args = 0
  95              	.LVL6:
  96 0000 70402DE9 		push	{r4, r5, r6, lr}
  97              		.cfi_def_cfa_offset 16
  98              		.cfi_offset 4, -16
  99              		.cfi_offset 5, -12
 100              		.cfi_offset 6, -8
 101              		.cfi_offset 14, -4
 102              		.loc 2 21 0
 103 0004 44409FE5 		ldr	r4, .L12
 104              		.loc 2 19 0
 105 0008 08D04DE2 		sub	sp, sp, #8
 106              		.cfi_def_cfa_offset 24
 107              		.loc 2 19 0
 108 000c 0060A0E1 		mov	r6, r0
 109              		.loc 2 21 0
 110 0010 0400A0E1 		mov	r0, r4
 111              	.LVL7:
 112              		.loc 2 19 0
 113 0014 0250A0E1 		mov	r5, r2
 114              		.loc 2 21 0
ARM GAS  /var/folders/3j/4xdnk5197cv_b7cw3n33qk7r0000gn/T//ccxkT2Pi.s 			page 3


 115 0018 FEFFFFEB 		bl	i2cAcquireBus
 116              	.LVL8:
 117              		.loc 2 22 0
 118 001c FA3FA0E3 		mov	r3, #1000
 119 0020 5C11D6E5 		ldrb	r1, [r6, #348]	@ zero_extendqisi2
 120 0024 0520A0E1 		mov	r2, r5
 121 0028 00308DE5 		str	r3, [sp]
 122 002c 0400A0E1 		mov	r0, r4
 123 0030 0130A0E3 		mov	r3, #1
 124 0034 FEFFFFEB 		bl	i2cMasterReceiveTimeout
 125              	.LVL9:
 126 0038 0050A0E1 		mov	r5, r0
 127              	.LVL10:
 128              		.loc 2 23 0
 129 003c 0400A0E1 		mov	r0, r4
 130              	.LVL11:
 131 0040 FEFFFFEB 		bl	i2cReleaseBus
 132              	.LVL12:
 133              		.loc 2 28 0
 134 0044 7500AFE6 		sxtb	r0, r5
 135 0048 08D08DE2 		add	sp, sp, #8
 136              		.cfi_def_cfa_offset 16
 137              		@ sp needed
 138 004c 7080BDE8 		pop	{r4, r5, r6, pc}
 139              	.LVL13:
 140              	.L13:
 141              		.align	2
 142              	.L12:
 143 0050 00000000 		.word	I2C1
 144              		.cfi_endproc
 145              	.LFE11:
 146              		.size	VL53L0X_RdByte, .-VL53L0X_RdByte
 147              		.section	.text.VL53L0X_WrByte,"ax",%progbits
 148              		.align	2
 149              		.global	VL53L0X_WrByte
 150              		.syntax unified
 151              		.arm
 152              		.fpu softvfp
 153              		.type	VL53L0X_WrByte, %function
 154              	VL53L0X_WrByte:
 155              	.LFB12:
 156              		.loc 2 30 0
 157              		.cfi_startproc
 158              		@ args = 0, pretend = 0, frame = 8
 159              		@ frame_needed = 0, uses_anonymous_args = 0
 160              	.LVL14:
 161 0000 30402DE9 		push	{r4, r5, lr}
 162              		.cfi_def_cfa_offset 12
 163              		.cfi_offset 4, -12
 164              		.cfi_offset 5, -8
 165              		.cfi_offset 14, -4
 166              		.loc 2 36 0
 167 0004 54409FE5 		ldr	r4, .L16
 168              		.loc 2 30 0
 169 0008 1CD04DE2 		sub	sp, sp, #28
 170              		.cfi_def_cfa_offset 40
 171              		.loc 2 30 0
ARM GAS  /var/folders/3j/4xdnk5197cv_b7cw3n33qk7r0000gn/T//ccxkT2Pi.s 			page 4


 172 000c 0050A0E1 		mov	r5, r0
 173              		.loc 2 36 0
 174 0010 0400A0E1 		mov	r0, r4
 175              	.LVL15:
 176              		.loc 2 33 0
 177 0014 1410CDE5 		strb	r1, [sp, #20]
 178              		.loc 2 34 0
 179 0018 1520CDE5 		strb	r2, [sp, #21]
 180              		.loc 2 36 0
 181 001c FEFFFFEB 		bl	i2cAcquireBus
 182              	.LVL16:
 183              		.loc 2 37 0
 184 0020 0030A0E3 		mov	r3, #0
 185 0024 7D2EA0E3 		mov	r2, #2000
 186 0028 5C11D5E5 		ldrb	r1, [r5, #348]	@ zero_extendqisi2
 187 002c 0400A0E1 		mov	r0, r4
 188 0030 08208DE5 		str	r2, [sp, #8]
 189 0034 04308DE5 		str	r3, [sp, #4]
 190 0038 00308DE5 		str	r3, [sp]
 191 003c 14208DE2 		add	r2, sp, #20
 192 0040 0230A0E3 		mov	r3, #2
 193 0044 FEFFFFEB 		bl	i2cMasterTransmitTimeout
 194              	.LVL17:
 195 0048 0050A0E1 		mov	r5, r0
 196              	.LVL18:
 197              		.loc 2 38 0
 198 004c 0400A0E1 		mov	r0, r4
 199              	.LVL19:
 200 0050 FEFFFFEB 		bl	i2cReleaseBus
 201              	.LVL20:
 202              		.loc 2 44 0
 203 0054 7500AFE6 		sxtb	r0, r5
 204 0058 1CD08DE2 		add	sp, sp, #28
 205              		.cfi_def_cfa_offset 12
 206              		@ sp needed
 207 005c 3080BDE8 		pop	{r4, r5, pc}
 208              	.LVL21:
 209              	.L17:
 210              		.align	2
 211              	.L16:
 212 0060 00000000 		.word	I2C1
 213              		.cfi_endproc
 214              	.LFE12:
 215              		.size	VL53L0X_WrByte, .-VL53L0X_WrByte
 216              		.section	.text.VL53L0X_PollingDelay,"ax",%progbits
 217              		.align	2
 218              		.global	VL53L0X_PollingDelay
 219              		.syntax unified
 220              		.arm
 221              		.fpu softvfp
 222              		.type	VL53L0X_PollingDelay, %function
 223              	VL53L0X_PollingDelay:
 224              	.LFB13:
 225              		.loc 2 46 0
 226              		.cfi_startproc
 227              		@ args = 0, pretend = 0, frame = 0
 228              		@ frame_needed = 0, uses_anonymous_args = 0
ARM GAS  /var/folders/3j/4xdnk5197cv_b7cw3n33qk7r0000gn/T//ccxkT2Pi.s 			page 5


 229              		@ link register save eliminated.
 230              	.LVL22:
 231              		.loc 2 48 0
 232 0000 0000E0E3 		mvn	r0, #0
 233              	.LVL23:
 234 0004 1EFF2FE1 		bx	lr
 235              		.cfi_endproc
 236              	.LFE13:
 237              		.size	VL53L0X_PollingDelay, .-VL53L0X_PollingDelay
 238              		.section	.text.VL53L0X_WriteMulti,"ax",%progbits
 239              		.align	2
 240              		.global	VL53L0X_WriteMulti
 241              		.syntax unified
 242              		.arm
 243              		.fpu softvfp
 244              		.type	VL53L0X_WriteMulti, %function
 245              	VL53L0X_WriteMulti:
 246              	.LFB14:
 247              		.loc 2 50 0
 248              		.cfi_startproc
 249              		@ args = 0, pretend = 0, frame = 0
 250              		@ frame_needed = 0, uses_anonymous_args = 0
 251              	.LVL24:
 252 0000 F0412DE9 		push	{r4, r5, r6, r7, r8, lr}
 253              		.cfi_def_cfa_offset 24
 254              		.cfi_offset 4, -24
 255              		.cfi_offset 5, -20
 256              		.cfi_offset 6, -16
 257              		.cfi_offset 7, -12
 258              		.cfi_offset 8, -8
 259              		.cfi_offset 14, -4
 260              	.LBB33:
 261              		.loc 2 56 0
 262 0004 005053E2 		subs	r5, r3, #0
 263              	.LVL25:
 264 0008 0E00000A 		beq	.L20
 265 000c 014042E2 		sub	r4, r2, #1
 266 0010 0170A0E1 		mov	r7, r1
 267 0014 0060A0E1 		mov	r6, r0
 268 0018 055084E0 		add	r5, r4, r5
 269 001c 010000EA 		b	.L22
 270              	.LVL26:
 271              	.L29:
 272              		.loc 2 56 0 is_stmt 0 discriminator 2
 273 0020 050054E1 		cmp	r4, r5
 274 0024 0700000A 		beq	.L20
 275              	.LVL27:
 276              	.L22:
 277              	.LBB34:
 278              		.loc 2 59 0 is_stmt 1
 279 0028 0120F4E5 		ldrb	r2, [r4, #1]!	@ zero_extendqisi2
 280              	.LVL28:
 281 002c 0710A0E1 		mov	r1, r7
 282 0030 0600A0E1 		mov	r0, r6
 283 0034 FEFFFFEB 		bl	VL53L0X_WrByte
 284              	.LVL29:
 285              		.loc 2 60 0
ARM GAS  /var/folders/3j/4xdnk5197cv_b7cw3n33qk7r0000gn/T//ccxkT2Pi.s 			page 6


 286 0038 000050E3 		cmp	r0, #0
 287 003c F7FFFF0A 		beq	.L29
 288              		.loc 2 61 0
 289 0040 1300E0E3 		mvn	r0, #19
 290              	.LVL30:
 291              	.LBE34:
 292              	.LBE33:
 293              		.loc 2 65 0
 294 0044 F081BDE8 		pop	{r4, r5, r6, r7, r8, pc}
 295              	.LVL31:
 296              	.L20:
 297              		.loc 2 64 0
 298 0048 0000A0E3 		mov	r0, #0
 299 004c F081BDE8 		pop	{r4, r5, r6, r7, r8, pc}
 300              		.cfi_endproc
 301              	.LFE14:
 302              		.size	VL53L0X_WriteMulti, .-VL53L0X_WriteMulti
 303              		.section	.text.VL53L0X_ReadMulti,"ax",%progbits
 304              		.align	2
 305              		.global	VL53L0X_ReadMulti
 306              		.syntax unified
 307              		.arm
 308              		.fpu softvfp
 309              		.type	VL53L0X_ReadMulti, %function
 310              	VL53L0X_ReadMulti:
 311              	.LFB15:
 312              		.loc 2 67 0
 313              		.cfi_startproc
 314              		@ args = 0, pretend = 0, frame = 8
 315              		@ frame_needed = 0, uses_anonymous_args = 0
 316              	.LVL32:
 317 0000 F0402DE9 		push	{r4, r5, r6, r7, lr}
 318              		.cfi_def_cfa_offset 20
 319              		.cfi_offset 4, -20
 320              		.cfi_offset 5, -16
 321              		.cfi_offset 6, -12
 322              		.cfi_offset 7, -8
 323              		.cfi_offset 14, -4
 324              	.LBB35:
 325              		.loc 2 73 0
 326 0004 005053E2 		subs	r5, r3, #0
 327              	.LVL33:
 328              	.LBE35:
 329              		.loc 2 67 0
 330 0008 0CD04DE2 		sub	sp, sp, #12
 331              		.cfi_def_cfa_offset 32
 332              	.LBB38:
 333              		.loc 2 73 0
 334 000c 1100000A 		beq	.L31
 335 0010 014042E2 		sub	r4, r2, #1
 336 0014 0170A0E1 		mov	r7, r1
 337 0018 0060A0E1 		mov	r6, r0
 338 001c 055084E0 		add	r5, r4, r5
 339 0020 030000EA 		b	.L34
 340              	.LVL34:
 341              	.L32:
 342              	.LBB36:
ARM GAS  /var/folders/3j/4xdnk5197cv_b7cw3n33qk7r0000gn/T//ccxkT2Pi.s 			page 7


 343              		.loc 2 79 0
 344 0024 0730DDE5 		ldrb	r3, [sp, #7]	@ zero_extendqisi2
 345 0028 0130E4E5 		strb	r3, [r4, #1]!
 346              	.LVL35:
 347              	.LBE36:
 348              		.loc 2 73 0
 349 002c 050054E1 		cmp	r4, r5
 350 0030 0800000A 		beq	.L31
 351              	.LVL36:
 352              	.L34:
 353              	.LBB37:
 354              		.loc 2 76 0
 355 0034 07208DE2 		add	r2, sp, #7
 356 0038 0710A0E1 		mov	r1, r7
 357 003c 0600A0E1 		mov	r0, r6
 358 0040 FEFFFFEB 		bl	VL53L0X_RdByte
 359              	.LVL37:
 360              		.loc 2 77 0
 361 0044 000050E3 		cmp	r0, #0
 362 0048 F5FFFF0A 		beq	.L32
 363              		.loc 2 78 0
 364 004c 1300E0E3 		mvn	r0, #19
 365              	.LVL38:
 366              	.LBE37:
 367              	.LBE38:
 368              		.loc 2 84 0
 369 0050 0CD08DE2 		add	sp, sp, #12
 370              		.cfi_remember_state
 371              		.cfi_def_cfa_offset 20
 372              		@ sp needed
 373 0054 F080BDE8 		pop	{r4, r5, r6, r7, pc}
 374              	.LVL39:
 375              	.L31:
 376              		.cfi_restore_state
 377              		.loc 2 83 0
 378 0058 0000A0E3 		mov	r0, #0
 379              		.loc 2 84 0
 380 005c 0CD08DE2 		add	sp, sp, #12
 381              		.cfi_def_cfa_offset 20
 382              		@ sp needed
 383 0060 F080BDE8 		pop	{r4, r5, r6, r7, pc}
 384              		.cfi_endproc
 385              	.LFE15:
 386              		.size	VL53L0X_ReadMulti, .-VL53L0X_ReadMulti
 387              		.section	.text.VL53L0X_WrWord,"ax",%progbits
 388              		.align	2
 389              		.global	VL53L0X_WrWord
 390              		.syntax unified
 391              		.arm
 392              		.fpu softvfp
 393              		.type	VL53L0X_WrWord, %function
 394              	VL53L0X_WrWord:
 395              	.LFB16:
 396              		.loc 2 86 0
 397              		.cfi_startproc
 398              		@ args = 0, pretend = 0, frame = 8
 399              		@ frame_needed = 0, uses_anonymous_args = 0
ARM GAS  /var/folders/3j/4xdnk5197cv_b7cw3n33qk7r0000gn/T//ccxkT2Pi.s 			page 8


 400              	.LVL40:
 401 0000 30402DE9 		push	{r4, r5, lr}
 402              		.cfi_def_cfa_offset 12
 403              		.cfi_offset 4, -12
 404              		.cfi_offset 5, -8
 405              		.cfi_offset 14, -4
 406              		.loc 2 92 0
 407 0004 5C409FE5 		ldr	r4, .L42
 408              		.loc 2 86 0
 409 0008 1CD04DE2 		sub	sp, sp, #28
 410              		.cfi_def_cfa_offset 40
 411              		.loc 2 89 0
 412 000c 2234A0E1 		lsr	r3, r2, #8
 413              		.loc 2 86 0
 414 0010 0050A0E1 		mov	r5, r0
 415              		.loc 2 92 0
 416 0014 0400A0E1 		mov	r0, r4
 417              	.LVL41:
 418              		.loc 2 90 0
 419 0018 1620CDE5 		strb	r2, [sp, #22]
 420              		.loc 2 89 0
 421 001c 1530CDE5 		strb	r3, [sp, #21]
 422              		.loc 2 88 0
 423 0020 1410CDE5 		strb	r1, [sp, #20]
 424              		.loc 2 92 0
 425 0024 FEFFFFEB 		bl	i2cAcquireBus
 426              	.LVL42:
 427              		.loc 2 93 0
 428 0028 0030A0E3 		mov	r3, #0
 429 002c FA2FA0E3 		mov	r2, #1000
 430 0030 5C11D5E5 		ldrb	r1, [r5, #348]	@ zero_extendqisi2
 431 0034 0400A0E1 		mov	r0, r4
 432 0038 08208DE5 		str	r2, [sp, #8]
 433 003c 04308DE5 		str	r3, [sp, #4]
 434 0040 00308DE5 		str	r3, [sp]
 435 0044 14208DE2 		add	r2, sp, #20
 436 0048 0330A0E3 		mov	r3, #3
 437 004c FEFFFFEB 		bl	i2cMasterTransmitTimeout
 438              	.LVL43:
 439 0050 0050A0E1 		mov	r5, r0
 440              	.LVL44:
 441              		.loc 2 94 0
 442 0054 0400A0E1 		mov	r0, r4
 443              	.LVL45:
 444 0058 FEFFFFEB 		bl	i2cReleaseBus
 445              	.LVL46:
 446              		.loc 2 99 0
 447 005c 7500AFE6 		sxtb	r0, r5
 448 0060 1CD08DE2 		add	sp, sp, #28
 449              		.cfi_def_cfa_offset 12
 450              		@ sp needed
 451 0064 3080BDE8 		pop	{r4, r5, pc}
 452              	.LVL47:
 453              	.L43:
 454              		.align	2
 455              	.L42:
 456 0068 00000000 		.word	I2C1
ARM GAS  /var/folders/3j/4xdnk5197cv_b7cw3n33qk7r0000gn/T//ccxkT2Pi.s 			page 9


 457              		.cfi_endproc
 458              	.LFE16:
 459              		.size	VL53L0X_WrWord, .-VL53L0X_WrWord
 460              		.section	.text.VL53L0X_WrDWord,"ax",%progbits
 461              		.align	2
 462              		.global	VL53L0X_WrDWord
 463              		.syntax unified
 464              		.arm
 465              		.fpu softvfp
 466              		.type	VL53L0X_WrDWord, %function
 467              	VL53L0X_WrDWord:
 468              	.LFB17:
 469              		.loc 2 101 0
 470              		.cfi_startproc
 471              		@ args = 0, pretend = 0, frame = 8
 472              		@ frame_needed = 0, uses_anonymous_args = 0
 473              	.LVL48:
 474 0000 30402DE9 		push	{r4, r5, lr}
 475              		.cfi_def_cfa_offset 12
 476              		.cfi_offset 4, -12
 477              		.cfi_offset 5, -8
 478              		.cfi_offset 14, -4
 479              		.loc 2 109 0
 480 0004 6C409FE5 		ldr	r4, .L46
 481              		.loc 2 101 0
 482 0008 1CD04DE2 		sub	sp, sp, #28
 483              		.cfi_def_cfa_offset 40
 484              		.loc 2 104 0
 485 000c 22CCA0E1 		lsr	ip, r2, #24
 486              		.loc 2 105 0
 487 0010 2238A0E1 		lsr	r3, r2, #16
 488              		.loc 2 101 0
 489 0014 0050A0E1 		mov	r5, r0
 490              		.loc 2 107 0
 491 0018 1420CDE5 		strb	r2, [sp, #20]
 492              		.loc 2 109 0
 493 001c 0400A0E1 		mov	r0, r4
 494              	.LVL49:
 495              		.loc 2 106 0
 496 0020 2224A0E1 		lsr	r2, r2, #8
 497              	.LVL50:
 498              		.loc 2 104 0
 499 0024 11C0CDE5 		strb	ip, [sp, #17]
 500              		.loc 2 103 0
 501 0028 1010CDE5 		strb	r1, [sp, #16]
 502              		.loc 2 105 0
 503 002c 1230CDE5 		strb	r3, [sp, #18]
 504              		.loc 2 106 0
 505 0030 1320CDE5 		strb	r2, [sp, #19]
 506              		.loc 2 109 0
 507 0034 FEFFFFEB 		bl	i2cAcquireBus
 508              	.LVL51:
 509              		.loc 2 110 0
 510 0038 0030A0E3 		mov	r3, #0
 511 003c FA2FA0E3 		mov	r2, #1000
 512 0040 5C11D5E5 		ldrb	r1, [r5, #348]	@ zero_extendqisi2
 513 0044 0400A0E1 		mov	r0, r4
ARM GAS  /var/folders/3j/4xdnk5197cv_b7cw3n33qk7r0000gn/T//ccxkT2Pi.s 			page 10


 514 0048 08208DE5 		str	r2, [sp, #8]
 515 004c 04308DE5 		str	r3, [sp, #4]
 516 0050 00308DE5 		str	r3, [sp]
 517 0054 10208DE2 		add	r2, sp, #16
 518 0058 0530A0E3 		mov	r3, #5
 519 005c FEFFFFEB 		bl	i2cMasterTransmitTimeout
 520              	.LVL52:
 521 0060 0050A0E1 		mov	r5, r0
 522              	.LVL53:
 523              		.loc 2 111 0
 524 0064 0400A0E1 		mov	r0, r4
 525              	.LVL54:
 526 0068 FEFFFFEB 		bl	i2cReleaseBus
 527              	.LVL55:
 528              		.loc 2 117 0
 529 006c 7500AFE6 		sxtb	r0, r5
 530 0070 1CD08DE2 		add	sp, sp, #28
 531              		.cfi_def_cfa_offset 12
 532              		@ sp needed
 533 0074 3080BDE8 		pop	{r4, r5, pc}
 534              	.LVL56:
 535              	.L47:
 536              		.align	2
 537              	.L46:
 538 0078 00000000 		.word	I2C1
 539              		.cfi_endproc
 540              	.LFE17:
 541              		.size	VL53L0X_WrDWord, .-VL53L0X_WrDWord
 542              		.section	.text.VL53L0X_RdWord,"ax",%progbits
 543              		.align	2
 544              		.global	VL53L0X_RdWord
 545              		.syntax unified
 546              		.arm
 547              		.fpu softvfp
 548              		.type	VL53L0X_RdWord, %function
 549              	VL53L0X_RdWord:
 550              	.LFB18:
 551              		.loc 2 118 0
 552              		.cfi_startproc
 553              		@ args = 0, pretend = 0, frame = 0
 554              		@ frame_needed = 0, uses_anonymous_args = 0
 555              	.LVL57:
 556 0000 70402DE9 		push	{r4, r5, r6, lr}
 557              		.cfi_def_cfa_offset 16
 558              		.cfi_offset 4, -16
 559              		.cfi_offset 5, -12
 560              		.cfi_offset 6, -8
 561              		.cfi_offset 14, -4
 562              		.loc 2 119 0
 563 0004 44409FE5 		ldr	r4, .L50
 564              		.loc 2 118 0
 565 0008 08D04DE2 		sub	sp, sp, #8
 566              		.cfi_def_cfa_offset 24
 567              		.loc 2 118 0
 568 000c 0060A0E1 		mov	r6, r0
 569              		.loc 2 119 0
 570 0010 0400A0E1 		mov	r0, r4
ARM GAS  /var/folders/3j/4xdnk5197cv_b7cw3n33qk7r0000gn/T//ccxkT2Pi.s 			page 11


 571              	.LVL58:
 572              		.loc 2 118 0
 573 0014 0250A0E1 		mov	r5, r2
 574              		.loc 2 119 0
 575 0018 FEFFFFEB 		bl	i2cAcquireBus
 576              	.LVL59:
 577              		.loc 2 120 0
 578 001c FA3FA0E3 		mov	r3, #1000
 579 0020 5C11D6E5 		ldrb	r1, [r6, #348]	@ zero_extendqisi2
 580 0024 0520A0E1 		mov	r2, r5
 581 0028 00308DE5 		str	r3, [sp]
 582 002c 0400A0E1 		mov	r0, r4
 583 0030 0230A0E3 		mov	r3, #2
 584 0034 FEFFFFEB 		bl	i2cMasterReceiveTimeout
 585              	.LVL60:
 586 0038 0050A0E1 		mov	r5, r0
 587              	.LVL61:
 588              		.loc 2 121 0
 589 003c 0400A0E1 		mov	r0, r4
 590              	.LVL62:
 591 0040 FEFFFFEB 		bl	i2cReleaseBus
 592              	.LVL63:
 593              		.loc 2 127 0
 594 0044 7500AFE6 		sxtb	r0, r5
 595 0048 08D08DE2 		add	sp, sp, #8
 596              		.cfi_def_cfa_offset 16
 597              		@ sp needed
 598 004c 7080BDE8 		pop	{r4, r5, r6, pc}
 599              	.LVL64:
 600              	.L51:
 601              		.align	2
 602              	.L50:
 603 0050 00000000 		.word	I2C1
 604              		.cfi_endproc
 605              	.LFE18:
 606              		.size	VL53L0X_RdWord, .-VL53L0X_RdWord
 607              		.section	.text.VL53L0X_RdDWord,"ax",%progbits
 608              		.align	2
 609              		.global	VL53L0X_RdDWord
 610              		.syntax unified
 611              		.arm
 612              		.fpu softvfp
 613              		.type	VL53L0X_RdDWord, %function
 614              	VL53L0X_RdDWord:
 615              	.LFB19:
 616              		.loc 2 128 0
 617              		.cfi_startproc
 618              		@ args = 0, pretend = 0, frame = 0
 619              		@ frame_needed = 0, uses_anonymous_args = 0
 620              	.LVL65:
 621 0000 70402DE9 		push	{r4, r5, r6, lr}
 622              		.cfi_def_cfa_offset 16
 623              		.cfi_offset 4, -16
 624              		.cfi_offset 5, -12
 625              		.cfi_offset 6, -8
 626              		.cfi_offset 14, -4
 627              		.loc 2 129 0
ARM GAS  /var/folders/3j/4xdnk5197cv_b7cw3n33qk7r0000gn/T//ccxkT2Pi.s 			page 12


 628 0004 44409FE5 		ldr	r4, .L54
 629              		.loc 2 128 0
 630 0008 08D04DE2 		sub	sp, sp, #8
 631              		.cfi_def_cfa_offset 24
 632              		.loc 2 128 0
 633 000c 0060A0E1 		mov	r6, r0
 634              		.loc 2 129 0
 635 0010 0400A0E1 		mov	r0, r4
 636              	.LVL66:
 637              		.loc 2 128 0
 638 0014 0250A0E1 		mov	r5, r2
 639              		.loc 2 129 0
 640 0018 FEFFFFEB 		bl	i2cAcquireBus
 641              	.LVL67:
 642              		.loc 2 131 0
 643 001c FA3FA0E3 		mov	r3, #1000
 644 0020 5C11D6E5 		ldrb	r1, [r6, #348]	@ zero_extendqisi2
 645 0024 0520A0E1 		mov	r2, r5
 646 0028 00308DE5 		str	r3, [sp]
 647 002c 0400A0E1 		mov	r0, r4
 648 0030 0430A0E3 		mov	r3, #4
 649 0034 FEFFFFEB 		bl	i2cMasterReceiveTimeout
 650              	.LVL68:
 651 0038 0050A0E1 		mov	r5, r0
 652              	.LVL69:
 653              		.loc 2 132 0
 654 003c 0400A0E1 		mov	r0, r4
 655              	.LVL70:
 656 0040 FEFFFFEB 		bl	i2cReleaseBus
 657              	.LVL71:
 658              		.loc 2 137 0
 659 0044 7500AFE6 		sxtb	r0, r5
 660 0048 08D08DE2 		add	sp, sp, #8
 661              		.cfi_def_cfa_offset 16
 662              		@ sp needed
 663 004c 7080BDE8 		pop	{r4, r5, r6, pc}
 664              	.LVL72:
 665              	.L55:
 666              		.align	2
 667              	.L54:
 668 0050 00000000 		.word	I2C1
 669              		.cfi_endproc
 670              	.LFE19:
 671              		.size	VL53L0X_RdDWord, .-VL53L0X_RdDWord
 672              		.section	.text.VL53L0X_UpdateByte,"ax",%progbits
 673              		.align	2
 674              		.global	VL53L0X_UpdateByte
 675              		.syntax unified
 676              		.arm
 677              		.fpu softvfp
 678              		.type	VL53L0X_UpdateByte, %function
 679              	VL53L0X_UpdateByte:
 680              	.LFB20:
 681              		.loc 2 138 0
 682              		.cfi_startproc
 683              		@ args = 0, pretend = 0, frame = 8
 684              		@ frame_needed = 0, uses_anonymous_args = 0
ARM GAS  /var/folders/3j/4xdnk5197cv_b7cw3n33qk7r0000gn/T//ccxkT2Pi.s 			page 13


 685              	.LVL73:
 686 0000 70402DE9 		push	{r4, r5, r6, lr}
 687              		.cfi_def_cfa_offset 16
 688              		.cfi_offset 4, -16
 689              		.cfi_offset 5, -12
 690              		.cfi_offset 6, -8
 691              		.cfi_offset 14, -4
 692              		.loc 2 142 0
 693 0004 0040A0E3 		mov	r4, #0
 694              		.loc 2 138 0
 695 0008 0060A0E1 		mov	r6, r0
 696              		.loc 2 146 0
 697 000c FA5FA0E3 		mov	r5, #1000
 698              		.loc 2 138 0
 699 0010 18D04DE2 		sub	sp, sp, #24
 700              		.cfi_def_cfa_offset 40
 701              		.loc 2 144 0
 702 0014 68009FE5 		ldr	r0, .L61
 703              	.LVL74:
 704              		.loc 2 141 0
 705 0018 1410CDE5 		strb	r1, [sp, #20]
 706              		.loc 2 142 0
 707 001c 1540CDE5 		strb	r4, [sp, #21]
 708              		.loc 2 144 0
 709 0020 FEFFFFEB 		bl	i2cAcquireBus
 710              	.LVL75:
 711              		.loc 2 146 0
 712 0024 5C11D6E5 		ldrb	r1, [r6, #348]	@ zero_extendqisi2
 713 0028 0420A0E1 		mov	r2, r4
 714 002c 0430A0E3 		mov	r3, #4
 715 0030 00508DE5 		str	r5, [sp]
 716 0034 48009FE5 		ldr	r0, .L61
 717 0038 FEFFFFEB 		bl	i2cMasterReceiveTimeout
 718              	.LVL76:
 719 003c 0040A0E1 		mov	r4, r0
 720              	.LVL77:
 721              		.loc 2 148 0
 722 0040 3C009FE5 		ldr	r0, .L61
 723              	.LVL78:
 724 0044 FEFFFFEB 		bl	i2cReleaseBus
 725              	.LVL79:
 726              		.loc 2 150 0
 727 0048 000054E3 		cmp	r4, #0
 728 004c 0A00001A 		bne	.L58
 729              	.LVL80:
 730              		.loc 2 154 0
 731 0050 5C11D6E5 		ldrb	r1, [r6, #348]	@ zero_extendqisi2
 732 0054 0230A0E3 		mov	r3, #2
 733 0058 F440CDE1 		strd	r4, [sp, #4]
 734 005c 00408DE5 		str	r4, [sp]
 735 0060 14208DE2 		add	r2, sp, #20
 736 0064 18009FE5 		ldr	r0, .L61
 737 0068 FEFFFFEB 		bl	i2cMasterTransmitTimeout
 738              	.LVL81:
 739              		.loc 2 156 0
 740 006c 000050E3 		cmp	r0, #0
 741              		.loc 2 158 0
ARM GAS  /var/folders/3j/4xdnk5197cv_b7cw3n33qk7r0000gn/T//ccxkT2Pi.s 			page 14


 742 0070 7000AF16 		sxtbne	r0, r0
 743              	.LVL82:
 744              	.L57:
 745              		.loc 2 159 0
 746 0074 18D08DE2 		add	sp, sp, #24
 747              		.cfi_remember_state
 748              		.cfi_def_cfa_offset 16
 749              		@ sp needed
 750 0078 7080BDE8 		pop	{r4, r5, r6, pc}
 751              	.LVL83:
 752              	.L58:
 753              		.cfi_restore_state
 754              		.loc 2 151 0
 755 007c 1300E0E3 		mvn	r0, #19
 756 0080 FBFFFFEA 		b	.L57
 757              	.L62:
 758              		.align	2
 759              	.L61:
 760 0084 00000000 		.word	I2C1
 761              		.cfi_endproc
 762              	.LFE20:
 763              		.size	VL53L0X_UpdateByte, .-VL53L0X_UpdateByte
 764              		.section	.text.setup_mux_GPIO,"ax",%progbits
 765              		.align	2
 766              		.global	setup_mux_GPIO
 767              		.syntax unified
 768              		.arm
 769              		.fpu softvfp
 770              		.type	setup_mux_GPIO, %function
 771              	setup_mux_GPIO:
 772              	.LFB27:
 773              		.file 3 "src/vl53l0x_sensor_interface.h"
 774              		.loc 3 181 0
 775              		.cfi_startproc
 776              		@ args = 56, pretend = 16, frame = 0
 777              		@ frame_needed = 0, uses_anonymous_args = 0
 778 0000 10D04DE2 		sub	sp, sp, #16
 779              		.cfi_def_cfa_offset 16
 780 0004 10402DE9 		push	{r4, lr}
 781              		.cfi_def_cfa_offset 24
 782              		.cfi_offset 4, -24
 783              		.cfi_offset 14, -20
 784              		.loc 3 183 0
 785 0008 0140A0E3 		mov	r4, #1
 786              		.loc 3 181 0
 787 000c 04C08DE2 		add	ip, sp, #4
 788 0010 0F008CE9 		stmib	ip, {r0, r1, r2, r3}
 789              		.loc 3 183 0
 790 0014 08109DE5 		ldr	r1, [sp, #8]
 791 0018 0C008DE2 		add	r0, sp, #12
 792 001c 1411A0E1 		lsl	r1, r4, r1
 793 0020 FF20A0E3 		mov	r2, #255
 794 0024 FEFFFFEB 		bl	_pal_lld_setgroupmode
 795              	.LVL84:
 796              		.loc 3 184 0
 797 0028 24109DE5 		ldr	r1, [sp, #36]
 798 002c 28008DE2 		add	r0, sp, #40
ARM GAS  /var/folders/3j/4xdnk5197cv_b7cw3n33qk7r0000gn/T//ccxkT2Pi.s 			page 15


 799 0030 1411A0E1 		lsl	r1, r4, r1
 800 0034 FF20A0E3 		mov	r2, #255
 801 0038 FEFFFFEB 		bl	_pal_lld_setgroupmode
 802              	.LVL85:
 803              		.loc 3 186 0
 804 003c 0C309DE5 		ldr	r3, [sp, #12]
 805 0040 08109DE5 		ldr	r1, [sp, #8]
 806 0044 0C008DE2 		add	r0, sp, #12
 807 0048 1411C3E1 		bic	r1, r3, r4, lsl r1
 808 004c FEFFFFEB 		bl	_pal_lld_writeport
 809              	.LVL86:
 810              		.loc 3 187 0
 811 0050 24109DE5 		ldr	r1, [sp, #36]
 812 0054 28309DE5 		ldr	r3, [sp, #40]
 813 0058 28008DE2 		add	r0, sp, #40
 814 005c 1411C3E1 		bic	r1, r3, r4, lsl r1
 815 0060 FEFFFFEB 		bl	_pal_lld_writeport
 816              	.LVL87:
 817              		.loc 3 189 0
 818 0064 1040BDE8 		pop	{r4, lr}
 819              		.cfi_restore 14
 820              		.cfi_restore 4
 821              		.cfi_def_cfa_offset 16
 822 0068 10D08DE2 		add	sp, sp, #16
 823              		.cfi_def_cfa_offset 0
 824 006c 1EFF2FE1 		bx	lr
 825              		.cfi_endproc
 826              	.LFE27:
 827              		.size	setup_mux_GPIO, .-setup_mux_GPIO
 828              		.section	.text.set_mux_GPIO,"ax",%progbits
 829              		.align	2
 830              		.global	set_mux_GPIO
 831              		.syntax unified
 832              		.arm
 833              		.fpu softvfp
 834              		.type	set_mux_GPIO, %function
 835              	set_mux_GPIO:
 836              	.LFB28:
 837              		.loc 3 194 0
 838              		.cfi_startproc
 839              		@ args = 60, pretend = 16, frame = 0
 840              		@ frame_needed = 0, uses_anonymous_args = 0
 841              	.LVL88:
 842 0000 01C0A0E3 		mov	ip, #1
 843 0004 10D04DE2 		sub	sp, sp, #16
 844              		.cfi_def_cfa_offset 16
 845 0008 10402DE9 		push	{r4, lr}
 846              		.cfi_def_cfa_offset 24
 847              		.cfi_offset 4, -24
 848              		.cfi_offset 14, -20
 849              		.loc 3 194 0
 850 000c 04E08DE2 		add	lr, sp, #4
 851 0010 0F008EE9 		stmib	lr, {r0, r1, r2, r3}
 852 0014 08109DE5 		ldr	r1, [sp, #8]
 853 0018 4030DDE5 		ldrb	r3, [sp, #64]	@ zero_extendqisi2
 854              	.LVL89:
 855 001c 1CC1A0E1 		lsl	ip, ip, r1
ARM GAS  /var/folders/3j/4xdnk5197cv_b7cw3n33qk7r0000gn/T//ccxkT2Pi.s 			page 16


 856 0020 0C109DE5 		ldr	r1, [sp, #12]
 857              		.loc 3 197 0
 858 0024 010013E3 		tst	r3, #1
 859 0028 0C108111 		orrne	r1, r1, ip
 860 002c 0C10C101 		biceq	r1, r1, ip
 861 0030 0C008DE2 		add	r0, sp, #12
 862              		.loc 3 196 0
 863 0034 024003E2 		and	r4, r3, #2
 864              	.LVL90:
 865              		.loc 3 197 0
 866 0038 FEFFFFEB 		bl	_pal_lld_writeport
 867              	.LVL91:
 868 003c 0130A0E3 		mov	r3, #1
 869 0040 24109DE5 		ldr	r1, [sp, #36]
 870              		.loc 3 198 0
 871 0044 000054E3 		cmp	r4, #0
 872 0048 1331A0E1 		lsl	r3, r3, r1
 873 004c 28109DE5 		ldr	r1, [sp, #40]
 874 0050 28008DE2 		add	r0, sp, #40
 875 0054 03108111 		orrne	r1, r1, r3
 876 0058 0310C101 		biceq	r1, r1, r3
 877 005c FEFFFFEB 		bl	_pal_lld_writeport
 878              	.LVL92:
 879              		.loc 3 199 0
 880 0060 1040BDE8 		pop	{r4, lr}
 881              		.cfi_restore 14
 882              		.cfi_restore 4
 883              		.cfi_def_cfa_offset 16
 884              	.LVL93:
 885 0064 10D08DE2 		add	sp, sp, #16
 886              		.cfi_def_cfa_offset 0
 887 0068 1EFF2FE1 		bx	lr
 888              		.cfi_endproc
 889              	.LFE28:
 890              		.size	set_mux_GPIO, .-set_mux_GPIO
 891              		.global	__aeabi_fcmplt
 892              		.global	__aeabi_fmul
 893              		.global	__aeabi_f2iz
 894              		.section	.text.Thread_Sensor,"ax",%progbits
 895              		.align	2
 896              		.syntax unified
 897              		.arm
 898              		.fpu softvfp
 899              		.type	Thread_Sensor, %function
 900              	Thread_Sensor:
 901              	.LFB36:
 902              		.loc 1 210 0
 903              		.cfi_startproc
 904              		@ args = 0, pretend = 0, frame = 2584
 905              		@ frame_needed = 0, uses_anonymous_args = 0
 906              	.LVL94:
 907 0000 F04F2DE9 		push	{r4, r5, r6, r7, r8, r9, r10, fp, lr}
 908              		.cfi_def_cfa_offset 36
 909              		.cfi_offset 4, -36
 910              		.cfi_offset 5, -32
 911              		.cfi_offset 6, -28
 912              		.cfi_offset 7, -24
ARM GAS  /var/folders/3j/4xdnk5197cv_b7cw3n33qk7r0000gn/T//ccxkT2Pi.s 			page 17


 913              		.cfi_offset 8, -20
 914              		.cfi_offset 9, -16
 915              		.cfi_offset 10, -12
 916              		.cfi_offset 11, -8
 917              		.cfi_offset 14, -4
 918 0004 0040A0E1 		mov	r4, r0
 919 0008 29DD4DE2 		sub	sp, sp, #2624
 920              		.cfi_def_cfa_offset 2660
 921 000c 0CD04DE2 		sub	sp, sp, #12
 922              		.cfi_def_cfa_offset 2672
 923              		.loc 1 212 0
 924 0010 6F8E8DE2 		add	r8, sp, #1776
 925 0014 088088E2 		add	r8, r8, #8
 926 0018 0010A0E1 		mov	r1, r0
 927 001c 352EA0E3 		mov	r2, #848
 928 0020 0800A0E1 		mov	r0, r8
 929              	.LVL95:
 930 0024 FEFFFFEB 		bl	memcpy
 931              	.LVL96:
 932              		.loc 1 213 0
 933 0028 FC319FE5 		ldr	r3, .L86
 934 002c FC219FE5 		ldr	r2, .L86+4
 935 0030 183093E5 		ldr	r3, [r3, #24]
 936              		.loc 1 212 0
 937 0034 671F84E2 		add	r1, r4, #412
 938              	.LBB56:
 939              	.LBB57:
 940              	.LBB58:
 941              		.loc 3 203 0
 942 0038 F4919FE5 		ldr	r9, .L86+8
 943              	.LBE58:
 944              	.LBE57:
 945              	.LBE56:
 946              		.loc 1 212 0
 947 003c B070D1E1 		ldrh	r7, [r1]
 948 0040 B461D4E1 		ldrh	r6, [r4, #20]
 949              	.LVL97:
 950              		.loc 1 213 0
 951 0044 182083E5 		str	r2, [r3, #24]
 952              	.LVL98:
 953              	.L76:
 954 0048 622FA0E3 		mov	r2, #392
 955 004c 0810A0E1 		mov	r1, r8
 956 0050 D8008DE2 		add	r0, sp, #216
 957 0054 B461C8E1 		strh	r6, [r8, #20]	@ movhi
 958 0058 FEFFFFEB 		bl	memcpy
 959              	.LVL99:
 960 005c 893E8DE2 		add	r3, sp, #2192
 961 0060 043083E2 		add	r3, r3, #4
 962 0064 622FA0E3 		mov	r2, #392
 963 0068 221D8DE2 		add	r1, sp, #2176
 964 006c B070C3E1 		strh	r7, [r3]	@ movhi
 965 0070 260E8DE2 		add	r0, sp, #608
 966 0074 FEFFFFEB 		bl	memcpy
 967              	.LVL100:
 968 0078 0ACC8DE2 		add	ip, sp, #2560
 969 007c 30408DE2 		add	r4, sp, #48
ARM GAS  /var/folders/3j/4xdnk5197cv_b7cw3n33qk7r0000gn/T//ccxkT2Pi.s 			page 18


 970 0080 08C08CE2 		add	ip, ip, #8
 971 0084 0F00BCE8 		ldmia	ip!, {r0, r1, r2, r3}
 972 0088 0F00A4E8 		stmia	r4!, {r0, r1, r2, r3}
 973 008c 0F00BCE8 		ldmia	ip!, {r0, r1, r2, r3}
 974              	.LBB83:
 975              	.LBB63:
 976              	.LBB64:
 977              	.LBB65:
 978              	.LBB66:
 979              		.loc 3 171 0 discriminator 1
 980 0090 0D50A0E1 		mov	r5, sp
 981 0094 0F00A4E8 		stmia	r4!, {r0, r1, r2, r3}
 982 0098 0F00BCE8 		ldmia	ip!, {r0, r1, r2, r3}
 983 009c 0F00A4E8 		stmia	r4!, {r0, r1, r2, r3}
 984 00a0 03009CE8 		ldm	ip, {r0, r1}
 985 00a4 622FA0E3 		mov	r2, #392
 986 00a8 030084E8 		stm	r4, {r0, r1}
 987              	.LVL101:
 988 00ac D8108DE2 		add	r1, sp, #216
 989 00b0 FA0F8DE2 		add	r0, sp, #1000
 990 00b4 FEFFFFEB 		bl	memcpy
 991              	.LVL102:
 992 00b8 30E08DE2 		add	lr, sp, #48
 993 00bc 68C08DE2 		add	ip, sp, #104
 994 00c0 0F00BEE8 		ldmia	lr!, {r0, r1, r2, r3}
 995 00c4 0F00ACE8 		stmia	ip!, {r0, r1, r2, r3}
 996 00c8 0F00BEE8 		ldmia	lr!, {r0, r1, r2, r3}
 997 00cc 0F00ACE8 		stmia	ip!, {r0, r1, r2, r3}
 998 00d0 0F00BEE8 		ldmia	lr!, {r0, r1, r2, r3}
 999 00d4 0F00ACE8 		stmia	ip!, {r0, r1, r2, r3}
 1000 00d8 030094E8 		ldm	r4, {r0, r1}
 1001 00dc F033DDE5 		ldrb	r3, [sp, #1008]	@ zero_extendqisi2
 1002 00e0 03008CE8 		stm	ip, {r0, r1}
 1003              	.LVL103:
 1004 00e4 78A08DE2 		add	r10, sp, #120
 1005 00e8 28308DE5 		str	r3, [sp, #40]
 1006 00ec 0F00BAE8 		ldmia	r10!, {r0, r1, r2, r3}
 1007 00f0 0F00A5E8 		stmia	r5!, {r0, r1, r2, r3}
 1008 00f4 0F00BAE8 		ldmia	r10!, {r0, r1, r2, r3}
 1009 00f8 0F00A5E8 		stmia	r5!, {r0, r1, r2, r3}
 1010 00fc 03009AE8 		ldm	r10, {r0, r1}
 1011 0100 030085E8 		stm	r5, {r0, r1}
 1012 0104 68308DE2 		add	r3, sp, #104
 1013 0108 0F0093E8 		ldm	r3, {r0, r1, r2, r3}
 1014 010c FEFFFFEB 		bl	set_mux_GPIO
 1015              	.LVL104:
 1016              		.loc 3 172 0 discriminator 1
 1017 0110 FA3F8DE2 		add	r3, sp, #1000
 1018 0114 280083E2 		add	r0, r3, #40
 1019 0118 FD1F8DE2 		add	r1, sp, #1012
 1020 011c FEFFFFEB 		bl	VL53L0X_GetMeasurementDataReady
 1021              	.LVL105:
 1022              	.LBE66:
 1023              	.LBE65:
 1024              	.LBB68:
 1025              	.LBB69:
 1026              		.loc 3 171 0 discriminator 1
ARM GAS  /var/folders/3j/4xdnk5197cv_b7cw3n33qk7r0000gn/T//ccxkT2Pi.s 			page 19


 1027 0120 0DA0A0E1 		mov	r10, sp
 1028              	.LBE69:
 1029              	.LBE68:
 1030              	.LBB71:
 1031              	.LBB67:
 1032              		.loc 3 172 0 discriminator 1
 1033 0124 0050A0E1 		mov	r5, r0
 1034              	.LVL106:
 1035 0128 622FA0E3 		mov	r2, #392
 1036 012c 261E8DE2 		add	r1, sp, #608
 1037 0130 570E8DE2 		add	r0, sp, #1392
 1038 0134 FEFFFFEB 		bl	memcpy
 1039              	.LVL107:
 1040 0138 30E08DE2 		add	lr, sp, #48
 1041 013c A0C08DE2 		add	ip, sp, #160
 1042 0140 0F00BEE8 		ldmia	lr!, {r0, r1, r2, r3}
 1043 0144 0F00ACE8 		stmia	ip!, {r0, r1, r2, r3}
 1044 0148 0F00BEE8 		ldmia	lr!, {r0, r1, r2, r3}
 1045 014c 0F00ACE8 		stmia	ip!, {r0, r1, r2, r3}
 1046 0150 0F00BEE8 		ldmia	lr!, {r0, r1, r2, r3}
 1047 0154 0F00ACE8 		stmia	ip!, {r0, r1, r2, r3}
 1048 0158 030094E8 		ldm	r4, {r0, r1}
 1049              	.LBE67:
 1050              	.LBE71:
 1051              	.LBB72:
 1052              	.LBB70:
 1053              		.loc 3 171 0 discriminator 1
 1054 015c 7835DDE5 		ldrb	r3, [sp, #1400]	@ zero_extendqisi2
 1055 0160 03008CE8 		stm	ip, {r0, r1}
 1056              	.LVL108:
 1057 0164 B0B08DE2 		add	fp, sp, #176
 1058 0168 28308DE5 		str	r3, [sp, #40]
 1059 016c 0F00BBE8 		ldmia	fp!, {r0, r1, r2, r3}
 1060 0170 0F00AAE8 		stmia	r10!, {r0, r1, r2, r3}
 1061 0174 0F00BBE8 		ldmia	fp!, {r0, r1, r2, r3}
 1062 0178 0F00AAE8 		stmia	r10!, {r0, r1, r2, r3}
 1063 017c 03009BE8 		ldm	fp, {r0, r1}
 1064 0180 03008AE8 		stm	r10, {r0, r1}
 1065 0184 A0308DE2 		add	r3, sp, #160
 1066 0188 0F0093E8 		ldm	r3, {r0, r1, r2, r3}
 1067 018c FEFFFFEB 		bl	set_mux_GPIO
 1068              	.LVL109:
 1069              		.loc 3 172 0 discriminator 1
 1070 0190 573E8DE2 		add	r3, sp, #1392
 1071 0194 083083E2 		add	r3, r3, #8
 1072 0198 590E8DE2 		add	r0, sp, #1424
 1073 019c 041083E2 		add	r1, r3, #4
 1074 01a0 080080E2 		add	r0, r0, #8
 1075 01a4 FEFFFFEB 		bl	VL53L0X_GetMeasurementDataReady
 1076              	.LVL110:
 1077              	.LBE70:
 1078              	.LBE72:
 1079              	.LBE64:
 1080              	.LBE63:
 1081              		.loc 1 216 0 discriminator 1
 1082 01a8 88309FE5 		ldr	r3, .L86+12
 1083              	.LBB74:
ARM GAS  /var/folders/3j/4xdnk5197cv_b7cw3n33qk7r0000gn/T//ccxkT2Pi.s 			page 20


 1084              	.LBB61:
 1085              		.loc 3 203 0 discriminator 1
 1086 01ac 090056E1 		cmp	r6, r9
 1087              	.LBE61:
 1088              	.LBE74:
 1089              	.LBB75:
 1090              	.LBB73:
 1091              		.loc 3 164 0 discriminator 1
 1092 01b0 000085E1 		orr	r0, r5, r0
 1093              	.LBE73:
 1094              	.LBE75:
 1095              		.loc 1 216 0 discriminator 1
 1096 01b4 0000C3E5 		strb	r0, [r3]
 1097              	.LVL111:
 1098              	.LBB76:
 1099              	.LBB62:
 1100              		.loc 3 204 0 discriminator 1
 1101 01b8 FE45A083 		movhi	r4, #1065353216
 1102              		.loc 3 203 0 discriminator 1
 1103 01bc 0600008A 		bhi	.L72
 1104              	.LVL112:
 1105              	.LBB59:
 1106              	.LBB60:
 1107              		.loc 3 205 0
 1108 01c0 960F56E3 		cmp	r6, #600
 1109              		.loc 3 206 0
 1110 01c4 FD45A083 		movhi	r4, #1061158912
 1111              		.loc 3 205 0
 1112 01c8 0300008A 		bhi	.L72
 1113              		.loc 3 207 0
 1114 01cc 68309FE5 		ldr	r3, .L86+16
 1115 01d0 030056E1 		cmp	r6, r3
 1116              		.loc 3 208 0
 1117 01d4 3F44A083 		movhi	r4, #1056964608
 1118              		.loc 3 207 0
 1119              		.loc 3 209 0
 1120 01d8 60409F95 		ldrls	r4, .L86+20
 1121              	.LVL113:
 1122              	.L72:
 1123              	.LBE60:
 1124              	.LBE59:
 1125              	.LBE62:
 1126              	.LBE76:
 1127              	.LBB77:
 1128              	.LBB78:
 1129              		.loc 3 203 0
 1130 01dc 090057E1 		cmp	r7, r9
 1131 01e0 0B00008A 		bhi	.L74
 1132              	.LVL114:
 1133              	.LBB79:
 1134              	.LBB80:
 1135              		.loc 3 205 0
 1136 01e4 960F57E3 		cmp	r7, #600
 1137              		.loc 3 206 0
 1138 01e8 FD55A083 		movhi	r5, #1061158912
 1139              		.loc 3 205 0
 1140 01ec 0300008A 		bhi	.L73
ARM GAS  /var/folders/3j/4xdnk5197cv_b7cw3n33qk7r0000gn/T//ccxkT2Pi.s 			page 21


 1141              		.loc 3 207 0
 1142 01f0 44309FE5 		ldr	r3, .L86+16
 1143 01f4 030057E1 		cmp	r7, r3
 1144              		.loc 3 208 0
 1145 01f8 3F54A083 		movhi	r5, #1056964608
 1146              		.loc 3 209 0
 1147 01fc 3C509F95 		ldrls	r5, .L86+20
 1148              	.L73:
 1149              	.LVL115:
 1150              	.LBE80:
 1151              	.LBE79:
 1152              	.LBE78:
 1153              	.LBE77:
 1154              	.LBB81:
 1155              	.LBB82:
 1156              		.loc 1 236 0
 1157 0200 0410A0E1 		mov	r1, r4
 1158 0204 0500A0E1 		mov	r0, r5
 1159 0208 FEFFFFEB 		bl	__aeabi_fcmplt
 1160              	.LVL116:
 1161 020c 000050E3 		cmp	r0, #0
 1162 0210 0540A011 		movne	r4, r5
 1163              	.LVL117:
 1164              	.L74:
 1165              	.LBE82:
 1166              	.LBE81:
 1167              		.loc 1 219 0
 1168 0214 28109FE5 		ldr	r1, .L86+24
 1169 0218 0400A0E1 		mov	r0, r4
 1170 021c FEFFFFEB 		bl	__aeabi_fmul
 1171              	.LVL118:
 1172 0220 FEFFFFEB 		bl	__aeabi_f2iz
 1173              	.LVL119:
 1174              		.loc 1 220 0
 1175 0224 FEFFFFEB 		bl	chThdSleep
 1176              	.LVL120:
 1177              	.LBE83:
 1178              		.loc 1 214 0
 1179 0228 86FFFFEA 		b	.L76
 1180              	.L87:
 1181              		.align	2
 1182              	.L86:
 1183 022c 00000000 		.word	rlist
 1184 0230 00000000 		.word	.LC2
 1185 0234 92030000 		.word	914
 1186 0238 00000000 		.word	.LANCHOR0
 1187 023c C9010000 		.word	457
 1188 0240 CDCC4C3E 		.word	1045220557
 1189 0244 00004843 		.word	1128792064
 1190              		.cfi_endproc
 1191              	.LFE36:
 1192              		.size	Thread_Sensor, .-Thread_Sensor
 1193              		.section	.text.individual_sensor,"ax",%progbits
 1194              		.align	2
 1195              		.syntax unified
 1196              		.arm
 1197              		.fpu softvfp
ARM GAS  /var/folders/3j/4xdnk5197cv_b7cw3n33qk7r0000gn/T//ccxkT2Pi.s 			page 22


 1198              		.type	individual_sensor, %function
 1199              	individual_sensor:
 1200              	.LFB24:
 1201              		.loc 3 119 0
 1202              		.cfi_startproc
 1203              		@ args = 448, pretend = 16, frame = 8
 1204              		@ frame_needed = 0, uses_anonymous_args = 0
 1205 0000 10D04DE2 		sub	sp, sp, #16
 1206              		.cfi_def_cfa_offset 16
 1207 0004 04E02DE5 		str	lr, [sp, #-4]!
 1208              		.cfi_def_cfa_offset 20
 1209              		.cfi_offset 14, -20
 1210 0008 3CD04DE2 		sub	sp, sp, #60
 1211              		.cfi_def_cfa_offset 80
 1212              		.loc 3 121 0
 1213 000c 0DC0A0E1 		mov	ip, sp
 1214              		.loc 3 119 0
 1215 0010 3CE08DE2 		add	lr, sp, #60
 1216 0014 0F008EE9 		stmib	lr, {r0, r1, r2, r3}
 1217              		.loc 3 121 0
 1218 0018 4830DDE5 		ldrb	r3, [sp, #72]	@ zero_extendqisi2
 1219 001c 76EF8DE2 		add	lr, sp, #472
 1220 0020 28308DE5 		str	r3, [sp, #40]
 1221 0024 0F00BEE8 		ldmia	lr!, {r0, r1, r2, r3}
 1222 0028 0F00ACE8 		stmia	ip!, {r0, r1, r2, r3}
 1223 002c 0F00BEE8 		ldmia	lr!, {r0, r1, r2, r3}
 1224 0030 0F00ACE8 		stmia	ip!, {r0, r1, r2, r3}
 1225 0034 03009EE8 		ldm	lr, {r0, r1}
 1226 0038 03008CE8 		stm	ip, {r0, r1}
 1227 003c 723F8DE2 		add	r3, sp, #456
 1228 0040 0F0093E8 		ldm	r3, {r0, r1, r2, r3}
 1229 0044 FEFFFFEB 		bl	set_mux_GPIO
 1230              	.LVL121:
 1231              		.loc 3 124 0
 1232 0048 0030A0E3 		mov	r3, #0
 1233              		.loc 3 130 0
 1234 004c 68008DE2 		add	r0, sp, #104
 1235              		.loc 3 124 0
 1236 0050 3130CDE5 		strb	r3, [sp, #49]
 1237              		.loc 3 125 0
 1238 0054 3230CDE5 		strb	r3, [sp, #50]
 1239              		.loc 3 126 0
 1240 0058 34308DE5 		str	r3, [sp, #52]
 1241              		.loc 3 127 0
 1242 005c 3330CDE5 		strb	r3, [sp, #51]
 1243              		.loc 3 130 0
 1244 0060 FEFFFFEB 		bl	VL53L0X_DataInit
 1245              	.LVL122:
 1246              		.loc 3 131 0
 1247 0064 000050E3 		cmp	r0, #0
 1248              	.LVL123:
 1249 0068 0300000A 		beq	.L91
 1250              	.L89:
 1251              		.loc 3 155 0
 1252 006c 3CD08DE2 		add	sp, sp, #60
 1253              		.cfi_remember_state
 1254              		.cfi_def_cfa_offset 20
ARM GAS  /var/folders/3j/4xdnk5197cv_b7cw3n33qk7r0000gn/T//ccxkT2Pi.s 			page 23


 1255              		@ sp needed
 1256 0070 04E09DE4 		ldr	lr, [sp], #4
 1257              		.cfi_restore 14
 1258              		.cfi_def_cfa_offset 16
 1259 0074 10D08DE2 		add	sp, sp, #16
 1260              		.cfi_def_cfa_offset 0
 1261 0078 1EFF2FE1 		bx	lr
 1262              	.L91:
 1263              		.cfi_restore_state
 1264              		.loc 3 132 0
 1265 007c 68008DE2 		add	r0, sp, #104
 1266 0080 FEFFFFEB 		bl	VL53L0X_StaticInit
 1267              	.LVL124:
 1268              		.loc 3 133 0
 1269 0084 000050E3 		cmp	r0, #0
 1270              	.LVL125:
 1271 0088 F7FFFF1A 		bne	.L89
 1272              		.loc 3 134 0
 1273 008c 32208DE2 		add	r2, sp, #50
 1274 0090 31108DE2 		add	r1, sp, #49
 1275 0094 68008DE2 		add	r0, sp, #104
 1276 0098 FEFFFFEB 		bl	VL53L0X_PerformRefCalibration
 1277              	.LVL126:
 1278              		.loc 3 135 0
 1279 009c 000050E3 		cmp	r0, #0
 1280              	.LVL127:
 1281 00a0 F1FFFF1A 		bne	.L89
 1282              		.loc 3 136 0
 1283 00a4 33208DE2 		add	r2, sp, #51
 1284 00a8 34108DE2 		add	r1, sp, #52
 1285 00ac 68008DE2 		add	r0, sp, #104
 1286 00b0 FEFFFFEB 		bl	VL53L0X_PerformRefSpadManagement
 1287              	.LVL128:
 1288              		.loc 3 137 0
 1289 00b4 000050E3 		cmp	r0, #0
 1290              	.LVL129:
 1291 00b8 EBFFFF1A 		bne	.L89
 1292              		.loc 3 138 0
 1293 00bc 0110A0E3 		mov	r1, #1
 1294 00c0 68008DE2 		add	r0, sp, #104
 1295 00c4 FEFFFFEB 		bl	VL53L0X_SetDeviceMode
 1296              	.LVL130:
 1297              		.loc 3 139 0
 1298 00c8 000050E3 		cmp	r0, #0
 1299              	.LVL131:
 1300 00cc E6FFFF1A 		bne	.L89
 1301              		.loc 3 142 0
 1302 00d0 0010A0E1 		mov	r1, r0
 1303 00d4 0120A0E3 		mov	r2, #1
 1304 00d8 68008DE2 		add	r0, sp, #104
 1305 00dc FEFFFFEB 		bl	VL53L0X_SetLimitCheckEnable
 1306              	.LVL132:
 1307              		.loc 3 143 0
 1308 00e0 000050E3 		cmp	r0, #0
 1309              	.LVL133:
 1310 00e4 E0FFFF1A 		bne	.L89
 1311              		.loc 3 145 0
ARM GAS  /var/folders/3j/4xdnk5197cv_b7cw3n33qk7r0000gn/T//ccxkT2Pi.s 			page 24


 1312 00e8 0120A0E3 		mov	r2, #1
 1313 00ec 68008DE2 		add	r0, sp, #104
 1314 00f0 0210A0E1 		mov	r1, r2
 1315 00f4 FEFFFFEB 		bl	VL53L0X_SetLimitCheckEnable
 1316              	.LVL134:
 1317              		.loc 3 146 0
 1318 00f8 000050E3 		cmp	r0, #0
 1319              	.LVL135:
 1320 00fc DAFFFF1A 		bne	.L89
 1321              		.loc 3 147 0
 1322 0100 0129A0E3 		mov	r2, #16384
 1323 0104 0110A0E3 		mov	r1, #1
 1324 0108 68008DE2 		add	r0, sp, #104
 1325 010c FEFFFFEB 		bl	VL53L0X_SetLimitCheckValue
 1326              	.LVL136:
 1327              		.loc 3 148 0
 1328 0110 000050E3 		cmp	r0, #0
 1329              	.LVL137:
 1330 0114 D4FFFF1A 		bne	.L89
 1331              		.loc 3 149 0
 1332 0118 0010A0E1 		mov	r1, r0
 1333 011c 0226A0E3 		mov	r2, #2097152
 1334 0120 68008DE2 		add	r0, sp, #104
 1335 0124 FEFFFFEB 		bl	VL53L0X_SetLimitCheckValue
 1336              	.LVL138:
 1337              		.loc 3 150 0
 1338 0128 000050E3 		cmp	r0, #0
 1339              	.LVL139:
 1340 012c CEFFFF1A 		bne	.L89
 1341              		.loc 3 151 0
 1342 0130 68008DE2 		add	r0, sp, #104
 1343 0134 04109FE5 		ldr	r1, .L92
 1344 0138 FEFFFFEB 		bl	VL53L0X_SetMeasurementTimingBudgetMicroSeconds
 1345              	.LVL140:
 1346 013c CAFFFFEA 		b	.L89
 1347              	.L93:
 1348              		.align	2
 1349              	.L92:
 1350 0140 204E0000 		.word	20000
 1351              		.cfi_endproc
 1352              	.LFE24:
 1353              		.size	individual_sensor, .-individual_sensor
 1354              		.section	.text.setup_sensor_array.isra.1,"ax",%progbits
 1355              		.align	2
 1356              		.syntax unified
 1357              		.arm
 1358              		.fpu softvfp
 1359              		.type	setup_sensor_array.isra.1, %function
 1360              	setup_sensor_array.isra.1:
 1361              	.LFB40:
 1362              		.loc 3 106 0
 1363              		.cfi_startproc
 1364              		@ args = 840, pretend = 16, frame = 0
 1365              		@ frame_needed = 0, uses_anonymous_args = 0
 1366              	.LVL141:
 1367 0000 10D04DE2 		sub	sp, sp, #16
 1368              		.cfi_def_cfa_offset 16
ARM GAS  /var/folders/3j/4xdnk5197cv_b7cw3n33qk7r0000gn/T//ccxkT2Pi.s 			page 25


 1369 0004 30402DE9 		push	{r4, r5, lr}
 1370              		.cfi_def_cfa_offset 28
 1371              		.cfi_offset 4, -28
 1372              		.cfi_offset 5, -24
 1373              		.cfi_offset 14, -20
 1374 0008 6DDF4DE2 		sub	sp, sp, #436
 1375              		.cfi_def_cfa_offset 464
 1376              		.loc 3 109 0
 1377 000c 5E4F8DE2 		add	r4, sp, #376
 1378 0010 04C0A0E1 		mov	ip, r4
 1379              		.loc 3 106 0
 1380 0014 075D8DE2 		add	r5, sp, #448
 1381              		.loc 3 109 0
 1382 0018 4DEE8DE2 		add	lr, sp, #1232
 1383              		.loc 3 106 0
 1384 001c 0F0085E8 		stm	r5, {r0, r1, r2, r3}
 1385              		.loc 3 109 0
 1386 0020 0F00BEE8 		ldmia	lr!, {r0, r1, r2, r3}
 1387 0024 0F00ACE8 		stmia	ip!, {r0, r1, r2, r3}
 1388 0028 0F00BEE8 		ldmia	lr!, {r0, r1, r2, r3}
 1389 002c 0F00ACE8 		stmia	ip!, {r0, r1, r2, r3}
 1390 0030 0F00BEE8 		ldmia	lr!, {r0, r1, r2, r3}
 1391 0034 0F00ACE8 		stmia	ip!, {r0, r1, r2, r3}
 1392 0038 5E2FA0E3 		mov	r2, #376
 1393 003c 03009EE8 		ldm	lr, {r0, r1}
 1394 0040 03008CE8 		stm	ip, {r0, r1}
 1395 0044 1D1E8DE2 		add	r1, sp, #464
 1396 0048 0D00A0E1 		mov	r0, sp
 1397 004c FEFFFFEB 		bl	memcpy
 1398              	.LVL142:
 1399 0050 0F0095E8 		ldm	r5, {r0, r1, r2, r3}
 1400 0054 FEFFFFEB 		bl	individual_sensor
 1401              	.LVL143:
 1402              		.loc 3 110 0
 1403 0058 000050E3 		cmp	r0, #0
 1404              	.LVL144:
 1405 005c 1000001A 		bne	.L95
 1406              		.loc 3 111 0
 1407 0060 04C0A0E1 		mov	ip, r4
 1408 0064 4DEE8DE2 		add	lr, sp, #1232
 1409 0068 0F00BEE8 		ldmia	lr!, {r0, r1, r2, r3}
 1410 006c 0F00ACE8 		stmia	ip!, {r0, r1, r2, r3}
 1411 0070 0F00BEE8 		ldmia	lr!, {r0, r1, r2, r3}
 1412 0074 0F00ACE8 		stmia	ip!, {r0, r1, r2, r3}
 1413 0078 0F00BEE8 		ldmia	lr!, {r0, r1, r2, r3}
 1414 007c 0F00ACE8 		stmia	ip!, {r0, r1, r2, r3}
 1415 0080 5E2FA0E3 		mov	r2, #376
 1416 0084 03009EE8 		ldm	lr, {r0, r1}
 1417 0088 03008CE8 		stm	ip, {r0, r1}
 1418 008c D61F8DE2 		add	r1, sp, #856
 1419 0090 0D00A0E1 		mov	r0, sp
 1420 0094 FEFFFFEB 		bl	memcpy
 1421              	.LVL145:
 1422 0098 D23F8DE2 		add	r3, sp, #840
 1423 009c 0F0093E8 		ldm	r3, {r0, r1, r2, r3}
 1424 00a0 FEFFFFEB 		bl	individual_sensor
 1425              	.LVL146:
ARM GAS  /var/folders/3j/4xdnk5197cv_b7cw3n33qk7r0000gn/T//ccxkT2Pi.s 			page 26


 1426              	.L95:
 1427              		.loc 3 114 0
 1428 00a4 6DDF8DE2 		add	sp, sp, #436
 1429              		.cfi_def_cfa_offset 28
 1430              		@ sp needed
 1431 00a8 3040BDE8 		pop	{r4, r5, lr}
 1432              		.cfi_restore 14
 1433              		.cfi_restore 5
 1434              		.cfi_restore 4
 1435              		.cfi_def_cfa_offset 16
 1436 00ac 10D08DE2 		add	sp, sp, #16
 1437              		.cfi_def_cfa_offset 0
 1438 00b0 1EFF2FE1 		bx	lr
 1439              		.cfi_endproc
 1440              	.LFE40:
 1441              		.size	setup_sensor_array.isra.1, .-setup_sensor_array.isra.1
 1442              		.section	.text.setup_sensors.constprop.3,"ax",%progbits
 1443              		.align	2
 1444              		.syntax unified
 1445              		.arm
 1446              		.fpu softvfp
 1447              		.type	setup_sensors.constprop.3, %function
 1448              	setup_sensors.constprop.3:
 1449              	.LFB42:
 1450              		.loc 3 66 0
 1451              		.cfi_startproc
 1452              		@ args = 3392, pretend = 16, frame = 3392
 1453              		@ frame_needed = 0, uses_anonymous_args = 0
 1454              	.LVL147:
 1455 0000 10D04DE2 		sub	sp, sp, #16
 1456              		.cfi_def_cfa_offset 16
 1457 0004 F0472DE9 		push	{r4, r5, r6, r7, r8, r9, r10, lr}
 1458              		.cfi_def_cfa_offset 48
 1459              		.cfi_offset 4, -48
 1460              		.cfi_offset 5, -44
 1461              		.cfi_offset 6, -40
 1462              		.cfi_offset 7, -36
 1463              		.cfi_offset 8, -32
 1464              		.cfi_offset 9, -28
 1465              		.cfi_offset 10, -24
 1466              		.cfi_offset 14, -20
 1467              	.LBB84:
 1468              	.LBB85:
 1469              		.loc 3 94 0
 1470 0008 0050A0E3 		mov	r5, #0
 1471              	.LBE85:
 1472              	.LBE84:
 1473              		.loc 3 66 0
 1474 000c 41DD4DE2 		sub	sp, sp, #4160
 1475              		.cfi_def_cfa_offset 4208
 1476 0010 38D04DE2 		sub	sp, sp, #56
 1477              		.cfi_def_cfa_offset 4264
 1478              		.loc 3 66 0
 1479 0014 428D8DE2 		add	r8, sp, #4224
 1480 0018 188088E2 		add	r8, r8, #24
 1481 001c 0F0088E8 		stm	r8, {r0, r1, r2, r3}
 1482 0020 352EA0E3 		mov	r2, #848
ARM GAS  /var/folders/3j/4xdnk5197cv_b7cw3n33qk7r0000gn/T//ccxkT2Pi.s 			page 27


 1483 0024 0810A0E1 		mov	r1, r8
 1484 0028 CE0F8DE2 		add	r0, sp, #824
 1485 002c FEFFFFEB 		bl	memcpy
 1486              	.LVL148:
 1487              	.LBB87:
 1488              	.LBB86:
 1489              		.loc 3 93 0
 1490 0030 0510A0E1 		mov	r1, r5
 1491 0034 360E8DE2 		add	r0, sp, #864
 1492 0038 FEFFFFEB 		bl	VL53L0X_SetDeviceAddress
 1493              	.LVL149:
 1494 003c 0040A0E1 		mov	r4, r0
 1495              	.LVL150:
 1496              		.loc 3 97 0
 1497 0040 4E0E8DE2 		add	r0, sp, #1248
 1498 0044 0110A0E3 		mov	r1, #1
 1499 0048 080080E2 		add	r0, r0, #8
 1500              		.loc 3 94 0
 1501 004c 40538DE5 		str	r5, [sp, #832]
 1502              	.LVL151:
 1503              		.loc 3 97 0
 1504 0050 FEFFFFEB 		bl	VL53L0X_SetDeviceAddress
 1505              	.LVL152:
 1506              	.LBE86:
 1507              	.LBE87:
 1508              	.LBB88:
 1509              	.LBB89:
 1510              		.loc 3 94 0
 1511 0054 02A0A0E3 		mov	r10, #2
 1512 0058 4F7D8DE2 		add	r7, sp, #5056
 1513 005c 004084E1 		orr	r4, r4, r0
 1514              	.LVL153:
 1515 0060 287087E2 		add	r7, r7, #40
 1516 0064 1A0D8DE2 		add	r0, sp, #1664
 1517 0068 352EA0E3 		mov	r2, #848
 1518 006c 0710A0E1 		mov	r1, r7
 1519 0070 080080E2 		add	r0, r0, #8
 1520 0074 FEFFFFEB 		bl	memcpy
 1521              	.LVL154:
 1522              		.loc 3 93 0
 1523 0078 0A10A0E1 		mov	r1, r10
 1524 007c 6B0E8DE2 		add	r0, sp, #1712
 1525 0080 FEFFFFEB 		bl	VL53L0X_SetDeviceAddress
 1526              	.LVL155:
 1527 0084 7490AFE6 		sxtb	r9, r4
 1528              	.LVL156:
 1529 0088 0040A0E1 		mov	r4, r0
 1530              	.LVL157:
 1531              		.loc 3 97 0
 1532 008c 830E8DE2 		add	r0, sp, #2096
 1533 0090 0310A0E3 		mov	r1, #3
 1534 0094 080080E2 		add	r0, r0, #8
 1535              		.loc 3 94 0
 1536 0098 90A68DE5 		str	r10, [sp, #1680]
 1537              	.LVL158:
 1538              		.loc 3 97 0
 1539 009c FEFFFFEB 		bl	VL53L0X_SetDeviceAddress
ARM GAS  /var/folders/3j/4xdnk5197cv_b7cw3n33qk7r0000gn/T//ccxkT2Pi.s 			page 28


 1540              	.LVL159:
 1541 00a0 094084E1 		orr	r4, r4, r9
 1542 00a4 176C8DE2 		add	r6, sp, #5888
 1543 00a8 044080E1 		orr	r4, r0, r4
 1544 00ac 386086E2 		add	r6, r6, #56
 1545 00b0 9D0E8DE2 		add	r0, sp, #2512
 1546 00b4 352EA0E3 		mov	r2, #848
 1547 00b8 0610A0E1 		mov	r1, r6
 1548 00bc 080080E2 		add	r0, r0, #8
 1549 00c0 FEFFFFEB 		bl	memcpy
 1550              	.LVL160:
 1551              	.LBE89:
 1552              	.LBE88:
 1553              	.LBB90:
 1554              	.LBB91:
 1555              		.loc 3 93 0
 1556 00c4 0510A0E1 		mov	r1, r5
 1557 00c8 0A0C8DE2 		add	r0, sp, #2560
 1558 00cc FEFFFFEB 		bl	VL53L0X_SetDeviceAddress
 1559              	.LVL161:
 1560 00d0 7490AFE6 		sxtb	r9, r4
 1561 00d4 0040A0E1 		mov	r4, r0
 1562              	.LVL162:
 1563              		.loc 3 97 0
 1564 00d8 2E0D8DE2 		add	r0, sp, #2944
 1565 00dc 0110A0E3 		mov	r1, #1
 1566 00e0 080080E2 		add	r0, r0, #8
 1567              		.loc 3 94 0
 1568 00e4 E0598DE5 		str	r5, [sp, #2528]
 1569              	.LVL163:
 1570              		.loc 3 97 0
 1571 00e8 FEFFFFEB 		bl	VL53L0X_SetDeviceAddress
 1572              	.LVL164:
 1573 00ec 094084E1 		orr	r4, r4, r9
 1574 00f0 6A5D8DE2 		add	r5, sp, #6784
 1575 00f4 044080E1 		orr	r4, r0, r4
 1576 00f8 085085E2 		add	r5, r5, #8
 1577 00fc D20E8DE2 		add	r0, sp, #3360
 1578 0100 352EA0E3 		mov	r2, #848
 1579 0104 0510A0E1 		mov	r1, r5
 1580 0108 080080E2 		add	r0, r0, #8
 1581 010c FEFFFFEB 		bl	memcpy
 1582              	.LVL165:
 1583              	.LBE91:
 1584              	.LBE90:
 1585              	.LBB92:
 1586              	.LBB93:
 1587              		.loc 3 93 0
 1588 0110 0A10A0E1 		mov	r1, r10
 1589 0114 D50E8DE2 		add	r0, sp, #3408
 1590 0118 FEFFFFEB 		bl	VL53L0X_SetDeviceAddress
 1591              	.LVL166:
 1592 011c 7490AFE6 		sxtb	r9, r4
 1593 0120 0040A0E1 		mov	r4, r0
 1594              	.LVL167:
 1595              		.loc 3 97 0
 1596 0124 ED0E8DE2 		add	r0, sp, #3792
ARM GAS  /var/folders/3j/4xdnk5197cv_b7cw3n33qk7r0000gn/T//ccxkT2Pi.s 			page 29


 1597 0128 0310A0E3 		mov	r1, #3
 1598 012c 080080E2 		add	r0, r0, #8
 1599              		.loc 3 94 0
 1600 0130 30AD8DE5 		str	r10, [sp, #3376]
 1601              	.LVL168:
 1602              		.loc 3 97 0
 1603 0134 FEFFFFEB 		bl	VL53L0X_SetDeviceAddress
 1604              	.LVL169:
 1605              	.LBE93:
 1606              	.LBE92:
 1607              		.loc 3 69 0
 1608 0138 094084E1 		orr	r4, r4, r9
 1609 013c 040080E1 		orr	r0, r0, r4
 1610 0140 7000AFE6 		sxtb	r0, r0
 1611              	.LVL170:
 1612              		.loc 3 71 0
 1613 0144 000050E3 		cmp	r0, #0
 1614 0148 6200001A 		bne	.L98
 1615              		.loc 3 74 0
 1616 014c 4EED8DE2 		add	lr, sp, #4992
 1617 0150 28E08EE2 		add	lr, lr, #40
 1618 0154 03CC8DE2 		add	ip, sp, #768
 1619 0158 0F00BEE8 		ldmia	lr!, {r0, r1, r2, r3}
 1620              	.LVL171:
 1621 015c 0F00ACE8 		stmia	ip!, {r0, r1, r2, r3}
 1622 0160 0F00BEE8 		ldmia	lr!, {r0, r1, r2, r3}
 1623 0164 0F00ACE8 		stmia	ip!, {r0, r1, r2, r3}
 1624 0168 0F00BEE8 		ldmia	lr!, {r0, r1, r2, r3}
 1625 016c 0F00ACE8 		stmia	ip!, {r0, r1, r2, r3}
 1626 0170 5E9F8DE2 		add	r9, sp, #376
 1627 0174 03009EE8 		ldm	lr, {r0, r1}
 1628 0178 03008CE8 		stm	ip, {r0, r1}
 1629 017c 121C8DE2 		add	r1, sp, #4608
 1630 0180 622FA0E3 		mov	r2, #392
 1631 0184 201081E2 		add	r1, r1, #32
 1632 0188 0900A0E1 		mov	r0, r9
 1633 018c FEFFFFEB 		bl	memcpy
 1634              	.LVL172:
 1635 0190 421D8DE2 		add	r1, sp, #4224
 1636 0194 5E2FA0E3 		mov	r2, #376
 1637 0198 281081E2 		add	r1, r1, #40
 1638 019c 0D00A0E1 		mov	r0, sp
 1639 01a0 FEFFFFEB 		bl	memcpy
 1640              	.LVL173:
 1641 01a4 0F0098E8 		ldm	r8, {r0, r1, r2, r3}
 1642 01a8 FEFFFFEB 		bl	setup_sensor_array.isra.1
 1643              	.LVL174:
 1644 01ac 5BED8DE2 		add	lr, sp, #5824
 1645 01b0 38E08EE2 		add	lr, lr, #56
 1646 01b4 03CC8DE2 		add	ip, sp, #768
 1647 01b8 0040A0E1 		mov	r4, r0
 1648 01bc 0F00BEE8 		ldmia	lr!, {r0, r1, r2, r3}
 1649 01c0 0F00ACE8 		stmia	ip!, {r0, r1, r2, r3}
 1650 01c4 0F00BEE8 		ldmia	lr!, {r0, r1, r2, r3}
 1651 01c8 0F00ACE8 		stmia	ip!, {r0, r1, r2, r3}
 1652 01cc 0F00BEE8 		ldmia	lr!, {r0, r1, r2, r3}
 1653 01d0 0F00ACE8 		stmia	ip!, {r0, r1, r2, r3}
ARM GAS  /var/folders/3j/4xdnk5197cv_b7cw3n33qk7r0000gn/T//ccxkT2Pi.s 			page 30


 1654 01d4 03009EE8 		ldm	lr, {r0, r1}
 1655 01d8 03008CE8 		stm	ip, {r0, r1}
 1656 01dc 551D8DE2 		add	r1, sp, #5440
 1657 01e0 622FA0E3 		mov	r2, #392
 1658 01e4 301081E2 		add	r1, r1, #48
 1659 01e8 0900A0E1 		mov	r0, r9
 1660 01ec FEFFFFEB 		bl	memcpy
 1661              	.LVL175:
 1662 01f0 4F1D8DE2 		add	r1, sp, #5056
 1663 01f4 5E2FA0E3 		mov	r2, #376
 1664 01f8 381081E2 		add	r1, r1, #56
 1665 01fc 0D00A0E1 		mov	r0, sp
 1666 0200 FEFFFFEB 		bl	memcpy
 1667              	.LVL176:
 1668 0204 0F0097E8 		ldm	r7, {r0, r1, r2, r3}
 1669 0208 FEFFFFEB 		bl	setup_sensor_array.isra.1
 1670              	.LVL177:
 1671 020c 69ED8DE2 		add	lr, sp, #6720
 1672 0210 08E08EE2 		add	lr, lr, #8
 1673 0214 03CC8DE2 		add	ip, sp, #768
 1674 0218 004084E1 		orr	r4, r4, r0
 1675 021c 0F00BEE8 		ldmia	lr!, {r0, r1, r2, r3}
 1676 0220 0F00ACE8 		stmia	ip!, {r0, r1, r2, r3}
 1677 0224 0F00BEE8 		ldmia	lr!, {r0, r1, r2, r3}
 1678 0228 0F00ACE8 		stmia	ip!, {r0, r1, r2, r3}
 1679 022c 0F00BEE8 		ldmia	lr!, {r0, r1, r2, r3}
 1680 0230 0F00ACE8 		stmia	ip!, {r0, r1, r2, r3}
 1681 0234 622FA0E3 		mov	r2, #392
 1682 0238 03009EE8 		ldm	lr, {r0, r1}
 1683 023c 03008CE8 		stm	ip, {r0, r1}
 1684 0240 631D8DE2 		add	r1, sp, #6336
 1685 0244 0900A0E1 		mov	r0, r9
 1686 0248 FEFFFFEB 		bl	memcpy
 1687              	.LVL178:
 1688 024c 5D1D8DE2 		add	r1, sp, #5952
 1689 0250 5E2FA0E3 		mov	r2, #376
 1690 0254 081081E2 		add	r1, r1, #8
 1691 0258 0D00A0E1 		mov	r0, sp
 1692 025c FEFFFFEB 		bl	memcpy
 1693              	.LVL179:
 1694 0260 0F0096E8 		ldm	r6, {r0, r1, r2, r3}
 1695 0264 FEFFFFEB 		bl	setup_sensor_array.isra.1
 1696              	.LVL180:
 1697 0268 76ED8DE2 		add	lr, sp, #7552
 1698 026c 7440AFE6 		sxtb	r4, r4
 1699 0270 18E08EE2 		add	lr, lr, #24
 1700 0274 03CC8DE2 		add	ip, sp, #768
 1701 0278 004084E1 		orr	r4, r4, r0
 1702 027c 0F00BEE8 		ldmia	lr!, {r0, r1, r2, r3}
 1703 0280 0F00ACE8 		stmia	ip!, {r0, r1, r2, r3}
 1704 0284 0F00BEE8 		ldmia	lr!, {r0, r1, r2, r3}
 1705 0288 0F00ACE8 		stmia	ip!, {r0, r1, r2, r3}
 1706 028c 0F00BEE8 		ldmia	lr!, {r0, r1, r2, r3}
 1707 0290 0F00ACE8 		stmia	ip!, {r0, r1, r2, r3}
 1708 0294 03009EE8 		ldm	lr, {r0, r1}
 1709 0298 03008CE8 		stm	ip, {r0, r1}
 1710 029c 071B8DE2 		add	r1, sp, #7168
ARM GAS  /var/folders/3j/4xdnk5197cv_b7cw3n33qk7r0000gn/T//ccxkT2Pi.s 			page 31


 1711 02a0 622FA0E3 		mov	r2, #392
 1712 02a4 101081E2 		add	r1, r1, #16
 1713 02a8 0900A0E1 		mov	r0, r9
 1714 02ac FEFFFFEB 		bl	memcpy
 1715              	.LVL181:
 1716 02b0 6A1D8DE2 		add	r1, sp, #6784
 1717 02b4 5E2FA0E3 		mov	r2, #376
 1718 02b8 181081E2 		add	r1, r1, #24
 1719 02bc 0D00A0E1 		mov	r0, sp
 1720 02c0 FEFFFFEB 		bl	memcpy
 1721              	.LVL182:
 1722 02c4 0F0095E8 		ldm	r5, {r0, r1, r2, r3}
 1723 02c8 FEFFFFEB 		bl	setup_sensor_array.isra.1
 1724              	.LVL183:
 1725 02cc 7440AFE6 		sxtb	r4, r4
 1726 02d0 000084E1 		orr	r0, r4, r0
 1727 02d4 7000AFE6 		sxtb	r0, r0
 1728              	.LVL184:
 1729              	.L98:
 1730              		.loc 3 78 0
 1731 02d8 41DD8DE2 		add	sp, sp, #4160
 1732 02dc 38D08DE2 		add	sp, sp, #56
 1733              		.cfi_def_cfa_offset 48
 1734              		@ sp needed
 1735 02e0 F047BDE8 		pop	{r4, r5, r6, r7, r8, r9, r10, lr}
 1736              		.cfi_restore 14
 1737              		.cfi_restore 10
 1738              		.cfi_restore 9
 1739              		.cfi_restore 8
 1740              		.cfi_restore 7
 1741              		.cfi_restore 6
 1742              		.cfi_restore 5
 1743              		.cfi_restore 4
 1744              		.cfi_def_cfa_offset 16
 1745 02e4 10D08DE2 		add	sp, sp, #16
 1746              		.cfi_def_cfa_offset 0
 1747 02e8 1EFF2FE1 		bx	lr
 1748              		.cfi_endproc
 1749              	.LFE42:
 1750              		.size	setup_sensors.constprop.3, .-setup_sensors.constprop.3
 1751              		.section	.text.update_refresh_rate,"ax",%progbits
 1752              		.align	2
 1753              		.global	update_refresh_rate
 1754              		.syntax unified
 1755              		.arm
 1756              		.fpu softvfp
 1757              		.type	update_refresh_rate, %function
 1758              	update_refresh_rate:
 1759              	.LFB29:
 1760              		.loc 3 202 0
 1761              		.cfi_startproc
 1762              		@ args = 0, pretend = 0, frame = 0
 1763              		@ frame_needed = 0, uses_anonymous_args = 0
 1764              		@ link register save eliminated.
 1765              	.LVL185:
 1766              		.loc 3 203 0
 1767 0000 38309FE5 		ldr	r3, .L105
ARM GAS  /var/folders/3j/4xdnk5197cv_b7cw3n33qk7r0000gn/T//ccxkT2Pi.s 			page 32


 1768 0004 030050E1 		cmp	r0, r3
 1769 0008 0800008A 		bhi	.L102
 1770              	.LVL186:
 1771              	.LBB96:
 1772              	.LBB97:
 1773              		.loc 3 205 0
 1774 000c 960F50E3 		cmp	r0, #600
 1775 0010 0400008A 		bhi	.L103
 1776              		.loc 3 207 0
 1777 0014 28309FE5 		ldr	r3, .L105+4
 1778 0018 030050E1 		cmp	r0, r3
 1779 001c 0500008A 		bhi	.L104
 1780              		.loc 3 209 0
 1781 0020 20009FE5 		ldr	r0, .L105+8
 1782              	.LVL187:
 1783 0024 1EFF2FE1 		bx	lr
 1784              	.LVL188:
 1785              	.L103:
 1786              		.loc 3 206 0
 1787 0028 FD05A0E3 		mov	r0, #1061158912
 1788              	.LVL189:
 1789 002c 1EFF2FE1 		bx	lr
 1790              	.LVL190:
 1791              	.L102:
 1792              	.LBE97:
 1793              	.LBE96:
 1794              		.loc 3 204 0
 1795 0030 FE05A0E3 		mov	r0, #1065353216
 1796              	.LVL191:
 1797 0034 1EFF2FE1 		bx	lr
 1798              	.LVL192:
 1799              	.L104:
 1800              	.LBB99:
 1801              	.LBB98:
 1802              		.loc 3 208 0
 1803 0038 3F04A0E3 		mov	r0, #1056964608
 1804              	.LVL193:
 1805              	.LBE98:
 1806              	.LBE99:
 1807              		.loc 3 210 0
 1808 003c 1EFF2FE1 		bx	lr
 1809              	.L106:
 1810              		.align	2
 1811              	.L105:
 1812 0040 92030000 		.word	914
 1813 0044 C9010000 		.word	457
 1814 0048 CDCC4C3E 		.word	1045220557
 1815              		.cfi_endproc
 1816              	.LFE29:
 1817              		.size	update_refresh_rate, .-update_refresh_rate
 1818              		.section	.text.blink,"ax",%progbits
 1819              		.align	2
 1820              		.global	blink
 1821              		.syntax unified
 1822              		.arm
 1823              		.fpu softvfp
 1824              		.type	blink, %function
ARM GAS  /var/folders/3j/4xdnk5197cv_b7cw3n33qk7r0000gn/T//ccxkT2Pi.s 			page 33


 1825              	blink:
 1826              	.LFB31:
 1827              		.file 4 "src/error_check.h"
 1828              		.loc 4 16 0
 1829              		.cfi_startproc
 1830              		@ args = 0, pretend = 0, frame = 0
 1831              		@ frame_needed = 0, uses_anonymous_args = 0
 1832              	.LVL194:
 1833 0000 F0472DE9 		push	{r4, r5, r6, r7, r8, r9, r10, lr}
 1834              		.cfi_def_cfa_offset 32
 1835              		.cfi_offset 4, -32
 1836              		.cfi_offset 5, -28
 1837              		.cfi_offset 6, -24
 1838              		.cfi_offset 7, -20
 1839              		.cfi_offset 8, -16
 1840              		.cfi_offset 9, -12
 1841              		.cfi_offset 10, -8
 1842              		.cfi_offset 14, -4
 1843              	.LBB100:
 1844              		.loc 4 17 0
 1845 0004 007050E2 		subs	r7, r0, #0
 1846 0008 2D0000DA 		ble	.L108
 1847 000c 0280A0E1 		mov	r8, r2
 1848 0010 0150A0E1 		mov	r5, r1
 1849 0014 0040A0E3 		mov	r4, #0
 1850              		.loc 4 19 0
 1851 0018 B0909FE5 		ldr	r9, .L124
 1852              		.loc 4 22 0
 1853 001c B0609FE5 		ldr	r6, .L124+4
 1854 0020 0A0000EA 		b	.L112
 1855              	.LVL195:
 1856              	.L109:
 1857              		.loc 4 20 0
 1858 0024 000058E3 		cmp	r8, #0
 1859 0028 1000001A 		bne	.L122
 1860              	.L110:
 1861              		.loc 4 22 0
 1862 002c 0600A0E1 		mov	r0, r6
 1863 0030 FEFFFFEB 		bl	halPolledDelay
 1864              	.LVL196:
 1865              		.loc 4 25 0
 1866 0034 000055E3 		cmp	r5, #0
 1867              		.loc 4 17 0
 1868 0038 014084E2 		add	r4, r4, #1
 1869              	.LVL197:
 1870              		.loc 4 25 0
 1871 003c 1800001A 		bne	.L123
 1872              	.LVL198:
 1873              	.L111:
 1874              		.loc 4 27 0 discriminator 2
 1875 0040 0600A0E1 		mov	r0, r6
 1876 0044 FEFFFFEB 		bl	halPolledDelay
 1877              	.LVL199:
 1878              		.loc 4 17 0 discriminator 2
 1879 0048 040057E1 		cmp	r7, r4
 1880 004c 1C00000A 		beq	.L108
 1881              	.LVL200:
ARM GAS  /var/folders/3j/4xdnk5197cv_b7cw3n33qk7r0000gn/T//ccxkT2Pi.s 			page 34


 1882              	.L112:
 1883              		.loc 4 18 0
 1884 0050 000055E3 		cmp	r5, #0
 1885 0054 F2FFFF0A 		beq	.L109
 1886              		.loc 4 19 0
 1887 0058 001099E5 		ldr	r1, [r9]
 1888 005c 6C009FE5 		ldr	r0, .L124
 1889 0060 011881E3 		orr	r1, r1, #65536
 1890 0064 FEFFFFEB 		bl	_pal_lld_writeport
 1891              	.LVL201:
 1892              		.loc 4 20 0
 1893 0068 000058E3 		cmp	r8, #0
 1894 006c EEFFFF0A 		beq	.L110
 1895              	.L122:
 1896              		.loc 4 21 0
 1897 0070 001099E5 		ldr	r1, [r9]
 1898 0074 54009FE5 		ldr	r0, .L124
 1899 0078 011A81E3 		orr	r1, r1, #4096
 1900 007c FEFFFFEB 		bl	_pal_lld_writeport
 1901              	.LVL202:
 1902              		.loc 4 22 0
 1903 0080 0600A0E1 		mov	r0, r6
 1904 0084 FEFFFFEB 		bl	halPolledDelay
 1905              	.LVL203:
 1906              		.loc 4 24 0
 1907 0088 001099E5 		ldr	r1, [r9]
 1908 008c 3C009FE5 		ldr	r0, .L124
 1909 0090 011AC1E3 		bic	r1, r1, #4096
 1910 0094 FEFFFFEB 		bl	_pal_lld_writeport
 1911              	.LVL204:
 1912              		.loc 4 25 0
 1913 0098 000055E3 		cmp	r5, #0
 1914              		.loc 4 17 0
 1915 009c 014084E2 		add	r4, r4, #1
 1916              	.LVL205:
 1917              		.loc 4 25 0
 1918 00a0 E6FFFF0A 		beq	.L111
 1919              	.LVL206:
 1920              	.L123:
 1921              		.loc 4 26 0
 1922 00a4 001099E5 		ldr	r1, [r9]
 1923 00a8 20009FE5 		ldr	r0, .L124
 1924 00ac 0118C1E3 		bic	r1, r1, #65536
 1925 00b0 FEFFFFEB 		bl	_pal_lld_writeport
 1926              	.LVL207:
 1927              		.loc 4 27 0
 1928 00b4 0600A0E1 		mov	r0, r6
 1929 00b8 FEFFFFEB 		bl	halPolledDelay
 1930              	.LVL208:
 1931              		.loc 4 17 0
 1932 00bc 040057E1 		cmp	r7, r4
 1933 00c0 E2FFFF1A 		bne	.L112
 1934              	.LVL209:
 1935              	.L108:
 1936              	.LBE100:
 1937              		.loc 4 31 0
 1938 00c4 F047BDE8 		pop	{r4, r5, r6, r7, r8, r9, r10, lr}
ARM GAS  /var/folders/3j/4xdnk5197cv_b7cw3n33qk7r0000gn/T//ccxkT2Pi.s 			page 35


 1939              		.cfi_restore 14
 1940              		.cfi_restore 10
 1941              		.cfi_restore 9
 1942              		.cfi_restore 8
 1943              		.cfi_restore 7
 1944              		.cfi_restore 6
 1945              		.cfi_restore 5
 1946              		.cfi_restore 4
 1947              		.cfi_def_cfa_offset 0
 1948              	.LVL210:
 1949              		.loc 4 29 0
 1950 00c8 08009FE5 		ldr	r0, .L124+8
 1951 00cc FEFFFFEA 		b	halPolledDelay
 1952              	.LVL211:
 1953              	.L125:
 1954              		.align	2
 1955              	.L124:
 1956 00d0 00000000 		.word	IOPORT0
 1957 00d4 20A10700 		.word	500000
 1958 00d8 00350C00 		.word	800000
 1959              		.cfi_endproc
 1960              	.LFE31:
 1961              		.size	blink, .-blink
 1962              		.section	.text.write_to_blink,"ax",%progbits
 1963              		.align	2
 1964              		.global	write_to_blink
 1965              		.syntax unified
 1966              		.arm
 1967              		.fpu softvfp
 1968              		.type	write_to_blink, %function
 1969              	write_to_blink:
 1970              	.LFB30:
 1971              		.loc 4 5 0
 1972              		.cfi_startproc
 1973              		@ args = 0, pretend = 0, frame = 0
 1974              		@ frame_needed = 0, uses_anonymous_args = 0
 1975              	.LVL212:
 1976 0000 70402DE9 		push	{r4, r5, r6, lr}
 1977              		.cfi_def_cfa_offset 16
 1978              		.cfi_offset 4, -16
 1979              		.cfi_offset 5, -12
 1980              		.cfi_offset 6, -8
 1981              		.cfi_offset 14, -4
 1982              		.loc 4 5 0
 1983 0004 0050A0E1 		mov	r5, r0
 1984              	.LBB101:
 1985              		.loc 4 6 0
 1986 0008 0040A0E3 		mov	r4, #0
 1987              	.LVL213:
 1988              	.L129:
 1989              		.loc 4 7 0
 1990 000c 3514A0E1 		lsr	r1, r5, r4
 1991 0010 011011E2 		ands	r1, r1, #1
 1992              	.LBB102:
 1993              		.loc 4 8 0
 1994 0014 0110A013 		movne	r1, #1
 1995              	.LBE102:
ARM GAS  /var/folders/3j/4xdnk5197cv_b7cw3n33qk7r0000gn/T//ccxkT2Pi.s 			page 36


 1996              	.LBB103:
 1997              		.loc 4 10 0
 1998 0018 0120A003 		moveq	r2, #1
 1999              	.LBE103:
 2000              	.LBB104:
 2001              		.loc 4 8 0
 2002 001c 0020A013 		movne	r2, #0
 2003 0020 0100A011 		movne	r0, r1
 2004              	.LBE104:
 2005              	.LBB105:
 2006              		.loc 4 10 0
 2007 0024 0200A001 		moveq	r0, r2
 2008              	.LBE105:
 2009              		.loc 4 6 0
 2010 0028 014084E2 		add	r4, r4, #1
 2011              	.LVL214:
 2012              	.LBB106:
 2013              		.loc 4 10 0
 2014 002c FEFFFFEB 		bl	blink
 2015              	.LVL215:
 2016              	.LBE106:
 2017              		.loc 4 6 0
 2018 0030 200054E3 		cmp	r4, #32
 2019 0034 F4FFFF1A 		bne	.L129
 2020 0038 7080BDE8 		pop	{r4, r5, r6, pc}
 2021              	.LBE101:
 2022              		.cfi_endproc
 2023              	.LFE30:
 2024              		.size	write_to_blink, .-write_to_blink
 2025              		.section	.text.check_error_vl53,"ax",%progbits
 2026              		.align	2
 2027              		.global	check_error_vl53
 2028              		.syntax unified
 2029              		.arm
 2030              		.fpu softvfp
 2031              		.type	check_error_vl53, %function
 2032              	check_error_vl53:
 2033              	.LFB32:
 2034              		.loc 4 34 0
 2035              		.cfi_startproc
 2036              		@ args = 0, pretend = 0, frame = 0
 2037              		@ frame_needed = 0, uses_anonymous_args = 0
 2038              	.LVL216:
 2039              		.loc 4 35 0
 2040 0000 630080E2 		add	r0, r0, #99
 2041              	.LVL217:
 2042              		.loc 4 34 0
 2043 0004 10402DE9 		push	{r4, lr}
 2044              		.cfi_def_cfa_offset 8
 2045              		.cfi_offset 4, -8
 2046              		.cfi_offset 14, -4
 2047              		.loc 4 35 0
 2048 0008 630050E3 		cmp	r0, #99
 2049 000c 00F19F97 		ldrls	pc, [pc, r0, asl #2]
 2050 0010 CB0000EA 		b	.L134
 2051              	.L136:
 2052 0014 E4020000 		.word	.L135
ARM GAS  /var/folders/3j/4xdnk5197cv_b7cw3n33qk7r0000gn/T//ccxkT2Pi.s 			page 37


 2053 0018 44030000 		.word	.L134
 2054 001c 44030000 		.word	.L134
 2055 0020 44030000 		.word	.L134
 2056 0024 44030000 		.word	.L134
 2057 0028 44030000 		.word	.L134
 2058 002c 44030000 		.word	.L134
 2059 0030 44030000 		.word	.L134
 2060 0034 44030000 		.word	.L134
 2061 0038 44030000 		.word	.L134
 2062 003c 44030000 		.word	.L134
 2063 0040 44030000 		.word	.L134
 2064 0044 44030000 		.word	.L134
 2065 0048 44030000 		.word	.L134
 2066 004c 44030000 		.word	.L134
 2067 0050 44030000 		.word	.L134
 2068 0054 44030000 		.word	.L134
 2069 0058 44030000 		.word	.L134
 2070 005c 44030000 		.word	.L134
 2071 0060 44030000 		.word	.L134
 2072 0064 44030000 		.word	.L134
 2073 0068 44030000 		.word	.L134
 2074 006c 44030000 		.word	.L134
 2075 0070 44030000 		.word	.L134
 2076 0074 44030000 		.word	.L134
 2077 0078 44030000 		.word	.L134
 2078 007c 44030000 		.word	.L134
 2079 0080 44030000 		.word	.L134
 2080 0084 44030000 		.word	.L134
 2081 0088 44030000 		.word	.L134
 2082 008c 44030000 		.word	.L134
 2083 0090 44030000 		.word	.L134
 2084 0094 44030000 		.word	.L134
 2085 0098 44030000 		.word	.L134
 2086 009c 44030000 		.word	.L134
 2087 00a0 44030000 		.word	.L134
 2088 00a4 44030000 		.word	.L134
 2089 00a8 44030000 		.word	.L134
 2090 00ac 44030000 		.word	.L134
 2091 00b0 44030000 		.word	.L134
 2092 00b4 44030000 		.word	.L134
 2093 00b8 44030000 		.word	.L134
 2094 00bc 44030000 		.word	.L134
 2095 00c0 44030000 		.word	.L134
 2096 00c4 44030000 		.word	.L134
 2097 00c8 44030000 		.word	.L134
 2098 00cc 44030000 		.word	.L134
 2099 00d0 44030000 		.word	.L134
 2100 00d4 44030000 		.word	.L134
 2101 00d8 04030000 		.word	.L137
 2102 00dc 44030000 		.word	.L134
 2103 00e0 44030000 		.word	.L134
 2104 00e4 44030000 		.word	.L134
 2105 00e8 44030000 		.word	.L134
 2106 00ec 44030000 		.word	.L134
 2107 00f0 44030000 		.word	.L134
 2108 00f4 44030000 		.word	.L134
 2109 00f8 44030000 		.word	.L134
ARM GAS  /var/folders/3j/4xdnk5197cv_b7cw3n33qk7r0000gn/T//ccxkT2Pi.s 			page 38


 2110 00fc 44030000 		.word	.L134
 2111 0100 24030000 		.word	.L138
 2112 0104 44030000 		.word	.L134
 2113 0108 44030000 		.word	.L134
 2114 010c 44030000 		.word	.L134
 2115 0110 44030000 		.word	.L134
 2116 0114 44030000 		.word	.L134
 2117 0118 44030000 		.word	.L134
 2118 011c 44030000 		.word	.L134
 2119 0120 44030000 		.word	.L134
 2120 0124 44030000 		.word	.L134
 2121 0128 4C020000 		.word	.L139
 2122 012c 44030000 		.word	.L134
 2123 0130 44030000 		.word	.L134
 2124 0134 44030000 		.word	.L134
 2125 0138 44030000 		.word	.L134
 2126 013c 44030000 		.word	.L134
 2127 0140 44030000 		.word	.L134
 2128 0144 44030000 		.word	.L134
 2129 0148 44030000 		.word	.L134
 2130 014c 44030000 		.word	.L134
 2131 0150 C8010000 		.word	.L140
 2132 0154 44030000 		.word	.L134
 2133 0158 44030000 		.word	.L134
 2134 015c 44030000 		.word	.L134
 2135 0160 44030000 		.word	.L134
 2136 0164 44030000 		.word	.L134
 2137 0168 44030000 		.word	.L134
 2138 016c 44030000 		.word	.L134
 2139 0170 EC010000 		.word	.L141
 2140 0174 A4010000 		.word	.L142
 2141 0178 24020000 		.word	.L143
 2142 017c 38020000 		.word	.L144
 2143 0180 D8010000 		.word	.L158
 2144 0184 FC010000 		.word	.L156
 2145 0188 B4010000 		.word	.L155
 2146 018c 10020000 		.word	.L148
 2147 0190 80020000 		.word	.L149
 2148 0194 94020000 		.word	.L150
 2149 0198 A8020000 		.word	.L151
 2150 019c BC020000 		.word	.L152
 2151 01a0 D0020000 		.word	.L153
 2152              	.L142:
 2153              		.loc 4 70 0
 2154 01a4 0120A0E3 		mov	r2, #1
 2155 01a8 0010A0E3 		mov	r1, #0
 2156 01ac 0200A0E1 		mov	r0, r2
 2157              	.L159:
 2158              		.loc 4 104 0
 2159 01b0 FEFFFFEB 		bl	blink
 2160              	.LVL218:
 2161              	.L155:
 2162              		.loc 4 113 0
 2163 01b4 1040BDE8 		pop	{r4, lr}
 2164              		.cfi_remember_state
 2165              		.cfi_restore 14
 2166              		.cfi_restore 4
ARM GAS  /var/folders/3j/4xdnk5197cv_b7cw3n33qk7r0000gn/T//ccxkT2Pi.s 			page 39


 2167              		.cfi_def_cfa_offset 0
 2168              		.loc 4 105 0
 2169 01b8 0120A0E3 		mov	r2, #1
 2170 01bc 0210A0E1 		mov	r1, r2
 2171 01c0 0200A0E1 		mov	r0, r2
 2172 01c4 FEFFFFEA 		b	blink
 2173              	.LVL219:
 2174              	.L140:
 2175              		.cfi_restore_state
 2176              		.loc 4 78 0
 2177 01c8 0120A0E3 		mov	r2, #1
 2178 01cc 0010A0E3 		mov	r1, #0
 2179 01d0 0300A0E3 		mov	r0, #3
 2180 01d4 FEFFFFEB 		bl	blink
 2181              	.LVL220:
 2182              	.L158:
 2183              		.loc 4 113 0
 2184 01d8 1040BDE8 		pop	{r4, lr}
 2185              		.cfi_remember_state
 2186              		.cfi_restore 14
 2187              		.cfi_restore 4
 2188              		.cfi_def_cfa_offset 0
 2189              		.loc 4 79 0
 2190 01dc 0120A0E3 		mov	r2, #1
 2191 01e0 0300A0E3 		mov	r0, #3
 2192 01e4 0210A0E1 		mov	r1, r2
 2193 01e8 FEFFFFEA 		b	blink
 2194              	.LVL221:
 2195              	.L141:
 2196              		.cfi_restore_state
 2197              		.loc 4 74 0
 2198 01ec 0120A0E3 		mov	r2, #1
 2199 01f0 0010A0E3 		mov	r1, #0
 2200 01f4 0200A0E3 		mov	r0, #2
 2201 01f8 FEFFFFEB 		bl	blink
 2202              	.LVL222:
 2203              	.L156:
 2204              		.loc 4 113 0
 2205 01fc 1040BDE8 		pop	{r4, lr}
 2206              		.cfi_remember_state
 2207              		.cfi_restore 14
 2208              		.cfi_restore 4
 2209              		.cfi_def_cfa_offset 0
 2210              		.loc 4 75 0
 2211 0200 0120A0E3 		mov	r2, #1
 2212 0204 0200A0E3 		mov	r0, #2
 2213 0208 0210A0E1 		mov	r1, r2
 2214 020c FEFFFFEA 		b	blink
 2215              	.LVL223:
 2216              	.L148:
 2217              		.cfi_restore_state
 2218              		.loc 4 52 0
 2219 0210 0120A0E3 		mov	r2, #1
 2220              		.loc 4 113 0
 2221 0214 1040BDE8 		pop	{r4, lr}
 2222              		.cfi_remember_state
 2223              		.cfi_restore 14
ARM GAS  /var/folders/3j/4xdnk5197cv_b7cw3n33qk7r0000gn/T//ccxkT2Pi.s 			page 40


 2224              		.cfi_restore 4
 2225              		.cfi_def_cfa_offset 0
 2226              		.loc 4 52 0
 2227 0218 0010A0E3 		mov	r1, #0
 2228 021c 0500A0E3 		mov	r0, #5
 2229 0220 FEFFFFEA 		b	blink
 2230              	.LVL224:
 2231              	.L143:
 2232              		.cfi_restore_state
 2233              		.loc 4 67 0
 2234 0224 0120A0E3 		mov	r2, #1
 2235              		.loc 4 113 0
 2236 0228 1040BDE8 		pop	{r4, lr}
 2237              		.cfi_remember_state
 2238              		.cfi_restore 14
 2239              		.cfi_restore 4
 2240              		.cfi_def_cfa_offset 0
 2241              		.loc 4 67 0
 2242 022c 0500A0E3 		mov	r0, #5
 2243 0230 0210A0E1 		mov	r1, r2
 2244 0234 FEFFFFEA 		b	blink
 2245              	.LVL225:
 2246              	.L144:
 2247              		.cfi_restore_state
 2248              		.loc 4 64 0
 2249 0238 0120A0E3 		mov	r2, #1
 2250              		.loc 4 113 0
 2251 023c 1040BDE8 		pop	{r4, lr}
 2252              		.cfi_remember_state
 2253              		.cfi_restore 14
 2254              		.cfi_restore 4
 2255              		.cfi_def_cfa_offset 0
 2256              		.loc 4 64 0
 2257 0240 0400A0E3 		mov	r0, #4
 2258 0244 0210A0E1 		mov	r1, r2
 2259 0248 FEFFFFEA 		b	blink
 2260              	.LVL226:
 2261              	.L139:
 2262              		.cfi_restore_state
 2263              		.loc 4 82 0
 2264 024c 0120A0E3 		mov	r2, #1
 2265 0250 0210A0E1 		mov	r1, r2
 2266 0254 0200A0E1 		mov	r0, r2
 2267 0258 FEFFFFEB 		bl	blink
 2268              	.LVL227:
 2269              		.loc 4 83 0
 2270 025c 0120A0E3 		mov	r2, #1
 2271 0260 0010A0E3 		mov	r1, #0
 2272 0264 0200A0E1 		mov	r0, r2
 2273              	.L157:
 2274              		.loc 4 98 0
 2275 0268 FEFFFFEB 		bl	blink
 2276              	.LVL228:
 2277              		.loc 4 113 0
 2278 026c 1040BDE8 		pop	{r4, lr}
 2279              		.cfi_remember_state
 2280              		.cfi_restore 14
ARM GAS  /var/folders/3j/4xdnk5197cv_b7cw3n33qk7r0000gn/T//ccxkT2Pi.s 			page 41


 2281              		.cfi_restore 4
 2282              		.cfi_def_cfa_offset 0
 2283              		.loc 4 99 0
 2284 0270 0110A0E3 		mov	r1, #1
 2285 0274 0020A0E3 		mov	r2, #0
 2286 0278 0100A0E1 		mov	r0, r1
 2287 027c FEFFFFEA 		b	blink
 2288              	.LVL229:
 2289              	.L149:
 2290              		.cfi_restore_state
 2291              		.loc 4 49 0
 2292 0280 0120A0E3 		mov	r2, #1
 2293              		.loc 4 113 0
 2294 0284 1040BDE8 		pop	{r4, lr}
 2295              		.cfi_remember_state
 2296              		.cfi_restore 14
 2297              		.cfi_restore 4
 2298              		.cfi_def_cfa_offset 0
 2299              		.loc 4 49 0
 2300 0288 0010A0E3 		mov	r1, #0
 2301 028c 0400A0E3 		mov	r0, #4
 2302 0290 FEFFFFEA 		b	blink
 2303              	.LVL230:
 2304              	.L150:
 2305              		.cfi_restore_state
 2306              		.loc 4 46 0
 2307 0294 0120A0E3 		mov	r2, #1
 2308              		.loc 4 113 0
 2309 0298 1040BDE8 		pop	{r4, lr}
 2310              		.cfi_remember_state
 2311              		.cfi_restore 14
 2312              		.cfi_restore 4
 2313              		.cfi_def_cfa_offset 0
 2314              		.loc 4 46 0
 2315 029c 0010A0E3 		mov	r1, #0
 2316 02a0 0300A0E3 		mov	r0, #3
 2317 02a4 FEFFFFEA 		b	blink
 2318              	.LVL231:
 2319              	.L151:
 2320              		.cfi_restore_state
 2321              		.loc 4 43 0
 2322 02a8 0120A0E3 		mov	r2, #1
 2323              		.loc 4 113 0
 2324 02ac 1040BDE8 		pop	{r4, lr}
 2325              		.cfi_remember_state
 2326              		.cfi_restore 14
 2327              		.cfi_restore 4
 2328              		.cfi_def_cfa_offset 0
 2329              		.loc 4 43 0
 2330 02b0 0010A0E3 		mov	r1, #0
 2331 02b4 0200A0E3 		mov	r0, #2
 2332 02b8 FEFFFFEA 		b	blink
 2333              	.LVL232:
 2334              	.L152:
 2335              		.cfi_restore_state
 2336              		.loc 4 40 0
 2337 02bc 0120A0E3 		mov	r2, #1
ARM GAS  /var/folders/3j/4xdnk5197cv_b7cw3n33qk7r0000gn/T//ccxkT2Pi.s 			page 42


 2338              		.loc 4 113 0
 2339 02c0 1040BDE8 		pop	{r4, lr}
 2340              		.cfi_remember_state
 2341              		.cfi_restore 14
 2342              		.cfi_restore 4
 2343              		.cfi_def_cfa_offset 0
 2344              		.loc 4 40 0
 2345 02c4 0010A0E3 		mov	r1, #0
 2346 02c8 0200A0E1 		mov	r0, r2
 2347 02cc FEFFFFEA 		b	blink
 2348              	.LVL233:
 2349              	.L153:
 2350              		.cfi_restore_state
 2351              		.loc 4 37 0
 2352 02d0 0020A0E3 		mov	r2, #0
 2353              		.loc 4 113 0
 2354 02d4 1040BDE8 		pop	{r4, lr}
 2355              		.cfi_remember_state
 2356              		.cfi_restore 14
 2357              		.cfi_restore 4
 2358              		.cfi_def_cfa_offset 0
 2359              		.loc 4 37 0
 2360 02d8 0110A0E3 		mov	r1, #1
 2361 02dc 0200A0E3 		mov	r0, #2
 2362 02e0 FEFFFFEA 		b	blink
 2363              	.LVL234:
 2364              	.L135:
 2365              		.cfi_restore_state
 2366              		.loc 4 97 0
 2367 02e4 0120A0E3 		mov	r2, #1
 2368 02e8 0210A0E1 		mov	r1, r2
 2369 02ec 0200A0E1 		mov	r0, r2
 2370 02f0 FEFFFFEB 		bl	blink
 2371              	.LVL235:
 2372              		.loc 4 98 0
 2373 02f4 0120A0E3 		mov	r2, #1
 2374 02f8 0010A0E3 		mov	r1, #0
 2375 02fc 0400A0E3 		mov	r0, #4
 2376 0300 D8FFFFEA 		b	.L157
 2377              	.L137:
 2378              		.loc 4 92 0
 2379 0304 0120A0E3 		mov	r2, #1
 2380 0308 0210A0E1 		mov	r1, r2
 2381 030c 0200A0E1 		mov	r0, r2
 2382 0310 FEFFFFEB 		bl	blink
 2383              	.LVL236:
 2384              		.loc 4 93 0
 2385 0314 0120A0E3 		mov	r2, #1
 2386 0318 0010A0E3 		mov	r1, #0
 2387 031c 0300A0E3 		mov	r0, #3
 2388 0320 D0FFFFEA 		b	.L157
 2389              	.L138:
 2390              		.loc 4 87 0
 2391 0324 0120A0E3 		mov	r2, #1
 2392 0328 0210A0E1 		mov	r1, r2
 2393 032c 0200A0E1 		mov	r0, r2
 2394 0330 FEFFFFEB 		bl	blink
ARM GAS  /var/folders/3j/4xdnk5197cv_b7cw3n33qk7r0000gn/T//ccxkT2Pi.s 			page 43


 2395              	.LVL237:
 2396              		.loc 4 88 0
 2397 0334 0120A0E3 		mov	r2, #1
 2398 0338 0010A0E3 		mov	r1, #0
 2399 033c 0200A0E3 		mov	r0, #2
 2400 0340 C8FFFFEA 		b	.L157
 2401              	.L134:
 2402              		.loc 4 102 0
 2403 0344 0120A0E3 		mov	r2, #1
 2404 0348 0210A0E1 		mov	r1, r2
 2405 034c 0200A0E1 		mov	r0, r2
 2406 0350 FEFFFFEB 		bl	blink
 2407              	.LVL238:
 2408              		.loc 4 103 0
 2409 0354 0120A0E3 		mov	r2, #1
 2410 0358 0010A0E3 		mov	r1, #0
 2411 035c 0200A0E1 		mov	r0, r2
 2412 0360 FEFFFFEB 		bl	blink
 2413              	.LVL239:
 2414              		.loc 4 104 0
 2415 0364 0110A0E3 		mov	r1, #1
 2416 0368 0020A0E3 		mov	r2, #0
 2417 036c 0100A0E1 		mov	r0, r1
 2418 0370 8EFFFFEA 		b	.L159
 2419              		.cfi_endproc
 2420              	.LFE32:
 2421              		.size	check_error_vl53, .-check_error_vl53
 2422              		.section	.text.check_error,"ax",%progbits
 2423              		.align	2
 2424              		.global	check_error
 2425              		.syntax unified
 2426              		.arm
 2427              		.fpu softvfp
 2428              		.type	check_error, %function
 2429              	check_error:
 2430              	.LFB33:
 2431              		.loc 4 115 0
 2432              		.cfi_startproc
 2433              		@ args = 0, pretend = 0, frame = 0
 2434              		@ frame_needed = 0, uses_anonymous_args = 0
 2435              	.LVL240:
 2436 0000 10402DE9 		push	{r4, lr}
 2437              		.cfi_def_cfa_offset 8
 2438              		.cfi_offset 4, -8
 2439              		.cfi_offset 14, -4
 2440 0004 48409FE5 		ldr	r4, .L164
 2441              		.loc 4 121 0
 2442 0008 000050E3 		cmp	r0, #0
 2443 000c 001094E5 		ldr	r1, [r4]
 2444 0010 0700001A 		bne	.L163
 2445              		.loc 4 126 0
 2446 0014 0400A0E1 		mov	r0, r4
 2447              	.LVL241:
 2448 0018 0118C1E3 		bic	r1, r1, #65536
 2449 001c FEFFFFEB 		bl	_pal_lld_writeport
 2450              	.LVL242:
 2451              		.loc 4 127 0
ARM GAS  /var/folders/3j/4xdnk5197cv_b7cw3n33qk7r0000gn/T//ccxkT2Pi.s 			page 44


 2452 0020 001094E5 		ldr	r1, [r4]
 2453 0024 0400A0E1 		mov	r0, r4
 2454              		.loc 4 129 0
 2455 0028 1040BDE8 		pop	{r4, lr}
 2456              		.cfi_remember_state
 2457              		.cfi_restore 14
 2458              		.cfi_restore 4
 2459              		.cfi_def_cfa_offset 0
 2460              		.loc 4 127 0
 2461 002c 011A81E3 		orr	r1, r1, #4096
 2462 0030 FEFFFFEA 		b	_pal_lld_writeport
 2463              	.LVL243:
 2464              	.L163:
 2465              		.cfi_restore_state
 2466              		.loc 4 122 0
 2467 0034 0400A0E1 		mov	r0, r4
 2468              	.LVL244:
 2469 0038 011881E3 		orr	r1, r1, #65536
 2470 003c FEFFFFEB 		bl	_pal_lld_writeport
 2471              	.LVL245:
 2472              		.loc 4 123 0
 2473 0040 001094E5 		ldr	r1, [r4]
 2474 0044 0400A0E1 		mov	r0, r4
 2475              		.loc 4 129 0
 2476 0048 1040BDE8 		pop	{r4, lr}
 2477              		.cfi_restore 14
 2478              		.cfi_restore 4
 2479              		.cfi_def_cfa_offset 0
 2480              		.loc 4 123 0
 2481 004c 011AC1E3 		bic	r1, r1, #4096
 2482 0050 FEFFFFEA 		b	_pal_lld_writeport
 2483              	.LVL246:
 2484              	.L165:
 2485              		.align	2
 2486              	.L164:
 2487 0054 00000000 		.word	IOPORT0
 2488              		.cfi_endproc
 2489              	.LFE33:
 2490              		.size	check_error, .-check_error
 2491              		.section	.text.startup.main,"ax",%progbits
 2492              		.align	2
 2493              		.global	main
 2494              		.syntax unified
 2495              		.arm
 2496              		.fpu softvfp
 2497              		.type	main, %function
 2498              	main:
 2499              	.LFB35:
 2500              		.loc 1 138 0
 2501              		.cfi_startproc
 2502              		@ args = 0, pretend = 0, frame = 56
 2503              		@ frame_needed = 0, uses_anonymous_args = 0
 2504 0000 70402DE9 		push	{r4, r5, r6, lr}
 2505              		.cfi_def_cfa_offset 16
 2506              		.cfi_offset 4, -16
 2507              		.cfi_offset 5, -12
 2508              		.cfi_offset 6, -8
ARM GAS  /var/folders/3j/4xdnk5197cv_b7cw3n33qk7r0000gn/T//ccxkT2Pi.s 			page 45


 2509              		.cfi_offset 14, -4
 2510              		.loc 1 171 0
 2511 0004 0F60A0E3 		mov	r6, #15
 2512              		.loc 1 138 0
 2513 0008 D6DE4DE2 		sub	sp, sp, #3424
 2514              		.cfi_def_cfa_offset 3440
 2515              		.loc 1 145 0
 2516 000c C8419FE5 		ldr	r4, .L168
 2517              		.loc 1 138 0
 2518 0010 08D04DE2 		sub	sp, sp, #8
 2519              		.cfi_def_cfa_offset 3448
 2520              		.loc 1 139 0
 2521 0014 FEFFFFEB 		bl	halInit
 2522              	.LVL247:
 2523              		.loc 1 140 0
 2524 0018 FEFFFFEB 		bl	chSysInit
 2525              	.LVL248:
 2526              		.loc 1 145 0
 2527 001c 0400A0E1 		mov	r0, r4
 2528 0020 0010A0E3 		mov	r1, #0
 2529 0024 FEFFFFEB 		bl	sdStart
 2530              	.LVL249:
 2531              		.loc 1 146 0
 2532 0028 0400A0E1 		mov	r0, r4
 2533 002c AC119FE5 		ldr	r1, .L168+4
 2534 0030 FEFFFFEB 		bl	chprintf
 2535              	.LVL250:
 2536              		.loc 1 151 0
 2537 0034 FEFFFFEB 		bl	shellInit
 2538              	.LVL251:
 2539              		.loc 1 152 0
 2540 0038 4120A0E3 		mov	r2, #65
 2541 003c A0119FE5 		ldr	r1, .L168+8
 2542 0040 A0019FE5 		ldr	r0, .L168+12
 2543 0044 FEFFFFEB 		bl	shellCreate
 2544              	.LVL252:
 2545              		.loc 1 168 0
 2546 0048 9C419FE5 		ldr	r4, .L168+16
 2547 004c D3EE8DE2 		add	lr, sp, #3376
 2548 0050 04E08EE2 		add	lr, lr, #4
 2549 0054 0F00B4E8 		ldmia	r4!, {r0, r1, r2, r3}
 2550 0058 0F00AEE8 		stmia	lr!, {r0, r1, r2, r3}
 2551 005c 030094E8 		ldm	r4, {r0, r1}
 2552              		.loc 1 171 0
 2553 0060 88519FE5 		ldr	r5, .L168+20
 2554 0064 D6CE8DE2 		add	ip, sp, #3424
 2555 0068 08C08CE2 		add	ip, ip, #8
 2556 006c 38602CE5 		str	r6, [ip, #-56]!
 2557 0070 314E85E2 		add	r4, r5, #784
 2558              		.loc 1 168 0
 2559 0074 03008EE8 		stm	lr, {r0, r1}
 2560              		.loc 1 171 0
 2561 0078 0F00BCE8 		ldmia	ip!, {r0, r1, r2, r3}
 2562 007c 0F00A4E8 		stmia	r4!, {r0, r1, r2, r3}
 2563 0080 0F00BCE8 		ldmia	ip!, {r0, r1, r2, r3}
 2564 0084 0F00A4E8 		stmia	r4!, {r0, r1, r2, r3}
 2565 0088 0F00BCE8 		ldmia	ip!, {r0, r1, r2, r3}
ARM GAS  /var/folders/3j/4xdnk5197cv_b7cw3n33qk7r0000gn/T//ccxkT2Pi.s 			page 46


 2566 008c 0F00A4E8 		stmia	r4!, {r0, r1, r2, r3}
 2567 0090 03009CE8 		ldm	ip, {r0, r1}
 2568              		.loc 1 173 0
 2569 0094 FE65A0E3 		mov	r6, #1065353216
 2570              		.loc 1 172 0
 2571 0098 66EE85E2 		add	lr, r5, #1632
 2572 009c D3CE8DE2 		add	ip, sp, #3376
 2573              		.loc 1 171 0
 2574 00a0 030084E8 		stm	r4, {r0, r1}
 2575              		.loc 1 172 0
 2576 00a4 0F00BCE8 		ldmia	ip!, {r0, r1, r2, r3}
 2577 00a8 0F00AEE8 		stmia	lr!, {r0, r1, r2, r3}
 2578 00ac 0F00BCE8 		ldmia	ip!, {r0, r1, r2, r3}
 2579 00b0 0F00AEE8 		stmia	lr!, {r0, r1, r2, r3}
 2580 00b4 0F00BCE8 		ldmia	ip!, {r0, r1, r2, r3}
 2581 00b8 0F00AEE8 		stmia	lr!, {r0, r1, r2, r3}
 2582 00bc 03009CE8 		ldm	ip, {r0, r1}
 2583              		.loc 1 176 0
 2584 00c0 9B4E85E2 		add	r4, r5, #2480
 2585 00c4 D3CE8DE2 		add	ip, sp, #3376
 2586              		.loc 1 172 0
 2587 00c8 03008EE8 		stm	lr, {r0, r1}
 2588              		.loc 1 176 0
 2589 00cc 0F00BCE8 		ldmia	ip!, {r0, r1, r2, r3}
 2590 00d0 0F00A4E8 		stmia	r4!, {r0, r1, r2, r3}
 2591 00d4 0F00BCE8 		ldmia	ip!, {r0, r1, r2, r3}
 2592 00d8 0F00A4E8 		stmia	r4!, {r0, r1, r2, r3}
 2593 00dc 0F00BCE8 		ldmia	ip!, {r0, r1, r2, r3}
 2594 00e0 0F00A4E8 		stmia	r4!, {r0, r1, r2, r3}
 2595 00e4 03009CE8 		ldm	ip, {r0, r1}
 2596              		.loc 1 177 0
 2597 00e8 D3EE8DE2 		add	lr, sp, #3376
 2598 00ec 0DCC85E2 		add	ip, r5, #3328
 2599              		.loc 1 173 0
 2600 00f0 486385E5 		str	r6, [r5, #840]	@ float
 2601              		.loc 1 174 0
 2602 00f4 986685E5 		str	r6, [r5, #1688]	@ float
 2603              		.loc 1 176 0
 2604 00f8 030084E8 		stm	r4, {r0, r1}
 2605              		.loc 1 177 0
 2606 00fc 0F00BEE8 		ldmia	lr!, {r0, r1, r2, r3}
 2607 0100 0F00ACE8 		stmia	ip!, {r0, r1, r2, r3}
 2608 0104 0F00BEE8 		ldmia	lr!, {r0, r1, r2, r3}
 2609 0108 0F00ACE8 		stmia	ip!, {r0, r1, r2, r3}
 2610 010c 0F00BEE8 		ldmia	lr!, {r0, r1, r2, r3}
 2611 0110 0F00ACE8 		stmia	ip!, {r0, r1, r2, r3}
 2612 0114 03009EE8 		ldm	lr, {r0, r1}
 2613              		.loc 1 194 0
 2614 0118 D4409FE5 		ldr	r4, .L168+24
 2615              		.loc 1 177 0
 2616 011c 03008CE8 		stm	ip, {r0, r1}
 2617              		.loc 1 181 0
 2618 0120 D32EA0E3 		mov	r2, #3376
 2619 0124 101085E2 		add	r1, r5, #16
 2620 0128 0D00A0E1 		mov	r0, sp
 2621              		.loc 1 178 0
 2622 012c E86985E5 		str	r6, [r5, #2536]	@ float
ARM GAS  /var/folders/3j/4xdnk5197cv_b7cw3n33qk7r0000gn/T//ccxkT2Pi.s 			page 47


 2623              		.loc 1 179 0
 2624 0130 386D85E5 		str	r6, [r5, #3384]	@ float
 2625              		.loc 1 181 0
 2626 0134 FEFFFFEB 		bl	memcpy
 2627              	.LVL253:
 2628 0138 0F0095E8 		ldm	r5, {r0, r1, r2, r3}
 2629 013c FEFFFFEB 		bl	setup_sensors.constprop.3
 2630              	.LVL254:
 2631              		.loc 1 194 0
 2632 0140 0430A0E1 		mov	r3, r4
 2633 0144 00508DE5 		str	r5, [sp]
 2634 0148 4020A0E3 		mov	r2, #64
 2635 014c 461FA0E3 		mov	r1, #280
 2636 0150 A0009FE5 		ldr	r0, .L168+28
 2637 0154 FEFFFFEB 		bl	chThdCreateStatic
 2638              	.LVL255:
 2639              		.loc 1 195 0
 2640 0158 353E85E2 		add	r3, r5, #848
 2641 015c 00308DE5 		str	r3, [sp]
 2642              		.loc 1 197 0
 2643 0160 6A6E85E2 		add	r6, r5, #1696
 2644              		.loc 1 195 0
 2645 0164 0430A0E1 		mov	r3, r4
 2646 0168 4020A0E3 		mov	r2, #64
 2647 016c 461FA0E3 		mov	r1, #280
 2648 0170 84009FE5 		ldr	r0, .L168+32
 2649 0174 FEFFFFEB 		bl	chThdCreateStatic
 2650              	.LVL256:
 2651              		.loc 1 197 0
 2652 0178 0430A0E1 		mov	r3, r4
 2653 017c 00608DE5 		str	r6, [sp]
 2654 0180 4020A0E3 		mov	r2, #64
 2655 0184 461FA0E3 		mov	r1, #280
 2656 0188 70009FE5 		ldr	r0, .L168+36
 2657 018c FEFFFFEB 		bl	chThdCreateStatic
 2658              	.LVL257:
 2659              		.loc 1 198 0
 2660 0190 0430A0E1 		mov	r3, r4
 2661 0194 00608DE5 		str	r6, [sp]
 2662 0198 4020A0E3 		mov	r2, #64
 2663 019c 461FA0E3 		mov	r1, #280
 2664 01a0 5C009FE5 		ldr	r0, .L168+40
 2665 01a4 FEFFFFEB 		bl	chThdCreateStatic
 2666              	.LVL258:
 2667              		.loc 1 200 0
 2668 01a8 4020A0E3 		mov	r2, #64
 2669 01ac 461FA0E3 		mov	r1, #280
 2670 01b0 00508DE5 		str	r5, [sp]
 2671 01b4 4C309FE5 		ldr	r3, .L168+44
 2672 01b8 4C009FE5 		ldr	r0, .L168+48
 2673 01bc FEFFFFEB 		bl	chThdCreateStatic
 2674              	.LVL259:
 2675              		.loc 1 204 0
 2676 01c0 48309FE5 		ldr	r3, .L168+52
 2677 01c4 180093E5 		ldr	r0, [r3, #24]
 2678 01c8 FEFFFFEB 		bl	chThdWait
 2679              	.LVL260:
ARM GAS  /var/folders/3j/4xdnk5197cv_b7cw3n33qk7r0000gn/T//ccxkT2Pi.s 			page 48


 2680              		.loc 1 207 0
 2681 01cc 0000A0E3 		mov	r0, #0
 2682 01d0 D6DE8DE2 		add	sp, sp, #3424
 2683 01d4 08D08DE2 		add	sp, sp, #8
 2684              		.cfi_def_cfa_offset 16
 2685              		@ sp needed
 2686 01d8 7080BDE8 		pop	{r4, r5, r6, pc}
 2687              	.L169:
 2688              		.align	2
 2689              	.L168:
 2690 01dc 00000000 		.word	SD1
 2691 01e0 00000000 		.word	.LC3
 2692 01e4 98100000 		.word	4248
 2693 01e8 00000000 		.word	.LANCHOR1
 2694 01ec 00000000 		.word	IOPORT0
 2695 01f0 00000000 		.word	system
 2696 01f4 00000000 		.word	Thread_Sensor
 2697 01f8 00000000 		.word	.LANCHOR2
 2698 01fc 00000000 		.word	.LANCHOR3
 2699 0200 00000000 		.word	.LANCHOR4
 2700 0204 00000000 		.word	.LANCHOR5
 2701 0208 00000000 		.word	Thread_Diplsay
 2702 020c 00000000 		.word	.LANCHOR6
 2703 0210 00000000 		.word	rlist
 2704              		.cfi_endproc
 2705              	.LFE35:
 2706              		.size	main, .-main
 2707              		.global	__aeabi_fcmpgt
 2708              		.section	.text.min,"ax",%progbits
 2709              		.align	2
 2710              		.global	min
 2711              		.syntax unified
 2712              		.arm
 2713              		.fpu softvfp
 2714              		.type	min, %function
 2715              	min:
 2716              	.LFB38:
 2717              		.loc 1 235 0
 2718              		.cfi_startproc
 2719              		@ args = 0, pretend = 0, frame = 0
 2720              		@ frame_needed = 0, uses_anonymous_args = 0
 2721              	.LVL261:
 2722 0000 70402DE9 		push	{r4, r5, r6, lr}
 2723              		.cfi_def_cfa_offset 16
 2724              		.cfi_offset 4, -16
 2725              		.cfi_offset 5, -12
 2726              		.cfi_offset 6, -8
 2727              		.cfi_offset 14, -4
 2728              		.loc 1 235 0
 2729 0004 0040A0E1 		mov	r4, r0
 2730 0008 0150A0E1 		mov	r5, r1
 2731              		.loc 1 236 0
 2732 000c FEFFFFEB 		bl	__aeabi_fcmpgt
 2733              	.LVL262:
 2734 0010 000050E3 		cmp	r0, #0
 2735              		.loc 1 238 0
 2736 0014 0400A001 		moveq	r0, r4
ARM GAS  /var/folders/3j/4xdnk5197cv_b7cw3n33qk7r0000gn/T//ccxkT2Pi.s 			page 49


 2737              		.loc 1 237 0
 2738 0018 0500A011 		movne	r0, r5
 2739              		.loc 1 239 0
 2740 001c 7080BDE8 		pop	{r4, r5, r6, pc}
 2741              		.cfi_endproc
 2742              	.LFE38:
 2743              		.size	min, .-min
 2744              		.global	system_failure_status
 2745              		.comm	system,3392,8
 2746              		.section	.bss.system_failure_status,"aw",%nobits
 2747              		.set	.LANCHOR0,. + 0
 2748              		.type	system_failure_status, %object
 2749              		.size	system_failure_status, 1
 2750              	system_failure_status:
 2751 0000 00       		.space	1
 2752              		.section	.bss.waThread_display,"aw",%nobits
 2753              		.align	2
 2754              		.set	.LANCHOR6,. + 0
 2755              		.type	waThread_display, %object
 2756              		.size	waThread_display, 280
 2757              	waThread_display:
 2758 0000 00000000 		.space	280
 2758      00000000 
 2758      00000000 
 2758      00000000 
 2758      00000000 
 2759              		.section	.bss.waThread_front_driver,"aw",%nobits
 2760              		.align	2
 2761              		.set	.LANCHOR2,. + 0
 2762              		.type	waThread_front_driver, %object
 2763              		.size	waThread_front_driver, 280
 2764              	waThread_front_driver:
 2765 0000 00000000 		.space	280
 2765      00000000 
 2765      00000000 
 2765      00000000 
 2765      00000000 
 2766              		.section	.bss.waThread_front_passenger,"aw",%nobits
 2767              		.align	2
 2768              		.set	.LANCHOR3,. + 0
 2769              		.type	waThread_front_passenger, %object
 2770              		.size	waThread_front_passenger, 280
 2771              	waThread_front_passenger:
 2772 0000 00000000 		.space	280
 2772      00000000 
 2772      00000000 
 2772      00000000 
 2772      00000000 
 2773              		.section	.bss.waThread_rear_driver,"aw",%nobits
 2774              		.align	2
 2775              		.set	.LANCHOR4,. + 0
 2776              		.type	waThread_rear_driver, %object
 2777              		.size	waThread_rear_driver, 280
 2778              	waThread_rear_driver:
 2779 0000 00000000 		.space	280
 2779      00000000 
 2779      00000000 
ARM GAS  /var/folders/3j/4xdnk5197cv_b7cw3n33qk7r0000gn/T//ccxkT2Pi.s 			page 50


 2779      00000000 
 2779      00000000 
 2780              		.section	.bss.waThread_rear_passenger,"aw",%nobits
 2781              		.align	2
 2782              		.set	.LANCHOR5,. + 0
 2783              		.type	waThread_rear_passenger, %object
 2784              		.size	waThread_rear_passenger, 280
 2785              	waThread_rear_passenger:
 2786 0000 00000000 		.space	280
 2786      00000000 
 2786      00000000 
 2786      00000000 
 2786      00000000 
 2787              		.section	.rodata.Thread_Diplsay.str1.4,"aMS",%progbits,1
 2788              		.align	2
 2789              	.LC0:
 2790 0000 64697370 		.ascii	"display_update\000"
 2790      6C61795F 
 2790      75706461 
 2790      746500
 2791              		.section	.rodata.Thread_Sensor.str1.4,"aMS",%progbits,1
 2792              		.align	2
 2793              	.LC2:
 2794 0000 73656E73 		.ascii	"sensor_read_in\000"
 2794      6F725F72 
 2794      6561645F 
 2794      696E00
 2795              		.section	.rodata.cmd_reboot.str1.4,"aMS",%progbits,1
 2796              		.align	2
 2797              	.LC1:
 2798 0000 55736167 		.ascii	"Usage: reboot\015\012\000"
 2798      653A2072 
 2798      65626F6F 
 2798      740D0A00 
 2799              		.section	.rodata.commands,"a",%progbits
 2800              		.align	2
 2801              		.type	commands, %object
 2802              		.size	commands, 16
 2803              	commands:
 2804 0000 00000000 		.word	.LC4
 2805 0004 00000000 		.word	cmd_reboot
 2806 0008 00000000 		.word	0
 2807 000c 00000000 		.word	0
 2808              		.section	.rodata.main.str1.4,"aMS",%progbits,1
 2809              		.align	2
 2810              	.LC3:
 2811 0000 4D61696E 		.ascii	"Main (SD1 started)\015\012\000"
 2811      20285344 
 2811      31207374 
 2811      61727465 
 2811      64290D0A 
 2812              		.section	.rodata.shell_config,"a",%progbits
 2813              		.align	2
 2814              		.set	.LANCHOR1,. + 0
 2815              		.type	shell_config, %object
 2816              		.size	shell_config, 8
 2817              	shell_config:
ARM GAS  /var/folders/3j/4xdnk5197cv_b7cw3n33qk7r0000gn/T//ccxkT2Pi.s 			page 51


 2818 0000 00000000 		.word	SD1
 2819 0004 00000000 		.word	commands
 2820              		.section	.rodata.str1.4,"aMS",%progbits,1
 2821              		.align	2
 2822              	.LC4:
 2823 0000 7265626F 		.ascii	"reboot\000"
 2823      6F7400
 2824              		.text
 2825              	.Letext0:
 2826              		.file 5 "/usr/local/Cellar/gcc-arm-none-eabi/20180627/lib/gcc/arm-none-eabi/7.3.1/include/stddef.h
 2827              		.file 6 "/usr/local/Cellar/gcc-arm-none-eabi/20180627/arm-none-eabi/include/machine/_default_types
 2828              		.file 7 "/usr/local/Cellar/gcc-arm-none-eabi/20180627/arm-none-eabi/include/sys/_stdint.h"
 2829              		.file 8 "..//os/ports/GCC/ARM/chtypes.h"
 2830              		.file 9 "..//os/kernel/include/chlists.h"
 2831              		.file 10 "..//os/kernel/include/chthreads.h"
 2832              		.file 11 "..//os/ports/GCC/ARM/chcore.h"
 2833              		.file 12 "..//os/kernel/include/chvt.h"
 2834              		.file 13 "..//os/kernel/include/chschd.h"
 2835              		.file 14 "..//os/kernel/include/chmtx.h"
 2836              		.file 15 "..//os/kernel/include/chevents.h"
 2837              		.file 16 "..//os/kernel/include/chregistry.h"
 2838              		.file 17 "..//os/kernel/include/chqueues.h"
 2839              		.file 18 "..//os/kernel/include/chstreams.h"
 2840              		.file 19 "..//os/kernel/include/ch.h"
 2841              		.file 20 "..//os/hal/platforms/BCM2835/bcm2835.h"
 2842              		.file 21 "..//os/hal/platforms/BCM2835/pal_lld.h"
 2843              		.file 22 "..//os/hal/include/i2c.h"
 2844              		.file 23 "..//os/hal/platforms/BCM2835/i2c_lld.h"
 2845              		.file 24 "..//os/hal/include/serial.h"
 2846              		.file 25 "..//os/hal/include/spi.h"
 2847              		.file 26 "..//os/hal/platforms/BCM2835/spi_lld.h"
 2848              		.file 27 "..//test/test.h"
 2849              		.file 28 "..//os/hal/platforms/BCM2835/serial_lld.h"
 2850              		.file 29 "..//os/various/shell.h"
 2851              		.file 30 "..//VL53L0X_Api/platform/inc/vl53l0x_types.h"
 2852              		.file 31 "..//VL53L0X_Api/core/inc/vl53l0x_device.h"
 2853              		.file 32 "..//VL53L0X_Api/core/inc/vl53l0x_def.h"
 2854              		.file 33 "/usr/local/Cellar/gcc-arm-none-eabi/20180627/arm-none-eabi/include/sys/lock.h"
 2855              		.file 34 "/usr/local/Cellar/gcc-arm-none-eabi/20180627/arm-none-eabi/include/sys/_types.h"
 2856              		.file 35 "/usr/local/Cellar/gcc-arm-none-eabi/20180627/arm-none-eabi/include/sys/reent.h"
 2857              		.file 36 "..//VL53L0X_Api/platform/inc/vl53l0x_platform.h"
 2858              		.file 37 "..//VL53L0X_Api/core/inc/vl53l0x_api.h"
 2859              		.file 38 "..//os/hal/include/hal.h"
 2860              		.file 39 "..//os/kernel/include/chsys.h"
 2861              		.file 40 "..//os/various/chprintf.h"
 2862              		.file 41 "..//os/hal/platforms/BCM2835/hal_lld.h"
 2863              		.file 42 "<built-in>"
 2864              		.section	.debug_info,"",%progbits
 2865              	.Ldebug_info0:
 2866 0000 37380000 		.4byte	0x3837
 2867 0004 0400     		.2byte	0x4
 2868 0006 00000000 		.4byte	.Ldebug_abbrev0
 2869 000a 04       		.byte	0x4
 2870 000b 01       		.uleb128 0x1
 2871 000c 11010000 		.4byte	.LASF537
 2872 0010 0C       		.byte	0xc
 2873 0011 410E0000 		.4byte	.LASF538
ARM GAS  /var/folders/3j/4xdnk5197cv_b7cw3n33qk7r0000gn/T//ccxkT2Pi.s 			page 52


 2874 0015 67030000 		.4byte	.LASF539
 2875 0019 18010000 		.4byte	.Ldebug_ranges0+0x118
 2876 001d 00000000 		.4byte	0
 2877 0021 00000000 		.4byte	.Ldebug_line0
 2878 0025 02       		.uleb128 0x2
 2879 0026 04       		.byte	0x4
 2880 0027 04       		.byte	0x4
 2881 0028 E70E0000 		.4byte	.LASF0
 2882 002c 03       		.uleb128 0x3
 2883 002d 04       		.byte	0x4
 2884 002e 05       		.byte	0x5
 2885 002f 696E7400 		.ascii	"int\000"
 2886 0033 04       		.uleb128 0x4
 2887 0034 16000000 		.4byte	.LASF2
 2888 0038 05       		.byte	0x5
 2889 0039 D8       		.byte	0xd8
 2890 003a 3E000000 		.4byte	0x3e
 2891 003e 02       		.uleb128 0x2
 2892 003f 04       		.byte	0x4
 2893 0040 07       		.byte	0x7
 2894 0041 500F0000 		.4byte	.LASF1
 2895 0045 05       		.uleb128 0x5
 2896 0046 3E000000 		.4byte	0x3e
 2897 004a 04       		.uleb128 0x4
 2898 004b F2120000 		.4byte	.LASF3
 2899 004f 06       		.byte	0x6
 2900 0050 29       		.byte	0x29
 2901 0051 55000000 		.4byte	0x55
 2902 0055 02       		.uleb128 0x2
 2903 0056 01       		.byte	0x1
 2904 0057 06       		.byte	0x6
 2905 0058 63060000 		.4byte	.LASF4
 2906 005c 04       		.uleb128 0x4
 2907 005d 2B040000 		.4byte	.LASF5
 2908 0061 06       		.byte	0x6
 2909 0062 2B       		.byte	0x2b
 2910 0063 67000000 		.4byte	0x67
 2911 0067 02       		.uleb128 0x2
 2912 0068 01       		.byte	0x1
 2913 0069 08       		.byte	0x8
 2914 006a BF060000 		.4byte	.LASF6
 2915 006e 02       		.uleb128 0x2
 2916 006f 02       		.byte	0x2
 2917 0070 05       		.byte	0x5
 2918 0071 B6160000 		.4byte	.LASF7
 2919 0075 04       		.uleb128 0x4
 2920 0076 5E080000 		.4byte	.LASF8
 2921 007a 06       		.byte	0x6
 2922 007b 39       		.byte	0x39
 2923 007c 80000000 		.4byte	0x80
 2924 0080 02       		.uleb128 0x2
 2925 0081 02       		.byte	0x2
 2926 0082 07       		.byte	0x7
 2927 0083 71190000 		.4byte	.LASF9
 2928 0087 04       		.uleb128 0x4
 2929 0088 341A0000 		.4byte	.LASF10
 2930 008c 06       		.byte	0x6
ARM GAS  /var/folders/3j/4xdnk5197cv_b7cw3n33qk7r0000gn/T//ccxkT2Pi.s 			page 53


 2931 008d 4D       		.byte	0x4d
 2932 008e 92000000 		.4byte	0x92
 2933 0092 02       		.uleb128 0x2
 2934 0093 04       		.byte	0x4
 2935 0094 05       		.byte	0x5
 2936 0095 F8040000 		.4byte	.LASF11
 2937 0099 04       		.uleb128 0x4
 2938 009a 4F0D0000 		.4byte	.LASF12
 2939 009e 06       		.byte	0x6
 2940 009f 4F       		.byte	0x4f
 2941 00a0 A4000000 		.4byte	0xa4
 2942 00a4 02       		.uleb128 0x2
 2943 00a5 04       		.byte	0x4
 2944 00a6 07       		.byte	0x7
 2945 00a7 B30B0000 		.4byte	.LASF13
 2946 00ab 02       		.uleb128 0x2
 2947 00ac 08       		.byte	0x8
 2948 00ad 05       		.byte	0x5
 2949 00ae 990D0000 		.4byte	.LASF14
 2950 00b2 02       		.uleb128 0x2
 2951 00b3 08       		.byte	0x8
 2952 00b4 07       		.byte	0x7
 2953 00b5 4C130000 		.4byte	.LASF15
 2954 00b9 04       		.uleb128 0x4
 2955 00ba 00000000 		.4byte	.LASF16
 2956 00be 07       		.byte	0x7
 2957 00bf 14       		.byte	0x14
 2958 00c0 4A000000 		.4byte	0x4a
 2959 00c4 04       		.uleb128 0x4
 2960 00c5 79060000 		.4byte	.LASF17
 2961 00c9 07       		.byte	0x7
 2962 00ca 18       		.byte	0x18
 2963 00cb 5C000000 		.4byte	0x5c
 2964 00cf 06       		.uleb128 0x6
 2965 00d0 C4000000 		.4byte	0xc4
 2966 00d4 04       		.uleb128 0x4
 2967 00d5 6B130000 		.4byte	.LASF18
 2968 00d9 07       		.byte	0x7
 2969 00da 24       		.byte	0x24
 2970 00db 75000000 		.4byte	0x75
 2971 00df 04       		.uleb128 0x4
 2972 00e0 FA000000 		.4byte	.LASF19
 2973 00e4 07       		.byte	0x7
 2974 00e5 2C       		.byte	0x2c
 2975 00e6 87000000 		.4byte	0x87
 2976 00ea 04       		.uleb128 0x4
 2977 00eb BB180000 		.4byte	.LASF20
 2978 00ef 07       		.byte	0x7
 2979 00f0 30       		.byte	0x30
 2980 00f1 99000000 		.4byte	0x99
 2981 00f5 05       		.uleb128 0x5
 2982 00f6 EA000000 		.4byte	0xea
 2983 00fa 04       		.uleb128 0x4
 2984 00fb 63170000 		.4byte	.LASF21
 2985 00ff 08       		.byte	0x8
 2986 0100 29       		.byte	0x29
 2987 0101 DF000000 		.4byte	0xdf
ARM GAS  /var/folders/3j/4xdnk5197cv_b7cw3n33qk7r0000gn/T//ccxkT2Pi.s 			page 54


 2988 0105 04       		.uleb128 0x4
 2989 0106 FA150000 		.4byte	.LASF22
 2990 010a 08       		.byte	0x8
 2991 010b 2A       		.byte	0x2a
 2992 010c C4000000 		.4byte	0xc4
 2993 0110 04       		.uleb128 0x4
 2994 0111 65050000 		.4byte	.LASF23
 2995 0115 08       		.byte	0x8
 2996 0116 2B       		.byte	0x2b
 2997 0117 C4000000 		.4byte	0xc4
 2998 011b 04       		.uleb128 0x4
 2999 011c 39180000 		.4byte	.LASF24
 3000 0120 08       		.byte	0x8
 3001 0121 2C       		.byte	0x2c
 3002 0122 C4000000 		.4byte	0xc4
 3003 0126 04       		.uleb128 0x4
 3004 0127 C8130000 		.4byte	.LASF25
 3005 012b 08       		.byte	0x8
 3006 012c 2D       		.byte	0x2d
 3007 012d C4000000 		.4byte	0xc4
 3008 0131 04       		.uleb128 0x4
 3009 0132 90000000 		.4byte	.LASF26
 3010 0136 08       		.byte	0x8
 3011 0137 2E       		.byte	0x2e
 3012 0138 EA000000 		.4byte	0xea
 3013 013c 04       		.uleb128 0x4
 3014 013d 8E130000 		.4byte	.LASF27
 3015 0141 08       		.byte	0x8
 3016 0142 2F       		.byte	0x2f
 3017 0143 DF000000 		.4byte	0xdf
 3018 0147 04       		.uleb128 0x4
 3019 0148 98060000 		.4byte	.LASF28
 3020 014c 08       		.byte	0x8
 3021 014d 31       		.byte	0x31
 3022 014e EA000000 		.4byte	0xea
 3023 0152 04       		.uleb128 0x4
 3024 0153 16110000 		.4byte	.LASF29
 3025 0157 08       		.byte	0x8
 3026 0158 32       		.byte	0x32
 3027 0159 EA000000 		.4byte	0xea
 3028 015d 04       		.uleb128 0x4
 3029 015e 48000000 		.4byte	.LASF30
 3030 0162 08       		.byte	0x8
 3031 0163 33       		.byte	0x33
 3032 0164 EA000000 		.4byte	0xea
 3033 0168 05       		.uleb128 0x5
 3034 0169 5D010000 		.4byte	0x15d
 3035 016d 04       		.uleb128 0x4
 3036 016e D4170000 		.4byte	.LASF31
 3037 0172 09       		.byte	0x9
 3038 0173 23       		.byte	0x23
 3039 0174 78010000 		.4byte	0x178
 3040 0178 07       		.uleb128 0x7
 3041 0179 D4170000 		.4byte	.LASF31
 3042 017d 44       		.byte	0x44
 3043 017e 0A       		.byte	0xa
 3044 017f 57       		.byte	0x57
ARM GAS  /var/folders/3j/4xdnk5197cv_b7cw3n33qk7r0000gn/T//ccxkT2Pi.s 			page 55


 3045 0180 69020000 		.4byte	0x269
 3046 0184 08       		.uleb128 0x8
 3047 0185 0C050000 		.4byte	.LASF32
 3048 0189 0A       		.byte	0xa
 3049 018a 58       		.byte	0x58
 3050 018b 8A020000 		.4byte	0x28a
 3051 018f 00       		.byte	0
 3052 0190 08       		.uleb128 0x8
 3053 0191 4A050000 		.4byte	.LASF33
 3054 0195 0A       		.byte	0xa
 3055 0196 5A       		.byte	0x5a
 3056 0197 8A020000 		.4byte	0x28a
 3057 019b 04       		.byte	0x4
 3058 019c 08       		.uleb128 0x8
 3059 019d 34080000 		.4byte	.LASF34
 3060 01a1 0A       		.byte	0xa
 3061 01a2 5C       		.byte	0x5c
 3062 01a3 31010000 		.4byte	0x131
 3063 01a7 08       		.byte	0x8
 3064 01a8 08       		.uleb128 0x8
 3065 01a9 84000000 		.4byte	.LASF35
 3066 01ad 0A       		.byte	0xa
 3067 01ae 5D       		.byte	0x5d
 3068 01af 4A030000 		.4byte	0x34a
 3069 01b3 0C       		.byte	0xc
 3070 01b4 08       		.uleb128 0x8
 3071 01b5 D9040000 		.4byte	.LASF36
 3072 01b9 0A       		.byte	0xa
 3073 01ba 5F       		.byte	0x5f
 3074 01bb 8A020000 		.4byte	0x28a
 3075 01bf 10       		.byte	0x10
 3076 01c0 08       		.uleb128 0x8
 3077 01c1 63130000 		.4byte	.LASF37
 3078 01c5 0A       		.byte	0xa
 3079 01c6 60       		.byte	0x60
 3080 01c7 8A020000 		.4byte	0x28a
 3081 01cb 14       		.byte	0x14
 3082 01cc 08       		.uleb128 0x8
 3083 01cd C11A0000 		.4byte	.LASF38
 3084 01d1 0A       		.byte	0xa
 3085 01d2 67       		.byte	0x67
 3086 01d3 7E050000 		.4byte	0x57e
 3087 01d7 18       		.byte	0x18
 3088 01d8 08       		.uleb128 0x8
 3089 01d9 271B0000 		.4byte	.LASF39
 3090 01dd 0A       		.byte	0xa
 3091 01de 72       		.byte	0x72
 3092 01df 10010000 		.4byte	0x110
 3093 01e3 1C       		.byte	0x1c
 3094 01e4 08       		.uleb128 0x8
 3095 01e5 2C0F0000 		.4byte	.LASF40
 3096 01e9 0A       		.byte	0xa
 3097 01ea 76       		.byte	0x76
 3098 01eb 05010000 		.4byte	0x105
 3099 01ef 1D       		.byte	0x1d
 3100 01f0 08       		.uleb128 0x8
 3101 01f1 0C100000 		.4byte	.LASF41
ARM GAS  /var/folders/3j/4xdnk5197cv_b7cw3n33qk7r0000gn/T//ccxkT2Pi.s 			page 56


 3102 01f5 0A       		.byte	0xa
 3103 01f6 7B       		.byte	0x7b
 3104 01f7 1B010000 		.4byte	0x11b
 3105 01fb 1E       		.byte	0x1e
 3106 01fc 08       		.uleb128 0x8
 3107 01fd 6F060000 		.4byte	.LASF42
 3108 0201 0A       		.byte	0xa
 3109 0202 81       		.byte	0x81
 3110 0203 26010000 		.4byte	0x126
 3111 0207 1F       		.byte	0x1f
 3112 0208 08       		.uleb128 0x8
 3113 0209 57110000 		.4byte	.LASF43
 3114 020d 0A       		.byte	0xa
 3115 020e 88       		.byte	0x88
 3116 020f 68010000 		.4byte	0x168
 3117 0213 20       		.byte	0x20
 3118 0214 09       		.uleb128 0x9
 3119 0215 705F7500 		.ascii	"p_u\000"
 3120 0219 0A       		.byte	0xa
 3121 021a AD       		.byte	0xad
 3122 021b 49050000 		.4byte	0x549
 3123 021f 24       		.byte	0x24
 3124 0220 08       		.uleb128 0x8
 3125 0221 080F0000 		.4byte	.LASF44
 3126 0225 0A       		.byte	0xa
 3127 0226 B2       		.byte	0xb2
 3128 0227 B0020000 		.4byte	0x2b0
 3129 022b 28       		.byte	0x28
 3130 022c 08       		.uleb128 0x8
 3131 022d E2000000 		.4byte	.LASF45
 3132 0231 0A       		.byte	0xa
 3133 0232 B8       		.byte	0xb8
 3134 0233 90020000 		.4byte	0x290
 3135 0237 2C       		.byte	0x2c
 3136 0238 08       		.uleb128 0x8
 3137 0239 011B0000 		.4byte	.LASF46
 3138 023d 0A       		.byte	0xa
 3139 023e BC       		.byte	0xbc
 3140 023f 3C010000 		.4byte	0x13c
 3141 0243 34       		.byte	0x34
 3142 0244 08       		.uleb128 0x8
 3143 0245 7A0A0000 		.4byte	.LASF47
 3144 0249 0A       		.byte	0xa
 3145 024a C2       		.byte	0xc2
 3146 024b 47010000 		.4byte	0x147
 3147 024f 38       		.byte	0x38
 3148 0250 08       		.uleb128 0x8
 3149 0251 7C050000 		.4byte	.LASF48
 3150 0255 0A       		.byte	0xa
 3151 0256 C9       		.byte	0xc9
 3152 0257 90050000 		.4byte	0x590
 3153 025b 3C       		.byte	0x3c
 3154 025c 08       		.uleb128 0x8
 3155 025d EE110000 		.4byte	.LASF49
 3156 0261 0A       		.byte	0xa
 3157 0262 CD       		.byte	0xcd
 3158 0263 31010000 		.4byte	0x131
ARM GAS  /var/folders/3j/4xdnk5197cv_b7cw3n33qk7r0000gn/T//ccxkT2Pi.s 			page 57


 3159 0267 40       		.byte	0x40
 3160 0268 00       		.byte	0
 3161 0269 0A       		.uleb128 0xa
 3162 026a 08       		.byte	0x8
 3163 026b 09       		.byte	0x9
 3164 026c 5A       		.byte	0x5a
 3165 026d 8A020000 		.4byte	0x28a
 3166 0271 08       		.uleb128 0x8
 3167 0272 0C050000 		.4byte	.LASF32
 3168 0276 09       		.byte	0x9
 3169 0277 5B       		.byte	0x5b
 3170 0278 8A020000 		.4byte	0x28a
 3171 027c 00       		.byte	0
 3172 027d 08       		.uleb128 0x8
 3173 027e 4A050000 		.4byte	.LASF33
 3174 0282 09       		.byte	0x9
 3175 0283 5D       		.byte	0x5d
 3176 0284 8A020000 		.4byte	0x28a
 3177 0288 04       		.byte	0x4
 3178 0289 00       		.byte	0
 3179 028a 0B       		.uleb128 0xb
 3180 028b 04       		.byte	0x4
 3181 028c 6D010000 		.4byte	0x16d
 3182 0290 04       		.uleb128 0x4
 3183 0291 F2180000 		.4byte	.LASF50
 3184 0295 09       		.byte	0x9
 3185 0296 5F       		.byte	0x5f
 3186 0297 69020000 		.4byte	0x269
 3187 029b 0A       		.uleb128 0xa
 3188 029c 04       		.byte	0x4
 3189 029d 09       		.byte	0x9
 3190 029e 64       		.byte	0x64
 3191 029f B0020000 		.4byte	0x2b0
 3192 02a3 08       		.uleb128 0x8
 3193 02a4 0C050000 		.4byte	.LASF32
 3194 02a8 09       		.byte	0x9
 3195 02a9 66       		.byte	0x66
 3196 02aa 8A020000 		.4byte	0x28a
 3197 02ae 00       		.byte	0
 3198 02af 00       		.byte	0
 3199 02b0 04       		.uleb128 0x4
 3200 02b1 B1100000 		.4byte	.LASF51
 3201 02b5 09       		.byte	0x9
 3202 02b6 69       		.byte	0x69
 3203 02b7 9B020000 		.4byte	0x29b
 3204 02bb 04       		.uleb128 0x4
 3205 02bc 23090000 		.4byte	.LASF52
 3206 02c0 0B       		.byte	0xb
 3207 02c1 9D       		.byte	0x9d
 3208 02c2 EA000000 		.4byte	0xea
 3209 02c6 04       		.uleb128 0x4
 3210 02c7 AF050000 		.4byte	.LASF53
 3211 02cb 0B       		.byte	0xb
 3212 02cc A2       		.byte	0xa2
 3213 02cd D1020000 		.4byte	0x2d1
 3214 02d1 0C       		.uleb128 0xc
 3215 02d2 04       		.byte	0x4
ARM GAS  /var/folders/3j/4xdnk5197cv_b7cw3n33qk7r0000gn/T//ccxkT2Pi.s 			page 58


 3216 02d3 06       		.uleb128 0x6
 3217 02d4 D1020000 		.4byte	0x2d1
 3218 02d8 07       		.uleb128 0x7
 3219 02d9 730A0000 		.4byte	.LASF54
 3220 02dd 24       		.byte	0x24
 3221 02de 0B       		.byte	0xb
 3222 02df B9       		.byte	0xb9
 3223 02e0 4A030000 		.4byte	0x34a
 3224 02e4 09       		.uleb128 0x9
 3225 02e5 723400   		.ascii	"r4\000"
 3226 02e8 0B       		.byte	0xb
 3227 02e9 BA       		.byte	0xba
 3228 02ea C6020000 		.4byte	0x2c6
 3229 02ee 00       		.byte	0
 3230 02ef 09       		.uleb128 0x9
 3231 02f0 723500   		.ascii	"r5\000"
 3232 02f3 0B       		.byte	0xb
 3233 02f4 BB       		.byte	0xbb
 3234 02f5 C6020000 		.4byte	0x2c6
 3235 02f9 04       		.byte	0x4
 3236 02fa 09       		.uleb128 0x9
 3237 02fb 723600   		.ascii	"r6\000"
 3238 02fe 0B       		.byte	0xb
 3239 02ff BC       		.byte	0xbc
 3240 0300 C6020000 		.4byte	0x2c6
 3241 0304 08       		.byte	0x8
 3242 0305 09       		.uleb128 0x9
 3243 0306 723700   		.ascii	"r7\000"
 3244 0309 0B       		.byte	0xb
 3245 030a BD       		.byte	0xbd
 3246 030b C6020000 		.4byte	0x2c6
 3247 030f 0C       		.byte	0xc
 3248 0310 09       		.uleb128 0x9
 3249 0311 723800   		.ascii	"r8\000"
 3250 0314 0B       		.byte	0xb
 3251 0315 BE       		.byte	0xbe
 3252 0316 C6020000 		.4byte	0x2c6
 3253 031a 10       		.byte	0x10
 3254 031b 09       		.uleb128 0x9
 3255 031c 723900   		.ascii	"r9\000"
 3256 031f 0B       		.byte	0xb
 3257 0320 BF       		.byte	0xbf
 3258 0321 C6020000 		.4byte	0x2c6
 3259 0325 14       		.byte	0x14
 3260 0326 09       		.uleb128 0x9
 3261 0327 72313000 		.ascii	"r10\000"
 3262 032b 0B       		.byte	0xb
 3263 032c C0       		.byte	0xc0
 3264 032d C6020000 		.4byte	0x2c6
 3265 0331 18       		.byte	0x18
 3266 0332 09       		.uleb128 0x9
 3267 0333 72313100 		.ascii	"r11\000"
 3268 0337 0B       		.byte	0xb
 3269 0338 C1       		.byte	0xc1
 3270 0339 C6020000 		.4byte	0x2c6
 3271 033d 1C       		.byte	0x1c
 3272 033e 09       		.uleb128 0x9
ARM GAS  /var/folders/3j/4xdnk5197cv_b7cw3n33qk7r0000gn/T//ccxkT2Pi.s 			page 59


 3273 033f 6C7200   		.ascii	"lr\000"
 3274 0342 0B       		.byte	0xb
 3275 0343 C2       		.byte	0xc2
 3276 0344 C6020000 		.4byte	0x2c6
 3277 0348 20       		.byte	0x20
 3278 0349 00       		.byte	0
 3279 034a 07       		.uleb128 0x7
 3280 034b A4060000 		.4byte	.LASF55
 3281 034f 04       		.byte	0x4
 3282 0350 0B       		.byte	0xb
 3283 0351 CA       		.byte	0xca
 3284 0352 63030000 		.4byte	0x363
 3285 0356 09       		.uleb128 0x9
 3286 0357 72313300 		.ascii	"r13\000"
 3287 035b 0B       		.byte	0xb
 3288 035c CB       		.byte	0xcb
 3289 035d 63030000 		.4byte	0x363
 3290 0361 00       		.byte	0
 3291 0362 00       		.byte	0
 3292 0363 0B       		.uleb128 0xb
 3293 0364 04       		.byte	0x4
 3294 0365 D8020000 		.4byte	0x2d8
 3295 0369 04       		.uleb128 0x4
 3296 036a E0010000 		.4byte	.LASF56
 3297 036e 0C       		.byte	0xc
 3298 036f 4E       		.byte	0x4e
 3299 0370 74030000 		.4byte	0x374
 3300 0374 0B       		.uleb128 0xb
 3301 0375 04       		.byte	0x4
 3302 0376 7A030000 		.4byte	0x37a
 3303 037a 0D       		.uleb128 0xd
 3304 037b 85030000 		.4byte	0x385
 3305 037f 0E       		.uleb128 0xe
 3306 0380 D1020000 		.4byte	0x2d1
 3307 0384 00       		.byte	0
 3308 0385 04       		.uleb128 0x4
 3309 0386 C4180000 		.4byte	.LASF57
 3310 038a 0C       		.byte	0xc
 3311 038b 53       		.byte	0x53
 3312 038c 90030000 		.4byte	0x390
 3313 0390 07       		.uleb128 0x7
 3314 0391 C4180000 		.4byte	.LASF57
 3315 0395 14       		.byte	0x14
 3316 0396 0C       		.byte	0xc
 3317 0397 5A       		.byte	0x5a
 3318 0398 D9030000 		.4byte	0x3d9
 3319 039c 08       		.uleb128 0x8
 3320 039d 000E0000 		.4byte	.LASF58
 3321 03a1 0C       		.byte	0xc
 3322 03a2 5B       		.byte	0x5b
 3323 03a3 D9030000 		.4byte	0x3d9
 3324 03a7 00       		.byte	0
 3325 03a8 08       		.uleb128 0x8
 3326 03a9 EC060000 		.4byte	.LASF59
 3327 03ad 0C       		.byte	0xc
 3328 03ae 5D       		.byte	0x5d
 3329 03af D9030000 		.4byte	0x3d9
ARM GAS  /var/folders/3j/4xdnk5197cv_b7cw3n33qk7r0000gn/T//ccxkT2Pi.s 			page 60


 3330 03b3 04       		.byte	0x4
 3331 03b4 08       		.uleb128 0x8
 3332 03b5 C81A0000 		.4byte	.LASF60
 3333 03b9 0C       		.byte	0xc
 3334 03ba 5F       		.byte	0x5f
 3335 03bb 5D010000 		.4byte	0x15d
 3336 03bf 08       		.byte	0x8
 3337 03c0 08       		.uleb128 0x8
 3338 03c1 2B0A0000 		.4byte	.LASF61
 3339 03c5 0C       		.byte	0xc
 3340 03c6 60       		.byte	0x60
 3341 03c7 69030000 		.4byte	0x369
 3342 03cb 0C       		.byte	0xc
 3343 03cc 08       		.uleb128 0x8
 3344 03cd FB030000 		.4byte	.LASF62
 3345 03d1 0C       		.byte	0xc
 3346 03d2 62       		.byte	0x62
 3347 03d3 D1020000 		.4byte	0x2d1
 3348 03d7 10       		.byte	0x10
 3349 03d8 00       		.byte	0
 3350 03d9 0B       		.uleb128 0xb
 3351 03da 04       		.byte	0x4
 3352 03db 85030000 		.4byte	0x385
 3353 03df 0A       		.uleb128 0xa
 3354 03e0 10       		.byte	0x10
 3355 03e1 0C       		.byte	0xc
 3356 03e2 6C       		.byte	0x6c
 3357 03e3 18040000 		.4byte	0x418
 3358 03e7 08       		.uleb128 0x8
 3359 03e8 000E0000 		.4byte	.LASF58
 3360 03ec 0C       		.byte	0xc
 3361 03ed 6D       		.byte	0x6d
 3362 03ee D9030000 		.4byte	0x3d9
 3363 03f2 00       		.byte	0
 3364 03f3 08       		.uleb128 0x8
 3365 03f4 EC060000 		.4byte	.LASF59
 3366 03f8 0C       		.byte	0xc
 3367 03f9 6F       		.byte	0x6f
 3368 03fa D9030000 		.4byte	0x3d9
 3369 03fe 04       		.byte	0x4
 3370 03ff 08       		.uleb128 0x8
 3371 0400 C81A0000 		.4byte	.LASF60
 3372 0404 0C       		.byte	0xc
 3373 0405 71       		.byte	0x71
 3374 0406 5D010000 		.4byte	0x15d
 3375 040a 08       		.byte	0x8
 3376 040b 08       		.uleb128 0x8
 3377 040c 64160000 		.4byte	.LASF63
 3378 0410 0C       		.byte	0xc
 3379 0411 72       		.byte	0x72
 3380 0412 68010000 		.4byte	0x168
 3381 0416 0C       		.byte	0xc
 3382 0417 00       		.byte	0
 3383 0418 04       		.uleb128 0x4
 3384 0419 2A140000 		.4byte	.LASF64
 3385 041d 0C       		.byte	0xc
 3386 041e 73       		.byte	0x73
ARM GAS  /var/folders/3j/4xdnk5197cv_b7cw3n33qk7r0000gn/T//ccxkT2Pi.s 			page 61


 3387 041f DF030000 		.4byte	0x3df
 3388 0423 0F       		.uleb128 0xf
 3389 0424 E4170000 		.4byte	.LASF72
 3390 0428 0C       		.byte	0xc
 3391 0429 D1       		.byte	0xd1
 3392 042a 18040000 		.4byte	0x418
 3393 042e 0A       		.uleb128 0xa
 3394 042f 1C       		.byte	0x1c
 3395 0430 0D       		.byte	0xd
 3396 0431 57       		.byte	0x57
 3397 0432 7F040000 		.4byte	0x47f
 3398 0436 08       		.uleb128 0x8
 3399 0437 20150000 		.4byte	.LASF65
 3400 043b 0D       		.byte	0xd
 3401 043c 58       		.byte	0x58
 3402 043d 90020000 		.4byte	0x290
 3403 0441 00       		.byte	0
 3404 0442 08       		.uleb128 0x8
 3405 0443 31170000 		.4byte	.LASF66
 3406 0447 0D       		.byte	0xd
 3407 0448 59       		.byte	0x59
 3408 0449 31010000 		.4byte	0x131
 3409 044d 08       		.byte	0x8
 3410 044e 08       		.uleb128 0x8
 3411 044f F4000000 		.4byte	.LASF67
 3412 0453 0D       		.byte	0xd
 3413 0454 5B       		.byte	0x5b
 3414 0455 4A030000 		.4byte	0x34a
 3415 0459 0C       		.byte	0xc
 3416 045a 08       		.uleb128 0x8
 3417 045b 3C070000 		.4byte	.LASF68
 3418 045f 0D       		.byte	0xd
 3419 0460 5E       		.byte	0x5e
 3420 0461 8A020000 		.4byte	0x28a
 3421 0465 10       		.byte	0x10
 3422 0466 08       		.uleb128 0x8
 3423 0467 7E160000 		.4byte	.LASF69
 3424 046b 0D       		.byte	0xd
 3425 046c 5F       		.byte	0x5f
 3426 046d 8A020000 		.4byte	0x28a
 3427 0471 14       		.byte	0x14
 3428 0472 08       		.uleb128 0x8
 3429 0473 17140000 		.4byte	.LASF70
 3430 0477 0D       		.byte	0xd
 3431 0478 62       		.byte	0x62
 3432 0479 8A020000 		.4byte	0x28a
 3433 047d 18       		.byte	0x18
 3434 047e 00       		.byte	0
 3435 047f 04       		.uleb128 0x4
 3436 0480 6A1A0000 		.4byte	.LASF71
 3437 0484 0D       		.byte	0xd
 3438 0485 64       		.byte	0x64
 3439 0486 2E040000 		.4byte	0x42e
 3440 048a 0F       		.uleb128 0xf
 3441 048b E2150000 		.4byte	.LASF73
 3442 048f 0D       		.byte	0xd
 3443 0490 68       		.byte	0x68
ARM GAS  /var/folders/3j/4xdnk5197cv_b7cw3n33qk7r0000gn/T//ccxkT2Pi.s 			page 62


 3444 0491 7F040000 		.4byte	0x47f
 3445 0495 07       		.uleb128 0x7
 3446 0496 650D0000 		.4byte	.LASF74
 3447 049a 10       		.byte	0x10
 3448 049b 0E       		.byte	0xe
 3449 049c 25       		.byte	0x25
 3450 049d C6040000 		.4byte	0x4c6
 3451 04a1 08       		.uleb128 0x8
 3452 04a2 F10D0000 		.4byte	.LASF75
 3453 04a6 0E       		.byte	0xe
 3454 04a7 26       		.byte	0x26
 3455 04a8 90020000 		.4byte	0x290
 3456 04ac 00       		.byte	0
 3457 04ad 08       		.uleb128 0x8
 3458 04ae EB030000 		.4byte	.LASF76
 3459 04b2 0E       		.byte	0xe
 3460 04b3 28       		.byte	0x28
 3461 04b4 8A020000 		.4byte	0x28a
 3462 04b8 08       		.byte	0x8
 3463 04b9 08       		.uleb128 0x8
 3464 04ba D51A0000 		.4byte	.LASF77
 3465 04be 0E       		.byte	0xe
 3466 04bf 2A       		.byte	0x2a
 3467 04c0 C6040000 		.4byte	0x4c6
 3468 04c4 0C       		.byte	0xc
 3469 04c5 00       		.byte	0
 3470 04c6 0B       		.uleb128 0xb
 3471 04c7 04       		.byte	0x4
 3472 04c8 95040000 		.4byte	0x495
 3473 04cc 04       		.uleb128 0x4
 3474 04cd 650D0000 		.4byte	.LASF74
 3475 04d1 0E       		.byte	0xe
 3476 04d2 2C       		.byte	0x2c
 3477 04d3 95040000 		.4byte	0x495
 3478 04d7 04       		.uleb128 0x4
 3479 04d8 8A180000 		.4byte	.LASF78
 3480 04dc 0F       		.byte	0xf
 3481 04dd 25       		.byte	0x25
 3482 04de E2040000 		.4byte	0x4e2
 3483 04e2 07       		.uleb128 0x7
 3484 04e3 8A180000 		.4byte	.LASF78
 3485 04e7 10       		.byte	0x10
 3486 04e8 0F       		.byte	0xf
 3487 04e9 2A       		.byte	0x2a
 3488 04ea 1F050000 		.4byte	0x51f
 3489 04ee 08       		.uleb128 0x8
 3490 04ef 290C0000 		.4byte	.LASF79
 3491 04f3 0F       		.byte	0xf
 3492 04f4 2B       		.byte	0x2b
 3493 04f5 1F050000 		.4byte	0x51f
 3494 04f9 00       		.byte	0
 3495 04fa 08       		.uleb128 0x8
 3496 04fb 071B0000 		.4byte	.LASF80
 3497 04ff 0F       		.byte	0xf
 3498 0500 2E       		.byte	0x2e
 3499 0501 8A020000 		.4byte	0x28a
 3500 0505 04       		.byte	0x4
ARM GAS  /var/folders/3j/4xdnk5197cv_b7cw3n33qk7r0000gn/T//ccxkT2Pi.s 			page 63


 3501 0506 08       		.uleb128 0x8
 3502 0507 5D1A0000 		.4byte	.LASF81
 3503 050b 0F       		.byte	0xf
 3504 050c 30       		.byte	0x30
 3505 050d 47010000 		.4byte	0x147
 3506 0511 08       		.byte	0x8
 3507 0512 08       		.uleb128 0x8
 3508 0513 DE020000 		.4byte	.LASF82
 3509 0517 0F       		.byte	0xf
 3510 0518 33       		.byte	0x33
 3511 0519 52010000 		.4byte	0x152
 3512 051d 0C       		.byte	0xc
 3513 051e 00       		.byte	0
 3514 051f 0B       		.uleb128 0xb
 3515 0520 04       		.byte	0x4
 3516 0521 D7040000 		.4byte	0x4d7
 3517 0525 07       		.uleb128 0x7
 3518 0526 A20B0000 		.4byte	.LASF83
 3519 052a 04       		.byte	0x4
 3520 052b 0F       		.byte	0xf
 3521 052c 3A       		.byte	0x3a
 3522 052d 3E050000 		.4byte	0x53e
 3523 0531 08       		.uleb128 0x8
 3524 0532 4B0B0000 		.4byte	.LASF84
 3525 0536 0F       		.byte	0xf
 3526 0537 3B       		.byte	0x3b
 3527 0538 1F050000 		.4byte	0x51f
 3528 053c 00       		.byte	0
 3529 053d 00       		.byte	0
 3530 053e 04       		.uleb128 0x4
 3531 053f A20B0000 		.4byte	.LASF83
 3532 0543 0F       		.byte	0xf
 3533 0544 3E       		.byte	0x3e
 3534 0545 25050000 		.4byte	0x525
 3535 0549 10       		.uleb128 0x10
 3536 054a 04       		.byte	0x4
 3537 054b 0A       		.byte	0xa
 3538 054c 8F       		.byte	0x8f
 3539 054d 7E050000 		.4byte	0x57e
 3540 0551 11       		.uleb128 0x11
 3541 0552 55190000 		.4byte	.LASF85
 3542 0556 0A       		.byte	0xa
 3543 0557 96       		.byte	0x96
 3544 0558 3C010000 		.4byte	0x13c
 3545 055c 11       		.uleb128 0x11
 3546 055d 0F040000 		.4byte	.LASF86
 3547 0561 0A       		.byte	0xa
 3548 0562 9D       		.byte	0x9d
 3549 0563 3C010000 		.4byte	0x13c
 3550 0567 11       		.uleb128 0x11
 3551 0568 83080000 		.4byte	.LASF87
 3552 056c 0A       		.byte	0xa
 3553 056d A4       		.byte	0xa4
 3554 056e D1020000 		.4byte	0x2d1
 3555 0572 11       		.uleb128 0x11
 3556 0573 55040000 		.4byte	.LASF88
 3557 0577 0A       		.byte	0xa
ARM GAS  /var/folders/3j/4xdnk5197cv_b7cw3n33qk7r0000gn/T//ccxkT2Pi.s 			page 64


 3558 0578 AB       		.byte	0xab
 3559 0579 47010000 		.4byte	0x147
 3560 057d 00       		.byte	0
 3561 057e 0B       		.uleb128 0xb
 3562 057f 04       		.byte	0x4
 3563 0580 8B050000 		.4byte	0x58b
 3564 0584 02       		.uleb128 0x2
 3565 0585 01       		.byte	0x1
 3566 0586 08       		.byte	0x8
 3567 0587 E3070000 		.4byte	.LASF89
 3568 058b 06       		.uleb128 0x6
 3569 058c 84050000 		.4byte	0x584
 3570 0590 0B       		.uleb128 0xb
 3571 0591 04       		.byte	0x4
 3572 0592 CC040000 		.4byte	0x4cc
 3573 0596 0B       		.uleb128 0xb
 3574 0597 04       		.byte	0x4
 3575 0598 9C050000 		.4byte	0x59c
 3576 059c 12       		.uleb128 0x12
 3577 059d 3C010000 		.4byte	0x13c
 3578 05a1 AB050000 		.4byte	0x5ab
 3579 05a5 0E       		.uleb128 0xe
 3580 05a6 D1020000 		.4byte	0x2d1
 3581 05aa 00       		.byte	0
 3582 05ab 0A       		.uleb128 0xa
 3583 05ac 16       		.byte	0x16
 3584 05ad 10       		.byte	0x10
 3585 05ae 25       		.byte	0x25
 3586 05af 8C060000 		.4byte	0x68c
 3587 05b3 08       		.uleb128 0x8
 3588 05b4 76000000 		.4byte	.LASF90
 3589 05b8 10       		.byte	0x10
 3590 05b9 26       		.byte	0x26
 3591 05ba 8C060000 		.4byte	0x68c
 3592 05be 00       		.byte	0
 3593 05bf 08       		.uleb128 0x8
 3594 05c0 C50B0000 		.4byte	.LASF91
 3595 05c4 10       		.byte	0x10
 3596 05c5 27       		.byte	0x27
 3597 05c6 C4000000 		.4byte	0xc4
 3598 05ca 04       		.byte	0x4
 3599 05cb 08       		.uleb128 0x8
 3600 05cc 121A0000 		.4byte	.LASF92
 3601 05d0 10       		.byte	0x10
 3602 05d1 28       		.byte	0x28
 3603 05d2 C4000000 		.4byte	0xc4
 3604 05d6 05       		.byte	0x5
 3605 05d7 08       		.uleb128 0x8
 3606 05d8 C50D0000 		.4byte	.LASF93
 3607 05dc 10       		.byte	0x10
 3608 05dd 29       		.byte	0x29
 3609 05de D4000000 		.4byte	0xd4
 3610 05e2 06       		.byte	0x6
 3611 05e3 08       		.uleb128 0x8
 3612 05e4 42030000 		.4byte	.LASF94
 3613 05e8 10       		.byte	0x10
 3614 05e9 2A       		.byte	0x2a
ARM GAS  /var/folders/3j/4xdnk5197cv_b7cw3n33qk7r0000gn/T//ccxkT2Pi.s 			page 65


 3615 05ea C4000000 		.4byte	0xc4
 3616 05ee 08       		.byte	0x8
 3617 05ef 08       		.uleb128 0x8
 3618 05f0 13100000 		.4byte	.LASF95
 3619 05f4 10       		.byte	0x10
 3620 05f5 2B       		.byte	0x2b
 3621 05f6 C4000000 		.4byte	0xc4
 3622 05fa 09       		.byte	0x9
 3623 05fb 08       		.uleb128 0x8
 3624 05fc 76040000 		.4byte	.LASF96
 3625 0600 10       		.byte	0x10
 3626 0601 2C       		.byte	0x2c
 3627 0602 C4000000 		.4byte	0xc4
 3628 0606 0A       		.byte	0xa
 3629 0607 08       		.uleb128 0x8
 3630 0608 A3090000 		.4byte	.LASF97
 3631 060c 10       		.byte	0x10
 3632 060d 2D       		.byte	0x2d
 3633 060e C4000000 		.4byte	0xc4
 3634 0612 0B       		.byte	0xb
 3635 0613 08       		.uleb128 0x8
 3636 0614 D5010000 		.4byte	.LASF98
 3637 0618 10       		.byte	0x10
 3638 0619 2E       		.byte	0x2e
 3639 061a C4000000 		.4byte	0xc4
 3640 061e 0C       		.byte	0xc
 3641 061f 08       		.uleb128 0x8
 3642 0620 D4080000 		.4byte	.LASF99
 3643 0624 10       		.byte	0x10
 3644 0625 2F       		.byte	0x2f
 3645 0626 C4000000 		.4byte	0xc4
 3646 062a 0D       		.byte	0xd
 3647 062b 08       		.uleb128 0x8
 3648 062c 8F170000 		.4byte	.LASF100
 3649 0630 10       		.byte	0x10
 3650 0631 30       		.byte	0x30
 3651 0632 C4000000 		.4byte	0xc4
 3652 0636 0E       		.byte	0xe
 3653 0637 08       		.uleb128 0x8
 3654 0638 3C000000 		.4byte	.LASF101
 3655 063c 10       		.byte	0x10
 3656 063d 31       		.byte	0x31
 3657 063e C4000000 		.4byte	0xc4
 3658 0642 0F       		.byte	0xf
 3659 0643 08       		.uleb128 0x8
 3660 0644 810F0000 		.4byte	.LASF102
 3661 0648 10       		.byte	0x10
 3662 0649 32       		.byte	0x32
 3663 064a C4000000 		.4byte	0xc4
 3664 064e 10       		.byte	0x10
 3665 064f 08       		.uleb128 0x8
 3666 0650 37050000 		.4byte	.LASF103
 3667 0654 10       		.byte	0x10
 3668 0655 34       		.byte	0x34
 3669 0656 C4000000 		.4byte	0xc4
 3670 065a 11       		.byte	0x11
 3671 065b 08       		.uleb128 0x8
ARM GAS  /var/folders/3j/4xdnk5197cv_b7cw3n33qk7r0000gn/T//ccxkT2Pi.s 			page 66


 3672 065c B3130000 		.4byte	.LASF104
 3673 0660 10       		.byte	0x10
 3674 0661 35       		.byte	0x35
 3675 0662 C4000000 		.4byte	0xc4
 3676 0666 12       		.byte	0x12
 3677 0667 08       		.uleb128 0x8
 3678 0668 67110000 		.4byte	.LASF105
 3679 066c 10       		.byte	0x10
 3680 066d 36       		.byte	0x36
 3681 066e C4000000 		.4byte	0xc4
 3682 0672 13       		.byte	0x13
 3683 0673 08       		.uleb128 0x8
 3684 0674 390D0000 		.4byte	.LASF106
 3685 0678 10       		.byte	0x10
 3686 0679 37       		.byte	0x37
 3687 067a C4000000 		.4byte	0xc4
 3688 067e 14       		.byte	0x14
 3689 067f 08       		.uleb128 0x8
 3690 0680 33120000 		.4byte	.LASF107
 3691 0684 10       		.byte	0x10
 3692 0685 39       		.byte	0x39
 3693 0686 C4000000 		.4byte	0xc4
 3694 068a 15       		.byte	0x15
 3695 068b 00       		.byte	0
 3696 068c 13       		.uleb128 0x13
 3697 068d 84050000 		.4byte	0x584
 3698 0691 9C060000 		.4byte	0x69c
 3699 0695 14       		.uleb128 0x14
 3700 0696 3E000000 		.4byte	0x3e
 3701 069a 03       		.byte	0x3
 3702 069b 00       		.byte	0
 3703 069c 04       		.uleb128 0x4
 3704 069d C6190000 		.4byte	.LASF108
 3705 06a1 10       		.byte	0x10
 3706 06a2 3A       		.byte	0x3a
 3707 06a3 AB050000 		.4byte	0x5ab
 3708 06a7 06       		.uleb128 0x6
 3709 06a8 9C060000 		.4byte	0x69c
 3710 06ac 0F       		.uleb128 0xf
 3711 06ad C0000000 		.4byte	.LASF109
 3712 06b1 10       		.byte	0x10
 3713 06b2 77       		.byte	0x77
 3714 06b3 A7060000 		.4byte	0x6a7
 3715 06b7 04       		.uleb128 0x4
 3716 06b8 76080000 		.4byte	.LASF110
 3717 06bc 11       		.byte	0x11
 3718 06bd 30       		.byte	0x30
 3719 06be C2060000 		.4byte	0x6c2
 3720 06c2 07       		.uleb128 0x7
 3721 06c3 76080000 		.4byte	.LASF110
 3722 06c7 24       		.byte	0x24
 3723 06c8 11       		.byte	0x11
 3724 06c9 3E       		.byte	0x3e
 3725 06ca 2F070000 		.4byte	0x72f
 3726 06ce 08       		.uleb128 0x8
 3727 06cf AD150000 		.4byte	.LASF111
 3728 06d3 11       		.byte	0x11
ARM GAS  /var/folders/3j/4xdnk5197cv_b7cw3n33qk7r0000gn/T//ccxkT2Pi.s 			page 67


 3729 06d4 3F       		.byte	0x3f
 3730 06d5 90020000 		.4byte	0x290
 3731 06d9 00       		.byte	0
 3732 06da 08       		.uleb128 0x8
 3733 06db 530B0000 		.4byte	.LASF112
 3734 06df 11       		.byte	0x11
 3735 06e0 40       		.byte	0x40
 3736 06e1 33000000 		.4byte	0x33
 3737 06e5 08       		.byte	0x8
 3738 06e6 08       		.uleb128 0x8
 3739 06e7 AF040000 		.4byte	.LASF113
 3740 06eb 11       		.byte	0x11
 3741 06ec 41       		.byte	0x41
 3742 06ed 51070000 		.4byte	0x751
 3743 06f1 0C       		.byte	0xc
 3744 06f2 08       		.uleb128 0x8
 3745 06f3 4F040000 		.4byte	.LASF114
 3746 06f7 11       		.byte	0x11
 3747 06f8 42       		.byte	0x42
 3748 06f9 51070000 		.4byte	0x751
 3749 06fd 10       		.byte	0x10
 3750 06fe 08       		.uleb128 0x8
 3751 06ff 690C0000 		.4byte	.LASF115
 3752 0703 11       		.byte	0x11
 3753 0704 44       		.byte	0x44
 3754 0705 51070000 		.4byte	0x751
 3755 0709 14       		.byte	0x14
 3756 070a 08       		.uleb128 0x8
 3757 070b 1F050000 		.4byte	.LASF116
 3758 070f 11       		.byte	0x11
 3759 0710 45       		.byte	0x45
 3760 0711 51070000 		.4byte	0x751
 3761 0715 18       		.byte	0x18
 3762 0716 08       		.uleb128 0x8
 3763 0717 B8040000 		.4byte	.LASF117
 3764 071b 11       		.byte	0x11
 3765 071c 46       		.byte	0x46
 3766 071d 2F070000 		.4byte	0x72f
 3767 0721 1C       		.byte	0x1c
 3768 0722 08       		.uleb128 0x8
 3769 0723 CD060000 		.4byte	.LASF118
 3770 0727 11       		.byte	0x11
 3771 0728 47       		.byte	0x47
 3772 0729 D1020000 		.4byte	0x2d1
 3773 072d 20       		.byte	0x20
 3774 072e 00       		.byte	0
 3775 072f 04       		.uleb128 0x4
 3776 0730 ED0E0000 		.4byte	.LASF119
 3777 0734 11       		.byte	0x11
 3778 0735 33       		.byte	0x33
 3779 0736 3A070000 		.4byte	0x73a
 3780 073a 0B       		.uleb128 0xb
 3781 073b 04       		.byte	0x4
 3782 073c 40070000 		.4byte	0x740
 3783 0740 0D       		.uleb128 0xd
 3784 0741 4B070000 		.4byte	0x74b
 3785 0745 0E       		.uleb128 0xe
ARM GAS  /var/folders/3j/4xdnk5197cv_b7cw3n33qk7r0000gn/T//ccxkT2Pi.s 			page 68


 3786 0746 4B070000 		.4byte	0x74b
 3787 074a 00       		.byte	0
 3788 074b 0B       		.uleb128 0xb
 3789 074c 04       		.byte	0x4
 3790 074d B7060000 		.4byte	0x6b7
 3791 0751 0B       		.uleb128 0xb
 3792 0752 04       		.byte	0x4
 3793 0753 C4000000 		.4byte	0xc4
 3794 0757 04       		.uleb128 0x4
 3795 0758 EB190000 		.4byte	.LASF120
 3796 075c 11       		.byte	0x11
 3797 075d 7B       		.byte	0x7b
 3798 075e B7060000 		.4byte	0x6b7
 3799 0762 04       		.uleb128 0x4
 3800 0763 49090000 		.4byte	.LASF121
 3801 0767 11       		.byte	0x11
 3802 0768 EE       		.byte	0xee
 3803 0769 B7060000 		.4byte	0x6b7
 3804 076d 07       		.uleb128 0x7
 3805 076e CA150000 		.4byte	.LASF122
 3806 0772 10       		.byte	0x10
 3807 0773 12       		.byte	0x12
 3808 0774 41       		.byte	0x41
 3809 0775 AA070000 		.4byte	0x7aa
 3810 0779 08       		.uleb128 0x8
 3811 077a 85020000 		.4byte	.LASF123
 3812 077e 12       		.byte	0x12
 3813 077f 42       		.byte	0x42
 3814 0780 CE070000 		.4byte	0x7ce
 3815 0784 00       		.byte	0
 3816 0785 08       		.uleb128 0x8
 3817 0786 340F0000 		.4byte	.LASF124
 3818 078a 12       		.byte	0x12
 3819 078b 42       		.byte	0x42
 3820 078c ED070000 		.4byte	0x7ed
 3821 0790 04       		.byte	0x4
 3822 0791 09       		.uleb128 0x9
 3823 0792 70757400 		.ascii	"put\000"
 3824 0796 12       		.byte	0x12
 3825 0797 42       		.byte	0x42
 3826 0798 07080000 		.4byte	0x807
 3827 079c 08       		.byte	0x8
 3828 079d 09       		.uleb128 0x9
 3829 079e 67657400 		.ascii	"get\000"
 3830 07a2 12       		.byte	0x12
 3831 07a3 42       		.byte	0x42
 3832 07a4 96050000 		.4byte	0x596
 3833 07a8 0C       		.byte	0xc
 3834 07a9 00       		.byte	0
 3835 07aa 06       		.uleb128 0x6
 3836 07ab 6D070000 		.4byte	0x76d
 3837 07af 12       		.uleb128 0x12
 3838 07b0 33000000 		.4byte	0x33
 3839 07b4 C8070000 		.4byte	0x7c8
 3840 07b8 0E       		.uleb128 0xe
 3841 07b9 D1020000 		.4byte	0x2d1
 3842 07bd 0E       		.uleb128 0xe
ARM GAS  /var/folders/3j/4xdnk5197cv_b7cw3n33qk7r0000gn/T//ccxkT2Pi.s 			page 69


 3843 07be C8070000 		.4byte	0x7c8
 3844 07c2 0E       		.uleb128 0xe
 3845 07c3 33000000 		.4byte	0x33
 3846 07c7 00       		.byte	0
 3847 07c8 0B       		.uleb128 0xb
 3848 07c9 04       		.byte	0x4
 3849 07ca CF000000 		.4byte	0xcf
 3850 07ce 0B       		.uleb128 0xb
 3851 07cf 04       		.byte	0x4
 3852 07d0 AF070000 		.4byte	0x7af
 3853 07d4 12       		.uleb128 0x12
 3854 07d5 33000000 		.4byte	0x33
 3855 07d9 ED070000 		.4byte	0x7ed
 3856 07dd 0E       		.uleb128 0xe
 3857 07de D1020000 		.4byte	0x2d1
 3858 07e2 0E       		.uleb128 0xe
 3859 07e3 51070000 		.4byte	0x751
 3860 07e7 0E       		.uleb128 0xe
 3861 07e8 33000000 		.4byte	0x33
 3862 07ec 00       		.byte	0
 3863 07ed 0B       		.uleb128 0xb
 3864 07ee 04       		.byte	0x4
 3865 07ef D4070000 		.4byte	0x7d4
 3866 07f3 12       		.uleb128 0x12
 3867 07f4 3C010000 		.4byte	0x13c
 3868 07f8 07080000 		.4byte	0x807
 3869 07fc 0E       		.uleb128 0xe
 3870 07fd D1020000 		.4byte	0x2d1
 3871 0801 0E       		.uleb128 0xe
 3872 0802 C4000000 		.4byte	0xc4
 3873 0806 00       		.byte	0
 3874 0807 0B       		.uleb128 0xb
 3875 0808 04       		.byte	0x4
 3876 0809 F3070000 		.4byte	0x7f3
 3877 080d 0A       		.uleb128 0xa
 3878 080e 04       		.byte	0x4
 3879 080f 12       		.byte	0x12
 3880 0810 4A       		.byte	0x4a
 3881 0811 22080000 		.4byte	0x822
 3882 0815 09       		.uleb128 0x9
 3883 0816 766D7400 		.ascii	"vmt\000"
 3884 081a 12       		.byte	0x12
 3885 081b 4C       		.byte	0x4c
 3886 081c 22080000 		.4byte	0x822
 3887 0820 00       		.byte	0
 3888 0821 00       		.byte	0
 3889 0822 0B       		.uleb128 0xb
 3890 0823 04       		.byte	0x4
 3891 0824 AA070000 		.4byte	0x7aa
 3892 0828 04       		.uleb128 0x4
 3893 0829 B4020000 		.4byte	.LASF125
 3894 082d 12       		.byte	0x12
 3895 082e 4E       		.byte	0x4e
 3896 082f 0D080000 		.4byte	0x80d
 3897 0833 13       		.uleb128 0x13
 3898 0834 BB020000 		.4byte	0x2bb
 3899 0838 43080000 		.4byte	0x843
ARM GAS  /var/folders/3j/4xdnk5197cv_b7cw3n33qk7r0000gn/T//ccxkT2Pi.s 			page 70


 3900 083c 14       		.uleb128 0x14
 3901 083d 3E000000 		.4byte	0x3e
 3902 0841 26       		.byte	0x26
 3903 0842 00       		.byte	0
 3904 0843 0F       		.uleb128 0xf
 3905 0844 48180000 		.4byte	.LASF126
 3906 0848 13       		.byte	0x13
 3907 0849 82       		.byte	0x82
 3908 084a 33080000 		.4byte	0x833
 3909 084e 07       		.uleb128 0x7
 3910 084f 03080000 		.4byte	.LASF127
 3911 0853 20       		.byte	0x20
 3912 0854 14       		.byte	0x14
 3913 0855 FD       		.byte	0xfd
 3914 0856 C1080000 		.4byte	0x8c1
 3915 085a 08       		.uleb128 0x8
 3916 085b C70E0000 		.4byte	.LASF128
 3917 085f 14       		.byte	0x14
 3918 0860 FE       		.byte	0xfe
 3919 0861 45000000 		.4byte	0x45
 3920 0865 00       		.byte	0
 3921 0866 08       		.uleb128 0x8
 3922 0867 CD0B0000 		.4byte	.LASF129
 3923 086b 14       		.byte	0x14
 3924 086c FF       		.byte	0xff
 3925 086d 45000000 		.4byte	0x45
 3926 0871 04       		.byte	0x4
 3927 0872 15       		.uleb128 0x15
 3928 0873 C4120000 		.4byte	.LASF130
 3929 0877 14       		.byte	0x14
 3930 0878 0001     		.2byte	0x100
 3931 087a 45000000 		.4byte	0x45
 3932 087e 08       		.byte	0x8
 3933 087f 15       		.uleb128 0x15
 3934 0880 9C170000 		.4byte	.LASF131
 3935 0884 14       		.byte	0x14
 3936 0885 0101     		.2byte	0x101
 3937 0887 45000000 		.4byte	0x45
 3938 088b 0C       		.byte	0xc
 3939 088c 15       		.uleb128 0x15
 3940 088d 15190000 		.4byte	.LASF132
 3941 0891 14       		.byte	0x14
 3942 0892 0201     		.2byte	0x102
 3943 0894 45000000 		.4byte	0x45
 3944 0898 10       		.byte	0x10
 3945 0899 15       		.uleb128 0x15
 3946 089a 2C180000 		.4byte	.LASF133
 3947 089e 14       		.byte	0x14
 3948 089f 0301     		.2byte	0x103
 3949 08a1 45000000 		.4byte	0x45
 3950 08a5 14       		.byte	0x14
 3951 08a6 15       		.uleb128 0x15
 3952 08a7 610A0000 		.4byte	.LASF134
 3953 08ab 14       		.byte	0x14
 3954 08ac 0401     		.2byte	0x104
 3955 08ae 45000000 		.4byte	0x45
 3956 08b2 18       		.byte	0x18
ARM GAS  /var/folders/3j/4xdnk5197cv_b7cw3n33qk7r0000gn/T//ccxkT2Pi.s 			page 71


 3957 08b3 15       		.uleb128 0x15
 3958 08b4 53030000 		.4byte	.LASF135
 3959 08b8 14       		.byte	0x14
 3960 08b9 0501     		.2byte	0x105
 3961 08bb 45000000 		.4byte	0x45
 3962 08bf 1C       		.byte	0x1c
 3963 08c0 00       		.byte	0
 3964 08c1 16       		.uleb128 0x16
 3965 08c2 03080000 		.4byte	.LASF127
 3966 08c6 14       		.byte	0x14
 3967 08c7 0801     		.2byte	0x108
 3968 08c9 4E080000 		.4byte	0x84e
 3969 08cd 12       		.uleb128 0x12
 3970 08ce 3C010000 		.4byte	0x13c
 3971 08d2 E6080000 		.4byte	0x8e6
 3972 08d6 0E       		.uleb128 0xe
 3973 08d7 D1020000 		.4byte	0x2d1
 3974 08db 0E       		.uleb128 0xe
 3975 08dc C4000000 		.4byte	0xc4
 3976 08e0 0E       		.uleb128 0xe
 3977 08e1 5D010000 		.4byte	0x15d
 3978 08e5 00       		.byte	0
 3979 08e6 0B       		.uleb128 0xb
 3980 08e7 04       		.byte	0x4
 3981 08e8 CD080000 		.4byte	0x8cd
 3982 08ec 12       		.uleb128 0x12
 3983 08ed 3C010000 		.4byte	0x13c
 3984 08f1 00090000 		.4byte	0x900
 3985 08f5 0E       		.uleb128 0xe
 3986 08f6 D1020000 		.4byte	0x2d1
 3987 08fa 0E       		.uleb128 0xe
 3988 08fb 5D010000 		.4byte	0x15d
 3989 08ff 00       		.byte	0
 3990 0900 0B       		.uleb128 0xb
 3991 0901 04       		.byte	0x4
 3992 0902 EC080000 		.4byte	0x8ec
 3993 0906 12       		.uleb128 0x12
 3994 0907 33000000 		.4byte	0x33
 3995 090b 24090000 		.4byte	0x924
 3996 090f 0E       		.uleb128 0xe
 3997 0910 D1020000 		.4byte	0x2d1
 3998 0914 0E       		.uleb128 0xe
 3999 0915 C8070000 		.4byte	0x7c8
 4000 0919 0E       		.uleb128 0xe
 4001 091a 33000000 		.4byte	0x33
 4002 091e 0E       		.uleb128 0xe
 4003 091f 5D010000 		.4byte	0x15d
 4004 0923 00       		.byte	0
 4005 0924 0B       		.uleb128 0xb
 4006 0925 04       		.byte	0x4
 4007 0926 06090000 		.4byte	0x906
 4008 092a 12       		.uleb128 0x12
 4009 092b 33000000 		.4byte	0x33
 4010 092f 48090000 		.4byte	0x948
 4011 0933 0E       		.uleb128 0xe
 4012 0934 D1020000 		.4byte	0x2d1
 4013 0938 0E       		.uleb128 0xe
ARM GAS  /var/folders/3j/4xdnk5197cv_b7cw3n33qk7r0000gn/T//ccxkT2Pi.s 			page 72


 4014 0939 51070000 		.4byte	0x751
 4015 093d 0E       		.uleb128 0xe
 4016 093e 33000000 		.4byte	0x33
 4017 0942 0E       		.uleb128 0xe
 4018 0943 5D010000 		.4byte	0x15d
 4019 0947 00       		.byte	0
 4020 0948 0B       		.uleb128 0xb
 4021 0949 04       		.byte	0x4
 4022 094a 2A090000 		.4byte	0x92a
 4023 094e 0A       		.uleb128 0xa
 4024 094f 18       		.byte	0x18
 4025 0950 15       		.byte	0x15
 4026 0951 2A       		.byte	0x2a
 4027 0952 9F090000 		.4byte	0x99f
 4028 0956 08       		.uleb128 0x8
 4029 0957 220E0000 		.4byte	.LASF136
 4030 095b 15       		.byte	0x15
 4031 095c 2F       		.byte	0x2f
 4032 095d EA000000 		.4byte	0xea
 4033 0961 00       		.byte	0
 4034 0962 08       		.uleb128 0x8
 4035 0963 90140000 		.4byte	.LASF137
 4036 0967 15       		.byte	0x15
 4037 0968 31       		.byte	0x31
 4038 0969 9F090000 		.4byte	0x99f
 4039 096d 04       		.byte	0x4
 4040 096e 08       		.uleb128 0x8
 4041 096f A5140000 		.4byte	.LASF138
 4042 0973 15       		.byte	0x15
 4043 0974 32       		.byte	0x32
 4044 0975 9F090000 		.4byte	0x99f
 4045 0979 08       		.byte	0x8
 4046 097a 08       		.uleb128 0x8
 4047 097b 9D090000 		.4byte	.LASF139
 4048 097f 15       		.byte	0x15
 4049 0980 33       		.byte	0x33
 4050 0981 9F090000 		.4byte	0x99f
 4051 0985 0C       		.byte	0xc
 4052 0986 08       		.uleb128 0x8
 4053 0987 B8050000 		.4byte	.LASF140
 4054 098b 15       		.byte	0x15
 4055 098c 34       		.byte	0x34
 4056 098d 9F090000 		.4byte	0x99f
 4057 0991 10       		.byte	0x10
 4058 0992 08       		.uleb128 0x8
 4059 0993 480E0000 		.4byte	.LASF141
 4060 0997 15       		.byte	0x15
 4061 0998 35       		.byte	0x35
 4062 0999 3E000000 		.4byte	0x3e
 4063 099d 14       		.byte	0x14
 4064 099e 00       		.byte	0
 4065 099f 0B       		.uleb128 0xb
 4066 09a0 04       		.byte	0x4
 4067 09a1 F5000000 		.4byte	0xf5
 4068 09a5 04       		.uleb128 0x4
 4069 09a6 6A000000 		.4byte	.LASF142
 4070 09aa 15       		.byte	0x15
ARM GAS  /var/folders/3j/4xdnk5197cv_b7cw3n33qk7r0000gn/T//ccxkT2Pi.s 			page 73


 4071 09ab 37       		.byte	0x37
 4072 09ac 4E090000 		.4byte	0x94e
 4073 09b0 17       		.uleb128 0x17
 4074 09b1 00       		.byte	0
 4075 09b2 15       		.byte	0x15
 4076 09b3 43       		.byte	0x43
 4077 09b4 04       		.uleb128 0x4
 4078 09b5 A9170000 		.4byte	.LASF143
 4079 09b9 15       		.byte	0x15
 4080 09ba 45       		.byte	0x45
 4081 09bb B0090000 		.4byte	0x9b0
 4082 09bf 06       		.uleb128 0x6
 4083 09c0 B4090000 		.4byte	0x9b4
 4084 09c4 04       		.uleb128 0x4
 4085 09c5 D5090000 		.4byte	.LASF144
 4086 09c9 15       		.byte	0x15
 4087 09ca 55       		.byte	0x55
 4088 09cb EA000000 		.4byte	0xea
 4089 09cf 0F       		.uleb128 0xf
 4090 09d0 60070000 		.4byte	.LASF145
 4091 09d4 15       		.byte	0x15
 4092 09d5 6D       		.byte	0x6d
 4093 09d6 A5090000 		.4byte	0x9a5
 4094 09da 0F       		.uleb128 0xf
 4095 09db 68070000 		.4byte	.LASF146
 4096 09df 15       		.byte	0x15
 4097 09e0 6E       		.byte	0x6e
 4098 09e1 A5090000 		.4byte	0x9a5
 4099 09e5 0F       		.uleb128 0xf
 4100 09e6 43060000 		.4byte	.LASF147
 4101 09ea 15       		.byte	0x15
 4102 09eb 75       		.byte	0x75
 4103 09ec BF090000 		.4byte	0x9bf
 4104 09f0 18       		.uleb128 0x18
 4105 09f1 07       		.byte	0x7
 4106 09f2 01       		.byte	0x1
 4107 09f3 67000000 		.4byte	0x67
 4108 09f7 16       		.byte	0x16
 4109 09f8 54       		.byte	0x54
 4110 09f9 220A0000 		.4byte	0xa22
 4111 09fd 19       		.uleb128 0x19
 4112 09fe BA0D0000 		.4byte	.LASF148
 4113 0a02 00       		.byte	0
 4114 0a03 19       		.uleb128 0x19
 4115 0a04 B81A0000 		.4byte	.LASF149
 4116 0a08 01       		.byte	0x1
 4117 0a09 19       		.uleb128 0x19
 4118 0a0a D7100000 		.4byte	.LASF150
 4119 0a0e 02       		.byte	0x2
 4120 0a0f 19       		.uleb128 0x19
 4121 0a10 7D090000 		.4byte	.LASF151
 4122 0a14 03       		.byte	0x3
 4123 0a15 19       		.uleb128 0x19
 4124 0a16 8F070000 		.4byte	.LASF152
 4125 0a1a 04       		.byte	0x4
 4126 0a1b 19       		.uleb128 0x19
 4127 0a1c B60A0000 		.4byte	.LASF153
ARM GAS  /var/folders/3j/4xdnk5197cv_b7cw3n33qk7r0000gn/T//ccxkT2Pi.s 			page 74


 4128 0a20 05       		.byte	0x5
 4129 0a21 00       		.byte	0
 4130 0a22 04       		.uleb128 0x4
 4131 0a23 AA0E0000 		.4byte	.LASF154
 4132 0a27 16       		.byte	0x16
 4133 0a28 5B       		.byte	0x5b
 4134 0a29 F0090000 		.4byte	0x9f0
 4135 0a2d 04       		.uleb128 0x4
 4136 0a2e 2E0B0000 		.4byte	.LASF155
 4137 0a32 17       		.byte	0x17
 4138 0a33 38       		.byte	0x38
 4139 0a34 380A0000 		.4byte	0xa38
 4140 0a38 07       		.uleb128 0x7
 4141 0a39 2E0B0000 		.4byte	.LASF155
 4142 0a3d 40       		.byte	0x40
 4143 0a3e 17       		.byte	0x17
 4144 0a3f 62       		.byte	0x62
 4145 0a40 E10A0000 		.4byte	0xae1
 4146 0a44 08       		.uleb128 0x8
 4147 0a45 EE020000 		.4byte	.LASF156
 4148 0a49 17       		.byte	0x17
 4149 0a4a 64       		.byte	0x64
 4150 0a4b 220A0000 		.4byte	0xa22
 4151 0a4f 00       		.byte	0
 4152 0a50 08       		.uleb128 0x8
 4153 0a51 E7020000 		.4byte	.LASF157
 4154 0a55 17       		.byte	0x17
 4155 0a56 66       		.byte	0x66
 4156 0a57 1C0B0000 		.4byte	0xb1c
 4157 0a5b 04       		.byte	0x4
 4158 0a5c 08       		.uleb128 0x8
 4159 0a5d CD080000 		.4byte	.LASF158
 4160 0a61 17       		.byte	0x17
 4161 0a62 68       		.byte	0x68
 4162 0a63 E10A0000 		.4byte	0xae1
 4163 0a67 08       		.byte	0x8
 4164 0a68 08       		.uleb128 0x8
 4165 0a69 15130000 		.4byte	.LASF159
 4166 0a6d 17       		.byte	0x17
 4167 0a6e 6A       		.byte	0x6a
 4168 0a6f 220B0000 		.4byte	0xb22
 4169 0a73 0C       		.byte	0xc
 4170 0a74 08       		.uleb128 0x8
 4171 0a75 B50E0000 		.4byte	.LASF160
 4172 0a79 17       		.byte	0x17
 4173 0a7a 6D       		.byte	0x6d
 4174 0a7b CC040000 		.4byte	0x4cc
 4175 0a7f 10       		.byte	0x10
 4176 0a80 08       		.uleb128 0x8
 4177 0a81 86160000 		.4byte	.LASF161
 4178 0a85 17       		.byte	0x17
 4179 0a86 77       		.byte	0x77
 4180 0a87 8A020000 		.4byte	0x28a
 4181 0a8b 20       		.byte	0x20
 4182 0a8c 08       		.uleb128 0x8
 4183 0a8d 180F0000 		.4byte	.LASF162
 4184 0a91 17       		.byte	0x17
ARM GAS  /var/folders/3j/4xdnk5197cv_b7cw3n33qk7r0000gn/T//ccxkT2Pi.s 			page 75


 4185 0a92 7B       		.byte	0x7b
 4186 0a93 EC0A0000 		.4byte	0xaec
 4187 0a97 24       		.byte	0x24
 4188 0a98 08       		.uleb128 0x8
 4189 0a99 A9050000 		.4byte	.LASF163
 4190 0a9d 17       		.byte	0x17
 4191 0a9e 7F       		.byte	0x7f
 4192 0a9f C8070000 		.4byte	0x7c8
 4193 0aa3 28       		.byte	0x28
 4194 0aa4 08       		.uleb128 0x8
 4195 0aa5 0D130000 		.4byte	.LASF164
 4196 0aa9 17       		.byte	0x17
 4197 0aaa 83       		.byte	0x83
 4198 0aab 33000000 		.4byte	0x33
 4199 0aaf 2C       		.byte	0x2c
 4200 0ab0 08       		.uleb128 0x8
 4201 0ab1 C1050000 		.4byte	.LASF165
 4202 0ab5 17       		.byte	0x17
 4203 0ab6 87       		.byte	0x87
 4204 0ab7 33000000 		.4byte	0x33
 4205 0abb 30       		.byte	0x30
 4206 0abc 08       		.uleb128 0x8
 4207 0abd F9110000 		.4byte	.LASF166
 4208 0ac1 17       		.byte	0x17
 4209 0ac2 8B       		.byte	0x8b
 4210 0ac3 51070000 		.4byte	0x751
 4211 0ac7 34       		.byte	0x34
 4212 0ac8 08       		.uleb128 0x8
 4213 0ac9 63100000 		.4byte	.LASF167
 4214 0acd 17       		.byte	0x17
 4215 0ace 8F       		.byte	0x8f
 4216 0acf 33000000 		.4byte	0x33
 4217 0ad3 38       		.byte	0x38
 4218 0ad4 08       		.uleb128 0x8
 4219 0ad5 E8090000 		.4byte	.LASF168
 4220 0ad9 17       		.byte	0x17
 4221 0ada 93       		.byte	0x93
 4222 0adb 33000000 		.4byte	0x33
 4223 0adf 3C       		.byte	0x3c
 4224 0ae0 00       		.byte	0
 4225 0ae1 04       		.uleb128 0x4
 4226 0ae2 43190000 		.4byte	.LASF169
 4227 0ae6 17       		.byte	0x17
 4228 0ae7 42       		.byte	0x42
 4229 0ae8 EA000000 		.4byte	0xea
 4230 0aec 04       		.uleb128 0x4
 4231 0aed 35040000 		.4byte	.LASF170
 4232 0af1 17       		.byte	0x17
 4233 0af2 48       		.byte	0x48
 4234 0af3 D4000000 		.4byte	0xd4
 4235 0af7 0A       		.uleb128 0xa
 4236 0af8 04       		.byte	0x4
 4237 0af9 17       		.byte	0x17
 4238 0afa 57       		.byte	0x57
 4239 0afb 0C0B0000 		.4byte	0xb0c
 4240 0aff 08       		.uleb128 0x8
 4241 0b00 D1180000 		.4byte	.LASF171
ARM GAS  /var/folders/3j/4xdnk5197cv_b7cw3n33qk7r0000gn/T//ccxkT2Pi.s 			page 76


 4242 0b04 17       		.byte	0x17
 4243 0b05 59       		.byte	0x59
 4244 0b06 EA000000 		.4byte	0xea
 4245 0b0a 00       		.byte	0
 4246 0b0b 00       		.byte	0
 4247 0b0c 04       		.uleb128 0x4
 4248 0b0d 8E120000 		.4byte	.LASF172
 4249 0b11 17       		.byte	0x17
 4250 0b12 5B       		.byte	0x5b
 4251 0b13 F70A0000 		.4byte	0xaf7
 4252 0b17 06       		.uleb128 0x6
 4253 0b18 0C0B0000 		.4byte	0xb0c
 4254 0b1c 0B       		.uleb128 0xb
 4255 0b1d 04       		.byte	0x4
 4256 0b1e 170B0000 		.4byte	0xb17
 4257 0b22 0B       		.uleb128 0xb
 4258 0b23 04       		.byte	0x4
 4259 0b24 C1080000 		.4byte	0x8c1
 4260 0b28 0F       		.uleb128 0xf
 4261 0b29 E2060000 		.4byte	.LASF173
 4262 0b2d 17       		.byte	0x17
 4263 0b2e A6       		.byte	0xa6
 4264 0b2f 2D0A0000 		.4byte	0xa2d
 4265 0b33 0F       		.uleb128 0xf
 4266 0b34 E7060000 		.4byte	.LASF174
 4267 0b38 17       		.byte	0x17
 4268 0b39 A7       		.byte	0xa7
 4269 0b3a 2D0A0000 		.4byte	0xa2d
 4270 0b3e 18       		.uleb128 0x18
 4271 0b3f 07       		.byte	0x7
 4272 0b40 01       		.byte	0x1
 4273 0b41 67000000 		.4byte	0x67
 4274 0b45 18       		.byte	0x18
 4275 0b46 5D       		.byte	0x5d
 4276 0b47 5E0B0000 		.4byte	0xb5e
 4277 0b4b 19       		.uleb128 0x19
 4278 0b4c 7E070000 		.4byte	.LASF175
 4279 0b50 00       		.byte	0
 4280 0b51 19       		.uleb128 0x19
 4281 0b52 3E1A0000 		.4byte	.LASF176
 4282 0b56 01       		.byte	0x1
 4283 0b57 19       		.uleb128 0x19
 4284 0b58 6F160000 		.4byte	.LASF177
 4285 0b5c 02       		.byte	0x2
 4286 0b5d 00       		.byte	0
 4287 0b5e 04       		.uleb128 0x4
 4288 0b5f 2B160000 		.4byte	.LASF178
 4289 0b63 18       		.byte	0x18
 4290 0b64 61       		.byte	0x61
 4291 0b65 3E0B0000 		.4byte	0xb3e
 4292 0b69 04       		.uleb128 0x4
 4293 0b6a 46150000 		.4byte	.LASF179
 4294 0b6e 18       		.byte	0x18
 4295 0b6f 66       		.byte	0x66
 4296 0b70 740B0000 		.4byte	0xb74
 4297 0b74 07       		.uleb128 0x7
 4298 0b75 46150000 		.4byte	.LASF179
ARM GAS  /var/folders/3j/4xdnk5197cv_b7cw3n33qk7r0000gn/T//ccxkT2Pi.s 			page 77


 4299 0b79 74       		.byte	0x74
 4300 0b7a 18       		.byte	0x18
 4301 0b7b 80       		.byte	0x80
 4302 0b7c D30B0000 		.4byte	0xbd3
 4303 0b80 09       		.uleb128 0x9
 4304 0b81 766D7400 		.ascii	"vmt\000"
 4305 0b85 18       		.byte	0x18
 4306 0b86 82       		.byte	0x82
 4307 0b87 500C0000 		.4byte	0xc50
 4308 0b8b 00       		.byte	0
 4309 0b8c 08       		.uleb128 0x8
 4310 0b8d 120F0000 		.4byte	.LASF180
 4311 0b91 18       		.byte	0x18
 4312 0b92 83       		.byte	0x83
 4313 0b93 3E050000 		.4byte	0x53e
 4314 0b97 04       		.byte	0x4
 4315 0b98 08       		.uleb128 0x8
 4316 0b99 EE020000 		.4byte	.LASF156
 4317 0b9d 18       		.byte	0x18
 4318 0b9e 83       		.byte	0x83
 4319 0b9f 5E0B0000 		.4byte	0xb5e
 4320 0ba3 08       		.byte	0x8
 4321 0ba4 08       		.uleb128 0x8
 4322 0ba5 F0160000 		.4byte	.LASF181
 4323 0ba9 18       		.byte	0x18
 4324 0baa 83       		.byte	0x83
 4325 0bab 57070000 		.4byte	0x757
 4326 0baf 0C       		.byte	0xc
 4327 0bb0 08       		.uleb128 0x8
 4328 0bb1 A2050000 		.4byte	.LASF182
 4329 0bb5 18       		.byte	0x18
 4330 0bb6 83       		.byte	0x83
 4331 0bb7 62070000 		.4byte	0x762
 4332 0bbb 30       		.byte	0x30
 4333 0bbc 09       		.uleb128 0x9
 4334 0bbd 696200   		.ascii	"ib\000"
 4335 0bc0 18       		.byte	0x18
 4336 0bc1 83       		.byte	0x83
 4337 0bc2 560C0000 		.4byte	0xc56
 4338 0bc6 54       		.byte	0x54
 4339 0bc7 09       		.uleb128 0x9
 4340 0bc8 6F6200   		.ascii	"ob\000"
 4341 0bcb 18       		.byte	0x18
 4342 0bcc 83       		.byte	0x83
 4343 0bcd 560C0000 		.4byte	0xc56
 4344 0bd1 64       		.byte	0x64
 4345 0bd2 00       		.byte	0
 4346 0bd3 1A       		.uleb128 0x1a
 4347 0bd4 53443100 		.ascii	"SD1\000"
 4348 0bd8 1C       		.byte	0x1c
 4349 0bd9 62       		.byte	0x62
 4350 0bda 690B0000 		.4byte	0xb69
 4351 0bde 07       		.uleb128 0x7
 4352 0bdf 7D0C0000 		.4byte	.LASF183
 4353 0be3 20       		.byte	0x20
 4354 0be4 18       		.byte	0x18
 4355 0be5 75       		.byte	0x75
ARM GAS  /var/folders/3j/4xdnk5197cv_b7cw3n33qk7r0000gn/T//ccxkT2Pi.s 			page 78


 4356 0be6 4B0C0000 		.4byte	0xc4b
 4357 0bea 08       		.uleb128 0x8
 4358 0beb 85020000 		.4byte	.LASF123
 4359 0bef 18       		.byte	0x18
 4360 0bf0 76       		.byte	0x76
 4361 0bf1 CE070000 		.4byte	0x7ce
 4362 0bf5 00       		.byte	0
 4363 0bf6 08       		.uleb128 0x8
 4364 0bf7 340F0000 		.4byte	.LASF124
 4365 0bfb 18       		.byte	0x18
 4366 0bfc 76       		.byte	0x76
 4367 0bfd ED070000 		.4byte	0x7ed
 4368 0c01 04       		.byte	0x4
 4369 0c02 09       		.uleb128 0x9
 4370 0c03 70757400 		.ascii	"put\000"
 4371 0c07 18       		.byte	0x18
 4372 0c08 76       		.byte	0x76
 4373 0c09 07080000 		.4byte	0x807
 4374 0c0d 08       		.byte	0x8
 4375 0c0e 09       		.uleb128 0x9
 4376 0c0f 67657400 		.ascii	"get\000"
 4377 0c13 18       		.byte	0x18
 4378 0c14 76       		.byte	0x76
 4379 0c15 96050000 		.4byte	0x596
 4380 0c19 0C       		.byte	0xc
 4381 0c1a 08       		.uleb128 0x8
 4382 0c1b 27030000 		.4byte	.LASF184
 4383 0c1f 18       		.byte	0x18
 4384 0c20 76       		.byte	0x76
 4385 0c21 E6080000 		.4byte	0x8e6
 4386 0c25 10       		.byte	0x10
 4387 0c26 08       		.uleb128 0x8
 4388 0c27 1E090000 		.4byte	.LASF185
 4389 0c2b 18       		.byte	0x18
 4390 0c2c 76       		.byte	0x76
 4391 0c2d 00090000 		.4byte	0x900
 4392 0c31 14       		.byte	0x14
 4393 0c32 08       		.uleb128 0x8
 4394 0c33 02010000 		.4byte	.LASF186
 4395 0c37 18       		.byte	0x18
 4396 0c38 76       		.byte	0x76
 4397 0c39 24090000 		.4byte	0x924
 4398 0c3d 18       		.byte	0x18
 4399 0c3e 08       		.uleb128 0x8
 4400 0c3f 92040000 		.4byte	.LASF187
 4401 0c43 18       		.byte	0x18
 4402 0c44 76       		.byte	0x76
 4403 0c45 48090000 		.4byte	0x948
 4404 0c49 1C       		.byte	0x1c
 4405 0c4a 00       		.byte	0
 4406 0c4b 06       		.uleb128 0x6
 4407 0c4c DE0B0000 		.4byte	0xbde
 4408 0c50 0B       		.uleb128 0xb
 4409 0c51 04       		.byte	0x4
 4410 0c52 4B0C0000 		.4byte	0xc4b
 4411 0c56 13       		.uleb128 0x13
 4412 0c57 C4000000 		.4byte	0xc4
ARM GAS  /var/folders/3j/4xdnk5197cv_b7cw3n33qk7r0000gn/T//ccxkT2Pi.s 			page 79


 4413 0c5b 660C0000 		.4byte	0xc66
 4414 0c5f 14       		.uleb128 0x14
 4415 0c60 3E000000 		.4byte	0x3e
 4416 0c64 0F       		.byte	0xf
 4417 0c65 00       		.byte	0
 4418 0c66 18       		.uleb128 0x18
 4419 0c67 07       		.byte	0x7
 4420 0c68 01       		.byte	0x1
 4421 0c69 67000000 		.4byte	0x67
 4422 0c6d 19       		.byte	0x19
 4423 0c6e 4E       		.byte	0x4e
 4424 0c6f 920C0000 		.4byte	0xc92
 4425 0c73 19       		.uleb128 0x19
 4426 0c74 01050000 		.4byte	.LASF188
 4427 0c78 00       		.byte	0
 4428 0c79 19       		.uleb128 0x19
 4429 0c7a E1040000 		.4byte	.LASF189
 4430 0c7e 01       		.byte	0x1
 4431 0c7f 19       		.uleb128 0x19
 4432 0c80 8F0D0000 		.4byte	.LASF190
 4433 0c84 02       		.byte	0x2
 4434 0c85 19       		.uleb128 0x19
 4435 0c86 BE0F0000 		.4byte	.LASF191
 4436 0c8a 03       		.byte	0x3
 4437 0c8b 19       		.uleb128 0x19
 4438 0c8c 2D190000 		.4byte	.LASF192
 4439 0c90 04       		.byte	0x4
 4440 0c91 00       		.byte	0
 4441 0c92 04       		.uleb128 0x4
 4442 0c93 E0190000 		.4byte	.LASF193
 4443 0c97 19       		.byte	0x19
 4444 0c98 54       		.byte	0x54
 4445 0c99 660C0000 		.4byte	0xc66
 4446 0c9d 04       		.uleb128 0x4
 4447 0c9e 54080000 		.4byte	.LASF194
 4448 0ca2 1A       		.byte	0x1a
 4449 0ca3 35       		.byte	0x35
 4450 0ca4 A80C0000 		.4byte	0xca8
 4451 0ca8 07       		.uleb128 0x7
 4452 0ca9 54080000 		.4byte	.LASF194
 4453 0cad 28       		.byte	0x28
 4454 0cae 1A       		.byte	0x1a
 4455 0caf 7C       		.byte	0x7c
 4456 0cb0 090D0000 		.4byte	0xd09
 4457 0cb4 08       		.uleb128 0x8
 4458 0cb5 EE020000 		.4byte	.LASF156
 4459 0cb9 1A       		.byte	0x1a
 4460 0cba 80       		.byte	0x80
 4461 0cbb 920C0000 		.4byte	0xc92
 4462 0cbf 00       		.byte	0
 4463 0cc0 08       		.uleb128 0x8
 4464 0cc1 E7020000 		.4byte	.LASF157
 4465 0cc5 1A       		.byte	0x1a
 4466 0cc6 84       		.byte	0x84
 4467 0cc7 B00D0000 		.4byte	0xdb0
 4468 0ccb 04       		.byte	0x4
 4469 0ccc 08       		.uleb128 0x8
ARM GAS  /var/folders/3j/4xdnk5197cv_b7cw3n33qk7r0000gn/T//ccxkT2Pi.s 			page 80


 4470 0ccd 86160000 		.4byte	.LASF161
 4471 0cd1 1A       		.byte	0x1a
 4472 0cd2 89       		.byte	0x89
 4473 0cd3 8A020000 		.4byte	0x28a
 4474 0cd7 08       		.byte	0x8
 4475 0cd8 08       		.uleb128 0x8
 4476 0cd9 B50E0000 		.4byte	.LASF160
 4477 0cdd 1A       		.byte	0x1a
 4478 0cde 90       		.byte	0x90
 4479 0cdf CC040000 		.4byte	0x4cc
 4480 0ce3 0C       		.byte	0xc
 4481 0ce4 08       		.uleb128 0x8
 4482 0ce5 F9110000 		.4byte	.LASF166
 4483 0ce9 1A       		.byte	0x1a
 4484 0cea 98       		.byte	0x98
 4485 0ceb D1020000 		.4byte	0x2d1
 4486 0cef 1C       		.byte	0x1c
 4487 0cf0 08       		.uleb128 0x8
 4488 0cf1 A9050000 		.4byte	.LASF163
 4489 0cf5 1A       		.byte	0x1a
 4490 0cf6 9D       		.byte	0x9d
 4491 0cf7 B60D0000 		.4byte	0xdb6
 4492 0cfb 20       		.byte	0x20
 4493 0cfc 08       		.uleb128 0x8
 4494 0cfd 27050000 		.4byte	.LASF195
 4495 0d01 1A       		.byte	0x1a
 4496 0d02 A2       		.byte	0xa2
 4497 0d03 33000000 		.4byte	0x33
 4498 0d07 24       		.byte	0x24
 4499 0d08 00       		.byte	0
 4500 0d09 04       		.uleb128 0x4
 4501 0d0a D4060000 		.4byte	.LASF196
 4502 0d0e 1A       		.byte	0x1a
 4503 0d0f 3D       		.byte	0x3d
 4504 0d10 140D0000 		.4byte	0xd14
 4505 0d14 0B       		.uleb128 0xb
 4506 0d15 04       		.byte	0x4
 4507 0d16 1A0D0000 		.4byte	0xd1a
 4508 0d1a 0D       		.uleb128 0xd
 4509 0d1b 250D0000 		.4byte	0xd25
 4510 0d1f 0E       		.uleb128 0xe
 4511 0d20 250D0000 		.4byte	0xd25
 4512 0d24 00       		.byte	0
 4513 0d25 0B       		.uleb128 0xb
 4514 0d26 04       		.byte	0x4
 4515 0d27 9D0C0000 		.4byte	0xc9d
 4516 0d2b 0A       		.uleb128 0xa
 4517 0d2c 10       		.byte	0x10
 4518 0d2d 1A       		.byte	0x1a
 4519 0d2e 44       		.byte	0x44
 4520 0d2f A00D0000 		.4byte	0xda0
 4521 0d33 08       		.uleb128 0x8
 4522 0d34 02040000 		.4byte	.LASF197
 4523 0d38 1A       		.byte	0x1a
 4524 0d39 48       		.byte	0x48
 4525 0d3a 090D0000 		.4byte	0xd09
 4526 0d3e 00       		.byte	0
ARM GAS  /var/folders/3j/4xdnk5197cv_b7cw3n33qk7r0000gn/T//ccxkT2Pi.s 			page 81


 4527 0d3f 08       		.uleb128 0x8
 4528 0d40 A6130000 		.4byte	.LASF198
 4529 0d44 1A       		.byte	0x1a
 4530 0d45 4F       		.byte	0x4f
 4531 0d46 C4000000 		.4byte	0xc4
 4532 0d4a 04       		.byte	0x4
 4533 0d4b 08       		.uleb128 0x8
 4534 0d4c CF120000 		.4byte	.LASF199
 4535 0d50 1A       		.byte	0x1a
 4536 0d51 52       		.byte	0x52
 4537 0d52 C4000000 		.4byte	0xc4
 4538 0d56 05       		.byte	0x5
 4539 0d57 08       		.uleb128 0x8
 4540 0d58 931A0000 		.4byte	.LASF200
 4541 0d5c 1A       		.byte	0x1a
 4542 0d5d 58       		.byte	0x58
 4543 0d5e C4000000 		.4byte	0xc4
 4544 0d62 06       		.byte	0x6
 4545 0d63 08       		.uleb128 0x8
 4546 0d64 56120000 		.4byte	.LASF201
 4547 0d68 1A       		.byte	0x1a
 4548 0d69 5E       		.byte	0x5e
 4549 0d6a C4000000 		.4byte	0xc4
 4550 0d6e 07       		.byte	0x7
 4551 0d6f 08       		.uleb128 0x8
 4552 0d70 6C120000 		.4byte	.LASF202
 4553 0d74 1A       		.byte	0x1a
 4554 0d75 64       		.byte	0x64
 4555 0d76 C4000000 		.4byte	0xc4
 4556 0d7a 08       		.byte	0x8
 4557 0d7b 08       		.uleb128 0x8
 4558 0d7c A6120000 		.4byte	.LASF203
 4559 0d80 1A       		.byte	0x1a
 4560 0d81 6A       		.byte	0x6a
 4561 0d82 C4000000 		.4byte	0xc4
 4562 0d86 09       		.byte	0x9
 4563 0d87 08       		.uleb128 0x8
 4564 0d88 28000000 		.4byte	.LASF204
 4565 0d8c 1A       		.byte	0x1a
 4566 0d8d 70       		.byte	0x70
 4567 0d8e C4000000 		.4byte	0xc4
 4568 0d92 0A       		.byte	0xa
 4569 0d93 08       		.uleb128 0x8
 4570 0d94 950C0000 		.4byte	.LASF205
 4571 0d98 1A       		.byte	0x1a
 4572 0d99 73       		.byte	0x73
 4573 0d9a EA000000 		.4byte	0xea
 4574 0d9e 0C       		.byte	0xc
 4575 0d9f 00       		.byte	0
 4576 0da0 04       		.uleb128 0x4
 4577 0da1 910F0000 		.4byte	.LASF206
 4578 0da5 1A       		.byte	0x1a
 4579 0da6 75       		.byte	0x75
 4580 0da7 2B0D0000 		.4byte	0xd2b
 4581 0dab 06       		.uleb128 0x6
 4582 0dac A00D0000 		.4byte	0xda0
 4583 0db0 0B       		.uleb128 0xb
ARM GAS  /var/folders/3j/4xdnk5197cv_b7cw3n33qk7r0000gn/T//ccxkT2Pi.s 			page 82


 4584 0db1 04       		.byte	0x4
 4585 0db2 AB0D0000 		.4byte	0xdab
 4586 0db6 0B       		.uleb128 0xb
 4587 0db7 04       		.byte	0x4
 4588 0db8 BC0D0000 		.4byte	0xdbc
 4589 0dbc 1B       		.uleb128 0x1b
 4590 0dbd 0F       		.uleb128 0xf
 4591 0dbe 6D0E0000 		.4byte	.LASF207
 4592 0dc2 1A       		.byte	0x1a
 4593 0dc3 B6       		.byte	0xb6
 4594 0dc4 9D0C0000 		.4byte	0xc9d
 4595 0dc8 1C       		.uleb128 0x1c
 4596 0dc9 0B       		.uleb128 0xb
 4597 0dca 04       		.byte	0x4
 4598 0dcb C80D0000 		.4byte	0xdc8
 4599 0dcf 1D       		.uleb128 0x1d
 4600 0dd0 7805     		.2byte	0x578
 4601 0dd2 1B       		.byte	0x1b
 4602 0dd3 48       		.byte	0x48
 4603 0dd4 140E0000 		.4byte	0xe14
 4604 0dd8 09       		.uleb128 0x9
 4605 0dd9 543000   		.ascii	"T0\000"
 4606 0ddc 1B       		.byte	0x1b
 4607 0ddd 49       		.byte	0x49
 4608 0dde 140E0000 		.4byte	0xe14
 4609 0de2 00       		.byte	0
 4610 0de3 1E       		.uleb128 0x1e
 4611 0de4 543100   		.ascii	"T1\000"
 4612 0de7 1B       		.byte	0x1b
 4613 0de8 4A       		.byte	0x4a
 4614 0de9 140E0000 		.4byte	0xe14
 4615 0ded 1801     		.2byte	0x118
 4616 0def 1E       		.uleb128 0x1e
 4617 0df0 543200   		.ascii	"T2\000"
 4618 0df3 1B       		.byte	0x1b
 4619 0df4 4B       		.byte	0x4b
 4620 0df5 140E0000 		.4byte	0xe14
 4621 0df9 3002     		.2byte	0x230
 4622 0dfb 1E       		.uleb128 0x1e
 4623 0dfc 543300   		.ascii	"T3\000"
 4624 0dff 1B       		.byte	0x1b
 4625 0e00 4C       		.byte	0x4c
 4626 0e01 140E0000 		.4byte	0xe14
 4627 0e05 4803     		.2byte	0x348
 4628 0e07 1E       		.uleb128 0x1e
 4629 0e08 543400   		.ascii	"T4\000"
 4630 0e0b 1B       		.byte	0x1b
 4631 0e0c 4D       		.byte	0x4d
 4632 0e0d 140E0000 		.4byte	0xe14
 4633 0e11 6004     		.2byte	0x460
 4634 0e13 00       		.byte	0
 4635 0e14 13       		.uleb128 0x13
 4636 0e15 BB020000 		.4byte	0x2bb
 4637 0e19 240E0000 		.4byte	0xe24
 4638 0e1d 14       		.uleb128 0x14
 4639 0e1e 3E000000 		.4byte	0x3e
 4640 0e22 45       		.byte	0x45
ARM GAS  /var/folders/3j/4xdnk5197cv_b7cw3n33qk7r0000gn/T//ccxkT2Pi.s 			page 83


 4641 0e23 00       		.byte	0
 4642 0e24 1F       		.uleb128 0x1f
 4643 0e25 E8100000 		.4byte	.LASF540
 4644 0e29 7805     		.2byte	0x578
 4645 0e2b 1B       		.byte	0x1b
 4646 0e2c 47       		.byte	0x47
 4647 0e2d 470E0000 		.4byte	0xe47
 4648 0e31 20       		.uleb128 0x20
 4649 0e32 776100   		.ascii	"wa\000"
 4650 0e35 1B       		.byte	0x1b
 4651 0e36 4E       		.byte	0x4e
 4652 0e37 CF0D0000 		.4byte	0xdcf
 4653 0e3b 11       		.uleb128 0x11
 4654 0e3c 5A0A0000 		.4byte	.LASF208
 4655 0e40 1B       		.byte	0x1b
 4656 0e41 4F       		.byte	0x4f
 4657 0e42 470E0000 		.4byte	0xe47
 4658 0e46 00       		.byte	0
 4659 0e47 13       		.uleb128 0x13
 4660 0e48 C4000000 		.4byte	0xc4
 4661 0e4c 580E0000 		.4byte	0xe58
 4662 0e50 21       		.uleb128 0x21
 4663 0e51 3E000000 		.4byte	0x3e
 4664 0e55 7705     		.2byte	0x577
 4665 0e57 00       		.byte	0
 4666 0e58 13       		.uleb128 0x13
 4667 0e59 8A020000 		.4byte	0x28a
 4668 0e5d 680E0000 		.4byte	0xe68
 4669 0e61 14       		.uleb128 0x14
 4670 0e62 3E000000 		.4byte	0x3e
 4671 0e66 04       		.byte	0x4
 4672 0e67 00       		.byte	0
 4673 0e68 0F       		.uleb128 0xf
 4674 0e69 B7150000 		.4byte	.LASF209
 4675 0e6d 1B       		.byte	0x1b
 4676 0e6e A9       		.byte	0xa9
 4677 0e6f 580E0000 		.4byte	0xe58
 4678 0e73 0F       		.uleb128 0xf
 4679 0e74 60050000 		.4byte	.LASF210
 4680 0e78 1B       		.byte	0x1b
 4681 0e79 AA       		.byte	0xaa
 4682 0e7a 240E0000 		.4byte	0xe24
 4683 0e7e 13       		.uleb128 0x13
 4684 0e7f D3020000 		.4byte	0x2d3
 4685 0e83 890E0000 		.4byte	0xe89
 4686 0e87 22       		.uleb128 0x22
 4687 0e88 00       		.byte	0
 4688 0e89 06       		.uleb128 0x6
 4689 0e8a 7E0E0000 		.4byte	0xe7e
 4690 0e8e 1A       		.uleb128 0x1a
 4691 0e8f 776100   		.ascii	"wa\000"
 4692 0e92 1B       		.byte	0x1b
 4693 0e93 AB       		.byte	0xab
 4694 0e94 890E0000 		.4byte	0xe89
 4695 0e98 0F       		.uleb128 0xf
 4696 0e99 1E0B0000 		.4byte	.LASF211
 4697 0e9d 1B       		.byte	0x1b
ARM GAS  /var/folders/3j/4xdnk5197cv_b7cw3n33qk7r0000gn/T//ccxkT2Pi.s 			page 84


 4698 0e9e AC       		.byte	0xac
 4699 0e9f FA000000 		.4byte	0xfa
 4700 0ea3 04       		.uleb128 0x4
 4701 0ea4 AF090000 		.4byte	.LASF212
 4702 0ea8 1D       		.byte	0x1d
 4703 0ea9 31       		.byte	0x31
 4704 0eaa AE0E0000 		.4byte	0xeae
 4705 0eae 0B       		.uleb128 0xb
 4706 0eaf 04       		.byte	0x4
 4707 0eb0 B40E0000 		.4byte	0xeb4
 4708 0eb4 0D       		.uleb128 0xd
 4709 0eb5 C90E0000 		.4byte	0xec9
 4710 0eb9 0E       		.uleb128 0xe
 4711 0eba C90E0000 		.4byte	0xec9
 4712 0ebe 0E       		.uleb128 0xe
 4713 0ebf 2C000000 		.4byte	0x2c
 4714 0ec3 0E       		.uleb128 0xe
 4715 0ec4 CF0E0000 		.4byte	0xecf
 4716 0ec8 00       		.byte	0
 4717 0ec9 0B       		.uleb128 0xb
 4718 0eca 04       		.byte	0x4
 4719 0ecb 28080000 		.4byte	0x828
 4720 0ecf 0B       		.uleb128 0xb
 4721 0ed0 04       		.byte	0x4
 4722 0ed1 D50E0000 		.4byte	0xed5
 4723 0ed5 0B       		.uleb128 0xb
 4724 0ed6 04       		.byte	0x4
 4725 0ed7 84050000 		.4byte	0x584
 4726 0edb 0A       		.uleb128 0xa
 4727 0edc 08       		.byte	0x8
 4728 0edd 1D       		.byte	0x1d
 4729 0ede 36       		.byte	0x36
 4730 0edf FC0E0000 		.4byte	0xefc
 4731 0ee3 08       		.uleb128 0x8
 4732 0ee4 E8150000 		.4byte	.LASF213
 4733 0ee8 1D       		.byte	0x1d
 4734 0ee9 37       		.byte	0x37
 4735 0eea 7E050000 		.4byte	0x57e
 4736 0eee 00       		.byte	0
 4737 0eef 08       		.uleb128 0x8
 4738 0ef0 B1190000 		.4byte	.LASF214
 4739 0ef4 1D       		.byte	0x1d
 4740 0ef5 38       		.byte	0x38
 4741 0ef6 A30E0000 		.4byte	0xea3
 4742 0efa 04       		.byte	0x4
 4743 0efb 00       		.byte	0
 4744 0efc 04       		.uleb128 0x4
 4745 0efd 46170000 		.4byte	.LASF215
 4746 0f01 1D       		.byte	0x1d
 4747 0f02 39       		.byte	0x39
 4748 0f03 DB0E0000 		.4byte	0xedb
 4749 0f07 06       		.uleb128 0x6
 4750 0f08 FC0E0000 		.4byte	0xefc
 4751 0f0c 0A       		.uleb128 0xa
 4752 0f0d 08       		.byte	0x8
 4753 0f0e 1D       		.byte	0x1d
 4754 0f0f 3E       		.byte	0x3e
ARM GAS  /var/folders/3j/4xdnk5197cv_b7cw3n33qk7r0000gn/T//ccxkT2Pi.s 			page 85


 4755 0f10 2D0F0000 		.4byte	0xf2d
 4756 0f14 08       		.uleb128 0x8
 4757 0f15 2E090000 		.4byte	.LASF216
 4758 0f19 1D       		.byte	0x1d
 4759 0f1a 3F       		.byte	0x3f
 4760 0f1b C90E0000 		.4byte	0xec9
 4761 0f1f 00       		.byte	0
 4762 0f20 08       		.uleb128 0x8
 4763 0f21 7E180000 		.4byte	.LASF217
 4764 0f25 1D       		.byte	0x1d
 4765 0f26 41       		.byte	0x41
 4766 0f27 2D0F0000 		.4byte	0xf2d
 4767 0f2b 04       		.byte	0x4
 4768 0f2c 00       		.byte	0
 4769 0f2d 0B       		.uleb128 0xb
 4770 0f2e 04       		.byte	0x4
 4771 0f2f 070F0000 		.4byte	0xf07
 4772 0f33 04       		.uleb128 0x4
 4773 0f34 850A0000 		.4byte	.LASF218
 4774 0f38 1D       		.byte	0x1d
 4775 0f39 43       		.byte	0x43
 4776 0f3a 0C0F0000 		.4byte	0xf0c
 4777 0f3e 06       		.uleb128 0x6
 4778 0f3f 330F0000 		.4byte	0xf33
 4779 0f43 0F       		.uleb128 0xf
 4780 0f44 3F120000 		.4byte	.LASF219
 4781 0f48 1D       		.byte	0x1d
 4782 0f49 46       		.byte	0x46
 4783 0f4a 3E050000 		.4byte	0x53e
 4784 0f4e 02       		.uleb128 0x2
 4785 0f4f 08       		.byte	0x8
 4786 0f50 04       		.byte	0x4
 4787 0f51 D8110000 		.4byte	.LASF220
 4788 0f55 04       		.uleb128 0x4
 4789 0f56 CD050000 		.4byte	.LASF221
 4790 0f5a 1E       		.byte	0x1e
 4791 0f5b 6D       		.byte	0x6d
 4792 0f5c EA000000 		.4byte	0xea
 4793 0f60 04       		.uleb128 0x4
 4794 0f61 17160000 		.4byte	.LASF222
 4795 0f65 1F       		.byte	0x1f
 4796 0f66 36       		.byte	0x36
 4797 0f67 C4000000 		.4byte	0xc4
 4798 0f6b 04       		.uleb128 0x4
 4799 0f6c 0D030000 		.4byte	.LASF223
 4800 0f70 1F       		.byte	0x1f
 4801 0f71 64       		.byte	0x64
 4802 0f72 C4000000 		.4byte	0xc4
 4803 0f76 13       		.uleb128 0x13
 4804 0f77 84050000 		.4byte	0x584
 4805 0f7b 860F0000 		.4byte	0xf86
 4806 0f7f 14       		.uleb128 0x14
 4807 0f80 3E000000 		.4byte	0x3e
 4808 0f84 1F       		.byte	0x1f
 4809 0f85 00       		.byte	0
 4810 0f86 04       		.uleb128 0x4
 4811 0f87 8A080000 		.4byte	.LASF224
ARM GAS  /var/folders/3j/4xdnk5197cv_b7cw3n33qk7r0000gn/T//ccxkT2Pi.s 			page 86


 4812 0f8b 20       		.byte	0x20
 4813 0f8c 83       		.byte	0x83
 4814 0f8d B9000000 		.4byte	0xb9
 4815 0f91 04       		.uleb128 0x4
 4816 0f92 FA170000 		.4byte	.LASF225
 4817 0f96 20       		.byte	0x20
 4818 0f97 B5       		.byte	0xb5
 4819 0f98 C4000000 		.4byte	0xc4
 4820 0f9c 04       		.uleb128 0x4
 4821 0f9d 23060000 		.4byte	.LASF226
 4822 0fa1 20       		.byte	0x20
 4823 0fa2 C7       		.byte	0xc7
 4824 0fa3 C4000000 		.4byte	0xc4
 4825 0fa7 04       		.uleb128 0x4
 4826 0fa8 A30C0000 		.4byte	.LASF227
 4827 0fac 20       		.byte	0x20
 4828 0fad DA       		.byte	0xda
 4829 0fae C4000000 		.4byte	0xc4
 4830 0fb2 0A       		.uleb128 0xa
 4831 0fb3 40       		.byte	0x40
 4832 0fb4 20       		.byte	0x20
 4833 0fb5 EA       		.byte	0xea
 4834 0fb6 4E100000 		.4byte	0x104e
 4835 0fba 08       		.uleb128 0x8
 4836 0fbb 98040000 		.4byte	.LASF228
 4837 0fbf 20       		.byte	0x20
 4838 0fc0 EB       		.byte	0xeb
 4839 0fc1 910F0000 		.4byte	0xf91
 4840 0fc5 00       		.byte	0
 4841 0fc6 08       		.uleb128 0x8
 4842 0fc7 98120000 		.4byte	.LASF229
 4843 0fcb 20       		.byte	0x20
 4844 0fcc ED       		.byte	0xed
 4845 0fcd 9C0F0000 		.4byte	0xf9c
 4846 0fd1 01       		.byte	0x1
 4847 0fd2 08       		.uleb128 0x8
 4848 0fd3 5D0F0000 		.4byte	.LASF230
 4849 0fd7 20       		.byte	0x20
 4850 0fd8 F0       		.byte	0xf0
 4851 0fd9 EA000000 		.4byte	0xea
 4852 0fdd 04       		.byte	0x4
 4853 0fde 08       		.uleb128 0x8
 4854 0fdf 4C020000 		.4byte	.LASF231
 4855 0fe3 20       		.byte	0x20
 4856 0fe4 F2       		.byte	0xf2
 4857 0fe5 EA000000 		.4byte	0xea
 4858 0fe9 08       		.byte	0x8
 4859 0fea 08       		.uleb128 0x8
 4860 0feb F40F0000 		.4byte	.LASF232
 4861 0fef 20       		.byte	0x20
 4862 0ff0 F5       		.byte	0xf5
 4863 0ff1 C4000000 		.4byte	0xc4
 4864 0ff5 0C       		.byte	0xc
 4865 0ff6 08       		.uleb128 0x8
 4866 0ff7 62140000 		.4byte	.LASF233
 4867 0ffb 20       		.byte	0x20
 4868 0ffc F7       		.byte	0xf7
ARM GAS  /var/folders/3j/4xdnk5197cv_b7cw3n33qk7r0000gn/T//ccxkT2Pi.s 			page 87


 4869 0ffd D4000000 		.4byte	0xd4
 4870 1001 0E       		.byte	0xe
 4871 1002 08       		.uleb128 0x8
 4872 1003 CF140000 		.4byte	.LASF234
 4873 1007 20       		.byte	0x20
 4874 1008 F9       		.byte	0xf9
 4875 1009 550F0000 		.4byte	0xf55
 4876 100d 10       		.byte	0x10
 4877 100e 08       		.uleb128 0x8
 4878 100f FF110000 		.4byte	.LASF235
 4879 1013 20       		.byte	0x20
 4880 1014 FC       		.byte	0xfc
 4881 1015 DF000000 		.4byte	0xdf
 4882 1019 14       		.byte	0x14
 4883 101a 08       		.uleb128 0x8
 4884 101b 6B0D0000 		.4byte	.LASF236
 4885 101f 20       		.byte	0x20
 4886 1020 FF       		.byte	0xff
 4887 1021 4E100000 		.4byte	0x104e
 4888 1025 18       		.byte	0x18
 4889 1026 15       		.uleb128 0x15
 4890 1027 50140000 		.4byte	.LASF237
 4891 102b 20       		.byte	0x20
 4892 102c 0101     		.2byte	0x101
 4893 102e 4E100000 		.4byte	0x104e
 4894 1032 1E       		.byte	0x1e
 4895 1033 15       		.uleb128 0x15
 4896 1034 C6100000 		.4byte	.LASF238
 4897 1038 20       		.byte	0x20
 4898 1039 0401     		.2byte	0x104
 4899 103b 5E100000 		.4byte	0x105e
 4900 103f 24       		.byte	0x24
 4901 1040 15       		.uleb128 0x15
 4902 1041 E8070000 		.4byte	.LASF239
 4903 1045 20       		.byte	0x20
 4904 1046 0701     		.2byte	0x107
 4905 1048 C4000000 		.4byte	0xc4
 4906 104c 3C       		.byte	0x3c
 4907 104d 00       		.byte	0
 4908 104e 13       		.uleb128 0x13
 4909 104f C4000000 		.4byte	0xc4
 4910 1053 5E100000 		.4byte	0x105e
 4911 1057 14       		.uleb128 0x14
 4912 1058 3E000000 		.4byte	0x3e
 4913 105c 05       		.byte	0x5
 4914 105d 00       		.byte	0
 4915 105e 13       		.uleb128 0x13
 4916 105f 550F0000 		.4byte	0xf55
 4917 1063 6E100000 		.4byte	0x106e
 4918 1067 14       		.uleb128 0x14
 4919 1068 3E000000 		.4byte	0x3e
 4920 106c 05       		.byte	0x5
 4921 106d 00       		.byte	0
 4922 106e 16       		.uleb128 0x16
 4923 106f EE090000 		.4byte	.LASF240
 4924 1073 20       		.byte	0x20
 4925 1074 0901     		.2byte	0x109
ARM GAS  /var/folders/3j/4xdnk5197cv_b7cw3n33qk7r0000gn/T//ccxkT2Pi.s 			page 88


 4926 1076 B20F0000 		.4byte	0xfb2
 4927 107a 16       		.uleb128 0x16
 4928 107b A5070000 		.4byte	.LASF241
 4929 107f 20       		.byte	0x20
 4930 1080 1101     		.2byte	0x111
 4931 1082 C4000000 		.4byte	0xc4
 4932 1086 23       		.uleb128 0x23
 4933 1087 08       		.byte	0x8
 4934 1088 20       		.byte	0x20
 4935 1089 2701     		.2byte	0x127
 4936 108b AA100000 		.4byte	0x10aa
 4937 108f 15       		.uleb128 0x15
 4938 1090 66180000 		.4byte	.LASF242
 4939 1094 20       		.byte	0x20
 4940 1095 2801     		.2byte	0x128
 4941 1097 DF000000 		.4byte	0xdf
 4942 109b 00       		.byte	0
 4943 109c 15       		.uleb128 0x15
 4944 109d C90F0000 		.4byte	.LASF243
 4945 10a1 20       		.byte	0x20
 4946 10a2 2A01     		.2byte	0x12a
 4947 10a4 DF000000 		.4byte	0xdf
 4948 10a8 04       		.byte	0x4
 4949 10a9 00       		.byte	0
 4950 10aa 16       		.uleb128 0x16
 4951 10ab A70D0000 		.4byte	.LASF244
 4952 10af 20       		.byte	0x20
 4953 10b0 2C01     		.2byte	0x12c
 4954 10b2 86100000 		.4byte	0x1086
 4955 10b6 23       		.uleb128 0x23
 4956 10b7 1C       		.byte	0x1c
 4957 10b8 20       		.byte	0x20
 4958 10b9 3201     		.2byte	0x132
 4959 10bb 42110000 		.4byte	0x1142
 4960 10bf 15       		.uleb128 0x15
 4961 10c0 F0150000 		.4byte	.LASF245
 4962 10c4 20       		.byte	0x20
 4963 10c5 3301     		.2byte	0x133
 4964 10c7 EA000000 		.4byte	0xea
 4965 10cb 00       		.byte	0
 4966 10cc 15       		.uleb128 0x15
 4967 10cd 1F120000 		.4byte	.LASF246
 4968 10d1 20       		.byte	0x20
 4969 10d2 3401     		.2byte	0x134
 4970 10d4 EA000000 		.4byte	0xea
 4971 10d8 04       		.byte	0x4
 4972 10d9 15       		.uleb128 0x15
 4973 10da 96190000 		.4byte	.LASF247
 4974 10de 20       		.byte	0x20
 4975 10df 3901     		.2byte	0x139
 4976 10e1 D4000000 		.4byte	0xd4
 4977 10e5 08       		.byte	0x8
 4978 10e6 15       		.uleb128 0x15
 4979 10e7 0B020000 		.4byte	.LASF248
 4980 10eb 20       		.byte	0x20
 4981 10ec 3B01     		.2byte	0x13b
 4982 10ee D4000000 		.4byte	0xd4
ARM GAS  /var/folders/3j/4xdnk5197cv_b7cw3n33qk7r0000gn/T//ccxkT2Pi.s 			page 89


 4983 10f2 0A       		.byte	0xa
 4984 10f3 15       		.uleb128 0x15
 4985 10f4 02160000 		.4byte	.LASF249
 4986 10f8 20       		.byte	0x20
 4987 10f9 4001     		.2byte	0x140
 4988 10fb 550F0000 		.4byte	0xf55
 4989 10ff 0C       		.byte	0xc
 4990 1100 15       		.uleb128 0x15
 4991 1101 0D060000 		.4byte	.LASF250
 4992 1105 20       		.byte	0x20
 4993 1106 4401     		.2byte	0x144
 4994 1108 550F0000 		.4byte	0xf55
 4995 110c 10       		.byte	0x10
 4996 110d 15       		.uleb128 0x15
 4997 110e 55090000 		.4byte	.LASF251
 4998 1112 20       		.byte	0x20
 4999 1113 4901     		.2byte	0x149
 5000 1115 D4000000 		.4byte	0xd4
 5001 1119 14       		.byte	0x14
 5002 111a 15       		.uleb128 0x15
 5003 111b 17090000 		.4byte	.LASF252
 5004 111f 20       		.byte	0x20
 5005 1120 4D01     		.2byte	0x14d
 5006 1122 C4000000 		.4byte	0xc4
 5007 1126 16       		.byte	0x16
 5008 1127 15       		.uleb128 0x15
 5009 1128 E9010000 		.4byte	.LASF253
 5010 112c 20       		.byte	0x20
 5011 112d 5001     		.2byte	0x150
 5012 112f C4000000 		.4byte	0xc4
 5013 1133 17       		.byte	0x17
 5014 1134 15       		.uleb128 0x15
 5015 1135 A3040000 		.4byte	.LASF254
 5016 1139 20       		.byte	0x20
 5017 113a 5301     		.2byte	0x153
 5018 113c C4000000 		.4byte	0xc4
 5019 1140 18       		.byte	0x18
 5020 1141 00       		.byte	0
 5021 1142 16       		.uleb128 0x16
 5022 1143 D00D0000 		.4byte	.LASF255
 5023 1147 20       		.byte	0x20
 5024 1148 5701     		.2byte	0x157
 5025 114a B6100000 		.4byte	0x10b6
 5026 114e 23       		.uleb128 0x23
 5027 114f 68       		.byte	0x68
 5028 1150 20       		.byte	0x20
 5029 1151 6001     		.2byte	0x160
 5030 1153 A6110000 		.4byte	0x11a6
 5031 1157 15       		.uleb128 0x15
 5032 1158 C9160000 		.4byte	.LASF256
 5033 115c 20       		.byte	0x20
 5034 115d 6201     		.2byte	0x162
 5035 115f A6110000 		.4byte	0x11a6
 5036 1163 00       		.byte	0
 5037 1164 15       		.uleb128 0x15
 5038 1165 3A110000 		.4byte	.LASF257
 5039 1169 20       		.byte	0x20
ARM GAS  /var/folders/3j/4xdnk5197cv_b7cw3n33qk7r0000gn/T//ccxkT2Pi.s 			page 90


 5040 116a 6401     		.2byte	0x164
 5041 116c C4000000 		.4byte	0xc4
 5042 1170 60       		.byte	0x60
 5043 1171 15       		.uleb128 0x15
 5044 1172 F20A0000 		.4byte	.LASF258
 5045 1176 20       		.byte	0x20
 5046 1177 6601     		.2byte	0x166
 5047 1179 C4000000 		.4byte	0xc4
 5048 117d 61       		.byte	0x61
 5049 117e 15       		.uleb128 0x15
 5050 117f C1040000 		.4byte	.LASF259
 5051 1183 20       		.byte	0x20
 5052 1184 6701     		.2byte	0x167
 5053 1186 C4000000 		.4byte	0xc4
 5054 118a 62       		.byte	0x62
 5055 118b 15       		.uleb128 0x15
 5056 118c C1110000 		.4byte	.LASF260
 5057 1190 20       		.byte	0x20
 5058 1191 6801     		.2byte	0x168
 5059 1193 C4000000 		.4byte	0xc4
 5060 1197 63       		.byte	0x63
 5061 1198 15       		.uleb128 0x15
 5062 1199 82120000 		.4byte	.LASF261
 5063 119d 20       		.byte	0x20
 5064 119e 6B01     		.2byte	0x16b
 5065 11a0 600F0000 		.4byte	0xf60
 5066 11a4 64       		.byte	0x64
 5067 11a5 00       		.byte	0
 5068 11a6 13       		.uleb128 0x13
 5069 11a7 EA000000 		.4byte	0xea
 5070 11ab B6110000 		.4byte	0x11b6
 5071 11af 14       		.uleb128 0x14
 5072 11b0 3E000000 		.4byte	0x3e
 5073 11b4 17       		.byte	0x17
 5074 11b5 00       		.byte	0
 5075 11b6 16       		.uleb128 0x16
 5076 11b7 E1080000 		.4byte	.LASF262
 5077 11bb 20       		.byte	0x20
 5078 11bc 6E01     		.2byte	0x16e
 5079 11be 4E110000 		.4byte	0x114e
 5080 11c2 23       		.uleb128 0x23
 5081 11c3 0C       		.byte	0xc
 5082 11c4 20       		.byte	0x20
 5083 11c5 7601     		.2byte	0x176
 5084 11c7 E6110000 		.4byte	0x11e6
 5085 11cb 15       		.uleb128 0x15
 5086 11cc F0050000 		.4byte	.LASF263
 5087 11d0 20       		.byte	0x20
 5088 11d1 7701     		.2byte	0x177
 5089 11d3 4E100000 		.4byte	0x104e
 5090 11d7 00       		.byte	0
 5091 11d8 15       		.uleb128 0x15
 5092 11d9 48110000 		.4byte	.LASF264
 5093 11dd 20       		.byte	0x20
 5094 11de 7901     		.2byte	0x179
 5095 11e0 4E100000 		.4byte	0x104e
 5096 11e4 06       		.byte	0x6
ARM GAS  /var/folders/3j/4xdnk5197cv_b7cw3n33qk7r0000gn/T//ccxkT2Pi.s 			page 91


 5097 11e5 00       		.byte	0
 5098 11e6 16       		.uleb128 0x16
 5099 11e7 D80F0000 		.4byte	.LASF265
 5100 11eb 20       		.byte	0x20
 5101 11ec 7B01     		.2byte	0x17b
 5102 11ee C2110000 		.4byte	0x11c2
 5103 11f2 23       		.uleb128 0x23
 5104 11f3 50       		.byte	0x50
 5105 11f4 20       		.byte	0x20
 5106 11f5 7D01     		.2byte	0x17d
 5107 11f7 00130000 		.4byte	0x1300
 5108 11fb 15       		.uleb128 0x15
 5109 11fc A81A0000 		.4byte	.LASF266
 5110 1200 20       		.byte	0x20
 5111 1201 7E01     		.2byte	0x17e
 5112 1203 550F0000 		.4byte	0xf55
 5113 1207 00       		.byte	0
 5114 1208 15       		.uleb128 0x15
 5115 1209 98000000 		.4byte	.LASF267
 5116 120d 20       		.byte	0x20
 5117 120e 8001     		.2byte	0x180
 5118 1210 D4000000 		.4byte	0xd4
 5119 1214 04       		.byte	0x4
 5120 1215 15       		.uleb128 0x15
 5121 1216 1B170000 		.4byte	.LASF268
 5122 121a 20       		.byte	0x20
 5123 121b 8301     		.2byte	0x183
 5124 121d 6B0F0000 		.4byte	0xf6b
 5125 1221 06       		.byte	0x6
 5126 1222 15       		.uleb128 0x15
 5127 1223 05150000 		.4byte	.LASF269
 5128 1227 20       		.byte	0x20
 5129 1228 8601     		.2byte	0x186
 5130 122a EA000000 		.4byte	0xea
 5131 122e 08       		.byte	0x8
 5132 122f 15       		.uleb128 0x15
 5133 1230 D2130000 		.4byte	.LASF270
 5134 1234 20       		.byte	0x20
 5135 1235 8801     		.2byte	0x188
 5136 1237 C4000000 		.4byte	0xc4
 5137 123b 0C       		.byte	0xc
 5138 123c 15       		.uleb128 0x15
 5139 123d FE130000 		.4byte	.LASF271
 5140 1241 20       		.byte	0x20
 5141 1242 8A01     		.2byte	0x18a
 5142 1244 EA000000 		.4byte	0xea
 5143 1248 10       		.byte	0x10
 5144 1249 15       		.uleb128 0x15
 5145 124a 410A0000 		.4byte	.LASF272
 5146 124e 20       		.byte	0x20
 5147 124f 8C01     		.2byte	0x18c
 5148 1251 C4000000 		.4byte	0xc4
 5149 1255 14       		.byte	0x14
 5150 1256 15       		.uleb128 0x15
 5151 1257 05110000 		.4byte	.LASF273
 5152 125b 20       		.byte	0x20
 5153 125c 8F01     		.2byte	0x18f
ARM GAS  /var/folders/3j/4xdnk5197cv_b7cw3n33qk7r0000gn/T//ccxkT2Pi.s 			page 92


 5154 125e D4000000 		.4byte	0xd4
 5155 1262 16       		.byte	0x16
 5156 1263 15       		.uleb128 0x15
 5157 1264 94020000 		.4byte	.LASF274
 5158 1268 20       		.byte	0x20
 5159 1269 9101     		.2byte	0x191
 5160 126b D4000000 		.4byte	0xd4
 5161 126f 18       		.byte	0x18
 5162 1270 15       		.uleb128 0x15
 5163 1271 5C040000 		.4byte	.LASF275
 5164 1275 20       		.byte	0x20
 5165 1276 9401     		.2byte	0x194
 5166 1278 D4000000 		.4byte	0xd4
 5167 127c 1A       		.byte	0x1a
 5168 127d 15       		.uleb128 0x15
 5169 127e 461A0000 		.4byte	.LASF276
 5170 1282 20       		.byte	0x20
 5171 1283 9901     		.2byte	0x199
 5172 1285 C4000000 		.4byte	0xc4
 5173 1289 1C       		.byte	0x1c
 5174 128a 15       		.uleb128 0x15
 5175 128b 3A060000 		.4byte	.LASF277
 5176 128f 20       		.byte	0x20
 5177 1290 9B01     		.2byte	0x19b
 5178 1292 C4000000 		.4byte	0xc4
 5179 1296 1D       		.byte	0x1d
 5180 1297 15       		.uleb128 0x15
 5181 1298 310E0000 		.4byte	.LASF278
 5182 129c 20       		.byte	0x20
 5183 129d 9C01     		.2byte	0x19c
 5184 129f C4000000 		.4byte	0xc4
 5185 12a3 1E       		.byte	0x1e
 5186 12a4 15       		.uleb128 0x15
 5187 12a5 81060000 		.4byte	.LASF279
 5188 12a9 20       		.byte	0x20
 5189 12aa 9D01     		.2byte	0x19d
 5190 12ac 760F0000 		.4byte	0xf76
 5191 12b0 1F       		.byte	0x1f
 5192 12b1 15       		.uleb128 0x15
 5193 12b2 AC060000 		.4byte	.LASF280
 5194 12b6 20       		.byte	0x20
 5195 12b7 9F01     		.2byte	0x19f
 5196 12b9 C4000000 		.4byte	0xc4
 5197 12bd 3F       		.byte	0x3f
 5198 12be 15       		.uleb128 0x15
 5199 12bf CC070000 		.4byte	.LASF281
 5200 12c3 20       		.byte	0x20
 5201 12c4 A001     		.2byte	0x1a0
 5202 12c6 C4000000 		.4byte	0xc4
 5203 12ca 40       		.byte	0x40
 5204 12cb 15       		.uleb128 0x15
 5205 12cc DC050000 		.4byte	.LASF282
 5206 12d0 20       		.byte	0x20
 5207 12d1 A101     		.2byte	0x1a1
 5208 12d3 C4000000 		.4byte	0xc4
 5209 12d7 41       		.byte	0x41
 5210 12d8 15       		.uleb128 0x15
ARM GAS  /var/folders/3j/4xdnk5197cv_b7cw3n33qk7r0000gn/T//ccxkT2Pi.s 			page 93


 5211 12d9 83140000 		.4byte	.LASF283
 5212 12dd 20       		.byte	0x20
 5213 12de A201     		.2byte	0x1a2
 5214 12e0 EA000000 		.4byte	0xea
 5215 12e4 44       		.byte	0x44
 5216 12e5 15       		.uleb128 0x15
 5217 12e6 DF0B0000 		.4byte	.LASF284
 5218 12ea 20       		.byte	0x20
 5219 12eb A301     		.2byte	0x1a3
 5220 12ed EA000000 		.4byte	0xea
 5221 12f1 48       		.byte	0x48
 5222 12f2 15       		.uleb128 0x15
 5223 12f3 6F150000 		.4byte	.LASF285
 5224 12f7 20       		.byte	0x20
 5225 12f8 A401     		.2byte	0x1a4
 5226 12fa 550F0000 		.4byte	0xf55
 5227 12fe 4C       		.byte	0x4c
 5228 12ff 00       		.byte	0
 5229 1300 16       		.uleb128 0x16
 5230 1301 1C130000 		.4byte	.LASF286
 5231 1305 20       		.byte	0x20
 5232 1306 A701     		.2byte	0x1a7
 5233 1308 F2110000 		.4byte	0x11f2
 5234 130c 24       		.uleb128 0x24
 5235 130d 5C01     		.2byte	0x15c
 5236 130f 20       		.byte	0x20
 5237 1310 B101     		.2byte	0x1b1
 5238 1312 6E140000 		.4byte	0x146e
 5239 1316 15       		.uleb128 0x15
 5240 1317 9B0F0000 		.4byte	.LASF287
 5241 131b 20       		.byte	0x20
 5242 131c B201     		.2byte	0x1b2
 5243 131e AA100000 		.4byte	0x10aa
 5244 1322 00       		.byte	0
 5245 1323 15       		.uleb128 0x15
 5246 1324 72170000 		.4byte	.LASF288
 5247 1328 20       		.byte	0x20
 5248 1329 B401     		.2byte	0x1b4
 5249 132b DF000000 		.4byte	0xdf
 5250 132f 08       		.byte	0x8
 5251 1330 15       		.uleb128 0x15
 5252 1331 310C0000 		.4byte	.LASF289
 5253 1335 20       		.byte	0x20
 5254 1336 B601     		.2byte	0x1b6
 5255 1338 DF000000 		.4byte	0xdf
 5256 133c 0C       		.byte	0xc
 5257 133d 15       		.uleb128 0x15
 5258 133e 7D0D0000 		.4byte	.LASF290
 5259 1342 20       		.byte	0x20
 5260 1343 B801     		.2byte	0x1b8
 5261 1345 6E100000 		.4byte	0x106e
 5262 1349 10       		.byte	0x10
 5263 134a 15       		.uleb128 0x15
 5264 134b F70E0000 		.4byte	.LASF291
 5265 134f 20       		.byte	0x20
 5266 1350 BA01     		.2byte	0x1ba
 5267 1352 42110000 		.4byte	0x1142
ARM GAS  /var/folders/3j/4xdnk5197cv_b7cw3n33qk7r0000gn/T//ccxkT2Pi.s 			page 94


 5268 1356 50       		.byte	0x50
 5269 1357 15       		.uleb128 0x15
 5270 1358 170D0000 		.4byte	.LASF292
 5271 135c 20       		.byte	0x20
 5272 135d BC01     		.2byte	0x1bc
 5273 135f B6110000 		.4byte	0x11b6
 5274 1363 6C       		.byte	0x6c
 5275 1364 15       		.uleb128 0x15
 5276 1365 37140000 		.4byte	.LASF293
 5277 1369 20       		.byte	0x20
 5278 136a BE01     		.2byte	0x1be
 5279 136c 00130000 		.4byte	0x1300
 5280 1370 D4       		.byte	0xd4
 5281 1371 25       		.uleb128 0x25
 5282 1372 57070000 		.4byte	.LASF294
 5283 1376 20       		.byte	0x20
 5284 1377 C001     		.2byte	0x1c0
 5285 1379 E6110000 		.4byte	0x11e6
 5286 137d 2401     		.2byte	0x124
 5287 137f 25       		.uleb128 0x25
 5288 1380 1E190000 		.4byte	.LASF295
 5289 1384 20       		.byte	0x20
 5290 1385 C201     		.2byte	0x1c2
 5291 1387 C4000000 		.4byte	0xc4
 5292 138b 3001     		.2byte	0x130
 5293 138d 25       		.uleb128 0x25
 5294 138e FF180000 		.4byte	.LASF296
 5295 1392 20       		.byte	0x20
 5296 1393 C401     		.2byte	0x1c4
 5297 1395 C4000000 		.4byte	0xc4
 5298 1399 3101     		.2byte	0x131
 5299 139b 25       		.uleb128 0x25
 5300 139c 98180000 		.4byte	.LASF297
 5301 13a0 20       		.byte	0x20
 5302 13a1 C601     		.2byte	0x1c6
 5303 13a3 7A100000 		.4byte	0x107a
 5304 13a7 3201     		.2byte	0x132
 5305 13a9 25       		.uleb128 0x25
 5306 13aa F0170000 		.4byte	.LASF298
 5307 13ae 20       		.byte	0x20
 5308 13af C801     		.2byte	0x1c8
 5309 13b1 A70F0000 		.4byte	0xfa7
 5310 13b5 3301     		.2byte	0x133
 5311 13b7 25       		.uleb128 0x25
 5312 13b8 05110000 		.4byte	.LASF273
 5313 13bc 20       		.byte	0x20
 5314 13bd CA01     		.2byte	0x1ca
 5315 13bf D4000000 		.4byte	0xd4
 5316 13c3 3401     		.2byte	0x134
 5317 13c5 25       		.uleb128 0x25
 5318 13c6 94020000 		.4byte	.LASF274
 5319 13ca 20       		.byte	0x20
 5320 13cb CC01     		.2byte	0x1cc
 5321 13cd D4000000 		.4byte	0xd4
 5322 13d1 3601     		.2byte	0x136
 5323 13d3 25       		.uleb128 0x25
 5324 13d4 5C040000 		.4byte	.LASF275
ARM GAS  /var/folders/3j/4xdnk5197cv_b7cw3n33qk7r0000gn/T//ccxkT2Pi.s 			page 95


 5325 13d8 20       		.byte	0x20
 5326 13d9 CF01     		.2byte	0x1cf
 5327 13db D4000000 		.4byte	0xd4
 5328 13df 3801     		.2byte	0x138
 5329 13e1 25       		.uleb128 0x25
 5330 13e2 3F130000 		.4byte	.LASF299
 5331 13e6 20       		.byte	0x20
 5332 13e7 D201     		.2byte	0x1d2
 5333 13e9 C4000000 		.4byte	0xc4
 5334 13ed 3A01     		.2byte	0x13a
 5335 13ef 25       		.uleb128 0x25
 5336 13f0 330A0000 		.4byte	.LASF300
 5337 13f4 20       		.byte	0x20
 5338 13f5 D401     		.2byte	0x1d4
 5339 13f7 D4000000 		.4byte	0xd4
 5340 13fb 3C01     		.2byte	0x13c
 5341 13fd 25       		.uleb128 0x25
 5342 13fe 70070000 		.4byte	.LASF301
 5343 1402 20       		.byte	0x20
 5344 1403 D601     		.2byte	0x1d6
 5345 1405 550F0000 		.4byte	0xf55
 5346 1409 4001     		.2byte	0x140
 5347 140b 25       		.uleb128 0x25
 5348 140c C10A0000 		.4byte	.LASF302
 5349 1410 20       		.byte	0x20
 5350 1411 D901     		.2byte	0x1d9
 5351 1413 550F0000 		.4byte	0xf55
 5352 1417 4401     		.2byte	0x144
 5353 1419 25       		.uleb128 0x25
 5354 141a 8B090000 		.4byte	.LASF303
 5355 141e 20       		.byte	0x20
 5356 141f DB01     		.2byte	0x1db
 5357 1421 550F0000 		.4byte	0xf55
 5358 1425 4801     		.2byte	0x148
 5359 1427 25       		.uleb128 0x25
 5360 1428 120C0000 		.4byte	.LASF304
 5361 142c 20       		.byte	0x20
 5362 142d DD01     		.2byte	0x1dd
 5363 142f 51070000 		.4byte	0x751
 5364 1433 4C01     		.2byte	0x14c
 5365 1435 25       		.uleb128 0x25
 5366 1436 A40F0000 		.4byte	.LASF305
 5367 143a 20       		.byte	0x20
 5368 143b DF01     		.2byte	0x1df
 5369 143d C4000000 		.4byte	0xc4
 5370 1441 5001     		.2byte	0x150
 5371 1443 25       		.uleb128 0x25
 5372 1444 7B110000 		.4byte	.LASF306
 5373 1448 20       		.byte	0x20
 5374 1449 E101     		.2byte	0x1e1
 5375 144b D4000000 		.4byte	0xd4
 5376 144f 5201     		.2byte	0x152
 5377 1451 25       		.uleb128 0x25
 5378 1452 4D160000 		.4byte	.LASF307
 5379 1456 20       		.byte	0x20
 5380 1457 E301     		.2byte	0x1e3
 5381 1459 D4000000 		.4byte	0xd4
ARM GAS  /var/folders/3j/4xdnk5197cv_b7cw3n33qk7r0000gn/T//ccxkT2Pi.s 			page 96


 5382 145d 5401     		.2byte	0x154
 5383 145f 25       		.uleb128 0x25
 5384 1460 F6190000 		.4byte	.LASF308
 5385 1464 20       		.byte	0x20
 5386 1465 E501     		.2byte	0x1e5
 5387 1467 550F0000 		.4byte	0xf55
 5388 146b 5801     		.2byte	0x158
 5389 146d 00       		.byte	0
 5390 146e 16       		.uleb128 0x16
 5391 146f 51100000 		.4byte	.LASF309
 5392 1473 20       		.byte	0x20
 5393 1474 E801     		.2byte	0x1e8
 5394 1476 0C130000 		.4byte	0x130c
 5395 147a 04       		.uleb128 0x4
 5396 147b 24180000 		.4byte	.LASF310
 5397 147f 21       		.byte	0x21
 5398 1480 22       		.byte	0x22
 5399 1481 85140000 		.4byte	0x1485
 5400 1485 0B       		.uleb128 0xb
 5401 1486 04       		.byte	0x4
 5402 1487 8B140000 		.4byte	0x148b
 5403 148b 26       		.uleb128 0x26
 5404 148c 960A0000 		.4byte	.LASF416
 5405 1490 04       		.uleb128 0x4
 5406 1491 4E190000 		.4byte	.LASF311
 5407 1495 22       		.byte	0x22
 5408 1496 2C       		.byte	0x2c
 5409 1497 92000000 		.4byte	0x92
 5410 149b 04       		.uleb128 0x4
 5411 149c B5120000 		.4byte	.LASF312
 5412 14a0 22       		.byte	0x22
 5413 14a1 72       		.byte	0x72
 5414 14a2 92000000 		.4byte	0x92
 5415 14a6 16       		.uleb128 0x16
 5416 14a7 3F150000 		.4byte	.LASF313
 5417 14ab 05       		.byte	0x5
 5418 14ac 6501     		.2byte	0x165
 5419 14ae 3E000000 		.4byte	0x3e
 5420 14b2 10       		.uleb128 0x10
 5421 14b3 04       		.byte	0x4
 5422 14b4 22       		.byte	0x22
 5423 14b5 A6       		.byte	0xa6
 5424 14b6 D1140000 		.4byte	0x14d1
 5425 14ba 11       		.uleb128 0x11
 5426 14bb 09040000 		.4byte	.LASF314
 5427 14bf 22       		.byte	0x22
 5428 14c0 A8       		.byte	0xa8
 5429 14c1 A6140000 		.4byte	0x14a6
 5430 14c5 11       		.uleb128 0x11
 5431 14c6 BD120000 		.4byte	.LASF315
 5432 14ca 22       		.byte	0x22
 5433 14cb A9       		.byte	0xa9
 5434 14cc D1140000 		.4byte	0x14d1
 5435 14d0 00       		.byte	0
 5436 14d1 13       		.uleb128 0x13
 5437 14d2 67000000 		.4byte	0x67
 5438 14d6 E1140000 		.4byte	0x14e1
ARM GAS  /var/folders/3j/4xdnk5197cv_b7cw3n33qk7r0000gn/T//ccxkT2Pi.s 			page 97


 5439 14da 14       		.uleb128 0x14
 5440 14db 3E000000 		.4byte	0x3e
 5441 14df 03       		.byte	0x3
 5442 14e0 00       		.byte	0
 5443 14e1 0A       		.uleb128 0xa
 5444 14e2 08       		.byte	0x8
 5445 14e3 22       		.byte	0x22
 5446 14e4 A3       		.byte	0xa3
 5447 14e5 02150000 		.4byte	0x1502
 5448 14e9 08       		.uleb128 0x8
 5449 14ea 73110000 		.4byte	.LASF316
 5450 14ee 22       		.byte	0x22
 5451 14ef A5       		.byte	0xa5
 5452 14f0 2C000000 		.4byte	0x2c
 5453 14f4 00       		.byte	0
 5454 14f5 08       		.uleb128 0x8
 5455 14f6 34000000 		.4byte	.LASF317
 5456 14fa 22       		.byte	0x22
 5457 14fb AA       		.byte	0xaa
 5458 14fc B2140000 		.4byte	0x14b2
 5459 1500 04       		.byte	0x4
 5460 1501 00       		.byte	0
 5461 1502 04       		.uleb128 0x4
 5462 1503 FA140000 		.4byte	.LASF318
 5463 1507 22       		.byte	0x22
 5464 1508 AB       		.byte	0xab
 5465 1509 E1140000 		.4byte	0x14e1
 5466 150d 04       		.uleb128 0x4
 5467 150e AB140000 		.4byte	.LASF319
 5468 1512 22       		.byte	0x22
 5469 1513 AF       		.byte	0xaf
 5470 1514 7A140000 		.4byte	0x147a
 5471 1518 04       		.uleb128 0x4
 5472 1519 A9180000 		.4byte	.LASF320
 5473 151d 23       		.byte	0x23
 5474 151e 16       		.byte	0x16
 5475 151f A4000000 		.4byte	0xa4
 5476 1523 07       		.uleb128 0x7
 5477 1524 CF0C0000 		.4byte	.LASF321
 5478 1528 18       		.byte	0x18
 5479 1529 23       		.byte	0x23
 5480 152a 2F       		.byte	0x2f
 5481 152b 76150000 		.4byte	0x1576
 5482 152f 08       		.uleb128 0x8
 5483 1530 8E150000 		.4byte	.LASF322
 5484 1534 23       		.byte	0x23
 5485 1535 31       		.byte	0x31
 5486 1536 76150000 		.4byte	0x1576
 5487 153a 00       		.byte	0
 5488 153b 09       		.uleb128 0x9
 5489 153c 5F6B00   		.ascii	"_k\000"
 5490 153f 23       		.byte	0x23
 5491 1540 32       		.byte	0x32
 5492 1541 2C000000 		.4byte	0x2c
 5493 1545 04       		.byte	0x4
 5494 1546 08       		.uleb128 0x8
 5495 1547 E00C0000 		.4byte	.LASF323
ARM GAS  /var/folders/3j/4xdnk5197cv_b7cw3n33qk7r0000gn/T//ccxkT2Pi.s 			page 98


 5496 154b 23       		.byte	0x23
 5497 154c 32       		.byte	0x32
 5498 154d 2C000000 		.4byte	0x2c
 5499 1551 08       		.byte	0x8
 5500 1552 08       		.uleb128 0x8
 5501 1553 C10E0000 		.4byte	.LASF324
 5502 1557 23       		.byte	0x23
 5503 1558 32       		.byte	0x32
 5504 1559 2C000000 		.4byte	0x2c
 5505 155d 0C       		.byte	0xc
 5506 155e 08       		.uleb128 0x8
 5507 155f 910A0000 		.4byte	.LASF325
 5508 1563 23       		.byte	0x23
 5509 1564 32       		.byte	0x32
 5510 1565 2C000000 		.4byte	0x2c
 5511 1569 10       		.byte	0x10
 5512 156a 09       		.uleb128 0x9
 5513 156b 5F7800   		.ascii	"_x\000"
 5514 156e 23       		.byte	0x23
 5515 156f 33       		.byte	0x33
 5516 1570 7C150000 		.4byte	0x157c
 5517 1574 14       		.byte	0x14
 5518 1575 00       		.byte	0
 5519 1576 0B       		.uleb128 0xb
 5520 1577 04       		.byte	0x4
 5521 1578 23150000 		.4byte	0x1523
 5522 157c 13       		.uleb128 0x13
 5523 157d 18150000 		.4byte	0x1518
 5524 1581 8C150000 		.4byte	0x158c
 5525 1585 14       		.uleb128 0x14
 5526 1586 3E000000 		.4byte	0x3e
 5527 158a 00       		.byte	0
 5528 158b 00       		.byte	0
 5529 158c 07       		.uleb128 0x7
 5530 158d 6F020000 		.4byte	.LASF326
 5531 1591 24       		.byte	0x24
 5532 1592 23       		.byte	0x23
 5533 1593 37       		.byte	0x37
 5534 1594 05160000 		.4byte	0x1605
 5535 1598 08       		.uleb128 0x8
 5536 1599 8B020000 		.4byte	.LASF327
 5537 159d 23       		.byte	0x23
 5538 159e 39       		.byte	0x39
 5539 159f 2C000000 		.4byte	0x2c
 5540 15a3 00       		.byte	0
 5541 15a4 08       		.uleb128 0x8
 5542 15a5 DC1A0000 		.4byte	.LASF328
 5543 15a9 23       		.byte	0x23
 5544 15aa 3A       		.byte	0x3a
 5545 15ab 2C000000 		.4byte	0x2c
 5546 15af 04       		.byte	0x4
 5547 15b0 08       		.uleb128 0x8
 5548 15b1 84190000 		.4byte	.LASF329
 5549 15b5 23       		.byte	0x23
 5550 15b6 3B       		.byte	0x3b
 5551 15b7 2C000000 		.4byte	0x2c
 5552 15bb 08       		.byte	0x8
ARM GAS  /var/folders/3j/4xdnk5197cv_b7cw3n33qk7r0000gn/T//ccxkT2Pi.s 			page 99


 5553 15bc 08       		.uleb128 0x8
 5554 15bd 6B100000 		.4byte	.LASF330
 5555 15c1 23       		.byte	0x23
 5556 15c2 3C       		.byte	0x3c
 5557 15c3 2C000000 		.4byte	0x2c
 5558 15c7 0C       		.byte	0xc
 5559 15c8 08       		.uleb128 0x8
 5560 15c9 16120000 		.4byte	.LASF331
 5561 15cd 23       		.byte	0x23
 5562 15ce 3D       		.byte	0x3d
 5563 15cf 2C000000 		.4byte	0x2c
 5564 15d3 10       		.byte	0x10
 5565 15d4 08       		.uleb128 0x8
 5566 15d5 59170000 		.4byte	.LASF332
 5567 15d9 23       		.byte	0x23
 5568 15da 3E       		.byte	0x3e
 5569 15db 2C000000 		.4byte	0x2c
 5570 15df 14       		.byte	0x14
 5571 15e0 08       		.uleb128 0x8
 5572 15e1 B7110000 		.4byte	.LASF333
 5573 15e5 23       		.byte	0x23
 5574 15e6 3F       		.byte	0x3f
 5575 15e7 2C000000 		.4byte	0x2c
 5576 15eb 18       		.byte	0x18
 5577 15ec 08       		.uleb128 0x8
 5578 15ed E4110000 		.4byte	.LASF334
 5579 15f1 23       		.byte	0x23
 5580 15f2 40       		.byte	0x40
 5581 15f3 2C000000 		.4byte	0x2c
 5582 15f7 1C       		.byte	0x1c
 5583 15f8 08       		.uleb128 0x8
 5584 15f9 881A0000 		.4byte	.LASF335
 5585 15fd 23       		.byte	0x23
 5586 15fe 41       		.byte	0x41
 5587 15ff 2C000000 		.4byte	0x2c
 5588 1603 20       		.byte	0x20
 5589 1604 00       		.byte	0
 5590 1605 27       		.uleb128 0x27
 5591 1606 84040000 		.4byte	.LASF336
 5592 160a 0801     		.2byte	0x108
 5593 160c 23       		.byte	0x23
 5594 160d 4A       		.byte	0x4a
 5595 160e 45160000 		.4byte	0x1645
 5596 1612 08       		.uleb128 0x8
 5597 1613 801A0000 		.4byte	.LASF337
 5598 1617 23       		.byte	0x23
 5599 1618 4B       		.byte	0x4b
 5600 1619 45160000 		.4byte	0x1645
 5601 161d 00       		.byte	0
 5602 161e 08       		.uleb128 0x8
 5603 161f 82130000 		.4byte	.LASF338
 5604 1623 23       		.byte	0x23
 5605 1624 4C       		.byte	0x4c
 5606 1625 45160000 		.4byte	0x1645
 5607 1629 80       		.byte	0x80
 5608 162a 28       		.uleb128 0x28
 5609 162b 73050000 		.4byte	.LASF339
ARM GAS  /var/folders/3j/4xdnk5197cv_b7cw3n33qk7r0000gn/T//ccxkT2Pi.s 			page 100


 5610 162f 23       		.byte	0x23
 5611 1630 4E       		.byte	0x4e
 5612 1631 18150000 		.4byte	0x1518
 5613 1635 0001     		.2byte	0x100
 5614 1637 28       		.uleb128 0x28
 5615 1638 1C180000 		.4byte	.LASF340
 5616 163c 23       		.byte	0x23
 5617 163d 51       		.byte	0x51
 5618 163e 18150000 		.4byte	0x1518
 5619 1642 0401     		.2byte	0x104
 5620 1644 00       		.byte	0
 5621 1645 13       		.uleb128 0x13
 5622 1646 D1020000 		.4byte	0x2d1
 5623 164a 55160000 		.4byte	0x1655
 5624 164e 14       		.uleb128 0x14
 5625 164f 3E000000 		.4byte	0x3e
 5626 1653 1F       		.byte	0x1f
 5627 1654 00       		.byte	0
 5628 1655 27       		.uleb128 0x27
 5629 1656 6A170000 		.4byte	.LASF341
 5630 165a 9001     		.2byte	0x190
 5631 165c 23       		.byte	0x23
 5632 165d 5D       		.byte	0x5d
 5633 165e 93160000 		.4byte	0x1693
 5634 1662 08       		.uleb128 0x8
 5635 1663 8E150000 		.4byte	.LASF322
 5636 1667 23       		.byte	0x23
 5637 1668 5E       		.byte	0x5e
 5638 1669 93160000 		.4byte	0x1693
 5639 166d 00       		.byte	0
 5640 166e 08       		.uleb128 0x8
 5641 166f DE070000 		.4byte	.LASF342
 5642 1673 23       		.byte	0x23
 5643 1674 5F       		.byte	0x5f
 5644 1675 2C000000 		.4byte	0x2c
 5645 1679 04       		.byte	0x4
 5646 167a 08       		.uleb128 0x8
 5647 167b FE070000 		.4byte	.LASF343
 5648 167f 23       		.byte	0x23
 5649 1680 61       		.byte	0x61
 5650 1681 99160000 		.4byte	0x1699
 5651 1685 08       		.byte	0x8
 5652 1686 08       		.uleb128 0x8
 5653 1687 84040000 		.4byte	.LASF336
 5654 168b 23       		.byte	0x23
 5655 168c 62       		.byte	0x62
 5656 168d 05160000 		.4byte	0x1605
 5657 1691 88       		.byte	0x88
 5658 1692 00       		.byte	0
 5659 1693 0B       		.uleb128 0xb
 5660 1694 04       		.byte	0x4
 5661 1695 55160000 		.4byte	0x1655
 5662 1699 13       		.uleb128 0x13
 5663 169a C90D0000 		.4byte	0xdc9
 5664 169e A9160000 		.4byte	0x16a9
 5665 16a2 14       		.uleb128 0x14
 5666 16a3 3E000000 		.4byte	0x3e
ARM GAS  /var/folders/3j/4xdnk5197cv_b7cw3n33qk7r0000gn/T//ccxkT2Pi.s 			page 101


 5667 16a7 1F       		.byte	0x1f
 5668 16a8 00       		.byte	0
 5669 16a9 07       		.uleb128 0x7
 5670 16aa 0E180000 		.4byte	.LASF344
 5671 16ae 08       		.byte	0x8
 5672 16af 23       		.byte	0x23
 5673 16b0 75       		.byte	0x75
 5674 16b1 CE160000 		.4byte	0x16ce
 5675 16b5 08       		.uleb128 0x8
 5676 16b6 31140000 		.4byte	.LASF345
 5677 16ba 23       		.byte	0x23
 5678 16bb 76       		.byte	0x76
 5679 16bc CE160000 		.4byte	0x16ce
 5680 16c0 00       		.byte	0
 5681 16c1 08       		.uleb128 0x8
 5682 16c2 44050000 		.4byte	.LASF346
 5683 16c6 23       		.byte	0x23
 5684 16c7 77       		.byte	0x77
 5685 16c8 2C000000 		.4byte	0x2c
 5686 16cc 04       		.byte	0x4
 5687 16cd 00       		.byte	0
 5688 16ce 0B       		.uleb128 0xb
 5689 16cf 04       		.byte	0x4
 5690 16d0 67000000 		.4byte	0x67
 5691 16d4 07       		.uleb128 0x7
 5692 16d5 8E190000 		.4byte	.LASF347
 5693 16d9 68       		.byte	0x68
 5694 16da 23       		.byte	0x23
 5695 16db B5       		.byte	0xb5
 5696 16dc FE170000 		.4byte	0x17fe
 5697 16e0 09       		.uleb128 0x9
 5698 16e1 5F7000   		.ascii	"_p\000"
 5699 16e4 23       		.byte	0x23
 5700 16e5 B6       		.byte	0xb6
 5701 16e6 CE160000 		.4byte	0x16ce
 5702 16ea 00       		.byte	0
 5703 16eb 09       		.uleb128 0x9
 5704 16ec 5F7200   		.ascii	"_r\000"
 5705 16ef 23       		.byte	0x23
 5706 16f0 B7       		.byte	0xb7
 5707 16f1 2C000000 		.4byte	0x2c
 5708 16f5 04       		.byte	0x4
 5709 16f6 09       		.uleb128 0x9
 5710 16f7 5F7700   		.ascii	"_w\000"
 5711 16fa 23       		.byte	0x23
 5712 16fb B8       		.byte	0xb8
 5713 16fc 2C000000 		.4byte	0x2c
 5714 1700 08       		.byte	0x8
 5715 1701 08       		.uleb128 0x8
 5716 1702 E1100000 		.4byte	.LASF348
 5717 1706 23       		.byte	0x23
 5718 1707 B9       		.byte	0xb9
 5719 1708 6E000000 		.4byte	0x6e
 5720 170c 0C       		.byte	0xc
 5721 170d 08       		.uleb128 0x8
 5722 170e 70040000 		.4byte	.LASF349
 5723 1712 23       		.byte	0x23
ARM GAS  /var/folders/3j/4xdnk5197cv_b7cw3n33qk7r0000gn/T//ccxkT2Pi.s 			page 102


 5724 1713 BA       		.byte	0xba
 5725 1714 6E000000 		.4byte	0x6e
 5726 1718 0E       		.byte	0xe
 5727 1719 09       		.uleb128 0x9
 5728 171a 5F626600 		.ascii	"_bf\000"
 5729 171e 23       		.byte	0x23
 5730 171f BB       		.byte	0xbb
 5731 1720 A9160000 		.4byte	0x16a9
 5732 1724 10       		.byte	0x10
 5733 1725 08       		.uleb128 0x8
 5734 1726 DB170000 		.4byte	.LASF350
 5735 172a 23       		.byte	0x23
 5736 172b BC       		.byte	0xbc
 5737 172c 2C000000 		.4byte	0x2c
 5738 1730 18       		.byte	0x18
 5739 1731 08       		.uleb128 0x8
 5740 1732 6B0A0000 		.4byte	.LASF351
 5741 1736 23       		.byte	0x23
 5742 1737 C3       		.byte	0xc3
 5743 1738 D1020000 		.4byte	0x2d1
 5744 173c 1C       		.byte	0x1c
 5745 173d 08       		.uleb128 0x8
 5746 173e 8A000000 		.4byte	.LASF352
 5747 1742 23       		.byte	0x23
 5748 1743 C5       		.byte	0xc5
 5749 1744 59190000 		.4byte	0x1959
 5750 1748 20       		.byte	0x20
 5751 1749 08       		.uleb128 0x8
 5752 174a ED000000 		.4byte	.LASF353
 5753 174e 23       		.byte	0x23
 5754 174f C7       		.byte	0xc7
 5755 1750 7D190000 		.4byte	0x197d
 5756 1754 24       		.byte	0x24
 5757 1755 08       		.uleb128 0x8
 5758 1756 50120000 		.4byte	.LASF354
 5759 175a 23       		.byte	0x23
 5760 175b CA       		.byte	0xca
 5761 175c A1190000 		.4byte	0x19a1
 5762 1760 28       		.byte	0x28
 5763 1761 08       		.uleb128 0x8
 5764 1762 0F080000 		.4byte	.LASF355
 5765 1766 23       		.byte	0x23
 5766 1767 CB       		.byte	0xcb
 5767 1768 BB190000 		.4byte	0x19bb
 5768 176c 2C       		.byte	0x2c
 5769 176d 09       		.uleb128 0x9
 5770 176e 5F756200 		.ascii	"_ub\000"
 5771 1772 23       		.byte	0x23
 5772 1773 CE       		.byte	0xce
 5773 1774 A9160000 		.4byte	0x16a9
 5774 1778 30       		.byte	0x30
 5775 1779 09       		.uleb128 0x9
 5776 177a 5F757000 		.ascii	"_up\000"
 5777 177e 23       		.byte	0x23
 5778 177f CF       		.byte	0xcf
 5779 1780 CE160000 		.4byte	0x16ce
 5780 1784 38       		.byte	0x38
ARM GAS  /var/folders/3j/4xdnk5197cv_b7cw3n33qk7r0000gn/T//ccxkT2Pi.s 			page 103


 5781 1785 09       		.uleb128 0x9
 5782 1786 5F757200 		.ascii	"_ur\000"
 5783 178a 23       		.byte	0x23
 5784 178b D0       		.byte	0xd0
 5785 178c 2C000000 		.4byte	0x2c
 5786 1790 3C       		.byte	0x3c
 5787 1791 08       		.uleb128 0x8
 5788 1792 8B100000 		.4byte	.LASF356
 5789 1796 23       		.byte	0x23
 5790 1797 D3       		.byte	0xd3
 5791 1798 C1190000 		.4byte	0x19c1
 5792 179c 40       		.byte	0x40
 5793 179d 08       		.uleb128 0x8
 5794 179e 8B060000 		.4byte	.LASF357
 5795 17a2 23       		.byte	0x23
 5796 17a3 D4       		.byte	0xd4
 5797 17a4 D1190000 		.4byte	0x19d1
 5798 17a8 43       		.byte	0x43
 5799 17a9 09       		.uleb128 0x9
 5800 17aa 5F6C6200 		.ascii	"_lb\000"
 5801 17ae 23       		.byte	0x23
 5802 17af D7       		.byte	0xd7
 5803 17b0 A9160000 		.4byte	0x16a9
 5804 17b4 44       		.byte	0x44
 5805 17b5 08       		.uleb128 0x8
 5806 17b6 C0160000 		.4byte	.LASF358
 5807 17ba 23       		.byte	0x23
 5808 17bb DA       		.byte	0xda
 5809 17bc 2C000000 		.4byte	0x2c
 5810 17c0 4C       		.byte	0x4c
 5811 17c1 08       		.uleb128 0x8
 5812 17c2 EA0A0000 		.4byte	.LASF359
 5813 17c6 23       		.byte	0x23
 5814 17c7 DB       		.byte	0xdb
 5815 17c8 90140000 		.4byte	0x1490
 5816 17cc 50       		.byte	0x50
 5817 17cd 08       		.uleb128 0x8
 5818 17ce 94150000 		.4byte	.LASF360
 5819 17d2 23       		.byte	0x23
 5820 17d3 DE       		.byte	0xde
 5821 17d4 1C180000 		.4byte	0x181c
 5822 17d8 54       		.byte	0x54
 5823 17d9 08       		.uleb128 0x8
 5824 17da 07030000 		.4byte	.LASF361
 5825 17de 23       		.byte	0x23
 5826 17df E2       		.byte	0xe2
 5827 17e0 0D150000 		.4byte	0x150d
 5828 17e4 58       		.byte	0x58
 5829 17e5 08       		.uleb128 0x8
 5830 17e6 BD100000 		.4byte	.LASF362
 5831 17ea 23       		.byte	0x23
 5832 17eb E4       		.byte	0xe4
 5833 17ec 02150000 		.4byte	0x1502
 5834 17f0 5C       		.byte	0x5c
 5835 17f1 08       		.uleb128 0x8
 5836 17f2 480F0000 		.4byte	.LASF363
 5837 17f6 23       		.byte	0x23
ARM GAS  /var/folders/3j/4xdnk5197cv_b7cw3n33qk7r0000gn/T//ccxkT2Pi.s 			page 104


 5838 17f7 E5       		.byte	0xe5
 5839 17f8 2C000000 		.4byte	0x2c
 5840 17fc 64       		.byte	0x64
 5841 17fd 00       		.byte	0
 5842 17fe 12       		.uleb128 0x12
 5843 17ff 2C000000 		.4byte	0x2c
 5844 1803 1C180000 		.4byte	0x181c
 5845 1807 0E       		.uleb128 0xe
 5846 1808 1C180000 		.4byte	0x181c
 5847 180c 0E       		.uleb128 0xe
 5848 180d D1020000 		.4byte	0x2d1
 5849 1811 0E       		.uleb128 0xe
 5850 1812 D50E0000 		.4byte	0xed5
 5851 1816 0E       		.uleb128 0xe
 5852 1817 2C000000 		.4byte	0x2c
 5853 181b 00       		.byte	0
 5854 181c 0B       		.uleb128 0xb
 5855 181d 04       		.byte	0x4
 5856 181e 27180000 		.4byte	0x1827
 5857 1822 06       		.uleb128 0x6
 5858 1823 1C180000 		.4byte	0x181c
 5859 1827 29       		.uleb128 0x29
 5860 1828 35070000 		.4byte	.LASF364
 5861 182c 2804     		.2byte	0x428
 5862 182e 23       		.byte	0x23
 5863 182f 6002     		.2byte	0x260
 5864 1831 59190000 		.4byte	0x1959
 5865 1835 15       		.uleb128 0x15
 5866 1836 580C0000 		.4byte	.LASF365
 5867 183a 23       		.byte	0x23
 5868 183b 6202     		.2byte	0x262
 5869 183d 2C000000 		.4byte	0x2c
 5870 1841 00       		.byte	0
 5871 1842 15       		.uleb128 0x15
 5872 1843 C6080000 		.4byte	.LASF366
 5873 1847 23       		.byte	0x23
 5874 1848 6702     		.2byte	0x267
 5875 184a 281A0000 		.4byte	0x1a28
 5876 184e 04       		.byte	0x4
 5877 184f 15       		.uleb128 0x15
 5878 1850 C0130000 		.4byte	.LASF367
 5879 1854 23       		.byte	0x23
 5880 1855 6702     		.2byte	0x267
 5881 1857 281A0000 		.4byte	0x1a28
 5882 185b 08       		.byte	0x8
 5883 185c 15       		.uleb128 0x15
 5884 185d A9100000 		.4byte	.LASF368
 5885 1861 23       		.byte	0x23
 5886 1862 6702     		.2byte	0x267
 5887 1864 281A0000 		.4byte	0x1a28
 5888 1868 0C       		.byte	0xc
 5889 1869 15       		.uleb128 0x15
 5890 186a EB170000 		.4byte	.LASF369
 5891 186e 23       		.byte	0x23
 5892 186f 6902     		.2byte	0x269
 5893 1871 2C000000 		.4byte	0x2c
 5894 1875 10       		.byte	0x10
ARM GAS  /var/folders/3j/4xdnk5197cv_b7cw3n33qk7r0000gn/T//ccxkT2Pi.s 			page 105


 5895 1876 15       		.uleb128 0x15
 5896 1877 5A0D0000 		.4byte	.LASF370
 5897 187b 23       		.byte	0x23
 5898 187c 6A02     		.2byte	0x26a
 5899 187e 0A1C0000 		.4byte	0x1c0a
 5900 1882 14       		.byte	0x14
 5901 1883 15       		.uleb128 0x15
 5902 1884 1C070000 		.4byte	.LASF371
 5903 1888 23       		.byte	0x23
 5904 1889 6D02     		.2byte	0x26d
 5905 188b 2C000000 		.4byte	0x2c
 5906 188f 30       		.byte	0x30
 5907 1890 15       		.uleb128 0x15
 5908 1891 A1180000 		.4byte	.LASF372
 5909 1895 23       		.byte	0x23
 5910 1896 6E02     		.2byte	0x26e
 5911 1898 1F1C0000 		.4byte	0x1c1f
 5912 189c 34       		.byte	0x34
 5913 189d 15       		.uleb128 0x15
 5914 189e D40B0000 		.4byte	.LASF373
 5915 18a2 23       		.byte	0x23
 5916 18a3 7002     		.2byte	0x270
 5917 18a5 2C000000 		.4byte	0x2c
 5918 18a9 38       		.byte	0x38
 5919 18aa 15       		.uleb128 0x15
 5920 18ab 0D0D0000 		.4byte	.LASF374
 5921 18af 23       		.byte	0x23
 5922 18b0 7202     		.2byte	0x272
 5923 18b2 301C0000 		.4byte	0x1c30
 5924 18b6 3C       		.byte	0x3c
 5925 18b7 15       		.uleb128 0x15
 5926 18b8 EA180000 		.4byte	.LASF375
 5927 18bc 23       		.byte	0x23
 5928 18bd 7502     		.2byte	0x275
 5929 18bf 76150000 		.4byte	0x1576
 5930 18c3 40       		.byte	0x40
 5931 18c4 15       		.uleb128 0x15
 5932 18c5 2D050000 		.4byte	.LASF376
 5933 18c9 23       		.byte	0x23
 5934 18ca 7602     		.2byte	0x276
 5935 18cc 2C000000 		.4byte	0x2c
 5936 18d0 44       		.byte	0x44
 5937 18d1 15       		.uleb128 0x15
 5938 18d2 AE0B0000 		.4byte	.LASF377
 5939 18d6 23       		.byte	0x23
 5940 18d7 7702     		.2byte	0x277
 5941 18d9 76150000 		.4byte	0x1576
 5942 18dd 48       		.byte	0x48
 5943 18de 15       		.uleb128 0x15
 5944 18df 9A0E0000 		.4byte	.LASF378
 5945 18e3 23       		.byte	0x23
 5946 18e4 7802     		.2byte	0x278
 5947 18e6 361C0000 		.4byte	0x1c36
 5948 18ea 4C       		.byte	0x4c
 5949 18eb 15       		.uleb128 0x15
 5950 18ec C4010000 		.4byte	.LASF379
 5951 18f0 23       		.byte	0x23
ARM GAS  /var/folders/3j/4xdnk5197cv_b7cw3n33qk7r0000gn/T//ccxkT2Pi.s 			page 106


 5952 18f1 7B02     		.2byte	0x27b
 5953 18f3 2C000000 		.4byte	0x2c
 5954 18f7 50       		.byte	0x50
 5955 18f8 15       		.uleb128 0x15
 5956 18f9 FB0A0000 		.4byte	.LASF380
 5957 18fd 23       		.byte	0x23
 5958 18fe 7C02     		.2byte	0x27c
 5959 1900 D50E0000 		.4byte	0xed5
 5960 1904 54       		.byte	0x54
 5961 1905 15       		.uleb128 0x15
 5962 1906 75100000 		.4byte	.LASF381
 5963 190a 23       		.byte	0x23
 5964 190b 9F02     		.2byte	0x29f
 5965 190d E81B0000 		.4byte	0x1be8
 5966 1911 58       		.byte	0x58
 5967 1912 25       		.uleb128 0x25
 5968 1913 6A170000 		.4byte	.LASF341
 5969 1917 23       		.byte	0x23
 5970 1918 A302     		.2byte	0x2a3
 5971 191a 93160000 		.4byte	0x1693
 5972 191e 4801     		.2byte	0x148
 5973 1920 25       		.uleb128 0x25
 5974 1921 5E110000 		.4byte	.LASF382
 5975 1925 23       		.byte	0x23
 5976 1926 A402     		.2byte	0x2a4
 5977 1928 55160000 		.4byte	0x1655
 5978 192c 4C01     		.2byte	0x14c
 5979 192e 25       		.uleb128 0x25
 5980 192f AC0A0000 		.4byte	.LASF383
 5981 1933 23       		.byte	0x23
 5982 1934 A802     		.2byte	0x2a8
 5983 1936 471C0000 		.4byte	0x1c47
 5984 193a DC02     		.2byte	0x2dc
 5985 193c 25       		.uleb128 0x25
 5986 193d 1A0E0000 		.4byte	.LASF384
 5987 1941 23       		.byte	0x23
 5988 1942 AD02     		.2byte	0x2ad
 5989 1944 ED190000 		.4byte	0x19ed
 5990 1948 E002     		.2byte	0x2e0
 5991 194a 25       		.uleb128 0x25
 5992 194b 52000000 		.4byte	.LASF385
 5993 194f 23       		.byte	0x23
 5994 1950 AF02     		.2byte	0x2af
 5995 1952 531C0000 		.4byte	0x1c53
 5996 1956 EC02     		.2byte	0x2ec
 5997 1958 00       		.byte	0
 5998 1959 0B       		.uleb128 0xb
 5999 195a 04       		.byte	0x4
 6000 195b FE170000 		.4byte	0x17fe
 6001 195f 12       		.uleb128 0x12
 6002 1960 2C000000 		.4byte	0x2c
 6003 1964 7D190000 		.4byte	0x197d
 6004 1968 0E       		.uleb128 0xe
 6005 1969 1C180000 		.4byte	0x181c
 6006 196d 0E       		.uleb128 0xe
 6007 196e D1020000 		.4byte	0x2d1
 6008 1972 0E       		.uleb128 0xe
ARM GAS  /var/folders/3j/4xdnk5197cv_b7cw3n33qk7r0000gn/T//ccxkT2Pi.s 			page 107


 6009 1973 7E050000 		.4byte	0x57e
 6010 1977 0E       		.uleb128 0xe
 6011 1978 2C000000 		.4byte	0x2c
 6012 197c 00       		.byte	0
 6013 197d 0B       		.uleb128 0xb
 6014 197e 04       		.byte	0x4
 6015 197f 5F190000 		.4byte	0x195f
 6016 1983 12       		.uleb128 0x12
 6017 1984 9B140000 		.4byte	0x149b
 6018 1988 A1190000 		.4byte	0x19a1
 6019 198c 0E       		.uleb128 0xe
 6020 198d 1C180000 		.4byte	0x181c
 6021 1991 0E       		.uleb128 0xe
 6022 1992 D1020000 		.4byte	0x2d1
 6023 1996 0E       		.uleb128 0xe
 6024 1997 9B140000 		.4byte	0x149b
 6025 199b 0E       		.uleb128 0xe
 6026 199c 2C000000 		.4byte	0x2c
 6027 19a0 00       		.byte	0
 6028 19a1 0B       		.uleb128 0xb
 6029 19a2 04       		.byte	0x4
 6030 19a3 83190000 		.4byte	0x1983
 6031 19a7 12       		.uleb128 0x12
 6032 19a8 2C000000 		.4byte	0x2c
 6033 19ac BB190000 		.4byte	0x19bb
 6034 19b0 0E       		.uleb128 0xe
 6035 19b1 1C180000 		.4byte	0x181c
 6036 19b5 0E       		.uleb128 0xe
 6037 19b6 D1020000 		.4byte	0x2d1
 6038 19ba 00       		.byte	0
 6039 19bb 0B       		.uleb128 0xb
 6040 19bc 04       		.byte	0x4
 6041 19bd A7190000 		.4byte	0x19a7
 6042 19c1 13       		.uleb128 0x13
 6043 19c2 67000000 		.4byte	0x67
 6044 19c6 D1190000 		.4byte	0x19d1
 6045 19ca 14       		.uleb128 0x14
 6046 19cb 3E000000 		.4byte	0x3e
 6047 19cf 02       		.byte	0x2
 6048 19d0 00       		.byte	0
 6049 19d1 13       		.uleb128 0x13
 6050 19d2 67000000 		.4byte	0x67
 6051 19d6 E1190000 		.4byte	0x19e1
 6052 19da 14       		.uleb128 0x14
 6053 19db 3E000000 		.4byte	0x3e
 6054 19df 00       		.byte	0
 6055 19e0 00       		.byte	0
 6056 19e1 16       		.uleb128 0x16
 6057 19e2 C8140000 		.4byte	.LASF386
 6058 19e6 23       		.byte	0x23
 6059 19e7 1F01     		.2byte	0x11f
 6060 19e9 D4160000 		.4byte	0x16d4
 6061 19ed 2A       		.uleb128 0x2a
 6062 19ee BB0E0000 		.4byte	.LASF387
 6063 19f2 0C       		.byte	0xc
 6064 19f3 23       		.byte	0x23
 6065 19f4 2301     		.2byte	0x123
ARM GAS  /var/folders/3j/4xdnk5197cv_b7cw3n33qk7r0000gn/T//ccxkT2Pi.s 			page 108


 6066 19f6 221A0000 		.4byte	0x1a22
 6067 19fa 15       		.uleb128 0x15
 6068 19fb 8E150000 		.4byte	.LASF322
 6069 19ff 23       		.byte	0x23
 6070 1a00 2501     		.2byte	0x125
 6071 1a02 221A0000 		.4byte	0x1a22
 6072 1a06 00       		.byte	0
 6073 1a07 15       		.uleb128 0x15
 6074 1a08 F90D0000 		.4byte	.LASF388
 6075 1a0c 23       		.byte	0x23
 6076 1a0d 2601     		.2byte	0x126
 6077 1a0f 2C000000 		.4byte	0x2c
 6078 1a13 04       		.byte	0x4
 6079 1a14 15       		.uleb128 0x15
 6080 1a15 A40E0000 		.4byte	.LASF389
 6081 1a19 23       		.byte	0x23
 6082 1a1a 2701     		.2byte	0x127
 6083 1a1c 281A0000 		.4byte	0x1a28
 6084 1a20 08       		.byte	0x8
 6085 1a21 00       		.byte	0
 6086 1a22 0B       		.uleb128 0xb
 6087 1a23 04       		.byte	0x4
 6088 1a24 ED190000 		.4byte	0x19ed
 6089 1a28 0B       		.uleb128 0xb
 6090 1a29 04       		.byte	0x4
 6091 1a2a E1190000 		.4byte	0x19e1
 6092 1a2e 2A       		.uleb128 0x2a
 6093 1a2f 9E130000 		.4byte	.LASF390
 6094 1a33 0E       		.byte	0xe
 6095 1a34 23       		.byte	0x23
 6096 1a35 3F01     		.2byte	0x13f
 6097 1a37 631A0000 		.4byte	0x1a63
 6098 1a3b 15       		.uleb128 0x15
 6099 1a3c D8020000 		.4byte	.LASF391
 6100 1a40 23       		.byte	0x23
 6101 1a41 4001     		.2byte	0x140
 6102 1a43 631A0000 		.4byte	0x1a63
 6103 1a47 00       		.byte	0
 6104 1a48 15       		.uleb128 0x15
 6105 1a49 4D030000 		.4byte	.LASF392
 6106 1a4d 23       		.byte	0x23
 6107 1a4e 4101     		.2byte	0x141
 6108 1a50 631A0000 		.4byte	0x1a63
 6109 1a54 06       		.byte	0x6
 6110 1a55 15       		.uleb128 0x15
 6111 1a56 5C190000 		.4byte	.LASF393
 6112 1a5a 23       		.byte	0x23
 6113 1a5b 4201     		.2byte	0x142
 6114 1a5d 80000000 		.4byte	0x80
 6115 1a61 0C       		.byte	0xc
 6116 1a62 00       		.byte	0
 6117 1a63 13       		.uleb128 0x13
 6118 1a64 80000000 		.4byte	0x80
 6119 1a68 731A0000 		.4byte	0x1a73
 6120 1a6c 14       		.uleb128 0x14
 6121 1a6d 3E000000 		.4byte	0x3e
 6122 1a71 02       		.byte	0x2
ARM GAS  /var/folders/3j/4xdnk5197cv_b7cw3n33qk7r0000gn/T//ccxkT2Pi.s 			page 109


 6123 1a72 00       		.byte	0
 6124 1a73 23       		.uleb128 0x23
 6125 1a74 D0       		.byte	0xd0
 6126 1a75 23       		.byte	0x23
 6127 1a76 8002     		.2byte	0x280
 6128 1a78 741B0000 		.4byte	0x1b74
 6129 1a7c 15       		.uleb128 0x15
 6130 1a7d 56060000 		.4byte	.LASF394
 6131 1a81 23       		.byte	0x23
 6132 1a82 8202     		.2byte	0x282
 6133 1a84 3E000000 		.4byte	0x3e
 6134 1a88 00       		.byte	0
 6135 1a89 15       		.uleb128 0x15
 6136 1a8a CC040000 		.4byte	.LASF395
 6137 1a8e 23       		.byte	0x23
 6138 1a8f 8302     		.2byte	0x283
 6139 1a91 D50E0000 		.4byte	0xed5
 6140 1a95 04       		.byte	0x4
 6141 1a96 15       		.uleb128 0x15
 6142 1a97 2C0D0000 		.4byte	.LASF396
 6143 1a9b 23       		.byte	0x23
 6144 1a9c 8402     		.2byte	0x284
 6145 1a9e 741B0000 		.4byte	0x1b74
 6146 1aa2 08       		.byte	0x8
 6147 1aa3 15       		.uleb128 0x15
 6148 1aa4 51050000 		.4byte	.LASF397
 6149 1aa8 23       		.byte	0x23
 6150 1aa9 8502     		.2byte	0x285
 6151 1aab 8C150000 		.4byte	0x158c
 6152 1aaf 24       		.byte	0x24
 6153 1ab0 15       		.uleb128 0x15
 6154 1ab1 3D020000 		.4byte	.LASF398
 6155 1ab5 23       		.byte	0x23
 6156 1ab6 8602     		.2byte	0x286
 6157 1ab8 2C000000 		.4byte	0x2c
 6158 1abc 48       		.byte	0x48
 6159 1abd 15       		.uleb128 0x15
 6160 1abe A6190000 		.4byte	.LASF399
 6161 1ac2 23       		.byte	0x23
 6162 1ac3 8702     		.2byte	0x287
 6163 1ac5 B2000000 		.4byte	0xb2
 6164 1ac9 50       		.byte	0x50
 6165 1aca 15       		.uleb128 0x15
 6166 1acb 28150000 		.4byte	.LASF400
 6167 1acf 23       		.byte	0x23
 6168 1ad0 8802     		.2byte	0x288
 6169 1ad2 2E1A0000 		.4byte	0x1a2e
 6170 1ad6 58       		.byte	0x58
 6171 1ad7 15       		.uleb128 0x15
 6172 1ad8 A9160000 		.4byte	.LASF401
 6173 1adc 23       		.byte	0x23
 6174 1add 8902     		.2byte	0x289
 6175 1adf 02150000 		.4byte	0x1502
 6176 1ae3 68       		.byte	0x68
 6177 1ae4 15       		.uleb128 0x15
 6178 1ae5 E4120000 		.4byte	.LASF402
 6179 1ae9 23       		.byte	0x23
ARM GAS  /var/folders/3j/4xdnk5197cv_b7cw3n33qk7r0000gn/T//ccxkT2Pi.s 			page 110


 6180 1aea 8A02     		.2byte	0x28a
 6181 1aec 02150000 		.4byte	0x1502
 6182 1af0 70       		.byte	0x70
 6183 1af1 15       		.uleb128 0x15
 6184 1af2 74130000 		.4byte	.LASF403
 6185 1af6 23       		.byte	0x23
 6186 1af7 8B02     		.2byte	0x28b
 6187 1af9 02150000 		.4byte	0x1502
 6188 1afd 78       		.byte	0x78
 6189 1afe 15       		.uleb128 0x15
 6190 1aff AA020000 		.4byte	.LASF404
 6191 1b03 23       		.byte	0x23
 6192 1b04 8C02     		.2byte	0x28c
 6193 1b06 841B0000 		.4byte	0x1b84
 6194 1b0a 80       		.byte	0x80
 6195 1b0b 15       		.uleb128 0x15
 6196 1b0c 710C0000 		.4byte	.LASF405
 6197 1b10 23       		.byte	0x23
 6198 1b11 8D02     		.2byte	0x28d
 6199 1b13 941B0000 		.4byte	0x1b94
 6200 1b17 88       		.byte	0x88
 6201 1b18 15       		.uleb128 0x15
 6202 1b19 E51A0000 		.4byte	.LASF406
 6203 1b1d 23       		.byte	0x23
 6204 1b1e 8E02     		.2byte	0x28e
 6205 1b20 2C000000 		.4byte	0x2c
 6206 1b24 A0       		.byte	0xa0
 6207 1b25 15       		.uleb128 0x15
 6208 1b26 EA040000 		.4byte	.LASF407
 6209 1b2a 23       		.byte	0x23
 6210 1b2b 8F02     		.2byte	0x28f
 6211 1b2d 02150000 		.4byte	0x1502
 6212 1b31 A4       		.byte	0xa4
 6213 1b32 15       		.uleb128 0x15
 6214 1b33 96140000 		.4byte	.LASF408
 6215 1b37 23       		.byte	0x23
 6216 1b38 9002     		.2byte	0x290
 6217 1b3a 02150000 		.4byte	0x1502
 6218 1b3e AC       		.byte	0xac
 6219 1b3f 15       		.uleb128 0x15
 6220 1b40 1A1A0000 		.4byte	.LASF409
 6221 1b44 23       		.byte	0x23
 6222 1b45 9102     		.2byte	0x291
 6223 1b47 02150000 		.4byte	0x1502
 6224 1b4b B4       		.byte	0xb4
 6225 1b4c 15       		.uleb128 0x15
 6226 1b4d 2E100000 		.4byte	.LASF410
 6227 1b51 23       		.byte	0x23
 6228 1b52 9202     		.2byte	0x292
 6229 1b54 02150000 		.4byte	0x1502
 6230 1b58 BC       		.byte	0xbc
 6231 1b59 15       		.uleb128 0x15
 6232 1b5a 74020000 		.4byte	.LASF411
 6233 1b5e 23       		.byte	0x23
 6234 1b5f 9302     		.2byte	0x293
 6235 1b61 02150000 		.4byte	0x1502
 6236 1b65 C4       		.byte	0xc4
ARM GAS  /var/folders/3j/4xdnk5197cv_b7cw3n33qk7r0000gn/T//ccxkT2Pi.s 			page 111


 6237 1b66 15       		.uleb128 0x15
 6238 1b67 EB0F0000 		.4byte	.LASF412
 6239 1b6b 23       		.byte	0x23
 6240 1b6c 9402     		.2byte	0x294
 6241 1b6e 2C000000 		.4byte	0x2c
 6242 1b72 CC       		.byte	0xcc
 6243 1b73 00       		.byte	0
 6244 1b74 13       		.uleb128 0x13
 6245 1b75 84050000 		.4byte	0x584
 6246 1b79 841B0000 		.4byte	0x1b84
 6247 1b7d 14       		.uleb128 0x14
 6248 1b7e 3E000000 		.4byte	0x3e
 6249 1b82 19       		.byte	0x19
 6250 1b83 00       		.byte	0
 6251 1b84 13       		.uleb128 0x13
 6252 1b85 84050000 		.4byte	0x584
 6253 1b89 941B0000 		.4byte	0x1b94
 6254 1b8d 14       		.uleb128 0x14
 6255 1b8e 3E000000 		.4byte	0x3e
 6256 1b92 07       		.byte	0x7
 6257 1b93 00       		.byte	0
 6258 1b94 13       		.uleb128 0x13
 6259 1b95 84050000 		.4byte	0x584
 6260 1b99 A41B0000 		.4byte	0x1ba4
 6261 1b9d 14       		.uleb128 0x14
 6262 1b9e 3E000000 		.4byte	0x3e
 6263 1ba2 17       		.byte	0x17
 6264 1ba3 00       		.byte	0
 6265 1ba4 23       		.uleb128 0x23
 6266 1ba5 F0       		.byte	0xf0
 6267 1ba6 23       		.byte	0x23
 6268 1ba7 9902     		.2byte	0x299
 6269 1ba9 C81B0000 		.4byte	0x1bc8
 6270 1bad 15       		.uleb128 0x15
 6271 1bae 41180000 		.4byte	.LASF413
 6272 1bb2 23       		.byte	0x23
 6273 1bb3 9C02     		.2byte	0x29c
 6274 1bb5 C81B0000 		.4byte	0x1bc8
 6275 1bb9 00       		.byte	0
 6276 1bba 15       		.uleb128 0x15
 6277 1bbb 280E0000 		.4byte	.LASF414
 6278 1bbf 23       		.byte	0x23
 6279 1bc0 9D02     		.2byte	0x29d
 6280 1bc2 D81B0000 		.4byte	0x1bd8
 6281 1bc6 78       		.byte	0x78
 6282 1bc7 00       		.byte	0
 6283 1bc8 13       		.uleb128 0x13
 6284 1bc9 CE160000 		.4byte	0x16ce
 6285 1bcd D81B0000 		.4byte	0x1bd8
 6286 1bd1 14       		.uleb128 0x14
 6287 1bd2 3E000000 		.4byte	0x3e
 6288 1bd6 1D       		.byte	0x1d
 6289 1bd7 00       		.byte	0
 6290 1bd8 13       		.uleb128 0x13
 6291 1bd9 3E000000 		.4byte	0x3e
 6292 1bdd E81B0000 		.4byte	0x1be8
 6293 1be1 14       		.uleb128 0x14
ARM GAS  /var/folders/3j/4xdnk5197cv_b7cw3n33qk7r0000gn/T//ccxkT2Pi.s 			page 112


 6294 1be2 3E000000 		.4byte	0x3e
 6295 1be6 1D       		.byte	0x1d
 6296 1be7 00       		.byte	0
 6297 1be8 2B       		.uleb128 0x2b
 6298 1be9 F0       		.byte	0xf0
 6299 1bea 23       		.byte	0x23
 6300 1beb 7E02     		.2byte	0x27e
 6301 1bed 0A1C0000 		.4byte	0x1c0a
 6302 1bf1 2C       		.uleb128 0x2c
 6303 1bf2 35070000 		.4byte	.LASF364
 6304 1bf6 23       		.byte	0x23
 6305 1bf7 9502     		.2byte	0x295
 6306 1bf9 731A0000 		.4byte	0x1a73
 6307 1bfd 2C       		.uleb128 0x2c
 6308 1bfe 9D070000 		.4byte	.LASF415
 6309 1c02 23       		.byte	0x23
 6310 1c03 9E02     		.2byte	0x29e
 6311 1c05 A41B0000 		.4byte	0x1ba4
 6312 1c09 00       		.byte	0
 6313 1c0a 13       		.uleb128 0x13
 6314 1c0b 84050000 		.4byte	0x584
 6315 1c0f 1A1C0000 		.4byte	0x1c1a
 6316 1c13 14       		.uleb128 0x14
 6317 1c14 3E000000 		.4byte	0x3e
 6318 1c18 18       		.byte	0x18
 6319 1c19 00       		.byte	0
 6320 1c1a 26       		.uleb128 0x26
 6321 1c1b 1D000000 		.4byte	.LASF417
 6322 1c1f 0B       		.uleb128 0xb
 6323 1c20 04       		.byte	0x4
 6324 1c21 1A1C0000 		.4byte	0x1c1a
 6325 1c25 0D       		.uleb128 0xd
 6326 1c26 301C0000 		.4byte	0x1c30
 6327 1c2a 0E       		.uleb128 0xe
 6328 1c2b 1C180000 		.4byte	0x181c
 6329 1c2f 00       		.byte	0
 6330 1c30 0B       		.uleb128 0xb
 6331 1c31 04       		.byte	0x4
 6332 1c32 251C0000 		.4byte	0x1c25
 6333 1c36 0B       		.uleb128 0xb
 6334 1c37 04       		.byte	0x4
 6335 1c38 76150000 		.4byte	0x1576
 6336 1c3c 0D       		.uleb128 0xd
 6337 1c3d 471C0000 		.4byte	0x1c47
 6338 1c41 0E       		.uleb128 0xe
 6339 1c42 2C000000 		.4byte	0x2c
 6340 1c46 00       		.byte	0
 6341 1c47 0B       		.uleb128 0xb
 6342 1c48 04       		.byte	0x4
 6343 1c49 4D1C0000 		.4byte	0x1c4d
 6344 1c4d 0B       		.uleb128 0xb
 6345 1c4e 04       		.byte	0x4
 6346 1c4f 3C1C0000 		.4byte	0x1c3c
 6347 1c53 13       		.uleb128 0x13
 6348 1c54 E1190000 		.4byte	0x19e1
 6349 1c58 631C0000 		.4byte	0x1c63
 6350 1c5c 14       		.uleb128 0x14
ARM GAS  /var/folders/3j/4xdnk5197cv_b7cw3n33qk7r0000gn/T//ccxkT2Pi.s 			page 113


 6351 1c5d 3E000000 		.4byte	0x3e
 6352 1c61 02       		.byte	0x2
 6353 1c62 00       		.byte	0
 6354 1c63 2D       		.uleb128 0x2d
 6355 1c64 13050000 		.4byte	.LASF418
 6356 1c68 23       		.byte	0x23
 6357 1c69 2E03     		.2byte	0x32e
 6358 1c6b 1C180000 		.4byte	0x181c
 6359 1c6f 2D       		.uleb128 0x2d
 6360 1c70 44070000 		.4byte	.LASF419
 6361 1c74 23       		.byte	0x23
 6362 1c75 2F03     		.2byte	0x32f
 6363 1c77 22180000 		.4byte	0x1822
 6364 1c7b 1D       		.uleb128 0x1d
 6365 1c7c 6001     		.2byte	0x160
 6366 1c7e 24       		.byte	0x24
 6367 1c7f 39       		.byte	0x39
 6368 1c80 B81C0000 		.4byte	0x1cb8
 6369 1c84 08       		.uleb128 0x8
 6370 1c85 A4160000 		.4byte	.LASF420
 6371 1c89 24       		.byte	0x24
 6372 1c8a 3A       		.byte	0x3a
 6373 1c8b 6E140000 		.4byte	0x146e
 6374 1c8f 00       		.byte	0
 6375 1c90 28       		.uleb128 0x28
 6376 1c91 32020000 		.4byte	.LASF421
 6377 1c95 24       		.byte	0x24
 6378 1c96 3D       		.byte	0x3d
 6379 1c97 C4000000 		.4byte	0xc4
 6380 1c9b 5C01     		.2byte	0x15c
 6381 1c9d 28       		.uleb128 0x28
 6382 1c9e BF150000 		.4byte	.LASF422
 6383 1ca2 24       		.byte	0x24
 6384 1ca3 3E       		.byte	0x3e
 6385 1ca4 C4000000 		.4byte	0xc4
 6386 1ca8 5D01     		.2byte	0x15d
 6387 1caa 28       		.uleb128 0x28
 6388 1cab D0190000 		.4byte	.LASF423
 6389 1caf 24       		.byte	0x24
 6390 1cb0 3F       		.byte	0x3f
 6391 1cb1 D4000000 		.4byte	0xd4
 6392 1cb5 5E01     		.2byte	0x15e
 6393 1cb7 00       		.byte	0
 6394 1cb8 04       		.uleb128 0x4
 6395 1cb9 1D0A0000 		.4byte	.LASF424
 6396 1cbd 24       		.byte	0x24
 6397 1cbe 41       		.byte	0x41
 6398 1cbf 7B1C0000 		.4byte	0x1c7b
 6399 1cc3 04       		.uleb128 0x4
 6400 1cc4 F4060000 		.4byte	.LASF425
 6401 1cc8 24       		.byte	0x24
 6402 1cc9 48       		.byte	0x48
 6403 1cca CE1C0000 		.4byte	0x1cce
 6404 1cce 0B       		.uleb128 0xb
 6405 1ccf 04       		.byte	0x4
 6406 1cd0 B81C0000 		.4byte	0x1cb8
 6407 1cd4 1D       		.uleb128 0x1d
ARM GAS  /var/folders/3j/4xdnk5197cv_b7cw3n33qk7r0000gn/T//ccxkT2Pi.s 			page 114


 6408 1cd5 8801     		.2byte	0x188
 6409 1cd7 03       		.byte	0x3
 6410 1cd8 04       		.byte	0x4
 6411 1cd9 0D1D0000 		.4byte	0x1d0d
 6412 1cdd 08       		.uleb128 0x8
 6413 1cde 69080000 		.4byte	.LASF426
 6414 1ce2 03       		.byte	0x3
 6415 1ce3 05       		.byte	0x5
 6416 1ce4 0D1D0000 		.4byte	0x1d0d
 6417 1ce8 00       		.byte	0
 6418 1ce9 09       		.uleb128 0x9
 6419 1cea 696400   		.ascii	"id\000"
 6420 1ced 03       		.byte	0x3
 6421 1cee 06       		.byte	0x6
 6422 1cef 2C000000 		.4byte	0x2c
 6423 1cf3 08       		.byte	0x8
 6424 1cf4 08       		.uleb128 0x8
 6425 1cf5 61190000 		.4byte	.LASF427
 6426 1cf9 03       		.byte	0x3
 6427 1cfa 07       		.byte	0x7
 6428 1cfb 42110000 		.4byte	0x1142
 6429 1cff 0C       		.byte	0xc
 6430 1d00 08       		.uleb128 0x8
 6431 1d01 15130000 		.4byte	.LASF159
 6432 1d05 03       		.byte	0x3
 6433 1d06 08       		.byte	0x8
 6434 1d07 B81C0000 		.4byte	0x1cb8
 6435 1d0b 28       		.byte	0x28
 6436 1d0c 00       		.byte	0
 6437 1d0d 02       		.uleb128 0x2
 6438 1d0e 08       		.byte	0x8
 6439 1d0f 04       		.byte	0x4
 6440 1d10 3A0E0000 		.4byte	.LASF428
 6441 1d14 04       		.uleb128 0x4
 6442 1d15 88070000 		.4byte	.LASF429
 6443 1d19 03       		.byte	0x3
 6444 1d1a 09       		.byte	0x9
 6445 1d1b D41C0000 		.4byte	0x1cd4
 6446 1d1f 0A       		.uleb128 0xa
 6447 1d20 1C       		.byte	0x1c
 6448 1d21 03       		.byte	0x3
 6449 1d22 0B       		.byte	0xb
 6450 1d23 401D0000 		.4byte	0x1d40
 6451 1d27 09       		.uleb128 0x9
 6452 1d28 50414400 		.ascii	"PAD\000"
 6453 1d2c 03       		.byte	0x3
 6454 1d2d 0C       		.byte	0xc
 6455 1d2e 2C000000 		.4byte	0x2c
 6456 1d32 00       		.byte	0
 6457 1d33 08       		.uleb128 0x8
 6458 1d34 26040000 		.4byte	.LASF430
 6459 1d38 03       		.byte	0x3
 6460 1d39 0D       		.byte	0xd
 6461 1d3a A5090000 		.4byte	0x9a5
 6462 1d3e 04       		.byte	0x4
 6463 1d3f 00       		.byte	0
 6464 1d40 04       		.uleb128 0x4
ARM GAS  /var/folders/3j/4xdnk5197cv_b7cw3n33qk7r0000gn/T//ccxkT2Pi.s 			page 115


 6465 1d41 21140000 		.4byte	.LASF431
 6466 1d45 03       		.byte	0x3
 6467 1d46 0E       		.byte	0xe
 6468 1d47 1F1D0000 		.4byte	0x1d1f
 6469 1d4b 0A       		.uleb128 0xa
 6470 1d4c 38       		.byte	0x38
 6471 1d4d 03       		.byte	0x3
 6472 1d4e 10       		.byte	0x10
 6473 1d4f 6C1D0000 		.4byte	0x1d6c
 6474 1d53 08       		.uleb128 0x8
 6475 1d54 58180000 		.4byte	.LASF432
 6476 1d58 03       		.byte	0x3
 6477 1d59 11       		.byte	0x11
 6478 1d5a 401D0000 		.4byte	0x1d40
 6479 1d5e 00       		.byte	0
 6480 1d5f 08       		.uleb128 0x8
 6481 1d60 5F180000 		.4byte	.LASF433
 6482 1d64 03       		.byte	0x3
 6483 1d65 12       		.byte	0x12
 6484 1d66 401D0000 		.4byte	0x1d40
 6485 1d6a 1C       		.byte	0x1c
 6486 1d6b 00       		.byte	0
 6487 1d6c 2E       		.uleb128 0x2e
 6488 1d6d 4D555800 		.ascii	"MUX\000"
 6489 1d71 03       		.byte	0x3
 6490 1d72 13       		.byte	0x13
 6491 1d73 4B1D0000 		.4byte	0x1d4b
 6492 1d77 1D       		.uleb128 0x1d
 6493 1d78 5003     		.2byte	0x350
 6494 1d7a 03       		.byte	0x3
 6495 1d7b 15       		.byte	0x15
 6496 1d7c B41D0000 		.4byte	0x1db4
 6497 1d80 08       		.uleb128 0x8
 6498 1d81 651A0000 		.4byte	.LASF434
 6499 1d85 03       		.byte	0x3
 6500 1d86 16       		.byte	0x16
 6501 1d87 141D0000 		.4byte	0x1d14
 6502 1d8b 00       		.byte	0
 6503 1d8c 28       		.uleb128 0x28
 6504 1d8d 76090000 		.4byte	.LASF435
 6505 1d91 03       		.byte	0x3
 6506 1d92 17       		.byte	0x17
 6507 1d93 141D0000 		.4byte	0x1d14
 6508 1d97 8801     		.2byte	0x188
 6509 1d99 1E       		.uleb128 0x1e
 6510 1d9a 6D757800 		.ascii	"mux\000"
 6511 1d9e 03       		.byte	0x3
 6512 1d9f 18       		.byte	0x18
 6513 1da0 6C1D0000 		.4byte	0x1d6c
 6514 1da4 1003     		.2byte	0x310
 6515 1da6 28       		.uleb128 0x28
 6516 1da7 D00A0000 		.4byte	.LASF436
 6517 1dab 03       		.byte	0x3
 6518 1dac 19       		.byte	0x19
 6519 1dad 25000000 		.4byte	0x25
 6520 1db1 4803     		.2byte	0x348
 6521 1db3 00       		.byte	0
ARM GAS  /var/folders/3j/4xdnk5197cv_b7cw3n33qk7r0000gn/T//ccxkT2Pi.s 			page 116


 6522 1db4 04       		.uleb128 0x4
 6523 1db5 F5100000 		.4byte	.LASF437
 6524 1db9 03       		.byte	0x3
 6525 1dba 1A       		.byte	0x1a
 6526 1dbb 771D0000 		.4byte	0x1d77
 6527 1dbf 1D       		.uleb128 0x1d
 6528 1dc0 400D     		.2byte	0xd40
 6529 1dc2 03       		.byte	0x3
 6530 1dc3 29       		.byte	0x29
 6531 1dc4 FC1D0000 		.4byte	0x1dfc
 6532 1dc8 08       		.uleb128 0x8
 6533 1dc9 DD0A0000 		.4byte	.LASF438
 6534 1dcd 03       		.byte	0x3
 6535 1dce 2A       		.byte	0x2a
 6536 1dcf B41D0000 		.4byte	0x1db4
 6537 1dd3 00       		.byte	0
 6538 1dd4 28       		.uleb128 0x28
 6539 1dd5 39090000 		.4byte	.LASF439
 6540 1dd9 03       		.byte	0x3
 6541 1dda 2B       		.byte	0x2b
 6542 1ddb B41D0000 		.4byte	0x1db4
 6543 1ddf 5003     		.2byte	0x350
 6544 1de1 28       		.uleb128 0x28
 6545 1de2 BE0C0000 		.4byte	.LASF440
 6546 1de6 03       		.byte	0x3
 6547 1de7 2C       		.byte	0x2c
 6548 1de8 B41D0000 		.4byte	0x1db4
 6549 1dec A006     		.2byte	0x6a0
 6550 1dee 28       		.uleb128 0x28
 6551 1def C9020000 		.4byte	.LASF441
 6552 1df3 03       		.byte	0x3
 6553 1df4 2D       		.byte	0x2d
 6554 1df5 B41D0000 		.4byte	0x1db4
 6555 1df9 F009     		.2byte	0x9f0
 6556 1dfb 00       		.byte	0
 6557 1dfc 04       		.uleb128 0x4
 6558 1dfd 18040000 		.4byte	.LASF442
 6559 1e01 03       		.byte	0x3
 6560 1e02 2E       		.byte	0x2e
 6561 1e03 BF1D0000 		.4byte	0x1dbf
 6562 1e07 13       		.uleb128 0x13
 6563 1e08 070F0000 		.4byte	0xf07
 6564 1e0c 171E0000 		.4byte	0x1e17
 6565 1e10 14       		.uleb128 0x14
 6566 1e11 3E000000 		.4byte	0x3e
 6567 1e15 01       		.byte	0x1
 6568 1e16 00       		.byte	0
 6569 1e17 06       		.uleb128 0x6
 6570 1e18 071E0000 		.4byte	0x1e07
 6571 1e1c 2F       		.uleb128 0x2f
 6572 1e1d BF140000 		.4byte	.LASF443
 6573 1e21 01       		.byte	0x1
 6574 1e22 66       		.byte	0x66
 6575 1e23 171E0000 		.4byte	0x1e17
 6576 1e27 05       		.uleb128 0x5
 6577 1e28 03       		.byte	0x3
 6578 1e29 00000000 		.4byte	commands
ARM GAS  /var/folders/3j/4xdnk5197cv_b7cw3n33qk7r0000gn/T//ccxkT2Pi.s 			page 117


 6579 1e2d 2F       		.uleb128 0x2f
 6580 1e2e 8D160000 		.4byte	.LASF444
 6581 1e32 01       		.byte	0x1
 6582 1e33 70       		.byte	0x70
 6583 1e34 3E0F0000 		.4byte	0xf3e
 6584 1e38 05       		.uleb128 0x5
 6585 1e39 03       		.byte	0x3
 6586 1e3a 00000000 		.4byte	shell_config
 6587 1e3e 2F       		.uleb128 0x2f
 6588 1e3f 93110000 		.4byte	.LASF445
 6589 1e43 01       		.byte	0x1
 6590 1e44 77       		.byte	0x77
 6591 1e45 140E0000 		.4byte	0xe14
 6592 1e49 05       		.uleb128 0x5
 6593 1e4a 03       		.byte	0x3
 6594 1e4b 00000000 		.4byte	waThread_front_driver
 6595 1e4f 2F       		.uleb128 0x2f
 6596 1e50 720E0000 		.4byte	.LASF446
 6597 1e54 01       		.byte	0x1
 6598 1e55 78       		.byte	0x78
 6599 1e56 140E0000 		.4byte	0xe14
 6600 1e5a 05       		.uleb128 0x5
 6601 1e5b 03       		.byte	0x3
 6602 1e5c 00000000 		.4byte	waThread_front_passenger
 6603 1e60 2F       		.uleb128 0x2f
 6604 1e61 AB000000 		.4byte	.LASF447
 6605 1e65 01       		.byte	0x1
 6606 1e66 79       		.byte	0x79
 6607 1e67 140E0000 		.4byte	0xe14
 6608 1e6b 05       		.uleb128 0x5
 6609 1e6c 03       		.byte	0x3
 6610 1e6d 00000000 		.4byte	waThread_rear_driver
 6611 1e71 2F       		.uleb128 0x2f
 6612 1e72 91100000 		.4byte	.LASF448
 6613 1e76 01       		.byte	0x1
 6614 1e77 7A       		.byte	0x7a
 6615 1e78 140E0000 		.4byte	0xe14
 6616 1e7c 05       		.uleb128 0x5
 6617 1e7d 03       		.byte	0x3
 6618 1e7e 00000000 		.4byte	waThread_rear_passenger
 6619 1e82 2F       		.uleb128 0x2f
 6620 1e83 EC0B0000 		.4byte	.LASF449
 6621 1e87 01       		.byte	0x1
 6622 1e88 7C       		.byte	0x7c
 6623 1e89 140E0000 		.4byte	0xe14
 6624 1e8d 05       		.uleb128 0x5
 6625 1e8e 03       		.byte	0x3
 6626 1e8f 00000000 		.4byte	waThread_display
 6627 1e93 30       		.uleb128 0x30
 6628 1e94 91060000 		.4byte	.LASF450
 6629 1e98 01       		.byte	0x1
 6630 1e99 86       		.byte	0x86
 6631 1e9a FC1D0000 		.4byte	0x1dfc
 6632 1e9e 05       		.uleb128 0x5
 6633 1e9f 03       		.byte	0x3
 6634 1ea0 00000000 		.4byte	system
 6635 1ea4 31       		.uleb128 0x31
ARM GAS  /var/folders/3j/4xdnk5197cv_b7cw3n33qk7r0000gn/T//ccxkT2Pi.s 			page 118


 6636 1ea5 DA180000 		.4byte	.LASF457
 6637 1ea9 01       		.byte	0x1
 6638 1eaa 87       		.byte	0x87
 6639 1eab 2C000000 		.4byte	0x2c
 6640 1eaf 30       		.uleb128 0x30
 6641 1eb0 2C030000 		.4byte	.LASF451
 6642 1eb4 01       		.byte	0x1
 6643 1eb5 88       		.byte	0x88
 6644 1eb6 860F0000 		.4byte	0xf86
 6645 1eba 05       		.uleb128 0x5
 6646 1ebb 03       		.byte	0x3
 6647 1ebc 00000000 		.4byte	system_failure_status
 6648 1ec0 32       		.uleb128 0x32
 6649 1ec1 6D696E00 		.ascii	"min\000"
 6650 1ec5 01       		.byte	0x1
 6651 1ec6 EB       		.byte	0xeb
 6652 1ec7 25000000 		.4byte	0x25
 6653 1ecb 01       		.byte	0x1
 6654 1ecc E31E0000 		.4byte	0x1ee3
 6655 1ed0 33       		.uleb128 0x33
 6656 1ed1 6100     		.ascii	"a\000"
 6657 1ed3 01       		.byte	0x1
 6658 1ed4 EB       		.byte	0xeb
 6659 1ed5 25000000 		.4byte	0x25
 6660 1ed9 33       		.uleb128 0x33
 6661 1eda 6200     		.ascii	"b\000"
 6662 1edc 01       		.byte	0x1
 6663 1edd EB       		.byte	0xeb
 6664 1ede 25000000 		.4byte	0x25
 6665 1ee2 00       		.byte	0
 6666 1ee3 34       		.uleb128 0x34
 6667 1ee4 0C170000 		.4byte	.LASF452
 6668 1ee8 01       		.byte	0x1
 6669 1ee9 E1       		.byte	0xe1
 6670 1eea 3C010000 		.4byte	0x13c
 6671 1eee 00000000 		.4byte	.LFB37
 6672 1ef2 1C000000 		.4byte	.LFE37-.LFB37
 6673 1ef6 01       		.uleb128 0x1
 6674 1ef7 9C       		.byte	0x9c
 6675 1ef8 081F0000 		.4byte	0x1f08
 6676 1efc 35       		.uleb128 0x35
 6677 1efd 7000     		.ascii	"p\000"
 6678 1eff 01       		.byte	0x1
 6679 1f00 E1       		.byte	0xe1
 6680 1f01 D1020000 		.4byte	0x2d1
 6681 1f05 01       		.uleb128 0x1
 6682 1f06 50       		.byte	0x50
 6683 1f07 00       		.byte	0
 6684 1f08 36       		.uleb128 0x36
 6685 1f09 EC140000 		.4byte	.LASF453
 6686 1f0d 01       		.byte	0x1
 6687 1f0e D2       		.byte	0xd2
 6688 1f0f 3C010000 		.4byte	0x13c
 6689 1f13 00000000 		.4byte	.LFB36
 6690 1f17 48020000 		.4byte	.LFE36-.LFB36
 6691 1f1b 01       		.uleb128 0x1
 6692 1f1c 9C       		.byte	0x9c
ARM GAS  /var/folders/3j/4xdnk5197cv_b7cw3n33qk7r0000gn/T//ccxkT2Pi.s 			page 119


 6693 1f1d 6B210000 		.4byte	0x216b
 6694 1f21 37       		.uleb128 0x37
 6695 1f22 7000     		.ascii	"p\000"
 6696 1f24 01       		.byte	0x1
 6697 1f25 D2       		.byte	0xd2
 6698 1f26 D1020000 		.4byte	0x2d1
 6699 1f2a 00000000 		.4byte	.LLST48
 6700 1f2e 2F       		.uleb128 0x2f
 6701 1f2f FF050000 		.4byte	.LASF454
 6702 1f33 01       		.byte	0x1
 6703 1f34 D4       		.byte	0xd4
 6704 1f35 B41D0000 		.4byte	0x1db4
 6705 1f39 08       		.uleb128 0x8
 6706 1f3a 93       		.byte	0x93
 6707 1f3b 14       		.uleb128 0x14
 6708 1f3c 56       		.byte	0x56
 6709 1f3d 93       		.byte	0x93
 6710 1f3e 02       		.uleb128 0x2
 6711 1f3f 93       		.byte	0x93
 6712 1f40 BA06     		.uleb128 0x33a
 6713 1f42 38       		.uleb128 0x38
 6714 1f43 30000000 		.4byte	.Ldebug_ranges0+0x30
 6715 1f47 C2200000 		.4byte	0x20c2
 6716 1f4b 2F       		.uleb128 0x2f
 6717 1f4c BD190000 		.4byte	.LASF455
 6718 1f50 01       		.byte	0x1
 6719 1f51 DB       		.byte	0xdb
 6720 1f52 2C000000 		.4byte	0x2c
 6721 1f56 10       		.uleb128 0x10
 6722 1f57 F5       		.byte	0xf5
 6723 1f58 04       		.uleb128 0x4
 6724 1f59 25       		.uleb128 0x25
 6725 1f5a F4       		.byte	0xf4
 6726 1f5b 25       		.uleb128 0x25
 6727 1f5c 04       		.byte	0x4
 6728 1f5d 00004843 		.4byte	0x43480000
 6729 1f61 1E       		.byte	0x1e
 6730 1f62 F7       		.byte	0xf7
 6731 1f63 2C       		.uleb128 0x2c
 6732 1f64 F7       		.byte	0xf7
 6733 1f65 00       		.uleb128 0
 6734 1f66 9F       		.byte	0x9f
 6735 1f67 39       		.uleb128 0x39
 6736 1f68 71280000 		.4byte	0x2871
 6737 1f6c 38000000 		.4byte	.LBB57
 6738 1f70 48000000 		.4byte	.Ldebug_ranges0+0x48
 6739 1f74 01       		.byte	0x1
 6740 1f75 DA       		.byte	0xda
 6741 1f76 9B1F0000 		.4byte	0x1f9b
 6742 1f7a 3A       		.uleb128 0x3a
 6743 1f7b 81280000 		.4byte	0x2881
 6744 1f7f 37000000 		.4byte	.LLST49
 6745 1f83 3B       		.uleb128 0x3b
 6746 1f84 71280000 		.4byte	0x2871
 6747 1f88 C0010000 		.4byte	.LBB59
 6748 1f8c 1C000000 		.4byte	.LBE59-.LBB59
 6749 1f90 3A       		.uleb128 0x3a
ARM GAS  /var/folders/3j/4xdnk5197cv_b7cw3n33qk7r0000gn/T//ccxkT2Pi.s 			page 120


 6750 1f91 81280000 		.4byte	0x2881
 6751 1f95 4A000000 		.4byte	.LLST50
 6752 1f99 00       		.byte	0
 6753 1f9a 00       		.byte	0
 6754 1f9b 39       		.uleb128 0x39
 6755 1f9c A8290000 		.4byte	0x29a8
 6756 1fa0 90000000 		.4byte	.LBB63
 6757 1fa4 68000000 		.4byte	.Ldebug_ranges0+0x68
 6758 1fa8 01       		.byte	0x1
 6759 1fa9 D8       		.byte	0xd8
 6760 1faa 66200000 		.4byte	0x2066
 6761 1fae 3C       		.uleb128 0x3c
 6762 1faf 68000000 		.4byte	.Ldebug_ranges0+0x68
 6763 1fb3 3D       		.uleb128 0x3d
 6764 1fb4 C3290000 		.4byte	0x29c3
 6765 1fb8 5D000000 		.4byte	.LLST51
 6766 1fbc 39       		.uleb128 0x39
 6767 1fbd 77290000 		.4byte	0x2977
 6768 1fc1 90000000 		.4byte	.LBB65
 6769 1fc5 80000000 		.4byte	.Ldebug_ranges0+0x80
 6770 1fc9 03       		.byte	0x3
 6771 1fca A3       		.byte	0xa3
 6772 1fcb 12200000 		.4byte	0x2012
 6773 1fcf 3E       		.uleb128 0x3e
 6774 1fd0 91290000 		.4byte	0x2991
 6775 1fd4 03       		.uleb128 0x3
 6776 1fd5 91       		.byte	0x91
 6777 1fd6 F86B     		.sleb128 -2568
 6778 1fd8 3E       		.uleb128 0x3e
 6779 1fd9 87290000 		.4byte	0x2987
 6780 1fdd 03       		.uleb128 0x3
 6781 1fde 91       		.byte	0x91
 6782 1fdf F872     		.sleb128 -1672
 6783 1fe1 3C       		.uleb128 0x3c
 6784 1fe2 80000000 		.4byte	.Ldebug_ranges0+0x80
 6785 1fe6 3D       		.uleb128 0x3d
 6786 1fe7 9C290000 		.4byte	0x299c
 6787 1feb 7C000000 		.4byte	.LLST52
 6788 1fef 3F       		.uleb128 0x3f
 6789 1ff0 10010000 		.4byte	.LVL104
 6790 1ff4 8D280000 		.4byte	0x288d
 6791 1ff8 40       		.uleb128 0x40
 6792 1ff9 20010000 		.4byte	.LVL105
 6793 1ffd F4360000 		.4byte	0x36f4
 6794 2001 41       		.uleb128 0x41
 6795 2002 01       		.uleb128 0x1
 6796 2003 50       		.byte	0x50
 6797 2004 03       		.uleb128 0x3
 6798 2005 91       		.byte	0x91
 6799 2006 9873     		.sleb128 -1640
 6800 2008 41       		.uleb128 0x41
 6801 2009 01       		.uleb128 0x1
 6802 200a 51       		.byte	0x51
 6803 200b 03       		.uleb128 0x3
 6804 200c 91       		.byte	0x91
 6805 200d FC72     		.sleb128 -1668
 6806 200f 00       		.byte	0
ARM GAS  /var/folders/3j/4xdnk5197cv_b7cw3n33qk7r0000gn/T//ccxkT2Pi.s 			page 121


 6807 2010 00       		.byte	0
 6808 2011 00       		.byte	0
 6809 2012 42       		.uleb128 0x42
 6810 2013 77290000 		.4byte	0x2977
 6811 2017 20010000 		.4byte	.LBB68
 6812 201b 98000000 		.4byte	.Ldebug_ranges0+0x98
 6813 201f 03       		.byte	0x3
 6814 2020 A4       		.byte	0xa4
 6815 2021 3E       		.uleb128 0x3e
 6816 2022 91290000 		.4byte	0x2991
 6817 2026 03       		.uleb128 0x3
 6818 2027 91       		.byte	0x91
 6819 2028 B06C     		.sleb128 -2512
 6820 202a 3E       		.uleb128 0x3e
 6821 202b 87290000 		.4byte	0x2987
 6822 202f 03       		.uleb128 0x3
 6823 2030 91       		.byte	0x91
 6824 2031 8076     		.sleb128 -1280
 6825 2033 3C       		.uleb128 0x3c
 6826 2034 98000000 		.4byte	.Ldebug_ranges0+0x98
 6827 2038 3D       		.uleb128 0x3d
 6828 2039 9C290000 		.4byte	0x299c
 6829 203d 90000000 		.4byte	.LLST53
 6830 2041 3F       		.uleb128 0x3f
 6831 2042 90010000 		.4byte	.LVL109
 6832 2046 8D280000 		.4byte	0x288d
 6833 204a 40       		.uleb128 0x40
 6834 204b A8010000 		.4byte	.LVL110
 6835 204f F4360000 		.4byte	0x36f4
 6836 2053 41       		.uleb128 0x41
 6837 2054 01       		.uleb128 0x1
 6838 2055 50       		.byte	0x50
 6839 2056 03       		.uleb128 0x3
 6840 2057 91       		.byte	0x91
 6841 2058 A076     		.sleb128 -1248
 6842 205a 41       		.uleb128 0x41
 6843 205b 01       		.uleb128 0x1
 6844 205c 51       		.byte	0x51
 6845 205d 03       		.uleb128 0x3
 6846 205e 91       		.byte	0x91
 6847 205f 8476     		.sleb128 -1276
 6848 2061 00       		.byte	0
 6849 2062 00       		.byte	0
 6850 2063 00       		.byte	0
 6851 2064 00       		.byte	0
 6852 2065 00       		.byte	0
 6853 2066 43       		.uleb128 0x43
 6854 2067 71280000 		.4byte	0x2871
 6855 206b DC010000 		.4byte	.LBB77
 6856 206f 24000000 		.4byte	.LBE77-.LBB77
 6857 2073 01       		.byte	0x1
 6858 2074 DA       		.byte	0xda
 6859 2075 9A200000 		.4byte	0x209a
 6860 2079 3A       		.uleb128 0x3a
 6861 207a 81280000 		.4byte	0x2881
 6862 207e A4000000 		.4byte	.LLST54
 6863 2082 3B       		.uleb128 0x3b
ARM GAS  /var/folders/3j/4xdnk5197cv_b7cw3n33qk7r0000gn/T//ccxkT2Pi.s 			page 122


 6864 2083 71280000 		.4byte	0x2871
 6865 2087 E4010000 		.4byte	.LBB79
 6866 208b 1C000000 		.4byte	.LBE79-.LBB79
 6867 208f 3A       		.uleb128 0x3a
 6868 2090 81280000 		.4byte	0x2881
 6869 2094 B7000000 		.4byte	.LLST55
 6870 2098 00       		.byte	0
 6871 2099 00       		.byte	0
 6872 209a 43       		.uleb128 0x43
 6873 209b C01E0000 		.4byte	0x1ec0
 6874 209f 00020000 		.4byte	.LBB81
 6875 20a3 14000000 		.4byte	.LBE81-.LBB81
 6876 20a7 01       		.byte	0x1
 6877 20a8 DA       		.byte	0xda
 6878 20a9 B8200000 		.4byte	0x20b8
 6879 20ad 44       		.uleb128 0x44
 6880 20ae D91E0000 		.4byte	0x1ed9
 6881 20b2 44       		.uleb128 0x44
 6882 20b3 D01E0000 		.4byte	0x1ed0
 6883 20b7 00       		.byte	0
 6884 20b8 3F       		.uleb128 0x3f
 6885 20b9 28020000 		.4byte	.LVL120
 6886 20bd 00370000 		.4byte	0x3700
 6887 20c1 00       		.byte	0
 6888 20c2 45       		.uleb128 0x45
 6889 20c3 28000000 		.4byte	.LVL96
 6890 20c7 0C370000 		.4byte	0x370c
 6891 20cb E3200000 		.4byte	0x20e3
 6892 20cf 41       		.uleb128 0x41
 6893 20d0 01       		.uleb128 0x1
 6894 20d1 50       		.byte	0x50
 6895 20d2 02       		.uleb128 0x2
 6896 20d3 78       		.byte	0x78
 6897 20d4 00       		.sleb128 0
 6898 20d5 41       		.uleb128 0x41
 6899 20d6 01       		.uleb128 0x1
 6900 20d7 51       		.byte	0x51
 6901 20d8 02       		.uleb128 0x2
 6902 20d9 74       		.byte	0x74
 6903 20da 00       		.sleb128 0
 6904 20db 41       		.uleb128 0x41
 6905 20dc 01       		.uleb128 0x1
 6906 20dd 52       		.byte	0x52
 6907 20de 03       		.uleb128 0x3
 6908 20df 0A       		.byte	0xa
 6909 20e0 5003     		.2byte	0x350
 6910 20e2 00       		.byte	0
 6911 20e3 45       		.uleb128 0x45
 6912 20e4 5C000000 		.4byte	.LVL99
 6913 20e8 0C370000 		.4byte	0x370c
 6914 20ec 05210000 		.4byte	0x2105
 6915 20f0 41       		.uleb128 0x41
 6916 20f1 01       		.uleb128 0x1
 6917 20f2 50       		.byte	0x50
 6918 20f3 03       		.uleb128 0x3
 6919 20f4 91       		.byte	0x91
 6920 20f5 E06C     		.sleb128 -2464
ARM GAS  /var/folders/3j/4xdnk5197cv_b7cw3n33qk7r0000gn/T//ccxkT2Pi.s 			page 123


 6921 20f7 41       		.uleb128 0x41
 6922 20f8 01       		.uleb128 0x1
 6923 20f9 51       		.byte	0x51
 6924 20fa 02       		.uleb128 0x2
 6925 20fb 78       		.byte	0x78
 6926 20fc 00       		.sleb128 0
 6927 20fd 41       		.uleb128 0x41
 6928 20fe 01       		.uleb128 0x1
 6929 20ff 52       		.byte	0x52
 6930 2100 03       		.uleb128 0x3
 6931 2101 0A       		.byte	0xa
 6932 2102 8801     		.2byte	0x188
 6933 2104 00       		.byte	0
 6934 2105 45       		.uleb128 0x45
 6935 2106 78000000 		.4byte	.LVL100
 6936 210a 0C370000 		.4byte	0x370c
 6937 210e 28210000 		.4byte	0x2128
 6938 2112 41       		.uleb128 0x41
 6939 2113 01       		.uleb128 0x1
 6940 2114 50       		.byte	0x50
 6941 2115 03       		.uleb128 0x3
 6942 2116 91       		.byte	0x91
 6943 2117 E86F     		.sleb128 -2072
 6944 2119 41       		.uleb128 0x41
 6945 211a 01       		.uleb128 0x1
 6946 211b 51       		.byte	0x51
 6947 211c 03       		.uleb128 0x3
 6948 211d 91       		.byte	0x91
 6949 211e 887C     		.sleb128 -504
 6950 2120 41       		.uleb128 0x41
 6951 2121 01       		.uleb128 0x1
 6952 2122 52       		.byte	0x52
 6953 2123 03       		.uleb128 0x3
 6954 2124 0A       		.byte	0xa
 6955 2125 8801     		.2byte	0x188
 6956 2127 00       		.byte	0
 6957 2128 45       		.uleb128 0x45
 6958 2129 B8000000 		.4byte	.LVL102
 6959 212d 0C370000 		.4byte	0x370c
 6960 2131 4B210000 		.4byte	0x214b
 6961 2135 41       		.uleb128 0x41
 6962 2136 01       		.uleb128 0x1
 6963 2137 50       		.byte	0x50
 6964 2138 03       		.uleb128 0x3
 6965 2139 91       		.byte	0x91
 6966 213a F072     		.sleb128 -1680
 6967 213c 41       		.uleb128 0x41
 6968 213d 01       		.uleb128 0x1
 6969 213e 51       		.byte	0x51
 6970 213f 03       		.uleb128 0x3
 6971 2140 91       		.byte	0x91
 6972 2141 E06C     		.sleb128 -2464
 6973 2143 41       		.uleb128 0x41
 6974 2144 01       		.uleb128 0x1
 6975 2145 52       		.byte	0x52
 6976 2146 03       		.uleb128 0x3
 6977 2147 0A       		.byte	0xa
ARM GAS  /var/folders/3j/4xdnk5197cv_b7cw3n33qk7r0000gn/T//ccxkT2Pi.s 			page 124


 6978 2148 8801     		.2byte	0x188
 6979 214a 00       		.byte	0
 6980 214b 40       		.uleb128 0x40
 6981 214c 38010000 		.4byte	.LVL107
 6982 2150 0C370000 		.4byte	0x370c
 6983 2154 41       		.uleb128 0x41
 6984 2155 01       		.uleb128 0x1
 6985 2156 50       		.byte	0x50
 6986 2157 03       		.uleb128 0x3
 6987 2158 91       		.byte	0x91
 6988 2159 F875     		.sleb128 -1288
 6989 215b 41       		.uleb128 0x41
 6990 215c 01       		.uleb128 0x1
 6991 215d 51       		.byte	0x51
 6992 215e 03       		.uleb128 0x3
 6993 215f 91       		.byte	0x91
 6994 2160 E86F     		.sleb128 -2072
 6995 2162 41       		.uleb128 0x41
 6996 2163 01       		.uleb128 0x1
 6997 2164 52       		.byte	0x52
 6998 2165 03       		.uleb128 0x3
 6999 2166 0A       		.byte	0xa
 7000 2167 8801     		.2byte	0x188
 7001 2169 00       		.byte	0
 7002 216a 00       		.byte	0
 7003 216b 46       		.uleb128 0x46
 7004 216c 6E050000 		.4byte	.LASF491
 7005 2170 01       		.byte	0x1
 7006 2171 8A       		.byte	0x8a
 7007 2172 2C000000 		.4byte	0x2c
 7008 2176 00000000 		.4byte	.LFB35
 7009 217a 14020000 		.4byte	.LFE35-.LFB35
 7010 217e 01       		.uleb128 0x1
 7011 217f 9C       		.byte	0x9c
 7012 2180 9A230000 		.4byte	0x239a
 7013 2184 47       		.uleb128 0x47
 7014 2185 94130000 		.4byte	.LASF456
 7015 2189 01       		.byte	0x1
 7016 218a 9E       		.byte	0x9e
 7017 218b 6C1D0000 		.4byte	0x1d6c
 7018 218f CA000000 		.4byte	.LLST81
 7019 2193 31       		.uleb128 0x31
 7020 2194 DB120000 		.4byte	.LASF458
 7021 2198 01       		.byte	0x1
 7022 2199 A4       		.byte	0xa4
 7023 219a 6C1D0000 		.4byte	0x1d6c
 7024 219e 2F       		.uleb128 0x2f
 7025 219f C9000000 		.4byte	.LASF459
 7026 21a3 01       		.byte	0x1
 7027 21a4 BA       		.byte	0xba
 7028 21a5 D1020000 		.4byte	0x2d1
 7029 21a9 06       		.uleb128 0x6
 7030 21aa 03       		.byte	0x3
 7031 21ab 00000000 		.4byte	system
 7032 21af 9F       		.byte	0x9f
 7033 21b0 2F       		.uleb128 0x2f
 7034 21b1 00070000 		.4byte	.LASF460
ARM GAS  /var/folders/3j/4xdnk5197cv_b7cw3n33qk7r0000gn/T//ccxkT2Pi.s 			page 125


 7035 21b5 01       		.byte	0x1
 7036 21b6 BB       		.byte	0xbb
 7037 21b7 D1020000 		.4byte	0x2d1
 7038 21bb 06       		.uleb128 0x6
 7039 21bc 03       		.byte	0x3
 7040 21bd 50030000 		.4byte	system+848
 7041 21c1 9F       		.byte	0x9f
 7042 21c2 2F       		.uleb128 0x2f
 7043 21c3 CF0E0000 		.4byte	.LASF461
 7044 21c7 01       		.byte	0x1
 7045 21c8 BD       		.byte	0xbd
 7046 21c9 D1020000 		.4byte	0x2d1
 7047 21cd 06       		.uleb128 0x6
 7048 21ce 03       		.byte	0x3
 7049 21cf A0060000 		.4byte	system+1696
 7050 21d3 9F       		.byte	0x9f
 7051 21d4 2F       		.uleb128 0x2f
 7052 21d5 030B0000 		.4byte	.LASF462
 7053 21d9 01       		.byte	0x1
 7054 21da BE       		.byte	0xbe
 7055 21db D1020000 		.4byte	0x2d1
 7056 21df 06       		.uleb128 0x6
 7057 21e0 03       		.byte	0x3
 7058 21e1 F0090000 		.4byte	system+2544
 7059 21e5 9F       		.byte	0x9f
 7060 21e6 2F       		.uleb128 0x2f
 7061 21e7 3D100000 		.4byte	.LASF463
 7062 21eb 01       		.byte	0x1
 7063 21ec C0       		.byte	0xc0
 7064 21ed D1020000 		.4byte	0x2d1
 7065 21f1 06       		.uleb128 0x6
 7066 21f2 03       		.byte	0x3
 7067 21f3 00000000 		.4byte	system
 7068 21f7 9F       		.byte	0x9f
 7069 21f8 3F       		.uleb128 0x3f
 7070 21f9 18000000 		.4byte	.LVL247
 7071 21fd 1B370000 		.4byte	0x371b
 7072 2201 3F       		.uleb128 0x3f
 7073 2202 1C000000 		.4byte	.LVL248
 7074 2206 26370000 		.4byte	0x3726
 7075 220a 45       		.uleb128 0x45
 7076 220b 28000000 		.4byte	.LVL249
 7077 220f 31370000 		.4byte	0x3731
 7078 2213 23220000 		.4byte	0x2223
 7079 2217 41       		.uleb128 0x41
 7080 2218 01       		.uleb128 0x1
 7081 2219 50       		.byte	0x50
 7082 221a 02       		.uleb128 0x2
 7083 221b 74       		.byte	0x74
 7084 221c 00       		.sleb128 0
 7085 221d 41       		.uleb128 0x41
 7086 221e 01       		.uleb128 0x1
 7087 221f 51       		.byte	0x51
 7088 2220 01       		.uleb128 0x1
 7089 2221 30       		.byte	0x30
 7090 2222 00       		.byte	0
 7091 2223 45       		.uleb128 0x45
ARM GAS  /var/folders/3j/4xdnk5197cv_b7cw3n33qk7r0000gn/T//ccxkT2Pi.s 			page 126


 7092 2224 34000000 		.4byte	.LVL250
 7093 2228 3D370000 		.4byte	0x373d
 7094 222c 40220000 		.4byte	0x2240
 7095 2230 41       		.uleb128 0x41
 7096 2231 01       		.uleb128 0x1
 7097 2232 50       		.byte	0x50
 7098 2233 02       		.uleb128 0x2
 7099 2234 74       		.byte	0x74
 7100 2235 00       		.sleb128 0
 7101 2236 41       		.uleb128 0x41
 7102 2237 01       		.uleb128 0x1
 7103 2238 51       		.byte	0x51
 7104 2239 05       		.uleb128 0x5
 7105 223a 03       		.byte	0x3
 7106 223b 00000000 		.4byte	.LC3
 7107 223f 00       		.byte	0
 7108 2240 3F       		.uleb128 0x3f
 7109 2241 38000000 		.4byte	.LVL251
 7110 2245 48370000 		.4byte	0x3748
 7111 2249 45       		.uleb128 0x45
 7112 224a 48000000 		.4byte	.LVL252
 7113 224e 53370000 		.4byte	0x3753
 7114 2252 6D220000 		.4byte	0x226d
 7115 2256 41       		.uleb128 0x41
 7116 2257 01       		.uleb128 0x1
 7117 2258 50       		.byte	0x50
 7118 2259 05       		.uleb128 0x5
 7119 225a 03       		.byte	0x3
 7120 225b 00000000 		.4byte	.LANCHOR1
 7121 225f 41       		.uleb128 0x41
 7122 2260 01       		.uleb128 0x1
 7123 2261 51       		.byte	0x51
 7124 2262 03       		.uleb128 0x3
 7125 2263 0A       		.byte	0xa
 7126 2264 9810     		.2byte	0x1098
 7127 2266 41       		.uleb128 0x41
 7128 2267 01       		.uleb128 0x1
 7129 2268 52       		.byte	0x52
 7130 2269 02       		.uleb128 0x2
 7131 226a 08       		.byte	0x8
 7132 226b 41       		.byte	0x41
 7133 226c 00       		.byte	0
 7134 226d 45       		.uleb128 0x45
 7135 226e 38010000 		.4byte	.LVL253
 7136 2272 0C370000 		.4byte	0x370c
 7137 2276 8E220000 		.4byte	0x228e
 7138 227a 41       		.uleb128 0x41
 7139 227b 01       		.uleb128 0x1
 7140 227c 50       		.byte	0x50
 7141 227d 02       		.uleb128 0x2
 7142 227e 7D       		.byte	0x7d
 7143 227f 00       		.sleb128 0
 7144 2280 41       		.uleb128 0x41
 7145 2281 01       		.uleb128 0x1
 7146 2282 51       		.byte	0x51
 7147 2283 02       		.uleb128 0x2
 7148 2284 75       		.byte	0x75
ARM GAS  /var/folders/3j/4xdnk5197cv_b7cw3n33qk7r0000gn/T//ccxkT2Pi.s 			page 127


 7149 2285 10       		.sleb128 16
 7150 2286 41       		.uleb128 0x41
 7151 2287 01       		.uleb128 0x1
 7152 2288 52       		.byte	0x52
 7153 2289 03       		.uleb128 0x3
 7154 228a 0A       		.byte	0xa
 7155 228b 300D     		.2byte	0xd30
 7156 228d 00       		.byte	0
 7157 228e 3F       		.uleb128 0x3f
 7158 228f 40010000 		.4byte	.LVL254
 7159 2293 F8320000 		.4byte	0x32f8
 7160 2297 45       		.uleb128 0x45
 7161 2298 58010000 		.4byte	.LVL255
 7162 229c 5E370000 		.4byte	0x375e
 7163 22a0 C8220000 		.4byte	0x22c8
 7164 22a4 41       		.uleb128 0x41
 7165 22a5 01       		.uleb128 0x1
 7166 22a6 50       		.byte	0x50
 7167 22a7 05       		.uleb128 0x5
 7168 22a8 03       		.byte	0x3
 7169 22a9 00000000 		.4byte	.LANCHOR2
 7170 22ad 41       		.uleb128 0x41
 7171 22ae 01       		.uleb128 0x1
 7172 22af 51       		.byte	0x51
 7173 22b0 03       		.uleb128 0x3
 7174 22b1 0A       		.byte	0xa
 7175 22b2 1801     		.2byte	0x118
 7176 22b4 41       		.uleb128 0x41
 7177 22b5 01       		.uleb128 0x1
 7178 22b6 52       		.byte	0x52
 7179 22b7 02       		.uleb128 0x2
 7180 22b8 08       		.byte	0x8
 7181 22b9 40       		.byte	0x40
 7182 22ba 41       		.uleb128 0x41
 7183 22bb 01       		.uleb128 0x1
 7184 22bc 53       		.byte	0x53
 7185 22bd 02       		.uleb128 0x2
 7186 22be 74       		.byte	0x74
 7187 22bf 00       		.sleb128 0
 7188 22c0 41       		.uleb128 0x41
 7189 22c1 02       		.uleb128 0x2
 7190 22c2 7D       		.byte	0x7d
 7191 22c3 00       		.sleb128 0
 7192 22c4 02       		.uleb128 0x2
 7193 22c5 75       		.byte	0x75
 7194 22c6 00       		.sleb128 0
 7195 22c7 00       		.byte	0
 7196 22c8 45       		.uleb128 0x45
 7197 22c9 78010000 		.4byte	.LVL256
 7198 22cd 5E370000 		.4byte	0x375e
 7199 22d1 FA220000 		.4byte	0x22fa
 7200 22d5 41       		.uleb128 0x41
 7201 22d6 01       		.uleb128 0x1
 7202 22d7 50       		.byte	0x50
 7203 22d8 05       		.uleb128 0x5
 7204 22d9 03       		.byte	0x3
 7205 22da 00000000 		.4byte	.LANCHOR3
ARM GAS  /var/folders/3j/4xdnk5197cv_b7cw3n33qk7r0000gn/T//ccxkT2Pi.s 			page 128


 7206 22de 41       		.uleb128 0x41
 7207 22df 01       		.uleb128 0x1
 7208 22e0 51       		.byte	0x51
 7209 22e1 03       		.uleb128 0x3
 7210 22e2 0A       		.byte	0xa
 7211 22e3 1801     		.2byte	0x118
 7212 22e5 41       		.uleb128 0x41
 7213 22e6 01       		.uleb128 0x1
 7214 22e7 52       		.byte	0x52
 7215 22e8 02       		.uleb128 0x2
 7216 22e9 08       		.byte	0x8
 7217 22ea 40       		.byte	0x40
 7218 22eb 41       		.uleb128 0x41
 7219 22ec 01       		.uleb128 0x1
 7220 22ed 53       		.byte	0x53
 7221 22ee 02       		.uleb128 0x2
 7222 22ef 74       		.byte	0x74
 7223 22f0 00       		.sleb128 0
 7224 22f1 41       		.uleb128 0x41
 7225 22f2 02       		.uleb128 0x2
 7226 22f3 7D       		.byte	0x7d
 7227 22f4 00       		.sleb128 0
 7228 22f5 03       		.uleb128 0x3
 7229 22f6 75       		.byte	0x75
 7230 22f7 D006     		.sleb128 848
 7231 22f9 00       		.byte	0
 7232 22fa 45       		.uleb128 0x45
 7233 22fb 90010000 		.4byte	.LVL257
 7234 22ff 5E370000 		.4byte	0x375e
 7235 2303 2B230000 		.4byte	0x232b
 7236 2307 41       		.uleb128 0x41
 7237 2308 01       		.uleb128 0x1
 7238 2309 50       		.byte	0x50
 7239 230a 05       		.uleb128 0x5
 7240 230b 03       		.byte	0x3
 7241 230c 00000000 		.4byte	.LANCHOR4
 7242 2310 41       		.uleb128 0x41
 7243 2311 01       		.uleb128 0x1
 7244 2312 51       		.byte	0x51
 7245 2313 03       		.uleb128 0x3
 7246 2314 0A       		.byte	0xa
 7247 2315 1801     		.2byte	0x118
 7248 2317 41       		.uleb128 0x41
 7249 2318 01       		.uleb128 0x1
 7250 2319 52       		.byte	0x52
 7251 231a 02       		.uleb128 0x2
 7252 231b 08       		.byte	0x8
 7253 231c 40       		.byte	0x40
 7254 231d 41       		.uleb128 0x41
 7255 231e 01       		.uleb128 0x1
 7256 231f 53       		.byte	0x53
 7257 2320 02       		.uleb128 0x2
 7258 2321 74       		.byte	0x74
 7259 2322 00       		.sleb128 0
 7260 2323 41       		.uleb128 0x41
 7261 2324 02       		.uleb128 0x2
 7262 2325 7D       		.byte	0x7d
ARM GAS  /var/folders/3j/4xdnk5197cv_b7cw3n33qk7r0000gn/T//ccxkT2Pi.s 			page 129


 7263 2326 00       		.sleb128 0
 7264 2327 02       		.uleb128 0x2
 7265 2328 76       		.byte	0x76
 7266 2329 00       		.sleb128 0
 7267 232a 00       		.byte	0
 7268 232b 45       		.uleb128 0x45
 7269 232c A8010000 		.4byte	.LVL258
 7270 2330 5E370000 		.4byte	0x375e
 7271 2334 5C230000 		.4byte	0x235c
 7272 2338 41       		.uleb128 0x41
 7273 2339 01       		.uleb128 0x1
 7274 233a 50       		.byte	0x50
 7275 233b 05       		.uleb128 0x5
 7276 233c 03       		.byte	0x3
 7277 233d 00000000 		.4byte	.LANCHOR5
 7278 2341 41       		.uleb128 0x41
 7279 2342 01       		.uleb128 0x1
 7280 2343 51       		.byte	0x51
 7281 2344 03       		.uleb128 0x3
 7282 2345 0A       		.byte	0xa
 7283 2346 1801     		.2byte	0x118
 7284 2348 41       		.uleb128 0x41
 7285 2349 01       		.uleb128 0x1
 7286 234a 52       		.byte	0x52
 7287 234b 02       		.uleb128 0x2
 7288 234c 08       		.byte	0x8
 7289 234d 40       		.byte	0x40
 7290 234e 41       		.uleb128 0x41
 7291 234f 01       		.uleb128 0x1
 7292 2350 53       		.byte	0x53
 7293 2351 02       		.uleb128 0x2
 7294 2352 74       		.byte	0x74
 7295 2353 00       		.sleb128 0
 7296 2354 41       		.uleb128 0x41
 7297 2355 02       		.uleb128 0x2
 7298 2356 7D       		.byte	0x7d
 7299 2357 00       		.sleb128 0
 7300 2358 02       		.uleb128 0x2
 7301 2359 76       		.byte	0x76
 7302 235a 00       		.sleb128 0
 7303 235b 00       		.byte	0
 7304 235c 45       		.uleb128 0x45
 7305 235d C0010000 		.4byte	.LVL259
 7306 2361 5E370000 		.4byte	0x375e
 7307 2365 90230000 		.4byte	0x2390
 7308 2369 41       		.uleb128 0x41
 7309 236a 01       		.uleb128 0x1
 7310 236b 50       		.byte	0x50
 7311 236c 05       		.uleb128 0x5
 7312 236d 03       		.byte	0x3
 7313 236e 00000000 		.4byte	.LANCHOR6
 7314 2372 41       		.uleb128 0x41
 7315 2373 01       		.uleb128 0x1
 7316 2374 51       		.byte	0x51
 7317 2375 03       		.uleb128 0x3
 7318 2376 0A       		.byte	0xa
 7319 2377 1801     		.2byte	0x118
ARM GAS  /var/folders/3j/4xdnk5197cv_b7cw3n33qk7r0000gn/T//ccxkT2Pi.s 			page 130


 7320 2379 41       		.uleb128 0x41
 7321 237a 01       		.uleb128 0x1
 7322 237b 52       		.byte	0x52
 7323 237c 02       		.uleb128 0x2
 7324 237d 08       		.byte	0x8
 7325 237e 40       		.byte	0x40
 7326 237f 41       		.uleb128 0x41
 7327 2380 01       		.uleb128 0x1
 7328 2381 53       		.byte	0x53
 7329 2382 05       		.uleb128 0x5
 7330 2383 03       		.byte	0x3
 7331 2384 00000000 		.4byte	Thread_Diplsay
 7332 2388 41       		.uleb128 0x41
 7333 2389 02       		.uleb128 0x2
 7334 238a 7D       		.byte	0x7d
 7335 238b 00       		.sleb128 0
 7336 238c 02       		.uleb128 0x2
 7337 238d 75       		.byte	0x75
 7338 238e 00       		.sleb128 0
 7339 238f 00       		.byte	0
 7340 2390 3F       		.uleb128 0x3f
 7341 2391 CC010000 		.4byte	.LVL260
 7342 2395 6A370000 		.4byte	0x376a
 7343 2399 00       		.byte	0
 7344 239a 48       		.uleb128 0x48
 7345 239b B3070000 		.4byte	.LASF541
 7346 239f 01       		.byte	0x1
 7347 23a0 5B       		.byte	0x5b
 7348 23a1 00000000 		.4byte	.LFB34
 7349 23a5 1C000000 		.4byte	.LFE34-.LFB34
 7350 23a9 01       		.uleb128 0x1
 7351 23aa 9C       		.byte	0x9c
 7352 23ab 0A240000 		.4byte	0x240a
 7353 23af 37       		.uleb128 0x37
 7354 23b0 63687000 		.ascii	"chp\000"
 7355 23b4 01       		.byte	0x1
 7356 23b5 5B       		.byte	0x5b
 7357 23b6 C90E0000 		.4byte	0xec9
 7358 23ba E2000000 		.4byte	.LLST0
 7359 23be 49       		.uleb128 0x49
 7360 23bf CA0C0000 		.4byte	.LASF464
 7361 23c3 01       		.byte	0x1
 7362 23c4 5B       		.byte	0x5b
 7363 23c5 2C000000 		.4byte	0x2c
 7364 23c9 1C010000 		.4byte	.LLST1
 7365 23cd 49       		.uleb128 0x49
 7366 23ce 080D0000 		.4byte	.LASF465
 7367 23d2 01       		.byte	0x1
 7368 23d3 5B       		.byte	0x5b
 7369 23d4 CF0E0000 		.4byte	0xecf
 7370 23d8 56010000 		.4byte	.LLST2
 7371 23dc 4A       		.uleb128 0x4a
 7372 23dd 10000000 		.4byte	.LVL3
 7373 23e1 3D370000 		.4byte	0x373d
 7374 23e5 FA230000 		.4byte	0x23fa
 7375 23e9 41       		.uleb128 0x41
 7376 23ea 01       		.uleb128 0x1
ARM GAS  /var/folders/3j/4xdnk5197cv_b7cw3n33qk7r0000gn/T//ccxkT2Pi.s 			page 131


 7377 23eb 50       		.byte	0x50
 7378 23ec 03       		.uleb128 0x3
 7379 23ed F3       		.byte	0xf3
 7380 23ee 01       		.uleb128 0x1
 7381 23ef 50       		.byte	0x50
 7382 23f0 41       		.uleb128 0x41
 7383 23f1 01       		.uleb128 0x1
 7384 23f2 51       		.byte	0x51
 7385 23f3 05       		.uleb128 0x5
 7386 23f4 03       		.byte	0x3
 7387 23f5 00000000 		.4byte	.LC1
 7388 23f9 00       		.byte	0
 7389 23fa 4B       		.uleb128 0x4b
 7390 23fb 18000000 		.4byte	.LVL5
 7391 23ff 76370000 		.4byte	0x3776
 7392 2403 41       		.uleb128 0x41
 7393 2404 01       		.uleb128 0x1
 7394 2405 50       		.byte	0x50
 7395 2406 01       		.uleb128 0x1
 7396 2407 31       		.byte	0x31
 7397 2408 00       		.byte	0
 7398 2409 00       		.byte	0
 7399 240a 4C       		.uleb128 0x4c
 7400 240b 741A0000 		.4byte	.LASF466
 7401 240f 04       		.byte	0x4
 7402 2410 73       		.byte	0x73
 7403 2411 00000000 		.4byte	.LFB33
 7404 2415 58000000 		.4byte	.LFE33-.LFB33
 7405 2419 01       		.uleb128 0x1
 7406 241a 9C       		.byte	0x9c
 7407 241b 67240000 		.4byte	0x2467
 7408 241f 37       		.uleb128 0x37
 7409 2420 6500     		.ascii	"e\000"
 7410 2422 04       		.byte	0x4
 7411 2423 73       		.byte	0x73
 7412 2424 860F0000 		.4byte	0xf86
 7413 2428 90010000 		.4byte	.LLST80
 7414 242c 45       		.uleb128 0x45
 7415 242d 20000000 		.4byte	.LVL242
 7416 2431 81370000 		.4byte	0x3781
 7417 2435 40240000 		.4byte	0x2440
 7418 2439 41       		.uleb128 0x41
 7419 243a 01       		.uleb128 0x1
 7420 243b 50       		.byte	0x50
 7421 243c 02       		.uleb128 0x2
 7422 243d 74       		.byte	0x74
 7423 243e 00       		.sleb128 0
 7424 243f 00       		.byte	0
 7425 2440 4D       		.uleb128 0x4d
 7426 2441 34000000 		.4byte	.LVL243
 7427 2445 81370000 		.4byte	0x3781
 7428 2449 45       		.uleb128 0x45
 7429 244a 40000000 		.4byte	.LVL245
 7430 244e 81370000 		.4byte	0x3781
 7431 2452 5D240000 		.4byte	0x245d
 7432 2456 41       		.uleb128 0x41
 7433 2457 01       		.uleb128 0x1
ARM GAS  /var/folders/3j/4xdnk5197cv_b7cw3n33qk7r0000gn/T//ccxkT2Pi.s 			page 132


 7434 2458 50       		.byte	0x50
 7435 2459 02       		.uleb128 0x2
 7436 245a 74       		.byte	0x74
 7437 245b 00       		.sleb128 0
 7438 245c 00       		.byte	0
 7439 245d 4D       		.uleb128 0x4d
 7440 245e 54000000 		.4byte	.LVL246
 7441 2462 81370000 		.4byte	0x3781
 7442 2466 00       		.byte	0
 7443 2467 4C       		.uleb128 0x4c
 7444 2468 ED130000 		.4byte	.LASF467
 7445 246c 04       		.byte	0x4
 7446 246d 22       		.byte	0x22
 7447 246e 00000000 		.4byte	.LFB32
 7448 2472 74030000 		.4byte	.LFE32-.LFB32
 7449 2476 01       		.uleb128 0x1
 7450 2477 9C       		.byte	0x9c
 7451 2478 DC260000 		.4byte	0x26dc
 7452 247c 37       		.uleb128 0x37
 7453 247d 6500     		.ascii	"e\000"
 7454 247f 04       		.byte	0x4
 7455 2480 22       		.byte	0x22
 7456 2481 860F0000 		.4byte	0xf86
 7457 2485 CA010000 		.4byte	.LLST79
 7458 2489 3F       		.uleb128 0x3f
 7459 248a B4010000 		.4byte	.LVL218
 7460 248e DC260000 		.4byte	0x26dc
 7461 2492 4A       		.uleb128 0x4a
 7462 2493 C8010000 		.4byte	.LVL219
 7463 2497 DC260000 		.4byte	0x26dc
 7464 249b AF240000 		.4byte	0x24af
 7465 249f 41       		.uleb128 0x41
 7466 24a0 01       		.uleb128 0x1
 7467 24a1 50       		.byte	0x50
 7468 24a2 01       		.uleb128 0x1
 7469 24a3 31       		.byte	0x31
 7470 24a4 41       		.uleb128 0x41
 7471 24a5 01       		.uleb128 0x1
 7472 24a6 51       		.byte	0x51
 7473 24a7 01       		.uleb128 0x1
 7474 24a8 31       		.byte	0x31
 7475 24a9 41       		.uleb128 0x41
 7476 24aa 01       		.uleb128 0x1
 7477 24ab 52       		.byte	0x52
 7478 24ac 01       		.uleb128 0x1
 7479 24ad 31       		.byte	0x31
 7480 24ae 00       		.byte	0
 7481 24af 45       		.uleb128 0x45
 7482 24b0 D8010000 		.4byte	.LVL220
 7483 24b4 DC260000 		.4byte	0x26dc
 7484 24b8 CC240000 		.4byte	0x24cc
 7485 24bc 41       		.uleb128 0x41
 7486 24bd 01       		.uleb128 0x1
 7487 24be 50       		.byte	0x50
 7488 24bf 01       		.uleb128 0x1
 7489 24c0 33       		.byte	0x33
 7490 24c1 41       		.uleb128 0x41
ARM GAS  /var/folders/3j/4xdnk5197cv_b7cw3n33qk7r0000gn/T//ccxkT2Pi.s 			page 133


 7491 24c2 01       		.uleb128 0x1
 7492 24c3 51       		.byte	0x51
 7493 24c4 01       		.uleb128 0x1
 7494 24c5 30       		.byte	0x30
 7495 24c6 41       		.uleb128 0x41
 7496 24c7 01       		.uleb128 0x1
 7497 24c8 52       		.byte	0x52
 7498 24c9 01       		.uleb128 0x1
 7499 24ca 31       		.byte	0x31
 7500 24cb 00       		.byte	0
 7501 24cc 4A       		.uleb128 0x4a
 7502 24cd EC010000 		.4byte	.LVL221
 7503 24d1 DC260000 		.4byte	0x26dc
 7504 24d5 E9240000 		.4byte	0x24e9
 7505 24d9 41       		.uleb128 0x41
 7506 24da 01       		.uleb128 0x1
 7507 24db 50       		.byte	0x50
 7508 24dc 01       		.uleb128 0x1
 7509 24dd 33       		.byte	0x33
 7510 24de 41       		.uleb128 0x41
 7511 24df 01       		.uleb128 0x1
 7512 24e0 51       		.byte	0x51
 7513 24e1 01       		.uleb128 0x1
 7514 24e2 31       		.byte	0x31
 7515 24e3 41       		.uleb128 0x41
 7516 24e4 01       		.uleb128 0x1
 7517 24e5 52       		.byte	0x52
 7518 24e6 01       		.uleb128 0x1
 7519 24e7 31       		.byte	0x31
 7520 24e8 00       		.byte	0
 7521 24e9 45       		.uleb128 0x45
 7522 24ea FC010000 		.4byte	.LVL222
 7523 24ee DC260000 		.4byte	0x26dc
 7524 24f2 06250000 		.4byte	0x2506
 7525 24f6 41       		.uleb128 0x41
 7526 24f7 01       		.uleb128 0x1
 7527 24f8 50       		.byte	0x50
 7528 24f9 01       		.uleb128 0x1
 7529 24fa 32       		.byte	0x32
 7530 24fb 41       		.uleb128 0x41
 7531 24fc 01       		.uleb128 0x1
 7532 24fd 51       		.byte	0x51
 7533 24fe 01       		.uleb128 0x1
 7534 24ff 30       		.byte	0x30
 7535 2500 41       		.uleb128 0x41
 7536 2501 01       		.uleb128 0x1
 7537 2502 52       		.byte	0x52
 7538 2503 01       		.uleb128 0x1
 7539 2504 31       		.byte	0x31
 7540 2505 00       		.byte	0
 7541 2506 4A       		.uleb128 0x4a
 7542 2507 10020000 		.4byte	.LVL223
 7543 250b DC260000 		.4byte	0x26dc
 7544 250f 23250000 		.4byte	0x2523
 7545 2513 41       		.uleb128 0x41
 7546 2514 01       		.uleb128 0x1
 7547 2515 50       		.byte	0x50
ARM GAS  /var/folders/3j/4xdnk5197cv_b7cw3n33qk7r0000gn/T//ccxkT2Pi.s 			page 134


 7548 2516 01       		.uleb128 0x1
 7549 2517 32       		.byte	0x32
 7550 2518 41       		.uleb128 0x41
 7551 2519 01       		.uleb128 0x1
 7552 251a 51       		.byte	0x51
 7553 251b 01       		.uleb128 0x1
 7554 251c 31       		.byte	0x31
 7555 251d 41       		.uleb128 0x41
 7556 251e 01       		.uleb128 0x1
 7557 251f 52       		.byte	0x52
 7558 2520 01       		.uleb128 0x1
 7559 2521 31       		.byte	0x31
 7560 2522 00       		.byte	0
 7561 2523 4A       		.uleb128 0x4a
 7562 2524 24020000 		.4byte	.LVL224
 7563 2528 DC260000 		.4byte	0x26dc
 7564 252c 40250000 		.4byte	0x2540
 7565 2530 41       		.uleb128 0x41
 7566 2531 01       		.uleb128 0x1
 7567 2532 50       		.byte	0x50
 7568 2533 01       		.uleb128 0x1
 7569 2534 35       		.byte	0x35
 7570 2535 41       		.uleb128 0x41
 7571 2536 01       		.uleb128 0x1
 7572 2537 51       		.byte	0x51
 7573 2538 01       		.uleb128 0x1
 7574 2539 30       		.byte	0x30
 7575 253a 41       		.uleb128 0x41
 7576 253b 01       		.uleb128 0x1
 7577 253c 52       		.byte	0x52
 7578 253d 01       		.uleb128 0x1
 7579 253e 31       		.byte	0x31
 7580 253f 00       		.byte	0
 7581 2540 4A       		.uleb128 0x4a
 7582 2541 38020000 		.4byte	.LVL225
 7583 2545 DC260000 		.4byte	0x26dc
 7584 2549 5D250000 		.4byte	0x255d
 7585 254d 41       		.uleb128 0x41
 7586 254e 01       		.uleb128 0x1
 7587 254f 50       		.byte	0x50
 7588 2550 01       		.uleb128 0x1
 7589 2551 35       		.byte	0x35
 7590 2552 41       		.uleb128 0x41
 7591 2553 01       		.uleb128 0x1
 7592 2554 51       		.byte	0x51
 7593 2555 01       		.uleb128 0x1
 7594 2556 31       		.byte	0x31
 7595 2557 41       		.uleb128 0x41
 7596 2558 01       		.uleb128 0x1
 7597 2559 52       		.byte	0x52
 7598 255a 01       		.uleb128 0x1
 7599 255b 31       		.byte	0x31
 7600 255c 00       		.byte	0
 7601 255d 4A       		.uleb128 0x4a
 7602 255e 4C020000 		.4byte	.LVL226
 7603 2562 DC260000 		.4byte	0x26dc
 7604 2566 7A250000 		.4byte	0x257a
ARM GAS  /var/folders/3j/4xdnk5197cv_b7cw3n33qk7r0000gn/T//ccxkT2Pi.s 			page 135


 7605 256a 41       		.uleb128 0x41
 7606 256b 01       		.uleb128 0x1
 7607 256c 50       		.byte	0x50
 7608 256d 01       		.uleb128 0x1
 7609 256e 34       		.byte	0x34
 7610 256f 41       		.uleb128 0x41
 7611 2570 01       		.uleb128 0x1
 7612 2571 51       		.byte	0x51
 7613 2572 01       		.uleb128 0x1
 7614 2573 31       		.byte	0x31
 7615 2574 41       		.uleb128 0x41
 7616 2575 01       		.uleb128 0x1
 7617 2576 52       		.byte	0x52
 7618 2577 01       		.uleb128 0x1
 7619 2578 31       		.byte	0x31
 7620 2579 00       		.byte	0
 7621 257a 45       		.uleb128 0x45
 7622 257b 5C020000 		.4byte	.LVL227
 7623 257f DC260000 		.4byte	0x26dc
 7624 2583 97250000 		.4byte	0x2597
 7625 2587 41       		.uleb128 0x41
 7626 2588 01       		.uleb128 0x1
 7627 2589 50       		.byte	0x50
 7628 258a 01       		.uleb128 0x1
 7629 258b 31       		.byte	0x31
 7630 258c 41       		.uleb128 0x41
 7631 258d 01       		.uleb128 0x1
 7632 258e 51       		.byte	0x51
 7633 258f 01       		.uleb128 0x1
 7634 2590 31       		.byte	0x31
 7635 2591 41       		.uleb128 0x41
 7636 2592 01       		.uleb128 0x1
 7637 2593 52       		.byte	0x52
 7638 2594 01       		.uleb128 0x1
 7639 2595 31       		.byte	0x31
 7640 2596 00       		.byte	0
 7641 2597 3F       		.uleb128 0x3f
 7642 2598 6C020000 		.4byte	.LVL228
 7643 259c DC260000 		.4byte	0x26dc
 7644 25a0 4A       		.uleb128 0x4a
 7645 25a1 80020000 		.4byte	.LVL229
 7646 25a5 DC260000 		.4byte	0x26dc
 7647 25a9 BD250000 		.4byte	0x25bd
 7648 25ad 41       		.uleb128 0x41
 7649 25ae 01       		.uleb128 0x1
 7650 25af 50       		.byte	0x50
 7651 25b0 01       		.uleb128 0x1
 7652 25b1 31       		.byte	0x31
 7653 25b2 41       		.uleb128 0x41
 7654 25b3 01       		.uleb128 0x1
 7655 25b4 51       		.byte	0x51
 7656 25b5 01       		.uleb128 0x1
 7657 25b6 31       		.byte	0x31
 7658 25b7 41       		.uleb128 0x41
 7659 25b8 01       		.uleb128 0x1
 7660 25b9 52       		.byte	0x52
 7661 25ba 01       		.uleb128 0x1
ARM GAS  /var/folders/3j/4xdnk5197cv_b7cw3n33qk7r0000gn/T//ccxkT2Pi.s 			page 136


 7662 25bb 30       		.byte	0x30
 7663 25bc 00       		.byte	0
 7664 25bd 4A       		.uleb128 0x4a
 7665 25be 94020000 		.4byte	.LVL230
 7666 25c2 DC260000 		.4byte	0x26dc
 7667 25c6 DA250000 		.4byte	0x25da
 7668 25ca 41       		.uleb128 0x41
 7669 25cb 01       		.uleb128 0x1
 7670 25cc 50       		.byte	0x50
 7671 25cd 01       		.uleb128 0x1
 7672 25ce 34       		.byte	0x34
 7673 25cf 41       		.uleb128 0x41
 7674 25d0 01       		.uleb128 0x1
 7675 25d1 51       		.byte	0x51
 7676 25d2 01       		.uleb128 0x1
 7677 25d3 30       		.byte	0x30
 7678 25d4 41       		.uleb128 0x41
 7679 25d5 01       		.uleb128 0x1
 7680 25d6 52       		.byte	0x52
 7681 25d7 01       		.uleb128 0x1
 7682 25d8 31       		.byte	0x31
 7683 25d9 00       		.byte	0
 7684 25da 4A       		.uleb128 0x4a
 7685 25db A8020000 		.4byte	.LVL231
 7686 25df DC260000 		.4byte	0x26dc
 7687 25e3 F7250000 		.4byte	0x25f7
 7688 25e7 41       		.uleb128 0x41
 7689 25e8 01       		.uleb128 0x1
 7690 25e9 50       		.byte	0x50
 7691 25ea 01       		.uleb128 0x1
 7692 25eb 33       		.byte	0x33
 7693 25ec 41       		.uleb128 0x41
 7694 25ed 01       		.uleb128 0x1
 7695 25ee 51       		.byte	0x51
 7696 25ef 01       		.uleb128 0x1
 7697 25f0 30       		.byte	0x30
 7698 25f1 41       		.uleb128 0x41
 7699 25f2 01       		.uleb128 0x1
 7700 25f3 52       		.byte	0x52
 7701 25f4 01       		.uleb128 0x1
 7702 25f5 31       		.byte	0x31
 7703 25f6 00       		.byte	0
 7704 25f7 4A       		.uleb128 0x4a
 7705 25f8 BC020000 		.4byte	.LVL232
 7706 25fc DC260000 		.4byte	0x26dc
 7707 2600 14260000 		.4byte	0x2614
 7708 2604 41       		.uleb128 0x41
 7709 2605 01       		.uleb128 0x1
 7710 2606 50       		.byte	0x50
 7711 2607 01       		.uleb128 0x1
 7712 2608 32       		.byte	0x32
 7713 2609 41       		.uleb128 0x41
 7714 260a 01       		.uleb128 0x1
 7715 260b 51       		.byte	0x51
 7716 260c 01       		.uleb128 0x1
 7717 260d 30       		.byte	0x30
 7718 260e 41       		.uleb128 0x41
ARM GAS  /var/folders/3j/4xdnk5197cv_b7cw3n33qk7r0000gn/T//ccxkT2Pi.s 			page 137


 7719 260f 01       		.uleb128 0x1
 7720 2610 52       		.byte	0x52
 7721 2611 01       		.uleb128 0x1
 7722 2612 31       		.byte	0x31
 7723 2613 00       		.byte	0
 7724 2614 4A       		.uleb128 0x4a
 7725 2615 D0020000 		.4byte	.LVL233
 7726 2619 DC260000 		.4byte	0x26dc
 7727 261d 31260000 		.4byte	0x2631
 7728 2621 41       		.uleb128 0x41
 7729 2622 01       		.uleb128 0x1
 7730 2623 50       		.byte	0x50
 7731 2624 01       		.uleb128 0x1
 7732 2625 31       		.byte	0x31
 7733 2626 41       		.uleb128 0x41
 7734 2627 01       		.uleb128 0x1
 7735 2628 51       		.byte	0x51
 7736 2629 01       		.uleb128 0x1
 7737 262a 30       		.byte	0x30
 7738 262b 41       		.uleb128 0x41
 7739 262c 01       		.uleb128 0x1
 7740 262d 52       		.byte	0x52
 7741 262e 01       		.uleb128 0x1
 7742 262f 31       		.byte	0x31
 7743 2630 00       		.byte	0
 7744 2631 4A       		.uleb128 0x4a
 7745 2632 E4020000 		.4byte	.LVL234
 7746 2636 DC260000 		.4byte	0x26dc
 7747 263a 4E260000 		.4byte	0x264e
 7748 263e 41       		.uleb128 0x41
 7749 263f 01       		.uleb128 0x1
 7750 2640 50       		.byte	0x50
 7751 2641 01       		.uleb128 0x1
 7752 2642 32       		.byte	0x32
 7753 2643 41       		.uleb128 0x41
 7754 2644 01       		.uleb128 0x1
 7755 2645 51       		.byte	0x51
 7756 2646 01       		.uleb128 0x1
 7757 2647 31       		.byte	0x31
 7758 2648 41       		.uleb128 0x41
 7759 2649 01       		.uleb128 0x1
 7760 264a 52       		.byte	0x52
 7761 264b 01       		.uleb128 0x1
 7762 264c 30       		.byte	0x30
 7763 264d 00       		.byte	0
 7764 264e 45       		.uleb128 0x45
 7765 264f F4020000 		.4byte	.LVL235
 7766 2653 DC260000 		.4byte	0x26dc
 7767 2657 6B260000 		.4byte	0x266b
 7768 265b 41       		.uleb128 0x41
 7769 265c 01       		.uleb128 0x1
 7770 265d 50       		.byte	0x50
 7771 265e 01       		.uleb128 0x1
 7772 265f 31       		.byte	0x31
 7773 2660 41       		.uleb128 0x41
 7774 2661 01       		.uleb128 0x1
 7775 2662 51       		.byte	0x51
ARM GAS  /var/folders/3j/4xdnk5197cv_b7cw3n33qk7r0000gn/T//ccxkT2Pi.s 			page 138


 7776 2663 01       		.uleb128 0x1
 7777 2664 31       		.byte	0x31
 7778 2665 41       		.uleb128 0x41
 7779 2666 01       		.uleb128 0x1
 7780 2667 52       		.byte	0x52
 7781 2668 01       		.uleb128 0x1
 7782 2669 31       		.byte	0x31
 7783 266a 00       		.byte	0
 7784 266b 45       		.uleb128 0x45
 7785 266c 14030000 		.4byte	.LVL236
 7786 2670 DC260000 		.4byte	0x26dc
 7787 2674 88260000 		.4byte	0x2688
 7788 2678 41       		.uleb128 0x41
 7789 2679 01       		.uleb128 0x1
 7790 267a 50       		.byte	0x50
 7791 267b 01       		.uleb128 0x1
 7792 267c 31       		.byte	0x31
 7793 267d 41       		.uleb128 0x41
 7794 267e 01       		.uleb128 0x1
 7795 267f 51       		.byte	0x51
 7796 2680 01       		.uleb128 0x1
 7797 2681 31       		.byte	0x31
 7798 2682 41       		.uleb128 0x41
 7799 2683 01       		.uleb128 0x1
 7800 2684 52       		.byte	0x52
 7801 2685 01       		.uleb128 0x1
 7802 2686 31       		.byte	0x31
 7803 2687 00       		.byte	0
 7804 2688 45       		.uleb128 0x45
 7805 2689 34030000 		.4byte	.LVL237
 7806 268d DC260000 		.4byte	0x26dc
 7807 2691 A5260000 		.4byte	0x26a5
 7808 2695 41       		.uleb128 0x41
 7809 2696 01       		.uleb128 0x1
 7810 2697 50       		.byte	0x50
 7811 2698 01       		.uleb128 0x1
 7812 2699 31       		.byte	0x31
 7813 269a 41       		.uleb128 0x41
 7814 269b 01       		.uleb128 0x1
 7815 269c 51       		.byte	0x51
 7816 269d 01       		.uleb128 0x1
 7817 269e 31       		.byte	0x31
 7818 269f 41       		.uleb128 0x41
 7819 26a0 01       		.uleb128 0x1
 7820 26a1 52       		.byte	0x52
 7821 26a2 01       		.uleb128 0x1
 7822 26a3 31       		.byte	0x31
 7823 26a4 00       		.byte	0
 7824 26a5 45       		.uleb128 0x45
 7825 26a6 54030000 		.4byte	.LVL238
 7826 26aa DC260000 		.4byte	0x26dc
 7827 26ae C2260000 		.4byte	0x26c2
 7828 26b2 41       		.uleb128 0x41
 7829 26b3 01       		.uleb128 0x1
 7830 26b4 50       		.byte	0x50
 7831 26b5 01       		.uleb128 0x1
 7832 26b6 31       		.byte	0x31
ARM GAS  /var/folders/3j/4xdnk5197cv_b7cw3n33qk7r0000gn/T//ccxkT2Pi.s 			page 139


 7833 26b7 41       		.uleb128 0x41
 7834 26b8 01       		.uleb128 0x1
 7835 26b9 51       		.byte	0x51
 7836 26ba 01       		.uleb128 0x1
 7837 26bb 31       		.byte	0x31
 7838 26bc 41       		.uleb128 0x41
 7839 26bd 01       		.uleb128 0x1
 7840 26be 52       		.byte	0x52
 7841 26bf 01       		.uleb128 0x1
 7842 26c0 31       		.byte	0x31
 7843 26c1 00       		.byte	0
 7844 26c2 40       		.uleb128 0x40
 7845 26c3 64030000 		.4byte	.LVL239
 7846 26c7 DC260000 		.4byte	0x26dc
 7847 26cb 41       		.uleb128 0x41
 7848 26cc 01       		.uleb128 0x1
 7849 26cd 50       		.byte	0x50
 7850 26ce 01       		.uleb128 0x1
 7851 26cf 31       		.byte	0x31
 7852 26d0 41       		.uleb128 0x41
 7853 26d1 01       		.uleb128 0x1
 7854 26d2 51       		.byte	0x51
 7855 26d3 01       		.uleb128 0x1
 7856 26d4 30       		.byte	0x30
 7857 26d5 41       		.uleb128 0x41
 7858 26d6 01       		.uleb128 0x1
 7859 26d7 52       		.byte	0x52
 7860 26d8 01       		.uleb128 0x1
 7861 26d9 31       		.byte	0x31
 7862 26da 00       		.byte	0
 7863 26db 00       		.byte	0
 7864 26dc 4C       		.uleb128 0x4c
 7865 26dd 88150000 		.4byte	.LASF468
 7866 26e1 04       		.byte	0x4
 7867 26e2 10       		.byte	0x10
 7868 26e3 00000000 		.4byte	.LFB31
 7869 26e7 DC000000 		.4byte	.LFE31-.LFB31
 7870 26eb 01       		.uleb128 0x1
 7871 26ec 9C       		.byte	0x9c
 7872 26ed E3270000 		.4byte	0x27e3
 7873 26f1 37       		.uleb128 0x37
 7874 26f2 6E00     		.ascii	"n\000"
 7875 26f4 04       		.byte	0x4
 7876 26f5 10       		.byte	0x10
 7877 26f6 2C000000 		.4byte	0x2c
 7878 26fa EB010000 		.4byte	.LLST73
 7879 26fe 37       		.uleb128 0x37
 7880 26ff 6100     		.ascii	"a\000"
 7881 2701 04       		.byte	0x4
 7882 2702 10       		.byte	0x10
 7883 2703 2C000000 		.4byte	0x2c
 7884 2707 17020000 		.4byte	.LLST74
 7885 270b 37       		.uleb128 0x37
 7886 270c 6200     		.ascii	"b\000"
 7887 270e 04       		.byte	0x4
 7888 270f 10       		.byte	0x10
 7889 2710 2C000000 		.4byte	0x2c
ARM GAS  /var/folders/3j/4xdnk5197cv_b7cw3n33qk7r0000gn/T//ccxkT2Pi.s 			page 140


 7890 2714 43020000 		.4byte	.LLST75
 7891 2718 4E       		.uleb128 0x4e
 7892 2719 04000000 		.4byte	.LBB100
 7893 271d C0000000 		.4byte	.LBE100-.LBB100
 7894 2721 CF270000 		.4byte	0x27cf
 7895 2725 4F       		.uleb128 0x4f
 7896 2726 6900     		.ascii	"i\000"
 7897 2728 04       		.byte	0x4
 7898 2729 11       		.byte	0x11
 7899 272a 2C000000 		.4byte	0x2c
 7900 272e 6F020000 		.4byte	.LLST76
 7901 2732 45       		.uleb128 0x45
 7902 2733 34000000 		.4byte	.LVL196
 7903 2737 8C370000 		.4byte	0x378c
 7904 273b 46270000 		.4byte	0x2746
 7905 273f 41       		.uleb128 0x41
 7906 2740 01       		.uleb128 0x1
 7907 2741 50       		.byte	0x50
 7908 2742 02       		.uleb128 0x2
 7909 2743 76       		.byte	0x76
 7910 2744 00       		.sleb128 0
 7911 2745 00       		.byte	0
 7912 2746 45       		.uleb128 0x45
 7913 2747 48000000 		.4byte	.LVL199
 7914 274b 8C370000 		.4byte	0x378c
 7915 274f 5A270000 		.4byte	0x275a
 7916 2753 41       		.uleb128 0x41
 7917 2754 01       		.uleb128 0x1
 7918 2755 50       		.byte	0x50
 7919 2756 02       		.uleb128 0x2
 7920 2757 76       		.byte	0x76
 7921 2758 00       		.sleb128 0
 7922 2759 00       		.byte	0
 7923 275a 45       		.uleb128 0x45
 7924 275b 68000000 		.4byte	.LVL201
 7925 275f 81370000 		.4byte	0x3781
 7926 2763 6E270000 		.4byte	0x276e
 7927 2767 41       		.uleb128 0x41
 7928 2768 01       		.uleb128 0x1
 7929 2769 50       		.byte	0x50
 7930 276a 02       		.uleb128 0x2
 7931 276b 79       		.byte	0x79
 7932 276c 00       		.sleb128 0
 7933 276d 00       		.byte	0
 7934 276e 45       		.uleb128 0x45
 7935 276f 80000000 		.4byte	.LVL202
 7936 2773 81370000 		.4byte	0x3781
 7937 2777 82270000 		.4byte	0x2782
 7938 277b 41       		.uleb128 0x41
 7939 277c 01       		.uleb128 0x1
 7940 277d 50       		.byte	0x50
 7941 277e 02       		.uleb128 0x2
 7942 277f 79       		.byte	0x79
 7943 2780 00       		.sleb128 0
 7944 2781 00       		.byte	0
 7945 2782 45       		.uleb128 0x45
 7946 2783 88000000 		.4byte	.LVL203
ARM GAS  /var/folders/3j/4xdnk5197cv_b7cw3n33qk7r0000gn/T//ccxkT2Pi.s 			page 141


 7947 2787 8C370000 		.4byte	0x378c
 7948 278b 96270000 		.4byte	0x2796
 7949 278f 41       		.uleb128 0x41
 7950 2790 01       		.uleb128 0x1
 7951 2791 50       		.byte	0x50
 7952 2792 02       		.uleb128 0x2
 7953 2793 76       		.byte	0x76
 7954 2794 00       		.sleb128 0
 7955 2795 00       		.byte	0
 7956 2796 45       		.uleb128 0x45
 7957 2797 98000000 		.4byte	.LVL204
 7958 279b 81370000 		.4byte	0x3781
 7959 279f AA270000 		.4byte	0x27aa
 7960 27a3 41       		.uleb128 0x41
 7961 27a4 01       		.uleb128 0x1
 7962 27a5 50       		.byte	0x50
 7963 27a6 02       		.uleb128 0x2
 7964 27a7 79       		.byte	0x79
 7965 27a8 00       		.sleb128 0
 7966 27a9 00       		.byte	0
 7967 27aa 45       		.uleb128 0x45
 7968 27ab B4000000 		.4byte	.LVL207
 7969 27af 81370000 		.4byte	0x3781
 7970 27b3 BE270000 		.4byte	0x27be
 7971 27b7 41       		.uleb128 0x41
 7972 27b8 01       		.uleb128 0x1
 7973 27b9 50       		.byte	0x50
 7974 27ba 02       		.uleb128 0x2
 7975 27bb 79       		.byte	0x79
 7976 27bc 00       		.sleb128 0
 7977 27bd 00       		.byte	0
 7978 27be 40       		.uleb128 0x40
 7979 27bf BC000000 		.4byte	.LVL208
 7980 27c3 8C370000 		.4byte	0x378c
 7981 27c7 41       		.uleb128 0x41
 7982 27c8 01       		.uleb128 0x1
 7983 27c9 50       		.byte	0x50
 7984 27ca 02       		.uleb128 0x2
 7985 27cb 76       		.byte	0x76
 7986 27cc 00       		.sleb128 0
 7987 27cd 00       		.byte	0
 7988 27ce 00       		.byte	0
 7989 27cf 4B       		.uleb128 0x4b
 7990 27d0 D0000000 		.4byte	.LVL211
 7991 27d4 8C370000 		.4byte	0x378c
 7992 27d8 41       		.uleb128 0x41
 7993 27d9 01       		.uleb128 0x1
 7994 27da 50       		.byte	0x50
 7995 27db 05       		.uleb128 0x5
 7996 27dc 0C       		.byte	0xc
 7997 27dd 00350C00 		.4byte	0xc3500
 7998 27e1 00       		.byte	0
 7999 27e2 00       		.byte	0
 8000 27e3 4C       		.uleb128 0x4c
 8001 27e4 390F0000 		.4byte	.LASF469
 8002 27e8 04       		.byte	0x4
 8003 27e9 05       		.byte	0x5
ARM GAS  /var/folders/3j/4xdnk5197cv_b7cw3n33qk7r0000gn/T//ccxkT2Pi.s 			page 142


 8004 27ea 00000000 		.4byte	.LFB30
 8005 27ee 3C000000 		.4byte	.LFE30-.LFB30
 8006 27f2 01       		.uleb128 0x1
 8007 27f3 9C       		.byte	0x9c
 8008 27f4 71280000 		.4byte	0x2871
 8009 27f8 49       		.uleb128 0x49
 8010 27f9 D01A0000 		.4byte	.LASF470
 8011 27fd 04       		.byte	0x4
 8012 27fe 05       		.byte	0x5
 8013 27ff EA000000 		.4byte	0xea
 8014 2803 BE020000 		.4byte	.LLST77
 8015 2807 50       		.uleb128 0x50
 8016 2808 08000000 		.4byte	.LBB101
 8017 280c 34000000 		.4byte	.LBE101-.LBB101
 8018 2810 4F       		.uleb128 0x4f
 8019 2811 6900     		.ascii	"i\000"
 8020 2813 04       		.byte	0x4
 8021 2814 06       		.byte	0x6
 8022 2815 2C000000 		.4byte	0x2c
 8023 2819 DC020000 		.4byte	.LLST78
 8024 281d 38       		.uleb128 0x38
 8025 281e E0000000 		.4byte	.Ldebug_ranges0+0xe0
 8026 2822 34280000 		.4byte	0x2834
 8027 2826 51       		.uleb128 0x51
 8028 2827 88150000 		.4byte	.LASF468
 8029 282b 04       		.byte	0x4
 8030 282c 08       		.byte	0x8
 8031 282d 2C000000 		.4byte	0x2c
 8032 2831 52       		.uleb128 0x52
 8033 2832 00       		.byte	0
 8034 2833 00       		.byte	0
 8035 2834 3C       		.uleb128 0x3c
 8036 2835 F8000000 		.4byte	.Ldebug_ranges0+0xf8
 8037 2839 53       		.uleb128 0x53
 8038 283a 88150000 		.4byte	.LASF468
 8039 283e 04       		.byte	0x4
 8040 283f 08       		.byte	0x8
 8041 2840 2C000000 		.4byte	0x2c
 8042 2844 4A280000 		.4byte	0x284a
 8043 2848 52       		.uleb128 0x52
 8044 2849 00       		.byte	0
 8045 284a 40       		.uleb128 0x40
 8046 284b 30000000 		.4byte	.LVL215
 8047 284f DC260000 		.4byte	0x26dc
 8048 2853 41       		.uleb128 0x41
 8049 2854 01       		.uleb128 0x1
 8050 2855 51       		.byte	0x51
 8051 2856 16       		.uleb128 0x16
 8052 2857 31       		.byte	0x31
 8053 2858 75       		.byte	0x75
 8054 2859 00       		.sleb128 0
 8055 285a 74       		.byte	0x74
 8056 285b 7F       		.sleb128 -1
 8057 285c 25       		.byte	0x25
 8058 285d 31       		.byte	0x31
 8059 285e 1A       		.byte	0x1a
 8060 285f 75       		.byte	0x75
ARM GAS  /var/folders/3j/4xdnk5197cv_b7cw3n33qk7r0000gn/T//ccxkT2Pi.s 			page 143


 8061 2860 00       		.sleb128 0
 8062 2861 74       		.byte	0x74
 8063 2862 7F       		.sleb128 -1
 8064 2863 25       		.byte	0x25
 8065 2864 31       		.byte	0x31
 8066 2865 1A       		.byte	0x1a
 8067 2866 30       		.byte	0x30
 8068 2867 2E       		.byte	0x2e
 8069 2868 28       		.byte	0x28
 8070 2869 0100     		.2byte	0x1
 8071 286b 16       		.byte	0x16
 8072 286c 13       		.byte	0x13
 8073 286d 00       		.byte	0
 8074 286e 00       		.byte	0
 8075 286f 00       		.byte	0
 8076 2870 00       		.byte	0
 8077 2871 54       		.uleb128 0x54
 8078 2872 131B0000 		.4byte	.LASF471
 8079 2876 03       		.byte	0x3
 8080 2877 CA       		.byte	0xca
 8081 2878 25000000 		.4byte	0x25
 8082 287c 01       		.byte	0x1
 8083 287d 8D280000 		.4byte	0x288d
 8084 2881 55       		.uleb128 0x55
 8085 2882 3A190000 		.4byte	.LASF472
 8086 2886 03       		.byte	0x3
 8087 2887 CA       		.byte	0xca
 8088 2888 D4000000 		.4byte	0xd4
 8089 288c 00       		.byte	0
 8090 288d 4C       		.uleb128 0x4c
 8091 288e 86050000 		.4byte	.LASF473
 8092 2892 03       		.byte	0x3
 8093 2893 C2       		.byte	0xc2
 8094 2894 00000000 		.4byte	.LFB28
 8095 2898 6C000000 		.4byte	.LFE28-.LFB28
 8096 289c 01       		.uleb128 0x1
 8097 289d 9C       		.byte	0x9c
 8098 289e FB280000 		.4byte	0x28fb
 8099 28a2 35       		.uleb128 0x35
 8100 28a3 6D757800 		.ascii	"mux\000"
 8101 28a7 03       		.byte	0x3
 8102 28a8 C2       		.byte	0xc2
 8103 28a9 6C1D0000 		.4byte	0x1d6c
 8104 28ad 02       		.uleb128 0x2
 8105 28ae 91       		.byte	0x91
 8106 28af 70       		.sleb128 -16
 8107 28b0 35       		.uleb128 0x35
 8108 28b1 7600     		.ascii	"v\000"
 8109 28b3 03       		.byte	0x3
 8110 28b4 C2       		.byte	0xc2
 8111 28b5 C4000000 		.4byte	0xc4
 8112 28b9 02       		.uleb128 0x2
 8113 28ba 91       		.byte	0x91
 8114 28bb 28       		.sleb128 40
 8115 28bc 4F       		.uleb128 0x4f
 8116 28bd 6100     		.ascii	"a\000"
 8117 28bf 03       		.byte	0x3
ARM GAS  /var/folders/3j/4xdnk5197cv_b7cw3n33qk7r0000gn/T//ccxkT2Pi.s 			page 144


 8118 28c0 C3       		.byte	0xc3
 8119 28c1 C4000000 		.4byte	0xc4
 8120 28c5 13030000 		.4byte	.LLST46
 8121 28c9 4F       		.uleb128 0x4f
 8122 28ca 6200     		.ascii	"b\000"
 8123 28cc 03       		.byte	0x3
 8124 28cd C4       		.byte	0xc4
 8125 28ce C4000000 		.4byte	0xc4
 8126 28d2 3B030000 		.4byte	.LLST47
 8127 28d6 45       		.uleb128 0x45
 8128 28d7 3C000000 		.4byte	.LVL91
 8129 28db 81370000 		.4byte	0x3781
 8130 28df EA280000 		.4byte	0x28ea
 8131 28e3 41       		.uleb128 0x41
 8132 28e4 01       		.uleb128 0x1
 8133 28e5 50       		.byte	0x50
 8134 28e6 02       		.uleb128 0x2
 8135 28e7 91       		.byte	0x91
 8136 28e8 4C       		.sleb128 -52
 8137 28e9 00       		.byte	0
 8138 28ea 40       		.uleb128 0x40
 8139 28eb 60000000 		.4byte	.LVL92
 8140 28ef 81370000 		.4byte	0x3781
 8141 28f3 41       		.uleb128 0x41
 8142 28f4 01       		.uleb128 0x1
 8143 28f5 50       		.byte	0x50
 8144 28f6 02       		.uleb128 0x2
 8145 28f7 91       		.byte	0x91
 8146 28f8 68       		.sleb128 -24
 8147 28f9 00       		.byte	0
 8148 28fa 00       		.byte	0
 8149 28fb 4C       		.uleb128 0x4c
 8150 28fc 8B0E0000 		.4byte	.LASF474
 8151 2900 03       		.byte	0x3
 8152 2901 B5       		.byte	0xb5
 8153 2902 00000000 		.4byte	.LFB27
 8154 2906 70000000 		.4byte	.LFE27-.LFB27
 8155 290a 01       		.uleb128 0x1
 8156 290b 9C       		.byte	0x9c
 8157 290c 77290000 		.4byte	0x2977
 8158 2910 35       		.uleb128 0x35
 8159 2911 6D757800 		.ascii	"mux\000"
 8160 2915 03       		.byte	0x3
 8161 2916 B5       		.byte	0xb5
 8162 2917 6C1D0000 		.4byte	0x1d6c
 8163 291b 02       		.uleb128 0x2
 8164 291c 91       		.byte	0x91
 8165 291d 70       		.sleb128 -16
 8166 291e 45       		.uleb128 0x45
 8167 291f 28000000 		.4byte	.LVL84
 8168 2923 97370000 		.4byte	0x3797
 8169 2927 38290000 		.4byte	0x2938
 8170 292b 41       		.uleb128 0x41
 8171 292c 01       		.uleb128 0x1
 8172 292d 50       		.byte	0x50
 8173 292e 02       		.uleb128 0x2
 8174 292f 91       		.byte	0x91
ARM GAS  /var/folders/3j/4xdnk5197cv_b7cw3n33qk7r0000gn/T//ccxkT2Pi.s 			page 145


 8175 2930 4C       		.sleb128 -52
 8176 2931 41       		.uleb128 0x41
 8177 2932 01       		.uleb128 0x1
 8178 2933 52       		.byte	0x52
 8179 2934 02       		.uleb128 0x2
 8180 2935 08       		.byte	0x8
 8181 2936 FF       		.byte	0xff
 8182 2937 00       		.byte	0
 8183 2938 45       		.uleb128 0x45
 8184 2939 3C000000 		.4byte	.LVL85
 8185 293d 97370000 		.4byte	0x3797
 8186 2941 52290000 		.4byte	0x2952
 8187 2945 41       		.uleb128 0x41
 8188 2946 01       		.uleb128 0x1
 8189 2947 50       		.byte	0x50
 8190 2948 02       		.uleb128 0x2
 8191 2949 91       		.byte	0x91
 8192 294a 68       		.sleb128 -24
 8193 294b 41       		.uleb128 0x41
 8194 294c 01       		.uleb128 0x1
 8195 294d 52       		.byte	0x52
 8196 294e 02       		.uleb128 0x2
 8197 294f 08       		.byte	0x8
 8198 2950 FF       		.byte	0xff
 8199 2951 00       		.byte	0
 8200 2952 45       		.uleb128 0x45
 8201 2953 50000000 		.4byte	.LVL86
 8202 2957 81370000 		.4byte	0x3781
 8203 295b 66290000 		.4byte	0x2966
 8204 295f 41       		.uleb128 0x41
 8205 2960 01       		.uleb128 0x1
 8206 2961 50       		.byte	0x50
 8207 2962 02       		.uleb128 0x2
 8208 2963 91       		.byte	0x91
 8209 2964 4C       		.sleb128 -52
 8210 2965 00       		.byte	0
 8211 2966 40       		.uleb128 0x40
 8212 2967 64000000 		.4byte	.LVL87
 8213 296b 81370000 		.4byte	0x3781
 8214 296f 41       		.uleb128 0x41
 8215 2970 01       		.uleb128 0x1
 8216 2971 50       		.byte	0x50
 8217 2972 02       		.uleb128 0x2
 8218 2973 91       		.byte	0x91
 8219 2974 68       		.sleb128 -24
 8220 2975 00       		.byte	0
 8221 2976 00       		.byte	0
 8222 2977 56       		.uleb128 0x56
 8223 2978 98080000 		.4byte	.LASF476
 8224 297c 03       		.byte	0x3
 8225 297d A9       		.byte	0xa9
 8226 297e 860F0000 		.4byte	0xf86
 8227 2982 01       		.byte	0x1
 8228 2983 A8290000 		.4byte	0x29a8
 8229 2987 33       		.uleb128 0x33
 8230 2988 696E00   		.ascii	"in\000"
 8231 298b 03       		.byte	0x3
ARM GAS  /var/folders/3j/4xdnk5197cv_b7cw3n33qk7r0000gn/T//ccxkT2Pi.s 			page 146


 8232 298c A9       		.byte	0xa9
 8233 298d 141D0000 		.4byte	0x1d14
 8234 2991 33       		.uleb128 0x33
 8235 2992 6D757800 		.ascii	"mux\000"
 8236 2996 03       		.byte	0x3
 8237 2997 A9       		.byte	0xa9
 8238 2998 6C1D0000 		.4byte	0x1d6c
 8239 299c 31       		.uleb128 0x31
 8240 299d C7050000 		.4byte	.LASF475
 8241 29a1 03       		.byte	0x3
 8242 29a2 AA       		.byte	0xaa
 8243 29a3 860F0000 		.4byte	0xf86
 8244 29a7 00       		.byte	0
 8245 29a8 56       		.uleb128 0x56
 8246 29a9 9A150000 		.4byte	.LASF477
 8247 29ad 03       		.byte	0x3
 8248 29ae A0       		.byte	0xa0
 8249 29af 860F0000 		.4byte	0xf86
 8250 29b3 01       		.byte	0x1
 8251 29b4 CF290000 		.4byte	0x29cf
 8252 29b8 55       		.uleb128 0x55
 8253 29b9 D70C0000 		.4byte	.LASF478
 8254 29bd 03       		.byte	0x3
 8255 29be A0       		.byte	0xa0
 8256 29bf B41D0000 		.4byte	0x1db4
 8257 29c3 31       		.uleb128 0x31
 8258 29c4 C7050000 		.4byte	.LASF475
 8259 29c8 03       		.byte	0x3
 8260 29c9 A1       		.byte	0xa1
 8261 29ca 860F0000 		.4byte	0xf86
 8262 29ce 00       		.byte	0
 8263 29cf 34       		.uleb128 0x34
 8264 29d0 FB120000 		.4byte	.LASF479
 8265 29d4 03       		.byte	0x3
 8266 29d5 77       		.byte	0x77
 8267 29d6 860F0000 		.4byte	0xf86
 8268 29da 00000000 		.4byte	.LFB24
 8269 29de 44010000 		.4byte	.LFE24-.LFB24
 8270 29e2 01       		.uleb128 0x1
 8271 29e3 9C       		.byte	0x9c
 8272 29e4 642B0000 		.4byte	0x2b64
 8273 29e8 57       		.uleb128 0x57
 8274 29e9 6B090000 		.4byte	.LASF480
 8275 29ed 03       		.byte	0x3
 8276 29ee 77       		.byte	0x77
 8277 29ef 141D0000 		.4byte	0x1d14
 8278 29f3 02       		.uleb128 0x2
 8279 29f4 91       		.byte	0x91
 8280 29f5 70       		.sleb128 -16
 8281 29f6 35       		.uleb128 0x35
 8282 29f7 6D757800 		.ascii	"mux\000"
 8283 29fb 03       		.byte	0x3
 8284 29fc 77       		.byte	0x77
 8285 29fd 6C1D0000 		.4byte	0x1d6c
 8286 2a01 03       		.uleb128 0x3
 8287 2a02 91       		.byte	0x91
 8288 2a03 F802     		.sleb128 376
ARM GAS  /var/folders/3j/4xdnk5197cv_b7cw3n33qk7r0000gn/T//ccxkT2Pi.s 			page 147


 8289 2a05 47       		.uleb128 0x47
 8290 2a06 B4140000 		.4byte	.LASF481
 8291 2a0a 03       		.byte	0x3
 8292 2a0b 7B       		.byte	0x7b
 8293 2a0c 860F0000 		.4byte	0xf86
 8294 2a10 5F030000 		.4byte	.LLST56
 8295 2a14 2F       		.uleb128 0x2f
 8296 2a15 510E0000 		.4byte	.LASF482
 8297 2a19 03       		.byte	0x3
 8298 2a1a 7C       		.byte	0x7c
 8299 2a1b C4000000 		.4byte	0xc4
 8300 2a1f 02       		.uleb128 0x2
 8301 2a20 91       		.byte	0x91
 8302 2a21 61       		.sleb128 -31
 8303 2a22 2F       		.uleb128 0x2f
 8304 2a23 2B1A0000 		.4byte	.LASF483
 8305 2a27 03       		.byte	0x3
 8306 2a28 7D       		.byte	0x7d
 8307 2a29 C4000000 		.4byte	0xc4
 8308 2a2d 02       		.uleb128 0x2
 8309 2a2e 91       		.byte	0x91
 8310 2a2f 62       		.sleb128 -30
 8311 2a30 2F       		.uleb128 0x2f
 8312 2a31 38170000 		.4byte	.LASF484
 8313 2a35 03       		.byte	0x3
 8314 2a36 7E       		.byte	0x7e
 8315 2a37 EA000000 		.4byte	0xea
 8316 2a3b 02       		.uleb128 0x2
 8317 2a3c 91       		.byte	0x91
 8318 2a3d 64       		.sleb128 -28
 8319 2a3e 2F       		.uleb128 0x2f
 8320 2a3f 93050000 		.4byte	.LASF485
 8321 2a43 03       		.byte	0x3
 8322 2a44 7F       		.byte	0x7f
 8323 2a45 C4000000 		.4byte	0xc4
 8324 2a49 02       		.uleb128 0x2
 8325 2a4a 91       		.byte	0x91
 8326 2a4b 63       		.sleb128 -29
 8327 2a4c 3F       		.uleb128 0x3f
 8328 2a4d 48000000 		.4byte	.LVL121
 8329 2a51 8D280000 		.4byte	0x288d
 8330 2a55 45       		.uleb128 0x45
 8331 2a56 64000000 		.4byte	.LVL122
 8332 2a5a A2370000 		.4byte	0x37a2
 8333 2a5e 692A0000 		.4byte	0x2a69
 8334 2a62 41       		.uleb128 0x41
 8335 2a63 01       		.uleb128 0x1
 8336 2a64 50       		.byte	0x50
 8337 2a65 02       		.uleb128 0x2
 8338 2a66 91       		.byte	0x91
 8339 2a67 70       		.sleb128 -16
 8340 2a68 00       		.byte	0
 8341 2a69 45       		.uleb128 0x45
 8342 2a6a 84000000 		.4byte	.LVL124
 8343 2a6e AE370000 		.4byte	0x37ae
 8344 2a72 7D2A0000 		.4byte	0x2a7d
 8345 2a76 41       		.uleb128 0x41
ARM GAS  /var/folders/3j/4xdnk5197cv_b7cw3n33qk7r0000gn/T//ccxkT2Pi.s 			page 148


 8346 2a77 01       		.uleb128 0x1
 8347 2a78 50       		.byte	0x50
 8348 2a79 02       		.uleb128 0x2
 8349 2a7a 91       		.byte	0x91
 8350 2a7b 70       		.sleb128 -16
 8351 2a7c 00       		.byte	0
 8352 2a7d 45       		.uleb128 0x45
 8353 2a7e 9C000000 		.4byte	.LVL126
 8354 2a82 BA370000 		.4byte	0x37ba
 8355 2a86 9F2A0000 		.4byte	0x2a9f
 8356 2a8a 41       		.uleb128 0x41
 8357 2a8b 01       		.uleb128 0x1
 8358 2a8c 50       		.byte	0x50
 8359 2a8d 02       		.uleb128 0x2
 8360 2a8e 91       		.byte	0x91
 8361 2a8f 70       		.sleb128 -16
 8362 2a90 41       		.uleb128 0x41
 8363 2a91 01       		.uleb128 0x1
 8364 2a92 51       		.byte	0x51
 8365 2a93 03       		.uleb128 0x3
 8366 2a94 91       		.byte	0x91
 8367 2a95 B97F     		.sleb128 -71
 8368 2a97 41       		.uleb128 0x41
 8369 2a98 01       		.uleb128 0x1
 8370 2a99 52       		.byte	0x52
 8371 2a9a 03       		.uleb128 0x3
 8372 2a9b 91       		.byte	0x91
 8373 2a9c BA7F     		.sleb128 -70
 8374 2a9e 00       		.byte	0
 8375 2a9f 45       		.uleb128 0x45
 8376 2aa0 B4000000 		.4byte	.LVL128
 8377 2aa4 C6370000 		.4byte	0x37c6
 8378 2aa8 C12A0000 		.4byte	0x2ac1
 8379 2aac 41       		.uleb128 0x41
 8380 2aad 01       		.uleb128 0x1
 8381 2aae 50       		.byte	0x50
 8382 2aaf 02       		.uleb128 0x2
 8383 2ab0 91       		.byte	0x91
 8384 2ab1 70       		.sleb128 -16
 8385 2ab2 41       		.uleb128 0x41
 8386 2ab3 01       		.uleb128 0x1
 8387 2ab4 51       		.byte	0x51
 8388 2ab5 03       		.uleb128 0x3
 8389 2ab6 91       		.byte	0x91
 8390 2ab7 BC7F     		.sleb128 -68
 8391 2ab9 41       		.uleb128 0x41
 8392 2aba 01       		.uleb128 0x1
 8393 2abb 52       		.byte	0x52
 8394 2abc 03       		.uleb128 0x3
 8395 2abd 91       		.byte	0x91
 8396 2abe BB7F     		.sleb128 -69
 8397 2ac0 00       		.byte	0
 8398 2ac1 45       		.uleb128 0x45
 8399 2ac2 C8000000 		.4byte	.LVL130
 8400 2ac6 D2370000 		.4byte	0x37d2
 8401 2aca DA2A0000 		.4byte	0x2ada
 8402 2ace 41       		.uleb128 0x41
ARM GAS  /var/folders/3j/4xdnk5197cv_b7cw3n33qk7r0000gn/T//ccxkT2Pi.s 			page 149


 8403 2acf 01       		.uleb128 0x1
 8404 2ad0 50       		.byte	0x50
 8405 2ad1 02       		.uleb128 0x2
 8406 2ad2 91       		.byte	0x91
 8407 2ad3 70       		.sleb128 -16
 8408 2ad4 41       		.uleb128 0x41
 8409 2ad5 01       		.uleb128 0x1
 8410 2ad6 51       		.byte	0x51
 8411 2ad7 01       		.uleb128 0x1
 8412 2ad8 31       		.byte	0x31
 8413 2ad9 00       		.byte	0
 8414 2ada 45       		.uleb128 0x45
 8415 2adb E0000000 		.4byte	.LVL132
 8416 2adf DE370000 		.4byte	0x37de
 8417 2ae3 F32A0000 		.4byte	0x2af3
 8418 2ae7 41       		.uleb128 0x41
 8419 2ae8 01       		.uleb128 0x1
 8420 2ae9 50       		.byte	0x50
 8421 2aea 02       		.uleb128 0x2
 8422 2aeb 91       		.byte	0x91
 8423 2aec 70       		.sleb128 -16
 8424 2aed 41       		.uleb128 0x41
 8425 2aee 01       		.uleb128 0x1
 8426 2aef 52       		.byte	0x52
 8427 2af0 01       		.uleb128 0x1
 8428 2af1 31       		.byte	0x31
 8429 2af2 00       		.byte	0
 8430 2af3 45       		.uleb128 0x45
 8431 2af4 F8000000 		.4byte	.LVL134
 8432 2af8 DE370000 		.4byte	0x37de
 8433 2afc 112B0000 		.4byte	0x2b11
 8434 2b00 41       		.uleb128 0x41
 8435 2b01 01       		.uleb128 0x1
 8436 2b02 50       		.byte	0x50
 8437 2b03 02       		.uleb128 0x2
 8438 2b04 91       		.byte	0x91
 8439 2b05 70       		.sleb128 -16
 8440 2b06 41       		.uleb128 0x41
 8441 2b07 01       		.uleb128 0x1
 8442 2b08 51       		.byte	0x51
 8443 2b09 01       		.uleb128 0x1
 8444 2b0a 31       		.byte	0x31
 8445 2b0b 41       		.uleb128 0x41
 8446 2b0c 01       		.uleb128 0x1
 8447 2b0d 52       		.byte	0x52
 8448 2b0e 01       		.uleb128 0x1
 8449 2b0f 31       		.byte	0x31
 8450 2b10 00       		.byte	0
 8451 2b11 45       		.uleb128 0x45
 8452 2b12 10010000 		.4byte	.LVL136
 8453 2b16 EA370000 		.4byte	0x37ea
 8454 2b1a 312B0000 		.4byte	0x2b31
 8455 2b1e 41       		.uleb128 0x41
 8456 2b1f 01       		.uleb128 0x1
 8457 2b20 50       		.byte	0x50
 8458 2b21 02       		.uleb128 0x2
 8459 2b22 91       		.byte	0x91
ARM GAS  /var/folders/3j/4xdnk5197cv_b7cw3n33qk7r0000gn/T//ccxkT2Pi.s 			page 150


 8460 2b23 70       		.sleb128 -16
 8461 2b24 41       		.uleb128 0x41
 8462 2b25 01       		.uleb128 0x1
 8463 2b26 51       		.byte	0x51
 8464 2b27 01       		.uleb128 0x1
 8465 2b28 31       		.byte	0x31
 8466 2b29 41       		.uleb128 0x41
 8467 2b2a 01       		.uleb128 0x1
 8468 2b2b 52       		.byte	0x52
 8469 2b2c 03       		.uleb128 0x3
 8470 2b2d 0A       		.byte	0xa
 8471 2b2e 0040     		.2byte	0x4000
 8472 2b30 00       		.byte	0
 8473 2b31 45       		.uleb128 0x45
 8474 2b32 28010000 		.4byte	.LVL138
 8475 2b36 EA370000 		.4byte	0x37ea
 8476 2b3a 4C2B0000 		.4byte	0x2b4c
 8477 2b3e 41       		.uleb128 0x41
 8478 2b3f 01       		.uleb128 0x1
 8479 2b40 50       		.byte	0x50
 8480 2b41 02       		.uleb128 0x2
 8481 2b42 91       		.byte	0x91
 8482 2b43 70       		.sleb128 -16
 8483 2b44 41       		.uleb128 0x41
 8484 2b45 01       		.uleb128 0x1
 8485 2b46 52       		.byte	0x52
 8486 2b47 03       		.uleb128 0x3
 8487 2b48 40       		.byte	0x40
 8488 2b49 41       		.byte	0x41
 8489 2b4a 24       		.byte	0x24
 8490 2b4b 00       		.byte	0
 8491 2b4c 40       		.uleb128 0x40
 8492 2b4d 3C010000 		.4byte	.LVL140
 8493 2b51 F6370000 		.4byte	0x37f6
 8494 2b55 41       		.uleb128 0x41
 8495 2b56 01       		.uleb128 0x1
 8496 2b57 50       		.byte	0x50
 8497 2b58 02       		.uleb128 0x2
 8498 2b59 91       		.byte	0x91
 8499 2b5a 70       		.sleb128 -16
 8500 2b5b 41       		.uleb128 0x41
 8501 2b5c 01       		.uleb128 0x1
 8502 2b5d 51       		.byte	0x51
 8503 2b5e 03       		.uleb128 0x3
 8504 2b5f 0A       		.byte	0xa
 8505 2b60 204E     		.2byte	0x4e20
 8506 2b62 00       		.byte	0
 8507 2b63 00       		.byte	0
 8508 2b64 56       		.uleb128 0x56
 8509 2b65 380B0000 		.4byte	.LASF486
 8510 2b69 03       		.byte	0x3
 8511 2b6a 6A       		.byte	0x6a
 8512 2b6b 860F0000 		.4byte	0xf86
 8513 2b6f 01       		.byte	0x1
 8514 2b70 8B2B0000 		.4byte	0x2b8b
 8515 2b74 55       		.uleb128 0x55
 8516 2b75 E2090000 		.4byte	.LASF487
ARM GAS  /var/folders/3j/4xdnk5197cv_b7cw3n33qk7r0000gn/T//ccxkT2Pi.s 			page 151


 8517 2b79 03       		.byte	0x3
 8518 2b7a 6A       		.byte	0x6a
 8519 2b7b B41D0000 		.4byte	0x1db4
 8520 2b7f 31       		.uleb128 0x31
 8521 2b80 B4140000 		.4byte	.LASF481
 8522 2b84 03       		.byte	0x3
 8523 2b85 6B       		.byte	0x6b
 8524 2b86 860F0000 		.4byte	0xf86
 8525 2b8a 00       		.byte	0
 8526 2b8b 56       		.uleb128 0x56
 8527 2b8c FD0B0000 		.4byte	.LASF488
 8528 2b90 03       		.byte	0x3
 8529 2b91 59       		.byte	0x59
 8530 2b92 860F0000 		.4byte	0xf86
 8531 2b96 01       		.byte	0x1
 8532 2b97 C72B0000 		.4byte	0x2bc7
 8533 2b9b 55       		.uleb128 0x55
 8534 2b9c E2090000 		.4byte	.LASF487
 8535 2ba0 03       		.byte	0x3
 8536 2ba1 59       		.byte	0x59
 8537 2ba2 B41D0000 		.4byte	0x1db4
 8538 2ba6 55       		.uleb128 0x55
 8539 2ba7 9A160000 		.4byte	.LASF489
 8540 2bab 03       		.byte	0x3
 8541 2bac 59       		.byte	0x59
 8542 2bad 2C000000 		.4byte	0x2c
 8543 2bb1 58       		.uleb128 0x58
 8544 2bb2 696400   		.ascii	"id\000"
 8545 2bb5 03       		.byte	0x3
 8546 2bb6 5A       		.byte	0x5a
 8547 2bb7 C4000000 		.4byte	0xc4
 8548 2bbb 31       		.uleb128 0x31
 8549 2bbc B4140000 		.4byte	.LASF481
 8550 2bc0 03       		.byte	0x3
 8551 2bc1 5B       		.byte	0x5b
 8552 2bc2 860F0000 		.4byte	0xf86
 8553 2bc6 00       		.byte	0
 8554 2bc7 56       		.uleb128 0x56
 8555 2bc8 FD010000 		.4byte	.LASF490
 8556 2bcc 03       		.byte	0x3
 8557 2bcd 42       		.byte	0x42
 8558 2bce 860F0000 		.4byte	0xf86
 8559 2bd2 01       		.byte	0x1
 8560 2bd3 EE2B0000 		.4byte	0x2bee
 8561 2bd7 55       		.uleb128 0x55
 8562 2bd8 91060000 		.4byte	.LASF450
 8563 2bdc 03       		.byte	0x3
 8564 2bdd 42       		.byte	0x42
 8565 2bde FC1D0000 		.4byte	0x1dfc
 8566 2be2 31       		.uleb128 0x31
 8567 2be3 B4140000 		.4byte	.LASF481
 8568 2be7 03       		.byte	0x3
 8569 2be8 43       		.byte	0x43
 8570 2be9 860F0000 		.4byte	0xf86
 8571 2bed 00       		.byte	0
 8572 2bee 46       		.uleb128 0x46
 8573 2bef 57000000 		.4byte	.LASF492
ARM GAS  /var/folders/3j/4xdnk5197cv_b7cw3n33qk7r0000gn/T//ccxkT2Pi.s 			page 152


 8574 2bf3 02       		.byte	0x2
 8575 2bf4 8A       		.byte	0x8a
 8576 2bf5 860F0000 		.4byte	0xf86
 8577 2bf9 00000000 		.4byte	.LFB20
 8578 2bfd 88000000 		.4byte	.LFE20-.LFB20
 8579 2c01 01       		.uleb128 0x1
 8580 2c02 9C       		.byte	0x9c
 8581 2c03 BA2C0000 		.4byte	0x2cba
 8582 2c07 37       		.uleb128 0x37
 8583 2c08 44657600 		.ascii	"Dev\000"
 8584 2c0c 02       		.byte	0x2
 8585 2c0d 8A       		.byte	0x8a
 8586 2c0e C31C0000 		.4byte	0x1cc3
 8587 2c12 E1030000 		.4byte	.LLST41
 8588 2c16 49       		.uleb128 0x49
 8589 2c17 53170000 		.4byte	.LASF493
 8590 2c1b 02       		.byte	0x2
 8591 2c1c 8A       		.byte	0x8a
 8592 2c1d C4000000 		.4byte	0xc4
 8593 2c21 FF030000 		.4byte	.LLST42
 8594 2c25 49       		.uleb128 0x49
 8595 2c26 32110000 		.4byte	.LASF494
 8596 2c2a 02       		.byte	0x2
 8597 2c2b 8A       		.byte	0x8a
 8598 2c2c C4000000 		.4byte	0xc4
 8599 2c30 20040000 		.4byte	.LLST43
 8600 2c34 49       		.uleb128 0x49
 8601 2c35 480D0000 		.4byte	.LASF495
 8602 2c39 02       		.byte	0x2
 8603 2c3a 8A       		.byte	0x8a
 8604 2c3b C4000000 		.4byte	0xc4
 8605 2c3f 41040000 		.4byte	.LLST44
 8606 2c43 2F       		.uleb128 0x2f
 8607 2c44 09010000 		.4byte	.LASF496
 8608 2c48 02       		.byte	0x2
 8609 2c49 8B       		.byte	0x8b
 8610 2c4a BA2C0000 		.4byte	0x2cba
 8611 2c4e 02       		.uleb128 0x2
 8612 2c4f 91       		.byte	0x91
 8613 2c50 6C       		.sleb128 -20
 8614 2c51 31       		.uleb128 0x31
 8615 2c52 D01A0000 		.4byte	.LASF470
 8616 2c56 02       		.byte	0x2
 8617 2c57 8C       		.byte	0x8c
 8618 2c58 C4000000 		.4byte	0xc4
 8619 2c5c 47       		.uleb128 0x47
 8620 2c5d CD0B0000 		.4byte	.LASF129
 8621 2c61 02       		.byte	0x2
 8622 2c62 92       		.byte	0x92
 8623 2c63 3C010000 		.4byte	0x13c
 8624 2c67 62040000 		.4byte	.LLST45
 8625 2c6b 3F       		.uleb128 0x3f
 8626 2c6c 24000000 		.4byte	.LVL75
 8627 2c70 02380000 		.4byte	0x3802
 8628 2c74 45       		.uleb128 0x45
 8629 2c75 3C000000 		.4byte	.LVL76
 8630 2c79 0D380000 		.4byte	0x380d
ARM GAS  /var/folders/3j/4xdnk5197cv_b7cw3n33qk7r0000gn/T//ccxkT2Pi.s 			page 153


 8631 2c7d 942C0000 		.4byte	0x2c94
 8632 2c81 41       		.uleb128 0x41
 8633 2c82 01       		.uleb128 0x1
 8634 2c83 52       		.byte	0x52
 8635 2c84 02       		.uleb128 0x2
 8636 2c85 74       		.byte	0x74
 8637 2c86 00       		.sleb128 0
 8638 2c87 41       		.uleb128 0x41
 8639 2c88 01       		.uleb128 0x1
 8640 2c89 53       		.byte	0x53
 8641 2c8a 01       		.uleb128 0x1
 8642 2c8b 34       		.byte	0x34
 8643 2c8c 41       		.uleb128 0x41
 8644 2c8d 02       		.uleb128 0x2
 8645 2c8e 7D       		.byte	0x7d
 8646 2c8f 00       		.sleb128 0
 8647 2c90 02       		.uleb128 0x2
 8648 2c91 75       		.byte	0x75
 8649 2c92 00       		.sleb128 0
 8650 2c93 00       		.byte	0
 8651 2c94 3F       		.uleb128 0x3f
 8652 2c95 48000000 		.4byte	.LVL79
 8653 2c99 18380000 		.4byte	0x3818
 8654 2c9d 40       		.uleb128 0x40
 8655 2c9e 6C000000 		.4byte	.LVL81
 8656 2ca2 23380000 		.4byte	0x3823
 8657 2ca6 41       		.uleb128 0x41
 8658 2ca7 01       		.uleb128 0x1
 8659 2ca8 52       		.byte	0x52
 8660 2ca9 02       		.uleb128 0x2
 8661 2caa 91       		.byte	0x91
 8662 2cab 64       		.sleb128 -28
 8663 2cac 41       		.uleb128 0x41
 8664 2cad 01       		.uleb128 0x1
 8665 2cae 53       		.byte	0x53
 8666 2caf 01       		.uleb128 0x1
 8667 2cb0 32       		.byte	0x32
 8668 2cb1 41       		.uleb128 0x41
 8669 2cb2 02       		.uleb128 0x2
 8670 2cb3 7D       		.byte	0x7d
 8671 2cb4 00       		.sleb128 0
 8672 2cb5 02       		.uleb128 0x2
 8673 2cb6 74       		.byte	0x74
 8674 2cb7 00       		.sleb128 0
 8675 2cb8 00       		.byte	0
 8676 2cb9 00       		.byte	0
 8677 2cba 13       		.uleb128 0x13
 8678 2cbb C4000000 		.4byte	0xc4
 8679 2cbf CA2C0000 		.4byte	0x2cca
 8680 2cc3 14       		.uleb128 0x14
 8681 2cc4 3E000000 		.4byte	0x3e
 8682 2cc8 01       		.byte	0x1
 8683 2cc9 00       		.byte	0
 8684 2cca 46       		.uleb128 0x46
 8685 2ccb 3F040000 		.4byte	.LASF497
 8686 2ccf 02       		.byte	0x2
 8687 2cd0 80       		.byte	0x80
ARM GAS  /var/folders/3j/4xdnk5197cv_b7cw3n33qk7r0000gn/T//ccxkT2Pi.s 			page 154


 8688 2cd1 860F0000 		.4byte	0xf86
 8689 2cd5 00000000 		.4byte	.LFB19
 8690 2cd9 54000000 		.4byte	.LFE19-.LFB19
 8691 2cdd 01       		.uleb128 0x1
 8692 2cde 9C       		.byte	0x9c
 8693 2cdf 6B2D0000 		.4byte	0x2d6b
 8694 2ce3 37       		.uleb128 0x37
 8695 2ce4 44657600 		.ascii	"Dev\000"
 8696 2ce8 02       		.byte	0x2
 8697 2ce9 80       		.byte	0x80
 8698 2cea C31C0000 		.4byte	0x1cc3
 8699 2cee 96040000 		.4byte	.LLST37
 8700 2cf2 49       		.uleb128 0x49
 8701 2cf3 53170000 		.4byte	.LASF493
 8702 2cf7 02       		.byte	0x2
 8703 2cf8 80       		.byte	0x80
 8704 2cf9 C4000000 		.4byte	0xc4
 8705 2cfd C2040000 		.4byte	.LLST38
 8706 2d01 49       		.uleb128 0x49
 8707 2d02 D01A0000 		.4byte	.LASF470
 8708 2d06 02       		.byte	0x2
 8709 2d07 80       		.byte	0x80
 8710 2d08 6B2D0000 		.4byte	0x2d6b
 8711 2d0c E3040000 		.4byte	.LLST39
 8712 2d10 47       		.uleb128 0x47
 8713 2d11 CD0B0000 		.4byte	.LASF129
 8714 2d15 02       		.byte	0x2
 8715 2d16 83       		.byte	0x83
 8716 2d17 3C010000 		.4byte	0x13c
 8717 2d1b 0F050000 		.4byte	.LLST40
 8718 2d1f 45       		.uleb128 0x45
 8719 2d20 1C000000 		.4byte	.LVL67
 8720 2d24 02380000 		.4byte	0x3802
 8721 2d28 332D0000 		.4byte	0x2d33
 8722 2d2c 41       		.uleb128 0x41
 8723 2d2d 01       		.uleb128 0x1
 8724 2d2e 50       		.byte	0x50
 8725 2d2f 02       		.uleb128 0x2
 8726 2d30 74       		.byte	0x74
 8727 2d31 00       		.sleb128 0
 8728 2d32 00       		.byte	0
 8729 2d33 45       		.uleb128 0x45
 8730 2d34 38000000 		.4byte	.LVL68
 8731 2d38 0D380000 		.4byte	0x380d
 8732 2d3c 5A2D0000 		.4byte	0x2d5a
 8733 2d40 41       		.uleb128 0x41
 8734 2d41 01       		.uleb128 0x1
 8735 2d42 50       		.byte	0x50
 8736 2d43 02       		.uleb128 0x2
 8737 2d44 74       		.byte	0x74
 8738 2d45 00       		.sleb128 0
 8739 2d46 41       		.uleb128 0x41
 8740 2d47 01       		.uleb128 0x1
 8741 2d48 52       		.byte	0x52
 8742 2d49 02       		.uleb128 0x2
 8743 2d4a 75       		.byte	0x75
 8744 2d4b 00       		.sleb128 0
ARM GAS  /var/folders/3j/4xdnk5197cv_b7cw3n33qk7r0000gn/T//ccxkT2Pi.s 			page 155


 8745 2d4c 41       		.uleb128 0x41
 8746 2d4d 01       		.uleb128 0x1
 8747 2d4e 53       		.byte	0x53
 8748 2d4f 01       		.uleb128 0x1
 8749 2d50 34       		.byte	0x34
 8750 2d51 41       		.uleb128 0x41
 8751 2d52 02       		.uleb128 0x2
 8752 2d53 7D       		.byte	0x7d
 8753 2d54 00       		.sleb128 0
 8754 2d55 03       		.uleb128 0x3
 8755 2d56 0A       		.byte	0xa
 8756 2d57 E803     		.2byte	0x3e8
 8757 2d59 00       		.byte	0
 8758 2d5a 40       		.uleb128 0x40
 8759 2d5b 44000000 		.4byte	.LVL71
 8760 2d5f 18380000 		.4byte	0x3818
 8761 2d63 41       		.uleb128 0x41
 8762 2d64 01       		.uleb128 0x1
 8763 2d65 50       		.byte	0x50
 8764 2d66 02       		.uleb128 0x2
 8765 2d67 74       		.byte	0x74
 8766 2d68 00       		.sleb128 0
 8767 2d69 00       		.byte	0
 8768 2d6a 00       		.byte	0
 8769 2d6b 0B       		.uleb128 0xb
 8770 2d6c 04       		.byte	0x4
 8771 2d6d EA000000 		.4byte	0xea
 8772 2d71 46       		.uleb128 0x46
 8773 2d72 5E0E0000 		.4byte	.LASF498
 8774 2d76 02       		.byte	0x2
 8775 2d77 76       		.byte	0x76
 8776 2d78 860F0000 		.4byte	0xf86
 8777 2d7c 00000000 		.4byte	.LFB18
 8778 2d80 54000000 		.4byte	.LFE18-.LFB18
 8779 2d84 01       		.uleb128 0x1
 8780 2d85 9C       		.byte	0x9c
 8781 2d86 122E0000 		.4byte	0x2e12
 8782 2d8a 37       		.uleb128 0x37
 8783 2d8b 44657600 		.ascii	"Dev\000"
 8784 2d8f 02       		.byte	0x2
 8785 2d90 76       		.byte	0x76
 8786 2d91 C31C0000 		.4byte	0x1cc3
 8787 2d95 2D050000 		.4byte	.LLST33
 8788 2d99 49       		.uleb128 0x49
 8789 2d9a 53170000 		.4byte	.LASF493
 8790 2d9e 02       		.byte	0x2
 8791 2d9f 76       		.byte	0x76
 8792 2da0 C4000000 		.4byte	0xc4
 8793 2da4 59050000 		.4byte	.LLST34
 8794 2da8 49       		.uleb128 0x49
 8795 2da9 D01A0000 		.4byte	.LASF470
 8796 2dad 02       		.byte	0x2
 8797 2dae 76       		.byte	0x76
 8798 2daf 122E0000 		.4byte	0x2e12
 8799 2db3 7A050000 		.4byte	.LLST35
 8800 2db7 47       		.uleb128 0x47
 8801 2db8 CD0B0000 		.4byte	.LASF129
ARM GAS  /var/folders/3j/4xdnk5197cv_b7cw3n33qk7r0000gn/T//ccxkT2Pi.s 			page 156


 8802 2dbc 02       		.byte	0x2
 8803 2dbd 78       		.byte	0x78
 8804 2dbe 3C010000 		.4byte	0x13c
 8805 2dc2 A6050000 		.4byte	.LLST36
 8806 2dc6 45       		.uleb128 0x45
 8807 2dc7 1C000000 		.4byte	.LVL59
 8808 2dcb 02380000 		.4byte	0x3802
 8809 2dcf DA2D0000 		.4byte	0x2dda
 8810 2dd3 41       		.uleb128 0x41
 8811 2dd4 01       		.uleb128 0x1
 8812 2dd5 50       		.byte	0x50
 8813 2dd6 02       		.uleb128 0x2
 8814 2dd7 74       		.byte	0x74
 8815 2dd8 00       		.sleb128 0
 8816 2dd9 00       		.byte	0
 8817 2dda 45       		.uleb128 0x45
 8818 2ddb 38000000 		.4byte	.LVL60
 8819 2ddf 0D380000 		.4byte	0x380d
 8820 2de3 012E0000 		.4byte	0x2e01
 8821 2de7 41       		.uleb128 0x41
 8822 2de8 01       		.uleb128 0x1
 8823 2de9 50       		.byte	0x50
 8824 2dea 02       		.uleb128 0x2
 8825 2deb 74       		.byte	0x74
 8826 2dec 00       		.sleb128 0
 8827 2ded 41       		.uleb128 0x41
 8828 2dee 01       		.uleb128 0x1
 8829 2def 52       		.byte	0x52
 8830 2df0 02       		.uleb128 0x2
 8831 2df1 75       		.byte	0x75
 8832 2df2 00       		.sleb128 0
 8833 2df3 41       		.uleb128 0x41
 8834 2df4 01       		.uleb128 0x1
 8835 2df5 53       		.byte	0x53
 8836 2df6 01       		.uleb128 0x1
 8837 2df7 32       		.byte	0x32
 8838 2df8 41       		.uleb128 0x41
 8839 2df9 02       		.uleb128 0x2
 8840 2dfa 7D       		.byte	0x7d
 8841 2dfb 00       		.sleb128 0
 8842 2dfc 03       		.uleb128 0x3
 8843 2dfd 0A       		.byte	0xa
 8844 2dfe E803     		.2byte	0x3e8
 8845 2e00 00       		.byte	0
 8846 2e01 40       		.uleb128 0x40
 8847 2e02 44000000 		.4byte	.LVL63
 8848 2e06 18380000 		.4byte	0x3818
 8849 2e0a 41       		.uleb128 0x41
 8850 2e0b 01       		.uleb128 0x1
 8851 2e0c 50       		.byte	0x50
 8852 2e0d 02       		.uleb128 0x2
 8853 2e0e 74       		.byte	0x74
 8854 2e0f 00       		.sleb128 0
 8855 2e10 00       		.byte	0
 8856 2e11 00       		.byte	0
 8857 2e12 0B       		.uleb128 0xb
 8858 2e13 04       		.byte	0x4
ARM GAS  /var/folders/3j/4xdnk5197cv_b7cw3n33qk7r0000gn/T//ccxkT2Pi.s 			page 157


 8859 2e14 D4000000 		.4byte	0xd4
 8860 2e18 46       		.uleb128 0x46
 8861 2e19 22110000 		.4byte	.LASF499
 8862 2e1d 02       		.byte	0x2
 8863 2e1e 65       		.byte	0x65
 8864 2e1f 860F0000 		.4byte	0xf86
 8865 2e23 00000000 		.4byte	.LFB17
 8866 2e27 7C000000 		.4byte	.LFE17-.LFB17
 8867 2e2b 01       		.uleb128 0x1
 8868 2e2c 9C       		.byte	0x9c
 8869 2e2d D32E0000 		.4byte	0x2ed3
 8870 2e31 37       		.uleb128 0x37
 8871 2e32 44657600 		.ascii	"Dev\000"
 8872 2e36 02       		.byte	0x2
 8873 2e37 65       		.byte	0x65
 8874 2e38 C31C0000 		.4byte	0x1cc3
 8875 2e3c C4050000 		.4byte	.LLST29
 8876 2e40 49       		.uleb128 0x49
 8877 2e41 53170000 		.4byte	.LASF493
 8878 2e45 02       		.byte	0x2
 8879 2e46 65       		.byte	0x65
 8880 2e47 C4000000 		.4byte	0xc4
 8881 2e4b F0050000 		.4byte	.LLST30
 8882 2e4f 49       		.uleb128 0x49
 8883 2e50 D01A0000 		.4byte	.LASF470
 8884 2e54 02       		.byte	0x2
 8885 2e55 65       		.byte	0x65
 8886 2e56 EA000000 		.4byte	0xea
 8887 2e5a 11060000 		.4byte	.LLST31
 8888 2e5e 2F       		.uleb128 0x2f
 8889 2e5f 09010000 		.4byte	.LASF496
 8890 2e63 02       		.byte	0x2
 8891 2e64 66       		.byte	0x66
 8892 2e65 D32E0000 		.4byte	0x2ed3
 8893 2e69 02       		.uleb128 0x2
 8894 2e6a 91       		.byte	0x91
 8895 2e6b 68       		.sleb128 -24
 8896 2e6c 47       		.uleb128 0x47
 8897 2e6d CD0B0000 		.4byte	.LASF129
 8898 2e71 02       		.byte	0x2
 8899 2e72 6E       		.byte	0x6e
 8900 2e73 3C010000 		.4byte	0x13c
 8901 2e77 32060000 		.4byte	.LLST32
 8902 2e7b 45       		.uleb128 0x45
 8903 2e7c 38000000 		.4byte	.LVL51
 8904 2e80 02380000 		.4byte	0x3802
 8905 2e84 8F2E0000 		.4byte	0x2e8f
 8906 2e88 41       		.uleb128 0x41
 8907 2e89 01       		.uleb128 0x1
 8908 2e8a 50       		.byte	0x50
 8909 2e8b 02       		.uleb128 0x2
 8910 2e8c 74       		.byte	0x74
 8911 2e8d 00       		.sleb128 0
 8912 2e8e 00       		.byte	0
 8913 2e8f 45       		.uleb128 0x45
 8914 2e90 60000000 		.4byte	.LVL52
 8915 2e94 23380000 		.4byte	0x3823
ARM GAS  /var/folders/3j/4xdnk5197cv_b7cw3n33qk7r0000gn/T//ccxkT2Pi.s 			page 158


 8916 2e98 C22E0000 		.4byte	0x2ec2
 8917 2e9c 41       		.uleb128 0x41
 8918 2e9d 01       		.uleb128 0x1
 8919 2e9e 50       		.byte	0x50
 8920 2e9f 02       		.uleb128 0x2
 8921 2ea0 74       		.byte	0x74
 8922 2ea1 00       		.sleb128 0
 8923 2ea2 41       		.uleb128 0x41
 8924 2ea3 01       		.uleb128 0x1
 8925 2ea4 52       		.byte	0x52
 8926 2ea5 02       		.uleb128 0x2
 8927 2ea6 91       		.byte	0x91
 8928 2ea7 60       		.sleb128 -32
 8929 2ea8 41       		.uleb128 0x41
 8930 2ea9 01       		.uleb128 0x1
 8931 2eaa 53       		.byte	0x53
 8932 2eab 01       		.uleb128 0x1
 8933 2eac 35       		.byte	0x35
 8934 2ead 41       		.uleb128 0x41
 8935 2eae 02       		.uleb128 0x2
 8936 2eaf 7D       		.byte	0x7d
 8937 2eb0 00       		.sleb128 0
 8938 2eb1 01       		.uleb128 0x1
 8939 2eb2 30       		.byte	0x30
 8940 2eb3 41       		.uleb128 0x41
 8941 2eb4 02       		.uleb128 0x2
 8942 2eb5 7D       		.byte	0x7d
 8943 2eb6 04       		.sleb128 4
 8944 2eb7 01       		.uleb128 0x1
 8945 2eb8 30       		.byte	0x30
 8946 2eb9 41       		.uleb128 0x41
 8947 2eba 02       		.uleb128 0x2
 8948 2ebb 7D       		.byte	0x7d
 8949 2ebc 08       		.sleb128 8
 8950 2ebd 03       		.uleb128 0x3
 8951 2ebe 0A       		.byte	0xa
 8952 2ebf E803     		.2byte	0x3e8
 8953 2ec1 00       		.byte	0
 8954 2ec2 40       		.uleb128 0x40
 8955 2ec3 6C000000 		.4byte	.LVL55
 8956 2ec7 18380000 		.4byte	0x3818
 8957 2ecb 41       		.uleb128 0x41
 8958 2ecc 01       		.uleb128 0x1
 8959 2ecd 50       		.byte	0x50
 8960 2ece 02       		.uleb128 0x2
 8961 2ecf 74       		.byte	0x74
 8962 2ed0 00       		.sleb128 0
 8963 2ed1 00       		.byte	0
 8964 2ed2 00       		.byte	0
 8965 2ed3 13       		.uleb128 0x13
 8966 2ed4 C4000000 		.4byte	0xc4
 8967 2ed8 E32E0000 		.4byte	0x2ee3
 8968 2edc 14       		.uleb128 0x14
 8969 2edd 3E000000 		.4byte	0x3e
 8970 2ee1 04       		.byte	0x4
 8971 2ee2 00       		.byte	0
 8972 2ee3 46       		.uleb128 0x46
ARM GAS  /var/folders/3j/4xdnk5197cv_b7cw3n33qk7r0000gn/T//ccxkT2Pi.s 			page 159


 8973 2ee4 F21A0000 		.4byte	.LASF500
 8974 2ee8 02       		.byte	0x2
 8975 2ee9 56       		.byte	0x56
 8976 2eea 860F0000 		.4byte	0xf86
 8977 2eee 00000000 		.4byte	.LFB16
 8978 2ef2 6C000000 		.4byte	.LFE16-.LFB16
 8979 2ef6 01       		.uleb128 0x1
 8980 2ef7 9C       		.byte	0x9c
 8981 2ef8 9E2F0000 		.4byte	0x2f9e
 8982 2efc 37       		.uleb128 0x37
 8983 2efd 44657600 		.ascii	"Dev\000"
 8984 2f01 02       		.byte	0x2
 8985 2f02 56       		.byte	0x56
 8986 2f03 C31C0000 		.4byte	0x1cc3
 8987 2f07 50060000 		.4byte	.LLST25
 8988 2f0b 49       		.uleb128 0x49
 8989 2f0c 53170000 		.4byte	.LASF493
 8990 2f10 02       		.byte	0x2
 8991 2f11 56       		.byte	0x56
 8992 2f12 C4000000 		.4byte	0xc4
 8993 2f16 7C060000 		.4byte	.LLST26
 8994 2f1a 49       		.uleb128 0x49
 8995 2f1b D01A0000 		.4byte	.LASF470
 8996 2f1f 02       		.byte	0x2
 8997 2f20 56       		.byte	0x56
 8998 2f21 D4000000 		.4byte	0xd4
 8999 2f25 9D060000 		.4byte	.LLST27
 9000 2f29 2F       		.uleb128 0x2f
 9001 2f2a 09010000 		.4byte	.LASF496
 9002 2f2e 02       		.byte	0x2
 9003 2f2f 57       		.byte	0x57
 9004 2f30 9E2F0000 		.4byte	0x2f9e
 9005 2f34 02       		.uleb128 0x2
 9006 2f35 91       		.byte	0x91
 9007 2f36 6C       		.sleb128 -20
 9008 2f37 47       		.uleb128 0x47
 9009 2f38 CD0B0000 		.4byte	.LASF129
 9010 2f3c 02       		.byte	0x2
 9011 2f3d 5D       		.byte	0x5d
 9012 2f3e 3C010000 		.4byte	0x13c
 9013 2f42 BE060000 		.4byte	.LLST28
 9014 2f46 45       		.uleb128 0x45
 9015 2f47 28000000 		.4byte	.LVL42
 9016 2f4b 02380000 		.4byte	0x3802
 9017 2f4f 5A2F0000 		.4byte	0x2f5a
 9018 2f53 41       		.uleb128 0x41
 9019 2f54 01       		.uleb128 0x1
 9020 2f55 50       		.byte	0x50
 9021 2f56 02       		.uleb128 0x2
 9022 2f57 74       		.byte	0x74
 9023 2f58 00       		.sleb128 0
 9024 2f59 00       		.byte	0
 9025 2f5a 45       		.uleb128 0x45
 9026 2f5b 50000000 		.4byte	.LVL43
 9027 2f5f 23380000 		.4byte	0x3823
 9028 2f63 8D2F0000 		.4byte	0x2f8d
 9029 2f67 41       		.uleb128 0x41
ARM GAS  /var/folders/3j/4xdnk5197cv_b7cw3n33qk7r0000gn/T//ccxkT2Pi.s 			page 160


 9030 2f68 01       		.uleb128 0x1
 9031 2f69 50       		.byte	0x50
 9032 2f6a 02       		.uleb128 0x2
 9033 2f6b 74       		.byte	0x74
 9034 2f6c 00       		.sleb128 0
 9035 2f6d 41       		.uleb128 0x41
 9036 2f6e 01       		.uleb128 0x1
 9037 2f6f 52       		.byte	0x52
 9038 2f70 02       		.uleb128 0x2
 9039 2f71 91       		.byte	0x91
 9040 2f72 64       		.sleb128 -28
 9041 2f73 41       		.uleb128 0x41
 9042 2f74 01       		.uleb128 0x1
 9043 2f75 53       		.byte	0x53
 9044 2f76 01       		.uleb128 0x1
 9045 2f77 33       		.byte	0x33
 9046 2f78 41       		.uleb128 0x41
 9047 2f79 02       		.uleb128 0x2
 9048 2f7a 7D       		.byte	0x7d
 9049 2f7b 00       		.sleb128 0
 9050 2f7c 01       		.uleb128 0x1
 9051 2f7d 30       		.byte	0x30
 9052 2f7e 41       		.uleb128 0x41
 9053 2f7f 02       		.uleb128 0x2
 9054 2f80 7D       		.byte	0x7d
 9055 2f81 04       		.sleb128 4
 9056 2f82 01       		.uleb128 0x1
 9057 2f83 30       		.byte	0x30
 9058 2f84 41       		.uleb128 0x41
 9059 2f85 02       		.uleb128 0x2
 9060 2f86 7D       		.byte	0x7d
 9061 2f87 08       		.sleb128 8
 9062 2f88 03       		.uleb128 0x3
 9063 2f89 0A       		.byte	0xa
 9064 2f8a E803     		.2byte	0x3e8
 9065 2f8c 00       		.byte	0
 9066 2f8d 40       		.uleb128 0x40
 9067 2f8e 5C000000 		.4byte	.LVL46
 9068 2f92 18380000 		.4byte	0x3818
 9069 2f96 41       		.uleb128 0x41
 9070 2f97 01       		.uleb128 0x1
 9071 2f98 50       		.byte	0x50
 9072 2f99 02       		.uleb128 0x2
 9073 2f9a 74       		.byte	0x74
 9074 2f9b 00       		.sleb128 0
 9075 2f9c 00       		.byte	0
 9076 2f9d 00       		.byte	0
 9077 2f9e 13       		.uleb128 0x13
 9078 2f9f C4000000 		.4byte	0xc4
 9079 2fa3 AE2F0000 		.4byte	0x2fae
 9080 2fa7 14       		.uleb128 0x14
 9081 2fa8 3E000000 		.4byte	0x3e
 9082 2fac 02       		.byte	0x2
 9083 2fad 00       		.byte	0
 9084 2fae 46       		.uleb128 0x46
 9085 2faf 2D150000 		.4byte	.LASF501
 9086 2fb3 02       		.byte	0x2
ARM GAS  /var/folders/3j/4xdnk5197cv_b7cw3n33qk7r0000gn/T//ccxkT2Pi.s 			page 161


 9087 2fb4 43       		.byte	0x43
 9088 2fb5 860F0000 		.4byte	0xf86
 9089 2fb9 00000000 		.4byte	.LFB15
 9090 2fbd 64000000 		.4byte	.LFE15-.LFB15
 9091 2fc1 01       		.uleb128 0x1
 9092 2fc2 9C       		.byte	0x9c
 9093 2fc3 56300000 		.4byte	0x3056
 9094 2fc7 37       		.uleb128 0x37
 9095 2fc8 44657600 		.ascii	"Dev\000"
 9096 2fcc 02       		.byte	0x2
 9097 2fcd 43       		.byte	0x43
 9098 2fce C31C0000 		.4byte	0x1cc3
 9099 2fd2 DC060000 		.4byte	.LLST19
 9100 2fd6 49       		.uleb128 0x49
 9101 2fd7 53170000 		.4byte	.LASF493
 9102 2fdb 02       		.byte	0x2
 9103 2fdc 43       		.byte	0x43
 9104 2fdd C4000000 		.4byte	0xc4
 9105 2fe1 08070000 		.4byte	.LLST20
 9106 2fe5 49       		.uleb128 0x49
 9107 2fe6 78160000 		.4byte	.LASF502
 9108 2fea 02       		.byte	0x2
 9109 2feb 43       		.byte	0x43
 9110 2fec 51070000 		.4byte	0x751
 9111 2ff0 29070000 		.4byte	.LLST21
 9112 2ff4 49       		.uleb128 0x49
 9113 2ff5 D4030000 		.4byte	.LASF503
 9114 2ff9 02       		.byte	0x2
 9115 2ffa 43       		.byte	0x43
 9116 2ffb EA000000 		.4byte	0xea
 9117 2fff 4A070000 		.4byte	.LLST22
 9118 3003 47       		.uleb128 0x47
 9119 3004 B4140000 		.4byte	.LASF481
 9120 3008 02       		.byte	0x2
 9121 3009 44       		.byte	0x44
 9122 300a 860F0000 		.4byte	0xf86
 9123 300e 6B070000 		.4byte	.LLST23
 9124 3012 3C       		.uleb128 0x3c
 9125 3013 00000000 		.4byte	.Ldebug_ranges0+0
 9126 3017 4F       		.uleb128 0x4f
 9127 3018 6900     		.ascii	"i\000"
 9128 301a 02       		.byte	0x2
 9129 301b 49       		.byte	0x49
 9130 301c 2C000000 		.4byte	0x2c
 9131 3020 95070000 		.4byte	.LLST24
 9132 3024 3C       		.uleb128 0x3c
 9133 3025 18000000 		.4byte	.Ldebug_ranges0+0x18
 9134 3029 2F       		.uleb128 0x2f
 9135 302a F3030000 		.4byte	.LASF504
 9136 302e 02       		.byte	0x2
 9137 302f 4B       		.byte	0x4b
 9138 3030 C4000000 		.4byte	0xc4
 9139 3034 02       		.uleb128 0x2
 9140 3035 91       		.byte	0x91
 9141 3036 67       		.sleb128 -25
 9142 3037 40       		.uleb128 0x40
 9143 3038 44000000 		.4byte	.LVL37
ARM GAS  /var/folders/3j/4xdnk5197cv_b7cw3n33qk7r0000gn/T//ccxkT2Pi.s 			page 162


 9144 303c E5310000 		.4byte	0x31e5
 9145 3040 41       		.uleb128 0x41
 9146 3041 01       		.uleb128 0x1
 9147 3042 50       		.byte	0x50
 9148 3043 02       		.uleb128 0x2
 9149 3044 76       		.byte	0x76
 9150 3045 00       		.sleb128 0
 9151 3046 41       		.uleb128 0x41
 9152 3047 01       		.uleb128 0x1
 9153 3048 51       		.byte	0x51
 9154 3049 02       		.uleb128 0x2
 9155 304a 77       		.byte	0x77
 9156 304b 00       		.sleb128 0
 9157 304c 41       		.uleb128 0x41
 9158 304d 01       		.uleb128 0x1
 9159 304e 52       		.byte	0x52
 9160 304f 02       		.uleb128 0x2
 9161 3050 91       		.byte	0x91
 9162 3051 5F       		.sleb128 -33
 9163 3052 00       		.byte	0
 9164 3053 00       		.byte	0
 9165 3054 00       		.byte	0
 9166 3055 00       		.byte	0
 9167 3056 46       		.uleb128 0x46
 9168 3057 04090000 		.4byte	.LASF505
 9169 305b 02       		.byte	0x2
 9170 305c 32       		.byte	0x32
 9171 305d 860F0000 		.4byte	0xf86
 9172 3061 00000000 		.4byte	.LFB14
 9173 3065 50000000 		.4byte	.LFE14-.LFB14
 9174 3069 01       		.uleb128 0x1
 9175 306a 9C       		.byte	0x9c
 9176 306b 01310000 		.4byte	0x3101
 9177 306f 37       		.uleb128 0x37
 9178 3070 44657600 		.ascii	"Dev\000"
 9179 3074 02       		.byte	0x2
 9180 3075 32       		.byte	0x32
 9181 3076 C31C0000 		.4byte	0x1cc3
 9182 307a BC070000 		.4byte	.LLST12
 9183 307e 49       		.uleb128 0x49
 9184 307f 53170000 		.4byte	.LASF493
 9185 3083 02       		.byte	0x2
 9186 3084 32       		.byte	0x32
 9187 3085 C4000000 		.4byte	0xc4
 9188 3089 E8070000 		.4byte	.LLST13
 9189 308d 49       		.uleb128 0x49
 9190 308e 78160000 		.4byte	.LASF502
 9191 3092 02       		.byte	0x2
 9192 3093 32       		.byte	0x32
 9193 3094 51070000 		.4byte	0x751
 9194 3098 09080000 		.4byte	.LLST14
 9195 309c 49       		.uleb128 0x49
 9196 309d D4030000 		.4byte	.LASF503
 9197 30a1 02       		.byte	0x2
 9198 30a2 32       		.byte	0x32
 9199 30a3 EA000000 		.4byte	0xea
 9200 30a7 2A080000 		.4byte	.LLST15
ARM GAS  /var/folders/3j/4xdnk5197cv_b7cw3n33qk7r0000gn/T//ccxkT2Pi.s 			page 163


 9201 30ab 47       		.uleb128 0x47
 9202 30ac B4140000 		.4byte	.LASF481
 9203 30b0 02       		.byte	0x2
 9204 30b1 34       		.byte	0x34
 9205 30b2 860F0000 		.4byte	0xf86
 9206 30b6 4B080000 		.4byte	.LLST16
 9207 30ba 50       		.uleb128 0x50
 9208 30bb 04000000 		.4byte	.LBB33
 9209 30bf 40000000 		.4byte	.LBE33-.LBB33
 9210 30c3 4F       		.uleb128 0x4f
 9211 30c4 6900     		.ascii	"i\000"
 9212 30c6 02       		.byte	0x2
 9213 30c7 38       		.byte	0x38
 9214 30c8 33000000 		.4byte	0x33
 9215 30cc 75080000 		.4byte	.LLST17
 9216 30d0 50       		.uleb128 0x50
 9217 30d1 28000000 		.4byte	.LBB34
 9218 30d5 1C000000 		.4byte	.LBE34-.LBB34
 9219 30d9 47       		.uleb128 0x47
 9220 30da CC010000 		.4byte	.LASF506
 9221 30de 02       		.byte	0x2
 9222 30df 3A       		.byte	0x3a
 9223 30e0 C4000000 		.4byte	0xc4
 9224 30e4 C0080000 		.4byte	.LLST18
 9225 30e8 40       		.uleb128 0x40
 9226 30e9 38000000 		.4byte	.LVL29
 9227 30ed 2A310000 		.4byte	0x312a
 9228 30f1 41       		.uleb128 0x41
 9229 30f2 01       		.uleb128 0x1
 9230 30f3 50       		.byte	0x50
 9231 30f4 02       		.uleb128 0x2
 9232 30f5 76       		.byte	0x76
 9233 30f6 00       		.sleb128 0
 9234 30f7 41       		.uleb128 0x41
 9235 30f8 01       		.uleb128 0x1
 9236 30f9 51       		.byte	0x51
 9237 30fa 02       		.uleb128 0x2
 9238 30fb 77       		.byte	0x77
 9239 30fc 00       		.sleb128 0
 9240 30fd 00       		.byte	0
 9241 30fe 00       		.byte	0
 9242 30ff 00       		.byte	0
 9243 3100 00       		.byte	0
 9244 3101 46       		.uleb128 0x46
 9245 3102 F7160000 		.4byte	.LASF507
 9246 3106 02       		.byte	0x2
 9247 3107 2E       		.byte	0x2e
 9248 3108 860F0000 		.4byte	0xf86
 9249 310c 00000000 		.4byte	.LFB13
 9250 3110 08000000 		.4byte	.LFE13-.LFB13
 9251 3114 01       		.uleb128 0x1
 9252 3115 9C       		.byte	0x9c
 9253 3116 2A310000 		.4byte	0x312a
 9254 311a 37       		.uleb128 0x37
 9255 311b 44657600 		.ascii	"Dev\000"
 9256 311f 02       		.byte	0x2
 9257 3120 2E       		.byte	0x2e
ARM GAS  /var/folders/3j/4xdnk5197cv_b7cw3n33qk7r0000gn/T//ccxkT2Pi.s 			page 164


 9258 3121 C31C0000 		.4byte	0x1cc3
 9259 3125 E0080000 		.4byte	.LLST11
 9260 3129 00       		.byte	0
 9261 312a 46       		.uleb128 0x46
 9262 312b 1D0F0000 		.4byte	.LASF508
 9263 312f 02       		.byte	0x2
 9264 3130 1E       		.byte	0x1e
 9265 3131 860F0000 		.4byte	0xf86
 9266 3135 00000000 		.4byte	.LFB12
 9267 3139 64000000 		.4byte	.LFE12-.LFB12
 9268 313d 01       		.uleb128 0x1
 9269 313e 9C       		.byte	0x9c
 9270 313f E5310000 		.4byte	0x31e5
 9271 3143 37       		.uleb128 0x37
 9272 3144 44657600 		.ascii	"Dev\000"
 9273 3148 02       		.byte	0x2
 9274 3149 1E       		.byte	0x1e
 9275 314a C31C0000 		.4byte	0x1cc3
 9276 314e 01090000 		.4byte	.LLST7
 9277 3152 49       		.uleb128 0x49
 9278 3153 53170000 		.4byte	.LASF493
 9279 3157 02       		.byte	0x2
 9280 3158 1E       		.byte	0x1e
 9281 3159 C4000000 		.4byte	0xc4
 9282 315d 2D090000 		.4byte	.LLST8
 9283 3161 49       		.uleb128 0x49
 9284 3162 D01A0000 		.4byte	.LASF470
 9285 3166 02       		.byte	0x2
 9286 3167 1E       		.byte	0x1e
 9287 3168 C4000000 		.4byte	0xc4
 9288 316c 4E090000 		.4byte	.LLST9
 9289 3170 2F       		.uleb128 0x2f
 9290 3171 09010000 		.4byte	.LASF496
 9291 3175 02       		.byte	0x2
 9292 3176 20       		.byte	0x20
 9293 3177 BA2C0000 		.4byte	0x2cba
 9294 317b 02       		.uleb128 0x2
 9295 317c 91       		.byte	0x91
 9296 317d 6C       		.sleb128 -20
 9297 317e 47       		.uleb128 0x47
 9298 317f CD0B0000 		.4byte	.LASF129
 9299 3183 02       		.byte	0x2
 9300 3184 25       		.byte	0x25
 9301 3185 3C010000 		.4byte	0x13c
 9302 3189 6F090000 		.4byte	.LLST10
 9303 318d 45       		.uleb128 0x45
 9304 318e 20000000 		.4byte	.LVL16
 9305 3192 02380000 		.4byte	0x3802
 9306 3196 A1310000 		.4byte	0x31a1
 9307 319a 41       		.uleb128 0x41
 9308 319b 01       		.uleb128 0x1
 9309 319c 50       		.byte	0x50
 9310 319d 02       		.uleb128 0x2
 9311 319e 74       		.byte	0x74
 9312 319f 00       		.sleb128 0
 9313 31a0 00       		.byte	0
 9314 31a1 45       		.uleb128 0x45
ARM GAS  /var/folders/3j/4xdnk5197cv_b7cw3n33qk7r0000gn/T//ccxkT2Pi.s 			page 165


 9315 31a2 48000000 		.4byte	.LVL17
 9316 31a6 23380000 		.4byte	0x3823
 9317 31aa D4310000 		.4byte	0x31d4
 9318 31ae 41       		.uleb128 0x41
 9319 31af 01       		.uleb128 0x1
 9320 31b0 50       		.byte	0x50
 9321 31b1 02       		.uleb128 0x2
 9322 31b2 74       		.byte	0x74
 9323 31b3 00       		.sleb128 0
 9324 31b4 41       		.uleb128 0x41
 9325 31b5 01       		.uleb128 0x1
 9326 31b6 52       		.byte	0x52
 9327 31b7 02       		.uleb128 0x2
 9328 31b8 91       		.byte	0x91
 9329 31b9 64       		.sleb128 -28
 9330 31ba 41       		.uleb128 0x41
 9331 31bb 01       		.uleb128 0x1
 9332 31bc 53       		.byte	0x53
 9333 31bd 01       		.uleb128 0x1
 9334 31be 32       		.byte	0x32
 9335 31bf 41       		.uleb128 0x41
 9336 31c0 02       		.uleb128 0x2
 9337 31c1 7D       		.byte	0x7d
 9338 31c2 00       		.sleb128 0
 9339 31c3 01       		.uleb128 0x1
 9340 31c4 30       		.byte	0x30
 9341 31c5 41       		.uleb128 0x41
 9342 31c6 02       		.uleb128 0x2
 9343 31c7 7D       		.byte	0x7d
 9344 31c8 04       		.sleb128 4
 9345 31c9 01       		.uleb128 0x1
 9346 31ca 30       		.byte	0x30
 9347 31cb 41       		.uleb128 0x41
 9348 31cc 02       		.uleb128 0x2
 9349 31cd 7D       		.byte	0x7d
 9350 31ce 08       		.sleb128 8
 9351 31cf 03       		.uleb128 0x3
 9352 31d0 0A       		.byte	0xa
 9353 31d1 D007     		.2byte	0x7d0
 9354 31d3 00       		.byte	0
 9355 31d4 40       		.uleb128 0x40
 9356 31d5 54000000 		.4byte	.LVL20
 9357 31d9 18380000 		.4byte	0x3818
 9358 31dd 41       		.uleb128 0x41
 9359 31de 01       		.uleb128 0x1
 9360 31df 50       		.byte	0x50
 9361 31e0 02       		.uleb128 0x2
 9362 31e1 74       		.byte	0x74
 9363 31e2 00       		.sleb128 0
 9364 31e3 00       		.byte	0
 9365 31e4 00       		.byte	0
 9366 31e5 46       		.uleb128 0x46
 9367 31e6 9D0A0000 		.4byte	.LASF509
 9368 31ea 02       		.byte	0x2
 9369 31eb 13       		.byte	0x13
 9370 31ec 860F0000 		.4byte	0xf86
 9371 31f0 00000000 		.4byte	.LFB11
ARM GAS  /var/folders/3j/4xdnk5197cv_b7cw3n33qk7r0000gn/T//ccxkT2Pi.s 			page 166


 9372 31f4 54000000 		.4byte	.LFE11-.LFB11
 9373 31f8 01       		.uleb128 0x1
 9374 31f9 9C       		.byte	0x9c
 9375 31fa 86320000 		.4byte	0x3286
 9376 31fe 37       		.uleb128 0x37
 9377 31ff 44657600 		.ascii	"Dev\000"
 9378 3203 02       		.byte	0x2
 9379 3204 13       		.byte	0x13
 9380 3205 C31C0000 		.4byte	0x1cc3
 9381 3209 8D090000 		.4byte	.LLST3
 9382 320d 49       		.uleb128 0x49
 9383 320e 53170000 		.4byte	.LASF493
 9384 3212 02       		.byte	0x2
 9385 3213 13       		.byte	0x13
 9386 3214 C4000000 		.4byte	0xc4
 9387 3218 B9090000 		.4byte	.LLST4
 9388 321c 49       		.uleb128 0x49
 9389 321d D01A0000 		.4byte	.LASF470
 9390 3221 02       		.byte	0x2
 9391 3222 13       		.byte	0x13
 9392 3223 51070000 		.4byte	0x751
 9393 3227 DA090000 		.4byte	.LLST5
 9394 322b 47       		.uleb128 0x47
 9395 322c CD0B0000 		.4byte	.LASF129
 9396 3230 02       		.byte	0x2
 9397 3231 16       		.byte	0x16
 9398 3232 3C010000 		.4byte	0x13c
 9399 3236 060A0000 		.4byte	.LLST6
 9400 323a 45       		.uleb128 0x45
 9401 323b 1C000000 		.4byte	.LVL8
 9402 323f 02380000 		.4byte	0x3802
 9403 3243 4E320000 		.4byte	0x324e
 9404 3247 41       		.uleb128 0x41
 9405 3248 01       		.uleb128 0x1
 9406 3249 50       		.byte	0x50
 9407 324a 02       		.uleb128 0x2
 9408 324b 74       		.byte	0x74
 9409 324c 00       		.sleb128 0
 9410 324d 00       		.byte	0
 9411 324e 45       		.uleb128 0x45
 9412 324f 38000000 		.4byte	.LVL9
 9413 3253 0D380000 		.4byte	0x380d
 9414 3257 75320000 		.4byte	0x3275
 9415 325b 41       		.uleb128 0x41
 9416 325c 01       		.uleb128 0x1
 9417 325d 50       		.byte	0x50
 9418 325e 02       		.uleb128 0x2
 9419 325f 74       		.byte	0x74
 9420 3260 00       		.sleb128 0
 9421 3261 41       		.uleb128 0x41
 9422 3262 01       		.uleb128 0x1
 9423 3263 52       		.byte	0x52
 9424 3264 02       		.uleb128 0x2
 9425 3265 75       		.byte	0x75
 9426 3266 00       		.sleb128 0
 9427 3267 41       		.uleb128 0x41
 9428 3268 01       		.uleb128 0x1
ARM GAS  /var/folders/3j/4xdnk5197cv_b7cw3n33qk7r0000gn/T//ccxkT2Pi.s 			page 167


 9429 3269 53       		.byte	0x53
 9430 326a 01       		.uleb128 0x1
 9431 326b 31       		.byte	0x31
 9432 326c 41       		.uleb128 0x41
 9433 326d 02       		.uleb128 0x2
 9434 326e 7D       		.byte	0x7d
 9435 326f 00       		.sleb128 0
 9436 3270 03       		.uleb128 0x3
 9437 3271 0A       		.byte	0xa
 9438 3272 E803     		.2byte	0x3e8
 9439 3274 00       		.byte	0
 9440 3275 40       		.uleb128 0x40
 9441 3276 44000000 		.4byte	.LVL12
 9442 327a 18380000 		.4byte	0x3818
 9443 327e 41       		.uleb128 0x41
 9444 327f 01       		.uleb128 0x1
 9445 3280 50       		.byte	0x50
 9446 3281 02       		.uleb128 0x2
 9447 3282 74       		.byte	0x74
 9448 3283 00       		.sleb128 0
 9449 3284 00       		.byte	0
 9450 3285 00       		.byte	0
 9451 3286 59       		.uleb128 0x59
 9452 3287 642B0000 		.4byte	0x2b64
 9453 328b 00000000 		.4byte	.LFB40
 9454 328f B4000000 		.4byte	.LFE40-.LFB40
 9455 3293 01       		.uleb128 0x1
 9456 3294 9C       		.byte	0x9c
 9457 3295 F8320000 		.4byte	0x32f8
 9458 3299 3D       		.uleb128 0x3d
 9459 329a 7F2B0000 		.4byte	0x2b7f
 9460 329e 240A0000 		.4byte	.LLST57
 9461 32a2 45       		.uleb128 0x45
 9462 32a3 50000000 		.4byte	.LVL142
 9463 32a7 0C370000 		.4byte	0x370c
 9464 32ab C3320000 		.4byte	0x32c3
 9465 32af 41       		.uleb128 0x41
 9466 32b0 01       		.uleb128 0x1
 9467 32b1 50       		.byte	0x50
 9468 32b2 02       		.uleb128 0x2
 9469 32b3 7D       		.byte	0x7d
 9470 32b4 00       		.sleb128 0
 9471 32b5 41       		.uleb128 0x41
 9472 32b6 01       		.uleb128 0x1
 9473 32b7 51       		.byte	0x51
 9474 32b8 02       		.uleb128 0x2
 9475 32b9 91       		.byte	0x91
 9476 32ba 58       		.sleb128 -40
 9477 32bb 41       		.uleb128 0x41
 9478 32bc 01       		.uleb128 0x1
 9479 32bd 52       		.byte	0x52
 9480 32be 03       		.uleb128 0x3
 9481 32bf 0A       		.byte	0xa
 9482 32c0 7801     		.2byte	0x178
 9483 32c2 00       		.byte	0
 9484 32c3 3F       		.uleb128 0x3f
 9485 32c4 58000000 		.4byte	.LVL143
ARM GAS  /var/folders/3j/4xdnk5197cv_b7cw3n33qk7r0000gn/T//ccxkT2Pi.s 			page 168


 9486 32c8 CF290000 		.4byte	0x29cf
 9487 32cc 45       		.uleb128 0x45
 9488 32cd 98000000 		.4byte	.LVL145
 9489 32d1 0C370000 		.4byte	0x370c
 9490 32d5 EE320000 		.4byte	0x32ee
 9491 32d9 41       		.uleb128 0x41
 9492 32da 01       		.uleb128 0x1
 9493 32db 50       		.byte	0x50
 9494 32dc 02       		.uleb128 0x2
 9495 32dd 7D       		.byte	0x7d
 9496 32de 00       		.sleb128 0
 9497 32df 41       		.uleb128 0x41
 9498 32e0 01       		.uleb128 0x1
 9499 32e1 51       		.byte	0x51
 9500 32e2 03       		.uleb128 0x3
 9501 32e3 91       		.byte	0x91
 9502 32e4 E002     		.sleb128 352
 9503 32e6 41       		.uleb128 0x41
 9504 32e7 01       		.uleb128 0x1
 9505 32e8 52       		.byte	0x52
 9506 32e9 03       		.uleb128 0x3
 9507 32ea 0A       		.byte	0xa
 9508 32eb 7801     		.2byte	0x178
 9509 32ed 00       		.byte	0
 9510 32ee 3F       		.uleb128 0x3f
 9511 32ef A4000000 		.4byte	.LVL146
 9512 32f3 CF290000 		.4byte	0x29cf
 9513 32f7 00       		.byte	0
 9514 32f8 59       		.uleb128 0x59
 9515 32f9 C72B0000 		.4byte	0x2bc7
 9516 32fd 00000000 		.4byte	.LFB42
 9517 3301 EC020000 		.4byte	.LFE42-.LFB42
 9518 3305 01       		.uleb128 0x1
 9519 3306 9C       		.byte	0x9c
 9520 3307 9E360000 		.4byte	0x369e
 9521 330b 3E       		.uleb128 0x3e
 9522 330c D72B0000 		.4byte	0x2bd7
 9523 3310 02       		.uleb128 0x2
 9524 3311 91       		.byte	0x91
 9525 3312 70       		.sleb128 -16
 9526 3313 3D       		.uleb128 0x3d
 9527 3314 E22B0000 		.4byte	0x2be2
 9528 3318 430A0000 		.4byte	.LLST58
 9529 331c 39       		.uleb128 0x39
 9530 331d 8B2B0000 		.4byte	0x2b8b
 9531 3321 08000000 		.4byte	.LBB84
 9532 3325 B0000000 		.4byte	.Ldebug_ranges0+0xb0
 9533 3329 03       		.byte	0x3
 9534 332a 45       		.byte	0x45
 9535 332b 8B330000 		.4byte	0x338b
 9536 332f 3A       		.uleb128 0x3a
 9537 3330 A62B0000 		.4byte	0x2ba6
 9538 3334 6D0A0000 		.4byte	.LLST59
 9539 3338 3E       		.uleb128 0x3e
 9540 3339 9B2B0000 		.4byte	0x2b9b
 9541 333d 03       		.uleb128 0x3
 9542 333e 91       		.byte	0x91
ARM GAS  /var/folders/3j/4xdnk5197cv_b7cw3n33qk7r0000gn/T//ccxkT2Pi.s 			page 169


 9543 333f 9065     		.sleb128 -3440
 9544 3341 3C       		.uleb128 0x3c
 9545 3342 B0000000 		.4byte	.Ldebug_ranges0+0xb0
 9546 3346 3D       		.uleb128 0x3d
 9547 3347 B12B0000 		.4byte	0x2bb1
 9548 334b 810A0000 		.4byte	.LLST60
 9549 334f 3D       		.uleb128 0x3d
 9550 3350 BB2B0000 		.4byte	0x2bbb
 9551 3354 A10A0000 		.4byte	.LLST61
 9552 3358 45       		.uleb128 0x45
 9553 3359 3C000000 		.4byte	.LVL149
 9554 335d 2E380000 		.4byte	0x382e
 9555 3361 73330000 		.4byte	0x3373
 9556 3365 41       		.uleb128 0x41
 9557 3366 01       		.uleb128 0x1
 9558 3367 50       		.byte	0x50
 9559 3368 03       		.uleb128 0x3
 9560 3369 91       		.byte	0x91
 9561 336a 9065     		.sleb128 -3440
 9562 336c 41       		.uleb128 0x41
 9563 336d 01       		.uleb128 0x1
 9564 336e 51       		.byte	0x51
 9565 336f 02       		.uleb128 0x2
 9566 3370 75       		.byte	0x75
 9567 3371 00       		.sleb128 0
 9568 3372 00       		.byte	0
 9569 3373 40       		.uleb128 0x40
 9570 3374 54000000 		.4byte	.LVL152
 9571 3378 2E380000 		.4byte	0x382e
 9572 337c 41       		.uleb128 0x41
 9573 337d 01       		.uleb128 0x1
 9574 337e 50       		.byte	0x50
 9575 337f 03       		.uleb128 0x3
 9576 3380 91       		.byte	0x91
 9577 3381 9868     		.sleb128 -3048
 9578 3383 41       		.uleb128 0x41
 9579 3384 01       		.uleb128 0x1
 9580 3385 51       		.byte	0x51
 9581 3386 01       		.uleb128 0x1
 9582 3387 31       		.byte	0x31
 9583 3388 00       		.byte	0
 9584 3389 00       		.byte	0
 9585 338a 00       		.byte	0
 9586 338b 43       		.uleb128 0x43
 9587 338c 8B2B0000 		.4byte	0x2b8b
 9588 3390 54000000 		.4byte	.LBB88
 9589 3394 70000000 		.4byte	.LBE88-.LBB88
 9590 3398 03       		.byte	0x3
 9591 3399 45       		.byte	0x45
 9592 339a FE330000 		.4byte	0x33fe
 9593 339e 3A       		.uleb128 0x3a
 9594 339f A62B0000 		.4byte	0x2ba6
 9595 33a3 C00A0000 		.4byte	.LLST62
 9596 33a7 3E       		.uleb128 0x3e
 9597 33a8 9B2B0000 		.4byte	0x2b9b
 9598 33ac 03       		.uleb128 0x3
 9599 33ad 91       		.byte	0x91
ARM GAS  /var/folders/3j/4xdnk5197cv_b7cw3n33qk7r0000gn/T//ccxkT2Pi.s 			page 170


 9600 33ae E06B     		.sleb128 -2592
 9601 33b0 50       		.uleb128 0x50
 9602 33b1 54000000 		.4byte	.LBB89
 9603 33b5 70000000 		.4byte	.LBE89-.LBB89
 9604 33b9 3D       		.uleb128 0x3d
 9605 33ba B12B0000 		.4byte	0x2bb1
 9606 33be D40A0000 		.4byte	.LLST63
 9607 33c2 3D       		.uleb128 0x3d
 9608 33c3 BB2B0000 		.4byte	0x2bbb
 9609 33c7 F40A0000 		.4byte	.LLST64
 9610 33cb 45       		.uleb128 0x45
 9611 33cc 84000000 		.4byte	.LVL155
 9612 33d0 2E380000 		.4byte	0x382e
 9613 33d4 E6330000 		.4byte	0x33e6
 9614 33d8 41       		.uleb128 0x41
 9615 33d9 01       		.uleb128 0x1
 9616 33da 50       		.byte	0x50
 9617 33db 03       		.uleb128 0x3
 9618 33dc 91       		.byte	0x91
 9619 33dd E06B     		.sleb128 -2592
 9620 33df 41       		.uleb128 0x41
 9621 33e0 01       		.uleb128 0x1
 9622 33e1 51       		.byte	0x51
 9623 33e2 02       		.uleb128 0x2
 9624 33e3 7A       		.byte	0x7a
 9625 33e4 00       		.sleb128 0
 9626 33e5 00       		.byte	0
 9627 33e6 40       		.uleb128 0x40
 9628 33e7 A0000000 		.4byte	.LVL159
 9629 33eb 2E380000 		.4byte	0x382e
 9630 33ef 41       		.uleb128 0x41
 9631 33f0 01       		.uleb128 0x1
 9632 33f1 50       		.byte	0x50
 9633 33f2 03       		.uleb128 0x3
 9634 33f3 91       		.byte	0x91
 9635 33f4 E86E     		.sleb128 -2200
 9636 33f6 41       		.uleb128 0x41
 9637 33f7 01       		.uleb128 0x1
 9638 33f8 51       		.byte	0x51
 9639 33f9 01       		.uleb128 0x1
 9640 33fa 33       		.byte	0x33
 9641 33fb 00       		.byte	0
 9642 33fc 00       		.byte	0
 9643 33fd 00       		.byte	0
 9644 33fe 43       		.uleb128 0x43
 9645 33ff 8B2B0000 		.4byte	0x2b8b
 9646 3403 C4000000 		.4byte	.LBB90
 9647 3407 4C000000 		.4byte	.LBE90-.LBB90
 9648 340b 03       		.byte	0x3
 9649 340c 45       		.byte	0x45
 9650 340d 71340000 		.4byte	0x3471
 9651 3411 3A       		.uleb128 0x3a
 9652 3412 A62B0000 		.4byte	0x2ba6
 9653 3416 130B0000 		.4byte	.LLST65
 9654 341a 3E       		.uleb128 0x3e
 9655 341b 9B2B0000 		.4byte	0x2b9b
 9656 341f 03       		.uleb128 0x3
ARM GAS  /var/folders/3j/4xdnk5197cv_b7cw3n33qk7r0000gn/T//ccxkT2Pi.s 			page 171


 9657 3420 91       		.byte	0x91
 9658 3421 B072     		.sleb128 -1744
 9659 3423 50       		.uleb128 0x50
 9660 3424 C4000000 		.4byte	.LBB91
 9661 3428 4C000000 		.4byte	.LBE91-.LBB91
 9662 342c 3D       		.uleb128 0x3d
 9663 342d B12B0000 		.4byte	0x2bb1
 9664 3431 270B0000 		.4byte	.LLST66
 9665 3435 3D       		.uleb128 0x3d
 9666 3436 BB2B0000 		.4byte	0x2bbb
 9667 343a 470B0000 		.4byte	.LLST67
 9668 343e 45       		.uleb128 0x45
 9669 343f D0000000 		.4byte	.LVL161
 9670 3443 2E380000 		.4byte	0x382e
 9671 3447 59340000 		.4byte	0x3459
 9672 344b 41       		.uleb128 0x41
 9673 344c 01       		.uleb128 0x1
 9674 344d 50       		.byte	0x50
 9675 344e 03       		.uleb128 0x3
 9676 344f 91       		.byte	0x91
 9677 3450 B072     		.sleb128 -1744
 9678 3452 41       		.uleb128 0x41
 9679 3453 01       		.uleb128 0x1
 9680 3454 51       		.byte	0x51
 9681 3455 02       		.uleb128 0x2
 9682 3456 75       		.byte	0x75
 9683 3457 00       		.sleb128 0
 9684 3458 00       		.byte	0
 9685 3459 40       		.uleb128 0x40
 9686 345a EC000000 		.4byte	.LVL164
 9687 345e 2E380000 		.4byte	0x382e
 9688 3462 41       		.uleb128 0x41
 9689 3463 01       		.uleb128 0x1
 9690 3464 50       		.byte	0x50
 9691 3465 03       		.uleb128 0x3
 9692 3466 91       		.byte	0x91
 9693 3467 B875     		.sleb128 -1352
 9694 3469 41       		.uleb128 0x41
 9695 346a 01       		.uleb128 0x1
 9696 346b 51       		.byte	0x51
 9697 346c 01       		.uleb128 0x1
 9698 346d 31       		.byte	0x31
 9699 346e 00       		.byte	0
 9700 346f 00       		.byte	0
 9701 3470 00       		.byte	0
 9702 3471 43       		.uleb128 0x43
 9703 3472 8B2B0000 		.4byte	0x2b8b
 9704 3476 10010000 		.4byte	.LBB92
 9705 347a 28000000 		.4byte	.LBE92-.LBB92
 9706 347e 03       		.byte	0x3
 9707 347f 45       		.byte	0x45
 9708 3480 E4340000 		.4byte	0x34e4
 9709 3484 3A       		.uleb128 0x3a
 9710 3485 A62B0000 		.4byte	0x2ba6
 9711 3489 660B0000 		.4byte	.LLST68
 9712 348d 3E       		.uleb128 0x3e
 9713 348e 9B2B0000 		.4byte	0x2b9b
ARM GAS  /var/folders/3j/4xdnk5197cv_b7cw3n33qk7r0000gn/T//ccxkT2Pi.s 			page 172


 9714 3492 03       		.uleb128 0x3
 9715 3493 91       		.byte	0x91
 9716 3494 8079     		.sleb128 -896
 9717 3496 50       		.uleb128 0x50
 9718 3497 10010000 		.4byte	.LBB93
 9719 349b 28000000 		.4byte	.LBE93-.LBB93
 9720 349f 3D       		.uleb128 0x3d
 9721 34a0 B12B0000 		.4byte	0x2bb1
 9722 34a4 7A0B0000 		.4byte	.LLST69
 9723 34a8 3D       		.uleb128 0x3d
 9724 34a9 BB2B0000 		.4byte	0x2bbb
 9725 34ad 9A0B0000 		.4byte	.LLST70
 9726 34b1 45       		.uleb128 0x45
 9727 34b2 1C010000 		.4byte	.LVL166
 9728 34b6 2E380000 		.4byte	0x382e
 9729 34ba CC340000 		.4byte	0x34cc
 9730 34be 41       		.uleb128 0x41
 9731 34bf 01       		.uleb128 0x1
 9732 34c0 50       		.byte	0x50
 9733 34c1 03       		.uleb128 0x3
 9734 34c2 91       		.byte	0x91
 9735 34c3 8079     		.sleb128 -896
 9736 34c5 41       		.uleb128 0x41
 9737 34c6 01       		.uleb128 0x1
 9738 34c7 51       		.byte	0x51
 9739 34c8 02       		.uleb128 0x2
 9740 34c9 7A       		.byte	0x7a
 9741 34ca 00       		.sleb128 0
 9742 34cb 00       		.byte	0
 9743 34cc 40       		.uleb128 0x40
 9744 34cd 38010000 		.4byte	.LVL169
 9745 34d1 2E380000 		.4byte	0x382e
 9746 34d5 41       		.uleb128 0x41
 9747 34d6 01       		.uleb128 0x1
 9748 34d7 50       		.byte	0x50
 9749 34d8 03       		.uleb128 0x3
 9750 34d9 91       		.byte	0x91
 9751 34da 887C     		.sleb128 -504
 9752 34dc 41       		.uleb128 0x41
 9753 34dd 01       		.uleb128 0x1
 9754 34de 51       		.byte	0x51
 9755 34df 01       		.uleb128 0x1
 9756 34e0 33       		.byte	0x33
 9757 34e1 00       		.byte	0
 9758 34e2 00       		.byte	0
 9759 34e3 00       		.byte	0
 9760 34e4 45       		.uleb128 0x45
 9761 34e5 30000000 		.4byte	.LVL148
 9762 34e9 0C370000 		.4byte	0x370c
 9763 34ed 06350000 		.4byte	0x3506
 9764 34f1 41       		.uleb128 0x41
 9765 34f2 01       		.uleb128 0x1
 9766 34f3 50       		.byte	0x50
 9767 34f4 03       		.uleb128 0x3
 9768 34f5 91       		.byte	0x91
 9769 34f6 E864     		.sleb128 -3480
 9770 34f8 41       		.uleb128 0x41
ARM GAS  /var/folders/3j/4xdnk5197cv_b7cw3n33qk7r0000gn/T//ccxkT2Pi.s 			page 173


 9771 34f9 01       		.uleb128 0x1
 9772 34fa 51       		.byte	0x51
 9773 34fb 02       		.uleb128 0x2
 9774 34fc 78       		.byte	0x78
 9775 34fd 00       		.sleb128 0
 9776 34fe 41       		.uleb128 0x41
 9777 34ff 01       		.uleb128 0x1
 9778 3500 52       		.byte	0x52
 9779 3501 03       		.uleb128 0x3
 9780 3502 0A       		.byte	0xa
 9781 3503 5003     		.2byte	0x350
 9782 3505 00       		.byte	0
 9783 3506 45       		.uleb128 0x45
 9784 3507 78000000 		.4byte	.LVL154
 9785 350b 0C370000 		.4byte	0x370c
 9786 350f 28350000 		.4byte	0x3528
 9787 3513 41       		.uleb128 0x41
 9788 3514 01       		.uleb128 0x1
 9789 3515 50       		.byte	0x50
 9790 3516 03       		.uleb128 0x3
 9791 3517 91       		.byte	0x91
 9792 3518 B86B     		.sleb128 -2632
 9793 351a 41       		.uleb128 0x41
 9794 351b 01       		.uleb128 0x1
 9795 351c 51       		.byte	0x51
 9796 351d 02       		.uleb128 0x2
 9797 351e 77       		.byte	0x77
 9798 351f 00       		.sleb128 0
 9799 3520 41       		.uleb128 0x41
 9800 3521 01       		.uleb128 0x1
 9801 3522 52       		.byte	0x52
 9802 3523 03       		.uleb128 0x3
 9803 3524 0A       		.byte	0xa
 9804 3525 5003     		.2byte	0x350
 9805 3527 00       		.byte	0
 9806 3528 45       		.uleb128 0x45
 9807 3529 C4000000 		.4byte	.LVL160
 9808 352d 0C370000 		.4byte	0x370c
 9809 3531 4A350000 		.4byte	0x354a
 9810 3535 41       		.uleb128 0x41
 9811 3536 01       		.uleb128 0x1
 9812 3537 50       		.byte	0x50
 9813 3538 03       		.uleb128 0x3
 9814 3539 91       		.byte	0x91
 9815 353a 8872     		.sleb128 -1784
 9816 353c 41       		.uleb128 0x41
 9817 353d 01       		.uleb128 0x1
 9818 353e 51       		.byte	0x51
 9819 353f 02       		.uleb128 0x2
 9820 3540 76       		.byte	0x76
 9821 3541 00       		.sleb128 0
 9822 3542 41       		.uleb128 0x41
 9823 3543 01       		.uleb128 0x1
 9824 3544 52       		.byte	0x52
 9825 3545 03       		.uleb128 0x3
 9826 3546 0A       		.byte	0xa
 9827 3547 5003     		.2byte	0x350
ARM GAS  /var/folders/3j/4xdnk5197cv_b7cw3n33qk7r0000gn/T//ccxkT2Pi.s 			page 174


 9828 3549 00       		.byte	0
 9829 354a 45       		.uleb128 0x45
 9830 354b 10010000 		.4byte	.LVL165
 9831 354f 0C370000 		.4byte	0x370c
 9832 3553 6C350000 		.4byte	0x356c
 9833 3557 41       		.uleb128 0x41
 9834 3558 01       		.uleb128 0x1
 9835 3559 50       		.byte	0x50
 9836 355a 03       		.uleb128 0x3
 9837 355b 91       		.byte	0x91
 9838 355c D878     		.sleb128 -936
 9839 355e 41       		.uleb128 0x41
 9840 355f 01       		.uleb128 0x1
 9841 3560 51       		.byte	0x51
 9842 3561 02       		.uleb128 0x2
 9843 3562 75       		.byte	0x75
 9844 3563 00       		.sleb128 0
 9845 3564 41       		.uleb128 0x41
 9846 3565 01       		.uleb128 0x1
 9847 3566 52       		.byte	0x52
 9848 3567 03       		.uleb128 0x3
 9849 3568 0A       		.byte	0xa
 9850 3569 5003     		.2byte	0x350
 9851 356b 00       		.byte	0
 9852 356c 45       		.uleb128 0x45
 9853 356d 90010000 		.4byte	.LVL172
 9854 3571 0C370000 		.4byte	0x370c
 9855 3575 8E350000 		.4byte	0x358e
 9856 3579 41       		.uleb128 0x41
 9857 357a 01       		.uleb128 0x1
 9858 357b 50       		.byte	0x50
 9859 357c 02       		.uleb128 0x2
 9860 357d 79       		.byte	0x79
 9861 357e 00       		.sleb128 0
 9862 357f 41       		.uleb128 0x41
 9863 3580 01       		.uleb128 0x1
 9864 3581 51       		.byte	0x51
 9865 3582 03       		.uleb128 0x3
 9866 3583 91       		.byte	0x91
 9867 3584 D002     		.sleb128 336
 9868 3586 41       		.uleb128 0x41
 9869 3587 01       		.uleb128 0x1
 9870 3588 52       		.byte	0x52
 9871 3589 03       		.uleb128 0x3
 9872 358a 0A       		.byte	0xa
 9873 358b 8801     		.2byte	0x188
 9874 358d 00       		.byte	0
 9875 358e 45       		.uleb128 0x45
 9876 358f A4010000 		.4byte	.LVL173
 9877 3593 0C370000 		.4byte	0x370c
 9878 3597 AF350000 		.4byte	0x35af
 9879 359b 41       		.uleb128 0x41
 9880 359c 01       		.uleb128 0x1
 9881 359d 50       		.byte	0x50
 9882 359e 02       		.uleb128 0x2
 9883 359f 7D       		.byte	0x7d
 9884 35a0 00       		.sleb128 0
ARM GAS  /var/folders/3j/4xdnk5197cv_b7cw3n33qk7r0000gn/T//ccxkT2Pi.s 			page 175


 9885 35a1 41       		.uleb128 0x41
 9886 35a2 01       		.uleb128 0x1
 9887 35a3 51       		.byte	0x51
 9888 35a4 02       		.uleb128 0x2
 9889 35a5 78       		.byte	0x78
 9890 35a6 10       		.sleb128 16
 9891 35a7 41       		.uleb128 0x41
 9892 35a8 01       		.uleb128 0x1
 9893 35a9 52       		.byte	0x52
 9894 35aa 03       		.uleb128 0x3
 9895 35ab 0A       		.byte	0xa
 9896 35ac 7801     		.2byte	0x178
 9897 35ae 00       		.byte	0
 9898 35af 3F       		.uleb128 0x3f
 9899 35b0 AC010000 		.4byte	.LVL174
 9900 35b4 86320000 		.4byte	0x3286
 9901 35b8 45       		.uleb128 0x45
 9902 35b9 F0010000 		.4byte	.LVL175
 9903 35bd 0C370000 		.4byte	0x370c
 9904 35c1 DA350000 		.4byte	0x35da
 9905 35c5 41       		.uleb128 0x41
 9906 35c6 01       		.uleb128 0x1
 9907 35c7 50       		.byte	0x50
 9908 35c8 02       		.uleb128 0x2
 9909 35c9 79       		.byte	0x79
 9910 35ca 00       		.sleb128 0
 9911 35cb 41       		.uleb128 0x41
 9912 35cc 01       		.uleb128 0x1
 9913 35cd 51       		.byte	0x51
 9914 35ce 03       		.uleb128 0x3
 9915 35cf 91       		.byte	0x91
 9916 35d0 A009     		.sleb128 1184
 9917 35d2 41       		.uleb128 0x41
 9918 35d3 01       		.uleb128 0x1
 9919 35d4 52       		.byte	0x52
 9920 35d5 03       		.uleb128 0x3
 9921 35d6 0A       		.byte	0xa
 9922 35d7 8801     		.2byte	0x188
 9923 35d9 00       		.byte	0
 9924 35da 45       		.uleb128 0x45
 9925 35db 04020000 		.4byte	.LVL176
 9926 35df 0C370000 		.4byte	0x370c
 9927 35e3 FB350000 		.4byte	0x35fb
 9928 35e7 41       		.uleb128 0x41
 9929 35e8 01       		.uleb128 0x1
 9930 35e9 50       		.byte	0x50
 9931 35ea 02       		.uleb128 0x2
 9932 35eb 7D       		.byte	0x7d
 9933 35ec 00       		.sleb128 0
 9934 35ed 41       		.uleb128 0x41
 9935 35ee 01       		.uleb128 0x1
 9936 35ef 51       		.byte	0x51
 9937 35f0 02       		.uleb128 0x2
 9938 35f1 77       		.byte	0x77
 9939 35f2 10       		.sleb128 16
 9940 35f3 41       		.uleb128 0x41
 9941 35f4 01       		.uleb128 0x1
ARM GAS  /var/folders/3j/4xdnk5197cv_b7cw3n33qk7r0000gn/T//ccxkT2Pi.s 			page 176


 9942 35f5 52       		.byte	0x52
 9943 35f6 03       		.uleb128 0x3
 9944 35f7 0A       		.byte	0xa
 9945 35f8 7801     		.2byte	0x178
 9946 35fa 00       		.byte	0
 9947 35fb 3F       		.uleb128 0x3f
 9948 35fc 0C020000 		.4byte	.LVL177
 9949 3600 86320000 		.4byte	0x3286
 9950 3604 45       		.uleb128 0x45
 9951 3605 4C020000 		.4byte	.LVL178
 9952 3609 0C370000 		.4byte	0x370c
 9953 360d 26360000 		.4byte	0x3626
 9954 3611 41       		.uleb128 0x41
 9955 3612 01       		.uleb128 0x1
 9956 3613 50       		.byte	0x50
 9957 3614 02       		.uleb128 0x2
 9958 3615 79       		.byte	0x79
 9959 3616 00       		.sleb128 0
 9960 3617 41       		.uleb128 0x41
 9961 3618 01       		.uleb128 0x1
 9962 3619 51       		.byte	0x51
 9963 361a 03       		.uleb128 0x3
 9964 361b 91       		.byte	0x91
 9965 361c F00F     		.sleb128 2032
 9966 361e 41       		.uleb128 0x41
 9967 361f 01       		.uleb128 0x1
 9968 3620 52       		.byte	0x52
 9969 3621 03       		.uleb128 0x3
 9970 3622 0A       		.byte	0xa
 9971 3623 8801     		.2byte	0x188
 9972 3625 00       		.byte	0
 9973 3626 45       		.uleb128 0x45
 9974 3627 60020000 		.4byte	.LVL179
 9975 362b 0C370000 		.4byte	0x370c
 9976 362f 48360000 		.4byte	0x3648
 9977 3633 41       		.uleb128 0x41
 9978 3634 01       		.uleb128 0x1
 9979 3635 50       		.byte	0x50
 9980 3636 02       		.uleb128 0x2
 9981 3637 7D       		.byte	0x7d
 9982 3638 00       		.sleb128 0
 9983 3639 41       		.uleb128 0x41
 9984 363a 01       		.uleb128 0x1
 9985 363b 51       		.byte	0x51
 9986 363c 03       		.uleb128 0x3
 9987 363d 91       		.byte	0x91
 9988 363e F80C     		.sleb128 1656
 9989 3640 41       		.uleb128 0x41
 9990 3641 01       		.uleb128 0x1
 9991 3642 52       		.byte	0x52
 9992 3643 03       		.uleb128 0x3
 9993 3644 0A       		.byte	0xa
 9994 3645 7801     		.2byte	0x178
 9995 3647 00       		.byte	0
 9996 3648 3F       		.uleb128 0x3f
 9997 3649 68020000 		.4byte	.LVL180
 9998 364d 86320000 		.4byte	0x3286
ARM GAS  /var/folders/3j/4xdnk5197cv_b7cw3n33qk7r0000gn/T//ccxkT2Pi.s 			page 177


 9999 3651 45       		.uleb128 0x45
 10000 3652 B0020000 		.4byte	.LVL181
 10001 3656 0C370000 		.4byte	0x370c
 10002 365a 73360000 		.4byte	0x3673
 10003 365e 41       		.uleb128 0x41
 10004 365f 01       		.uleb128 0x1
 10005 3660 50       		.byte	0x50
 10006 3661 02       		.uleb128 0x2
 10007 3662 79       		.byte	0x79
 10008 3663 00       		.sleb128 0
 10009 3664 41       		.uleb128 0x41
 10010 3665 01       		.uleb128 0x1
 10011 3666 51       		.byte	0x51
 10012 3667 03       		.uleb128 0x3
 10013 3668 91       		.byte	0x91
 10014 3669 C016     		.sleb128 2880
 10015 366b 41       		.uleb128 0x41
 10016 366c 01       		.uleb128 0x1
 10017 366d 52       		.byte	0x52
 10018 366e 03       		.uleb128 0x3
 10019 366f 0A       		.byte	0xa
 10020 3670 8801     		.2byte	0x188
 10021 3672 00       		.byte	0
 10022 3673 45       		.uleb128 0x45
 10023 3674 C4020000 		.4byte	.LVL182
 10024 3678 0C370000 		.4byte	0x370c
 10025 367c 94360000 		.4byte	0x3694
 10026 3680 41       		.uleb128 0x41
 10027 3681 01       		.uleb128 0x1
 10028 3682 50       		.byte	0x50
 10029 3683 02       		.uleb128 0x2
 10030 3684 7D       		.byte	0x7d
 10031 3685 00       		.sleb128 0
 10032 3686 41       		.uleb128 0x41
 10033 3687 01       		.uleb128 0x1
 10034 3688 51       		.byte	0x51
 10035 3689 02       		.uleb128 0x2
 10036 368a 75       		.byte	0x75
 10037 368b 10       		.sleb128 16
 10038 368c 41       		.uleb128 0x41
 10039 368d 01       		.uleb128 0x1
 10040 368e 52       		.byte	0x52
 10041 368f 03       		.uleb128 0x3
 10042 3690 0A       		.byte	0xa
 10043 3691 7801     		.2byte	0x178
 10044 3693 00       		.byte	0
 10045 3694 3F       		.uleb128 0x3f
 10046 3695 CC020000 		.4byte	.LVL183
 10047 3699 86320000 		.4byte	0x3286
 10048 369d 00       		.byte	0
 10049 369e 59       		.uleb128 0x59
 10050 369f 71280000 		.4byte	0x2871
 10051 36a3 00000000 		.4byte	.LFB29
 10052 36a7 4C000000 		.4byte	.LFE29-.LFB29
 10053 36ab 01       		.uleb128 0x1
 10054 36ac 9C       		.byte	0x9c
 10055 36ad CE360000 		.4byte	0x36ce
ARM GAS  /var/folders/3j/4xdnk5197cv_b7cw3n33qk7r0000gn/T//ccxkT2Pi.s 			page 178


 10056 36b1 3A       		.uleb128 0x3a
 10057 36b2 81280000 		.4byte	0x2881
 10058 36b6 B90B0000 		.4byte	.LLST71
 10059 36ba 5A       		.uleb128 0x5a
 10060 36bb 71280000 		.4byte	0x2871
 10061 36bf C8000000 		.4byte	.Ldebug_ranges0+0xc8
 10062 36c3 3A       		.uleb128 0x3a
 10063 36c4 81280000 		.4byte	0x2881
 10064 36c8 250C0000 		.4byte	.LLST72
 10065 36cc 00       		.byte	0
 10066 36cd 00       		.byte	0
 10067 36ce 5B       		.uleb128 0x5b
 10068 36cf C01E0000 		.4byte	0x1ec0
 10069 36d3 00000000 		.4byte	.LFB38
 10070 36d7 20000000 		.4byte	.LFE38-.LFB38
 10071 36db 01       		.uleb128 0x1
 10072 36dc 9C       		.byte	0x9c
 10073 36dd F4360000 		.4byte	0x36f4
 10074 36e1 3A       		.uleb128 0x3a
 10075 36e2 D01E0000 		.4byte	0x1ed0
 10076 36e6 780C0000 		.4byte	.LLST82
 10077 36ea 3A       		.uleb128 0x3a
 10078 36eb D91E0000 		.4byte	0x1ed9
 10079 36ef 960C0000 		.4byte	.LLST83
 10080 36f3 00       		.byte	0
 10081 36f4 5C       		.uleb128 0x5c
 10082 36f5 E80C0000 		.4byte	.LASF510
 10083 36f9 E80C0000 		.4byte	.LASF510
 10084 36fd 25       		.byte	0x25
 10085 36fe AA05     		.2byte	0x5aa
 10086 3700 5C       		.uleb128 0x5c
 10087 3701 120A0000 		.4byte	.LASF511
 10088 3705 120A0000 		.4byte	.LASF511
 10089 3709 0A       		.byte	0xa
 10090 370a 6901     		.2byte	0x169
 10091 370c 5D       		.uleb128 0x5d
 10092 370d 15180000 		.4byte	.LASF542
 10093 3711 DA030000 		.4byte	.LASF543
 10094 3715 2A       		.byte	0x2a
 10095 3716 00       		.byte	0
 10096 3717 15180000 		.4byte	.LASF542
 10097 371b 5E       		.uleb128 0x5e
 10098 371c B60C0000 		.4byte	.LASF512
 10099 3720 B60C0000 		.4byte	.LASF512
 10100 3724 26       		.byte	0x26
 10101 3725 C9       		.byte	0xc9
 10102 3726 5E       		.uleb128 0x5e
 10103 3727 B1180000 		.4byte	.LASF513
 10104 372b B1180000 		.4byte	.LASF513
 10105 372f 27       		.byte	0x27
 10106 3730 EF       		.byte	0xef
 10107 3731 5C       		.uleb128 0x5c
 10108 3732 8D0C0000 		.4byte	.LASF514
 10109 3736 8D0C0000 		.4byte	.LASF514
 10110 373a 18       		.byte	0x18
 10111 373b 3201     		.2byte	0x132
 10112 373d 5E       		.uleb128 0x5e
ARM GAS  /var/folders/3j/4xdnk5197cv_b7cw3n33qk7r0000gn/T//ccxkT2Pi.s 			page 179


 10113 373e 090A0000 		.4byte	.LASF515
 10114 3742 090A0000 		.4byte	.LASF515
 10115 3746 28       		.byte	0x28
 10116 3747 2A       		.byte	0x2a
 10117 3748 5E       		.uleb128 0x5e
 10118 3749 5F0C0000 		.4byte	.LASF516
 10119 374d 5F0C0000 		.4byte	.LASF516
 10120 3751 1D       		.byte	0x1d
 10121 3752 4C       		.byte	0x4c
 10122 3753 5E       		.uleb128 0x5e
 10123 3754 BA080000 		.4byte	.LASF517
 10124 3758 BA080000 		.4byte	.LASF517
 10125 375c 1D       		.byte	0x1d
 10126 375d 4D       		.byte	0x4d
 10127 375e 5C       		.uleb128 0x5c
 10128 375f 080E0000 		.4byte	.LASF518
 10129 3763 080E0000 		.4byte	.LASF518
 10130 3767 0A       		.byte	0xa
 10131 3768 6401     		.2byte	0x164
 10132 376a 5C       		.uleb128 0x5c
 10133 376b CE110000 		.4byte	.LASF519
 10134 376f CE110000 		.4byte	.LASF519
 10135 3773 0A       		.byte	0xa
 10136 3774 6F01     		.2byte	0x16f
 10137 3776 5E       		.uleb128 0x5e
 10138 3777 07000000 		.4byte	.LASF520
 10139 377b 07000000 		.4byte	.LASF520
 10140 377f 29       		.byte	0x29
 10141 3780 55       		.byte	0x55
 10142 3781 5E       		.uleb128 0x5e
 10143 3782 1F020000 		.4byte	.LASF521
 10144 3786 1F020000 		.4byte	.LASF521
 10145 378a 15       		.byte	0x15
 10146 378b BA       		.byte	0xba
 10147 378c 5E       		.uleb128 0x5e
 10148 378d 1F100000 		.4byte	.LASF522
 10149 3791 1F100000 		.4byte	.LASF522
 10150 3795 26       		.byte	0x26
 10151 3796 CC       		.byte	0xcc
 10152 3797 5E       		.uleb128 0x5e
 10153 3798 BE030000 		.4byte	.LASF523
 10154 379c BE030000 		.4byte	.LASF523
 10155 37a0 15       		.byte	0x15
 10156 37a1 B6       		.byte	0xb6
 10157 37a2 5C       		.uleb128 0x5c
 10158 37a3 7A100000 		.4byte	.LASF524
 10159 37a7 7A100000 		.4byte	.LASF524
 10160 37ab 25       		.byte	0x25
 10161 37ac 9401     		.2byte	0x194
 10162 37ae 5C       		.uleb128 0x5c
 10163 37af F4020000 		.4byte	.LASF525
 10164 37b3 F4020000 		.4byte	.LASF525
 10165 37b7 25       		.byte	0x25
 10166 37b8 CA01     		.2byte	0x1ca
 10167 37ba 5C       		.uleb128 0x5c
 10168 37bb 16080000 		.4byte	.LASF526
 10169 37bf 16080000 		.4byte	.LASF526
ARM GAS  /var/folders/3j/4xdnk5197cv_b7cw3n33qk7r0000gn/T//ccxkT2Pi.s 			page 180


 10170 37c3 25       		.byte	0x25
 10171 37c4 1005     		.2byte	0x510
 10172 37c6 5C       		.uleb128 0x5c
 10173 37c7 B3170000 		.4byte	.LASF527
 10174 37cb B3170000 		.4byte	.LASF527
 10175 37cf 25       		.byte	0x25
 10176 37d0 6507     		.2byte	0x765
 10177 37d2 5C       		.uleb128 0x5c
 10178 37d3 5D0B0000 		.4byte	.LASF528
 10179 37d7 5D0B0000 		.4byte	.LASF528
 10180 37db 25       		.byte	0x25
 10181 37dc 2402     		.2byte	0x224
 10182 37de 5C       		.uleb128 0x5c
 10183 37df 53150000 		.4byte	.LASF529
 10184 37e3 53150000 		.4byte	.LASF529
 10185 37e7 25       		.byte	0x25
 10186 37e8 4004     		.2byte	0x440
 10187 37ea 5C       		.uleb128 0x5c
 10188 37eb BA090000 		.4byte	.LASF530
 10189 37ef BA090000 		.4byte	.LASF530
 10190 37f3 25       		.byte	0x25
 10191 37f4 7004     		.2byte	0x470
 10192 37f6 5C       		.uleb128 0x5c
 10193 37f7 730B0000 		.4byte	.LASF531
 10194 37fb 730B0000 		.4byte	.LASF531
 10195 37ff 25       		.byte	0x25
 10196 3800 A602     		.2byte	0x2a6
 10197 3802 5E       		.uleb128 0x5e
 10198 3803 BE070000 		.4byte	.LASF532
 10199 3807 BE070000 		.4byte	.LASF532
 10200 380b 16       		.byte	0x16
 10201 380c 88       		.byte	0x88
 10202 380d 5E       		.uleb128 0x5e
 10203 380e 35160000 		.4byte	.LASF533
 10204 3812 35160000 		.4byte	.LASF533
 10205 3816 16       		.byte	0x16
 10206 3817 83       		.byte	0x83
 10207 3818 5E       		.uleb128 0x5e
 10208 3819 A9110000 		.4byte	.LASF534
 10209 381d A9110000 		.4byte	.LASF534
 10210 3821 16       		.byte	0x16
 10211 3822 89       		.byte	0x89
 10212 3823 5E       		.uleb128 0x5e
 10213 3824 3B080000 		.4byte	.LASF535
 10214 3828 3B080000 		.4byte	.LASF535
 10215 382c 16       		.byte	0x16
 10216 382d 7E       		.byte	0x7e
 10217 382e 5C       		.uleb128 0x5c
 10218 382f D7160000 		.4byte	.LASF536
 10219 3833 D7160000 		.4byte	.LASF536
 10220 3837 25       		.byte	0x25
 10221 3838 7901     		.2byte	0x179
 10222 383a 00       		.byte	0
 10223              		.section	.debug_abbrev,"",%progbits
 10224              	.Ldebug_abbrev0:
 10225 0000 01       		.uleb128 0x1
 10226 0001 11       		.uleb128 0x11
ARM GAS  /var/folders/3j/4xdnk5197cv_b7cw3n33qk7r0000gn/T//ccxkT2Pi.s 			page 181


 10227 0002 01       		.byte	0x1
 10228 0003 25       		.uleb128 0x25
 10229 0004 0E       		.uleb128 0xe
 10230 0005 13       		.uleb128 0x13
 10231 0006 0B       		.uleb128 0xb
 10232 0007 03       		.uleb128 0x3
 10233 0008 0E       		.uleb128 0xe
 10234 0009 1B       		.uleb128 0x1b
 10235 000a 0E       		.uleb128 0xe
 10236 000b 55       		.uleb128 0x55
 10237 000c 17       		.uleb128 0x17
 10238 000d 11       		.uleb128 0x11
 10239 000e 01       		.uleb128 0x1
 10240 000f 10       		.uleb128 0x10
 10241 0010 17       		.uleb128 0x17
 10242 0011 00       		.byte	0
 10243 0012 00       		.byte	0
 10244 0013 02       		.uleb128 0x2
 10245 0014 24       		.uleb128 0x24
 10246 0015 00       		.byte	0
 10247 0016 0B       		.uleb128 0xb
 10248 0017 0B       		.uleb128 0xb
 10249 0018 3E       		.uleb128 0x3e
 10250 0019 0B       		.uleb128 0xb
 10251 001a 03       		.uleb128 0x3
 10252 001b 0E       		.uleb128 0xe
 10253 001c 00       		.byte	0
 10254 001d 00       		.byte	0
 10255 001e 03       		.uleb128 0x3
 10256 001f 24       		.uleb128 0x24
 10257 0020 00       		.byte	0
 10258 0021 0B       		.uleb128 0xb
 10259 0022 0B       		.uleb128 0xb
 10260 0023 3E       		.uleb128 0x3e
 10261 0024 0B       		.uleb128 0xb
 10262 0025 03       		.uleb128 0x3
 10263 0026 08       		.uleb128 0x8
 10264 0027 00       		.byte	0
 10265 0028 00       		.byte	0
 10266 0029 04       		.uleb128 0x4
 10267 002a 16       		.uleb128 0x16
 10268 002b 00       		.byte	0
 10269 002c 03       		.uleb128 0x3
 10270 002d 0E       		.uleb128 0xe
 10271 002e 3A       		.uleb128 0x3a
 10272 002f 0B       		.uleb128 0xb
 10273 0030 3B       		.uleb128 0x3b
 10274 0031 0B       		.uleb128 0xb
 10275 0032 49       		.uleb128 0x49
 10276 0033 13       		.uleb128 0x13
 10277 0034 00       		.byte	0
 10278 0035 00       		.byte	0
 10279 0036 05       		.uleb128 0x5
 10280 0037 35       		.uleb128 0x35
 10281 0038 00       		.byte	0
 10282 0039 49       		.uleb128 0x49
 10283 003a 13       		.uleb128 0x13
ARM GAS  /var/folders/3j/4xdnk5197cv_b7cw3n33qk7r0000gn/T//ccxkT2Pi.s 			page 182


 10284 003b 00       		.byte	0
 10285 003c 00       		.byte	0
 10286 003d 06       		.uleb128 0x6
 10287 003e 26       		.uleb128 0x26
 10288 003f 00       		.byte	0
 10289 0040 49       		.uleb128 0x49
 10290 0041 13       		.uleb128 0x13
 10291 0042 00       		.byte	0
 10292 0043 00       		.byte	0
 10293 0044 07       		.uleb128 0x7
 10294 0045 13       		.uleb128 0x13
 10295 0046 01       		.byte	0x1
 10296 0047 03       		.uleb128 0x3
 10297 0048 0E       		.uleb128 0xe
 10298 0049 0B       		.uleb128 0xb
 10299 004a 0B       		.uleb128 0xb
 10300 004b 3A       		.uleb128 0x3a
 10301 004c 0B       		.uleb128 0xb
 10302 004d 3B       		.uleb128 0x3b
 10303 004e 0B       		.uleb128 0xb
 10304 004f 01       		.uleb128 0x1
 10305 0050 13       		.uleb128 0x13
 10306 0051 00       		.byte	0
 10307 0052 00       		.byte	0
 10308 0053 08       		.uleb128 0x8
 10309 0054 0D       		.uleb128 0xd
 10310 0055 00       		.byte	0
 10311 0056 03       		.uleb128 0x3
 10312 0057 0E       		.uleb128 0xe
 10313 0058 3A       		.uleb128 0x3a
 10314 0059 0B       		.uleb128 0xb
 10315 005a 3B       		.uleb128 0x3b
 10316 005b 0B       		.uleb128 0xb
 10317 005c 49       		.uleb128 0x49
 10318 005d 13       		.uleb128 0x13
 10319 005e 38       		.uleb128 0x38
 10320 005f 0B       		.uleb128 0xb
 10321 0060 00       		.byte	0
 10322 0061 00       		.byte	0
 10323 0062 09       		.uleb128 0x9
 10324 0063 0D       		.uleb128 0xd
 10325 0064 00       		.byte	0
 10326 0065 03       		.uleb128 0x3
 10327 0066 08       		.uleb128 0x8
 10328 0067 3A       		.uleb128 0x3a
 10329 0068 0B       		.uleb128 0xb
 10330 0069 3B       		.uleb128 0x3b
 10331 006a 0B       		.uleb128 0xb
 10332 006b 49       		.uleb128 0x49
 10333 006c 13       		.uleb128 0x13
 10334 006d 38       		.uleb128 0x38
 10335 006e 0B       		.uleb128 0xb
 10336 006f 00       		.byte	0
 10337 0070 00       		.byte	0
 10338 0071 0A       		.uleb128 0xa
 10339 0072 13       		.uleb128 0x13
 10340 0073 01       		.byte	0x1
ARM GAS  /var/folders/3j/4xdnk5197cv_b7cw3n33qk7r0000gn/T//ccxkT2Pi.s 			page 183


 10341 0074 0B       		.uleb128 0xb
 10342 0075 0B       		.uleb128 0xb
 10343 0076 3A       		.uleb128 0x3a
 10344 0077 0B       		.uleb128 0xb
 10345 0078 3B       		.uleb128 0x3b
 10346 0079 0B       		.uleb128 0xb
 10347 007a 01       		.uleb128 0x1
 10348 007b 13       		.uleb128 0x13
 10349 007c 00       		.byte	0
 10350 007d 00       		.byte	0
 10351 007e 0B       		.uleb128 0xb
 10352 007f 0F       		.uleb128 0xf
 10353 0080 00       		.byte	0
 10354 0081 0B       		.uleb128 0xb
 10355 0082 0B       		.uleb128 0xb
 10356 0083 49       		.uleb128 0x49
 10357 0084 13       		.uleb128 0x13
 10358 0085 00       		.byte	0
 10359 0086 00       		.byte	0
 10360 0087 0C       		.uleb128 0xc
 10361 0088 0F       		.uleb128 0xf
 10362 0089 00       		.byte	0
 10363 008a 0B       		.uleb128 0xb
 10364 008b 0B       		.uleb128 0xb
 10365 008c 00       		.byte	0
 10366 008d 00       		.byte	0
 10367 008e 0D       		.uleb128 0xd
 10368 008f 15       		.uleb128 0x15
 10369 0090 01       		.byte	0x1
 10370 0091 27       		.uleb128 0x27
 10371 0092 19       		.uleb128 0x19
 10372 0093 01       		.uleb128 0x1
 10373 0094 13       		.uleb128 0x13
 10374 0095 00       		.byte	0
 10375 0096 00       		.byte	0
 10376 0097 0E       		.uleb128 0xe
 10377 0098 05       		.uleb128 0x5
 10378 0099 00       		.byte	0
 10379 009a 49       		.uleb128 0x49
 10380 009b 13       		.uleb128 0x13
 10381 009c 00       		.byte	0
 10382 009d 00       		.byte	0
 10383 009e 0F       		.uleb128 0xf
 10384 009f 34       		.uleb128 0x34
 10385 00a0 00       		.byte	0
 10386 00a1 03       		.uleb128 0x3
 10387 00a2 0E       		.uleb128 0xe
 10388 00a3 3A       		.uleb128 0x3a
 10389 00a4 0B       		.uleb128 0xb
 10390 00a5 3B       		.uleb128 0x3b
 10391 00a6 0B       		.uleb128 0xb
 10392 00a7 49       		.uleb128 0x49
 10393 00a8 13       		.uleb128 0x13
 10394 00a9 3F       		.uleb128 0x3f
 10395 00aa 19       		.uleb128 0x19
 10396 00ab 3C       		.uleb128 0x3c
 10397 00ac 19       		.uleb128 0x19
ARM GAS  /var/folders/3j/4xdnk5197cv_b7cw3n33qk7r0000gn/T//ccxkT2Pi.s 			page 184


 10398 00ad 00       		.byte	0
 10399 00ae 00       		.byte	0
 10400 00af 10       		.uleb128 0x10
 10401 00b0 17       		.uleb128 0x17
 10402 00b1 01       		.byte	0x1
 10403 00b2 0B       		.uleb128 0xb
 10404 00b3 0B       		.uleb128 0xb
 10405 00b4 3A       		.uleb128 0x3a
 10406 00b5 0B       		.uleb128 0xb
 10407 00b6 3B       		.uleb128 0x3b
 10408 00b7 0B       		.uleb128 0xb
 10409 00b8 01       		.uleb128 0x1
 10410 00b9 13       		.uleb128 0x13
 10411 00ba 00       		.byte	0
 10412 00bb 00       		.byte	0
 10413 00bc 11       		.uleb128 0x11
 10414 00bd 0D       		.uleb128 0xd
 10415 00be 00       		.byte	0
 10416 00bf 03       		.uleb128 0x3
 10417 00c0 0E       		.uleb128 0xe
 10418 00c1 3A       		.uleb128 0x3a
 10419 00c2 0B       		.uleb128 0xb
 10420 00c3 3B       		.uleb128 0x3b
 10421 00c4 0B       		.uleb128 0xb
 10422 00c5 49       		.uleb128 0x49
 10423 00c6 13       		.uleb128 0x13
 10424 00c7 00       		.byte	0
 10425 00c8 00       		.byte	0
 10426 00c9 12       		.uleb128 0x12
 10427 00ca 15       		.uleb128 0x15
 10428 00cb 01       		.byte	0x1
 10429 00cc 27       		.uleb128 0x27
 10430 00cd 19       		.uleb128 0x19
 10431 00ce 49       		.uleb128 0x49
 10432 00cf 13       		.uleb128 0x13
 10433 00d0 01       		.uleb128 0x1
 10434 00d1 13       		.uleb128 0x13
 10435 00d2 00       		.byte	0
 10436 00d3 00       		.byte	0
 10437 00d4 13       		.uleb128 0x13
 10438 00d5 01       		.uleb128 0x1
 10439 00d6 01       		.byte	0x1
 10440 00d7 49       		.uleb128 0x49
 10441 00d8 13       		.uleb128 0x13
 10442 00d9 01       		.uleb128 0x1
 10443 00da 13       		.uleb128 0x13
 10444 00db 00       		.byte	0
 10445 00dc 00       		.byte	0
 10446 00dd 14       		.uleb128 0x14
 10447 00de 21       		.uleb128 0x21
 10448 00df 00       		.byte	0
 10449 00e0 49       		.uleb128 0x49
 10450 00e1 13       		.uleb128 0x13
 10451 00e2 2F       		.uleb128 0x2f
 10452 00e3 0B       		.uleb128 0xb
 10453 00e4 00       		.byte	0
 10454 00e5 00       		.byte	0
ARM GAS  /var/folders/3j/4xdnk5197cv_b7cw3n33qk7r0000gn/T//ccxkT2Pi.s 			page 185


 10455 00e6 15       		.uleb128 0x15
 10456 00e7 0D       		.uleb128 0xd
 10457 00e8 00       		.byte	0
 10458 00e9 03       		.uleb128 0x3
 10459 00ea 0E       		.uleb128 0xe
 10460 00eb 3A       		.uleb128 0x3a
 10461 00ec 0B       		.uleb128 0xb
 10462 00ed 3B       		.uleb128 0x3b
 10463 00ee 05       		.uleb128 0x5
 10464 00ef 49       		.uleb128 0x49
 10465 00f0 13       		.uleb128 0x13
 10466 00f1 38       		.uleb128 0x38
 10467 00f2 0B       		.uleb128 0xb
 10468 00f3 00       		.byte	0
 10469 00f4 00       		.byte	0
 10470 00f5 16       		.uleb128 0x16
 10471 00f6 16       		.uleb128 0x16
 10472 00f7 00       		.byte	0
 10473 00f8 03       		.uleb128 0x3
 10474 00f9 0E       		.uleb128 0xe
 10475 00fa 3A       		.uleb128 0x3a
 10476 00fb 0B       		.uleb128 0xb
 10477 00fc 3B       		.uleb128 0x3b
 10478 00fd 05       		.uleb128 0x5
 10479 00fe 49       		.uleb128 0x49
 10480 00ff 13       		.uleb128 0x13
 10481 0100 00       		.byte	0
 10482 0101 00       		.byte	0
 10483 0102 17       		.uleb128 0x17
 10484 0103 13       		.uleb128 0x13
 10485 0104 00       		.byte	0
 10486 0105 0B       		.uleb128 0xb
 10487 0106 0B       		.uleb128 0xb
 10488 0107 3A       		.uleb128 0x3a
 10489 0108 0B       		.uleb128 0xb
 10490 0109 3B       		.uleb128 0x3b
 10491 010a 0B       		.uleb128 0xb
 10492 010b 00       		.byte	0
 10493 010c 00       		.byte	0
 10494 010d 18       		.uleb128 0x18
 10495 010e 04       		.uleb128 0x4
 10496 010f 01       		.byte	0x1
 10497 0110 3E       		.uleb128 0x3e
 10498 0111 0B       		.uleb128 0xb
 10499 0112 0B       		.uleb128 0xb
 10500 0113 0B       		.uleb128 0xb
 10501 0114 49       		.uleb128 0x49
 10502 0115 13       		.uleb128 0x13
 10503 0116 3A       		.uleb128 0x3a
 10504 0117 0B       		.uleb128 0xb
 10505 0118 3B       		.uleb128 0x3b
 10506 0119 0B       		.uleb128 0xb
 10507 011a 01       		.uleb128 0x1
 10508 011b 13       		.uleb128 0x13
 10509 011c 00       		.byte	0
 10510 011d 00       		.byte	0
 10511 011e 19       		.uleb128 0x19
ARM GAS  /var/folders/3j/4xdnk5197cv_b7cw3n33qk7r0000gn/T//ccxkT2Pi.s 			page 186


 10512 011f 28       		.uleb128 0x28
 10513 0120 00       		.byte	0
 10514 0121 03       		.uleb128 0x3
 10515 0122 0E       		.uleb128 0xe
 10516 0123 1C       		.uleb128 0x1c
 10517 0124 0B       		.uleb128 0xb
 10518 0125 00       		.byte	0
 10519 0126 00       		.byte	0
 10520 0127 1A       		.uleb128 0x1a
 10521 0128 34       		.uleb128 0x34
 10522 0129 00       		.byte	0
 10523 012a 03       		.uleb128 0x3
 10524 012b 08       		.uleb128 0x8
 10525 012c 3A       		.uleb128 0x3a
 10526 012d 0B       		.uleb128 0xb
 10527 012e 3B       		.uleb128 0x3b
 10528 012f 0B       		.uleb128 0xb
 10529 0130 49       		.uleb128 0x49
 10530 0131 13       		.uleb128 0x13
 10531 0132 3F       		.uleb128 0x3f
 10532 0133 19       		.uleb128 0x19
 10533 0134 3C       		.uleb128 0x3c
 10534 0135 19       		.uleb128 0x19
 10535 0136 00       		.byte	0
 10536 0137 00       		.byte	0
 10537 0138 1B       		.uleb128 0x1b
 10538 0139 26       		.uleb128 0x26
 10539 013a 00       		.byte	0
 10540 013b 00       		.byte	0
 10541 013c 00       		.byte	0
 10542 013d 1C       		.uleb128 0x1c
 10543 013e 15       		.uleb128 0x15
 10544 013f 00       		.byte	0
 10545 0140 27       		.uleb128 0x27
 10546 0141 19       		.uleb128 0x19
 10547 0142 00       		.byte	0
 10548 0143 00       		.byte	0
 10549 0144 1D       		.uleb128 0x1d
 10550 0145 13       		.uleb128 0x13
 10551 0146 01       		.byte	0x1
 10552 0147 0B       		.uleb128 0xb
 10553 0148 05       		.uleb128 0x5
 10554 0149 3A       		.uleb128 0x3a
 10555 014a 0B       		.uleb128 0xb
 10556 014b 3B       		.uleb128 0x3b
 10557 014c 0B       		.uleb128 0xb
 10558 014d 01       		.uleb128 0x1
 10559 014e 13       		.uleb128 0x13
 10560 014f 00       		.byte	0
 10561 0150 00       		.byte	0
 10562 0151 1E       		.uleb128 0x1e
 10563 0152 0D       		.uleb128 0xd
 10564 0153 00       		.byte	0
 10565 0154 03       		.uleb128 0x3
 10566 0155 08       		.uleb128 0x8
 10567 0156 3A       		.uleb128 0x3a
 10568 0157 0B       		.uleb128 0xb
ARM GAS  /var/folders/3j/4xdnk5197cv_b7cw3n33qk7r0000gn/T//ccxkT2Pi.s 			page 187


 10569 0158 3B       		.uleb128 0x3b
 10570 0159 0B       		.uleb128 0xb
 10571 015a 49       		.uleb128 0x49
 10572 015b 13       		.uleb128 0x13
 10573 015c 38       		.uleb128 0x38
 10574 015d 05       		.uleb128 0x5
 10575 015e 00       		.byte	0
 10576 015f 00       		.byte	0
 10577 0160 1F       		.uleb128 0x1f
 10578 0161 17       		.uleb128 0x17
 10579 0162 01       		.byte	0x1
 10580 0163 03       		.uleb128 0x3
 10581 0164 0E       		.uleb128 0xe
 10582 0165 0B       		.uleb128 0xb
 10583 0166 05       		.uleb128 0x5
 10584 0167 3A       		.uleb128 0x3a
 10585 0168 0B       		.uleb128 0xb
 10586 0169 3B       		.uleb128 0x3b
 10587 016a 0B       		.uleb128 0xb
 10588 016b 01       		.uleb128 0x1
 10589 016c 13       		.uleb128 0x13
 10590 016d 00       		.byte	0
 10591 016e 00       		.byte	0
 10592 016f 20       		.uleb128 0x20
 10593 0170 0D       		.uleb128 0xd
 10594 0171 00       		.byte	0
 10595 0172 03       		.uleb128 0x3
 10596 0173 08       		.uleb128 0x8
 10597 0174 3A       		.uleb128 0x3a
 10598 0175 0B       		.uleb128 0xb
 10599 0176 3B       		.uleb128 0x3b
 10600 0177 0B       		.uleb128 0xb
 10601 0178 49       		.uleb128 0x49
 10602 0179 13       		.uleb128 0x13
 10603 017a 00       		.byte	0
 10604 017b 00       		.byte	0
 10605 017c 21       		.uleb128 0x21
 10606 017d 21       		.uleb128 0x21
 10607 017e 00       		.byte	0
 10608 017f 49       		.uleb128 0x49
 10609 0180 13       		.uleb128 0x13
 10610 0181 2F       		.uleb128 0x2f
 10611 0182 05       		.uleb128 0x5
 10612 0183 00       		.byte	0
 10613 0184 00       		.byte	0
 10614 0185 22       		.uleb128 0x22
 10615 0186 21       		.uleb128 0x21
 10616 0187 00       		.byte	0
 10617 0188 00       		.byte	0
 10618 0189 00       		.byte	0
 10619 018a 23       		.uleb128 0x23
 10620 018b 13       		.uleb128 0x13
 10621 018c 01       		.byte	0x1
 10622 018d 0B       		.uleb128 0xb
 10623 018e 0B       		.uleb128 0xb
 10624 018f 3A       		.uleb128 0x3a
 10625 0190 0B       		.uleb128 0xb
ARM GAS  /var/folders/3j/4xdnk5197cv_b7cw3n33qk7r0000gn/T//ccxkT2Pi.s 			page 188


 10626 0191 3B       		.uleb128 0x3b
 10627 0192 05       		.uleb128 0x5
 10628 0193 01       		.uleb128 0x1
 10629 0194 13       		.uleb128 0x13
 10630 0195 00       		.byte	0
 10631 0196 00       		.byte	0
 10632 0197 24       		.uleb128 0x24
 10633 0198 13       		.uleb128 0x13
 10634 0199 01       		.byte	0x1
 10635 019a 0B       		.uleb128 0xb
 10636 019b 05       		.uleb128 0x5
 10637 019c 3A       		.uleb128 0x3a
 10638 019d 0B       		.uleb128 0xb
 10639 019e 3B       		.uleb128 0x3b
 10640 019f 05       		.uleb128 0x5
 10641 01a0 01       		.uleb128 0x1
 10642 01a1 13       		.uleb128 0x13
 10643 01a2 00       		.byte	0
 10644 01a3 00       		.byte	0
 10645 01a4 25       		.uleb128 0x25
 10646 01a5 0D       		.uleb128 0xd
 10647 01a6 00       		.byte	0
 10648 01a7 03       		.uleb128 0x3
 10649 01a8 0E       		.uleb128 0xe
 10650 01a9 3A       		.uleb128 0x3a
 10651 01aa 0B       		.uleb128 0xb
 10652 01ab 3B       		.uleb128 0x3b
 10653 01ac 05       		.uleb128 0x5
 10654 01ad 49       		.uleb128 0x49
 10655 01ae 13       		.uleb128 0x13
 10656 01af 38       		.uleb128 0x38
 10657 01b0 05       		.uleb128 0x5
 10658 01b1 00       		.byte	0
 10659 01b2 00       		.byte	0
 10660 01b3 26       		.uleb128 0x26
 10661 01b4 13       		.uleb128 0x13
 10662 01b5 00       		.byte	0
 10663 01b6 03       		.uleb128 0x3
 10664 01b7 0E       		.uleb128 0xe
 10665 01b8 3C       		.uleb128 0x3c
 10666 01b9 19       		.uleb128 0x19
 10667 01ba 00       		.byte	0
 10668 01bb 00       		.byte	0
 10669 01bc 27       		.uleb128 0x27
 10670 01bd 13       		.uleb128 0x13
 10671 01be 01       		.byte	0x1
 10672 01bf 03       		.uleb128 0x3
 10673 01c0 0E       		.uleb128 0xe
 10674 01c1 0B       		.uleb128 0xb
 10675 01c2 05       		.uleb128 0x5
 10676 01c3 3A       		.uleb128 0x3a
 10677 01c4 0B       		.uleb128 0xb
 10678 01c5 3B       		.uleb128 0x3b
 10679 01c6 0B       		.uleb128 0xb
 10680 01c7 01       		.uleb128 0x1
 10681 01c8 13       		.uleb128 0x13
 10682 01c9 00       		.byte	0
ARM GAS  /var/folders/3j/4xdnk5197cv_b7cw3n33qk7r0000gn/T//ccxkT2Pi.s 			page 189


 10683 01ca 00       		.byte	0
 10684 01cb 28       		.uleb128 0x28
 10685 01cc 0D       		.uleb128 0xd
 10686 01cd 00       		.byte	0
 10687 01ce 03       		.uleb128 0x3
 10688 01cf 0E       		.uleb128 0xe
 10689 01d0 3A       		.uleb128 0x3a
 10690 01d1 0B       		.uleb128 0xb
 10691 01d2 3B       		.uleb128 0x3b
 10692 01d3 0B       		.uleb128 0xb
 10693 01d4 49       		.uleb128 0x49
 10694 01d5 13       		.uleb128 0x13
 10695 01d6 38       		.uleb128 0x38
 10696 01d7 05       		.uleb128 0x5
 10697 01d8 00       		.byte	0
 10698 01d9 00       		.byte	0
 10699 01da 29       		.uleb128 0x29
 10700 01db 13       		.uleb128 0x13
 10701 01dc 01       		.byte	0x1
 10702 01dd 03       		.uleb128 0x3
 10703 01de 0E       		.uleb128 0xe
 10704 01df 0B       		.uleb128 0xb
 10705 01e0 05       		.uleb128 0x5
 10706 01e1 3A       		.uleb128 0x3a
 10707 01e2 0B       		.uleb128 0xb
 10708 01e3 3B       		.uleb128 0x3b
 10709 01e4 05       		.uleb128 0x5
 10710 01e5 01       		.uleb128 0x1
 10711 01e6 13       		.uleb128 0x13
 10712 01e7 00       		.byte	0
 10713 01e8 00       		.byte	0
 10714 01e9 2A       		.uleb128 0x2a
 10715 01ea 13       		.uleb128 0x13
 10716 01eb 01       		.byte	0x1
 10717 01ec 03       		.uleb128 0x3
 10718 01ed 0E       		.uleb128 0xe
 10719 01ee 0B       		.uleb128 0xb
 10720 01ef 0B       		.uleb128 0xb
 10721 01f0 3A       		.uleb128 0x3a
 10722 01f1 0B       		.uleb128 0xb
 10723 01f2 3B       		.uleb128 0x3b
 10724 01f3 05       		.uleb128 0x5
 10725 01f4 01       		.uleb128 0x1
 10726 01f5 13       		.uleb128 0x13
 10727 01f6 00       		.byte	0
 10728 01f7 00       		.byte	0
 10729 01f8 2B       		.uleb128 0x2b
 10730 01f9 17       		.uleb128 0x17
 10731 01fa 01       		.byte	0x1
 10732 01fb 0B       		.uleb128 0xb
 10733 01fc 0B       		.uleb128 0xb
 10734 01fd 3A       		.uleb128 0x3a
 10735 01fe 0B       		.uleb128 0xb
 10736 01ff 3B       		.uleb128 0x3b
 10737 0200 05       		.uleb128 0x5
 10738 0201 01       		.uleb128 0x1
 10739 0202 13       		.uleb128 0x13
ARM GAS  /var/folders/3j/4xdnk5197cv_b7cw3n33qk7r0000gn/T//ccxkT2Pi.s 			page 190


 10740 0203 00       		.byte	0
 10741 0204 00       		.byte	0
 10742 0205 2C       		.uleb128 0x2c
 10743 0206 0D       		.uleb128 0xd
 10744 0207 00       		.byte	0
 10745 0208 03       		.uleb128 0x3
 10746 0209 0E       		.uleb128 0xe
 10747 020a 3A       		.uleb128 0x3a
 10748 020b 0B       		.uleb128 0xb
 10749 020c 3B       		.uleb128 0x3b
 10750 020d 05       		.uleb128 0x5
 10751 020e 49       		.uleb128 0x49
 10752 020f 13       		.uleb128 0x13
 10753 0210 00       		.byte	0
 10754 0211 00       		.byte	0
 10755 0212 2D       		.uleb128 0x2d
 10756 0213 34       		.uleb128 0x34
 10757 0214 00       		.byte	0
 10758 0215 03       		.uleb128 0x3
 10759 0216 0E       		.uleb128 0xe
 10760 0217 3A       		.uleb128 0x3a
 10761 0218 0B       		.uleb128 0xb
 10762 0219 3B       		.uleb128 0x3b
 10763 021a 05       		.uleb128 0x5
 10764 021b 49       		.uleb128 0x49
 10765 021c 13       		.uleb128 0x13
 10766 021d 3F       		.uleb128 0x3f
 10767 021e 19       		.uleb128 0x19
 10768 021f 3C       		.uleb128 0x3c
 10769 0220 19       		.uleb128 0x19
 10770 0221 00       		.byte	0
 10771 0222 00       		.byte	0
 10772 0223 2E       		.uleb128 0x2e
 10773 0224 16       		.uleb128 0x16
 10774 0225 00       		.byte	0
 10775 0226 03       		.uleb128 0x3
 10776 0227 08       		.uleb128 0x8
 10777 0228 3A       		.uleb128 0x3a
 10778 0229 0B       		.uleb128 0xb
 10779 022a 3B       		.uleb128 0x3b
 10780 022b 0B       		.uleb128 0xb
 10781 022c 49       		.uleb128 0x49
 10782 022d 13       		.uleb128 0x13
 10783 022e 00       		.byte	0
 10784 022f 00       		.byte	0
 10785 0230 2F       		.uleb128 0x2f
 10786 0231 34       		.uleb128 0x34
 10787 0232 00       		.byte	0
 10788 0233 03       		.uleb128 0x3
 10789 0234 0E       		.uleb128 0xe
 10790 0235 3A       		.uleb128 0x3a
 10791 0236 0B       		.uleb128 0xb
 10792 0237 3B       		.uleb128 0x3b
 10793 0238 0B       		.uleb128 0xb
 10794 0239 49       		.uleb128 0x49
 10795 023a 13       		.uleb128 0x13
 10796 023b 02       		.uleb128 0x2
ARM GAS  /var/folders/3j/4xdnk5197cv_b7cw3n33qk7r0000gn/T//ccxkT2Pi.s 			page 191


 10797 023c 18       		.uleb128 0x18
 10798 023d 00       		.byte	0
 10799 023e 00       		.byte	0
 10800 023f 30       		.uleb128 0x30
 10801 0240 34       		.uleb128 0x34
 10802 0241 00       		.byte	0
 10803 0242 03       		.uleb128 0x3
 10804 0243 0E       		.uleb128 0xe
 10805 0244 3A       		.uleb128 0x3a
 10806 0245 0B       		.uleb128 0xb
 10807 0246 3B       		.uleb128 0x3b
 10808 0247 0B       		.uleb128 0xb
 10809 0248 49       		.uleb128 0x49
 10810 0249 13       		.uleb128 0x13
 10811 024a 3F       		.uleb128 0x3f
 10812 024b 19       		.uleb128 0x19
 10813 024c 02       		.uleb128 0x2
 10814 024d 18       		.uleb128 0x18
 10815 024e 00       		.byte	0
 10816 024f 00       		.byte	0
 10817 0250 31       		.uleb128 0x31
 10818 0251 34       		.uleb128 0x34
 10819 0252 00       		.byte	0
 10820 0253 03       		.uleb128 0x3
 10821 0254 0E       		.uleb128 0xe
 10822 0255 3A       		.uleb128 0x3a
 10823 0256 0B       		.uleb128 0xb
 10824 0257 3B       		.uleb128 0x3b
 10825 0258 0B       		.uleb128 0xb
 10826 0259 49       		.uleb128 0x49
 10827 025a 13       		.uleb128 0x13
 10828 025b 00       		.byte	0
 10829 025c 00       		.byte	0
 10830 025d 32       		.uleb128 0x32
 10831 025e 2E       		.uleb128 0x2e
 10832 025f 01       		.byte	0x1
 10833 0260 3F       		.uleb128 0x3f
 10834 0261 19       		.uleb128 0x19
 10835 0262 03       		.uleb128 0x3
 10836 0263 08       		.uleb128 0x8
 10837 0264 3A       		.uleb128 0x3a
 10838 0265 0B       		.uleb128 0xb
 10839 0266 3B       		.uleb128 0x3b
 10840 0267 0B       		.uleb128 0xb
 10841 0268 27       		.uleb128 0x27
 10842 0269 19       		.uleb128 0x19
 10843 026a 49       		.uleb128 0x49
 10844 026b 13       		.uleb128 0x13
 10845 026c 20       		.uleb128 0x20
 10846 026d 0B       		.uleb128 0xb
 10847 026e 01       		.uleb128 0x1
 10848 026f 13       		.uleb128 0x13
 10849 0270 00       		.byte	0
 10850 0271 00       		.byte	0
 10851 0272 33       		.uleb128 0x33
 10852 0273 05       		.uleb128 0x5
 10853 0274 00       		.byte	0
ARM GAS  /var/folders/3j/4xdnk5197cv_b7cw3n33qk7r0000gn/T//ccxkT2Pi.s 			page 192


 10854 0275 03       		.uleb128 0x3
 10855 0276 08       		.uleb128 0x8
 10856 0277 3A       		.uleb128 0x3a
 10857 0278 0B       		.uleb128 0xb
 10858 0279 3B       		.uleb128 0x3b
 10859 027a 0B       		.uleb128 0xb
 10860 027b 49       		.uleb128 0x49
 10861 027c 13       		.uleb128 0x13
 10862 027d 00       		.byte	0
 10863 027e 00       		.byte	0
 10864 027f 34       		.uleb128 0x34
 10865 0280 2E       		.uleb128 0x2e
 10866 0281 01       		.byte	0x1
 10867 0282 03       		.uleb128 0x3
 10868 0283 0E       		.uleb128 0xe
 10869 0284 3A       		.uleb128 0x3a
 10870 0285 0B       		.uleb128 0xb
 10871 0286 3B       		.uleb128 0x3b
 10872 0287 0B       		.uleb128 0xb
 10873 0288 27       		.uleb128 0x27
 10874 0289 19       		.uleb128 0x19
 10875 028a 49       		.uleb128 0x49
 10876 028b 13       		.uleb128 0x13
 10877 028c 11       		.uleb128 0x11
 10878 028d 01       		.uleb128 0x1
 10879 028e 12       		.uleb128 0x12
 10880 028f 06       		.uleb128 0x6
 10881 0290 40       		.uleb128 0x40
 10882 0291 18       		.uleb128 0x18
 10883 0292 9742     		.uleb128 0x2117
 10884 0294 19       		.uleb128 0x19
 10885 0295 01       		.uleb128 0x1
 10886 0296 13       		.uleb128 0x13
 10887 0297 00       		.byte	0
 10888 0298 00       		.byte	0
 10889 0299 35       		.uleb128 0x35
 10890 029a 05       		.uleb128 0x5
 10891 029b 00       		.byte	0
 10892 029c 03       		.uleb128 0x3
 10893 029d 08       		.uleb128 0x8
 10894 029e 3A       		.uleb128 0x3a
 10895 029f 0B       		.uleb128 0xb
 10896 02a0 3B       		.uleb128 0x3b
 10897 02a1 0B       		.uleb128 0xb
 10898 02a2 49       		.uleb128 0x49
 10899 02a3 13       		.uleb128 0x13
 10900 02a4 02       		.uleb128 0x2
 10901 02a5 18       		.uleb128 0x18
 10902 02a6 00       		.byte	0
 10903 02a7 00       		.byte	0
 10904 02a8 36       		.uleb128 0x36
 10905 02a9 2E       		.uleb128 0x2e
 10906 02aa 01       		.byte	0x1
 10907 02ab 03       		.uleb128 0x3
 10908 02ac 0E       		.uleb128 0xe
 10909 02ad 3A       		.uleb128 0x3a
 10910 02ae 0B       		.uleb128 0xb
ARM GAS  /var/folders/3j/4xdnk5197cv_b7cw3n33qk7r0000gn/T//ccxkT2Pi.s 			page 193


 10911 02af 3B       		.uleb128 0x3b
 10912 02b0 0B       		.uleb128 0xb
 10913 02b1 27       		.uleb128 0x27
 10914 02b2 19       		.uleb128 0x19
 10915 02b3 49       		.uleb128 0x49
 10916 02b4 13       		.uleb128 0x13
 10917 02b5 11       		.uleb128 0x11
 10918 02b6 01       		.uleb128 0x1
 10919 02b7 12       		.uleb128 0x12
 10920 02b8 06       		.uleb128 0x6
 10921 02b9 40       		.uleb128 0x40
 10922 02ba 18       		.uleb128 0x18
 10923 02bb 9642     		.uleb128 0x2116
 10924 02bd 19       		.uleb128 0x19
 10925 02be 01       		.uleb128 0x1
 10926 02bf 13       		.uleb128 0x13
 10927 02c0 00       		.byte	0
 10928 02c1 00       		.byte	0
 10929 02c2 37       		.uleb128 0x37
 10930 02c3 05       		.uleb128 0x5
 10931 02c4 00       		.byte	0
 10932 02c5 03       		.uleb128 0x3
 10933 02c6 08       		.uleb128 0x8
 10934 02c7 3A       		.uleb128 0x3a
 10935 02c8 0B       		.uleb128 0xb
 10936 02c9 3B       		.uleb128 0x3b
 10937 02ca 0B       		.uleb128 0xb
 10938 02cb 49       		.uleb128 0x49
 10939 02cc 13       		.uleb128 0x13
 10940 02cd 02       		.uleb128 0x2
 10941 02ce 17       		.uleb128 0x17
 10942 02cf 00       		.byte	0
 10943 02d0 00       		.byte	0
 10944 02d1 38       		.uleb128 0x38
 10945 02d2 0B       		.uleb128 0xb
 10946 02d3 01       		.byte	0x1
 10947 02d4 55       		.uleb128 0x55
 10948 02d5 17       		.uleb128 0x17
 10949 02d6 01       		.uleb128 0x1
 10950 02d7 13       		.uleb128 0x13
 10951 02d8 00       		.byte	0
 10952 02d9 00       		.byte	0
 10953 02da 39       		.uleb128 0x39
 10954 02db 1D       		.uleb128 0x1d
 10955 02dc 01       		.byte	0x1
 10956 02dd 31       		.uleb128 0x31
 10957 02de 13       		.uleb128 0x13
 10958 02df 52       		.uleb128 0x52
 10959 02e0 01       		.uleb128 0x1
 10960 02e1 55       		.uleb128 0x55
 10961 02e2 17       		.uleb128 0x17
 10962 02e3 58       		.uleb128 0x58
 10963 02e4 0B       		.uleb128 0xb
 10964 02e5 59       		.uleb128 0x59
 10965 02e6 0B       		.uleb128 0xb
 10966 02e7 01       		.uleb128 0x1
 10967 02e8 13       		.uleb128 0x13
ARM GAS  /var/folders/3j/4xdnk5197cv_b7cw3n33qk7r0000gn/T//ccxkT2Pi.s 			page 194


 10968 02e9 00       		.byte	0
 10969 02ea 00       		.byte	0
 10970 02eb 3A       		.uleb128 0x3a
 10971 02ec 05       		.uleb128 0x5
 10972 02ed 00       		.byte	0
 10973 02ee 31       		.uleb128 0x31
 10974 02ef 13       		.uleb128 0x13
 10975 02f0 02       		.uleb128 0x2
 10976 02f1 17       		.uleb128 0x17
 10977 02f2 00       		.byte	0
 10978 02f3 00       		.byte	0
 10979 02f4 3B       		.uleb128 0x3b
 10980 02f5 0B       		.uleb128 0xb
 10981 02f6 01       		.byte	0x1
 10982 02f7 31       		.uleb128 0x31
 10983 02f8 13       		.uleb128 0x13
 10984 02f9 11       		.uleb128 0x11
 10985 02fa 01       		.uleb128 0x1
 10986 02fb 12       		.uleb128 0x12
 10987 02fc 06       		.uleb128 0x6
 10988 02fd 00       		.byte	0
 10989 02fe 00       		.byte	0
 10990 02ff 3C       		.uleb128 0x3c
 10991 0300 0B       		.uleb128 0xb
 10992 0301 01       		.byte	0x1
 10993 0302 55       		.uleb128 0x55
 10994 0303 17       		.uleb128 0x17
 10995 0304 00       		.byte	0
 10996 0305 00       		.byte	0
 10997 0306 3D       		.uleb128 0x3d
 10998 0307 34       		.uleb128 0x34
 10999 0308 00       		.byte	0
 11000 0309 31       		.uleb128 0x31
 11001 030a 13       		.uleb128 0x13
 11002 030b 02       		.uleb128 0x2
 11003 030c 17       		.uleb128 0x17
 11004 030d 00       		.byte	0
 11005 030e 00       		.byte	0
 11006 030f 3E       		.uleb128 0x3e
 11007 0310 05       		.uleb128 0x5
 11008 0311 00       		.byte	0
 11009 0312 31       		.uleb128 0x31
 11010 0313 13       		.uleb128 0x13
 11011 0314 02       		.uleb128 0x2
 11012 0315 18       		.uleb128 0x18
 11013 0316 00       		.byte	0
 11014 0317 00       		.byte	0
 11015 0318 3F       		.uleb128 0x3f
 11016 0319 898201   		.uleb128 0x4109
 11017 031c 00       		.byte	0
 11018 031d 11       		.uleb128 0x11
 11019 031e 01       		.uleb128 0x1
 11020 031f 31       		.uleb128 0x31
 11021 0320 13       		.uleb128 0x13
 11022 0321 00       		.byte	0
 11023 0322 00       		.byte	0
 11024 0323 40       		.uleb128 0x40
ARM GAS  /var/folders/3j/4xdnk5197cv_b7cw3n33qk7r0000gn/T//ccxkT2Pi.s 			page 195


 11025 0324 898201   		.uleb128 0x4109
 11026 0327 01       		.byte	0x1
 11027 0328 11       		.uleb128 0x11
 11028 0329 01       		.uleb128 0x1
 11029 032a 31       		.uleb128 0x31
 11030 032b 13       		.uleb128 0x13
 11031 032c 00       		.byte	0
 11032 032d 00       		.byte	0
 11033 032e 41       		.uleb128 0x41
 11034 032f 8A8201   		.uleb128 0x410a
 11035 0332 00       		.byte	0
 11036 0333 02       		.uleb128 0x2
 11037 0334 18       		.uleb128 0x18
 11038 0335 9142     		.uleb128 0x2111
 11039 0337 18       		.uleb128 0x18
 11040 0338 00       		.byte	0
 11041 0339 00       		.byte	0
 11042 033a 42       		.uleb128 0x42
 11043 033b 1D       		.uleb128 0x1d
 11044 033c 01       		.byte	0x1
 11045 033d 31       		.uleb128 0x31
 11046 033e 13       		.uleb128 0x13
 11047 033f 52       		.uleb128 0x52
 11048 0340 01       		.uleb128 0x1
 11049 0341 55       		.uleb128 0x55
 11050 0342 17       		.uleb128 0x17
 11051 0343 58       		.uleb128 0x58
 11052 0344 0B       		.uleb128 0xb
 11053 0345 59       		.uleb128 0x59
 11054 0346 0B       		.uleb128 0xb
 11055 0347 00       		.byte	0
 11056 0348 00       		.byte	0
 11057 0349 43       		.uleb128 0x43
 11058 034a 1D       		.uleb128 0x1d
 11059 034b 01       		.byte	0x1
 11060 034c 31       		.uleb128 0x31
 11061 034d 13       		.uleb128 0x13
 11062 034e 11       		.uleb128 0x11
 11063 034f 01       		.uleb128 0x1
 11064 0350 12       		.uleb128 0x12
 11065 0351 06       		.uleb128 0x6
 11066 0352 58       		.uleb128 0x58
 11067 0353 0B       		.uleb128 0xb
 11068 0354 59       		.uleb128 0x59
 11069 0355 0B       		.uleb128 0xb
 11070 0356 01       		.uleb128 0x1
 11071 0357 13       		.uleb128 0x13
 11072 0358 00       		.byte	0
 11073 0359 00       		.byte	0
 11074 035a 44       		.uleb128 0x44
 11075 035b 05       		.uleb128 0x5
 11076 035c 00       		.byte	0
 11077 035d 31       		.uleb128 0x31
 11078 035e 13       		.uleb128 0x13
 11079 035f 00       		.byte	0
 11080 0360 00       		.byte	0
 11081 0361 45       		.uleb128 0x45
ARM GAS  /var/folders/3j/4xdnk5197cv_b7cw3n33qk7r0000gn/T//ccxkT2Pi.s 			page 196


 11082 0362 898201   		.uleb128 0x4109
 11083 0365 01       		.byte	0x1
 11084 0366 11       		.uleb128 0x11
 11085 0367 01       		.uleb128 0x1
 11086 0368 31       		.uleb128 0x31
 11087 0369 13       		.uleb128 0x13
 11088 036a 01       		.uleb128 0x1
 11089 036b 13       		.uleb128 0x13
 11090 036c 00       		.byte	0
 11091 036d 00       		.byte	0
 11092 036e 46       		.uleb128 0x46
 11093 036f 2E       		.uleb128 0x2e
 11094 0370 01       		.byte	0x1
 11095 0371 3F       		.uleb128 0x3f
 11096 0372 19       		.uleb128 0x19
 11097 0373 03       		.uleb128 0x3
 11098 0374 0E       		.uleb128 0xe
 11099 0375 3A       		.uleb128 0x3a
 11100 0376 0B       		.uleb128 0xb
 11101 0377 3B       		.uleb128 0x3b
 11102 0378 0B       		.uleb128 0xb
 11103 0379 27       		.uleb128 0x27
 11104 037a 19       		.uleb128 0x19
 11105 037b 49       		.uleb128 0x49
 11106 037c 13       		.uleb128 0x13
 11107 037d 11       		.uleb128 0x11
 11108 037e 01       		.uleb128 0x1
 11109 037f 12       		.uleb128 0x12
 11110 0380 06       		.uleb128 0x6
 11111 0381 40       		.uleb128 0x40
 11112 0382 18       		.uleb128 0x18
 11113 0383 9742     		.uleb128 0x2117
 11114 0385 19       		.uleb128 0x19
 11115 0386 01       		.uleb128 0x1
 11116 0387 13       		.uleb128 0x13
 11117 0388 00       		.byte	0
 11118 0389 00       		.byte	0
 11119 038a 47       		.uleb128 0x47
 11120 038b 34       		.uleb128 0x34
 11121 038c 00       		.byte	0
 11122 038d 03       		.uleb128 0x3
 11123 038e 0E       		.uleb128 0xe
 11124 038f 3A       		.uleb128 0x3a
 11125 0390 0B       		.uleb128 0xb
 11126 0391 3B       		.uleb128 0x3b
 11127 0392 0B       		.uleb128 0xb
 11128 0393 49       		.uleb128 0x49
 11129 0394 13       		.uleb128 0x13
 11130 0395 02       		.uleb128 0x2
 11131 0396 17       		.uleb128 0x17
 11132 0397 00       		.byte	0
 11133 0398 00       		.byte	0
 11134 0399 48       		.uleb128 0x48
 11135 039a 2E       		.uleb128 0x2e
 11136 039b 01       		.byte	0x1
 11137 039c 03       		.uleb128 0x3
 11138 039d 0E       		.uleb128 0xe
ARM GAS  /var/folders/3j/4xdnk5197cv_b7cw3n33qk7r0000gn/T//ccxkT2Pi.s 			page 197


 11139 039e 3A       		.uleb128 0x3a
 11140 039f 0B       		.uleb128 0xb
 11141 03a0 3B       		.uleb128 0x3b
 11142 03a1 0B       		.uleb128 0xb
 11143 03a2 27       		.uleb128 0x27
 11144 03a3 19       		.uleb128 0x19
 11145 03a4 11       		.uleb128 0x11
 11146 03a5 01       		.uleb128 0x1
 11147 03a6 12       		.uleb128 0x12
 11148 03a7 06       		.uleb128 0x6
 11149 03a8 40       		.uleb128 0x40
 11150 03a9 18       		.uleb128 0x18
 11151 03aa 9742     		.uleb128 0x2117
 11152 03ac 19       		.uleb128 0x19
 11153 03ad 01       		.uleb128 0x1
 11154 03ae 13       		.uleb128 0x13
 11155 03af 00       		.byte	0
 11156 03b0 00       		.byte	0
 11157 03b1 49       		.uleb128 0x49
 11158 03b2 05       		.uleb128 0x5
 11159 03b3 00       		.byte	0
 11160 03b4 03       		.uleb128 0x3
 11161 03b5 0E       		.uleb128 0xe
 11162 03b6 3A       		.uleb128 0x3a
 11163 03b7 0B       		.uleb128 0xb
 11164 03b8 3B       		.uleb128 0x3b
 11165 03b9 0B       		.uleb128 0xb
 11166 03ba 49       		.uleb128 0x49
 11167 03bb 13       		.uleb128 0x13
 11168 03bc 02       		.uleb128 0x2
 11169 03bd 17       		.uleb128 0x17
 11170 03be 00       		.byte	0
 11171 03bf 00       		.byte	0
 11172 03c0 4A       		.uleb128 0x4a
 11173 03c1 898201   		.uleb128 0x4109
 11174 03c4 01       		.byte	0x1
 11175 03c5 11       		.uleb128 0x11
 11176 03c6 01       		.uleb128 0x1
 11177 03c7 9542     		.uleb128 0x2115
 11178 03c9 19       		.uleb128 0x19
 11179 03ca 31       		.uleb128 0x31
 11180 03cb 13       		.uleb128 0x13
 11181 03cc 01       		.uleb128 0x1
 11182 03cd 13       		.uleb128 0x13
 11183 03ce 00       		.byte	0
 11184 03cf 00       		.byte	0
 11185 03d0 4B       		.uleb128 0x4b
 11186 03d1 898201   		.uleb128 0x4109
 11187 03d4 01       		.byte	0x1
 11188 03d5 11       		.uleb128 0x11
 11189 03d6 01       		.uleb128 0x1
 11190 03d7 9542     		.uleb128 0x2115
 11191 03d9 19       		.uleb128 0x19
 11192 03da 31       		.uleb128 0x31
 11193 03db 13       		.uleb128 0x13
 11194 03dc 00       		.byte	0
 11195 03dd 00       		.byte	0
ARM GAS  /var/folders/3j/4xdnk5197cv_b7cw3n33qk7r0000gn/T//ccxkT2Pi.s 			page 198


 11196 03de 4C       		.uleb128 0x4c
 11197 03df 2E       		.uleb128 0x2e
 11198 03e0 01       		.byte	0x1
 11199 03e1 3F       		.uleb128 0x3f
 11200 03e2 19       		.uleb128 0x19
 11201 03e3 03       		.uleb128 0x3
 11202 03e4 0E       		.uleb128 0xe
 11203 03e5 3A       		.uleb128 0x3a
 11204 03e6 0B       		.uleb128 0xb
 11205 03e7 3B       		.uleb128 0x3b
 11206 03e8 0B       		.uleb128 0xb
 11207 03e9 27       		.uleb128 0x27
 11208 03ea 19       		.uleb128 0x19
 11209 03eb 11       		.uleb128 0x11
 11210 03ec 01       		.uleb128 0x1
 11211 03ed 12       		.uleb128 0x12
 11212 03ee 06       		.uleb128 0x6
 11213 03ef 40       		.uleb128 0x40
 11214 03f0 18       		.uleb128 0x18
 11215 03f1 9742     		.uleb128 0x2117
 11216 03f3 19       		.uleb128 0x19
 11217 03f4 01       		.uleb128 0x1
 11218 03f5 13       		.uleb128 0x13
 11219 03f6 00       		.byte	0
 11220 03f7 00       		.byte	0
 11221 03f8 4D       		.uleb128 0x4d
 11222 03f9 898201   		.uleb128 0x4109
 11223 03fc 00       		.byte	0
 11224 03fd 11       		.uleb128 0x11
 11225 03fe 01       		.uleb128 0x1
 11226 03ff 9542     		.uleb128 0x2115
 11227 0401 19       		.uleb128 0x19
 11228 0402 31       		.uleb128 0x31
 11229 0403 13       		.uleb128 0x13
 11230 0404 00       		.byte	0
 11231 0405 00       		.byte	0
 11232 0406 4E       		.uleb128 0x4e
 11233 0407 0B       		.uleb128 0xb
 11234 0408 01       		.byte	0x1
 11235 0409 11       		.uleb128 0x11
 11236 040a 01       		.uleb128 0x1
 11237 040b 12       		.uleb128 0x12
 11238 040c 06       		.uleb128 0x6
 11239 040d 01       		.uleb128 0x1
 11240 040e 13       		.uleb128 0x13
 11241 040f 00       		.byte	0
 11242 0410 00       		.byte	0
 11243 0411 4F       		.uleb128 0x4f
 11244 0412 34       		.uleb128 0x34
 11245 0413 00       		.byte	0
 11246 0414 03       		.uleb128 0x3
 11247 0415 08       		.uleb128 0x8
 11248 0416 3A       		.uleb128 0x3a
 11249 0417 0B       		.uleb128 0xb
 11250 0418 3B       		.uleb128 0x3b
 11251 0419 0B       		.uleb128 0xb
 11252 041a 49       		.uleb128 0x49
ARM GAS  /var/folders/3j/4xdnk5197cv_b7cw3n33qk7r0000gn/T//ccxkT2Pi.s 			page 199


 11253 041b 13       		.uleb128 0x13
 11254 041c 02       		.uleb128 0x2
 11255 041d 17       		.uleb128 0x17
 11256 041e 00       		.byte	0
 11257 041f 00       		.byte	0
 11258 0420 50       		.uleb128 0x50
 11259 0421 0B       		.uleb128 0xb
 11260 0422 01       		.byte	0x1
 11261 0423 11       		.uleb128 0x11
 11262 0424 01       		.uleb128 0x1
 11263 0425 12       		.uleb128 0x12
 11264 0426 06       		.uleb128 0x6
 11265 0427 00       		.byte	0
 11266 0428 00       		.byte	0
 11267 0429 51       		.uleb128 0x51
 11268 042a 2E       		.uleb128 0x2e
 11269 042b 01       		.byte	0x1
 11270 042c 3F       		.uleb128 0x3f
 11271 042d 19       		.uleb128 0x19
 11272 042e 03       		.uleb128 0x3
 11273 042f 0E       		.uleb128 0xe
 11274 0430 3A       		.uleb128 0x3a
 11275 0431 0B       		.uleb128 0xb
 11276 0432 3B       		.uleb128 0x3b
 11277 0433 0B       		.uleb128 0xb
 11278 0434 49       		.uleb128 0x49
 11279 0435 13       		.uleb128 0x13
 11280 0436 3C       		.uleb128 0x3c
 11281 0437 19       		.uleb128 0x19
 11282 0438 00       		.byte	0
 11283 0439 00       		.byte	0
 11284 043a 52       		.uleb128 0x52
 11285 043b 18       		.uleb128 0x18
 11286 043c 00       		.byte	0
 11287 043d 00       		.byte	0
 11288 043e 00       		.byte	0
 11289 043f 53       		.uleb128 0x53
 11290 0440 2E       		.uleb128 0x2e
 11291 0441 01       		.byte	0x1
 11292 0442 3F       		.uleb128 0x3f
 11293 0443 19       		.uleb128 0x19
 11294 0444 03       		.uleb128 0x3
 11295 0445 0E       		.uleb128 0xe
 11296 0446 3A       		.uleb128 0x3a
 11297 0447 0B       		.uleb128 0xb
 11298 0448 3B       		.uleb128 0x3b
 11299 0449 0B       		.uleb128 0xb
 11300 044a 49       		.uleb128 0x49
 11301 044b 13       		.uleb128 0x13
 11302 044c 3C       		.uleb128 0x3c
 11303 044d 19       		.uleb128 0x19
 11304 044e 01       		.uleb128 0x1
 11305 044f 13       		.uleb128 0x13
 11306 0450 00       		.byte	0
 11307 0451 00       		.byte	0
 11308 0452 54       		.uleb128 0x54
 11309 0453 2E       		.uleb128 0x2e
ARM GAS  /var/folders/3j/4xdnk5197cv_b7cw3n33qk7r0000gn/T//ccxkT2Pi.s 			page 200


 11310 0454 01       		.byte	0x1
 11311 0455 3F       		.uleb128 0x3f
 11312 0456 19       		.uleb128 0x19
 11313 0457 03       		.uleb128 0x3
 11314 0458 0E       		.uleb128 0xe
 11315 0459 3A       		.uleb128 0x3a
 11316 045a 0B       		.uleb128 0xb
 11317 045b 3B       		.uleb128 0x3b
 11318 045c 0B       		.uleb128 0xb
 11319 045d 27       		.uleb128 0x27
 11320 045e 19       		.uleb128 0x19
 11321 045f 49       		.uleb128 0x49
 11322 0460 13       		.uleb128 0x13
 11323 0461 20       		.uleb128 0x20
 11324 0462 0B       		.uleb128 0xb
 11325 0463 01       		.uleb128 0x1
 11326 0464 13       		.uleb128 0x13
 11327 0465 00       		.byte	0
 11328 0466 00       		.byte	0
 11329 0467 55       		.uleb128 0x55
 11330 0468 05       		.uleb128 0x5
 11331 0469 00       		.byte	0
 11332 046a 03       		.uleb128 0x3
 11333 046b 0E       		.uleb128 0xe
 11334 046c 3A       		.uleb128 0x3a
 11335 046d 0B       		.uleb128 0xb
 11336 046e 3B       		.uleb128 0x3b
 11337 046f 0B       		.uleb128 0xb
 11338 0470 49       		.uleb128 0x49
 11339 0471 13       		.uleb128 0x13
 11340 0472 00       		.byte	0
 11341 0473 00       		.byte	0
 11342 0474 56       		.uleb128 0x56
 11343 0475 2E       		.uleb128 0x2e
 11344 0476 01       		.byte	0x1
 11345 0477 03       		.uleb128 0x3
 11346 0478 0E       		.uleb128 0xe
 11347 0479 3A       		.uleb128 0x3a
 11348 047a 0B       		.uleb128 0xb
 11349 047b 3B       		.uleb128 0x3b
 11350 047c 0B       		.uleb128 0xb
 11351 047d 27       		.uleb128 0x27
 11352 047e 19       		.uleb128 0x19
 11353 047f 49       		.uleb128 0x49
 11354 0480 13       		.uleb128 0x13
 11355 0481 20       		.uleb128 0x20
 11356 0482 0B       		.uleb128 0xb
 11357 0483 01       		.uleb128 0x1
 11358 0484 13       		.uleb128 0x13
 11359 0485 00       		.byte	0
 11360 0486 00       		.byte	0
 11361 0487 57       		.uleb128 0x57
 11362 0488 05       		.uleb128 0x5
 11363 0489 00       		.byte	0
 11364 048a 03       		.uleb128 0x3
 11365 048b 0E       		.uleb128 0xe
 11366 048c 3A       		.uleb128 0x3a
ARM GAS  /var/folders/3j/4xdnk5197cv_b7cw3n33qk7r0000gn/T//ccxkT2Pi.s 			page 201


 11367 048d 0B       		.uleb128 0xb
 11368 048e 3B       		.uleb128 0x3b
 11369 048f 0B       		.uleb128 0xb
 11370 0490 49       		.uleb128 0x49
 11371 0491 13       		.uleb128 0x13
 11372 0492 02       		.uleb128 0x2
 11373 0493 18       		.uleb128 0x18
 11374 0494 00       		.byte	0
 11375 0495 00       		.byte	0
 11376 0496 58       		.uleb128 0x58
 11377 0497 34       		.uleb128 0x34
 11378 0498 00       		.byte	0
 11379 0499 03       		.uleb128 0x3
 11380 049a 08       		.uleb128 0x8
 11381 049b 3A       		.uleb128 0x3a
 11382 049c 0B       		.uleb128 0xb
 11383 049d 3B       		.uleb128 0x3b
 11384 049e 0B       		.uleb128 0xb
 11385 049f 49       		.uleb128 0x49
 11386 04a0 13       		.uleb128 0x13
 11387 04a1 00       		.byte	0
 11388 04a2 00       		.byte	0
 11389 04a3 59       		.uleb128 0x59
 11390 04a4 2E       		.uleb128 0x2e
 11391 04a5 01       		.byte	0x1
 11392 04a6 31       		.uleb128 0x31
 11393 04a7 13       		.uleb128 0x13
 11394 04a8 11       		.uleb128 0x11
 11395 04a9 01       		.uleb128 0x1
 11396 04aa 12       		.uleb128 0x12
 11397 04ab 06       		.uleb128 0x6
 11398 04ac 40       		.uleb128 0x40
 11399 04ad 18       		.uleb128 0x18
 11400 04ae 9742     		.uleb128 0x2117
 11401 04b0 19       		.uleb128 0x19
 11402 04b1 01       		.uleb128 0x1
 11403 04b2 13       		.uleb128 0x13
 11404 04b3 00       		.byte	0
 11405 04b4 00       		.byte	0
 11406 04b5 5A       		.uleb128 0x5a
 11407 04b6 0B       		.uleb128 0xb
 11408 04b7 01       		.byte	0x1
 11409 04b8 31       		.uleb128 0x31
 11410 04b9 13       		.uleb128 0x13
 11411 04ba 55       		.uleb128 0x55
 11412 04bb 17       		.uleb128 0x17
 11413 04bc 00       		.byte	0
 11414 04bd 00       		.byte	0
 11415 04be 5B       		.uleb128 0x5b
 11416 04bf 2E       		.uleb128 0x2e
 11417 04c0 01       		.byte	0x1
 11418 04c1 31       		.uleb128 0x31
 11419 04c2 13       		.uleb128 0x13
 11420 04c3 11       		.uleb128 0x11
 11421 04c4 01       		.uleb128 0x1
 11422 04c5 12       		.uleb128 0x12
 11423 04c6 06       		.uleb128 0x6
ARM GAS  /var/folders/3j/4xdnk5197cv_b7cw3n33qk7r0000gn/T//ccxkT2Pi.s 			page 202


 11424 04c7 40       		.uleb128 0x40
 11425 04c8 18       		.uleb128 0x18
 11426 04c9 9642     		.uleb128 0x2116
 11427 04cb 19       		.uleb128 0x19
 11428 04cc 01       		.uleb128 0x1
 11429 04cd 13       		.uleb128 0x13
 11430 04ce 00       		.byte	0
 11431 04cf 00       		.byte	0
 11432 04d0 5C       		.uleb128 0x5c
 11433 04d1 2E       		.uleb128 0x2e
 11434 04d2 00       		.byte	0
 11435 04d3 3F       		.uleb128 0x3f
 11436 04d4 19       		.uleb128 0x19
 11437 04d5 3C       		.uleb128 0x3c
 11438 04d6 19       		.uleb128 0x19
 11439 04d7 6E       		.uleb128 0x6e
 11440 04d8 0E       		.uleb128 0xe
 11441 04d9 03       		.uleb128 0x3
 11442 04da 0E       		.uleb128 0xe
 11443 04db 3A       		.uleb128 0x3a
 11444 04dc 0B       		.uleb128 0xb
 11445 04dd 3B       		.uleb128 0x3b
 11446 04de 05       		.uleb128 0x5
 11447 04df 00       		.byte	0
 11448 04e0 00       		.byte	0
 11449 04e1 5D       		.uleb128 0x5d
 11450 04e2 2E       		.uleb128 0x2e
 11451 04e3 00       		.byte	0
 11452 04e4 3F       		.uleb128 0x3f
 11453 04e5 19       		.uleb128 0x19
 11454 04e6 3C       		.uleb128 0x3c
 11455 04e7 19       		.uleb128 0x19
 11456 04e8 6E       		.uleb128 0x6e
 11457 04e9 0E       		.uleb128 0xe
 11458 04ea 03       		.uleb128 0x3
 11459 04eb 0E       		.uleb128 0xe
 11460 04ec 3A       		.uleb128 0x3a
 11461 04ed 0B       		.uleb128 0xb
 11462 04ee 3B       		.uleb128 0x3b
 11463 04ef 0B       		.uleb128 0xb
 11464 04f0 6E       		.uleb128 0x6e
 11465 04f1 0E       		.uleb128 0xe
 11466 04f2 00       		.byte	0
 11467 04f3 00       		.byte	0
 11468 04f4 5E       		.uleb128 0x5e
 11469 04f5 2E       		.uleb128 0x2e
 11470 04f6 00       		.byte	0
 11471 04f7 3F       		.uleb128 0x3f
 11472 04f8 19       		.uleb128 0x19
 11473 04f9 3C       		.uleb128 0x3c
 11474 04fa 19       		.uleb128 0x19
 11475 04fb 6E       		.uleb128 0x6e
 11476 04fc 0E       		.uleb128 0xe
 11477 04fd 03       		.uleb128 0x3
 11478 04fe 0E       		.uleb128 0xe
 11479 04ff 3A       		.uleb128 0x3a
 11480 0500 0B       		.uleb128 0xb
ARM GAS  /var/folders/3j/4xdnk5197cv_b7cw3n33qk7r0000gn/T//ccxkT2Pi.s 			page 203


 11481 0501 3B       		.uleb128 0x3b
 11482 0502 0B       		.uleb128 0xb
 11483 0503 00       		.byte	0
 11484 0504 00       		.byte	0
 11485 0505 00       		.byte	0
 11486              		.section	.debug_loc,"",%progbits
 11487              	.Ldebug_loc0:
 11488              	.LLST48:
 11489 0000 00000000 		.4byte	.LVL94
 11490 0004 24000000 		.4byte	.LVL95
 11491 0008 0100     		.2byte	0x1
 11492 000a 50       		.byte	0x50
 11493 000b 24000000 		.4byte	.LVL95
 11494 000f 27000000 		.4byte	.LVL96-1
 11495 0013 0100     		.2byte	0x1
 11496 0015 51       		.byte	0x51
 11497 0016 27000000 		.4byte	.LVL96-1
 11498 001a 48000000 		.4byte	.LVL98
 11499 001e 0100     		.2byte	0x1
 11500 0020 54       		.byte	0x54
 11501 0021 48000000 		.4byte	.LVL98
 11502 0025 48020000 		.4byte	.LFE36
 11503 0029 0400     		.2byte	0x4
 11504 002b F3       		.byte	0xf3
 11505 002c 01       		.uleb128 0x1
 11506 002d 50       		.byte	0x50
 11507 002e 9F       		.byte	0x9f
 11508 002f 00000000 		.4byte	0
 11509 0033 00000000 		.4byte	0
 11510              	.LLST49:
 11511 0037 B8010000 		.4byte	.LVL111
 11512 003b DC010000 		.4byte	.LVL113
 11513 003f 0100     		.2byte	0x1
 11514 0041 56       		.byte	0x56
 11515 0042 00000000 		.4byte	0
 11516 0046 00000000 		.4byte	0
 11517              	.LLST50:
 11518 004a C0010000 		.4byte	.LVL112
 11519 004e DC010000 		.4byte	.LVL113
 11520 0052 0100     		.2byte	0x1
 11521 0054 56       		.byte	0x56
 11522 0055 00000000 		.4byte	0
 11523 0059 00000000 		.4byte	0
 11524              	.LLST51:
 11525 005d AC000000 		.4byte	.LVL101
 11526 0061 28010000 		.4byte	.LVL106
 11527 0065 0200     		.2byte	0x2
 11528 0067 30       		.byte	0x30
 11529 0068 9F       		.byte	0x9f
 11530 0069 28010000 		.4byte	.LVL106
 11531 006d A8010000 		.4byte	.LVL110
 11532 0071 0100     		.2byte	0x1
 11533 0073 55       		.byte	0x55
 11534 0074 00000000 		.4byte	0
 11535 0078 00000000 		.4byte	0
 11536              	.LLST52:
 11537 007c E4000000 		.4byte	.LVL103
ARM GAS  /var/folders/3j/4xdnk5197cv_b7cw3n33qk7r0000gn/T//ccxkT2Pi.s 			page 204


 11538 0080 28010000 		.4byte	.LVL106
 11539 0084 0200     		.2byte	0x2
 11540 0086 30       		.byte	0x30
 11541 0087 9F       		.byte	0x9f
 11542 0088 00000000 		.4byte	0
 11543 008c 00000000 		.4byte	0
 11544              	.LLST53:
 11545 0090 64010000 		.4byte	.LVL108
 11546 0094 A8010000 		.4byte	.LVL110
 11547 0098 0200     		.2byte	0x2
 11548 009a 30       		.byte	0x30
 11549 009b 9F       		.byte	0x9f
 11550 009c 00000000 		.4byte	0
 11551 00a0 00000000 		.4byte	0
 11552              	.LLST54:
 11553 00a4 DC010000 		.4byte	.LVL113
 11554 00a8 00020000 		.4byte	.LVL115
 11555 00ac 0100     		.2byte	0x1
 11556 00ae 57       		.byte	0x57
 11557 00af 00000000 		.4byte	0
 11558 00b3 00000000 		.4byte	0
 11559              	.LLST55:
 11560 00b7 E4010000 		.4byte	.LVL114
 11561 00bb 14020000 		.4byte	.LVL117
 11562 00bf 0100     		.2byte	0x1
 11563 00c1 57       		.byte	0x57
 11564 00c2 00000000 		.4byte	0
 11565 00c6 00000000 		.4byte	0
 11566              	.LLST81:
 11567 00ca 48000000 		.4byte	.LVL252
 11568 00ce CC010000 		.4byte	.LVL260
 11569 00d2 0600     		.2byte	0x6
 11570 00d4 3F       		.byte	0x3f
 11571 00d5 9F       		.byte	0x9f
 11572 00d6 93       		.byte	0x93
 11573 00d7 04       		.uleb128 0x4
 11574 00d8 93       		.byte	0x93
 11575 00d9 34       		.uleb128 0x34
 11576 00da 00000000 		.4byte	0
 11577 00de 00000000 		.4byte	0
 11578              	.LLST0:
 11579 00e2 00000000 		.4byte	.LVL1
 11580 00e6 0F000000 		.4byte	.LVL3-1
 11581 00ea 0100     		.2byte	0x1
 11582 00ec 50       		.byte	0x50
 11583 00ed 0F000000 		.4byte	.LVL3-1
 11584 00f1 10000000 		.4byte	.LVL3
 11585 00f5 0400     		.2byte	0x4
 11586 00f7 F3       		.byte	0xf3
 11587 00f8 01       		.uleb128 0x1
 11588 00f9 50       		.byte	0x50
 11589 00fa 9F       		.byte	0x9f
 11590 00fb 10000000 		.4byte	.LVL3
 11591 00ff 14000000 		.4byte	.LVL4
 11592 0103 0100     		.2byte	0x1
 11593 0105 50       		.byte	0x50
 11594 0106 14000000 		.4byte	.LVL4
ARM GAS  /var/folders/3j/4xdnk5197cv_b7cw3n33qk7r0000gn/T//ccxkT2Pi.s 			page 205


 11595 010a 1C000000 		.4byte	.LFE34
 11596 010e 0400     		.2byte	0x4
 11597 0110 F3       		.byte	0xf3
 11598 0111 01       		.uleb128 0x1
 11599 0112 50       		.byte	0x50
 11600 0113 9F       		.byte	0x9f
 11601 0114 00000000 		.4byte	0
 11602 0118 00000000 		.4byte	0
 11603              	.LLST1:
 11604 011c 00000000 		.4byte	.LVL1
 11605 0120 0C000000 		.4byte	.LVL2
 11606 0124 0100     		.2byte	0x1
 11607 0126 51       		.byte	0x51
 11608 0127 0C000000 		.4byte	.LVL2
 11609 012b 10000000 		.4byte	.LVL3
 11610 012f 0400     		.2byte	0x4
 11611 0131 F3       		.byte	0xf3
 11612 0132 01       		.uleb128 0x1
 11613 0133 51       		.byte	0x51
 11614 0134 9F       		.byte	0x9f
 11615 0135 10000000 		.4byte	.LVL3
 11616 0139 17000000 		.4byte	.LVL5-1
 11617 013d 0100     		.2byte	0x1
 11618 013f 51       		.byte	0x51
 11619 0140 17000000 		.4byte	.LVL5-1
 11620 0144 1C000000 		.4byte	.LFE34
 11621 0148 0400     		.2byte	0x4
 11622 014a F3       		.byte	0xf3
 11623 014b 01       		.uleb128 0x1
 11624 014c 51       		.byte	0x51
 11625 014d 9F       		.byte	0x9f
 11626 014e 00000000 		.4byte	0
 11627 0152 00000000 		.4byte	0
 11628              	.LLST2:
 11629 0156 00000000 		.4byte	.LVL1
 11630 015a 0F000000 		.4byte	.LVL3-1
 11631 015e 0100     		.2byte	0x1
 11632 0160 52       		.byte	0x52
 11633 0161 0F000000 		.4byte	.LVL3-1
 11634 0165 10000000 		.4byte	.LVL3
 11635 0169 0400     		.2byte	0x4
 11636 016b F3       		.byte	0xf3
 11637 016c 01       		.uleb128 0x1
 11638 016d 52       		.byte	0x52
 11639 016e 9F       		.byte	0x9f
 11640 016f 10000000 		.4byte	.LVL3
 11641 0173 17000000 		.4byte	.LVL5-1
 11642 0177 0100     		.2byte	0x1
 11643 0179 52       		.byte	0x52
 11644 017a 17000000 		.4byte	.LVL5-1
 11645 017e 1C000000 		.4byte	.LFE34
 11646 0182 0400     		.2byte	0x4
 11647 0184 F3       		.byte	0xf3
 11648 0185 01       		.uleb128 0x1
 11649 0186 52       		.byte	0x52
 11650 0187 9F       		.byte	0x9f
 11651 0188 00000000 		.4byte	0
ARM GAS  /var/folders/3j/4xdnk5197cv_b7cw3n33qk7r0000gn/T//ccxkT2Pi.s 			page 206


 11652 018c 00000000 		.4byte	0
 11653              	.LLST80:
 11654 0190 00000000 		.4byte	.LVL240
 11655 0194 18000000 		.4byte	.LVL241
 11656 0198 0100     		.2byte	0x1
 11657 019a 50       		.byte	0x50
 11658 019b 18000000 		.4byte	.LVL241
 11659 019f 34000000 		.4byte	.LVL243
 11660 01a3 0400     		.2byte	0x4
 11661 01a5 F3       		.byte	0xf3
 11662 01a6 01       		.uleb128 0x1
 11663 01a7 50       		.byte	0x50
 11664 01a8 9F       		.byte	0x9f
 11665 01a9 34000000 		.4byte	.LVL243
 11666 01ad 38000000 		.4byte	.LVL244
 11667 01b1 0100     		.2byte	0x1
 11668 01b3 50       		.byte	0x50
 11669 01b4 38000000 		.4byte	.LVL244
 11670 01b8 58000000 		.4byte	.LFE33
 11671 01bc 0400     		.2byte	0x4
 11672 01be F3       		.byte	0xf3
 11673 01bf 01       		.uleb128 0x1
 11674 01c0 50       		.byte	0x50
 11675 01c1 9F       		.byte	0x9f
 11676 01c2 00000000 		.4byte	0
 11677 01c6 00000000 		.4byte	0
 11678              	.LLST79:
 11679 01ca 00000000 		.4byte	.LVL216
 11680 01ce 04000000 		.4byte	.LVL217
 11681 01d2 0100     		.2byte	0x1
 11682 01d4 50       		.byte	0x50
 11683 01d5 04000000 		.4byte	.LVL217
 11684 01d9 74030000 		.4byte	.LFE32
 11685 01dd 0400     		.2byte	0x4
 11686 01df F3       		.byte	0xf3
 11687 01e0 01       		.uleb128 0x1
 11688 01e1 50       		.byte	0x50
 11689 01e2 9F       		.byte	0x9f
 11690 01e3 00000000 		.4byte	0
 11691 01e7 00000000 		.4byte	0
 11692              	.LLST73:
 11693 01eb 00000000 		.4byte	.LVL194
 11694 01ef 24000000 		.4byte	.LVL195
 11695 01f3 0100     		.2byte	0x1
 11696 01f5 50       		.byte	0x50
 11697 01f6 24000000 		.4byte	.LVL195
 11698 01fa C8000000 		.4byte	.LVL210
 11699 01fe 0100     		.2byte	0x1
 11700 0200 57       		.byte	0x57
 11701 0201 C8000000 		.4byte	.LVL210
 11702 0205 DC000000 		.4byte	.LFE31
 11703 0209 0400     		.2byte	0x4
 11704 020b F3       		.byte	0xf3
 11705 020c 01       		.uleb128 0x1
 11706 020d 50       		.byte	0x50
 11707 020e 9F       		.byte	0x9f
 11708 020f 00000000 		.4byte	0
ARM GAS  /var/folders/3j/4xdnk5197cv_b7cw3n33qk7r0000gn/T//ccxkT2Pi.s 			page 207


 11709 0213 00000000 		.4byte	0
 11710              	.LLST74:
 11711 0217 00000000 		.4byte	.LVL194
 11712 021b 24000000 		.4byte	.LVL195
 11713 021f 0100     		.2byte	0x1
 11714 0221 51       		.byte	0x51
 11715 0222 24000000 		.4byte	.LVL195
 11716 0226 C4000000 		.4byte	.LVL209
 11717 022a 0100     		.2byte	0x1
 11718 022c 55       		.byte	0x55
 11719 022d C4000000 		.4byte	.LVL209
 11720 0231 DC000000 		.4byte	.LFE31
 11721 0235 0400     		.2byte	0x4
 11722 0237 F3       		.byte	0xf3
 11723 0238 01       		.uleb128 0x1
 11724 0239 51       		.byte	0x51
 11725 023a 9F       		.byte	0x9f
 11726 023b 00000000 		.4byte	0
 11727 023f 00000000 		.4byte	0
 11728              	.LLST75:
 11729 0243 00000000 		.4byte	.LVL194
 11730 0247 24000000 		.4byte	.LVL195
 11731 024b 0100     		.2byte	0x1
 11732 024d 52       		.byte	0x52
 11733 024e 24000000 		.4byte	.LVL195
 11734 0252 C4000000 		.4byte	.LVL209
 11735 0256 0100     		.2byte	0x1
 11736 0258 58       		.byte	0x58
 11737 0259 C4000000 		.4byte	.LVL209
 11738 025d DC000000 		.4byte	.LFE31
 11739 0261 0400     		.2byte	0x4
 11740 0263 F3       		.byte	0xf3
 11741 0264 01       		.uleb128 0x1
 11742 0265 52       		.byte	0x52
 11743 0266 9F       		.byte	0x9f
 11744 0267 00000000 		.4byte	0
 11745 026b 00000000 		.4byte	0
 11746              	.LLST76:
 11747 026f 00000000 		.4byte	.LVL194
 11748 0273 24000000 		.4byte	.LVL195
 11749 0277 0200     		.2byte	0x2
 11750 0279 30       		.byte	0x30
 11751 027a 9F       		.byte	0x9f
 11752 027b 24000000 		.4byte	.LVL195
 11753 027f 3C000000 		.4byte	.LVL197
 11754 0283 0100     		.2byte	0x1
 11755 0285 54       		.byte	0x54
 11756 0286 3C000000 		.4byte	.LVL197
 11757 028a 40000000 		.4byte	.LVL198
 11758 028e 0300     		.2byte	0x3
 11759 0290 74       		.byte	0x74
 11760 0291 7F       		.sleb128 -1
 11761 0292 9F       		.byte	0x9f
 11762 0293 48000000 		.4byte	.LVL199
 11763 0297 A0000000 		.4byte	.LVL205
 11764 029b 0100     		.2byte	0x1
 11765 029d 54       		.byte	0x54
ARM GAS  /var/folders/3j/4xdnk5197cv_b7cw3n33qk7r0000gn/T//ccxkT2Pi.s 			page 208


 11766 029e A0000000 		.4byte	.LVL205
 11767 02a2 A4000000 		.4byte	.LVL206
 11768 02a6 0300     		.2byte	0x3
 11769 02a8 74       		.byte	0x74
 11770 02a9 7F       		.sleb128 -1
 11771 02aa 9F       		.byte	0x9f
 11772 02ab BC000000 		.4byte	.LVL208
 11773 02af C4000000 		.4byte	.LVL209
 11774 02b3 0100     		.2byte	0x1
 11775 02b5 54       		.byte	0x54
 11776 02b6 00000000 		.4byte	0
 11777 02ba 00000000 		.4byte	0
 11778              	.LLST77:
 11779 02be 00000000 		.4byte	.LVL212
 11780 02c2 0C000000 		.4byte	.LVL213
 11781 02c6 0100     		.2byte	0x1
 11782 02c8 50       		.byte	0x50
 11783 02c9 0C000000 		.4byte	.LVL213
 11784 02cd 3C000000 		.4byte	.LFE30
 11785 02d1 0100     		.2byte	0x1
 11786 02d3 55       		.byte	0x55
 11787 02d4 00000000 		.4byte	0
 11788 02d8 00000000 		.4byte	0
 11789              	.LLST78:
 11790 02dc 00000000 		.4byte	.LVL212
 11791 02e0 0C000000 		.4byte	.LVL213
 11792 02e4 0200     		.2byte	0x2
 11793 02e6 30       		.byte	0x30
 11794 02e7 9F       		.byte	0x9f
 11795 02e8 0C000000 		.4byte	.LVL213
 11796 02ec 2C000000 		.4byte	.LVL214
 11797 02f0 0100     		.2byte	0x1
 11798 02f2 54       		.byte	0x54
 11799 02f3 2C000000 		.4byte	.LVL214
 11800 02f7 30000000 		.4byte	.LVL215
 11801 02fb 0300     		.2byte	0x3
 11802 02fd 74       		.byte	0x74
 11803 02fe 7F       		.sleb128 -1
 11804 02ff 9F       		.byte	0x9f
 11805 0300 30000000 		.4byte	.LVL215
 11806 0304 3C000000 		.4byte	.LFE30
 11807 0308 0100     		.2byte	0x1
 11808 030a 54       		.byte	0x54
 11809 030b 00000000 		.4byte	0
 11810 030f 00000000 		.4byte	0
 11811              	.LLST46:
 11812 0313 1C000000 		.4byte	.LVL89
 11813 0317 3B000000 		.4byte	.LVL91-1
 11814 031b 0500     		.2byte	0x5
 11815 031d 73       		.byte	0x73
 11816 031e 00       		.sleb128 0
 11817 031f 31       		.byte	0x31
 11818 0320 1A       		.byte	0x1a
 11819 0321 9F       		.byte	0x9f
 11820 0322 3B000000 		.4byte	.LVL91-1
 11821 0326 6C000000 		.4byte	.LFE28
 11822 032a 0700     		.2byte	0x7
ARM GAS  /var/folders/3j/4xdnk5197cv_b7cw3n33qk7r0000gn/T//ccxkT2Pi.s 			page 209


 11823 032c 91       		.byte	0x91
 11824 032d 00       		.sleb128 0
 11825 032e 94       		.byte	0x94
 11826 032f 01       		.byte	0x1
 11827 0330 31       		.byte	0x31
 11828 0331 1A       		.byte	0x1a
 11829 0332 9F       		.byte	0x9f
 11830 0333 00000000 		.4byte	0
 11831 0337 00000000 		.4byte	0
 11832              	.LLST47:
 11833 033b 38000000 		.4byte	.LVL90
 11834 033f 64000000 		.4byte	.LVL93
 11835 0343 0100     		.2byte	0x1
 11836 0345 54       		.byte	0x54
 11837 0346 64000000 		.4byte	.LVL93
 11838 034a 6C000000 		.4byte	.LFE28
 11839 034e 0700     		.2byte	0x7
 11840 0350 91       		.byte	0x91
 11841 0351 00       		.sleb128 0
 11842 0352 94       		.byte	0x94
 11843 0353 01       		.byte	0x1
 11844 0354 32       		.byte	0x32
 11845 0355 1A       		.byte	0x1a
 11846 0356 9F       		.byte	0x9f
 11847 0357 00000000 		.4byte	0
 11848 035b 00000000 		.4byte	0
 11849              	.LLST56:
 11850 035f 48000000 		.4byte	.LVL121
 11851 0363 64000000 		.4byte	.LVL122
 11852 0367 0200     		.2byte	0x2
 11853 0369 30       		.byte	0x30
 11854 036a 9F       		.byte	0x9f
 11855 036b 64000000 		.4byte	.LVL122
 11856 036f 68000000 		.4byte	.LVL123
 11857 0373 0100     		.2byte	0x1
 11858 0375 50       		.byte	0x50
 11859 0376 84000000 		.4byte	.LVL124
 11860 037a 88000000 		.4byte	.LVL125
 11861 037e 0100     		.2byte	0x1
 11862 0380 50       		.byte	0x50
 11863 0381 9C000000 		.4byte	.LVL126
 11864 0385 A0000000 		.4byte	.LVL127
 11865 0389 0100     		.2byte	0x1
 11866 038b 50       		.byte	0x50
 11867 038c B4000000 		.4byte	.LVL128
 11868 0390 B8000000 		.4byte	.LVL129
 11869 0394 0100     		.2byte	0x1
 11870 0396 50       		.byte	0x50
 11871 0397 C8000000 		.4byte	.LVL130
 11872 039b CC000000 		.4byte	.LVL131
 11873 039f 0100     		.2byte	0x1
 11874 03a1 50       		.byte	0x50
 11875 03a2 E0000000 		.4byte	.LVL132
 11876 03a6 E4000000 		.4byte	.LVL133
 11877 03aa 0100     		.2byte	0x1
 11878 03ac 50       		.byte	0x50
 11879 03ad F8000000 		.4byte	.LVL134
ARM GAS  /var/folders/3j/4xdnk5197cv_b7cw3n33qk7r0000gn/T//ccxkT2Pi.s 			page 210


 11880 03b1 FC000000 		.4byte	.LVL135
 11881 03b5 0100     		.2byte	0x1
 11882 03b7 50       		.byte	0x50
 11883 03b8 10010000 		.4byte	.LVL136
 11884 03bc 14010000 		.4byte	.LVL137
 11885 03c0 0100     		.2byte	0x1
 11886 03c2 50       		.byte	0x50
 11887 03c3 28010000 		.4byte	.LVL138
 11888 03c7 2C010000 		.4byte	.LVL139
 11889 03cb 0100     		.2byte	0x1
 11890 03cd 50       		.byte	0x50
 11891 03ce 3C010000 		.4byte	.LVL140
 11892 03d2 44010000 		.4byte	.LFE24
 11893 03d6 0100     		.2byte	0x1
 11894 03d8 50       		.byte	0x50
 11895 03d9 00000000 		.4byte	0
 11896 03dd 00000000 		.4byte	0
 11897              	.LLST41:
 11898 03e1 00000000 		.4byte	.LVL73
 11899 03e5 18000000 		.4byte	.LVL74
 11900 03e9 0100     		.2byte	0x1
 11901 03eb 50       		.byte	0x50
 11902 03ec 18000000 		.4byte	.LVL74
 11903 03f0 88000000 		.4byte	.LFE20
 11904 03f4 0100     		.2byte	0x1
 11905 03f6 56       		.byte	0x56
 11906 03f7 00000000 		.4byte	0
 11907 03fb 00000000 		.4byte	0
 11908              	.LLST42:
 11909 03ff 00000000 		.4byte	.LVL73
 11910 0403 23000000 		.4byte	.LVL75-1
 11911 0407 0100     		.2byte	0x1
 11912 0409 51       		.byte	0x51
 11913 040a 23000000 		.4byte	.LVL75-1
 11914 040e 88000000 		.4byte	.LFE20
 11915 0412 0400     		.2byte	0x4
 11916 0414 F3       		.byte	0xf3
 11917 0415 01       		.uleb128 0x1
 11918 0416 51       		.byte	0x51
 11919 0417 9F       		.byte	0x9f
 11920 0418 00000000 		.4byte	0
 11921 041c 00000000 		.4byte	0
 11922              	.LLST43:
 11923 0420 00000000 		.4byte	.LVL73
 11924 0424 23000000 		.4byte	.LVL75-1
 11925 0428 0100     		.2byte	0x1
 11926 042a 52       		.byte	0x52
 11927 042b 23000000 		.4byte	.LVL75-1
 11928 042f 88000000 		.4byte	.LFE20
 11929 0433 0400     		.2byte	0x4
 11930 0435 F3       		.byte	0xf3
 11931 0436 01       		.uleb128 0x1
 11932 0437 52       		.byte	0x52
 11933 0438 9F       		.byte	0x9f
 11934 0439 00000000 		.4byte	0
 11935 043d 00000000 		.4byte	0
 11936              	.LLST44:
ARM GAS  /var/folders/3j/4xdnk5197cv_b7cw3n33qk7r0000gn/T//ccxkT2Pi.s 			page 211


 11937 0441 00000000 		.4byte	.LVL73
 11938 0445 23000000 		.4byte	.LVL75-1
 11939 0449 0100     		.2byte	0x1
 11940 044b 53       		.byte	0x53
 11941 044c 23000000 		.4byte	.LVL75-1
 11942 0450 88000000 		.4byte	.LFE20
 11943 0454 0400     		.2byte	0x4
 11944 0456 F3       		.byte	0xf3
 11945 0457 01       		.uleb128 0x1
 11946 0458 53       		.byte	0x53
 11947 0459 9F       		.byte	0x9f
 11948 045a 00000000 		.4byte	0
 11949 045e 00000000 		.4byte	0
 11950              	.LLST45:
 11951 0462 40000000 		.4byte	.LVL77
 11952 0466 44000000 		.4byte	.LVL78
 11953 046a 0100     		.2byte	0x1
 11954 046c 50       		.byte	0x50
 11955 046d 44000000 		.4byte	.LVL78
 11956 0471 6C000000 		.4byte	.LVL81
 11957 0475 0100     		.2byte	0x1
 11958 0477 54       		.byte	0x54
 11959 0478 6C000000 		.4byte	.LVL81
 11960 047c 74000000 		.4byte	.LVL82
 11961 0480 0100     		.2byte	0x1
 11962 0482 50       		.byte	0x50
 11963 0483 7C000000 		.4byte	.LVL83
 11964 0487 88000000 		.4byte	.LFE20
 11965 048b 0100     		.2byte	0x1
 11966 048d 54       		.byte	0x54
 11967 048e 00000000 		.4byte	0
 11968 0492 00000000 		.4byte	0
 11969              	.LLST37:
 11970 0496 00000000 		.4byte	.LVL65
 11971 049a 14000000 		.4byte	.LVL66
 11972 049e 0100     		.2byte	0x1
 11973 04a0 50       		.byte	0x50
 11974 04a1 14000000 		.4byte	.LVL66
 11975 04a5 50000000 		.4byte	.LVL72
 11976 04a9 0100     		.2byte	0x1
 11977 04ab 56       		.byte	0x56
 11978 04ac 50000000 		.4byte	.LVL72
 11979 04b0 54000000 		.4byte	.LFE19
 11980 04b4 0400     		.2byte	0x4
 11981 04b6 F3       		.byte	0xf3
 11982 04b7 01       		.uleb128 0x1
 11983 04b8 50       		.byte	0x50
 11984 04b9 9F       		.byte	0x9f
 11985 04ba 00000000 		.4byte	0
 11986 04be 00000000 		.4byte	0
 11987              	.LLST38:
 11988 04c2 00000000 		.4byte	.LVL65
 11989 04c6 1B000000 		.4byte	.LVL67-1
 11990 04ca 0100     		.2byte	0x1
 11991 04cc 51       		.byte	0x51
 11992 04cd 1B000000 		.4byte	.LVL67-1
 11993 04d1 54000000 		.4byte	.LFE19
ARM GAS  /var/folders/3j/4xdnk5197cv_b7cw3n33qk7r0000gn/T//ccxkT2Pi.s 			page 212


 11994 04d5 0400     		.2byte	0x4
 11995 04d7 F3       		.byte	0xf3
 11996 04d8 01       		.uleb128 0x1
 11997 04d9 51       		.byte	0x51
 11998 04da 9F       		.byte	0x9f
 11999 04db 00000000 		.4byte	0
 12000 04df 00000000 		.4byte	0
 12001              	.LLST39:
 12002 04e3 00000000 		.4byte	.LVL65
 12003 04e7 1B000000 		.4byte	.LVL67-1
 12004 04eb 0100     		.2byte	0x1
 12005 04ed 52       		.byte	0x52
 12006 04ee 1B000000 		.4byte	.LVL67-1
 12007 04f2 3C000000 		.4byte	.LVL69
 12008 04f6 0100     		.2byte	0x1
 12009 04f8 55       		.byte	0x55
 12010 04f9 3C000000 		.4byte	.LVL69
 12011 04fd 54000000 		.4byte	.LFE19
 12012 0501 0400     		.2byte	0x4
 12013 0503 F3       		.byte	0xf3
 12014 0504 01       		.uleb128 0x1
 12015 0505 52       		.byte	0x52
 12016 0506 9F       		.byte	0x9f
 12017 0507 00000000 		.4byte	0
 12018 050b 00000000 		.4byte	0
 12019              	.LLST40:
 12020 050f 3C000000 		.4byte	.LVL69
 12021 0513 40000000 		.4byte	.LVL70
 12022 0517 0100     		.2byte	0x1
 12023 0519 50       		.byte	0x50
 12024 051a 40000000 		.4byte	.LVL70
 12025 051e 50000000 		.4byte	.LVL72
 12026 0522 0100     		.2byte	0x1
 12027 0524 55       		.byte	0x55
 12028 0525 00000000 		.4byte	0
 12029 0529 00000000 		.4byte	0
 12030              	.LLST33:
 12031 052d 00000000 		.4byte	.LVL57
 12032 0531 14000000 		.4byte	.LVL58
 12033 0535 0100     		.2byte	0x1
 12034 0537 50       		.byte	0x50
 12035 0538 14000000 		.4byte	.LVL58
 12036 053c 50000000 		.4byte	.LVL64
 12037 0540 0100     		.2byte	0x1
 12038 0542 56       		.byte	0x56
 12039 0543 50000000 		.4byte	.LVL64
 12040 0547 54000000 		.4byte	.LFE18
 12041 054b 0400     		.2byte	0x4
 12042 054d F3       		.byte	0xf3
 12043 054e 01       		.uleb128 0x1
 12044 054f 50       		.byte	0x50
 12045 0550 9F       		.byte	0x9f
 12046 0551 00000000 		.4byte	0
 12047 0555 00000000 		.4byte	0
 12048              	.LLST34:
 12049 0559 00000000 		.4byte	.LVL57
 12050 055d 1B000000 		.4byte	.LVL59-1
ARM GAS  /var/folders/3j/4xdnk5197cv_b7cw3n33qk7r0000gn/T//ccxkT2Pi.s 			page 213


 12051 0561 0100     		.2byte	0x1
 12052 0563 51       		.byte	0x51
 12053 0564 1B000000 		.4byte	.LVL59-1
 12054 0568 54000000 		.4byte	.LFE18
 12055 056c 0400     		.2byte	0x4
 12056 056e F3       		.byte	0xf3
 12057 056f 01       		.uleb128 0x1
 12058 0570 51       		.byte	0x51
 12059 0571 9F       		.byte	0x9f
 12060 0572 00000000 		.4byte	0
 12061 0576 00000000 		.4byte	0
 12062              	.LLST35:
 12063 057a 00000000 		.4byte	.LVL57
 12064 057e 1B000000 		.4byte	.LVL59-1
 12065 0582 0100     		.2byte	0x1
 12066 0584 52       		.byte	0x52
 12067 0585 1B000000 		.4byte	.LVL59-1
 12068 0589 3C000000 		.4byte	.LVL61
 12069 058d 0100     		.2byte	0x1
 12070 058f 55       		.byte	0x55
 12071 0590 3C000000 		.4byte	.LVL61
 12072 0594 54000000 		.4byte	.LFE18
 12073 0598 0400     		.2byte	0x4
 12074 059a F3       		.byte	0xf3
 12075 059b 01       		.uleb128 0x1
 12076 059c 52       		.byte	0x52
 12077 059d 9F       		.byte	0x9f
 12078 059e 00000000 		.4byte	0
 12079 05a2 00000000 		.4byte	0
 12080              	.LLST36:
 12081 05a6 3C000000 		.4byte	.LVL61
 12082 05aa 40000000 		.4byte	.LVL62
 12083 05ae 0100     		.2byte	0x1
 12084 05b0 50       		.byte	0x50
 12085 05b1 40000000 		.4byte	.LVL62
 12086 05b5 50000000 		.4byte	.LVL64
 12087 05b9 0100     		.2byte	0x1
 12088 05bb 55       		.byte	0x55
 12089 05bc 00000000 		.4byte	0
 12090 05c0 00000000 		.4byte	0
 12091              	.LLST29:
 12092 05c4 00000000 		.4byte	.LVL48
 12093 05c8 20000000 		.4byte	.LVL49
 12094 05cc 0100     		.2byte	0x1
 12095 05ce 50       		.byte	0x50
 12096 05cf 20000000 		.4byte	.LVL49
 12097 05d3 64000000 		.4byte	.LVL53
 12098 05d7 0100     		.2byte	0x1
 12099 05d9 55       		.byte	0x55
 12100 05da 64000000 		.4byte	.LVL53
 12101 05de 7C000000 		.4byte	.LFE17
 12102 05e2 0400     		.2byte	0x4
 12103 05e4 F3       		.byte	0xf3
 12104 05e5 01       		.uleb128 0x1
 12105 05e6 50       		.byte	0x50
 12106 05e7 9F       		.byte	0x9f
 12107 05e8 00000000 		.4byte	0
ARM GAS  /var/folders/3j/4xdnk5197cv_b7cw3n33qk7r0000gn/T//ccxkT2Pi.s 			page 214


 12108 05ec 00000000 		.4byte	0
 12109              	.LLST30:
 12110 05f0 00000000 		.4byte	.LVL48
 12111 05f4 37000000 		.4byte	.LVL51-1
 12112 05f8 0100     		.2byte	0x1
 12113 05fa 51       		.byte	0x51
 12114 05fb 37000000 		.4byte	.LVL51-1
 12115 05ff 7C000000 		.4byte	.LFE17
 12116 0603 0400     		.2byte	0x4
 12117 0605 F3       		.byte	0xf3
 12118 0606 01       		.uleb128 0x1
 12119 0607 51       		.byte	0x51
 12120 0608 9F       		.byte	0x9f
 12121 0609 00000000 		.4byte	0
 12122 060d 00000000 		.4byte	0
 12123              	.LLST31:
 12124 0611 00000000 		.4byte	.LVL48
 12125 0615 24000000 		.4byte	.LVL50
 12126 0619 0100     		.2byte	0x1
 12127 061b 52       		.byte	0x52
 12128 061c 24000000 		.4byte	.LVL50
 12129 0620 7C000000 		.4byte	.LFE17
 12130 0624 0400     		.2byte	0x4
 12131 0626 F3       		.byte	0xf3
 12132 0627 01       		.uleb128 0x1
 12133 0628 52       		.byte	0x52
 12134 0629 9F       		.byte	0x9f
 12135 062a 00000000 		.4byte	0
 12136 062e 00000000 		.4byte	0
 12137              	.LLST32:
 12138 0632 64000000 		.4byte	.LVL53
 12139 0636 68000000 		.4byte	.LVL54
 12140 063a 0100     		.2byte	0x1
 12141 063c 50       		.byte	0x50
 12142 063d 68000000 		.4byte	.LVL54
 12143 0641 78000000 		.4byte	.LVL56
 12144 0645 0100     		.2byte	0x1
 12145 0647 55       		.byte	0x55
 12146 0648 00000000 		.4byte	0
 12147 064c 00000000 		.4byte	0
 12148              	.LLST25:
 12149 0650 00000000 		.4byte	.LVL40
 12150 0654 18000000 		.4byte	.LVL41
 12151 0658 0100     		.2byte	0x1
 12152 065a 50       		.byte	0x50
 12153 065b 18000000 		.4byte	.LVL41
 12154 065f 54000000 		.4byte	.LVL44
 12155 0663 0100     		.2byte	0x1
 12156 0665 55       		.byte	0x55
 12157 0666 54000000 		.4byte	.LVL44
 12158 066a 6C000000 		.4byte	.LFE16
 12159 066e 0400     		.2byte	0x4
 12160 0670 F3       		.byte	0xf3
 12161 0671 01       		.uleb128 0x1
 12162 0672 50       		.byte	0x50
 12163 0673 9F       		.byte	0x9f
 12164 0674 00000000 		.4byte	0
ARM GAS  /var/folders/3j/4xdnk5197cv_b7cw3n33qk7r0000gn/T//ccxkT2Pi.s 			page 215


 12165 0678 00000000 		.4byte	0
 12166              	.LLST26:
 12167 067c 00000000 		.4byte	.LVL40
 12168 0680 27000000 		.4byte	.LVL42-1
 12169 0684 0100     		.2byte	0x1
 12170 0686 51       		.byte	0x51
 12171 0687 27000000 		.4byte	.LVL42-1
 12172 068b 6C000000 		.4byte	.LFE16
 12173 068f 0400     		.2byte	0x4
 12174 0691 F3       		.byte	0xf3
 12175 0692 01       		.uleb128 0x1
 12176 0693 51       		.byte	0x51
 12177 0694 9F       		.byte	0x9f
 12178 0695 00000000 		.4byte	0
 12179 0699 00000000 		.4byte	0
 12180              	.LLST27:
 12181 069d 00000000 		.4byte	.LVL40
 12182 06a1 27000000 		.4byte	.LVL42-1
 12183 06a5 0100     		.2byte	0x1
 12184 06a7 52       		.byte	0x52
 12185 06a8 27000000 		.4byte	.LVL42-1
 12186 06ac 6C000000 		.4byte	.LFE16
 12187 06b0 0400     		.2byte	0x4
 12188 06b2 F3       		.byte	0xf3
 12189 06b3 01       		.uleb128 0x1
 12190 06b4 52       		.byte	0x52
 12191 06b5 9F       		.byte	0x9f
 12192 06b6 00000000 		.4byte	0
 12193 06ba 00000000 		.4byte	0
 12194              	.LLST28:
 12195 06be 54000000 		.4byte	.LVL44
 12196 06c2 58000000 		.4byte	.LVL45
 12197 06c6 0100     		.2byte	0x1
 12198 06c8 50       		.byte	0x50
 12199 06c9 58000000 		.4byte	.LVL45
 12200 06cd 68000000 		.4byte	.LVL47
 12201 06d1 0100     		.2byte	0x1
 12202 06d3 55       		.byte	0x55
 12203 06d4 00000000 		.4byte	0
 12204 06d8 00000000 		.4byte	0
 12205              	.LLST19:
 12206 06dc 00000000 		.4byte	.LVL32
 12207 06e0 24000000 		.4byte	.LVL34
 12208 06e4 0100     		.2byte	0x1
 12209 06e6 50       		.byte	0x50
 12210 06e7 24000000 		.4byte	.LVL34
 12211 06eb 58000000 		.4byte	.LVL39
 12212 06ef 0100     		.2byte	0x1
 12213 06f1 56       		.byte	0x56
 12214 06f2 58000000 		.4byte	.LVL39
 12215 06f6 64000000 		.4byte	.LFE15
 12216 06fa 0400     		.2byte	0x4
 12217 06fc F3       		.byte	0xf3
 12218 06fd 01       		.uleb128 0x1
 12219 06fe 50       		.byte	0x50
 12220 06ff 9F       		.byte	0x9f
 12221 0700 00000000 		.4byte	0
ARM GAS  /var/folders/3j/4xdnk5197cv_b7cw3n33qk7r0000gn/T//ccxkT2Pi.s 			page 216


 12222 0704 00000000 		.4byte	0
 12223              	.LLST20:
 12224 0708 00000000 		.4byte	.LVL32
 12225 070c 24000000 		.4byte	.LVL34
 12226 0710 0100     		.2byte	0x1
 12227 0712 51       		.byte	0x51
 12228 0713 24000000 		.4byte	.LVL34
 12229 0717 64000000 		.4byte	.LFE15
 12230 071b 0400     		.2byte	0x4
 12231 071d F3       		.byte	0xf3
 12232 071e 01       		.uleb128 0x1
 12233 071f 51       		.byte	0x51
 12234 0720 9F       		.byte	0x9f
 12235 0721 00000000 		.4byte	0
 12236 0725 00000000 		.4byte	0
 12237              	.LLST21:
 12238 0729 00000000 		.4byte	.LVL32
 12239 072d 24000000 		.4byte	.LVL34
 12240 0731 0100     		.2byte	0x1
 12241 0733 52       		.byte	0x52
 12242 0734 24000000 		.4byte	.LVL34
 12243 0738 64000000 		.4byte	.LFE15
 12244 073c 0400     		.2byte	0x4
 12245 073e F3       		.byte	0xf3
 12246 073f 01       		.uleb128 0x1
 12247 0740 52       		.byte	0x52
 12248 0741 9F       		.byte	0x9f
 12249 0742 00000000 		.4byte	0
 12250 0746 00000000 		.4byte	0
 12251              	.LLST22:
 12252 074a 00000000 		.4byte	.LVL32
 12253 074e 24000000 		.4byte	.LVL34
 12254 0752 0100     		.2byte	0x1
 12255 0754 53       		.byte	0x53
 12256 0755 24000000 		.4byte	.LVL34
 12257 0759 64000000 		.4byte	.LFE15
 12258 075d 0400     		.2byte	0x4
 12259 075f F3       		.byte	0xf3
 12260 0760 01       		.uleb128 0x1
 12261 0761 53       		.byte	0x53
 12262 0762 9F       		.byte	0x9f
 12263 0763 00000000 		.4byte	0
 12264 0767 00000000 		.4byte	0
 12265              	.LLST23:
 12266 076b 08000000 		.4byte	.LVL33
 12267 076f 24000000 		.4byte	.LVL34
 12268 0773 0200     		.2byte	0x2
 12269 0775 30       		.byte	0x30
 12270 0776 9F       		.byte	0x9f
 12271 0777 24000000 		.4byte	.LVL34
 12272 077b 34000000 		.4byte	.LVL36
 12273 077f 0100     		.2byte	0x1
 12274 0781 50       		.byte	0x50
 12275 0782 44000000 		.4byte	.LVL37
 12276 0786 50000000 		.4byte	.LVL38
 12277 078a 0100     		.2byte	0x1
 12278 078c 50       		.byte	0x50
ARM GAS  /var/folders/3j/4xdnk5197cv_b7cw3n33qk7r0000gn/T//ccxkT2Pi.s 			page 217


 12279 078d 00000000 		.4byte	0
 12280 0791 00000000 		.4byte	0
 12281              	.LLST24:
 12282 0795 08000000 		.4byte	.LVL33
 12283 0799 24000000 		.4byte	.LVL34
 12284 079d 0200     		.2byte	0x2
 12285 079f 30       		.byte	0x30
 12286 07a0 9F       		.byte	0x9f
 12287 07a1 24000000 		.4byte	.LVL34
 12288 07a5 58000000 		.4byte	.LVL39
 12289 07a9 0900     		.2byte	0x9
 12290 07ab 74       		.byte	0x74
 12291 07ac 00       		.sleb128 0
 12292 07ad F3       		.byte	0xf3
 12293 07ae 01       		.uleb128 0x1
 12294 07af 52       		.byte	0x52
 12295 07b0 1C       		.byte	0x1c
 12296 07b1 23       		.byte	0x23
 12297 07b2 01       		.uleb128 0x1
 12298 07b3 9F       		.byte	0x9f
 12299 07b4 00000000 		.4byte	0
 12300 07b8 00000000 		.4byte	0
 12301              	.LLST12:
 12302 07bc 00000000 		.4byte	.LVL24
 12303 07c0 20000000 		.4byte	.LVL26
 12304 07c4 0100     		.2byte	0x1
 12305 07c6 50       		.byte	0x50
 12306 07c7 20000000 		.4byte	.LVL26
 12307 07cb 48000000 		.4byte	.LVL31
 12308 07cf 0100     		.2byte	0x1
 12309 07d1 56       		.byte	0x56
 12310 07d2 48000000 		.4byte	.LVL31
 12311 07d6 50000000 		.4byte	.LFE14
 12312 07da 0400     		.2byte	0x4
 12313 07dc F3       		.byte	0xf3
 12314 07dd 01       		.uleb128 0x1
 12315 07de 50       		.byte	0x50
 12316 07df 9F       		.byte	0x9f
 12317 07e0 00000000 		.4byte	0
 12318 07e4 00000000 		.4byte	0
 12319              	.LLST13:
 12320 07e8 00000000 		.4byte	.LVL24
 12321 07ec 20000000 		.4byte	.LVL26
 12322 07f0 0100     		.2byte	0x1
 12323 07f2 51       		.byte	0x51
 12324 07f3 20000000 		.4byte	.LVL26
 12325 07f7 50000000 		.4byte	.LFE14
 12326 07fb 0400     		.2byte	0x4
 12327 07fd F3       		.byte	0xf3
 12328 07fe 01       		.uleb128 0x1
 12329 07ff 51       		.byte	0x51
 12330 0800 9F       		.byte	0x9f
 12331 0801 00000000 		.4byte	0
 12332 0805 00000000 		.4byte	0
 12333              	.LLST14:
 12334 0809 00000000 		.4byte	.LVL24
 12335 080d 20000000 		.4byte	.LVL26
ARM GAS  /var/folders/3j/4xdnk5197cv_b7cw3n33qk7r0000gn/T//ccxkT2Pi.s 			page 218


 12336 0811 0100     		.2byte	0x1
 12337 0813 52       		.byte	0x52
 12338 0814 20000000 		.4byte	.LVL26
 12339 0818 50000000 		.4byte	.LFE14
 12340 081c 0400     		.2byte	0x4
 12341 081e F3       		.byte	0xf3
 12342 081f 01       		.uleb128 0x1
 12343 0820 52       		.byte	0x52
 12344 0821 9F       		.byte	0x9f
 12345 0822 00000000 		.4byte	0
 12346 0826 00000000 		.4byte	0
 12347              	.LLST15:
 12348 082a 00000000 		.4byte	.LVL24
 12349 082e 20000000 		.4byte	.LVL26
 12350 0832 0100     		.2byte	0x1
 12351 0834 53       		.byte	0x53
 12352 0835 20000000 		.4byte	.LVL26
 12353 0839 50000000 		.4byte	.LFE14
 12354 083d 0400     		.2byte	0x4
 12355 083f F3       		.byte	0xf3
 12356 0840 01       		.uleb128 0x1
 12357 0841 53       		.byte	0x53
 12358 0842 9F       		.byte	0x9f
 12359 0843 00000000 		.4byte	0
 12360 0847 00000000 		.4byte	0
 12361              	.LLST16:
 12362 084b 08000000 		.4byte	.LVL25
 12363 084f 20000000 		.4byte	.LVL26
 12364 0853 0200     		.2byte	0x2
 12365 0855 30       		.byte	0x30
 12366 0856 9F       		.byte	0x9f
 12367 0857 20000000 		.4byte	.LVL26
 12368 085b 28000000 		.4byte	.LVL27
 12369 085f 0100     		.2byte	0x1
 12370 0861 50       		.byte	0x50
 12371 0862 38000000 		.4byte	.LVL29
 12372 0866 44000000 		.4byte	.LVL30
 12373 086a 0100     		.2byte	0x1
 12374 086c 50       		.byte	0x50
 12375 086d 00000000 		.4byte	0
 12376 0871 00000000 		.4byte	0
 12377              	.LLST17:
 12378 0875 08000000 		.4byte	.LVL25
 12379 0879 20000000 		.4byte	.LVL26
 12380 087d 0200     		.2byte	0x2
 12381 087f 30       		.byte	0x30
 12382 0880 9F       		.byte	0x9f
 12383 0881 20000000 		.4byte	.LVL26
 12384 0885 2C000000 		.4byte	.LVL28
 12385 0889 0900     		.2byte	0x9
 12386 088b 74       		.byte	0x74
 12387 088c 00       		.sleb128 0
 12388 088d F3       		.byte	0xf3
 12389 088e 01       		.uleb128 0x1
 12390 088f 52       		.byte	0x52
 12391 0890 1C       		.byte	0x1c
 12392 0891 23       		.byte	0x23
ARM GAS  /var/folders/3j/4xdnk5197cv_b7cw3n33qk7r0000gn/T//ccxkT2Pi.s 			page 219


 12393 0892 01       		.uleb128 0x1
 12394 0893 9F       		.byte	0x9f
 12395 0894 2C000000 		.4byte	.LVL28
 12396 0898 38000000 		.4byte	.LVL29
 12397 089c 0700     		.2byte	0x7
 12398 089e 74       		.byte	0x74
 12399 089f 00       		.sleb128 0
 12400 08a0 F3       		.byte	0xf3
 12401 08a1 01       		.uleb128 0x1
 12402 08a2 52       		.byte	0x52
 12403 08a3 1C       		.byte	0x1c
 12404 08a4 9F       		.byte	0x9f
 12405 08a5 38000000 		.4byte	.LVL29
 12406 08a9 48000000 		.4byte	.LVL31
 12407 08ad 0900     		.2byte	0x9
 12408 08af 74       		.byte	0x74
 12409 08b0 00       		.sleb128 0
 12410 08b1 F3       		.byte	0xf3
 12411 08b2 01       		.uleb128 0x1
 12412 08b3 52       		.byte	0x52
 12413 08b4 1C       		.byte	0x1c
 12414 08b5 23       		.byte	0x23
 12415 08b6 01       		.uleb128 0x1
 12416 08b7 9F       		.byte	0x9f
 12417 08b8 00000000 		.4byte	0
 12418 08bc 00000000 		.4byte	0
 12419              	.LLST18:
 12420 08c0 28000000 		.4byte	.LVL27
 12421 08c4 2C000000 		.4byte	.LVL28
 12422 08c8 0200     		.2byte	0x2
 12423 08ca 74       		.byte	0x74
 12424 08cb 00       		.sleb128 0
 12425 08cc 2C000000 		.4byte	.LVL28
 12426 08d0 37000000 		.4byte	.LVL29-1
 12427 08d4 0200     		.2byte	0x2
 12428 08d6 74       		.byte	0x74
 12429 08d7 7F       		.sleb128 -1
 12430 08d8 00000000 		.4byte	0
 12431 08dc 00000000 		.4byte	0
 12432              	.LLST11:
 12433 08e0 00000000 		.4byte	.LVL22
 12434 08e4 04000000 		.4byte	.LVL23
 12435 08e8 0100     		.2byte	0x1
 12436 08ea 50       		.byte	0x50
 12437 08eb 04000000 		.4byte	.LVL23
 12438 08ef 08000000 		.4byte	.LFE13
 12439 08f3 0400     		.2byte	0x4
 12440 08f5 F3       		.byte	0xf3
 12441 08f6 01       		.uleb128 0x1
 12442 08f7 50       		.byte	0x50
 12443 08f8 9F       		.byte	0x9f
 12444 08f9 00000000 		.4byte	0
 12445 08fd 00000000 		.4byte	0
 12446              	.LLST7:
 12447 0901 00000000 		.4byte	.LVL14
 12448 0905 14000000 		.4byte	.LVL15
 12449 0909 0100     		.2byte	0x1
ARM GAS  /var/folders/3j/4xdnk5197cv_b7cw3n33qk7r0000gn/T//ccxkT2Pi.s 			page 220


 12450 090b 50       		.byte	0x50
 12451 090c 14000000 		.4byte	.LVL15
 12452 0910 4C000000 		.4byte	.LVL18
 12453 0914 0100     		.2byte	0x1
 12454 0916 55       		.byte	0x55
 12455 0917 4C000000 		.4byte	.LVL18
 12456 091b 64000000 		.4byte	.LFE12
 12457 091f 0400     		.2byte	0x4
 12458 0921 F3       		.byte	0xf3
 12459 0922 01       		.uleb128 0x1
 12460 0923 50       		.byte	0x50
 12461 0924 9F       		.byte	0x9f
 12462 0925 00000000 		.4byte	0
 12463 0929 00000000 		.4byte	0
 12464              	.LLST8:
 12465 092d 00000000 		.4byte	.LVL14
 12466 0931 1F000000 		.4byte	.LVL16-1
 12467 0935 0100     		.2byte	0x1
 12468 0937 51       		.byte	0x51
 12469 0938 1F000000 		.4byte	.LVL16-1
 12470 093c 64000000 		.4byte	.LFE12
 12471 0940 0400     		.2byte	0x4
 12472 0942 F3       		.byte	0xf3
 12473 0943 01       		.uleb128 0x1
 12474 0944 51       		.byte	0x51
 12475 0945 9F       		.byte	0x9f
 12476 0946 00000000 		.4byte	0
 12477 094a 00000000 		.4byte	0
 12478              	.LLST9:
 12479 094e 00000000 		.4byte	.LVL14
 12480 0952 1F000000 		.4byte	.LVL16-1
 12481 0956 0100     		.2byte	0x1
 12482 0958 52       		.byte	0x52
 12483 0959 1F000000 		.4byte	.LVL16-1
 12484 095d 64000000 		.4byte	.LFE12
 12485 0961 0400     		.2byte	0x4
 12486 0963 F3       		.byte	0xf3
 12487 0964 01       		.uleb128 0x1
 12488 0965 52       		.byte	0x52
 12489 0966 9F       		.byte	0x9f
 12490 0967 00000000 		.4byte	0
 12491 096b 00000000 		.4byte	0
 12492              	.LLST10:
 12493 096f 4C000000 		.4byte	.LVL18
 12494 0973 50000000 		.4byte	.LVL19
 12495 0977 0100     		.2byte	0x1
 12496 0979 50       		.byte	0x50
 12497 097a 50000000 		.4byte	.LVL19
 12498 097e 60000000 		.4byte	.LVL21
 12499 0982 0100     		.2byte	0x1
 12500 0984 55       		.byte	0x55
 12501 0985 00000000 		.4byte	0
 12502 0989 00000000 		.4byte	0
 12503              	.LLST3:
 12504 098d 00000000 		.4byte	.LVL6
 12505 0991 14000000 		.4byte	.LVL7
 12506 0995 0100     		.2byte	0x1
ARM GAS  /var/folders/3j/4xdnk5197cv_b7cw3n33qk7r0000gn/T//ccxkT2Pi.s 			page 221


 12507 0997 50       		.byte	0x50
 12508 0998 14000000 		.4byte	.LVL7
 12509 099c 50000000 		.4byte	.LVL13
 12510 09a0 0100     		.2byte	0x1
 12511 09a2 56       		.byte	0x56
 12512 09a3 50000000 		.4byte	.LVL13
 12513 09a7 54000000 		.4byte	.LFE11
 12514 09ab 0400     		.2byte	0x4
 12515 09ad F3       		.byte	0xf3
 12516 09ae 01       		.uleb128 0x1
 12517 09af 50       		.byte	0x50
 12518 09b0 9F       		.byte	0x9f
 12519 09b1 00000000 		.4byte	0
 12520 09b5 00000000 		.4byte	0
 12521              	.LLST4:
 12522 09b9 00000000 		.4byte	.LVL6
 12523 09bd 1B000000 		.4byte	.LVL8-1
 12524 09c1 0100     		.2byte	0x1
 12525 09c3 51       		.byte	0x51
 12526 09c4 1B000000 		.4byte	.LVL8-1
 12527 09c8 54000000 		.4byte	.LFE11
 12528 09cc 0400     		.2byte	0x4
 12529 09ce F3       		.byte	0xf3
 12530 09cf 01       		.uleb128 0x1
 12531 09d0 51       		.byte	0x51
 12532 09d1 9F       		.byte	0x9f
 12533 09d2 00000000 		.4byte	0
 12534 09d6 00000000 		.4byte	0
 12535              	.LLST5:
 12536 09da 00000000 		.4byte	.LVL6
 12537 09de 1B000000 		.4byte	.LVL8-1
 12538 09e2 0100     		.2byte	0x1
 12539 09e4 52       		.byte	0x52
 12540 09e5 1B000000 		.4byte	.LVL8-1
 12541 09e9 3C000000 		.4byte	.LVL10
 12542 09ed 0100     		.2byte	0x1
 12543 09ef 55       		.byte	0x55
 12544 09f0 3C000000 		.4byte	.LVL10
 12545 09f4 54000000 		.4byte	.LFE11
 12546 09f8 0400     		.2byte	0x4
 12547 09fa F3       		.byte	0xf3
 12548 09fb 01       		.uleb128 0x1
 12549 09fc 52       		.byte	0x52
 12550 09fd 9F       		.byte	0x9f
 12551 09fe 00000000 		.4byte	0
 12552 0a02 00000000 		.4byte	0
 12553              	.LLST6:
 12554 0a06 3C000000 		.4byte	.LVL10
 12555 0a0a 40000000 		.4byte	.LVL11
 12556 0a0e 0100     		.2byte	0x1
 12557 0a10 50       		.byte	0x50
 12558 0a11 40000000 		.4byte	.LVL11
 12559 0a15 50000000 		.4byte	.LVL13
 12560 0a19 0100     		.2byte	0x1
 12561 0a1b 55       		.byte	0x55
 12562 0a1c 00000000 		.4byte	0
 12563 0a20 00000000 		.4byte	0
ARM GAS  /var/folders/3j/4xdnk5197cv_b7cw3n33qk7r0000gn/T//ccxkT2Pi.s 			page 222


 12564              	.LLST57:
 12565 0a24 00000000 		.4byte	.LVL141
 12566 0a28 58000000 		.4byte	.LVL143
 12567 0a2c 0200     		.2byte	0x2
 12568 0a2e 30       		.byte	0x30
 12569 0a2f 9F       		.byte	0x9f
 12570 0a30 58000000 		.4byte	.LVL143
 12571 0a34 5C000000 		.4byte	.LVL144
 12572 0a38 0100     		.2byte	0x1
 12573 0a3a 50       		.byte	0x50
 12574 0a3b 00000000 		.4byte	0
 12575 0a3f 00000000 		.4byte	0
 12576              	.LLST58:
 12577 0a43 00000000 		.4byte	.LVL147
 12578 0a47 44010000 		.4byte	.LVL170
 12579 0a4b 0200     		.2byte	0x2
 12580 0a4d 30       		.byte	0x30
 12581 0a4e 9F       		.byte	0x9f
 12582 0a4f 44010000 		.4byte	.LVL170
 12583 0a53 5C010000 		.4byte	.LVL171
 12584 0a57 0100     		.2byte	0x1
 12585 0a59 50       		.byte	0x50
 12586 0a5a D8020000 		.4byte	.LVL184
 12587 0a5e EC020000 		.4byte	.LFE42
 12588 0a62 0100     		.2byte	0x1
 12589 0a64 50       		.byte	0x50
 12590 0a65 00000000 		.4byte	0
 12591 0a69 00000000 		.4byte	0
 12592              	.LLST59:
 12593 0a6d 30000000 		.4byte	.LVL148
 12594 0a71 88000000 		.4byte	.LVL156
 12595 0a75 0200     		.2byte	0x2
 12596 0a77 30       		.byte	0x30
 12597 0a78 9F       		.byte	0x9f
 12598 0a79 00000000 		.4byte	0
 12599 0a7d 00000000 		.4byte	0
 12600              	.LLST60:
 12601 0a81 30000000 		.4byte	.LVL148
 12602 0a85 50000000 		.4byte	.LVL151
 12603 0a89 0200     		.2byte	0x2
 12604 0a8b 30       		.byte	0x30
 12605 0a8c 9F       		.byte	0x9f
 12606 0a8d 50000000 		.4byte	.LVL151
 12607 0a91 88000000 		.4byte	.LVL156
 12608 0a95 0200     		.2byte	0x2
 12609 0a97 31       		.byte	0x31
 12610 0a98 9F       		.byte	0x9f
 12611 0a99 00000000 		.4byte	0
 12612 0a9d 00000000 		.4byte	0
 12613              	.LLST61:
 12614 0aa1 30000000 		.4byte	.LVL148
 12615 0aa5 40000000 		.4byte	.LVL150
 12616 0aa9 0200     		.2byte	0x2
 12617 0aab 30       		.byte	0x30
 12618 0aac 9F       		.byte	0x9f
 12619 0aad 40000000 		.4byte	.LVL150
 12620 0ab1 60000000 		.4byte	.LVL153
ARM GAS  /var/folders/3j/4xdnk5197cv_b7cw3n33qk7r0000gn/T//ccxkT2Pi.s 			page 223


 12621 0ab5 0100     		.2byte	0x1
 12622 0ab7 54       		.byte	0x54
 12623 0ab8 00000000 		.4byte	0
 12624 0abc 00000000 		.4byte	0
 12625              	.LLST62:
 12626 0ac0 88000000 		.4byte	.LVL156
 12627 0ac4 A0000000 		.4byte	.LVL159
 12628 0ac8 0200     		.2byte	0x2
 12629 0aca 32       		.byte	0x32
 12630 0acb 9F       		.byte	0x9f
 12631 0acc 00000000 		.4byte	0
 12632 0ad0 00000000 		.4byte	0
 12633              	.LLST63:
 12634 0ad4 88000000 		.4byte	.LVL156
 12635 0ad8 9C000000 		.4byte	.LVL158
 12636 0adc 0200     		.2byte	0x2
 12637 0ade 32       		.byte	0x32
 12638 0adf 9F       		.byte	0x9f
 12639 0ae0 9C000000 		.4byte	.LVL158
 12640 0ae4 A0000000 		.4byte	.LVL159
 12641 0ae8 0200     		.2byte	0x2
 12642 0aea 33       		.byte	0x33
 12643 0aeb 9F       		.byte	0x9f
 12644 0aec 00000000 		.4byte	0
 12645 0af0 00000000 		.4byte	0
 12646              	.LLST64:
 12647 0af4 88000000 		.4byte	.LVL156
 12648 0af8 8C000000 		.4byte	.LVL157
 12649 0afc 0200     		.2byte	0x2
 12650 0afe 30       		.byte	0x30
 12651 0aff 9F       		.byte	0x9f
 12652 0b00 8C000000 		.4byte	.LVL157
 12653 0b04 A0000000 		.4byte	.LVL159
 12654 0b08 0100     		.2byte	0x1
 12655 0b0a 54       		.byte	0x54
 12656 0b0b 00000000 		.4byte	0
 12657 0b0f 00000000 		.4byte	0
 12658              	.LLST65:
 12659 0b13 C4000000 		.4byte	.LVL160
 12660 0b17 EC000000 		.4byte	.LVL164
 12661 0b1b 0200     		.2byte	0x2
 12662 0b1d 30       		.byte	0x30
 12663 0b1e 9F       		.byte	0x9f
 12664 0b1f 00000000 		.4byte	0
 12665 0b23 00000000 		.4byte	0
 12666              	.LLST66:
 12667 0b27 C4000000 		.4byte	.LVL160
 12668 0b2b E8000000 		.4byte	.LVL163
 12669 0b2f 0200     		.2byte	0x2
 12670 0b31 30       		.byte	0x30
 12671 0b32 9F       		.byte	0x9f
 12672 0b33 E8000000 		.4byte	.LVL163
 12673 0b37 EC000000 		.4byte	.LVL164
 12674 0b3b 0200     		.2byte	0x2
 12675 0b3d 31       		.byte	0x31
 12676 0b3e 9F       		.byte	0x9f
 12677 0b3f 00000000 		.4byte	0
ARM GAS  /var/folders/3j/4xdnk5197cv_b7cw3n33qk7r0000gn/T//ccxkT2Pi.s 			page 224


 12678 0b43 00000000 		.4byte	0
 12679              	.LLST67:
 12680 0b47 C4000000 		.4byte	.LVL160
 12681 0b4b D8000000 		.4byte	.LVL162
 12682 0b4f 0200     		.2byte	0x2
 12683 0b51 30       		.byte	0x30
 12684 0b52 9F       		.byte	0x9f
 12685 0b53 D8000000 		.4byte	.LVL162
 12686 0b57 EC000000 		.4byte	.LVL164
 12687 0b5b 0100     		.2byte	0x1
 12688 0b5d 54       		.byte	0x54
 12689 0b5e 00000000 		.4byte	0
 12690 0b62 00000000 		.4byte	0
 12691              	.LLST68:
 12692 0b66 10010000 		.4byte	.LVL165
 12693 0b6a 38010000 		.4byte	.LVL169
 12694 0b6e 0200     		.2byte	0x2
 12695 0b70 32       		.byte	0x32
 12696 0b71 9F       		.byte	0x9f
 12697 0b72 00000000 		.4byte	0
 12698 0b76 00000000 		.4byte	0
 12699              	.LLST69:
 12700 0b7a 10010000 		.4byte	.LVL165
 12701 0b7e 34010000 		.4byte	.LVL168
 12702 0b82 0200     		.2byte	0x2
 12703 0b84 32       		.byte	0x32
 12704 0b85 9F       		.byte	0x9f
 12705 0b86 34010000 		.4byte	.LVL168
 12706 0b8a 38010000 		.4byte	.LVL169
 12707 0b8e 0200     		.2byte	0x2
 12708 0b90 33       		.byte	0x33
 12709 0b91 9F       		.byte	0x9f
 12710 0b92 00000000 		.4byte	0
 12711 0b96 00000000 		.4byte	0
 12712              	.LLST70:
 12713 0b9a 10010000 		.4byte	.LVL165
 12714 0b9e 24010000 		.4byte	.LVL167
 12715 0ba2 0200     		.2byte	0x2
 12716 0ba4 30       		.byte	0x30
 12717 0ba5 9F       		.byte	0x9f
 12718 0ba6 24010000 		.4byte	.LVL167
 12719 0baa 38010000 		.4byte	.LVL169
 12720 0bae 0100     		.2byte	0x1
 12721 0bb0 54       		.byte	0x54
 12722 0bb1 00000000 		.4byte	0
 12723 0bb5 00000000 		.4byte	0
 12724              	.LLST71:
 12725 0bb9 00000000 		.4byte	.LVL185
 12726 0bbd 24000000 		.4byte	.LVL187
 12727 0bc1 0100     		.2byte	0x1
 12728 0bc3 50       		.byte	0x50
 12729 0bc4 24000000 		.4byte	.LVL187
 12730 0bc8 28000000 		.4byte	.LVL188
 12731 0bcc 0400     		.2byte	0x4
 12732 0bce F3       		.byte	0xf3
 12733 0bcf 01       		.uleb128 0x1
 12734 0bd0 50       		.byte	0x50
ARM GAS  /var/folders/3j/4xdnk5197cv_b7cw3n33qk7r0000gn/T//ccxkT2Pi.s 			page 225


 12735 0bd1 9F       		.byte	0x9f
 12736 0bd2 28000000 		.4byte	.LVL188
 12737 0bd6 2C000000 		.4byte	.LVL189
 12738 0bda 0100     		.2byte	0x1
 12739 0bdc 50       		.byte	0x50
 12740 0bdd 2C000000 		.4byte	.LVL189
 12741 0be1 30000000 		.4byte	.LVL190
 12742 0be5 0400     		.2byte	0x4
 12743 0be7 F3       		.byte	0xf3
 12744 0be8 01       		.uleb128 0x1
 12745 0be9 50       		.byte	0x50
 12746 0bea 9F       		.byte	0x9f
 12747 0beb 30000000 		.4byte	.LVL190
 12748 0bef 34000000 		.4byte	.LVL191
 12749 0bf3 0100     		.2byte	0x1
 12750 0bf5 50       		.byte	0x50
 12751 0bf6 34000000 		.4byte	.LVL191
 12752 0bfa 38000000 		.4byte	.LVL192
 12753 0bfe 0400     		.2byte	0x4
 12754 0c00 F3       		.byte	0xf3
 12755 0c01 01       		.uleb128 0x1
 12756 0c02 50       		.byte	0x50
 12757 0c03 9F       		.byte	0x9f
 12758 0c04 38000000 		.4byte	.LVL192
 12759 0c08 3C000000 		.4byte	.LVL193
 12760 0c0c 0100     		.2byte	0x1
 12761 0c0e 50       		.byte	0x50
 12762 0c0f 3C000000 		.4byte	.LVL193
 12763 0c13 4C000000 		.4byte	.LFE29
 12764 0c17 0400     		.2byte	0x4
 12765 0c19 F3       		.byte	0xf3
 12766 0c1a 01       		.uleb128 0x1
 12767 0c1b 50       		.byte	0x50
 12768 0c1c 9F       		.byte	0x9f
 12769 0c1d 00000000 		.4byte	0
 12770 0c21 00000000 		.4byte	0
 12771              	.LLST72:
 12772 0c25 0C000000 		.4byte	.LVL186
 12773 0c29 24000000 		.4byte	.LVL187
 12774 0c2d 0100     		.2byte	0x1
 12775 0c2f 50       		.byte	0x50
 12776 0c30 24000000 		.4byte	.LVL187
 12777 0c34 28000000 		.4byte	.LVL188
 12778 0c38 0400     		.2byte	0x4
 12779 0c3a F3       		.byte	0xf3
 12780 0c3b 01       		.uleb128 0x1
 12781 0c3c 50       		.byte	0x50
 12782 0c3d 9F       		.byte	0x9f
 12783 0c3e 28000000 		.4byte	.LVL188
 12784 0c42 2C000000 		.4byte	.LVL189
 12785 0c46 0100     		.2byte	0x1
 12786 0c48 50       		.byte	0x50
 12787 0c49 2C000000 		.4byte	.LVL189
 12788 0c4d 30000000 		.4byte	.LVL190
 12789 0c51 0400     		.2byte	0x4
 12790 0c53 F3       		.byte	0xf3
 12791 0c54 01       		.uleb128 0x1
ARM GAS  /var/folders/3j/4xdnk5197cv_b7cw3n33qk7r0000gn/T//ccxkT2Pi.s 			page 226


 12792 0c55 50       		.byte	0x50
 12793 0c56 9F       		.byte	0x9f
 12794 0c57 38000000 		.4byte	.LVL192
 12795 0c5b 3C000000 		.4byte	.LVL193
 12796 0c5f 0100     		.2byte	0x1
 12797 0c61 50       		.byte	0x50
 12798 0c62 3C000000 		.4byte	.LVL193
 12799 0c66 4C000000 		.4byte	.LFE29
 12800 0c6a 0400     		.2byte	0x4
 12801 0c6c F3       		.byte	0xf3
 12802 0c6d 01       		.uleb128 0x1
 12803 0c6e 50       		.byte	0x50
 12804 0c6f 9F       		.byte	0x9f
 12805 0c70 00000000 		.4byte	0
 12806 0c74 00000000 		.4byte	0
 12807              	.LLST82:
 12808 0c78 00000000 		.4byte	.LVL261
 12809 0c7c 0F000000 		.4byte	.LVL262-1
 12810 0c80 0100     		.2byte	0x1
 12811 0c82 50       		.byte	0x50
 12812 0c83 0F000000 		.4byte	.LVL262-1
 12813 0c87 20000000 		.4byte	.LFE38
 12814 0c8b 0100     		.2byte	0x1
 12815 0c8d 54       		.byte	0x54
 12816 0c8e 00000000 		.4byte	0
 12817 0c92 00000000 		.4byte	0
 12818              	.LLST83:
 12819 0c96 00000000 		.4byte	.LVL261
 12820 0c9a 0F000000 		.4byte	.LVL262-1
 12821 0c9e 0100     		.2byte	0x1
 12822 0ca0 51       		.byte	0x51
 12823 0ca1 0F000000 		.4byte	.LVL262-1
 12824 0ca5 20000000 		.4byte	.LFE38
 12825 0ca9 0100     		.2byte	0x1
 12826 0cab 55       		.byte	0x55
 12827 0cac 00000000 		.4byte	0
 12828 0cb0 00000000 		.4byte	0
 12829              		.section	.debug_aranges,"",%progbits
 12830 0000 DC000000 		.4byte	0xdc
 12831 0004 0200     		.2byte	0x2
 12832 0006 00000000 		.4byte	.Ldebug_info0
 12833 000a 04       		.byte	0x4
 12834 000b 00       		.byte	0
 12835 000c 0000     		.2byte	0
 12836 000e 0000     		.2byte	0
 12837 0010 00000000 		.4byte	.LFB37
 12838 0014 1C000000 		.4byte	.LFE37-.LFB37
 12839 0018 00000000 		.4byte	.LFB34
 12840 001c 1C000000 		.4byte	.LFE34-.LFB34
 12841 0020 00000000 		.4byte	.LFB11
 12842 0024 54000000 		.4byte	.LFE11-.LFB11
 12843 0028 00000000 		.4byte	.LFB12
 12844 002c 64000000 		.4byte	.LFE12-.LFB12
 12845 0030 00000000 		.4byte	.LFB13
 12846 0034 08000000 		.4byte	.LFE13-.LFB13
 12847 0038 00000000 		.4byte	.LFB14
 12848 003c 50000000 		.4byte	.LFE14-.LFB14
ARM GAS  /var/folders/3j/4xdnk5197cv_b7cw3n33qk7r0000gn/T//ccxkT2Pi.s 			page 227


 12849 0040 00000000 		.4byte	.LFB15
 12850 0044 64000000 		.4byte	.LFE15-.LFB15
 12851 0048 00000000 		.4byte	.LFB16
 12852 004c 6C000000 		.4byte	.LFE16-.LFB16
 12853 0050 00000000 		.4byte	.LFB17
 12854 0054 7C000000 		.4byte	.LFE17-.LFB17
 12855 0058 00000000 		.4byte	.LFB18
 12856 005c 54000000 		.4byte	.LFE18-.LFB18
 12857 0060 00000000 		.4byte	.LFB19
 12858 0064 54000000 		.4byte	.LFE19-.LFB19
 12859 0068 00000000 		.4byte	.LFB20
 12860 006c 88000000 		.4byte	.LFE20-.LFB20
 12861 0070 00000000 		.4byte	.LFB27
 12862 0074 70000000 		.4byte	.LFE27-.LFB27
 12863 0078 00000000 		.4byte	.LFB28
 12864 007c 6C000000 		.4byte	.LFE28-.LFB28
 12865 0080 00000000 		.4byte	.LFB36
 12866 0084 48020000 		.4byte	.LFE36-.LFB36
 12867 0088 00000000 		.4byte	.LFB24
 12868 008c 44010000 		.4byte	.LFE24-.LFB24
 12869 0090 00000000 		.4byte	.LFB40
 12870 0094 B4000000 		.4byte	.LFE40-.LFB40
 12871 0098 00000000 		.4byte	.LFB42
 12872 009c EC020000 		.4byte	.LFE42-.LFB42
 12873 00a0 00000000 		.4byte	.LFB29
 12874 00a4 4C000000 		.4byte	.LFE29-.LFB29
 12875 00a8 00000000 		.4byte	.LFB31
 12876 00ac DC000000 		.4byte	.LFE31-.LFB31
 12877 00b0 00000000 		.4byte	.LFB30
 12878 00b4 3C000000 		.4byte	.LFE30-.LFB30
 12879 00b8 00000000 		.4byte	.LFB32
 12880 00bc 74030000 		.4byte	.LFE32-.LFB32
 12881 00c0 00000000 		.4byte	.LFB33
 12882 00c4 58000000 		.4byte	.LFE33-.LFB33
 12883 00c8 00000000 		.4byte	.LFB35
 12884 00cc 14020000 		.4byte	.LFE35-.LFB35
 12885 00d0 00000000 		.4byte	.LFB38
 12886 00d4 20000000 		.4byte	.LFE38-.LFB38
 12887 00d8 00000000 		.4byte	0
 12888 00dc 00000000 		.4byte	0
 12889              		.section	.debug_ranges,"",%progbits
 12890              	.Ldebug_ranges0:
 12891 0000 04000000 		.4byte	.LBB35
 12892 0004 08000000 		.4byte	.LBE35
 12893 0008 0C000000 		.4byte	.LBB38
 12894 000c 50000000 		.4byte	.LBE38
 12895 0010 00000000 		.4byte	0
 12896 0014 00000000 		.4byte	0
 12897 0018 24000000 		.4byte	.LBB36
 12898 001c 2C000000 		.4byte	.LBE36
 12899 0020 34000000 		.4byte	.LBB37
 12900 0024 50000000 		.4byte	.LBE37
 12901 0028 00000000 		.4byte	0
 12902 002c 00000000 		.4byte	0
 12903 0030 38000000 		.4byte	.LBB56
 12904 0034 3C000000 		.4byte	.LBE56
 12905 0038 90000000 		.4byte	.LBB83
ARM GAS  /var/folders/3j/4xdnk5197cv_b7cw3n33qk7r0000gn/T//ccxkT2Pi.s 			page 228


 12906 003c 28020000 		.4byte	.LBE83
 12907 0040 00000000 		.4byte	0
 12908 0044 00000000 		.4byte	0
 12909 0048 38000000 		.4byte	.LBB57
 12910 004c 3C000000 		.4byte	.LBE57
 12911 0050 AC010000 		.4byte	.LBB74
 12912 0054 B0010000 		.4byte	.LBE74
 12913 0058 B8010000 		.4byte	.LBB76
 12914 005c DC010000 		.4byte	.LBE76
 12915 0060 00000000 		.4byte	0
 12916 0064 00000000 		.4byte	0
 12917 0068 90000000 		.4byte	.LBB63
 12918 006c A8010000 		.4byte	.LBE63
 12919 0070 B0010000 		.4byte	.LBB75
 12920 0074 B4010000 		.4byte	.LBE75
 12921 0078 00000000 		.4byte	0
 12922 007c 00000000 		.4byte	0
 12923 0080 90000000 		.4byte	.LBB65
 12924 0084 20010000 		.4byte	.LBE65
 12925 0088 24010000 		.4byte	.LBB71
 12926 008c 5C010000 		.4byte	.LBE71
 12927 0090 00000000 		.4byte	0
 12928 0094 00000000 		.4byte	0
 12929 0098 20010000 		.4byte	.LBB68
 12930 009c 24010000 		.4byte	.LBE68
 12931 00a0 5C010000 		.4byte	.LBB72
 12932 00a4 A8010000 		.4byte	.LBE72
 12933 00a8 00000000 		.4byte	0
 12934 00ac 00000000 		.4byte	0
 12935 00b0 08000000 		.4byte	.LBB84
 12936 00b4 0C000000 		.4byte	.LBE84
 12937 00b8 30000000 		.4byte	.LBB87
 12938 00bc 54000000 		.4byte	.LBE87
 12939 00c0 00000000 		.4byte	0
 12940 00c4 00000000 		.4byte	0
 12941 00c8 0C000000 		.4byte	.LBB96
 12942 00cc 30000000 		.4byte	.LBE96
 12943 00d0 38000000 		.4byte	.LBB99
 12944 00d4 3C000000 		.4byte	.LBE99
 12945 00d8 00000000 		.4byte	0
 12946 00dc 00000000 		.4byte	0
 12947 00e0 14000000 		.4byte	.LBB102
 12948 00e4 18000000 		.4byte	.LBE102
 12949 00e8 1C000000 		.4byte	.LBB104
 12950 00ec 24000000 		.4byte	.LBE104
 12951 00f0 00000000 		.4byte	0
 12952 00f4 00000000 		.4byte	0
 12953 00f8 18000000 		.4byte	.LBB103
 12954 00fc 1C000000 		.4byte	.LBE103
 12955 0100 24000000 		.4byte	.LBB105
 12956 0104 28000000 		.4byte	.LBE105
 12957 0108 2C000000 		.4byte	.LBB106
 12958 010c 30000000 		.4byte	.LBE106
 12959 0110 00000000 		.4byte	0
 12960 0114 00000000 		.4byte	0
 12961 0118 00000000 		.4byte	.LFB37
 12962 011c 1C000000 		.4byte	.LFE37
ARM GAS  /var/folders/3j/4xdnk5197cv_b7cw3n33qk7r0000gn/T//ccxkT2Pi.s 			page 229


 12963 0120 00000000 		.4byte	.LFB34
 12964 0124 1C000000 		.4byte	.LFE34
 12965 0128 00000000 		.4byte	.LFB11
 12966 012c 54000000 		.4byte	.LFE11
 12967 0130 00000000 		.4byte	.LFB12
 12968 0134 64000000 		.4byte	.LFE12
 12969 0138 00000000 		.4byte	.LFB13
 12970 013c 08000000 		.4byte	.LFE13
 12971 0140 00000000 		.4byte	.LFB14
 12972 0144 50000000 		.4byte	.LFE14
 12973 0148 00000000 		.4byte	.LFB15
 12974 014c 64000000 		.4byte	.LFE15
 12975 0150 00000000 		.4byte	.LFB16
 12976 0154 6C000000 		.4byte	.LFE16
 12977 0158 00000000 		.4byte	.LFB17
 12978 015c 7C000000 		.4byte	.LFE17
 12979 0160 00000000 		.4byte	.LFB18
 12980 0164 54000000 		.4byte	.LFE18
 12981 0168 00000000 		.4byte	.LFB19
 12982 016c 54000000 		.4byte	.LFE19
 12983 0170 00000000 		.4byte	.LFB20
 12984 0174 88000000 		.4byte	.LFE20
 12985 0178 00000000 		.4byte	.LFB27
 12986 017c 70000000 		.4byte	.LFE27
 12987 0180 00000000 		.4byte	.LFB28
 12988 0184 6C000000 		.4byte	.LFE28
 12989 0188 00000000 		.4byte	.LFB36
 12990 018c 48020000 		.4byte	.LFE36
 12991 0190 00000000 		.4byte	.LFB24
 12992 0194 44010000 		.4byte	.LFE24
 12993 0198 00000000 		.4byte	.LFB40
 12994 019c B4000000 		.4byte	.LFE40
 12995 01a0 00000000 		.4byte	.LFB42
 12996 01a4 EC020000 		.4byte	.LFE42
 12997 01a8 00000000 		.4byte	.LFB29
 12998 01ac 4C000000 		.4byte	.LFE29
 12999 01b0 00000000 		.4byte	.LFB31
 13000 01b4 DC000000 		.4byte	.LFE31
 13001 01b8 00000000 		.4byte	.LFB30
 13002 01bc 3C000000 		.4byte	.LFE30
 13003 01c0 00000000 		.4byte	.LFB32
 13004 01c4 74030000 		.4byte	.LFE32
 13005 01c8 00000000 		.4byte	.LFB33
 13006 01cc 58000000 		.4byte	.LFE33
 13007 01d0 00000000 		.4byte	.LFB35
 13008 01d4 14020000 		.4byte	.LFE35
 13009 01d8 00000000 		.4byte	.LFB38
 13010 01dc 20000000 		.4byte	.LFE38
 13011 01e0 00000000 		.4byte	0
 13012 01e4 00000000 		.4byte	0
 13013              		.section	.debug_line,"",%progbits
 13014              	.Ldebug_line0:
 13015 0000 0B080000 		.section	.debug_str,"MS",%progbits,1
 13015      0200E903 
 13015      00000201 
 13015      FB0E0D00 
 13015      01010101 
ARM GAS  /var/folders/3j/4xdnk5197cv_b7cw3n33qk7r0000gn/T//ccxkT2Pi.s 			page 230


 13016              	.LASF16:
 13017 0000 696E7438 		.ascii	"int8_t\000"
 13017      5F7400
 13018              	.LASF520:
 13019 0007 77617463 		.ascii	"watchdog_start\000"
 13019      68646F67 
 13019      5F737461 
 13019      727400
 13020              	.LASF2:
 13021 0016 73697A65 		.ascii	"size_t\000"
 13021      5F7400
 13022              	.LASF417:
 13023 001d 5F5F6C6F 		.ascii	"__locale_t\000"
 13023      63616C65 
 13023      5F7400
 13024              	.LASF204:
 13025 0028 636C6F63 		.ascii	"clock_phase\000"
 13025      6B5F7068 
 13025      61736500 
 13026              	.LASF317:
 13027 0034 5F5F7661 		.ascii	"__value\000"
 13027      6C756500 
 13028              	.LASF101:
 13029 003c 63665F6F 		.ascii	"cf_off_name\000"
 13029      66665F6E 
 13029      616D6500 
 13030              	.LASF30:
 13031 0048 73797374 		.ascii	"systime_t\000"
 13031      696D655F 
 13031      7400
 13032              	.LASF385:
 13033 0052 5F5F7366 		.ascii	"__sf\000"
 13033      00
 13034              	.LASF492:
 13035 0057 564C3533 		.ascii	"VL53L0X_UpdateByte\000"
 13035      4C30585F 
 13035      55706461 
 13035      74654279 
 13035      746500
 13036              	.LASF142:
 13037 006a 6770696F 		.ascii	"gpio_port_t\000"
 13037      5F706F72 
 13037      745F7400 
 13038              	.LASF90:
 13039 0076 63685F69 		.ascii	"ch_identifier\000"
 13039      64656E74 
 13039      69666965 
 13039      7200
 13040              	.LASF35:
 13041 0084 705F6374 		.ascii	"p_ctx\000"
 13041      7800
 13042              	.LASF352:
 13043 008a 5F726561 		.ascii	"_read\000"
 13043      6400
 13044              	.LASF26:
 13045 0090 74707269 		.ascii	"tprio_t\000"
 13045      6F5F7400 
ARM GAS  /var/folders/3j/4xdnk5197cv_b7cw3n33qk7r0000gn/T//ccxkT2Pi.s 			page 231


 13046              	.LASF267:
 13047 0098 4C617374 		.ascii	"LastEncodedTimeout\000"
 13047      456E636F 
 13047      64656454 
 13047      696D656F 
 13047      757400
 13048              	.LASF447:
 13049 00ab 77615468 		.ascii	"waThread_rear_driver\000"
 13049      72656164 
 13049      5F726561 
 13049      725F6472 
 13049      69766572 
 13050              	.LASF109:
 13051 00c0 63685F64 		.ascii	"ch_debug\000"
 13051      65627567 
 13051      00
 13052              	.LASF459:
 13053 00c9 66726F6E 		.ascii	"front_driver_sensor_args\000"
 13053      745F6472 
 13053      69766572 
 13053      5F73656E 
 13053      736F725F 
 13054              	.LASF45:
 13055 00e2 705F6D73 		.ascii	"p_msgqueue\000"
 13055      67717565 
 13055      756500
 13056              	.LASF353:
 13057 00ed 5F777269 		.ascii	"_write\000"
 13057      746500
 13058              	.LASF67:
 13059 00f4 725F6374 		.ascii	"r_ctx\000"
 13059      7800
 13060              	.LASF19:
 13061 00fa 696E7433 		.ascii	"int32_t\000"
 13061      325F7400 
 13062              	.LASF186:
 13063 0102 77726974 		.ascii	"writet\000"
 13063      657400
 13064              	.LASF496:
 13065 0109 72657175 		.ascii	"request\000"
 13065      65737400 
 13066              	.LASF537:
 13067 0111 474E5520 		.ascii	"GNU C11 7.3.1 20180622 (release) [ARM/embedded-7-br"
 13067      43313120 
 13067      372E332E 
 13067      31203230 
 13067      31383036 
 13068 0144 616E6368 		.ascii	"anch revision 261907] -mcpu=arm1176jz-s -mno-thumb-"
 13068      20726576 
 13068      6973696F 
 13068      6E203236 
 13068      31393037 
 13069 0177 696E7465 		.ascii	"interwork -ggdb -O2 -fomit-frame-pointer -ffunction"
 13069      72776F72 
 13069      6B202D67 
 13069      67646220 
 13069      2D4F3220 
ARM GAS  /var/folders/3j/4xdnk5197cv_b7cw3n33qk7r0000gn/T//ccxkT2Pi.s 			page 232


 13070 01aa 2D736563 		.ascii	"-sections -fdata-sections\000"
 13070      74696F6E 
 13070      73202D66 
 13070      64617461 
 13070      2D736563 
 13071              	.LASF379:
 13072 01c4 5F637674 		.ascii	"_cvtlen\000"
 13072      6C656E00 
 13073              	.LASF506:
 13074 01cc 64617461 		.ascii	"data_out\000"
 13074      5F6F7574 
 13074      00
 13075              	.LASF98:
 13076 01d5 63665F6F 		.ascii	"cf_off_ctx\000"
 13076      66665F63 
 13076      747800
 13077              	.LASF56:
 13078 01e0 76746675 		.ascii	"vtfunc_t\000"
 13078      6E635F74 
 13078      00
 13079              	.LASF253:
 13080 01e9 52616E67 		.ascii	"RangeFractionalPart\000"
 13080      65467261 
 13080      6374696F 
 13080      6E616C50 
 13080      61727400 
 13081              	.LASF490:
 13082 01fd 73657475 		.ascii	"setup_sensors\000"
 13082      705F7365 
 13082      6E736F72 
 13082      7300
 13083              	.LASF248:
 13084 020b 52616E67 		.ascii	"RangeDMaxMilliMeter\000"
 13084      65444D61 
 13084      784D696C 
 13084      6C694D65 
 13084      74657200 
 13085              	.LASF521:
 13086 021f 5F70616C 		.ascii	"_pal_lld_writeport\000"
 13086      5F6C6C64 
 13086      5F777269 
 13086      7465706F 
 13086      727400
 13087              	.LASF421:
 13088 0232 49326344 		.ascii	"I2cDevAddr\000"
 13088      65764164 
 13088      647200
 13089              	.LASF398:
 13090 023d 5F67616D 		.ascii	"_gamma_signgam\000"
 13090      6D615F73 
 13090      69676E67 
 13090      616D00
 13091              	.LASF231:
 13092 024c 496E7465 		.ascii	"InterMeasurementPeriodMilliSeconds\000"
 13092      724D6561 
 13092      73757265 
 13092      6D656E74 
ARM GAS  /var/folders/3j/4xdnk5197cv_b7cw3n33qk7r0000gn/T//ccxkT2Pi.s 			page 233


 13092      50657269 
 13093              	.LASF326:
 13094 026f 5F5F746D 		.ascii	"__tm\000"
 13094      00
 13095              	.LASF411:
 13096 0274 5F776373 		.ascii	"_wcsrtombs_state\000"
 13096      72746F6D 
 13096      62735F73 
 13096      74617465 
 13096      00
 13097              	.LASF123:
 13098 0285 77726974 		.ascii	"write\000"
 13098      6500
 13099              	.LASF327:
 13100 028b 5F5F746D 		.ascii	"__tm_sec\000"
 13100      5F736563 
 13100      00
 13101              	.LASF274:
 13102 0294 5369676D 		.ascii	"SigmaEstEffPulseWidth\000"
 13102      61457374 
 13102      45666650 
 13102      756C7365 
 13102      57696474 
 13103              	.LASF404:
 13104 02aa 5F6C3634 		.ascii	"_l64a_buf\000"
 13104      615F6275 
 13104      6600
 13105              	.LASF125:
 13106 02b4 42617365 		.ascii	"BaseSequentialStream\000"
 13106      53657175 
 13106      656E7469 
 13106      616C5374 
 13106      7265616D 
 13107              	.LASF441:
 13108 02c9 72656172 		.ascii	"rear_passenger\000"
 13108      5F706173 
 13108      73656E67 
 13108      657200
 13109              	.LASF391:
 13110 02d8 5F736565 		.ascii	"_seed\000"
 13110      6400
 13111              	.LASF82:
 13112 02de 656C5F66 		.ascii	"el_flags\000"
 13112      6C616773 
 13112      00
 13113              	.LASF157:
 13114 02e7 636F6E66 		.ascii	"config\000"
 13114      696700
 13115              	.LASF156:
 13116 02ee 73746174 		.ascii	"state\000"
 13116      6500
 13117              	.LASF525:
 13118 02f4 564C3533 		.ascii	"VL53L0X_StaticInit\000"
 13118      4C30585F 
 13118      53746174 
 13118      6963496E 
 13118      697400
ARM GAS  /var/folders/3j/4xdnk5197cv_b7cw3n33qk7r0000gn/T//ccxkT2Pi.s 			page 234


 13119              	.LASF361:
 13120 0307 5F6C6F63 		.ascii	"_lock\000"
 13120      6B00
 13121              	.LASF223:
 13122 030d 564C3533 		.ascii	"VL53L0X_GpioFunctionality\000"
 13122      4C30585F 
 13122      4770696F 
 13122      46756E63 
 13122      74696F6E 
 13123              	.LASF184:
 13124 0327 70757474 		.ascii	"putt\000"
 13124      00
 13125              	.LASF451:
 13126 032c 73797374 		.ascii	"system_failure_status\000"
 13126      656D5F66 
 13126      61696C75 
 13126      72655F73 
 13126      74617475 
 13127              	.LASF94:
 13128 0342 63685F70 		.ascii	"ch_ptrsize\000"
 13128      74727369 
 13128      7A6500
 13129              	.LASF392:
 13130 034d 5F6D756C 		.ascii	"_mult\000"
 13130      7400
 13131              	.LASF135:
 13132 0353 636C6F63 		.ascii	"clockStretchTimeout\000"
 13132      6B537472 
 13132      65746368 
 13132      54696D65 
 13132      6F757400 
 13133              	.LASF539:
 13134 0367 2F557365 		.ascii	"/Users/kevinmalmsten/development_raspberry_pi/Backu"
 13134      72732F6B 
 13134      6576696E 
 13134      6D616C6D 
 13134      7374656E 
 13135 039a 7053656E 		.ascii	"pSensor_ChibiOS GIT/__Backup_System\000"
 13135      736F725F 
 13135      43686962 
 13135      694F5320 
 13135      4749542F 
 13136              	.LASF523:
 13137 03be 5F70616C 		.ascii	"_pal_lld_setgroupmode\000"
 13137      5F6C6C64 
 13137      5F736574 
 13137      67726F75 
 13137      706D6F64 
 13138              	.LASF503:
 13139 03d4 636F756E 		.ascii	"count\000"
 13139      7400
 13140              	.LASF543:
 13141 03da 5F5F6275 		.ascii	"__builtin_memcpy\000"
 13141      696C7469 
 13141      6E5F6D65 
 13141      6D637079 
 13141      00
ARM GAS  /var/folders/3j/4xdnk5197cv_b7cw3n33qk7r0000gn/T//ccxkT2Pi.s 			page 235


 13142              	.LASF76:
 13143 03eb 6D5F6F77 		.ascii	"m_owner\000"
 13143      6E657200 
 13144              	.LASF504:
 13145 03f3 64617461 		.ascii	"data_in\000"
 13145      5F696E00 
 13146              	.LASF62:
 13147 03fb 76745F70 		.ascii	"vt_par\000"
 13147      617200
 13148              	.LASF197:
 13149 0402 656E645F 		.ascii	"end_cb\000"
 13149      636200
 13150              	.LASF314:
 13151 0409 5F5F7763 		.ascii	"__wch\000"
 13151      6800
 13152              	.LASF86:
 13153 040f 65786974 		.ascii	"exitcode\000"
 13153      636F6465 
 13153      00
 13154              	.LASF442:
 13155 0418 53454E53 		.ascii	"SENSOR_SYSTEM\000"
 13155      4F525F53 
 13155      59535445 
 13155      4D00
 13156              	.LASF430:
 13157 0426 504F5254 		.ascii	"PORT\000"
 13157      00
 13158              	.LASF5:
 13159 042b 5F5F7569 		.ascii	"__uint8_t\000"
 13159      6E74385F 
 13159      7400
 13160              	.LASF170:
 13161 0435 69326361 		.ascii	"i2caddr_t\000"
 13161      6464725F 
 13161      7400
 13162              	.LASF497:
 13163 043f 564C3533 		.ascii	"VL53L0X_RdDWord\000"
 13163      4C30585F 
 13163      52644457 
 13163      6F726400 
 13164              	.LASF114:
 13165 044f 715F746F 		.ascii	"q_top\000"
 13165      7000
 13166              	.LASF88:
 13167 0455 65776D61 		.ascii	"ewmask\000"
 13167      736B00
 13168              	.LASF275:
 13169 045c 5369676D 		.ascii	"SigmaEstEffAmbWidth\000"
 13169      61457374 
 13169      45666641 
 13169      6D625769 
 13169      64746800 
 13170              	.LASF349:
 13171 0470 5F66696C 		.ascii	"_file\000"
 13171      6500
 13172              	.LASF96:
 13173 0476 63685F74 		.ascii	"ch_threadsize\000"
ARM GAS  /var/folders/3j/4xdnk5197cv_b7cw3n33qk7r0000gn/T//ccxkT2Pi.s 			page 236


 13173      68726561 
 13173      6473697A 
 13173      6500
 13174              	.LASF336:
 13175 0484 5F6F6E5F 		.ascii	"_on_exit_args\000"
 13175      65786974 
 13175      5F617267 
 13175      7300
 13176              	.LASF187:
 13177 0492 72656164 		.ascii	"readt\000"
 13177      7400
 13178              	.LASF228:
 13179 0498 44657669 		.ascii	"DeviceMode\000"
 13179      63654D6F 
 13179      646500
 13180              	.LASF254:
 13181 04a3 52616E67 		.ascii	"RangeStatus\000"
 13181      65537461 
 13181      74757300 
 13182              	.LASF113:
 13183 04af 715F6275 		.ascii	"q_buffer\000"
 13183      66666572 
 13183      00
 13184              	.LASF117:
 13185 04b8 715F6E6F 		.ascii	"q_notify\000"
 13185      74696679 
 13185      00
 13186              	.LASF259:
 13187 04c1 42756666 		.ascii	"BufferSize\000"
 13187      65725369 
 13187      7A6500
 13188              	.LASF395:
 13189 04cc 5F737472 		.ascii	"_strtok_last\000"
 13189      746F6B5F 
 13189      6C617374 
 13189      00
 13190              	.LASF36:
 13191 04d9 705F6E65 		.ascii	"p_newer\000"
 13191      77657200 
 13192              	.LASF189:
 13193 04e1 5350495F 		.ascii	"SPI_STOP\000"
 13193      53544F50 
 13193      00
 13194              	.LASF407:
 13195 04ea 5F6D6272 		.ascii	"_mbrlen_state\000"
 13195      6C656E5F 
 13195      73746174 
 13195      6500
 13196              	.LASF11:
 13197 04f8 6C6F6E67 		.ascii	"long int\000"
 13197      20696E74 
 13197      00
 13198              	.LASF188:
 13199 0501 5350495F 		.ascii	"SPI_UNINIT\000"
 13199      554E494E 
 13199      495400
 13200              	.LASF32:
ARM GAS  /var/folders/3j/4xdnk5197cv_b7cw3n33qk7r0000gn/T//ccxkT2Pi.s 			page 237


 13201 050c 705F6E65 		.ascii	"p_next\000"
 13201      787400
 13202              	.LASF418:
 13203 0513 5F696D70 		.ascii	"_impure_ptr\000"
 13203      7572655F 
 13203      70747200 
 13204              	.LASF116:
 13205 051f 715F7264 		.ascii	"q_rdptr\000"
 13205      70747200 
 13206              	.LASF195:
 13207 0527 7478636E 		.ascii	"txcnt\000"
 13207      7400
 13208              	.LASF376:
 13209 052d 5F726573 		.ascii	"_result_k\000"
 13209      756C745F 
 13209      6B00
 13210              	.LASF103:
 13211 0537 63665F6F 		.ascii	"cf_off_state\000"
 13211      66665F73 
 13211      74617465 
 13211      00
 13212              	.LASF346:
 13213 0544 5F73697A 		.ascii	"_size\000"
 13213      6500
 13214              	.LASF33:
 13215 054a 705F7072 		.ascii	"p_prev\000"
 13215      657600
 13216              	.LASF397:
 13217 0551 5F6C6F63 		.ascii	"_localtime_buf\000"
 13217      616C7469 
 13217      6D655F62 
 13217      756600
 13218              	.LASF210:
 13219 0560 74657374 		.ascii	"test\000"
 13219      00
 13220              	.LASF23:
 13221 0565 74737461 		.ascii	"tstate_t\000"
 13221      74655F74 
 13221      00
 13222              	.LASF491:
 13223 056e 6D61696E 		.ascii	"main\000"
 13223      00
 13224              	.LASF339:
 13225 0573 5F666E74 		.ascii	"_fntypes\000"
 13225      79706573 
 13225      00
 13226              	.LASF48:
 13227 057c 705F6D74 		.ascii	"p_mtxlist\000"
 13227      786C6973 
 13227      7400
 13228              	.LASF473:
 13229 0586 7365745F 		.ascii	"set_mux_GPIO\000"
 13229      6D75785F 
 13229      4750494F 
 13229      00
 13230              	.LASF485:
 13231 0593 61706572 		.ascii	"aperture_Spads\000"
ARM GAS  /var/folders/3j/4xdnk5197cv_b7cw3n33qk7r0000gn/T//ccxkT2Pi.s 			page 238


 13231      74757265 
 13231      5F537061 
 13231      647300
 13232              	.LASF182:
 13233 05a2 6F717565 		.ascii	"oqueue\000"
 13233      756500
 13234              	.LASF163:
 13235 05a9 74786275 		.ascii	"txbuf\000"
 13235      6600
 13236              	.LASF53:
 13237 05af 72656761 		.ascii	"regarm_t\000"
 13237      726D5F74 
 13237      00
 13238              	.LASF140:
 13239 05b8 67707075 		.ascii	"gppudclk\000"
 13239      64636C6B 
 13239      00
 13240              	.LASF165:
 13241 05c1 74786964 		.ascii	"txidx\000"
 13241      7800
 13242              	.LASF475:
 13243 05c7 6572726F 		.ascii	"error\000"
 13243      7200
 13244              	.LASF221:
 13245 05cd 46697850 		.ascii	"FixPoint1616_t\000"
 13245      6F696E74 
 13245      31363136 
 13245      5F7400
 13246              	.LASF282:
 13247 05dc 52656653 		.ascii	"RefSpadsInitialised\000"
 13247      70616473 
 13247      496E6974 
 13247      69616C69 
 13247      73656400 
 13248              	.LASF263:
 13249 05f0 52656653 		.ascii	"RefSpadEnables\000"
 13249      70616445 
 13249      6E61626C 
 13249      657300
 13250              	.LASF454:
 13251 05ff 73656E73 		.ascii	"sensor_system\000"
 13251      6F725F73 
 13251      79737465 
 13251      6D00
 13252              	.LASF250:
 13253 060d 416D6269 		.ascii	"AmbientRateRtnMegaCps\000"
 13253      656E7452 
 13253      61746552 
 13253      746E4D65 
 13253      67614370 
 13254              	.LASF226:
 13255 0623 564C3533 		.ascii	"VL53L0X_HistogramModes\000"
 13255      4C30585F 
 13255      48697374 
 13255      6F677261 
 13255      6D4D6F64 
 13256              	.LASF277:
ARM GAS  /var/folders/3j/4xdnk5197cv_b7cw3n33qk7r0000gn/T//ccxkT2Pi.s 			page 239


 13257 063a 4D6F6475 		.ascii	"ModuleId\000"
 13257      6C654964 
 13257      00
 13258              	.LASF147:
 13259 0643 70616C5F 		.ascii	"pal_default_config\000"
 13259      64656661 
 13259      756C745F 
 13259      636F6E66 
 13259      696700
 13260              	.LASF394:
 13261 0656 5F756E75 		.ascii	"_unused_rand\000"
 13261      7365645F 
 13261      72616E64 
 13261      00
 13262              	.LASF4:
 13263 0663 7369676E 		.ascii	"signed char\000"
 13263      65642063 
 13263      68617200 
 13264              	.LASF42:
 13265 066f 705F7072 		.ascii	"p_preempt\000"
 13265      65656D70 
 13265      7400
 13266              	.LASF17:
 13267 0679 75696E74 		.ascii	"uint8_t\000"
 13267      385F7400 
 13268              	.LASF279:
 13269 0681 50726F64 		.ascii	"ProductId\000"
 13269      75637449 
 13269      6400
 13270              	.LASF357:
 13271 068b 5F6E6275 		.ascii	"_nbuf\000"
 13271      6600
 13272              	.LASF450:
 13273 0691 73797374 		.ascii	"system\000"
 13273      656D00
 13274              	.LASF28:
 13275 0698 6576656E 		.ascii	"eventmask_t\000"
 13275      746D6173 
 13275      6B5F7400 
 13276              	.LASF55:
 13277 06a4 636F6E74 		.ascii	"context\000"
 13277      65787400 
 13278              	.LASF280:
 13279 06ac 52656665 		.ascii	"ReferenceSpadCount\000"
 13279      72656E63 
 13279      65537061 
 13279      64436F75 
 13279      6E7400
 13280              	.LASF6:
 13281 06bf 756E7369 		.ascii	"unsigned char\000"
 13281      676E6564 
 13281      20636861 
 13281      7200
 13282              	.LASF118:
 13283 06cd 715F6C69 		.ascii	"q_link\000"
 13283      6E6B00
 13284              	.LASF196:
ARM GAS  /var/folders/3j/4xdnk5197cv_b7cw3n33qk7r0000gn/T//ccxkT2Pi.s 			page 240


 13285 06d4 73706963 		.ascii	"spicallback_t\000"
 13285      616C6C62 
 13285      61636B5F 
 13285      7400
 13286              	.LASF173:
 13287 06e2 49324330 		.ascii	"I2C0\000"
 13287      00
 13288              	.LASF174:
 13289 06e7 49324331 		.ascii	"I2C1\000"
 13289      00
 13290              	.LASF59:
 13291 06ec 76745F70 		.ascii	"vt_prev\000"
 13291      72657600 
 13292              	.LASF425:
 13293 06f4 564C3533 		.ascii	"VL53L0X_DEV\000"
 13293      4C30585F 
 13293      44455600 
 13294              	.LASF460:
 13295 0700 66726F6E 		.ascii	"front_passenger_sensor_args\000"
 13295      745F7061 
 13295      7373656E 
 13295      6765725F 
 13295      73656E73 
 13296              	.LASF371:
 13297 071c 5F756E73 		.ascii	"_unspecified_locale_info\000"
 13297      70656369 
 13297      66696564 
 13297      5F6C6F63 
 13297      616C655F 
 13298              	.LASF364:
 13299 0735 5F726565 		.ascii	"_reent\000"
 13299      6E7400
 13300              	.LASF68:
 13301 073c 725F6E65 		.ascii	"r_newer\000"
 13301      77657200 
 13302              	.LASF419:
 13303 0744 5F676C6F 		.ascii	"_global_impure_ptr\000"
 13303      62616C5F 
 13303      696D7075 
 13303      72655F70 
 13303      747200
 13304              	.LASF294:
 13305 0757 53706164 		.ascii	"SpadData\000"
 13305      44617461 
 13305      00
 13306              	.LASF145:
 13307 0760 494F504F 		.ascii	"IOPORT0\000"
 13307      52543000 
 13308              	.LASF146:
 13309 0768 494F504F 		.ascii	"IOPORT1\000"
 13309      52543100 
 13310              	.LASF301:
 13311 0770 5369676D 		.ascii	"SigmaEstimate\000"
 13311      61457374 
 13311      696D6174 
 13311      6500
 13312              	.LASF175:
ARM GAS  /var/folders/3j/4xdnk5197cv_b7cw3n33qk7r0000gn/T//ccxkT2Pi.s 			page 241


 13313 077e 53445F55 		.ascii	"SD_UNINIT\000"
 13313      4E494E49 
 13313      5400
 13314              	.LASF429:
 13315 0788 53454E53 		.ascii	"SENSOR\000"
 13315      4F5200
 13316              	.LASF152:
 13317 078f 4932435F 		.ascii	"I2C_ACTIVE_RX\000"
 13317      41435449 
 13317      56455F52 
 13317      5800
 13318              	.LASF415:
 13319 079d 5F756E75 		.ascii	"_unused\000"
 13319      73656400 
 13320              	.LASF241:
 13321 07a5 564C3533 		.ascii	"VL53L0X_State\000"
 13321      4C30585F 
 13321      53746174 
 13321      6500
 13322              	.LASF541:
 13323 07b3 636D645F 		.ascii	"cmd_reboot\000"
 13323      7265626F 
 13323      6F7400
 13324              	.LASF532:
 13325 07be 69326341 		.ascii	"i2cAcquireBus\000"
 13325      63717569 
 13325      72654275 
 13325      7300
 13326              	.LASF281:
 13327 07cc 52656665 		.ascii	"ReferenceSpadType\000"
 13327      72656E63 
 13327      65537061 
 13327      64547970 
 13327      6500
 13328              	.LASF342:
 13329 07de 5F696E64 		.ascii	"_ind\000"
 13329      00
 13330              	.LASF89:
 13331 07e3 63686172 		.ascii	"char\000"
 13331      00
 13332              	.LASF239:
 13333 07e8 57726170 		.ascii	"WrapAroundCheckEnable\000"
 13333      41726F75 
 13333      6E644368 
 13333      65636B45 
 13333      6E61626C 
 13334              	.LASF343:
 13335 07fe 5F666E73 		.ascii	"_fns\000"
 13335      00
 13336              	.LASF127:
 13337 0803 62736364 		.ascii	"bscdevice_t\000"
 13337      65766963 
 13337      655F7400 
 13338              	.LASF355:
 13339 080f 5F636C6F 		.ascii	"_close\000"
 13339      736500
 13340              	.LASF526:
ARM GAS  /var/folders/3j/4xdnk5197cv_b7cw3n33qk7r0000gn/T//ccxkT2Pi.s 			page 242


 13341 0816 564C3533 		.ascii	"VL53L0X_PerformRefCalibration\000"
 13341      4C30585F 
 13341      50657266 
 13341      6F726D52 
 13341      65664361 
 13342              	.LASF34:
 13343 0834 705F7072 		.ascii	"p_prio\000"
 13343      696F00
 13344              	.LASF535:
 13345 083b 6932634D 		.ascii	"i2cMasterTransmitTimeout\000"
 13345      61737465 
 13345      72547261 
 13345      6E736D69 
 13345      7454696D 
 13346              	.LASF194:
 13347 0854 53504944 		.ascii	"SPIDriver\000"
 13347      72697665 
 13347      7200
 13348              	.LASF8:
 13349 085e 5F5F7569 		.ascii	"__uint16_t\000"
 13349      6E743136 
 13349      5F7400
 13350              	.LASF426:
 13351 0869 6C617374 		.ascii	"last_reading\000"
 13351      5F726561 
 13351      64696E67 
 13351      00
 13352              	.LASF110:
 13353 0876 47656E65 		.ascii	"GenericQueue\000"
 13353      72696351 
 13353      75657565 
 13353      00
 13354              	.LASF87:
 13355 0883 77746F62 		.ascii	"wtobjp\000"
 13355      6A7000
 13356              	.LASF224:
 13357 088a 564C3533 		.ascii	"VL53L0X_Error\000"
 13357      4C30585F 
 13357      4572726F 
 13357      7200
 13358              	.LASF476:
 13359 0898 706F6C6C 		.ascii	"poll_individual_measurement_value\000"
 13359      5F696E64 
 13359      69766964 
 13359      75616C5F 
 13359      6D656173 
 13360              	.LASF517:
 13361 08ba 7368656C 		.ascii	"shellCreate\000"
 13361      6C437265 
 13361      61746500 
 13362              	.LASF366:
 13363 08c6 5F737464 		.ascii	"_stdin\000"
 13363      696E00
 13364              	.LASF158:
 13365 08cd 6572726F 		.ascii	"errors\000"
 13365      727300
 13366              	.LASF99:
ARM GAS  /var/folders/3j/4xdnk5197cv_b7cw3n33qk7r0000gn/T//ccxkT2Pi.s 			page 243


 13367 08d4 63665F6F 		.ascii	"cf_off_newer\000"
 13367      66665F6E 
 13367      65776572 
 13367      00
 13368              	.LASF262:
 13369 08e1 564C3533 		.ascii	"VL53L0X_HistogramMeasurementData_t\000"
 13369      4C30585F 
 13369      48697374 
 13369      6F677261 
 13369      6D4D6561 
 13370              	.LASF505:
 13371 0904 564C3533 		.ascii	"VL53L0X_WriteMulti\000"
 13371      4C30585F 
 13371      57726974 
 13371      654D756C 
 13371      746900
 13372              	.LASF252:
 13373 0917 5A6F6E65 		.ascii	"ZoneId\000"
 13373      496400
 13374              	.LASF185:
 13375 091e 67657474 		.ascii	"gett\000"
 13375      00
 13376              	.LASF52:
 13377 0923 73746B61 		.ascii	"stkalign_t\000"
 13377      6C69676E 
 13377      5F7400
 13378              	.LASF216:
 13379 092e 73635F63 		.ascii	"sc_channel\000"
 13379      68616E6E 
 13379      656C00
 13380              	.LASF439:
 13381 0939 66726F6E 		.ascii	"front_passenger\000"
 13381      745F7061 
 13381      7373656E 
 13381      67657200 
 13382              	.LASF121:
 13383 0949 4F757470 		.ascii	"OutputQueue\000"
 13383      75745175 
 13383      65756500 
 13384              	.LASF251:
 13385 0955 45666665 		.ascii	"EffectiveSpadRtnCount\000"
 13385      63746976 
 13385      65537061 
 13385      6452746E 
 13385      436F756E 
 13386              	.LASF480:
 13387 096b 6C636C5F 		.ascii	"lcl_sensor\000"
 13387      73656E73 
 13387      6F7200
 13388              	.LASF435:
 13389 0976 63656E74 		.ascii	"center\000"
 13389      657200
 13390              	.LASF151:
 13391 097d 4932435F 		.ascii	"I2C_ACTIVE_TX\000"
 13391      41435449 
 13391      56455F54 
 13391      5800
ARM GAS  /var/folders/3j/4xdnk5197cv_b7cw3n33qk7r0000gn/T//ccxkT2Pi.s 			page 244


 13392              	.LASF303:
 13393 098b 4C617374 		.ascii	"LastSignalRefMcps\000"
 13393      5369676E 
 13393      616C5265 
 13393      664D6370 
 13393      7300
 13394              	.LASF139:
 13395 099d 67706C65 		.ascii	"gplev\000"
 13395      7600
 13396              	.LASF97:
 13397 09a3 63665F6F 		.ascii	"cf_off_prio\000"
 13397      66665F70 
 13397      72696F00 
 13398              	.LASF212:
 13399 09af 7368656C 		.ascii	"shellcmd_t\000"
 13399      6C636D64 
 13399      5F7400
 13400              	.LASF530:
 13401 09ba 564C3533 		.ascii	"VL53L0X_SetLimitCheckValue\000"
 13401      4C30585F 
 13401      5365744C 
 13401      696D6974 
 13401      43686563 
 13402              	.LASF144:
 13403 09d5 696F706F 		.ascii	"ioportmask_t\000"
 13403      72746D61 
 13403      736B5F74 
 13403      00
 13404              	.LASF487:
 13405 09e2 61727261 		.ascii	"array\000"
 13405      7900
 13406              	.LASF168:
 13407 09e8 72786964 		.ascii	"rxidx\000"
 13407      7800
 13408              	.LASF240:
 13409 09ee 564C3533 		.ascii	"VL53L0X_DeviceParameters_t\000"
 13409      4C30585F 
 13409      44657669 
 13409      63655061 
 13409      72616D65 
 13410              	.LASF515:
 13411 0a09 63687072 		.ascii	"chprintf\000"
 13411      696E7466 
 13411      00
 13412              	.LASF511:
 13413 0a12 63685468 		.ascii	"chThdSleep\000"
 13413      64536C65 
 13413      657000
 13414              	.LASF424:
 13415 0a1d 564C3533 		.ascii	"VL53L0X_Dev_t\000"
 13415      4C30585F 
 13415      4465765F 
 13415      7400
 13416              	.LASF61:
 13417 0a2b 76745F66 		.ascii	"vt_func\000"
 13417      756E6300 
 13418              	.LASF300:
ARM GAS  /var/folders/3j/4xdnk5197cv_b7cw3n33qk7r0000gn/T//ccxkT2Pi.s 			page 245


 13419 0a33 74617267 		.ascii	"targetRefRate\000"
 13419      65745265 
 13419      66526174 
 13419      6500
 13420              	.LASF272:
 13421 0a41 50726552 		.ascii	"PreRangeVcselPulsePeriod\000"
 13421      616E6765 
 13421      56637365 
 13421      6C50756C 
 13421      73655065 
 13422              	.LASF208:
 13423 0a5a 62756666 		.ascii	"buffer\000"
 13423      657200
 13424              	.LASF134:
 13425 0a61 64617461 		.ascii	"dataDelay\000"
 13425      44656C61 
 13425      7900
 13426              	.LASF351:
 13427 0a6b 5F636F6F 		.ascii	"_cookie\000"
 13427      6B696500 
 13428              	.LASF54:
 13429 0a73 696E7463 		.ascii	"intctx\000"
 13429      747800
 13430              	.LASF47:
 13431 0a7a 705F6570 		.ascii	"p_epending\000"
 13431      656E6469 
 13431      6E6700
 13432              	.LASF218:
 13433 0a85 5368656C 		.ascii	"ShellConfig\000"
 13433      6C436F6E 
 13433      66696700 
 13434              	.LASF325:
 13435 0a91 5F776473 		.ascii	"_wds\000"
 13435      00
 13436              	.LASF416:
 13437 0a96 5F5F6C6F 		.ascii	"__lock\000"
 13437      636B00
 13438              	.LASF509:
 13439 0a9d 564C3533 		.ascii	"VL53L0X_RdByte\000"
 13439      4C30585F 
 13439      52644279 
 13439      746500
 13440              	.LASF383:
 13441 0aac 5F736967 		.ascii	"_sig_func\000"
 13441      5F66756E 
 13441      6300
 13442              	.LASF153:
 13443 0ab6 4932435F 		.ascii	"I2C_LOCKED\000"
 13443      4C4F434B 
 13443      454400
 13444              	.LASF302:
 13445 0ac1 5369676E 		.ascii	"SignalEstimate\000"
 13445      616C4573 
 13445      74696D61 
 13445      746500
 13446              	.LASF436:
 13447 0ad0 72656672 		.ascii	"refresh_rate\000"
ARM GAS  /var/folders/3j/4xdnk5197cv_b7cw3n33qk7r0000gn/T//ccxkT2Pi.s 			page 246


 13447      6573685F 
 13447      72617465 
 13447      00
 13448              	.LASF438:
 13449 0add 66726F6E 		.ascii	"front_driver\000"
 13449      745F6472 
 13449      69766572 
 13449      00
 13450              	.LASF359:
 13451 0aea 5F6F6666 		.ascii	"_offset\000"
 13451      73657400 
 13452              	.LASF258:
 13453 0af2 46697273 		.ascii	"FirstBin\000"
 13453      7442696E 
 13453      00
 13454              	.LASF380:
 13455 0afb 5F637674 		.ascii	"_cvtbuf\000"
 13455      62756600 
 13456              	.LASF462:
 13457 0b03 72656172 		.ascii	"rear_passenger_sensor_args\000"
 13457      5F706173 
 13457      73656E67 
 13457      65725F73 
 13457      656E736F 
 13458              	.LASF211:
 13459 0b1e 74657374 		.ascii	"test_timer_done\000"
 13459      5F74696D 
 13459      65725F64 
 13459      6F6E6500 
 13460              	.LASF155:
 13461 0b2e 49324344 		.ascii	"I2CDriver\000"
 13461      72697665 
 13461      7200
 13462              	.LASF486:
 13463 0b38 73657475 		.ascii	"setup_sensor_array\000"
 13463      705F7365 
 13463      6E736F72 
 13463      5F617272 
 13463      617900
 13464              	.LASF84:
 13465 0b4b 65735F6E 		.ascii	"es_next\000"
 13465      65787400 
 13466              	.LASF112:
 13467 0b53 715F636F 		.ascii	"q_counter\000"
 13467      756E7465 
 13467      7200
 13468              	.LASF528:
 13469 0b5d 564C3533 		.ascii	"VL53L0X_SetDeviceMode\000"
 13469      4C30585F 
 13469      53657444 
 13469      65766963 
 13469      654D6F64 
 13470              	.LASF531:
 13471 0b73 564C3533 		.ascii	"VL53L0X_SetMeasurementTimingBudgetMicroSeconds\000"
 13471      4C30585F 
 13471      5365744D 
 13471      65617375 
ARM GAS  /var/folders/3j/4xdnk5197cv_b7cw3n33qk7r0000gn/T//ccxkT2Pi.s 			page 247


 13471      72656D65 
 13472              	.LASF83:
 13473 0ba2 4576656E 		.ascii	"EventSource\000"
 13473      74536F75 
 13473      72636500 
 13474              	.LASF377:
 13475 0bae 5F703573 		.ascii	"_p5s\000"
 13475      00
 13476              	.LASF13:
 13477 0bb3 6C6F6E67 		.ascii	"long unsigned int\000"
 13477      20756E73 
 13477      69676E65 
 13477      6420696E 
 13477      7400
 13478              	.LASF91:
 13479 0bc5 63685F7A 		.ascii	"ch_zero\000"
 13479      65726F00 
 13480              	.LASF129:
 13481 0bcd 73746174 		.ascii	"status\000"
 13481      757300
 13482              	.LASF373:
 13483 0bd4 5F5F7364 		.ascii	"__sdidinit\000"
 13483      6964696E 
 13483      697400
 13484              	.LASF284:
 13485 0bdf 50617274 		.ascii	"PartUIDLower\000"
 13485      5549444C 
 13485      6F776572 
 13485      00
 13486              	.LASF449:
 13487 0bec 77615468 		.ascii	"waThread_display\000"
 13487      72656164 
 13487      5F646973 
 13487      706C6179 
 13487      00
 13488              	.LASF488:
 13489 0bfd 73657475 		.ascii	"setup_device_address\000"
 13489      705F6465 
 13489      76696365 
 13489      5F616464 
 13489      72657373 
 13490              	.LASF304:
 13491 0c12 7054756E 		.ascii	"pTuningSettingsPointer\000"
 13491      696E6753 
 13491      65747469 
 13491      6E677350 
 13491      6F696E74 
 13492              	.LASF79:
 13493 0c29 656C5F6E 		.ascii	"el_next\000"
 13493      65787400 
 13494              	.LASF289:
 13495 0c31 50617274 		.ascii	"Part2PartOffsetAdjustmentNVMMicroMeter\000"
 13495      32506172 
 13495      744F6666 
 13495      73657441 
 13495      646A7573 
 13496              	.LASF365:
ARM GAS  /var/folders/3j/4xdnk5197cv_b7cw3n33qk7r0000gn/T//ccxkT2Pi.s 			page 248


 13497 0c58 5F657272 		.ascii	"_errno\000"
 13497      6E6F00
 13498              	.LASF516:
 13499 0c5f 7368656C 		.ascii	"shellInit\000"
 13499      6C496E69 
 13499      7400
 13500              	.LASF115:
 13501 0c69 715F7772 		.ascii	"q_wrptr\000"
 13501      70747200 
 13502              	.LASF405:
 13503 0c71 5F736967 		.ascii	"_signal_buf\000"
 13503      6E616C5F 
 13503      62756600 
 13504              	.LASF183:
 13505 0c7d 53657269 		.ascii	"SerialDriverVMT\000"
 13505      616C4472 
 13505      69766572 
 13505      564D5400 
 13506              	.LASF514:
 13507 0c8d 73645374 		.ascii	"sdStart\000"
 13507      61727400 
 13508              	.LASF205:
 13509 0c95 636C6F63 		.ascii	"clock_divider\000"
 13509      6B5F6469 
 13509      76696465 
 13509      7200
 13510              	.LASF227:
 13511 0ca3 564C3533 		.ascii	"VL53L0X_PowerModes\000"
 13511      4C30585F 
 13511      506F7765 
 13511      724D6F64 
 13511      657300
 13512              	.LASF512:
 13513 0cb6 68616C49 		.ascii	"halInit\000"
 13513      6E697400 
 13514              	.LASF440:
 13515 0cbe 72656172 		.ascii	"rear_driver\000"
 13515      5F647269 
 13515      76657200 
 13516              	.LASF464:
 13517 0cca 61726763 		.ascii	"argc\000"
 13517      00
 13518              	.LASF321:
 13519 0ccf 5F426967 		.ascii	"_Bigint\000"
 13519      696E7400 
 13520              	.LASF478:
 13521 0cd7 61727261 		.ascii	"array_in\000"
 13521      795F696E 
 13521      00
 13522              	.LASF323:
 13523 0ce0 5F6D6178 		.ascii	"_maxwds\000"
 13523      77647300 
 13524              	.LASF510:
 13525 0ce8 564C3533 		.ascii	"VL53L0X_GetMeasurementDataReady\000"
 13525      4C30585F 
 13525      4765744D 
 13525      65617375 
ARM GAS  /var/folders/3j/4xdnk5197cv_b7cw3n33qk7r0000gn/T//ccxkT2Pi.s 			page 249


 13525      72656D65 
 13526              	.LASF465:
 13527 0d08 61726776 		.ascii	"argv\000"
 13527      00
 13528              	.LASF374:
 13529 0d0d 5F5F636C 		.ascii	"__cleanup\000"
 13529      65616E75 
 13529      7000
 13530              	.LASF292:
 13531 0d17 4C617374 		.ascii	"LastHistogramMeasure\000"
 13531      48697374 
 13531      6F677261 
 13531      6D4D6561 
 13531      73757265 
 13532              	.LASF396:
 13533 0d2c 5F617363 		.ascii	"_asctime_buf\000"
 13533      74696D65 
 13533      5F627566 
 13533      00
 13534              	.LASF106:
 13535 0d39 63665F6F 		.ascii	"cf_off_preempt\000"
 13535      66665F70 
 13535      7265656D 
 13535      707400
 13536              	.LASF495:
 13537 0d48 4F724461 		.ascii	"OrData\000"
 13537      746100
 13538              	.LASF12:
 13539 0d4f 5F5F7569 		.ascii	"__uint32_t\000"
 13539      6E743332 
 13539      5F7400
 13540              	.LASF370:
 13541 0d5a 5F656D65 		.ascii	"_emergency\000"
 13541      7267656E 
 13541      637900
 13542              	.LASF74:
 13543 0d65 4D757465 		.ascii	"Mutex\000"
 13543      7800
 13544              	.LASF236:
 13545 0d6b 4C696D69 		.ascii	"LimitChecksEnable\000"
 13545      74436865 
 13545      636B7345 
 13545      6E61626C 
 13545      6500
 13546              	.LASF290:
 13547 0d7d 43757272 		.ascii	"CurrentParameters\000"
 13547      656E7450 
 13547      6172616D 
 13547      65746572 
 13547      7300
 13548              	.LASF190:
 13549 0d8f 5350495F 		.ascii	"SPI_READY\000"
 13549      52454144 
 13549      5900
 13550              	.LASF14:
 13551 0d99 6C6F6E67 		.ascii	"long long int\000"
 13551      206C6F6E 
ARM GAS  /var/folders/3j/4xdnk5197cv_b7cw3n33qk7r0000gn/T//ccxkT2Pi.s 			page 250


 13551      6720696E 
 13551      7400
 13552              	.LASF244:
 13553 0da7 564C3533 		.ascii	"VL53L0X_DMaxData_t\000"
 13553      4C30585F 
 13553      444D6178 
 13553      44617461 
 13553      5F7400
 13554              	.LASF148:
 13555 0dba 4932435F 		.ascii	"I2C_UNINIT\000"
 13555      554E494E 
 13555      495400
 13556              	.LASF93:
 13557 0dc5 63685F76 		.ascii	"ch_version\000"
 13557      65727369 
 13557      6F6E00
 13558              	.LASF255:
 13559 0dd0 564C3533 		.ascii	"VL53L0X_RangingMeasurementData_t\000"
 13559      4C30585F 
 13559      52616E67 
 13559      696E674D 
 13559      65617375 
 13560              	.LASF75:
 13561 0df1 6D5F7175 		.ascii	"m_queue\000"
 13561      65756500 
 13562              	.LASF388:
 13563 0df9 5F6E696F 		.ascii	"_niobs\000"
 13563      627300
 13564              	.LASF58:
 13565 0e00 76745F6E 		.ascii	"vt_next\000"
 13565      65787400 
 13566              	.LASF518:
 13567 0e08 63685468 		.ascii	"chThdCreateStatic\000"
 13567      64437265 
 13567      61746553 
 13567      74617469 
 13567      6300
 13568              	.LASF384:
 13569 0e1a 5F5F7367 		.ascii	"__sglue\000"
 13569      6C756500 
 13570              	.LASF136:
 13571 0e22 6C617463 		.ascii	"latch\000"
 13571      6800
 13572              	.LASF414:
 13573 0e28 5F6E6D61 		.ascii	"_nmalloc\000"
 13573      6C6C6F63 
 13573      00
 13574              	.LASF278:
 13575 0e31 52657669 		.ascii	"Revision\000"
 13575      73696F6E 
 13575      00
 13576              	.LASF428:
 13577 0e3a 646F7562 		.ascii	"double\000"
 13577      6C6500
 13578              	.LASF538:
 13579 0e41 6D61696E 		.ascii	"main.c\000"
 13579      2E6300
ARM GAS  /var/folders/3j/4xdnk5197cv_b7cw3n33qk7r0000gn/T//ccxkT2Pi.s 			page 251


 13580              	.LASF141:
 13581 0e48 70696E5F 		.ascii	"pin_base\000"
 13581      62617365 
 13581      00
 13582              	.LASF482:
 13583 0e51 5648565F 		.ascii	"VHV_settings\000"
 13583      73657474 
 13583      696E6773 
 13583      00
 13584              	.LASF498:
 13585 0e5e 564C3533 		.ascii	"VL53L0X_RdWord\000"
 13585      4C30585F 
 13585      5264576F 
 13585      726400
 13586              	.LASF207:
 13587 0e6d 53504930 		.ascii	"SPI0\000"
 13587      00
 13588              	.LASF446:
 13589 0e72 77615468 		.ascii	"waThread_front_passenger\000"
 13589      72656164 
 13589      5F66726F 
 13589      6E745F70 
 13589      61737365 
 13590              	.LASF474:
 13591 0e8b 73657475 		.ascii	"setup_mux_GPIO\000"
 13591      705F6D75 
 13591      785F4750 
 13591      494F00
 13592              	.LASF378:
 13593 0e9a 5F667265 		.ascii	"_freelist\000"
 13593      656C6973 
 13593      7400
 13594              	.LASF389:
 13595 0ea4 5F696F62 		.ascii	"_iobs\000"
 13595      7300
 13596              	.LASF154:
 13597 0eaa 69326373 		.ascii	"i2cstate_t\000"
 13597      74617465 
 13597      5F7400
 13598              	.LASF160:
 13599 0eb5 6D757465 		.ascii	"mutex\000"
 13599      7800
 13600              	.LASF387:
 13601 0ebb 5F676C75 		.ascii	"_glue\000"
 13601      6500
 13602              	.LASF324:
 13603 0ec1 5F736967 		.ascii	"_sign\000"
 13603      6E00
 13604              	.LASF128:
 13605 0ec7 636F6E74 		.ascii	"control\000"
 13605      726F6C00 
 13606              	.LASF461:
 13607 0ecf 72656172 		.ascii	"rear_driver_sensor_args\000"
 13607      5F647269 
 13607      7665725F 
 13607      73656E73 
 13607      6F725F61 
ARM GAS  /var/folders/3j/4xdnk5197cv_b7cw3n33qk7r0000gn/T//ccxkT2Pi.s 			page 252


 13608              	.LASF0:
 13609 0ee7 666C6F61 		.ascii	"float\000"
 13609      7400
 13610              	.LASF119:
 13611 0eed 716E6F74 		.ascii	"qnotify_t\000"
 13611      6966795F 
 13611      7400
 13612              	.LASF291:
 13613 0ef7 4C617374 		.ascii	"LastRangeMeasure\000"
 13613      52616E67 
 13613      654D6561 
 13613      73757265 
 13613      00
 13614              	.LASF44:
 13615 0f08 705F7761 		.ascii	"p_waiting\000"
 13615      6974696E 
 13615      6700
 13616              	.LASF180:
 13617 0f12 6576656E 		.ascii	"event\000"
 13617      7400
 13618              	.LASF162:
 13619 0f18 61646472 		.ascii	"addr\000"
 13619      00
 13620              	.LASF508:
 13621 0f1d 564C3533 		.ascii	"VL53L0X_WrByte\000"
 13621      4C30585F 
 13621      57724279 
 13621      746500
 13622              	.LASF40:
 13623 0f2c 705F666C 		.ascii	"p_flags\000"
 13623      61677300 
 13624              	.LASF124:
 13625 0f34 72656164 		.ascii	"read\000"
 13625      00
 13626              	.LASF469:
 13627 0f39 77726974 		.ascii	"write_to_blink\000"
 13627      655F746F 
 13627      5F626C69 
 13627      6E6B00
 13628              	.LASF363:
 13629 0f48 5F666C61 		.ascii	"_flags2\000"
 13629      67733200 
 13630              	.LASF1:
 13631 0f50 756E7369 		.ascii	"unsigned int\000"
 13631      676E6564 
 13631      20696E74 
 13631      00
 13632              	.LASF230:
 13633 0f5d 4D656173 		.ascii	"MeasurementTimingBudgetMicroSeconds\000"
 13633      7572656D 
 13633      656E7454 
 13633      696D696E 
 13633      67427564 
 13634              	.LASF102:
 13635 0f81 63665F6F 		.ascii	"cf_off_stklimit\000"
 13635      66665F73 
 13635      746B6C69 
ARM GAS  /var/folders/3j/4xdnk5197cv_b7cw3n33qk7r0000gn/T//ccxkT2Pi.s 			page 253


 13635      6D697400 
 13636              	.LASF206:
 13637 0f91 53504943 		.ascii	"SPIConfig\000"
 13637      6F6E6669 
 13637      6700
 13638              	.LASF287:
 13639 0f9b 444D6178 		.ascii	"DMaxData\000"
 13639      44617461 
 13639      00
 13640              	.LASF305:
 13641 0fa4 55736549 		.ascii	"UseInternalTuningSettings\000"
 13641      6E746572 
 13641      6E616C54 
 13641      756E696E 
 13641      67536574 
 13642              	.LASF191:
 13643 0fbe 5350495F 		.ascii	"SPI_ACTIVE\000"
 13643      41435449 
 13643      564500
 13644              	.LASF243:
 13645 0fc9 52657453 		.ascii	"RetSignalAt0mm\000"
 13645      69676E61 
 13645      6C417430 
 13645      6D6D00
 13646              	.LASF265:
 13647 0fd8 564C3533 		.ascii	"VL53L0X_SpadData_t\000"
 13647      4C30585F 
 13647      53706164 
 13647      44617461 
 13647      5F7400
 13648              	.LASF412:
 13649 0feb 5F685F65 		.ascii	"_h_errno\000"
 13649      72726E6F 
 13649      00
 13650              	.LASF232:
 13651 0ff4 5854616C 		.ascii	"XTalkCompensationEnable\000"
 13651      6B436F6D 
 13651      70656E73 
 13651      6174696F 
 13651      6E456E61 
 13652              	.LASF41:
 13653 100c 705F7265 		.ascii	"p_refs\000"
 13653      667300
 13654              	.LASF95:
 13655 1013 63685F74 		.ascii	"ch_timesize\000"
 13655      696D6573 
 13655      697A6500 
 13656              	.LASF522:
 13657 101f 68616C50 		.ascii	"halPolledDelay\000"
 13657      6F6C6C65 
 13657      6444656C 
 13657      617900
 13658              	.LASF410:
 13659 102e 5F776372 		.ascii	"_wcrtomb_state\000"
 13659      746F6D62 
 13659      5F737461 
 13659      746500
ARM GAS  /var/folders/3j/4xdnk5197cv_b7cw3n33qk7r0000gn/T//ccxkT2Pi.s 			page 254


 13660              	.LASF463:
 13661 103d 64697370 		.ascii	"display_sensor_args\000"
 13661      6C61795F 
 13661      73656E73 
 13661      6F725F61 
 13661      72677300 
 13662              	.LASF309:
 13663 1051 564C3533 		.ascii	"VL53L0X_DevData_t\000"
 13663      4C30585F 
 13663      44657644 
 13663      6174615F 
 13663      7400
 13664              	.LASF167:
 13665 1063 72786279 		.ascii	"rxbytes\000"
 13665      74657300 
 13666              	.LASF330:
 13667 106b 5F5F746D 		.ascii	"__tm_mday\000"
 13667      5F6D6461 
 13667      7900
 13668              	.LASF381:
 13669 1075 5F6E6577 		.ascii	"_new\000"
 13669      00
 13670              	.LASF524:
 13671 107a 564C3533 		.ascii	"VL53L0X_DataInit\000"
 13671      4C30585F 
 13671      44617461 
 13671      496E6974 
 13671      00
 13672              	.LASF356:
 13673 108b 5F756275 		.ascii	"_ubuf\000"
 13673      6600
 13674              	.LASF448:
 13675 1091 77615468 		.ascii	"waThread_rear_passenger\000"
 13675      72656164 
 13675      5F726561 
 13675      725F7061 
 13675      7373656E 
 13676              	.LASF368:
 13677 10a9 5F737464 		.ascii	"_stderr\000"
 13677      65727200 
 13678              	.LASF51:
 13679 10b1 54687265 		.ascii	"ThreadsList\000"
 13679      6164734C 
 13679      69737400 
 13680              	.LASF362:
 13681 10bd 5F6D6273 		.ascii	"_mbstate\000"
 13681      74617465 
 13681      00
 13682              	.LASF238:
 13683 10c6 4C696D69 		.ascii	"LimitChecksValue\000"
 13683      74436865 
 13683      636B7356 
 13683      616C7565 
 13683      00
 13684              	.LASF150:
 13685 10d7 4932435F 		.ascii	"I2C_READY\000"
 13685      52454144 
ARM GAS  /var/folders/3j/4xdnk5197cv_b7cw3n33qk7r0000gn/T//ccxkT2Pi.s 			page 255


 13685      5900
 13686              	.LASF348:
 13687 10e1 5F666C61 		.ascii	"_flags\000"
 13687      677300
 13688              	.LASF540:
 13689 10e8 74657374 		.ascii	"test_buffers\000"
 13689      5F627566 
 13689      66657273 
 13689      00
 13690              	.LASF437:
 13691 10f5 53454E53 		.ascii	"SENSOR_QUADRANT\000"
 13691      4F525F51 
 13691      55414452 
 13691      414E5400 
 13692              	.LASF273:
 13693 1105 5369676D 		.ascii	"SigmaEstRefArray\000"
 13693      61457374 
 13693      52656641 
 13693      72726179 
 13693      00
 13694              	.LASF29:
 13695 1116 666C6167 		.ascii	"flagsmask_t\000"
 13695      736D6173 
 13695      6B5F7400 
 13696              	.LASF499:
 13697 1122 564C3533 		.ascii	"VL53L0X_WrDWord\000"
 13697      4C30585F 
 13697      57724457 
 13697      6F726400 
 13698              	.LASF494:
 13699 1132 416E6444 		.ascii	"AndData\000"
 13699      61746100 
 13700              	.LASF257:
 13701 113a 48697374 		.ascii	"HistogramType\000"
 13701      6F677261 
 13701      6D547970 
 13701      6500
 13702              	.LASF264:
 13703 1148 52656647 		.ascii	"RefGoodSpadMap\000"
 13703      6F6F6453 
 13703      7061644D 
 13703      617000
 13704              	.LASF43:
 13705 1157 705F7469 		.ascii	"p_time\000"
 13705      6D6500
 13706              	.LASF382:
 13707 115e 5F617465 		.ascii	"_atexit0\000"
 13707      78697430 
 13707      00
 13708              	.LASF105:
 13709 1167 63665F6F 		.ascii	"cf_off_refs\000"
 13709      66665F72 
 13709      65667300 
 13710              	.LASF316:
 13711 1173 5F5F636F 		.ascii	"__count\000"
 13711      756E7400 
 13712              	.LASF306:
ARM GAS  /var/folders/3j/4xdnk5197cv_b7cw3n33qk7r0000gn/T//ccxkT2Pi.s 			page 256


 13713 117b 4C696E65 		.ascii	"LinearityCorrectiveGain\000"
 13713      61726974 
 13713      79436F72 
 13713      72656374 
 13713      69766547 
 13714              	.LASF445:
 13715 1193 77615468 		.ascii	"waThread_front_driver\000"
 13715      72656164 
 13715      5F66726F 
 13715      6E745F64 
 13715      72697665 
 13716              	.LASF534:
 13717 11a9 69326352 		.ascii	"i2cReleaseBus\000"
 13717      656C6561 
 13717      73654275 
 13717      7300
 13718              	.LASF333:
 13719 11b7 5F5F746D 		.ascii	"__tm_wday\000"
 13719      5F776461 
 13719      7900
 13720              	.LASF260:
 13721 11c1 4E756D62 		.ascii	"NumberOfBins\000"
 13721      65724F66 
 13721      42696E73 
 13721      00
 13722              	.LASF519:
 13723 11ce 63685468 		.ascii	"chThdWait\000"
 13723      64576169 
 13723      7400
 13724              	.LASF220:
 13725 11d8 6C6F6E67 		.ascii	"long double\000"
 13725      20646F75 
 13725      626C6500 
 13726              	.LASF334:
 13727 11e4 5F5F746D 		.ascii	"__tm_yday\000"
 13727      5F796461 
 13727      7900
 13728              	.LASF49:
 13729 11ee 705F7265 		.ascii	"p_realprio\000"
 13729      616C7072 
 13729      696F00
 13730              	.LASF166:
 13731 11f9 72786275 		.ascii	"rxbuf\000"
 13731      6600
 13732              	.LASF235:
 13733 11ff 52616E67 		.ascii	"RangeOffsetMicroMeters\000"
 13733      654F6666 
 13733      7365744D 
 13733      6963726F 
 13733      4D657465 
 13734              	.LASF331:
 13735 1216 5F5F746D 		.ascii	"__tm_mon\000"
 13735      5F6D6F6E 
 13735      00
 13736              	.LASF246:
 13737 121f 4D656173 		.ascii	"MeasurementTimeUsec\000"
 13737      7572656D 
ARM GAS  /var/folders/3j/4xdnk5197cv_b7cw3n33qk7r0000gn/T//ccxkT2Pi.s 			page 257


 13737      656E7454 
 13737      696D6555 
 13737      73656300 
 13738              	.LASF107:
 13739 1233 63665F6F 		.ascii	"cf_off_time\000"
 13739      66665F74 
 13739      696D6500 
 13740              	.LASF219:
 13741 123f 7368656C 		.ascii	"shell_terminated\000"
 13741      6C5F7465 
 13741      726D696E 
 13741      61746564 
 13741      00
 13742              	.LASF354:
 13743 1250 5F736565 		.ascii	"_seek\000"
 13743      6B00
 13744              	.LASF201:
 13745 1256 63686970 		.ascii	"chip_select_polarity0\000"
 13745      5F73656C 
 13745      6563745F 
 13745      706F6C61 
 13745      72697479 
 13746              	.LASF202:
 13747 126c 63686970 		.ascii	"chip_select_polarity1\000"
 13747      5F73656C 
 13747      6563745F 
 13747      706F6C61 
 13747      72697479 
 13748              	.LASF261:
 13749 1282 4572726F 		.ascii	"ErrorStatus\000"
 13749      72537461 
 13749      74757300 
 13750              	.LASF172:
 13751 128e 49324343 		.ascii	"I2CConfig\000"
 13751      6F6E6669 
 13751      6700
 13752              	.LASF229:
 13753 1298 48697374 		.ascii	"HistogramMode\000"
 13753      6F677261 
 13753      6D4D6F64 
 13753      6500
 13754              	.LASF203:
 13755 12a6 636C6F63 		.ascii	"clock_polarity\000"
 13755      6B5F706F 
 13755      6C617269 
 13755      747900
 13756              	.LASF312:
 13757 12b5 5F66706F 		.ascii	"_fpos_t\000"
 13757      735F7400 
 13758              	.LASF315:
 13759 12bd 5F5F7763 		.ascii	"__wchb\000"
 13759      686200
 13760              	.LASF130:
 13761 12c4 64617461 		.ascii	"dataLength\000"
 13761      4C656E67 
 13761      746800
 13762              	.LASF199:
ARM GAS  /var/folders/3j/4xdnk5197cv_b7cw3n33qk7r0000gn/T//ccxkT2Pi.s 			page 258


 13763 12cf 63686970 		.ascii	"chip_select\000"
 13763      5F73656C 
 13763      65637400 
 13764              	.LASF458:
 13765 12db 72656172 		.ascii	"rear_mux\000"
 13765      5F6D7578 
 13765      00
 13766              	.LASF402:
 13767 12e4 5F6D6274 		.ascii	"_mbtowc_state\000"
 13767      6F77635F 
 13767      73746174 
 13767      6500
 13768              	.LASF3:
 13769 12f2 5F5F696E 		.ascii	"__int8_t\000"
 13769      74385F74 
 13769      00
 13770              	.LASF479:
 13771 12fb 696E6469 		.ascii	"individual_sensor\000"
 13771      76696475 
 13771      616C5F73 
 13771      656E736F 
 13771      7200
 13772              	.LASF164:
 13773 130d 74786279 		.ascii	"txbytes\000"
 13773      74657300 
 13774              	.LASF159:
 13775 1315 64657669 		.ascii	"device\000"
 13775      636500
 13776              	.LASF286:
 13777 131c 564C3533 		.ascii	"VL53L0X_DeviceSpecificParameters_t\000"
 13777      4C30585F 
 13777      44657669 
 13777      63655370 
 13777      65636966 
 13778              	.LASF299:
 13779 133f 53746F70 		.ascii	"StopVariable\000"
 13779      56617269 
 13779      61626C65 
 13779      00
 13780              	.LASF15:
 13781 134c 6C6F6E67 		.ascii	"long long unsigned int\000"
 13781      206C6F6E 
 13781      6720756E 
 13781      7369676E 
 13781      65642069 
 13782              	.LASF37:
 13783 1363 705F6F6C 		.ascii	"p_older\000"
 13783      64657200 
 13784              	.LASF18:
 13785 136b 75696E74 		.ascii	"uint16_t\000"
 13785      31365F74 
 13785      00
 13786              	.LASF403:
 13787 1374 5F776374 		.ascii	"_wctomb_state\000"
 13787      6F6D625F 
 13787      73746174 
 13787      6500
ARM GAS  /var/folders/3j/4xdnk5197cv_b7cw3n33qk7r0000gn/T//ccxkT2Pi.s 			page 259


 13788              	.LASF338:
 13789 1382 5F64736F 		.ascii	"_dso_handle\000"
 13789      5F68616E 
 13789      646C6500 
 13790              	.LASF27:
 13791 138e 6D73675F 		.ascii	"msg_t\000"
 13791      7400
 13792              	.LASF456:
 13793 1394 66726F6E 		.ascii	"front_mux\000"
 13793      745F6D75 
 13793      7800
 13794              	.LASF390:
 13795 139e 5F72616E 		.ascii	"_rand48\000"
 13795      64343800 
 13796              	.LASF198:
 13797 13a6 6C6F7373 		.ascii	"lossiEnabled\000"
 13797      69456E61 
 13797      626C6564 
 13797      00
 13798              	.LASF104:
 13799 13b3 63665F6F 		.ascii	"cf_off_flags\000"
 13799      66665F66 
 13799      6C616773 
 13799      00
 13800              	.LASF367:
 13801 13c0 5F737464 		.ascii	"_stdout\000"
 13801      6F757400 
 13802              	.LASF25:
 13803 13c8 74736C69 		.ascii	"tslices_t\000"
 13803      6365735F 
 13803      7400
 13804              	.LASF270:
 13805 13d2 46696E61 		.ascii	"FinalRangeVcselPulsePeriod\000"
 13805      6C52616E 
 13805      67655663 
 13805      73656C50 
 13805      756C7365 
 13806              	.LASF467:
 13807 13ed 63686563 		.ascii	"check_error_vl53\000"
 13807      6B5F6572 
 13807      726F725F 
 13807      766C3533 
 13807      00
 13808              	.LASF271:
 13809 13fe 50726552 		.ascii	"PreRangeTimeoutMicroSecs\000"
 13809      616E6765 
 13809      54696D65 
 13809      6F75744D 
 13809      6963726F 
 13810              	.LASF70:
 13811 1417 725F6375 		.ascii	"r_current\000"
 13811      7272656E 
 13811      7400
 13812              	.LASF431:
 13813 1421 4750494F 		.ascii	"GPIO_PIN\000"
 13813      5F50494E 
 13813      00
ARM GAS  /var/folders/3j/4xdnk5197cv_b7cw3n33qk7r0000gn/T//ccxkT2Pi.s 			page 260


 13814              	.LASF64:
 13815 142a 56544C69 		.ascii	"VTList\000"
 13815      737400
 13816              	.LASF345:
 13817 1431 5F626173 		.ascii	"_base\000"
 13817      6500
 13818              	.LASF293:
 13819 1437 44657669 		.ascii	"DeviceSpecificParameters\000"
 13819      63655370 
 13819      65636966 
 13819      69635061 
 13819      72616D65 
 13820              	.LASF237:
 13821 1450 4C696D69 		.ascii	"LimitChecksStatus\000"
 13821      74436865 
 13821      636B7353 
 13821      74617475 
 13821      7300
 13822              	.LASF233:
 13823 1462 5854616C 		.ascii	"XTalkCompensationRangeMilliMeter\000"
 13823      6B436F6D 
 13823      70656E73 
 13823      6174696F 
 13823      6E52616E 
 13824              	.LASF283:
 13825 1483 50617274 		.ascii	"PartUIDUpper\000"
 13825      55494455 
 13825      70706572 
 13825      00
 13826              	.LASF137:
 13827 1490 67707365 		.ascii	"gpset\000"
 13827      7400
 13828              	.LASF408:
 13829 1496 5F6D6272 		.ascii	"_mbrtowc_state\000"
 13829      746F7763 
 13829      5F737461 
 13829      746500
 13830              	.LASF138:
 13831 14a5 6770636C 		.ascii	"gpclr\000"
 13831      7200
 13832              	.LASF319:
 13833 14ab 5F666C6F 		.ascii	"_flock_t\000"
 13833      636B5F74 
 13833      00
 13834              	.LASF481:
 13835 14b4 6572726F 		.ascii	"error_code\000"
 13835      725F636F 
 13835      646500
 13836              	.LASF443:
 13837 14bf 636F6D6D 		.ascii	"commands\000"
 13837      616E6473 
 13837      00
 13838              	.LASF386:
 13839 14c8 5F5F4649 		.ascii	"__FILE\000"
 13839      4C4500
 13840              	.LASF234:
 13841 14cf 5854616C 		.ascii	"XTalkCompensationRateMegaCps\000"
ARM GAS  /var/folders/3j/4xdnk5197cv_b7cw3n33qk7r0000gn/T//ccxkT2Pi.s 			page 261


 13841      6B436F6D 
 13841      70656E73 
 13841      6174696F 
 13841      6E526174 
 13842              	.LASF453:
 13843 14ec 54687265 		.ascii	"Thread_Sensor\000"
 13843      61645F53 
 13843      656E736F 
 13843      7200
 13844              	.LASF318:
 13845 14fa 5F6D6273 		.ascii	"_mbstate_t\000"
 13845      74617465 
 13845      5F7400
 13846              	.LASF269:
 13847 1505 46696E61 		.ascii	"FinalRangeTimeoutMicroSecs\000"
 13847      6C52616E 
 13847      67655469 
 13847      6D656F75 
 13847      744D6963 
 13848              	.LASF65:
 13849 1520 725F7175 		.ascii	"r_queue\000"
 13849      65756500 
 13850              	.LASF400:
 13851 1528 5F723438 		.ascii	"_r48\000"
 13851      00
 13852              	.LASF501:
 13853 152d 564C3533 		.ascii	"VL53L0X_ReadMulti\000"
 13853      4C30585F 
 13853      52656164 
 13853      4D756C74 
 13853      6900
 13854              	.LASF313:
 13855 153f 77696E74 		.ascii	"wint_t\000"
 13855      5F7400
 13856              	.LASF179:
 13857 1546 53657269 		.ascii	"SerialDriver\000"
 13857      616C4472 
 13857      69766572 
 13857      00
 13858              	.LASF529:
 13859 1553 564C3533 		.ascii	"VL53L0X_SetLimitCheckEnable\000"
 13859      4C30585F 
 13859      5365744C 
 13859      696D6974 
 13859      43686563 
 13860              	.LASF285:
 13861 156f 5369676E 		.ascii	"SignalRateMeasFixed400mm\000"
 13861      616C5261 
 13861      74654D65 
 13861      61734669 
 13861      78656434 
 13862              	.LASF468:
 13863 1588 626C696E 		.ascii	"blink\000"
 13863      6B00
 13864              	.LASF322:
 13865 158e 5F6E6578 		.ascii	"_next\000"
 13865      7400
ARM GAS  /var/folders/3j/4xdnk5197cv_b7cw3n33qk7r0000gn/T//ccxkT2Pi.s 			page 262


 13866              	.LASF360:
 13867 1594 5F646174 		.ascii	"_data\000"
 13867      6100
 13868              	.LASF477:
 13869 159a 706F6C6C 		.ascii	"poll_device_values\000"
 13869      5F646576 
 13869      6963655F 
 13869      76616C75 
 13869      657300
 13870              	.LASF111:
 13871 15ad 715F7761 		.ascii	"q_waiting\000"
 13871      6974696E 
 13871      6700
 13872              	.LASF209:
 13873 15b7 74687265 		.ascii	"threads\000"
 13873      61647300 
 13874              	.LASF422:
 13875 15bf 636F6D6D 		.ascii	"comms_type\000"
 13875      735F7479 
 13875      706500
 13876              	.LASF122:
 13877 15ca 42617365 		.ascii	"BaseSequentialStreamVMT\000"
 13877      53657175 
 13877      656E7469 
 13877      616C5374 
 13877      7265616D 
 13878              	.LASF73:
 13879 15e2 726C6973 		.ascii	"rlist\000"
 13879      7400
 13880              	.LASF213:
 13881 15e8 73635F6E 		.ascii	"sc_name\000"
 13881      616D6500 
 13882              	.LASF245:
 13883 15f0 54696D65 		.ascii	"TimeStamp\000"
 13883      5374616D 
 13883      7000
 13884              	.LASF22:
 13885 15fa 746D6F64 		.ascii	"tmode_t\000"
 13885      655F7400 
 13886              	.LASF249:
 13887 1602 5369676E 		.ascii	"SignalRateRtnMegaCps\000"
 13887      616C5261 
 13887      74655274 
 13887      6E4D6567 
 13887      61437073 
 13888              	.LASF222:
 13889 1617 564C3533 		.ascii	"VL53L0X_DeviceError\000"
 13889      4C30585F 
 13889      44657669 
 13889      63654572 
 13889      726F7200 
 13890              	.LASF178:
 13891 162b 73647374 		.ascii	"sdstate_t\000"
 13891      6174655F 
 13891      7400
 13892              	.LASF533:
 13893 1635 6932634D 		.ascii	"i2cMasterReceiveTimeout\000"
ARM GAS  /var/folders/3j/4xdnk5197cv_b7cw3n33qk7r0000gn/T//ccxkT2Pi.s 			page 263


 13893      61737465 
 13893      72526563 
 13893      65697665 
 13893      54696D65 
 13894              	.LASF307:
 13895 164d 446D6178 		.ascii	"DmaxCalRangeMilliMeter\000"
 13895      43616C52 
 13895      616E6765 
 13895      4D696C6C 
 13895      694D6574 
 13896              	.LASF63:
 13897 1664 76745F73 		.ascii	"vt_systime\000"
 13897      79737469 
 13897      6D6500
 13898              	.LASF177:
 13899 166f 53445F52 		.ascii	"SD_READY\000"
 13899      45414459 
 13899      00
 13900              	.LASF502:
 13901 1678 70646174 		.ascii	"pdata\000"
 13901      6100
 13902              	.LASF69:
 13903 167e 725F6F6C 		.ascii	"r_older\000"
 13903      64657200 
 13904              	.LASF161:
 13905 1686 74687265 		.ascii	"thread\000"
 13905      616400
 13906              	.LASF444:
 13907 168d 7368656C 		.ascii	"shell_config\000"
 13907      6C5F636F 
 13907      6E666967 
 13907      00
 13908              	.LASF489:
 13909 169a 69645F6F 		.ascii	"id_offset\000"
 13909      66667365 
 13909      7400
 13910              	.LASF420:
 13911 16a4 44617461 		.ascii	"Data\000"
 13911      00
 13912              	.LASF401:
 13913 16a9 5F6D626C 		.ascii	"_mblen_state\000"
 13913      656E5F73 
 13913      74617465 
 13913      00
 13914              	.LASF7:
 13915 16b6 73686F72 		.ascii	"short int\000"
 13915      7420696E 
 13915      7400
 13916              	.LASF358:
 13917 16c0 5F626C6B 		.ascii	"_blksize\000"
 13917      73697A65 
 13917      00
 13918              	.LASF256:
 13919 16c9 48697374 		.ascii	"HistogramData\000"
 13919      6F677261 
 13919      6D446174 
 13919      6100
ARM GAS  /var/folders/3j/4xdnk5197cv_b7cw3n33qk7r0000gn/T//ccxkT2Pi.s 			page 264


 13920              	.LASF536:
 13921 16d7 564C3533 		.ascii	"VL53L0X_SetDeviceAddress\000"
 13921      4C30585F 
 13921      53657444 
 13921      65766963 
 13921      65416464 
 13922              	.LASF181:
 13923 16f0 69717565 		.ascii	"iqueue\000"
 13923      756500
 13924              	.LASF507:
 13925 16f7 564C3533 		.ascii	"VL53L0X_PollingDelay\000"
 13925      4C30585F 
 13925      506F6C6C 
 13925      696E6744 
 13925      656C6179 
 13926              	.LASF452:
 13927 170c 54687265 		.ascii	"Thread_Diplsay\000"
 13927      61645F44 
 13927      69706C73 
 13927      617900
 13928              	.LASF268:
 13929 171b 50696E30 		.ascii	"Pin0GpioFunctionality\000"
 13929      4770696F 
 13929      46756E63 
 13929      74696F6E 
 13929      616C6974 
 13930              	.LASF66:
 13931 1731 725F7072 		.ascii	"r_prio\000"
 13931      696F00
 13932              	.LASF484:
 13933 1738 7265665F 		.ascii	"ref_SpadCount\000"
 13933      53706164 
 13933      436F756E 
 13933      7400
 13934              	.LASF215:
 13935 1746 5368656C 		.ascii	"ShellCommand\000"
 13935      6C436F6D 
 13935      6D616E64 
 13935      00
 13936              	.LASF493:
 13937 1753 696E6465 		.ascii	"index\000"
 13937      7800
 13938              	.LASF332:
 13939 1759 5F5F746D 		.ascii	"__tm_year\000"
 13939      5F796561 
 13939      7200
 13940              	.LASF21:
 13941 1763 626F6F6C 		.ascii	"bool_t\000"
 13941      5F7400
 13942              	.LASF341:
 13943 176a 5F617465 		.ascii	"_atexit\000"
 13943      78697400 
 13944              	.LASF288:
 13945 1772 50617274 		.ascii	"Part2PartOffsetNVMMicroMeter\000"
 13945      32506172 
 13945      744F6666 
 13945      7365744E 
ARM GAS  /var/folders/3j/4xdnk5197cv_b7cw3n33qk7r0000gn/T//ccxkT2Pi.s 			page 265


 13945      564D4D69 
 13946              	.LASF100:
 13947 178f 63665F6F 		.ascii	"cf_off_older\000"
 13947      66665F6F 
 13947      6C646572 
 13947      00
 13948              	.LASF131:
 13949 179c 736C6176 		.ascii	"slaveAddress\000"
 13949      65416464 
 13949      72657373 
 13949      00
 13950              	.LASF143:
 13951 17a9 50414C43 		.ascii	"PALConfig\000"
 13951      6F6E6669 
 13951      6700
 13952              	.LASF527:
 13953 17b3 564C3533 		.ascii	"VL53L0X_PerformRefSpadManagement\000"
 13953      4C30585F 
 13953      50657266 
 13953      6F726D52 
 13953      65665370 
 13954              	.LASF31:
 13955 17d4 54687265 		.ascii	"Thread\000"
 13955      616400
 13956              	.LASF350:
 13957 17db 5F6C6266 		.ascii	"_lbfsize\000"
 13957      73697A65 
 13957      00
 13958              	.LASF72:
 13959 17e4 76746C69 		.ascii	"vtlist\000"
 13959      737400
 13960              	.LASF369:
 13961 17eb 5F696E63 		.ascii	"_inc\000"
 13961      00
 13962              	.LASF298:
 13963 17f0 506F7765 		.ascii	"PowerMode\000"
 13963      724D6F64 
 13963      6500
 13964              	.LASF225:
 13965 17fa 564C3533 		.ascii	"VL53L0X_DeviceModes\000"
 13965      4C30585F 
 13965      44657669 
 13965      63654D6F 
 13965      64657300 
 13966              	.LASF344:
 13967 180e 5F5F7362 		.ascii	"__sbuf\000"
 13967      756600
 13968              	.LASF542:
 13969 1815 6D656D63 		.ascii	"memcpy\000"
 13969      707900
 13970              	.LASF340:
 13971 181c 5F69735F 		.ascii	"_is_cxa\000"
 13971      63786100 
 13972              	.LASF310:
 13973 1824 5F4C4F43 		.ascii	"_LOCK_T\000"
 13973      4B5F5400 
 13974              	.LASF133:
ARM GAS  /var/folders/3j/4xdnk5197cv_b7cw3n33qk7r0000gn/T//ccxkT2Pi.s 			page 266


 13975 182c 636C6F63 		.ascii	"clockDivider\000"
 13975      6B446976 
 13975      69646572 
 13975      00
 13976              	.LASF24:
 13977 1839 74726566 		.ascii	"trefs_t\000"
 13977      735F7400 
 13978              	.LASF413:
 13979 1841 5F6E6578 		.ascii	"_nextf\000"
 13979      746600
 13980              	.LASF126:
 13981 1848 5F69646C 		.ascii	"_idle_thread_wa\000"
 13981      655F7468 
 13981      72656164 
 13981      5F776100 
 13982              	.LASF432:
 13983 1858 5F70696E 		.ascii	"_pin_a\000"
 13983      5F6100
 13984              	.LASF433:
 13985 185f 5F70696E 		.ascii	"_pin_b\000"
 13985      5F6200
 13986              	.LASF242:
 13987 1866 416D6254 		.ascii	"AmbTuningWindowFactor_K\000"
 13987      756E696E 
 13987      6757696E 
 13987      646F7746 
 13987      6163746F 
 13988              	.LASF217:
 13989 187e 73635F63 		.ascii	"sc_commands\000"
 13989      6F6D6D61 
 13989      6E647300 
 13990              	.LASF78:
 13991 188a 4576656E 		.ascii	"EventListener\000"
 13991      744C6973 
 13991      74656E65 
 13991      7200
 13992              	.LASF297:
 13993 1898 50616C53 		.ascii	"PalState\000"
 13993      74617465 
 13993      00
 13994              	.LASF372:
 13995 18a1 5F6C6F63 		.ascii	"_locale\000"
 13995      616C6500 
 13996              	.LASF320:
 13997 18a9 5F5F554C 		.ascii	"__ULong\000"
 13997      6F6E6700 
 13998              	.LASF513:
 13999 18b1 63685379 		.ascii	"chSysInit\000"
 13999      73496E69 
 13999      7400
 14000              	.LASF20:
 14001 18bb 75696E74 		.ascii	"uint32_t\000"
 14001      33325F74 
 14001      00
 14002              	.LASF57:
 14003 18c4 56697274 		.ascii	"VirtualTimer\000"
 14003      75616C54 
ARM GAS  /var/folders/3j/4xdnk5197cv_b7cw3n33qk7r0000gn/T//ccxkT2Pi.s 			page 267


 14003      696D6572 
 14003      00
 14004              	.LASF171:
 14005 18d1 69635F73 		.ascii	"ic_speed\000"
 14005      70656564 
 14005      00
 14006              	.LASF457:
 14007 18da 72656672 		.ascii	"refresh_rate_ms\000"
 14007      6573685F 
 14007      72617465 
 14007      5F6D7300 
 14008              	.LASF375:
 14009 18ea 5F726573 		.ascii	"_result\000"
 14009      756C7400 
 14010              	.LASF50:
 14011 18f2 54687265 		.ascii	"ThreadsQueue\000"
 14011      61647351 
 14011      75657565 
 14011      00
 14012              	.LASF296:
 14013 18ff 52616E67 		.ascii	"RangeFractionalEnable\000"
 14013      65467261 
 14013      6374696F 
 14013      6E616C45 
 14013      6E61626C 
 14014              	.LASF132:
 14015 1915 64617461 		.ascii	"dataFifo\000"
 14015      4669666F 
 14015      00
 14016              	.LASF295:
 14017 191e 53657175 		.ascii	"SequenceConfig\000"
 14017      656E6365 
 14017      436F6E66 
 14017      696700
 14018              	.LASF192:
 14019 192d 5350495F 		.ascii	"SPI_COMPLETE\000"
 14019      434F4D50 
 14019      4C455445 
 14019      00
 14020              	.LASF472:
 14021 193a 64697374 		.ascii	"distance\000"
 14021      616E6365 
 14021      00
 14022              	.LASF169:
 14023 1943 69326366 		.ascii	"i2cflags_t\000"
 14023      6C616773 
 14023      5F7400
 14024              	.LASF311:
 14025 194e 5F6F6666 		.ascii	"_off_t\000"
 14025      5F7400
 14026              	.LASF85:
 14027 1955 7264796D 		.ascii	"rdymsg\000"
 14027      736700
 14028              	.LASF393:
 14029 195c 5F616464 		.ascii	"_add\000"
 14029      00
 14030              	.LASF427:
ARM GAS  /var/folders/3j/4xdnk5197cv_b7cw3n33qk7r0000gn/T//ccxkT2Pi.s 			page 268


 14031 1961 64697374 		.ascii	"distance_rating\000"
 14031      616E6365 
 14031      5F726174 
 14031      696E6700 
 14032              	.LASF9:
 14033 1971 73686F72 		.ascii	"short unsigned int\000"
 14033      7420756E 
 14033      7369676E 
 14033      65642069 
 14033      6E7400
 14034              	.LASF329:
 14035 1984 5F5F746D 		.ascii	"__tm_hour\000"
 14035      5F686F75 
 14035      7200
 14036              	.LASF347:
 14037 198e 5F5F7346 		.ascii	"__sFILE\000"
 14037      494C4500 
 14038              	.LASF247:
 14039 1996 52616E67 		.ascii	"RangeMilliMeter\000"
 14039      654D696C 
 14039      6C694D65 
 14039      74657200 
 14040              	.LASF399:
 14041 19a6 5F72616E 		.ascii	"_rand_next\000"
 14041      645F6E65 
 14041      787400
 14042              	.LASF214:
 14043 19b1 73635F66 		.ascii	"sc_function\000"
 14043      756E6374 
 14043      696F6E00 
 14044              	.LASF455:
 14045 19bd 736C6565 		.ascii	"sleep_ms\000"
 14045      705F6D73 
 14045      00
 14046              	.LASF108:
 14047 19c6 63686465 		.ascii	"chdebug_t\000"
 14047      6275675F 
 14047      7400
 14048              	.LASF423:
 14049 19d0 636F6D6D 		.ascii	"comms_speed_khz\000"
 14049      735F7370 
 14049      6565645F 
 14049      6B687A00 
 14050              	.LASF193:
 14051 19e0 73706973 		.ascii	"spistate_t\000"
 14051      74617465 
 14051      5F7400
 14052              	.LASF120:
 14053 19eb 496E7075 		.ascii	"InputQueue\000"
 14053      74517565 
 14053      756500
 14054              	.LASF308:
 14055 19f6 446D6178 		.ascii	"DmaxCalSignalRateRtnMegaCps\000"
 14055      43616C53 
 14055      69676E61 
 14055      6C526174 
 14055      6552746E 
ARM GAS  /var/folders/3j/4xdnk5197cv_b7cw3n33qk7r0000gn/T//ccxkT2Pi.s 			page 269


 14056              	.LASF92:
 14057 1a12 63685F73 		.ascii	"ch_size\000"
 14057      697A6500 
 14058              	.LASF409:
 14059 1a1a 5F6D6273 		.ascii	"_mbsrtowcs_state\000"
 14059      72746F77 
 14059      63735F73 
 14059      74617465 
 14059      00
 14060              	.LASF483:
 14061 1a2b 70686173 		.ascii	"phaseCal\000"
 14061      6543616C 
 14061      00
 14062              	.LASF10:
 14063 1a34 5F5F696E 		.ascii	"__int32_t\000"
 14063      7433325F 
 14063      7400
 14064              	.LASF176:
 14065 1a3e 53445F53 		.ascii	"SD_STOP\000"
 14065      544F5000 
 14066              	.LASF276:
 14067 1a46 52656164 		.ascii	"ReadDataFromDeviceDone\000"
 14067      44617461 
 14067      46726F6D 
 14067      44657669 
 14067      6365446F 
 14068              	.LASF81:
 14069 1a5d 656C5F6D 		.ascii	"el_mask\000"
 14069      61736B00 
 14070              	.LASF434:
 14071 1a65 73696465 		.ascii	"side\000"
 14071      00
 14072              	.LASF71:
 14073 1a6a 52656164 		.ascii	"ReadyList\000"
 14073      794C6973 
 14073      7400
 14074              	.LASF466:
 14075 1a74 63686563 		.ascii	"check_error\000"
 14075      6B5F6572 
 14075      726F7200 
 14076              	.LASF337:
 14077 1a80 5F666E61 		.ascii	"_fnargs\000"
 14077      72677300 
 14078              	.LASF335:
 14079 1a88 5F5F746D 		.ascii	"__tm_isdst\000"
 14079      5F697364 
 14079      737400
 14080              	.LASF200:
 14081 1a93 63686970 		.ascii	"chip_select_polarity\000"
 14081      5F73656C 
 14081      6563745F 
 14081      706F6C61 
 14081      72697479 
 14082              	.LASF266:
 14083 1aa8 4F736346 		.ascii	"OscFrequencyMHz\000"
 14083      72657175 
 14083      656E6379 
ARM GAS  /var/folders/3j/4xdnk5197cv_b7cw3n33qk7r0000gn/T//ccxkT2Pi.s 			page 270


 14083      4D487A00 
 14084              	.LASF149:
 14085 1ab8 4932435F 		.ascii	"I2C_STOP\000"
 14085      53544F50 
 14085      00
 14086              	.LASF38:
 14087 1ac1 705F6E61 		.ascii	"p_name\000"
 14087      6D6500
 14088              	.LASF60:
 14089 1ac8 76745F74 		.ascii	"vt_time\000"
 14089      696D6500 
 14090              	.LASF470:
 14091 1ad0 64617461 		.ascii	"data\000"
 14091      00
 14092              	.LASF77:
 14093 1ad5 6D5F6E65 		.ascii	"m_next\000"
 14093      787400
 14094              	.LASF328:
 14095 1adc 5F5F746D 		.ascii	"__tm_min\000"
 14095      5F6D696E 
 14095      00
 14096              	.LASF406:
 14097 1ae5 5F676574 		.ascii	"_getdate_err\000"
 14097      64617465 
 14097      5F657272 
 14097      00
 14098              	.LASF500:
 14099 1af2 564C3533 		.ascii	"VL53L0X_WrWord\000"
 14099      4C30585F 
 14099      5772576F 
 14099      726400
 14100              	.LASF46:
 14101 1b01 705F6D73 		.ascii	"p_msg\000"
 14101      6700
 14102              	.LASF80:
 14103 1b07 656C5F6C 		.ascii	"el_listener\000"
 14103      69737465 
 14103      6E657200 
 14104              	.LASF471:
 14105 1b13 75706461 		.ascii	"update_refresh_rate\000"
 14105      74655F72 
 14105      65667265 
 14105      73685F72 
 14105      61746500 
 14106              	.LASF39:
 14107 1b27 705F7374 		.ascii	"p_state\000"
 14107      61746500 
 14108              		.ident	"GCC: (GNU Tools for Arm Embedded Processors 7-2018-q2-update) 7.3.1 20180622 (release) [AR
ARM GAS  /var/folders/3j/4xdnk5197cv_b7cw3n33qk7r0000gn/T//ccxkT2Pi.s 			page 271


DEFINED SYMBOLS
                            *ABS*:0000000000000000 main.c
/var/folders/3j/4xdnk5197cv_b7cw3n33qk7r0000gn/T//ccxkT2Pi.s:16     .text.Thread_Diplsay:0000000000000000 $a
/var/folders/3j/4xdnk5197cv_b7cw3n33qk7r0000gn/T//ccxkT2Pi.s:21     .text.Thread_Diplsay:0000000000000000 Thread_Diplsay
/var/folders/3j/4xdnk5197cv_b7cw3n33qk7r0000gn/T//ccxkT2Pi.s:41     .text.Thread_Diplsay:0000000000000014 $d
/var/folders/3j/4xdnk5197cv_b7cw3n33qk7r0000gn/T//ccxkT2Pi.s:47     .text.cmd_reboot:0000000000000000 $a
/var/folders/3j/4xdnk5197cv_b7cw3n33qk7r0000gn/T//ccxkT2Pi.s:52     .text.cmd_reboot:0000000000000000 cmd_reboot
/var/folders/3j/4xdnk5197cv_b7cw3n33qk7r0000gn/T//ccxkT2Pi.s:77     .text.cmd_reboot:0000000000000018 $d
/var/folders/3j/4xdnk5197cv_b7cw3n33qk7r0000gn/T//ccxkT2Pi.s:82     .text.VL53L0X_RdByte:0000000000000000 $a
/var/folders/3j/4xdnk5197cv_b7cw3n33qk7r0000gn/T//ccxkT2Pi.s:88     .text.VL53L0X_RdByte:0000000000000000 VL53L0X_RdByte
/var/folders/3j/4xdnk5197cv_b7cw3n33qk7r0000gn/T//ccxkT2Pi.s:143    .text.VL53L0X_RdByte:0000000000000050 $d
/var/folders/3j/4xdnk5197cv_b7cw3n33qk7r0000gn/T//ccxkT2Pi.s:148    .text.VL53L0X_WrByte:0000000000000000 $a
/var/folders/3j/4xdnk5197cv_b7cw3n33qk7r0000gn/T//ccxkT2Pi.s:154    .text.VL53L0X_WrByte:0000000000000000 VL53L0X_WrByte
/var/folders/3j/4xdnk5197cv_b7cw3n33qk7r0000gn/T//ccxkT2Pi.s:212    .text.VL53L0X_WrByte:0000000000000060 $d
/var/folders/3j/4xdnk5197cv_b7cw3n33qk7r0000gn/T//ccxkT2Pi.s:217    .text.VL53L0X_PollingDelay:0000000000000000 $a
/var/folders/3j/4xdnk5197cv_b7cw3n33qk7r0000gn/T//ccxkT2Pi.s:223    .text.VL53L0X_PollingDelay:0000000000000000 VL53L0X_PollingDelay
/var/folders/3j/4xdnk5197cv_b7cw3n33qk7r0000gn/T//ccxkT2Pi.s:239    .text.VL53L0X_WriteMulti:0000000000000000 $a
/var/folders/3j/4xdnk5197cv_b7cw3n33qk7r0000gn/T//ccxkT2Pi.s:245    .text.VL53L0X_WriteMulti:0000000000000000 VL53L0X_WriteMulti
/var/folders/3j/4xdnk5197cv_b7cw3n33qk7r0000gn/T//ccxkT2Pi.s:304    .text.VL53L0X_ReadMulti:0000000000000000 $a
/var/folders/3j/4xdnk5197cv_b7cw3n33qk7r0000gn/T//ccxkT2Pi.s:310    .text.VL53L0X_ReadMulti:0000000000000000 VL53L0X_ReadMulti
/var/folders/3j/4xdnk5197cv_b7cw3n33qk7r0000gn/T//ccxkT2Pi.s:388    .text.VL53L0X_WrWord:0000000000000000 $a
/var/folders/3j/4xdnk5197cv_b7cw3n33qk7r0000gn/T//ccxkT2Pi.s:394    .text.VL53L0X_WrWord:0000000000000000 VL53L0X_WrWord
/var/folders/3j/4xdnk5197cv_b7cw3n33qk7r0000gn/T//ccxkT2Pi.s:456    .text.VL53L0X_WrWord:0000000000000068 $d
/var/folders/3j/4xdnk5197cv_b7cw3n33qk7r0000gn/T//ccxkT2Pi.s:461    .text.VL53L0X_WrDWord:0000000000000000 $a
/var/folders/3j/4xdnk5197cv_b7cw3n33qk7r0000gn/T//ccxkT2Pi.s:467    .text.VL53L0X_WrDWord:0000000000000000 VL53L0X_WrDWord
/var/folders/3j/4xdnk5197cv_b7cw3n33qk7r0000gn/T//ccxkT2Pi.s:538    .text.VL53L0X_WrDWord:0000000000000078 $d
/var/folders/3j/4xdnk5197cv_b7cw3n33qk7r0000gn/T//ccxkT2Pi.s:543    .text.VL53L0X_RdWord:0000000000000000 $a
/var/folders/3j/4xdnk5197cv_b7cw3n33qk7r0000gn/T//ccxkT2Pi.s:549    .text.VL53L0X_RdWord:0000000000000000 VL53L0X_RdWord
/var/folders/3j/4xdnk5197cv_b7cw3n33qk7r0000gn/T//ccxkT2Pi.s:603    .text.VL53L0X_RdWord:0000000000000050 $d
/var/folders/3j/4xdnk5197cv_b7cw3n33qk7r0000gn/T//ccxkT2Pi.s:608    .text.VL53L0X_RdDWord:0000000000000000 $a
/var/folders/3j/4xdnk5197cv_b7cw3n33qk7r0000gn/T//ccxkT2Pi.s:614    .text.VL53L0X_RdDWord:0000000000000000 VL53L0X_RdDWord
/var/folders/3j/4xdnk5197cv_b7cw3n33qk7r0000gn/T//ccxkT2Pi.s:668    .text.VL53L0X_RdDWord:0000000000000050 $d
/var/folders/3j/4xdnk5197cv_b7cw3n33qk7r0000gn/T//ccxkT2Pi.s:673    .text.VL53L0X_UpdateByte:0000000000000000 $a
/var/folders/3j/4xdnk5197cv_b7cw3n33qk7r0000gn/T//ccxkT2Pi.s:679    .text.VL53L0X_UpdateByte:0000000000000000 VL53L0X_UpdateByte
/var/folders/3j/4xdnk5197cv_b7cw3n33qk7r0000gn/T//ccxkT2Pi.s:760    .text.VL53L0X_UpdateByte:0000000000000084 $d
/var/folders/3j/4xdnk5197cv_b7cw3n33qk7r0000gn/T//ccxkT2Pi.s:765    .text.setup_mux_GPIO:0000000000000000 $a
/var/folders/3j/4xdnk5197cv_b7cw3n33qk7r0000gn/T//ccxkT2Pi.s:771    .text.setup_mux_GPIO:0000000000000000 setup_mux_GPIO
/var/folders/3j/4xdnk5197cv_b7cw3n33qk7r0000gn/T//ccxkT2Pi.s:829    .text.set_mux_GPIO:0000000000000000 $a
/var/folders/3j/4xdnk5197cv_b7cw3n33qk7r0000gn/T//ccxkT2Pi.s:835    .text.set_mux_GPIO:0000000000000000 set_mux_GPIO
/var/folders/3j/4xdnk5197cv_b7cw3n33qk7r0000gn/T//ccxkT2Pi.s:895    .text.Thread_Sensor:0000000000000000 $a
/var/folders/3j/4xdnk5197cv_b7cw3n33qk7r0000gn/T//ccxkT2Pi.s:900    .text.Thread_Sensor:0000000000000000 Thread_Sensor
/var/folders/3j/4xdnk5197cv_b7cw3n33qk7r0000gn/T//ccxkT2Pi.s:1183   .text.Thread_Sensor:000000000000022c $d
/var/folders/3j/4xdnk5197cv_b7cw3n33qk7r0000gn/T//ccxkT2Pi.s:1194   .text.individual_sensor:0000000000000000 $a
/var/folders/3j/4xdnk5197cv_b7cw3n33qk7r0000gn/T//ccxkT2Pi.s:1199   .text.individual_sensor:0000000000000000 individual_sensor
/var/folders/3j/4xdnk5197cv_b7cw3n33qk7r0000gn/T//ccxkT2Pi.s:1350   .text.individual_sensor:0000000000000140 $d
/var/folders/3j/4xdnk5197cv_b7cw3n33qk7r0000gn/T//ccxkT2Pi.s:1355   .text.setup_sensor_array.isra.1:0000000000000000 $a
/var/folders/3j/4xdnk5197cv_b7cw3n33qk7r0000gn/T//ccxkT2Pi.s:1360   .text.setup_sensor_array.isra.1:0000000000000000 setup_sensor_array.isra.1
/var/folders/3j/4xdnk5197cv_b7cw3n33qk7r0000gn/T//ccxkT2Pi.s:1443   .text.setup_sensors.constprop.3:0000000000000000 $a
/var/folders/3j/4xdnk5197cv_b7cw3n33qk7r0000gn/T//ccxkT2Pi.s:1448   .text.setup_sensors.constprop.3:0000000000000000 setup_sensors.constprop.3
/var/folders/3j/4xdnk5197cv_b7cw3n33qk7r0000gn/T//ccxkT2Pi.s:1752   .text.update_refresh_rate:0000000000000000 $a
/var/folders/3j/4xdnk5197cv_b7cw3n33qk7r0000gn/T//ccxkT2Pi.s:1758   .text.update_refresh_rate:0000000000000000 update_refresh_rate
/var/folders/3j/4xdnk5197cv_b7cw3n33qk7r0000gn/T//ccxkT2Pi.s:1812   .text.update_refresh_rate:0000000000000040 $d
/var/folders/3j/4xdnk5197cv_b7cw3n33qk7r0000gn/T//ccxkT2Pi.s:1819   .text.blink:0000000000000000 $a
/var/folders/3j/4xdnk5197cv_b7cw3n33qk7r0000gn/T//ccxkT2Pi.s:1825   .text.blink:0000000000000000 blink
/var/folders/3j/4xdnk5197cv_b7cw3n33qk7r0000gn/T//ccxkT2Pi.s:1956   .text.blink:00000000000000d0 $d
/var/folders/3j/4xdnk5197cv_b7cw3n33qk7r0000gn/T//ccxkT2Pi.s:1963   .text.write_to_blink:0000000000000000 $a
/var/folders/3j/4xdnk5197cv_b7cw3n33qk7r0000gn/T//ccxkT2Pi.s:1969   .text.write_to_blink:0000000000000000 write_to_blink
ARM GAS  /var/folders/3j/4xdnk5197cv_b7cw3n33qk7r0000gn/T//ccxkT2Pi.s 			page 272


/var/folders/3j/4xdnk5197cv_b7cw3n33qk7r0000gn/T//ccxkT2Pi.s:2026   .text.check_error_vl53:0000000000000000 $a
/var/folders/3j/4xdnk5197cv_b7cw3n33qk7r0000gn/T//ccxkT2Pi.s:2032   .text.check_error_vl53:0000000000000000 check_error_vl53
/var/folders/3j/4xdnk5197cv_b7cw3n33qk7r0000gn/T//ccxkT2Pi.s:2052   .text.check_error_vl53:0000000000000014 $d
/var/folders/3j/4xdnk5197cv_b7cw3n33qk7r0000gn/T//ccxkT2Pi.s:2154   .text.check_error_vl53:00000000000001a4 $a
/var/folders/3j/4xdnk5197cv_b7cw3n33qk7r0000gn/T//ccxkT2Pi.s:2423   .text.check_error:0000000000000000 $a
/var/folders/3j/4xdnk5197cv_b7cw3n33qk7r0000gn/T//ccxkT2Pi.s:2429   .text.check_error:0000000000000000 check_error
/var/folders/3j/4xdnk5197cv_b7cw3n33qk7r0000gn/T//ccxkT2Pi.s:2487   .text.check_error:0000000000000054 $d
/var/folders/3j/4xdnk5197cv_b7cw3n33qk7r0000gn/T//ccxkT2Pi.s:2492   .text.startup.main:0000000000000000 $a
/var/folders/3j/4xdnk5197cv_b7cw3n33qk7r0000gn/T//ccxkT2Pi.s:2498   .text.startup.main:0000000000000000 main
/var/folders/3j/4xdnk5197cv_b7cw3n33qk7r0000gn/T//ccxkT2Pi.s:2690   .text.startup.main:00000000000001dc $d
                            *COM*:0000000000000d40 system
/var/folders/3j/4xdnk5197cv_b7cw3n33qk7r0000gn/T//ccxkT2Pi.s:2709   .text.min:0000000000000000 $a
/var/folders/3j/4xdnk5197cv_b7cw3n33qk7r0000gn/T//ccxkT2Pi.s:2715   .text.min:0000000000000000 min
/var/folders/3j/4xdnk5197cv_b7cw3n33qk7r0000gn/T//ccxkT2Pi.s:2750   .bss.system_failure_status:0000000000000000 system_failure_status
/var/folders/3j/4xdnk5197cv_b7cw3n33qk7r0000gn/T//ccxkT2Pi.s:2751   .bss.system_failure_status:0000000000000000 $d
/var/folders/3j/4xdnk5197cv_b7cw3n33qk7r0000gn/T//ccxkT2Pi.s:2753   .bss.waThread_display:0000000000000000 $d
/var/folders/3j/4xdnk5197cv_b7cw3n33qk7r0000gn/T//ccxkT2Pi.s:2757   .bss.waThread_display:0000000000000000 waThread_display
/var/folders/3j/4xdnk5197cv_b7cw3n33qk7r0000gn/T//ccxkT2Pi.s:2760   .bss.waThread_front_driver:0000000000000000 $d
/var/folders/3j/4xdnk5197cv_b7cw3n33qk7r0000gn/T//ccxkT2Pi.s:2764   .bss.waThread_front_driver:0000000000000000 waThread_front_driver
/var/folders/3j/4xdnk5197cv_b7cw3n33qk7r0000gn/T//ccxkT2Pi.s:2767   .bss.waThread_front_passenger:0000000000000000 $d
/var/folders/3j/4xdnk5197cv_b7cw3n33qk7r0000gn/T//ccxkT2Pi.s:2771   .bss.waThread_front_passenger:0000000000000000 waThread_front_passenger
/var/folders/3j/4xdnk5197cv_b7cw3n33qk7r0000gn/T//ccxkT2Pi.s:2774   .bss.waThread_rear_driver:0000000000000000 $d
/var/folders/3j/4xdnk5197cv_b7cw3n33qk7r0000gn/T//ccxkT2Pi.s:2778   .bss.waThread_rear_driver:0000000000000000 waThread_rear_driver
/var/folders/3j/4xdnk5197cv_b7cw3n33qk7r0000gn/T//ccxkT2Pi.s:2781   .bss.waThread_rear_passenger:0000000000000000 $d
/var/folders/3j/4xdnk5197cv_b7cw3n33qk7r0000gn/T//ccxkT2Pi.s:2785   .bss.waThread_rear_passenger:0000000000000000 waThread_rear_passenger
/var/folders/3j/4xdnk5197cv_b7cw3n33qk7r0000gn/T//ccxkT2Pi.s:2788   .rodata.Thread_Diplsay.str1.4:0000000000000000 $d
/var/folders/3j/4xdnk5197cv_b7cw3n33qk7r0000gn/T//ccxkT2Pi.s:2792   .rodata.Thread_Sensor.str1.4:0000000000000000 $d
/var/folders/3j/4xdnk5197cv_b7cw3n33qk7r0000gn/T//ccxkT2Pi.s:2796   .rodata.cmd_reboot.str1.4:0000000000000000 $d
/var/folders/3j/4xdnk5197cv_b7cw3n33qk7r0000gn/T//ccxkT2Pi.s:2800   .rodata.commands:0000000000000000 $d
/var/folders/3j/4xdnk5197cv_b7cw3n33qk7r0000gn/T//ccxkT2Pi.s:2803   .rodata.commands:0000000000000000 commands
/var/folders/3j/4xdnk5197cv_b7cw3n33qk7r0000gn/T//ccxkT2Pi.s:2809   .rodata.main.str1.4:0000000000000000 $d
/var/folders/3j/4xdnk5197cv_b7cw3n33qk7r0000gn/T//ccxkT2Pi.s:2813   .rodata.shell_config:0000000000000000 $d
/var/folders/3j/4xdnk5197cv_b7cw3n33qk7r0000gn/T//ccxkT2Pi.s:2817   .rodata.shell_config:0000000000000000 shell_config
/var/folders/3j/4xdnk5197cv_b7cw3n33qk7r0000gn/T//ccxkT2Pi.s:2821   .rodata.str1.4:0000000000000000 $d

UNDEFINED SYMBOLS
rlist
chprintf
watchdog_start
i2cAcquireBus
i2cMasterReceiveTimeout
i2cReleaseBus
I2C1
i2cMasterTransmitTimeout
_pal_lld_setgroupmode
_pal_lld_writeport
__aeabi_fcmplt
__aeabi_fmul
__aeabi_f2iz
memcpy
VL53L0X_GetMeasurementDataReady
chThdSleep
VL53L0X_DataInit
VL53L0X_StaticInit
VL53L0X_PerformRefCalibration
VL53L0X_PerformRefSpadManagement
VL53L0X_SetDeviceMode
ARM GAS  /var/folders/3j/4xdnk5197cv_b7cw3n33qk7r0000gn/T//ccxkT2Pi.s 			page 273


VL53L0X_SetLimitCheckEnable
VL53L0X_SetLimitCheckValue
VL53L0X_SetMeasurementTimingBudgetMicroSeconds
VL53L0X_SetDeviceAddress
halPolledDelay
IOPORT0
halInit
chSysInit
sdStart
shellInit
shellCreate
chThdCreateStatic
chThdWait
SD1
__aeabi_fcmpgt
