ARM GAS  /var/folders/3j/4xdnk5197cv_b7cw3n33qk7r0000gn/T//ccxkT2Pi.s 			page 1


   1              		.cpu arm1176jz-s
   2              		.eabi_attribute 20, 1
   3              		.eabi_attribute 21, 1
   4              		.eabi_attribute 23, 3
   5              		.eabi_attribute 24, 1
   6              		.eabi_attribute 25, 1
   7              		.eabi_attribute 26, 1
   8              		.eabi_attribute 30, 2
   9              		.eabi_attribute 34, 1
  10              		.eabi_attribute 18, 4
  11              		.file	"main.c"
  12              		.text
  13              	.Ltext0:
  14              		.cfi_sections	.debug_frame
  15              		.section	.text.Thread_Diplsay,"ax",%progbits
  16              		.align	2
  17              		.syntax unified
  18              		.arm
  19              		.fpu softvfp
  20              		.type	Thread_Diplsay, %function
  21              	Thread_Diplsay:
  22              	.LFB37:
  23              		.file 1 "main.c"
  24              		.loc 1 225 0
  25              		.cfi_startproc
  26              		@ Volatile: function does not return.
  27              		@ args = 0, pretend = 0, frame = 0
  28              		@ frame_needed = 0, uses_anonymous_args = 0
  29              		@ link register save eliminated.
  30              	.LVL0:
  31              		.loc 1 227 0
  32 0000 0C309FE5 		ldr	r3, .L4
  33 0004 0C209FE5 		ldr	r2, .L4+4
  34 0008 183093E5 		ldr	r3, [r3, #24]
  35 000c 182083E5 		str	r2, [r3, #24]
  36              	.L2:
  37 0010 FEFFFFEA 		b	.L2
  38              	.L5:
  39              		.align	2
  40              	.L4:
  41 0014 00000000 		.word	rlist
  42 0018 00000000 		.word	.LC0
  43              		.cfi_endproc
  44              	.LFE37:
  45              		.size	Thread_Diplsay, .-Thread_Diplsay
  46              		.section	.text.cmd_reboot,"ax",%progbits
  47              		.align	2
  48              		.syntax unified
  49              		.arm
  50              		.fpu softvfp
  51              		.type	cmd_reboot, %function
  52              	cmd_reboot:
  53              	.LFB34:
  54              		.loc 1 91 0
  55              		.cfi_startproc
  56              		@ args = 0, pretend = 0, frame = 0
  57              		@ frame_needed = 0, uses_anonymous_args = 0
ARM GAS  /var/folders/3j/4xdnk5197cv_b7cw3n33qk7r0000gn/T//ccxkT2Pi.s 			page 2


  58              		@ link register save eliminated.
  59              	.LVL1:
  60              		.loc 1 93 0
  61 0000 000051E3 		cmp	r1, #0
  62 0004 010000DA 		ble	.L7
  63              		.loc 1 94 0
  64 0008 08109FE5 		ldr	r1, .L8
  65              	.LVL2:
  66 000c FEFFFFEA 		b	chprintf
  67              	.LVL3:
  68              	.L7:
  69              		.loc 1 99 0
  70 0010 0100A0E3 		mov	r0, #1
  71              	.LVL4:
  72 0014 FEFFFFEA 		b	watchdog_start
  73              	.LVL5:
  74              	.L9:
  75              		.align	2
  76              	.L8:
  77 0018 00000000 		.word	.LC1
  78              		.cfi_endproc
  79              	.LFE34:
  80              		.size	cmd_reboot, .-cmd_reboot
  81              		.section	.text.VL53L0X_RdByte,"ax",%progbits
  82              		.align	2
  83              		.global	VL53L0X_RdByte
  84              		.syntax unified
  85              		.arm
  86              		.fpu softvfp
  87              		.type	VL53L0X_RdByte, %function
  88              	VL53L0X_RdByte:
  89              	.LFB11:
  90              		.file 2 "src/I2C_interface.h"
  91              		.loc 2 19 0
  92              		.cfi_startproc
  93              		@ args = 0, pretend = 0, frame = 0
  94              		@ frame_needed = 0, uses_anonymous_args = 0
  95              	.LVL6:
  96 0000 70402DE9 		push	{r4, r5, r6, lr}
  97              		.cfi_def_cfa_offset 16
  98              		.cfi_offset 4, -16
  99              		.cfi_offset 5, -12
 100              		.cfi_offset 6, -8
 101              		.cfi_offset 14, -4
 102              		.loc 2 21 0
 103 0004 44409FE5 		ldr	r4, .L12
 104              		.loc 2 19 0
 105 0008 08D04DE2 		sub	sp, sp, #8
 106              		.cfi_def_cfa_offset 24
 107              		.loc 2 19 0
 108 000c 0060A0E1 		mov	r6, r0
 109              		.loc 2 21 0
 110 0010 0400A0E1 		mov	r0, r4
 111              	.LVL7:
 112              		.loc 2 19 0
 113 0014 0250A0E1 		mov	r5, r2
 114              		.loc 2 21 0
ARM GAS  /var/folders/3j/4xdnk5197cv_b7cw3n33qk7r0000gn/T//ccxkT2Pi.s 			page 3


 115 0018 FEFFFFEB 		bl	i2cAcquireBus
 116              	.LVL8:
 117              		.loc 2 22 0
 118 001c FA3FA0E3 		mov	r3, #1000
 119 0020 5C11D6E5 		ldrb	r1, [r6, #348]	@ zero_extendqisi2
 120 0024 0520A0E1 		mov	r2, r5
 121 0028 00308DE5 		str	r3, [sp]
 122 002c 0400A0E1 		mov	r0, r4
 123 0030 0130A0E3 		mov	r3, #1
 124 0034 FEFFFFEB 		bl	i2cMasterReceiveTimeout
 125              	.LVL9:
 126 0038 0050A0E1 		mov	r5, r0
 127              	.LVL10:
 128              		.loc 2 23 0
 129 003c 0400A0E1 		mov	r0, r4
 130              	.LVL11:
 131 0040 FEFFFFEB 		bl	i2cReleaseBus
 132              	.LVL12:
 133              		.loc 2 28 0
 134 0044 7500AFE6 		sxtb	r0, r5
 135 0048 08D08DE2 		add	sp, sp, #8
 136              		.cfi_def_cfa_offset 16
 137              		@ sp needed
 138 004c 7080BDE8 		pop	{r4, r5, r6, pc}
 139              	.LVL13:
 140              	.L13:
 141              		.align	2
 142              	.L12:
 143 0050 00000000 		.word	I2C1
 144              		.cfi_endproc
 145              	.LFE11:
 146              		.size	VL53L0X_RdByte, .-VL53L0X_RdByte
 147              		.section	.text.VL53L0X_WrByte,"ax",%progbits
 148              		.align	2
 149              		.global	VL53L0X_WrByte
 150              		.syntax unified
 151              		.arm
 152              		.fpu softvfp
 153              		.type	VL53L0X_WrByte, %function
 154              	VL53L0X_WrByte:
 155              	.LFB12:
 156              		.loc 2 30 0
 157              		.cfi_startproc
 158              		@ args = 0, pretend = 0, frame = 8
 159              		@ frame_needed = 0, uses_anonymous_args = 0
 160              	.LVL14:
 161 0000 30402DE9 		push	{r4, r5, lr}
 162              		.cfi_def_cfa_offset 12
 163              		.cfi_offset 4, -12
 164              		.cfi_offset 5, -8
 165              		.cfi_offset 14, -4
 166              		.loc 2 36 0
 167 0004 54409FE5 		ldr	r4, .L16
 168              		.loc 2 30 0
 169 0008 1CD04DE2 		sub	sp, sp, #28
 170              		.cfi_def_cfa_offset 40
 171              		.loc 2 30 0
ARM GAS  /var/folders/3j/4xdnk5197cv_b7cw3n33qk7r0000gn/T//ccxkT2Pi.s 			page 4


 172 000c 0050A0E1 		mov	r5, r0
 173              		.loc 2 36 0
 174 0010 0400A0E1 		mov	r0, r4
 175              	.LVL15:
 176              		.loc 2 33 0
 177 0014 1410CDE5 		strb	r1, [sp, #20]
 178              		.loc 2 34 0
 179 0018 1520CDE5 		strb	r2, [sp, #21]
 180              		.loc 2 36 0
 181 001c FEFFFFEB 		bl	i2cAcquireBus
 182              	.LVL16:
 183              		.loc 2 37 0
 184 0020 0030A0E3 		mov	r3, #0
 185 0024 7D2EA0E3 		mov	r2, #2000
 186 0028 5C11D5E5 		ldrb	r1, [r5, #348]	@ zero_extendqisi2
 187 002c 0400A0E1 		mov	r0, r4
 188 0030 08208DE5 		str	r2, [sp, #8]
 189 0034 04308DE5 		str	r3, [sp, #4]
 190 0038 00308DE5 		str	r3, [sp]
 191 003c 14208DE2 		add	r2, sp, #20
 192 0040 0230A0E3 		mov	r3, #2
 193 0044 FEFFFFEB 		bl	i2cMasterTransmitTimeout
 194              	.LVL17:
 195 0048 0050A0E1 		mov	r5, r0
 196              	.LVL18:
 197              		.loc 2 38 0
 198 004c 0400A0E1 		mov	r0, r4
 199              	.LVL19:
 200 0050 FEFFFFEB 		bl	i2cReleaseBus
 201              	.LVL20:
 202              		.loc 2 44 0
 203 0054 7500AFE6 		sxtb	r0, r5
 204 0058 1CD08DE2 		add	sp, sp, #28
 205              		.cfi_def_cfa_offset 12
 206              		@ sp needed
 207 005c 3080BDE8 		pop	{r4, r5, pc}
 208              	.LVL21:
 209              	.L17:
 210              		.align	2
 211              	.L16:
 212 0060 00000000 		.word	I2C1
 213              		.cfi_endproc
 214              	.LFE12:
 215              		.size	VL53L0X_WrByte, .-VL53L0X_WrByte
 216              		.section	.text.VL53L0X_PollingDelay,"ax",%progbits
 217              		.align	2
 218              		.global	VL53L0X_PollingDelay
 219              		.syntax unified
 220              		.arm
 221              		.fpu softvfp
 222              		.type	VL53L0X_PollingDelay, %function
 223              	VL53L0X_PollingDelay:
 224              	.LFB13:
 225              		.loc 2 46 0
 226              		.cfi_startproc
 227              		@ args = 0, pretend = 0, frame = 0
 228              		@ frame_needed = 0, uses_anonymous_args = 0
ARM GAS  /var/folders/3j/4xdnk5197cv_b7cw3n33qk7r0000gn/T//ccxkT2Pi.s 			page 5


 229              		@ link register save eliminated.
 230              	.LVL22:
 231              		.loc 2 48 0
 232 0000 0000E0E3 		mvn	r0, #0
 233              	.LVL23:
 234 0004 1EFF2FE1 		bx	lr
 235              		.cfi_endproc
 236              	.LFE13:
 237              		.size	VL53L0X_PollingDelay, .-VL53L0X_PollingDelay
 238              		.section	.text.VL53L0X_WriteMulti,"ax",%progbits
 239              		.align	2
 240              		.global	VL53L0X_WriteMulti
 241              		.syntax unified
 242              		.arm
 243              		.fpu softvfp
 244              		.type	VL53L0X_WriteMulti, %function
 245              	VL53L0X_WriteMulti:
 246              	.LFB14:
 247              		.loc 2 50 0
 248              		.cfi_startproc
 249              		@ args = 0, pretend = 0, frame = 0
 250              		@ frame_needed = 0, uses_anonymous_args = 0
 251              	.LVL24:
 252 0000 F0412DE9 		push	{r4, r5, r6, r7, r8, lr}
 253              		.cfi_def_cfa_offset 24
 254              		.cfi_offset 4, -24
 255              		.cfi_offset 5, -20
 256              		.cfi_offset 6, -16
 257              		.cfi_offset 7, -12
 258              		.cfi_offset 8, -8
 259              		.cfi_offset 14, -4
 260              	.LBB33:
 261              		.loc 2 56 0
 262 0004 005053E2 		subs	r5, r3, #0
 263              	.LVL25:
 264 0008 0E00000A 		beq	.L20
 265 000c 014042E2 		sub	r4, r2, #1
 266 0010 0170A0E1 		mov	r7, r1
 267 0014 0060A0E1 		mov	r6, r0
 268 0018 055084E0 		add	r5, r4, r5
 269 001c 010000EA 		b	.L22
 270              	.LVL26:
 271              	.L29:
 272              		.loc 2 56 0 is_stmt 0 discriminator 2
 273 0020 050054E1 		cmp	r4, r5
 274 0024 0700000A 		beq	.L20
 275              	.LVL27:
 276              	.L22:
 277              	.LBB34:
 278              		.loc 2 59 0 is_stmt 1
 279 0028 0120F4E5 		ldrb	r2, [r4, #1]!	@ zero_extendqisi2
 280              	.LVL28:
 281 002c 0710A0E1 		mov	r1, r7
 282 0030 0600A0E1 		mov	r0, r6
 283 0034 FEFFFFEB 		bl	VL53L0X_WrByte
 284              	.LVL29:
 285              		.loc 2 60 0
ARM GAS  /var/folders/3j/4xdnk5197cv_b7cw3n33qk7r0000gn/T//ccxkT2Pi.s 			page 6


 286 0038 000050E3 		cmp	r0, #0
 287 003c F7FFFF0A 		beq	.L29
 288              		.loc 2 61 0
 289 0040 1300E0E3 		mvn	r0, #19
 290              	.LVL30:
 291              	.LBE34:
 292              	.LBE33:
 293              		.loc 2 65 0
 294 0044 F081BDE8 		pop	{r4, r5, r6, r7, r8, pc}
 295              	.LVL31:
 296              	.L20:
 297              		.loc 2 64 0
 298 0048 0000A0E3 		mov	r0, #0
 299 004c F081BDE8 		pop	{r4, r5, r6, r7, r8, pc}
 300              		.cfi_endproc
 301              	.LFE14:
 302              		.size	VL53L0X_WriteMulti, .-VL53L0X_WriteMulti
 303              		.section	.text.VL53L0X_ReadMulti,"ax",%progbits
 304              		.align	2
 305              		.global	VL53L0X_ReadMulti
 306              		.syntax unified
 307              		.arm
 308              		.fpu softvfp
 309              		.type	VL53L0X_ReadMulti, %function
 310              	VL53L0X_ReadMulti:
 311              	.LFB15:
 312              		.loc 2 67 0
 313              		.cfi_startproc
 314              		@ args = 0, pretend = 0, frame = 8
 315              		@ frame_needed = 0, uses_anonymous_args = 0
 316              	.LVL32:
 317 0000 F0402DE9 		push	{r4, r5, r6, r7, lr}
 318              		.cfi_def_cfa_offset 20
 319              		.cfi_offset 4, -20
 320              		.cfi_offset 5, -16
 321              		.cfi_offset 6, -12
 322              		.cfi_offset 7, -8
 323              		.cfi_offset 14, -4
 324              	.LBB35:
 325              		.loc 2 73 0
 326 0004 005053E2 		subs	r5, r3, #0
 327              	.LVL33:
 328              	.LBE35:
 329              		.loc 2 67 0
 330 0008 0CD04DE2 		sub	sp, sp, #12
 331              		.cfi_def_cfa_offset 32
 332              	.LBB38:
 333              		.loc 2 73 0
 334 000c 1100000A 		beq	.L31
 335 0010 014042E2 		sub	r4, r2, #1
 336 0014 0170A0E1 		mov	r7, r1
 337 0018 0060A0E1 		mov	r6, r0
 338 001c 055084E0 		add	r5, r4, r5
 339 0020 030000EA 		b	.L34
 340              	.LVL34:
 341              	.L32:
 342              	.LBB36:
ARM GAS  /var/folders/3j/4xdnk5197cv_b7cw3n33qk7r0000gn/T//ccxkT2Pi.s 			page 7


 343              		.loc 2 79 0
 344 0024 0730DDE5 		ldrb	r3, [sp, #7]	@ zero_extendqisi2
 345 0028 0130E4E5 		strb	r3, [r4, #1]!
 346              	.LVL35:
 347              	.LBE36:
 348              		.loc 2 73 0
 349 002c 050054E1 		cmp	r4, r5
 350 0030 0800000A 		beq	.L31
 351              	.LVL36:
 352              	.L34:
 353              	.LBB37:
 354              		.loc 2 76 0
 355 0034 07208DE2 		add	r2, sp, #7
 356 0038 0710A0E1 		mov	r1, r7
 357 003c 0600A0E1 		mov	r0, r6
 358 0040 FEFFFFEB 		bl	VL53L0X_RdByte
 359              	.LVL37:
 360              		.loc 2 77 0
 361 0044 000050E3 		cmp	r0, #0
 362 0048 F5FFFF0A 		beq	.L32
 363              		.loc 2 78 0
 364 004c 1300E0E3 		mvn	r0, #19
 365              	.LVL38:
 366              	.LBE37:
 367              	.LBE38:
 368              		.loc 2 84 0
 369 0050 0CD08DE2 		add	sp, sp, #12
 370              		.cfi_remember_state
 371              		.cfi_def_cfa_offset 20
 372              		@ sp needed
 373 0054 F080BDE8 		pop	{r4, r5, r6, r7, pc}
 374              	.LVL39:
 375              	.L31:
 376              		.cfi_restore_state
 377              		.loc 2 83 0
 378 0058 0000A0E3 		mov	r0, #0
 379              		.loc 2 84 0
 380 005c 0CD08DE2 		add	sp, sp, #12
 381              		.cfi_def_cfa_offset 20
 382              		@ sp needed
 383 0060 F080BDE8 		pop	{r4, r5, r6, r7, pc}
 384              		.cfi_endproc
 385              	.LFE15:
 386              		.size	VL53L0X_ReadMulti, .-VL53L0X_ReadMulti
 387              		.section	.text.VL53L0X_WrWord,"ax",%progbits
 388              		.align	2
 389              		.global	VL53L0X_WrWord
 390              		.syntax unified
 391              		.arm
 392              		.fpu softvfp
 393              		.type	VL53L0X_WrWord, %function
 394              	VL53L0X_WrWord:
 395              	.LFB16:
 396              		.loc 2 86 0
 397              		.cfi_startproc
 398              		@ args = 0, pretend = 0, frame = 8
 399              		@ frame_needed = 0, uses_anonymous_args = 0
ARM GAS  /var/folders/3j/4xdnk5197cv_b7cw3n33qk7r0000gn/T//ccxkT2Pi.s 			page 8


 400              	.LVL40:
 401 0000 30402DE9 		push	{r4, r5, lr}
 402              		.cfi_def_cfa_offset 12
 403              		.cfi_offset 4, -12
 404              		.cfi_offset 5, -8
 405              		.cfi_offset 14, -4
 406              		.loc 2 92 0
 407 0004 5C409FE5 		ldr	r4, .L42
 408              		.loc 2 86 0
 409 0008 1CD04DE2 		sub	sp, sp, #28
 410              		.cfi_def_cfa_offset 40
 411              		.loc 2 89 0
 412 000c 2234A0E1 		lsr	r3, r2, #8
 413              		.loc 2 86 0
 414 0010 0050A0E1 		mov	r5, r0
 415              		.loc 2 92 0
 416 0014 0400A0E1 		mov	r0, r4
 417              	.LVL41:
 418              		.loc 2 90 0
 419 0018 1620CDE5 		strb	r2, [sp, #22]
 420              		.loc 2 89 0
 421 001c 1530CDE5 		strb	r3, [sp, #21]
 422              		.loc 2 88 0
 423 0020 1410CDE5 		strb	r1, [sp, #20]
 424              		.loc 2 92 0
 425 0024 FEFFFFEB 		bl	i2cAcquireBus
 426              	.LVL42:
 427              		.loc 2 93 0
 428 0028 0030A0E3 		mov	r3, #0
 429 002c FA2FA0E3 		mov	r2, #1000
 430 0030 5C11D5E5 		ldrb	r1, [r5, #348]	@ zero_extendqisi2
 431 0034 0400A0E1 		mov	r0, r4
 432 0038 08208DE5 		str	r2, [sp, #8]
 433 003c 04308DE5 		str	r3, [sp, #4]
 434 0040 00308DE5 		str	r3, [sp]
 435 0044 14208DE2 		add	r2, sp, #20
 436 0048 0330A0E3 		mov	r3, #3
 437 004c FEFFFFEB 		bl	i2cMasterTransmitTimeout
 438              	.LVL43:
 439 0050 0050A0E1 		mov	r5, r0
 440              	.LVL44:
 441              		.loc 2 94 0
 442 0054 0400A0E1 		mov	r0, r4
 443              	.LVL45:
 444 0058 FEFFFFEB 		bl	i2cReleaseBus
 445              	.LVL46:
 446              		.loc 2 99 0
 447 005c 7500AFE6 		sxtb	r0, r5
 448 0060 1CD08DE2 		add	sp, sp, #28
 449              		.cfi_def_cfa_offset 12
 450              		@ sp needed
 451 0064 3080BDE8 		pop	{r4, r5, pc}
 452              	.LVL47:
 453              	.L43:
 454              		.align	2
 455              	.L42:
 456 0068 00000000 		.word	I2C1
ARM GAS  /var/folders/3j/4xdnk5197cv_b7cw3n33qk7r0000gn/T//ccxkT2Pi.s 			page 9


 457              		.cfi_endproc
 458              	.LFE16:
 459              		.size	VL53L0X_WrWord, .-VL53L0X_WrWord
 460              		.section	.text.VL53L0X_WrDWord,"ax",%progbits
 461              		.align	2
 462              		.global	VL53L0X_WrDWord
 463              		.syntax unified
 464              		.arm
 465              		.fpu softvfp
 466              		.type	VL53L0X_WrDWord, %function
 467              	VL53L0X_WrDWord:
 468              	.LFB17:
 469              		.loc 2 101 0
 470              		.cfi_startproc
 471              		@ args = 0, pretend = 0, frame = 8
 472              		@ frame_needed = 0, uses_anonymous_args = 0
 473              	.LVL48:
 474 0000 30402DE9 		push	{r4, r5, lr}
 475              		.cfi_def_cfa_offset 12
 476              		.cfi_offset 4, -12
 477              		.cfi_offset 5, -8
 478              		.cfi_offset 14, -4
 479              		.loc 2 109 0
 480 0004 6C409FE5 		ldr	r4, .L46
 481              		.loc 2 101 0
 482 0008 1CD04DE2 		sub	sp, sp, #28
 483              		.cfi_def_cfa_offset 40
 484              		.loc 2 104 0
 485 000c 22CCA0E1 		lsr	ip, r2, #24
 486              		.loc 2 105 0
 487 0010 2238A0E1 		lsr	r3, r2, #16
 488              		.loc 2 101 0
 489 0014 0050A0E1 		mov	r5, r0
 490              		.loc 2 107 0
 491 0018 1420CDE5 		strb	r2, [sp, #20]
 492              		.loc 2 109 0
 493 001c 0400A0E1 		mov	r0, r4
 494              	.LVL49:
 495              		.loc 2 106 0
 496 0020 2224A0E1 		lsr	r2, r2, #8
 497              	.LVL50:
 498              		.loc 2 104 0
 499 0024 11C0CDE5 		strb	ip, [sp, #17]
 500              		.loc 2 103 0
 501 0028 1010CDE5 		strb	r1, [sp, #16]
 502              		.loc 2 105 0
 503 002c 1230CDE5 		strb	r3, [sp, #18]
 504              		.loc 2 106 0
 505 0030 1320CDE5 		strb	r2, [sp, #19]
 506              		.loc 2 109 0
 507 0034 FEFFFFEB 		bl	i2cAcquireBus
 508              	.LVL51:
 509              		.loc 2 110 0
 510 0038 0030A0E3 		mov	r3, #0
 511 003c FA2FA0E3 		mov	r2, #1000
 512 0040 5C11D5E5 		ldrb	r1, [r5, #348]	@ zero_extendqisi2
 513 0044 0400A0E1 		mov	r0, r4
ARM GAS  /var/folders/3j/4xdnk5197cv_b7cw3n33qk7r0000gn/T//ccxkT2Pi.s 			page 10


 514 0048 08208DE5 		str	r2, [sp, #8]
 515 004c 04308DE5 		str	r3, [sp, #4]
 516 0050 00308DE5 		str	r3, [sp]
 517 0054 10208DE2 		add	r2, sp, #16
 518 0058 0530A0E3 		mov	r3, #5
 519 005c FEFFFFEB 		bl	i2cMasterTransmitTimeout
 520              	.LVL52:
 521 0060 0050A0E1 		mov	r5, r0
 522              	.LVL53:
 523              		.loc 2 111 0
 524 0064 0400A0E1 		mov	r0, r4
 525              	.LVL54:
 526 0068 FEFFFFEB 		bl	i2cReleaseBus
 527              	.LVL55:
 528              		.loc 2 117 0
 529 006c 7500AFE6 		sxtb	r0, r5
 530 0070 1CD08DE2 		add	sp, sp, #28
 531              		.cfi_def_cfa_offset 12
 532              		@ sp needed
 533 0074 3080BDE8 		pop	{r4, r5, pc}
 534              	.LVL56:
 535              	.L47:
 536              		.align	2
 537              	.L46:
 538 0078 00000000 		.word	I2C1
 539              		.cfi_endproc
 540              	.LFE17:
 541              		.size	VL53L0X_WrDWord, .-VL53L0X_WrDWord
 542              		.section	.text.VL53L0X_RdWord,"ax",%progbits
 543              		.align	2
 544              		.global	VL53L0X_RdWord
 545              		.syntax unified
 546              		.arm
 547              		.fpu softvfp
 548              		.type	VL53L0X_RdWord, %function
 549              	VL53L0X_RdWord:
 550              	.LFB18:
 551              		.loc 2 118 0
 552              		.cfi_startproc
 553              		@ args = 0, pretend = 0, frame = 0
 554              		@ frame_needed = 0, uses_anonymous_args = 0
 555              	.LVL57:
 556 0000 70402DE9 		push	{r4, r5, r6, lr}
 557              		.cfi_def_cfa_offset 16
 558              		.cfi_offset 4, -16
 559              		.cfi_offset 5, -12
 560              		.cfi_offset 6, -8
 561              		.cfi_offset 14, -4
 562              		.loc 2 119 0
 563 0004 44409FE5 		ldr	r4, .L50
 564              		.loc 2 118 0
 565 0008 08D04DE2 		sub	sp, sp, #8
 566              		.cfi_def_cfa_offset 24
 567              		.loc 2 118 0
 568 000c 0060A0E1 		mov	r6, r0
 569              		.loc 2 119 0
 570 0010 0400A0E1 		mov	r0, r4
ARM GAS  /var/folders/3j/4xdnk5197cv_b7cw3n33qk7r0000gn/T//ccxkT2Pi.s 			page 11


 571              	.LVL58:
 572              		.loc 2 118 0
 573 0014 0250A0E1 		mov	r5, r2
 574              		.loc 2 119 0
 575 0018 FEFFFFEB 		bl	i2cAcquireBus
 576              	.LVL59:
 577              		.loc 2 120 0
 578 001c FA3FA0E3 		mov	r3, #1000
 579 0020 5C11D6E5 		ldrb	r1, [r6, #348]	@ zero_extendqisi2
 580 0024 0520A0E1 		mov	r2, r5
 581 0028 00308DE5 		str	r3, [sp]
 582 002c 0400A0E1 		mov	r0, r4
 583 0030 0230A0E3 		mov	r3, #2
 584 0034 FEFFFFEB 		bl	i2cMasterReceiveTimeout
 585              	.LVL60:
 586 0038 0050A0E1 		mov	r5, r0
 587              	.LVL61:
 588              		.loc 2 121 0
 589 003c 0400A0E1 		mov	r0, r4
 590              	.LVL62:
 591 0040 FEFFFFEB 		bl	i2cReleaseBus
 592              	.LVL63:
 593              		.loc 2 127 0
 594 0044 7500AFE6 		sxtb	r0, r5
 595 0048 08D08DE2 		add	sp, sp, #8
 596              		.cfi_def_cfa_offset 16
 597              		@ sp needed
 598 004c 7080BDE8 		pop	{r4, r5, r6, pc}
 599              	.LVL64:
 600              	.L51:
 601              		.align	2
 602              	.L50:
 603 0050 00000000 		.word	I2C1
 604              		.cfi_endproc
 605              	.LFE18:
 606              		.size	VL53L0X_RdWord, .-VL53L0X_RdWord
 607              		.section	.text.VL53L0X_RdDWord,"ax",%progbits
 608              		.align	2
 609              		.global	VL53L0X_RdDWord
 610              		.syntax unified
 611              		.arm
 612              		.fpu softvfp
 613              		.type	VL53L0X_RdDWord, %function
 614              	VL53L0X_RdDWord:
 615              	.LFB19:
 616              		.loc 2 128 0
 617              		.cfi_startproc
 618              		@ args = 0, pretend = 0, frame = 0
 619              		@ frame_needed = 0, uses_anonymous_args = 0
 620              	.LVL65:
 621 0000 70402DE9 		push	{r4, r5, r6, lr}
 622              		.cfi_def_cfa_offset 16
 623              		.cfi_offset 4, -16
 624              		.cfi_offset 5, -12
 625              		.cfi_offset 6, -8
 626              		.cfi_offset 14, -4
 627              		.loc 2 129 0
ARM GAS  /var/folders/3j/4xdnk5197cv_b7cw3n33qk7r0000gn/T//ccxkT2Pi.s 			page 12


 628 0004 44409FE5 		ldr	r4, .L54
 629              		.loc 2 128 0
 630 0008 08D04DE2 		sub	sp, sp, #8
 631              		.cfi_def_cfa_offset 24
 632              		.loc 2 128 0
 633 000c 0060A0E1 		mov	r6, r0
 634              		.loc 2 129 0
 635 0010 0400A0E1 		mov	r0, r4
 636              	.LVL66:
 637              		.loc 2 128 0
 638 0014 0250A0E1 		mov	r5, r2
 639              		.loc 2 129 0
 640 0018 FEFFFFEB 		bl	i2cAcquireBus
 641              	.LVL67:
 642              		.loc 2 131 0
 643 001c FA3FA0E3 		mov	r3, #1000
 644 0020 5C11D6E5 		ldrb	r1, [r6, #348]	@ zero_extendqisi2
 645 0024 0520A0E1 		mov	r2, r5
 646 0028 00308DE5 		str	r3, [sp]
 647 002c 0400A0E1 		mov	r0, r4
 648 0030 0430A0E3 		mov	r3, #4
 649 0034 FEFFFFEB 		bl	i2cMasterReceiveTimeout
 650              	.LVL68:
 651 0038 0050A0E1 		mov	r5, r0
 652              	.LVL69:
 653              		.loc 2 132 0
 654 003c 0400A0E1 		mov	r0, r4
 655              	.LVL70:
 656 0040 FEFFFFEB 		bl	i2cReleaseBus
 657              	.LVL71:
 658              		.loc 2 137 0
 659 0044 7500AFE6 		sxtb	r0, r5
 660 0048 08D08DE2 		add	sp, sp, #8
 661              		.cfi_def_cfa_offset 16
 662              		@ sp needed
 663 004c 7080BDE8 		pop	{r4, r5, r6, pc}
 664              	.LVL72:
 665              	.L55:
 666              		.align	2
 667              	.L54:
 668 0050 00000000 		.word	I2C1
 669              		.cfi_endproc
 670              	.LFE19:
 671              		.size	VL53L0X_RdDWord, .-VL53L0X_RdDWord
 672              		.section	.text.VL53L0X_UpdateByte,"ax",%progbits
 673              		.align	2
 674              		.global	VL53L0X_UpdateByte
 675              		.syntax unified
 676              		.arm
 677              		.fpu softvfp
 678              		.type	VL53L0X_UpdateByte, %function
 679              	VL53L0X_UpdateByte:
 680              	.LFB20:
 681              		.loc 2 138 0
 682              		.cfi_startproc
 683              		@ args = 0, pretend = 0, frame = 8
 684              		@ frame_needed = 0, uses_anonymous_args = 0
ARM GAS  /var/folders/3j/4xdnk5197cv_b7cw3n33qk7r0000gn/T//ccxkT2Pi.s 			page 13


 685              	.LVL73:
 686 0000 70402DE9 		push	{r4, r5, r6, lr}
 687              		.cfi_def_cfa_offset 16
 688              		.cfi_offset 4, -16
 689              		.cfi_offset 5, -12
 690              		.cfi_offset 6, -8
 691              		.cfi_offset 14, -4
 692              		.loc 2 142 0
 693 0004 0040A0E3 		mov	r4, #0
 694              		.loc 2 138 0
 695 0008 0060A0E1 		mov	r6, r0
 696              		.loc 2 146 0
 697 000c FA5FA0E3 		mov	r5, #1000
 698              		.loc 2 138 0
 699 0010 18D04DE2 		sub	sp, sp, #24
 700              		.cfi_def_cfa_offset 40
 701              		.loc 2 144 0
 702 0014 68009FE5 		ldr	r0, .L61
 703              	.LVL74:
 704              		.loc 2 141 0
 705 0018 1410CDE5 		strb	r1, [sp, #20]
 706              		.loc 2 142 0
 707 001c 1540CDE5 		strb	r4, [sp, #21]
 708              		.loc 2 144 0
 709 0020 FEFFFFEB 		bl	i2cAcquireBus
 710              	.LVL75:
 711              		.loc 2 146 0
 712 0024 5C11D6E5 		ldrb	r1, [r6, #348]	@ zero_extendqisi2
 713 0028 0420A0E1 		mov	r2, r4
 714 002c 0430A0E3 		mov	r3, #4
 715 0030 00508DE5 		str	r5, [sp]
 716 0034 48009FE5 		ldr	r0, .L61
 717 0038 FEFFFFEB 		bl	i2cMasterReceiveTimeout
 718              	.LVL76:
 719 003c 0040A0E1 		mov	r4, r0
 720              	.LVL77:
 721              		.loc 2 148 0
 722 0040 3C009FE5 		ldr	r0, .L61
 723              	.LVL78:
 724 0044 FEFFFFEB 		bl	i2cReleaseBus
 725              	.LVL79:
 726              		.loc 2 150 0
 727 0048 000054E3 		cmp	r4, #0
 728 004c 0A00001A 		bne	.L58
 729              	.LVL80:
 730              		.loc 2 154 0
 731 0050 5C11D6E5 		ldrb	r1, [r6, #348]	@ zero_extendqisi2
 732 0054 0230A0E3 		mov	r3, #2
 733 0058 F440CDE1 		strd	r4, [sp, #4]
 734 005c 00408DE5 		str	r4, [sp]
 735 0060 14208DE2 		add	r2, sp, #20
 736 0064 18009FE5 		ldr	r0, .L61
 737 0068 FEFFFFEB 		bl	i2cMasterTransmitTimeout
 738              	.LVL81:
 739              		.loc 2 156 0
 740 006c 000050E3 		cmp	r0, #0
 741              		.loc 2 158 0
ARM GAS  /var/folders/3j/4xdnk5197cv_b7cw3n33qk7r0000gn/T//ccxkT2Pi.s 			page 14


 742 0070 7000AF16 		sxtbne	r0, r0
 743              	.LVL82:
 744              	.L57:
 745              		.loc 2 159 0
 746 0074 18D08DE2 		add	sp, sp, #24
 747              		.cfi_remember_state
 748              		.cfi_def_cfa_offset 16
 749              		@ sp needed
 750 0078 7080BDE8 		pop	{r4, r5, r6, pc}
 751              	.LVL83:
 752              	.L58:
 753              		.cfi_restore_state
 754              		.loc 2 151 0
 755 007c 1300E0E3 		mvn	r0, #19
 756 0080 FBFFFFEA 		b	.L57
 757              	.L62:
 758              		.align	2
 759              	.L61:
 760 0084 00000000 		.word	I2C1
 761              		.cfi_endproc
 762              	.LFE20:
 763              		.size	VL53L0X_UpdateByte, .-VL53L0X_UpdateByte
 764              		.section	.text.setup_mux_GPIO,"ax",%progbits
 765              		.align	2
 766              		.global	setup_mux_GPIO
 767              		.syntax unified
 768              		.arm
 769              		.fpu softvfp
 770              		.type	setup_mux_GPIO, %function
 771              	setup_mux_GPIO:
 772              	.LFB27:
 773              		.file 3 "src/vl53l0x_sensor_interface.h"
 774              		.loc 3 181 0
 775              		.cfi_startproc
 776              		@ args = 56, pretend = 16, frame = 0
 777              		@ frame_needed = 0, uses_anonymous_args = 0
 778 0000 10D04DE2 		sub	sp, sp, #16
 779              		.cfi_def_cfa_offset 16
 780 0004 10402DE9 		push	{r4, lr}
 781              		.cfi_def_cfa_offset 24
 782              		.cfi_offset 4, -24
 783              		.cfi_offset 14, -20
 784              		.loc 3 183 0
 785 0008 0140A0E3 		mov	r4, #1
 786              		.loc 3 181 0
 787 000c 04C08DE2 		add	ip, sp, #4
 788 0010 0F008CE9 		stmib	ip, {r0, r1, r2, r3}
 789              		.loc 3 183 0
 790 0014 08109DE5 		ldr	r1, [sp, #8]
 791 0018 0C008DE2 		add	r0, sp, #12
 792 001c 1411A0E1 		lsl	r1, r4, r1
 793 0020 FF20A0E3 		mov	r2, #255
 794 0024 FEFFFFEB 		bl	_pal_lld_setgroupmode
 795              	.LVL84:
 796              		.loc 3 184 0
 797 0028 24109DE5 		ldr	r1, [sp, #36]
 798 002c 28008DE2 		add	r0, sp, #40
ARM GAS  /var/folders/3j/4xdnk5197cv_b7cw3n33qk7r0000gn/T//ccxkT2Pi.s 			page 15


 799 0030 1411A0E1 		lsl	r1, r4, r1
 800 0034 FF20A0E3 		mov	r2, #255
 801 0038 FEFFFFEB 		bl	_pal_lld_setgroupmode
 802              	.LVL85:
 803              		.loc 3 186 0
 804 003c 0C309DE5 		ldr	r3, [sp, #12]
 805 0040 08109DE5 		ldr	r1, [sp, #8]
 806 0044 0C008DE2 		add	r0, sp, #12
 807 0048 1411C3E1 		bic	r1, r3, r4, lsl r1
 808 004c FEFFFFEB 		bl	_pal_lld_writeport
 809              	.LVL86:
 810              		.loc 3 187 0
 811 0050 24109DE5 		ldr	r1, [sp, #36]
 812 0054 28309DE5 		ldr	r3, [sp, #40]
 813 0058 28008DE2 		add	r0, sp, #40
 814 005c 1411C3E1 		bic	r1, r3, r4, lsl r1
 815 0060 FEFFFFEB 		bl	_pal_lld_writeport
 816              	.LVL87:
 817              		.loc 3 189 0
 818 0064 1040BDE8 		pop	{r4, lr}
 819              		.cfi_restore 14
 820              		.cfi_restore 4
 821              		.cfi_def_cfa_offset 16
 822 0068 10D08DE2 		add	sp, sp, #16
 823              		.cfi_def_cfa_offset 0
 824 006c 1EFF2FE1 		bx	lr
 825              		.cfi_endproc
 826              	.LFE27:
 827              		.size	setup_mux_GPIO, .-setup_mux_GPIO
 828              		.section	.text.set_mux_GPIO,"ax",%progbits
 829              		.align	2
 830              		.global	set_mux_GPIO
 831              		.syntax unified
 832              		.arm
 833              		.fpu softvfp
 834              		.type	set_mux_GPIO, %function
 835              	set_mux_GPIO:
 836              	.LFB28:
 837              		.loc 3 194 0
 838              		.cfi_startproc
 839              		@ args = 60, pretend = 16, frame = 0
 840              		@ frame_needed = 0, uses_anonymous_args = 0
 841              	.LVL88:
 842 0000 01C0A0E3 		mov	ip, #1
 843 0004 10D04DE2 		sub	sp, sp, #16
 844              		.cfi_def_cfa_offset 16
 845 0008 10402DE9 		push	{r4, lr}
 846              		.cfi_def_cfa_offset 24
 847              		.cfi_offset 4, -24
 848              		.cfi_offset 14, -20
 849              		.loc 3 194 0
 850 000c 04E08DE2 		add	lr, sp, #4
 851 0010 0F008EE9 		stmib	lr, {r0, r1, r2, r3}
 852 0014 08109DE5 		ldr	r1, [sp, #8]
 853 0018 4030DDE5 		ldrb	r3, [sp, #64]	@ zero_extendqisi2
 854              	.LVL89:
 855 001c 1CC1A0E1 		lsl	ip, ip, r1
ARM GAS  /var/folders/3j/4xdnk5197cv_b7cw3n33qk7r0000gn/T//ccxkT2Pi.s 			page 16


 856 0020 0C109DE5 		ldr	r1, [sp, #12]
 857              		.loc 3 197 0
 858 0024 010013E3 		tst	r3, #1
 859 0028 0C108111 		orrne	r1, r1, ip
 860 002c 0C10C101 		biceq	r1, r1, ip
 861 0030 0C008DE2 		add	r0, sp, #12
 862              		.loc 3 196 0
 863 0034 024003E2 		and	r4, r3, #2
 864              	.LVL90:
 865              		.loc 3 197 0
 866 0038 FEFFFFEB 		bl	_pal_lld_writeport
 867              	.LVL91:
 868 003c 0130A0E3 		mov	r3, #1
 869 0040 24109DE5 		ldr	r1, [sp, #36]
 870              		.loc 3 198 0
 871 0044 000054E3 		cmp	r4, #0
 872 0048 1331A0E1 		lsl	r3, r3, r1
 873 004c 28109DE5 		ldr	r1, [sp, #40]
 874 0050 28008DE2 		add	r0, sp, #40
 875 0054 03108111 		orrne	r1, r1, r3
 876 0058 0310C101 		biceq	r1, r1, r3
 877 005c FEFFFFEB 		bl	_pal_lld_writeport
 878              	.LVL92:
 879              		.loc 3 199 0
 880 0060 1040BDE8 		pop	{r4, lr}
 881              		.cfi_restore 14
 882              		.cfi_restore 4
 883              		.cfi_def_cfa_offset 16
 884              	.LVL93:
 885 0064 10D08DE2 		add	sp, sp, #16
 886              		.cfi_def_cfa_offset 0
 887 0068 1EFF2FE1 		bx	lr
 888              		.cfi_endproc
 889              	.LFE28:
 890              		.size	set_mux_GPIO, .-set_mux_GPIO
 891              		.global	__aeabi_fcmplt
 892              		.global	__aeabi_fmul
 893              		.global	__aeabi_f2iz
 894              		.section	.text.Thread_Sensor,"ax",%progbits
 895              		.align	2
 896              		.syntax unified
 897              		.arm
 898              		.fpu softvfp
 899              		.type	Thread_Sensor, %function
 900              	Thread_Sensor:
 901              	.LFB36:
 902              		.loc 1 210 0
 903              		.cfi_startproc
 904              		@ args = 0, pretend = 0, frame = 2584
 905              		@ frame_needed = 0, uses_anonymous_args = 0
 906              	.LVL94:
 907 0000 F04F2DE9 		push	{r4, r5, r6, r7, r8, r9, r10, fp, lr}
 908              		.cfi_def_cfa_offset 36
 909              		.cfi_offset 4, -36
 910              		.cfi_offset 5, -32
 911              		.cfi_offset 6, -28
 912              		.cfi_offset 7, -24
ARM GAS  /var/folders/3j/4xdnk5197cv_b7cw3n33qk7r0000gn/T//ccxkT2Pi.s 			page 17


 913              		.cfi_offset 8, -20
 914              		.cfi_offset 9, -16
 915              		.cfi_offset 10, -12
 916              		.cfi_offset 11, -8
 917              		.cfi_offset 14, -4
 918 0004 0040A0E1 		mov	r4, r0
 919 0008 29DD4DE2 		sub	sp, sp, #2624
 920              		.cfi_def_cfa_offset 2660
 921 000c 0CD04DE2 		sub	sp, sp, #12
 922              		.cfi_def_cfa_offset 2672
 923              		.loc 1 212 0
 924 0010 6F8E8DE2 		add	r8, sp, #1776
 925 0014 088088E2 		add	r8, r8, #8
 926 0018 0010A0E1 		mov	r1, r0
 927 001c 352EA0E3 		mov	r2, #848
 928 0020 0800A0E1 		mov	r0, r8
 929              	.LVL95:
 930 0024 FEFFFFEB 		bl	memcpy
 931              	.LVL96:
 932              		.loc 1 213 0
 933 0028 FC319FE5 		ldr	r3, .L86
 934 002c FC219FE5 		ldr	r2, .L86+4
 935 0030 183093E5 		ldr	r3, [r3, #24]
 936              		.loc 1 212 0
 937 0034 671F84E2 		add	r1, r4, #412
 938              	.LBB56:
 939              	.LBB57:
 940              	.LBB58:
 941              		.loc 3 203 0
 942 0038 F4919FE5 		ldr	r9, .L86+8
 943              	.LBE58:
 944              	.LBE57:
 945              	.LBE56:
 946              		.loc 1 212 0
 947 003c B070D1E1 		ldrh	r7, [r1]
 948 0040 B461D4E1 		ldrh	r6, [r4, #20]
 949              	.LVL97:
 950              		.loc 1 213 0
 951 0044 182083E5 		str	r2, [r3, #24]
 952              	.LVL98:
 953              	.L76:
 954 0048 622FA0E3 		mov	r2, #392
 955 004c 0810A0E1 		mov	r1, r8
 956 0050 D8008DE2 		add	r0, sp, #216
 957 0054 B461C8E1 		strh	r6, [r8, #20]	@ movhi
 958 0058 FEFFFFEB 		bl	memcpy
 959              	.LVL99:
 960 005c 893E8DE2 		add	r3, sp, #2192
 961 0060 043083E2 		add	r3, r3, #4
 962 0064 622FA0E3 		mov	r2, #392
 963 0068 221D8DE2 		add	r1, sp, #2176
 964 006c B070C3E1 		strh	r7, [r3]	@ movhi
 965 0070 260E8DE2 		add	r0, sp, #608
 966 0074 FEFFFFEB 		bl	memcpy
 967              	.LVL100:
 968 0078 0ACC8DE2 		add	ip, sp, #2560
 969 007c 30408DE2 		add	r4, sp, #48
ARM GAS  /var/folders/3j/4xdnk5197cv_b7cw3n33qk7r0000gn/T//ccxkT2Pi.s 			page 18


 970 0080 08C08CE2 		add	ip, ip, #8
 971 0084 0F00BCE8 		ldmia	ip!, {r0, r1, r2, r3}
 972 0088 0F00A4E8 		stmia	r4!, {r0, r1, r2, r3}
 973 008c 0F00BCE8 		ldmia	ip!, {r0, r1, r2, r3}
 974              	.LBB83:
 975              	.LBB63:
 976              	.LBB64:
 977              	.LBB65:
 978              	.LBB66:
 979              		.loc 3 171 0 discriminator 1
 980 0090 0D50A0E1 		mov	r5, sp
 981 0094 0F00A4E8 		stmia	r4!, {r0, r1, r2, r3}
 982 0098 0F00BCE8 		ldmia	ip!, {r0, r1, r2, r3}
 983 009c 0F00A4E8 		stmia	r4!, {r0, r1, r2, r3}
 984 00a0 03009CE8 		ldm	ip, {r0, r1}
 985 00a4 622FA0E3 		mov	r2, #392
 986 00a8 030084E8 		stm	r4, {r0, r1}
 987              	.LVL101:
 988 00ac D8108DE2 		add	r1, sp, #216
 989 00b0 FA0F8DE2 		add	r0, sp, #1000
 990 00b4 FEFFFFEB 		bl	memcpy
 991              	.LVL102:
 992 00b8 30E08DE2 		add	lr, sp, #48
 993 00bc 68C08DE2 		add	ip, sp, #104
 994 00c0 0F00BEE8 		ldmia	lr!, {r0, r1, r2, r3}
 995 00c4 0F00ACE8 		stmia	ip!, {r0, r1, r2, r3}
 996 00c8 0F00BEE8 		ldmia	lr!, {r0, r1, r2, r3}
 997 00cc 0F00ACE8 		stmia	ip!, {r0, r1, r2, r3}
 998 00d0 0F00BEE8 		ldmia	lr!, {r0, r1, r2, r3}
 999 00d4 0F00ACE8 		stmia	ip!, {r0, r1, r2, r3}
 1000 00d8 030094E8 		ldm	r4, {r0, r1}
 1001 00dc F033DDE5 		ldrb	r3, [sp, #1008]	@ zero_extendqisi2
 1002 00e0 03008CE8 		stm	ip, {r0, r1}
 1003              	.LVL103:
 1004 00e4 78A08DE2 		add	r10, sp, #120
 1005 00e8 28308DE5 		str	r3, [sp, #40]
 1006 00ec 0F00BAE8 		ldmia	r10!, {r0, r1, r2, r3}
 1007 00f0 0F00A5E8 		stmia	r5!, {r0, r1, r2, r3}
 1008 00f4 0F00BAE8 		ldmia	r10!, {r0, r1, r2, r3}
 1009 00f8 0F00A5E8 		stmia	r5!, {r0, r1, r2, r3}
 1010 00fc 03009AE8 		ldm	r10, {r0, r1}
 1011 0100 030085E8 		stm	r5, {r0, r1}
 1012 0104 68308DE2 		add	r3, sp, #104
 1013 0108 0F0093E8 		ldm	r3, {r0, r1, r2, r3}
 1014 010c FEFFFFEB 		bl	set_mux_GPIO
 1015              	.LVL104:
 1016              		.loc 3 172 0 discriminator 1
 1017 0110 FA3F8DE2 		add	r3, sp, #1000
 1018 0114 280083E2 		add	r0, r3, #40
 1019 0118 FD1F8DE2 		add	r1, sp, #1012
 1020 011c FEFFFFEB 		bl	VL53L0X_GetMeasurementDataReady
 1021              	.LVL105:
 1022              	.LBE66:
 1023              	.LBE65:
 1024              	.LBB68:
 1025              	.LBB69:
 1026              		.loc 3 171 0 discriminator 1
ARM GAS  /var/folders/3j/4xdnk5197cv_b7cw3n33qk7r0000gn/T//ccxkT2Pi.s 			page 19


 1027 0120 0DA0A0E1 		mov	r10, sp
 1028              	.LBE69:
 1029              	.LBE68:
 1030              	.LBB71:
 1031              	.LBB67:
 1032              		.loc 3 172 0 discriminator 1
 1033 0124 0050A0E1 		mov	r5, r0
 1034              	.LVL106:
 1035 0128 622FA0E3 		mov	r2, #392
 1036 012c 261E8DE2 		add	r1, sp, #608
 1037 0130 570E8DE2 		add	r0, sp, #1392
 1038 0134 FEFFFFEB 		bl	memcpy
 1039              	.LVL107:
 1040 0138 30E08DE2 		add	lr, sp, #48
 1041 013c A0C08DE2 		add	ip, sp, #160
 1042 0140 0F00BEE8 		ldmia	lr!, {r0, r1, r2, r3}
 1043 0144 0F00ACE8 		stmia	ip!, {r0, r1, r2, r3}
 1044 0148 0F00BEE8 		ldmia	lr!, {r0, r1, r2, r3}
 1045 014c 0F00ACE8 		stmia	ip!, {r0, r1, r2, r3}
 1046 0150 0F00BEE8 		ldmia	lr!, {r0, r1, r2, r3}
 1047 0154 0F00ACE8 		stmia	ip!, {r0, r1, r2, r3}
 1048 0158 030094E8 		ldm	r4, {r0, r1}
 1049              	.LBE67:
 1050              	.LBE71:
 1051              	.LBB72:
 1052              	.LBB70:
 1053              		.loc 3 171 0 discriminator 1
 1054 015c 7835DDE5 		ldrb	r3, [sp, #1400]	@ zero_extendqisi2
 1055 0160 03008CE8 		stm	ip, {r0, r1}
 1056              	.LVL108:
 1057 0164 B0B08DE2 		add	fp, sp, #176
 1058 0168 28308DE5 		str	r3, [sp, #40]
 1059 016c 0F00BBE8 		ldmia	fp!, {r0, r1, r2, r3}
 1060 0170 0F00AAE8 		stmia	r10!, {r0, r1, r2, r3}
 1061 0174 0F00BBE8 		ldmia	fp!, {r0, r1, r2, r3}
 1062 0178 0F00AAE8 		stmia	r10!, {r0, r1, r2, r3}
 1063 017c 03009BE8 		ldm	fp, {r0, r1}
 1064 0180 03008AE8 		stm	r10, {r0, r1}
 1065 0184 A0308DE2 		add	r3, sp, #160
 1066 0188 0F0093E8 		ldm	r3, {r0, r1, r2, r3}
 1067 018c FEFFFFEB 		bl	set_mux_GPIO
 1068              	.LVL109:
 1069              		.loc 3 172 0 discriminator 1
 1070 0190 573E8DE2 		add	r3, sp, #1392
 1071 0194 083083E2 		add	r3, r3, #8
 1072 0198 590E8DE2 		add	r0, sp, #1424
 1073 019c 041083E2 		add	r1, r3, #4
 1074 01a0 080080E2 		add	r0, r0, #8
 1075 01a4 FEFFFFEB 		bl	VL53L0X_GetMeasurementDataReady
 1076              	.LVL110:
 1077              	.LBE70:
 1078              	.LBE72:
 1079              	.LBE64:
 1080              	.LBE63:
 1081              		.loc 1 216 0 discriminator 1
 1082 01a8 88309FE5 		ldr	r3, .L86+12
 1083              	.LBB74:
ARM GAS  /var/folders/3j/4xdnk5197cv_b7cw3n33qk7r0000gn/T//ccxkT2Pi.s 			page 20


 1084              	.LBB61:
 1085              		.loc 3 203 0 discriminator 1
 1086 01ac 090056E1 		cmp	r6, r9
 1087              	.LBE61:
 1088              	.LBE74:
 1089              	.LBB75:
 1090              	.LBB73:
 1091              		.loc 3 164 0 discriminator 1
 1092 01b0 000085E1 		orr	r0, r5, r0
 1093              	.LBE73:
 1094              	.LBE75:
 1095              		.loc 1 216 0 discriminator 1
 1096 01b4 0000C3E5 		strb	r0, [r3]
 1097              	.LVL111:
 1098              	.LBB76:
 1099              	.LBB62:
 1100              		.loc 3 204 0 discriminator 1
 1101 01b8 FE45A083 		movhi	r4, #1065353216
 1102              		.loc 3 203 0 discriminator 1
 1103 01bc 0600008A 		bhi	.L72
 1104              	.LVL112:
 1105              	.LBB59:
 1106              	.LBB60:
 1107              		.loc 3 205 0
 1108 01c0 960F56E3 		cmp	r6, #600
 1109              		.loc 3 206 0
 1110 01c4 FD45A083 		movhi	r4, #1061158912
 1111              		.loc 3 205 0
 1112 01c8 0300008A 		bhi	.L72
 1113              		.loc 3 207 0
 1114 01cc 68309FE5 		ldr	r3, .L86+16
 1115 01d0 030056E1 		cmp	r6, r3
 1116              		.loc 3 208 0
 1117 01d4 3F44A083 		movhi	r4, #1056964608
 1118              		.loc 3 207 0
 1119              		.loc 3 209 0
 1120 01d8 60409F95 		ldrls	r4, .L86+20
 1121              	.LVL113:
 1122              	.L72:
 1123              	.LBE60:
 1124              	.LBE59:
 1125              	.LBE62:
 1126              	.LBE76:
 1127              	.LBB77:
 1128              	.LBB78:
 1129              		.loc 3 203 0
 1130 01dc 090057E1 		cmp	r7, r9
 1131 01e0 0B00008A 		bhi	.L74
 1132              	.LVL114:
 1133              	.LBB79:
 1134              	.LBB80:
 1135              		.loc 3 205 0
 1136 01e4 960F57E3 		cmp	r7, #600
 1137              		.loc 3 206 0
 1138 01e8 FD55A083 		movhi	r5, #1061158912
 1139              		.loc 3 205 0
 1140 01ec 0300008A 		bhi	.L73
ARM GAS  /var/folders/3j/4xdnk5197cv_b7cw3n33qk7r0000gn/T//ccxkT2Pi.s 			page 21


 1141              		.loc 3 207 0
 1142 01f0 44309FE5 		ldr	r3, .L86+16
 1143 01f4 030057E1 		cmp	r7, r3
 1144              		.loc 3 208 0
 1145 01f8 3F54A083 		movhi	r5, #1056964608
 1146              		.loc 3 209 0
 1147 01fc 3C509F95 		ldrls	r5, .L86+20
 1148              	.L73:
 1149              	.LVL115:
 1150              	.LBE80:
 1151              	.LBE79:
 1152              	.LBE78:
 1153              	.LBE77:
 1154              	.LBB81:
 1155              	.LBB82:
 1156              		.loc 1 236 0
 1157 0200 0410A0E1 		mov	r1, r4
 1158 0204 0500A0E1 		mov	r0, r5
 1159 0208 FEFFFFEB 		bl	__aeabi_fcmplt
 1160              	.LVL116:
 1161 020c 000050E3 		cmp	r0, #0
 1162 0210 0540A011 		movne	r4, r5
 1163              	.LVL117:
 1164              	.L74:
 1165              	.LBE82:
 1166              	.LBE81:
 1167              		.loc 1 219 0
 1168 0214 28109FE5 		ldr	r1, .L86+24
 1169 0218 0400A0E1 		mov	r0, r4
 1170 021c FEFFFFEB 		bl	__aeabi_fmul
 1171              	.LVL118:
 1172 0220 FEFFFFEB 		bl	__aeabi_f2iz
 1173              	.LVL119:
 1174              		.loc 1 220 0
 1175 0224 FEFFFFEB 		bl	chThdSleep
 1176              	.LVL120:
 1177              	.LBE83:
 1178              		.loc 1 214 0
 1179 0228 86FFFFEA 		b	.L76
 1180              	.L87:
 1181              		.align	2
 1182              	.L86:
 1183 022c 00000000 		.word	rlist
 1184 0230 00000000 		.word	.LC2
 1185 0234 92030000 		.word	914
 1186 0238 00000000 		.word	.LANCHOR0
 1187 023c C9010000 		.word	457
 1188 0240 CDCC4C3E 		.word	1045220557
 1189 0244 00004843 		.word	1128792064
 1190              		.cfi_endproc
 1191              	.LFE36:
 1192              		.size	Thread_Sensor, .-Thread_Sensor
 1193              		.section	.text.individual_sensor,"ax",%progbits
 1194              		.align	2
 1195              		.syntax unified
 1196              		.arm
 1197              		.fpu softvfp
ARM GAS  /var/folders/3j/4xdnk5197cv_b7cw3n33qk7r0000gn/T//ccxkT2Pi.s 			page 22


 1198              		.type	individual_sensor, %function
 1199              	individual_sensor:
 1200              	.LFB24:
 1201              		.loc 3 119 0
 1202              		.cfi_startproc
 1203              		@ args = 448, pretend = 16, frame = 8
 1204              		@ frame_needed = 0, uses_anonymous_args = 0
 1205 0000 10D04DE2 		sub	sp, sp, #16
 1206              		.cfi_def_cfa_offset 16
 1207 0004 04E02DE5 		str	lr, [sp, #-4]!
 1208              		.cfi_def_cfa_offset 20
 1209              		.cfi_offset 14, -20
 1210 0008 3CD04DE2 		sub	sp, sp, #60
 1211              		.cfi_def_cfa_offset 80
 1212              		.loc 3 121 0
 1213 000c 0DC0A0E1 		mov	ip, sp
 1214              		.loc 3 119 0
 1215 0010 3CE08DE2 		add	lr, sp, #60
 1216 0014 0F008EE9 		stmib	lr, {r0, r1, r2, r3}
 1217              		.loc 3 121 0
 1218 0018 4830DDE5 		ldrb	r3, [sp, #72]	@ zero_extendqisi2
 1219 001c 76EF8DE2 		add	lr, sp, #472
 1220 0020 28308DE5 		str	r3, [sp, #40]
 1221 0024 0F00BEE8 		ldmia	lr!, {r0, r1, r2, r3}
 1222 0028 0F00ACE8 		stmia	ip!, {r0, r1, r2, r3}
 1223 002c 0F00BEE8 		ldmia	lr!, {r0, r1, r2, r3}
 1224 0030 0F00ACE8 		stmia	ip!, {r0, r1, r2, r3}
 1225 0034 03009EE8 		ldm	lr, {r0, r1}
 1226 0038 03008CE8 		stm	ip, {r0, r1}
 1227 003c 723F8DE2 		add	r3, sp, #456
 1228 0040 0F0093E8 		ldm	r3, {r0, r1, r2, r3}
 1229 0044 FEFFFFEB 		bl	set_mux_GPIO
 1230              	.LVL121:
 1231              		.loc 3 124 0
 1232 0048 0030A0E3 		mov	r3, #0
 1233              		.loc 3 130 0
 1234 004c 68008DE2 		add	r0, sp, #104
 1235              		.loc 3 124 0
 1236 0050 3130CDE5 		strb	r3, [sp, #49]
 1237              		.loc 3 125 0
 1238 0054 3230CDE5 		strb	r3, [sp, #50]
 1239              		.loc 3 126 0
 1240 0058 34308DE5 		str	r3, [sp, #52]
 1241              		.loc 3 127 0
 1242 005c 3330CDE5 		strb	r3, [sp, #51]
 1243              		.loc 3 130 0
 1244 0060 FEFFFFEB 		bl	VL53L0X_DataInit
 1245              	.LVL122:
 1246              		.loc 3 131 0
 1247 0064 000050E3 		cmp	r0, #0
 1248              	.LVL123:
 1249 0068 0300000A 		beq	.L91
 1250              	.L89:
 1251              		.loc 3 155 0
 1252 006c 3CD08DE2 		add	sp, sp, #60
 1253              		.cfi_remember_state
 1254              		.cfi_def_cfa_offset 20
ARM GAS  /var/folders/3j/4xdnk5197cv_b7cw3n33qk7r0000gn/T//ccxkT2Pi.s 			page 23


 1255              		@ sp needed
 1256 0070 04E09DE4 		ldr	lr, [sp], #4
 1257              		.cfi_restore 14
 1258              		.cfi_def_cfa_offset 16
 1259 0074 10D08DE2 		add	sp, sp, #16
 1260              		.cfi_def_cfa_offset 0
 1261 0078 1EFF2FE1 		bx	lr
 1262              	.L91:
 1263              		.cfi_restore_state
 1264              		.loc 3 132 0
 1265 007c 68008DE2 		add	r0, sp, #104
 1266 0080 FEFFFFEB 		bl	VL53L0X_StaticInit
 1267              	.LVL124:
 1268              		.loc 3 133 0
 1269 0084 000050E3 		cmp	r0, #0
 1270              	.LVL125:
 1271 0088 F7FFFF1A 		bne	.L89
 1272              		.loc 3 134 0
 1273 008c 32208DE2 		add	r2, sp, #50
 1274 0090 31108DE2 		add	r1, sp, #49
 1275 0094 68008DE2 		add	r0, sp, #104
 1276 0098 FEFFFFEB 		bl	VL53L0X_PerformRefCalibration
 1277              	.LVL126:
 1278              		.loc 3 135 0
 1279 009c 000050E3 		cmp	r0, #0
 1280              	.LVL127:
 1281 00a0 F1FFFF1A 		bne	.L89
 1282              		.loc 3 136 0
 1283 00a4 33208DE2 		add	r2, sp, #51
 1284 00a8 34108DE2 		add	r1, sp, #52
 1285 00ac 68008DE2 		add	r0, sp, #104
 1286 00b0 FEFFFFEB 		bl	VL53L0X_PerformRefSpadManagement
 1287              	.LVL128:
 1288              		.loc 3 137 0
 1289 00b4 000050E3 		cmp	r0, #0
 1290              	.LVL129:
 1291 00b8 EBFFFF1A 		bne	.L89
 1292              		.loc 3 138 0
 1293 00bc 0110A0E3 		mov	r1, #1
 1294 00c0 68008DE2 		add	r0, sp, #104
 1295 00c4 FEFFFFEB 		bl	VL53L0X_SetDeviceMode
 1296              	.LVL130:
 1297              		.loc 3 139 0
 1298 00c8 000050E3 		cmp	r0, #0
 1299              	.LVL131:
 1300 00cc E6FFFF1A 		bne	.L89
 1301              		.loc 3 142 0
 1302 00d0 0010A0E1 		mov	r1, r0
 1303 00d4 0120A0E3 		mov	r2, #1
 1304 00d8 68008DE2 		add	r0, sp, #104
 1305 00dc FEFFFFEB 		bl	VL53L0X_SetLimitCheckEnable
 1306              	.LVL132:
 1307              		.loc 3 143 0
 1308 00e0 000050E3 		cmp	r0, #0
 1309              	.LVL133:
 1310 00e4 E0FFFF1A 		bne	.L89
 1311              		.loc 3 145 0
ARM GAS  /var/folders/3j/4xdnk5197cv_b7cw3n33qk7r0000gn/T//ccxkT2Pi.s 			page 24


 1312 00e8 0120A0E3 		mov	r2, #1
 1313 00ec 68008DE2 		add	r0, sp, #104
 1314 00f0 0210A0E1 		mov	r1, r2
 1315 00f4 FEFFFFEB 		bl	VL53L0X_SetLimitCheckEnable
 1316              	.LVL134:
 1317              		.loc 3 146 0
 1318 00f8 000050E3 		cmp	r0, #0
 1319              	.LVL135:
 1320 00fc DAFFFF1A 		bne	.L89
 1321              		.loc 3 147 0
 1322 0100 0129A0E3 		mov	r2, #16384
 1323 0104 0110A0E3 		mov	r1, #1
 1324 0108 68008DE2 		add	r0, sp, #104
 1325 010c FEFFFFEB 		bl	VL53L0X_SetLimitCheckValue
 1326              	.LVL136:
 1327              		.loc 3 148 0
 1328 0110 000050E3 		cmp	r0, #0
 1329              	.LVL137:
 1330 0114 D4FFFF1A 		bne	.L89
 1331              		.loc 3 149 0
 1332 0118 0010A0E1 		mov	r1, r0
 1333 011c 0226A0E3 		mov	r2, #2097152
 1334 0120 68008DE2 		add	r0, sp, #104
 1335 0124 FEFFFFEB 		bl	VL53L0X_SetLimitCheckValue
 1336              	.LVL138:
 1337              		.loc 3 150 0
 1338 0128 000050E3 		cmp	r0, #0
 1339              	.LVL139:
 1340 012c CEFFFF1A 		bne	.L89
 1341              		.loc 3 151 0
 1342 0130 68008DE2 		add	r0, sp, #104
 1343 0134 04109FE5 		ldr	r1, .L92
 1344 0138 FEFFFFEB 		bl	VL53L0X_SetMeasurementTimingBudgetMicroSeconds
 1345              	.LVL140:
 1346 013c CAFFFFEA 		b	.L89
 1347              	.L93:
 1348              		.align	2
 1349              	.L92:
 1350 0140 204E0000 		.word	20000
 1351              		.cfi_endproc
 1352              	.LFE24:
 1353              		.size	individual_sensor, .-individual_sensor
 1354              		.section	.text.setup_sensor_array.isra.1,"ax",%progbits
 1355              		.align	2
 1356              		.syntax unified
 1357              		.arm
 1358              		.fpu softvfp
 1359              		.type	setup_sensor_array.isra.1, %function
 1360              	setup_sensor_array.isra.1:
 1361              	.LFB40:
 1362              		.loc 3 106 0
 1363              		.cfi_startproc
 1364              		@ args = 840, pretend = 16, frame = 0
 1365              		@ frame_needed = 0, uses_anonymous_args = 0
 1366              	.LVL141:
 1367 0000 10D04DE2 		sub	sp, sp, #16
 1368              		.cfi_def_cfa_offset 16
ARM GAS  /var/folders/3j/4xdnk5197cv_b7cw3n33qk7r0000gn/T//ccxkT2Pi.s 			page 25


 1369 0004 30402DE9 		push	{r4, r5, lr}
 1370              		.cfi_def_cfa_offset 28
 1371              		.cfi_offset 4, -28
 1372              		.cfi_offset 5, -24
 1373              		.cfi_offset 14, -20
 1374 0008 6DDF4DE2 		sub	sp, sp, #436
 1375              		.cfi_def_cfa_offset 464
 1376              		.loc 3 109 0
 1377 000c 5E4F8DE2 		add	r4, sp, #376
 1378 0010 04C0A0E1 		mov	ip, r4
 1379              		.loc 3 106 0
 1380 0014 075D8DE2 		add	r5, sp, #448
 1381              		.loc 3 109 0
 1382 0018 4DEE8DE2 		add	lr, sp, #1232
 1383              		.loc 3 106 0
 1384 001c 0F0085E8 		stm	r5, {r0, r1, r2, r3}
 1385              		.loc 3 109 0
 1386 0020 0F00BEE8 		ldmia	lr!, {r0, r1, r2, r3}
 1387 0024 0F00ACE8 		stmia	ip!, {r0, r1, r2, r3}
 1388 0028 0F00BEE8 		ldmia	lr!, {r0, r1, r2, r3}
 1389 002c 0F00ACE8 		stmia	ip!, {r0, r1, r2, r3}
 1390 0030 0F00BEE8 		ldmia	lr!, {r0, r1, r2, r3}
 1391 0034 0F00ACE8 		stmia	ip!, {r0, r1, r2, r3}
 1392 0038 5E2FA0E3 		mov	r2, #376
 1393 003c 03009EE8 		ldm	lr, {r0, r1}
 1394 0040 03008CE8 		stm	ip, {r0, r1}
 1395 0044 1D1E8DE2 		add	r1, sp, #464
 1396 0048 0D00A0E1 		mov	r0, sp
 1397 004c FEFFFFEB 		bl	memcpy
 1398              	.LVL142:
 1399 0050 0F0095E8 		ldm	r5, {r0, r1, r2, r3}
 1400 0054 FEFFFFEB 		bl	individual_sensor
 1401              	.LVL143:
 1402              		.loc 3 110 0
 1403 0058 000050E3 		cmp	r0, #0
 1404              	.LVL144:
 1405 005c 1000001A 		bne	.L95
 1406              		.loc 3 111 0
 1407 0060 04C0A0E1 		mov	ip, r4
 1408 0064 4DEE8DE2 		add	lr, sp, #1232
 1409 0068 0F00BEE8 		ldmia	lr!, {r0, r1, r2, r3}
 1410 006c 0F00ACE8 		stmia	ip!, {r0, r1, r2, r3}
 1411 0070 0F00BEE8 		ldmia	lr!, {r0, r1, r2, r3}
 1412 0074 0F00ACE8 		stmia	ip!, {r0, r1, r2, r3}
 1413 0078 0F00BEE8 		ldmia	lr!, {r0, r1, r2, r3}
 1414 007c 0F00ACE8 		stmia	ip!, {r0, r1, r2, r3}
 1415 0080 5E2FA0E3 		mov	r2, #376
 1416 0084 03009EE8 		ldm	lr, {r0, r1}
 1417 0088 03008CE8 		stm	ip, {r0, r1}
 1418 008c D61F8DE2 		add	r1, sp, #856
 1419 0090 0D00A0E1 		mov	r0, sp
 1420 0094 FEFFFFEB 		bl	memcpy
 1421              	.LVL145:
 1422 0098 D23F8DE2 		add	r3, sp, #840
 1423 009c 0F0093E8 		ldm	r3, {r0, r1, r2, r3}
 1424 00a0 FEFFFFEB 		bl	individual_sensor
 1425              	.LVL146:
ARM GAS  /var/folders/3j/4xdnk5197cv_b7cw3n33qk7r0000gn/T//ccxkT2Pi.s 			page 26


 1426              	.L95:
 1427              		.loc 3 114 0
 1428 00a4 6DDF8DE2 		add	sp, sp, #436
 1429              		.cfi_def_cfa_offset 28
 1430              		@ sp needed
 1431 00a8 3040BDE8 		pop	{r4, r5, lr}
 1432              		.cfi_restore 14
 1433              		.cfi_restore 5
 1434              		.cfi_restore 4
 1435              		.cfi_def_cfa_offset 16
 1436 00ac 10D08DE2 		add	sp, sp, #16
 1437              		.cfi_def_cfa_offset 0
 1438 00b0 1EFF2FE1 		bx	lr
 1439              		.cfi_endproc
 1440              	.LFE40:
 1441              		.size	setup_sensor_array.isra.1, .-setup_sensor_array.isra.1
 1442              		.section	.text.setup_sensors.constprop.3,"ax",%progbits
 1443              		.align	2
 1444              		.syntax unified
 1445              		.arm
 1446              		.fpu softvfp
 1447              		.type	setup_sensors.constprop.3, %function
 1448              	setup_sensors.constprop.3:
 1449              	.LFB42:
 1450              		.loc 3 66 0
 1451              		.cfi_startproc
 1452              		@ args = 3392, pretend = 16, frame = 3392
 1453              		@ frame_needed = 0, uses_anonymous_args = 0
 1454              	.LVL147:
 1455 0000 10D04DE2 		sub	sp, sp, #16
 1456              		.cfi_def_cfa_offset 16
 1457 0004 F0472DE9 		push	{r4, r5, r6, r7, r8, r9, r10, lr}
 1458              		.cfi_def_cfa_offset 48
 1459              		.cfi_offset 4, -48
 1460              		.cfi_offset 5, -44
 1461              		.cfi_offset 6, -40
 1462              		.cfi_offset 7, -36
 1463              		.cfi_offset 8, -32
 1464              		.cfi_offset 9, -28
 1465              		.cfi_offset 10, -24
 1466              		.cfi_offset 14, -20
 1467              	.LBB84:
 1468              	.LBB85:
 1469              		.loc 3 94 0
 1470 0008 0050A0E3 		mov	r5, #0
 1471              	.LBE85:
 1472              	.LBE84:
 1473              		.loc 3 66 0
 1474 000c 41DD4DE2 		sub	sp, sp, #4160
 1475              		.cfi_def_cfa_offset 4208
 1476 0010 38D04DE2 		sub	sp, sp, #56
 1477              		.cfi_def_cfa_offset 4264
 1478              		.loc 3 66 0
 1479 0014 428D8DE2 		add	r8, sp, #4224
 1480 0018 188088E2 		add	r8, r8, #24
 1481 001c 0F0088E8 		stm	r8, {r0, r1, r2, r3}
 1482 0020 352EA0E3 		mov	r2, #848
ARM GAS  /var/folders/3j/4xdnk5197cv_b7cw3n33qk7r0000gn/T//ccxkT2Pi.s 			page 27


 1483 0024 0810A0E1 		mov	r1, r8
 1484 0028 CE0F8DE2 		add	r0, sp, #824
 1485 002c FEFFFFEB 		bl	memcpy
 1486              	.LVL148:
 1487              	.LBB87:
 1488              	.LBB86:
 1489              		.loc 3 93 0
 1490 0030 0510A0E1 		mov	r1, r5
 1491 0034 360E8DE2 		add	r0, sp, #864
 1492 0038 FEFFFFEB 		bl	VL53L0X_SetDeviceAddress
 1493              	.LVL149:
 1494 003c 0040A0E1 		mov	r4, r0
 1495              	.LVL150:
 1496              		.loc 3 97 0
 1497 0040 4E0E8DE2 		add	r0, sp, #1248
 1498 0044 0110A0E3 		mov	r1, #1
 1499 0048 080080E2 		add	r0, r0, #8
 1500              		.loc 3 94 0
 1501 004c 40538DE5 		str	r5, [sp, #832]
 1502              	.LVL151:
 1503              		.loc 3 97 0
 1504 0050 FEFFFFEB 		bl	VL53L0X_SetDeviceAddress
 1505              	.LVL152:
 1506              	.LBE86:
 1507              	.LBE87:
 1508              	.LBB88:
 1509              	.LBB89:
 1510              		.loc 3 94 0
 1511 0054 02A0A0E3 		mov	r10, #2
 1512 0058 4F7D8DE2 		add	r7, sp, #5056
 1513 005c 004084E1 		orr	r4, r4, r0
 1514              	.LVL153:
 1515 0060 287087E2 		add	r7, r7, #40
 1516 0064 1A0D8DE2 		add	r0, sp, #1664
 1517 0068 352EA0E3 		mov	r2, #848
 1518 006c 0710A0E1 		mov	r1, r7
 1519 0070 080080E2 		add	r0, r0, #8
 1520 0074 FEFFFFEB 		bl	memcpy
 1521              	.LVL154:
 1522              		.loc 3 93 0
 1523 0078 0A10A0E1 		mov	r1, r10
 1524 007c 6B0E8DE2 		add	r0, sp, #1712
 1525 0080 FEFFFFEB 		bl	VL53L0X_SetDeviceAddress
 1526              	.LVL155:
 1527 0084 7490AFE6 		sxtb	r9, r4
 1528              	.LVL156:
 1529 0088 0040A0E1 		mov	r4, r0
 1530              	.LVL157:
 1531              		.loc 3 97 0
 1532 008c 830E8DE2 		add	r0, sp, #2096
 1533 0090 0310A0E3 		mov	r1, #3
 1534 0094 080080E2 		add	r0, r0, #8
 1535              		.loc 3 94 0
 1536 0098 90A68DE5 		str	r10, [sp, #1680]
 1537              	.LVL158:
 1538              		.loc 3 97 0
 1539 009c FEFFFFEB 		bl	VL53L0X_SetDeviceAddress
ARM GAS  /var/folders/3j/4xdnk5197cv_b7cw3n33qk7r0000gn/T//ccxkT2Pi.s 			page 28


 1540              	.LVL159:
 1541 00a0 094084E1 		orr	r4, r4, r9
 1542 00a4 176C8DE2 		add	r6, sp, #5888
 1543 00a8 044080E1 		orr	r4, r0, r4
 1544 00ac 386086E2 		add	r6, r6, #56
 1545 00b0 9D0E8DE2 		add	r0, sp, #2512
 1546 00b4 352EA0E3 		mov	r2, #848
 1547 00b8 0610A0E1 		mov	r1, r6
 1548 00bc 080080E2 		add	r0, r0, #8
 1549 00c0 FEFFFFEB 		bl	memcpy
 1550              	.LVL160:
 1551              	.LBE89:
 1552              	.LBE88:
 1553              	.LBB90:
 1554              	.LBB91:
 1555              		.loc 3 93 0
 1556 00c4 0510A0E1 		mov	r1, r5
 1557 00c8 0A0C8DE2 		add	r0, sp, #2560
 1558 00cc FEFFFFEB 		bl	VL53L0X_SetDeviceAddress
 1559              	.LVL161:
 1560 00d0 7490AFE6 		sxtb	r9, r4
 1561 00d4 0040A0E1 		mov	r4, r0
 1562              	.LVL162:
 1563              		.loc 3 97 0
 1564 00d8 2E0D8DE2 		add	r0, sp, #2944
 1565 00dc 0110A0E3 		mov	r1, #1
 1566 00e0 080080E2 		add	r0, r0, #8
 1567              		.loc 3 94 0
 1568 00e4 E0598DE5 		str	r5, [sp, #2528]
 1569              	.LVL163:
 1570              		.loc 3 97 0
 1571 00e8 FEFFFFEB 		bl	VL53L0X_SetDeviceAddress
 1572              	.LVL164:
 1573 00ec 094084E1 		orr	r4, r4, r9
 1574 00f0 6A5D8DE2 		add	r5, sp, #6784
 1575 00f4 044080E1 		orr	r4, r0, r4
 1576 00f8 085085E2 		add	r5, r5, #8
 1577 00fc D20E8DE2 		add	r0, sp, #3360
 1578 0100 352EA0E3 		mov	r2, #848
 1579 0104 0510A0E1 		mov	r1, r5
 1580 0108 080080E2 		add	r0, r0, #8
 1581 010c FEFFFFEB 		bl	memcpy
 1582              	.LVL165:
 1583              	.LBE91:
 1584              	.LBE90:
 1585              	.LBB92:
 1586              	.LBB93:
 1587              		.loc 3 93 0
 1588 0110 0A10A0E1 		mov	r1, r10
 1589 0114 D50E8DE2 		add	r0, sp, #3408
 1590 0118 FEFFFFEB 		bl	VL53L0X_SetDeviceAddress
 1591              	.LVL166:
 1592 011c 7490AFE6 		sxtb	r9, r4
 1593 0120 0040A0E1 		mov	r4, r0
 1594              	.LVL167:
 1595              		.loc 3 97 0
 1596 0124 ED0E8DE2 		add	r0, sp, #3792
ARM GAS  /var/folders/3j/4xdnk5197cv_b7cw3n33qk7r0000gn/T//ccxkT2Pi.s 			page 29


 1597 0128 0310A0E3 		mov	r1, #3
 1598 012c 080080E2 		add	r0, r0, #8
 1599              		.loc 3 94 0
 1600 0130 30AD8DE5 		str	r10, [sp, #3376]
 1601              	.LVL168:
 1602              		.loc 3 97 0
 1603 0134 FEFFFFEB 		bl	VL53L0X_SetDeviceAddress
 1604              	.LVL169:
 1605              	.LBE93:
 1606              	.LBE92:
 1607              		.loc 3 69 0
 1608 0138 094084E1 		orr	r4, r4, r9
 1609 013c 040080E1 		orr	r0, r0, r4
 1610 0140 7000AFE6 		sxtb	r0, r0
 1611              	.LVL170:
 1612              		.loc 3 71 0
 1613 0144 000050E3 		cmp	r0, #0
 1614 0148 6200001A 		bne	.L98
 1615              		.loc 3 74 0
 1616 014c 4EED8DE2 		add	lr, sp, #4992
 1617 0150 28E08EE2 		add	lr, lr, #40
 1618 0154 03CC8DE2 		add	ip, sp, #768
 1619 0158 0F00BEE8 		ldmia	lr!, {r0, r1, r2, r3}
 1620              	.LVL171:
 1621 015c 0F00ACE8 		stmia	ip!, {r0, r1, r2, r3}
 1622 0160 0F00BEE8 		ldmia	lr!, {r0, r1, r2, r3}
 1623 0164 0F00ACE8 		stmia	ip!, {r0, r1, r2, r3}
 1624 0168 0F00BEE8 		ldmia	lr!, {r0, r1, r2, r3}
 1625 016c 0F00ACE8 		stmia	ip!, {r0, r1, r2, r3}
 1626 0170 5E9F8DE2 		add	r9, sp, #376
 1627 0174 03009EE8 		ldm	lr, {r0, r1}
 1628 0178 03008CE8 		stm	ip, {r0, r1}
 1629 017c 121C8DE2 		add	r1, sp, #4608
 1630 0180 622FA0E3 		mov	r2, #392
 1631 0184 201081E2 		add	r1, r1, #32
 1632 0188 0900A0E1 		mov	r0, r9
 1633 018c FEFFFFEB 		bl	memcpy
 1634              	.LVL172:
 1635 0190 421D8DE2 		add	r1, sp, #4224
 1636 0194 5E2FA0E3 		mov	r2, #376
 1637 0198 281081E2 		add	r1, r1, #40
 1638 019c 0D00A0E1 		mov	r0, sp
 1639 01a0 FEFFFFEB 		bl	memcpy
 1640              	.LVL173:
 1641 01a4 0F0098E8 		ldm	r8, {r0, r1, r2, r3}
 1642 01a8 FEFFFFEB 		bl	setup_sensor_array.isra.1
 1643              	.LVL174:
 1644 01ac 5BED8DE2 		add	lr, sp, #5824
 1645 01b0 38E08EE2 		add	lr, lr, #56
 1646 01b4 03CC8DE2 		add	ip, sp, #768
 1647 01b8 0040A0E1 		mov	r4, r0
 1648 01bc 0F00BEE8 		ldmia	lr!, {r0, r1, r2, r3}
 1649 01c0 0F00ACE8 		stmia	ip!, {r0, r1, r2, r3}
 1650 01c4 0F00BEE8 		ldmia	lr!, {r0, r1, r2, r3}
 1651 01c8 0F00ACE8 		stmia	ip!, {r0, r1, r2, r3}
 1652 01cc 0F00BEE8 		ldmia	lr!, {r0, r1, r2, r3}
 1653 01d0 0F00ACE8 		stmia	ip!, {r0, r1, r2, r3}
ARM GAS  /var/folders/3j/4xdnk5197cv_b7cw3n33qk7r0000gn/T//ccxkT2Pi.s 			page 30


 1654 01d4 03009EE8 		ldm	lr, {r0, r1}
 1655 01d8 03008CE8 		stm	ip, {r0, r1}
 1656 01dc 551D8DE2 		add	r1, sp, #5440
 1657 01e0 622FA0E3 		mov	r2, #392
 1658 01e4 301081E2 		add	r1, r1, #48
 1659 01e8 0900A0E1 		mov	r0, r9
 1660 01ec FEFFFFEB 		bl	memcpy
 1661              	.LVL175:
 1662 01f0 4F1D8DE2 		add	r1, sp, #5056
 1663 01f4 5E2FA0E3 		mov	r2, #376
 1664 01f8 381081E2 		add	r1, r1, #56
 1665 01fc 0D00A0E1 		mov	r0, sp
 1666 0200 FEFFFFEB 		bl	memcpy
 1667              	.LVL176:
 1668 0204 0F0097E8 		ldm	r7, {r0, r1, r2, r3}
 1669 0208 FEFFFFEB 		bl	setup_sensor_array.isra.1
 1670              	.LVL177:
 1671 020c 69ED8DE2 		add	lr, sp, #6720
 1672 0210 08E08EE2 		add	lr, lr, #8
 1673 0214 03CC8DE2 		add	ip, sp, #768
 1674 0218 004084E1 		orr	r4, r4, r0
 1675 021c 0F00BEE8 		ldmia	lr!, {r0, r1, r2, r3}
 1676 0220 0F00ACE8 		stmia	ip!, {r0, r1, r2, r3}
 1677 0224 0F00BEE8 		ldmia	lr!, {r0, r1, r2, r3}
 1678 0228 0F00ACE8 		stmia	ip!, {r0, r1, r2, r3}
 1679 022c 0F00BEE8 		ldmia	lr!, {r0, r1, r2, r3}
 1680 0230 0F00ACE8 		stmia	ip!, {r0, r1, r2, r3}
 1681 0234 622FA0E3 		mov	r2, #392
 1682 0238 03009EE8 		ldm	lr, {r0, r1}
 1683 023c 03008CE8 		stm	ip, {r0, r1}
 1684 0240 631D8DE2 		add	r1, sp, #6336
 1685 0244 0900A0E1 		mov	r0, r9
 1686 0248 FEFFFFEB 		bl	memcpy
 1687              	.LVL178:
 1688 024c 5D1D8DE2 		add	r1, sp, #5952
 1689 0250 5E2FA0E3 		mov	r2, #376
 1690 0254 081081E2 		add	r1, r1, #8
 1691 0258 0D00A0E1 		mov	r0, sp
 1692 025c FEFFFFEB 		bl	memcpy
 1693              	.LVL179:
 1694 0260 0F0096E8 		ldm	r6, {r0, r1, r2, r3}
 1695 0264 FEFFFFEB 		bl	setup_sensor_array.isra.1
 1696              	.LVL180:
 1697 0268 76ED8DE2 		add	lr, sp, #7552
 1698 026c 7440AFE6 		sxtb	r4, r4
 1699 0270 18E08EE2 		add	lr, lr, #24
 1700 0274 03CC8DE2 		add	ip, sp, #768
 1701 0278 004084E1 		orr	r4, r4, r0
 1702 027c 0F00BEE8 		ldmia	lr!, {r0, r1, r2, r3}
 1703 0280 0F00ACE8 		stmia	ip!, {r0, r1, r2, r3}
 1704 0284 0F00BEE8 		ldmia	lr!, {r0, r1, r2, r3}
 1705 0288 0F00ACE8 		stmia	ip!, {r0, r1, r2, r3}
 1706 028c 0F00BEE8 		ldmia	lr!, {r0, r1, r2, r3}
 1707 0290 0F00ACE8 		stmia	ip!, {r0, r1, r2, r3}
 1708 0294 03009EE8 		ldm	lr, {r0, r1}
 1709 0298 03008CE8 		stm	ip, {r0, r1}
 1710 029c 071B8DE2 		add	r1, sp, #7168
ARM GAS  /var/folders/3j/4xdnk5197cv_b7cw3n33qk7r0000gn/T//ccxkT2Pi.s 			page 31


 1711 02a0 622FA0E3 		mov	r2, #392
 1712 02a4 101081E2 		add	r1, r1, #16
 1713 02a8 0900A0E1 		mov	r0, r9
 1714 02ac FEFFFFEB 		bl	memcpy
 1715              	.LVL181:
 1716 02b0 6A1D8DE2 		add	r1, sp, #6784
 1717 02b4 5E2FA0E3 		mov	r2, #376
 1718 02b8 181081E2 		add	r1, r1, #24
 1719 02bc 0D00A0E1 		mov	r0, sp
 1720 02c0 FEFFFFEB 		bl	memcpy
 1721              	.LVL182:
 1722 02c4 0F0095E8 		ldm	r5, {r0, r1, r2, r3}
 1723 02c8 FEFFFFEB 		bl	setup_sensor_array.isra.1
 1724              	.LVL183:
 1725 02cc 7440AFE6 		sxtb	r4, r4
 1726 02d0 000084E1 		orr	r0, r4, r0
 1727 02d4 7000AFE6 		sxtb	r0, r0
 1728              	.LVL184:
 1729              	.L98:
 1730              		.loc 3 78 0
 1731 02d8 41DD8DE2 		add	sp, sp, #4160
 1732 02dc 38D08DE2 		add	sp, sp, #56
 1733              		.cfi_def_cfa_offset 48
 1734              		@ sp needed
 1735 02e0 F047BDE8 		pop	{r4, r5, r6, r7, r8, r9, r10, lr}
 1736              		.cfi_restore 14
 1737              		.cfi_restore 10
 1738              		.cfi_restore 9
 1739              		.cfi_restore 8
 1740              		.cfi_restore 7
 1741              		.cfi_restore 6
 1742              		.cfi_restore 5
 1743              		.cfi_restore 4
 1744              		.cfi_def_cfa_offset 16
 1745 02e4 10D08DE2 		add	sp, sp, #16
 1746              		.cfi_def_cfa_offset 0
 1747 02e8 1EFF2FE1 		bx	lr
 1748              		.cfi_endproc
 1749              	.LFE42:
 1750              		.size	setup_sensors.constprop.3, .-setup_sensors.constprop.3
 1751              		.section	.text.update_refresh_rate,"ax",%progbits
 1752              		.align	2
 1753              		.global	update_refresh_rate
 1754              		.syntax unified
 1755              		.arm
 1756              		.fpu softvfp
 1757              		.type	update_refresh_rate, %function
 1758              	update_refresh_rate:
 1759              	.LFB29:
 1760              		.loc 3 202 0
 1761              		.cfi_startproc
 1762              		@ args = 0, pretend = 0, frame = 0
 1763              		@ frame_needed = 0, uses_anonymous_args = 0
 1764              		@ link register save eliminated.
 1765              	.LVL185:
 1766              		.loc 3 203 0
 1767 0000 38309FE5 		ldr	r3, .L105
ARM GAS  /var/folders/3j/4xdnk5197cv_b7cw3n33qk7r0000gn/T//ccxkT2Pi.s 			page 32


 1768 0004 030050E1 		cmp	r0, r3
 1769 0008 0800008A 		bhi	.L102
 1770              	.LVL186:
 1771              	.LBB96:
 1772              	.LBB97:
 1773              		.loc 3 205 0
 1774 000c 960F50E3 		cmp	r0, #600
 1775 0010 0400008A 		bhi	.L103
 1776              		.loc 3 207 0
 1777 0014 28309FE5 		ldr	r3, .L105+4
 1778 0018 030050E1 		cmp	r0, r3
 1779 001c 0500008A 		bhi	.L104
 1780              		.loc 3 209 0
 1781 0020 20009FE5 		ldr	r0, .L105+8
 1782              	.LVL187:
 1783 0024 1EFF2FE1 		bx	lr
 1784              	.LVL188:
 1785              	.L103:
 1786              		.loc 3 206 0
 1787 0028 FD05A0E3 		mov	r0, #1061158912
 1788              	.LVL189:
 1789 002c 1EFF2FE1 		bx	lr
 1790              	.LVL190:
 1791              	.L102:
 1792              	.LBE97:
 1793              	.LBE96:
 1794              		.loc 3 204 0
 1795 0030 FE05A0E3 		mov	r0, #1065353216
 1796              	.LVL191:
 1797 0034 1EFF2FE1 		bx	lr
 1798              	.LVL192:
 1799              	.L104:
 1800              	.LBB99:
 1801              	.LBB98:
 1802              		.loc 3 208 0
 1803 0038 3F04A0E3 		mov	r0, #1056964608
 1804              	.LVL193:
 1805              	.LBE98:
 1806              	.LBE99:
 1807              		.loc 3 210 0
 1808 003c 1EFF2FE1 		bx	lr
 1809              	.L106:
 1810              		.align	2
 1811              	.L105:
 1812 0040 92030000 		.word	914
 1813 0044 C9010000 		.word	457
 1814 0048 CDCC4C3E 		.word	1045220557
 1815              		.cfi_endproc
 1816              	.LFE29:
 1817              		.size	update_refresh_rate, .-update_refresh_rate
 1818              		.section	.text.blink,"ax",%progbits
 1819              		.align	2
 1820              		.global	blink
 1821              		.syntax unified
 1822              		.arm
 1823              		.fpu softvfp
 1824              		.type	blink, %function
ARM GAS  /var/folders/3j/4xdnk5197cv_b7cw3n33qk7r0000gn/T//ccxkT2Pi.s 			page 33


 1825              	blink:
 1826              	.LFB31:
 1827              		.file 4 "src/error_check.h"
 1828              		.loc 4 16 0
 1829              		.cfi_startproc
 1830              		@ args = 0, pretend = 0, frame = 0
 1831              		@ frame_needed = 0, uses_anonymous_args = 0
 1832              	.LVL194:
 1833 0000 F0472DE9 		push	{r4, r5, r6, r7, r8, r9, r10, lr}
 1834              		.cfi_def_cfa_offset 32
 1835              		.cfi_offset 4, -32
 1836              		.cfi_offset 5, -28
 1837              		.cfi_offset 6, -24
 1838              		.cfi_offset 7, -20
 1839              		.cfi_offset 8, -16
 1840              		.cfi_offset 9, -12
 1841              		.cfi_offset 10, -8
 1842              		.cfi_offset 14, -4
 1843              	.LBB100:
 1844              		.loc 4 17 0
 1845 0004 007050E2 		subs	r7, r0, #0
 1846 0008 2D0000DA 		ble	.L108
 1847 000c 0280A0E1 		mov	r8, r2
 1848 0010 0150A0E1 		mov	r5, r1
 1849 0014 0040A0E3 		mov	r4, #0
 1850              		.loc 4 19 0
 1851 0018 B0909FE5 		ldr	r9, .L124
 1852              		.loc 4 22 0
 1853 001c B0609FE5 		ldr	r6, .L124+4
 1854 0020 0A0000EA 		b	.L112
 1855              	.LVL195:
 1856              	.L109:
 1857              		.loc 4 20 0
 1858 0024 000058E3 		cmp	r8, #0
 1859 0028 1000001A 		bne	.L122
 1860              	.L110:
 1861              		.loc 4 22 0
 1862 002c 0600A0E1 		mov	r0, r6
 1863 0030 FEFFFFEB 		bl	halPolledDelay
 1864              	.LVL196:
 1865              		.loc 4 25 0
 1866 0034 000055E3 		cmp	r5, #0
 1867              		.loc 4 17 0
 1868 0038 014084E2 		add	r4, r4, #1
 1869              	.LVL197:
 1870              		.loc 4 25 0
 1871 003c 1800001A 		bne	.L123
 1872              	.LVL198:
 1873              	.L111:
 1874              		.loc 4 27 0 discriminator 2
 1875 0040 0600A0E1 		mov	r0, r6
 1876 0044 FEFFFFEB 		bl	halPolledDelay
 1877              	.LVL199:
 1878              		.loc 4 17 0 discriminator 2
 1879 0048 040057E1 		cmp	r7, r4
 1880 004c 1C00000A 		beq	.L108
 1881              	.LVL200:
ARM GAS  /var/folders/3j/4xdnk5197cv_b7cw3n33qk7r0000gn/T//ccxkT2Pi.s 			page 34


 1882              	.L112:
 1883              		.loc 4 18 0
 1884 0050 000055E3 		cmp	r5, #0
 1885 0054 F2FFFF0A 		beq	.L109
 1886              		.loc 4 19 0
 1887 0058 001099E5 		ldr	r1, [r9]
 1888 005c 6C009FE5 		ldr	r0, .L124
 1889 0060 011881E3 		orr	r1, r1, #65536
 1890 0064 FEFFFFEB 		bl	_pal_lld_writeport
 1891              	.LVL201:
 1892              		.loc 4 20 0
 1893 0068 000058E3 		cmp	r8, #0
 1894 006c EEFFFF0A 		beq	.L110
 1895              	.L122:
 1896              		.loc 4 21 0
 1897 0070 001099E5 		ldr	r1, [r9]
 1898 0074 54009FE5 		ldr	r0, .L124
 1899 0078 011A81E3 		orr	r1, r1, #4096
 1900 007c FEFFFFEB 		bl	_pal_lld_writeport
 1901              	.LVL202:
 1902              		.loc 4 22 0
 1903 0080 0600A0E1 		mov	r0, r6
 1904 0084 FEFFFFEB 		bl	halPolledDelay
 1905              	.LVL203:
 1906              		.loc 4 24 0
 1907 0088 001099E5 		ldr	r1, [r9]
 1908 008c 3C009FE5 		ldr	r0, .L124
 1909 0090 011AC1E3 		bic	r1, r1, #4096
 1910 0094 FEFFFFEB 		bl	_pal_lld_writeport
 1911              	.LVL204:
 1912              		.loc 4 25 0
 1913 0098 000055E3 		cmp	r5, #0
 1914              		.loc 4 17 0
 1915 009c 014084E2 		add	r4, r4, #1
 1916              	.LVL205:
 1917              		.loc 4 25 0
 1918 00a0 E6FFFF0A 		beq	.L111
 1919              	.LVL206:
 1920              	.L123:
 1921              		.loc 4 26 0
 1922 00a4 001099E5 		ldr	r1, [r9]
 1923 00a8 20009FE5 		ldr	r0, .L124
 1924 00ac 0118C1E3 		bic	r1, r1, #65536
 1925 00b0 FEFFFFEB 		bl	_pal_lld_writeport
 1926              	.LVL207:
 1927              		.loc 4 27 0
 1928 00b4 0600A0E1 		mov	r0, r6
 1929 00b8 FEFFFFEB 		bl	halPolledDelay
 1930              	.LVL208:
 1931              		.loc 4 17 0
 1932 00bc 040057E1 		cmp	r7, r4
 1933 00c0 E2FFFF1A 		bne	.L112
 1934              	.LVL209:
 1935              	.L108:
 1936              	.LBE100:
 1937              		.loc 4 31 0
 1938 00c4 F047BDE8 		pop	{r4, r5, r6, r7, r8, r9, r10, lr}
ARM GAS  /var/folders/3j/4xdnk5197cv_b7cw3n33qk7r0000gn/T//ccxkT2Pi.s 			page 35


 1939              		.cfi_restore 14
 1940              		.cfi_restore 10
 1941              		.cfi_restore 9
 1942              		.cfi_restore 8
 1943              		.cfi_restore 7
 1944              		.cfi_restore 6
 1945              		.cfi_restore 5
 1946              		.cfi_restore 4
 1947              		.cfi_def_cfa_offset 0
 1948              	.LVL210:
 1949              		.loc 4 29 0
 1950 00c8 08009FE5 		ldr	r0, .L124+8
 1951 00cc FEFFFFEA 		b	halPolledDelay
 1952              	.LVL211:
 1953              	.L125:
 1954              		.align	2
 1955              	.L124:
 1956 00d0 00000000 		.word	IOPORT0
 1957 00d4 20A10700 		.word	500000
 1958 00d8 00350C00 		.word	800000
 1959              		.cfi_endproc
 1960              	.LFE31:
 1961              		.size	blink, .-blink
 1962              		.section	.text.write_to_blink,"ax",%progbits
 1963              		.align	2
 1964              		.global	write_to_blink
 1965              		.syntax unified
 1966              		.arm
 1967              		.fpu softvfp
 1968              		.type	write_to_blink, %function
 1969              	write_to_blink:
 1970              	.LFB30:
 1971              		.loc 4 5 0
 1972              		.cfi_startproc
 1973              		@ args = 0, pretend = 0, frame = 0
 1974              		@ frame_needed = 0, uses_anonymous_args = 0
 1975              	.LVL212:
 1976 0000 70402DE9 		push	{r4, r5, r6, lr}
 1977              		.cfi_def_cfa_offset 16
 1978              		.cfi_offset 4, -16
 1979              		.cfi_offset 5, -12
 1980              		.cfi_offset 6, -8
 1981              		.cfi_offset 14, -4
 1982              		.loc 4 5 0
 1983 0004 0050A0E1 		mov	r5, r0
 1984              	.LBB101:
 1985              		.loc 4 6 0
 1986 0008 0040A0E3 		mov	r4, #0
 1987              	.LVL213:
 1988              	.L129:
 1989              		.loc 4 7 0
 1990 000c 3514A0E1 		lsr	r1, r5, r4
 1991 0010 011011E2 		ands	r1, r1, #1
 1992              	.LBB102:
 1993              		.loc 4 8 0
 1994 0014 0110A013 		movne	r1, #1
 1995              	.LBE102:
ARM GAS  /var/folders/3j/4xdnk5197cv_b7cw3n33qk7r0000gn/T//ccxkT2Pi.s 			page 36


 1996              	.LBB103:
 1997              		.loc 4 10 0
 1998 0018 0120A003 		moveq	r2, #1
 1999              	.LBE103:
 2000              	.LBB104:
 2001              		.loc 4 8 0
 2002 001c 0020A013 		movne	r2, #0
 2003 0020 0100A011 		movne	r0, r1
 2004              	.LBE104:
 2005              	.LBB105:
 2006              		.loc 4 10 0
 2007 0024 0200A001 		moveq	r0, r2
 2008              	.LBE105:
 2009              		.loc 4 6 0
 2010 0028 014084E2 		add	r4, r4, #1
 2011              	.LVL214:
 2012              	.LBB106:
 2013              		.loc 4 10 0
 2014 002c FEFFFFEB 		bl	blink
 2015              	.LVL215:
 2016              	.LBE106:
 2017              		.loc 4 6 0
 2018 0030 200054E3 		cmp	r4, #32
 2019 0034 F4FFFF1A 		bne	.L129
 2020 0038 7080BDE8 		pop	{r4, r5, r6, pc}
 2021              	.LBE101:
 2022              		.cfi_endproc
 2023              	.LFE30:
 2024              		.size	write_to_blink, .-write_to_blink
 2025              		.section	.text.check_error_vl53,"ax",%progbits
 2026              		.align	2
 2027              		.global	check_error_vl53
 2028              		.syntax unified
 2029              		.arm
 2030              		.fpu softvfp
 2031              		.type	check_error_vl53, %function
 2032              	check_error_vl53:
 2033              	.LFB32:
 2034              		.loc 4 34 0
 2035              		.cfi_startproc
 2036              		@ args = 0, pretend = 0, frame = 0
 2037              		@ frame_needed = 0, uses_anonymous_args = 0
 2038              	.LVL216:
 2039              		.loc 4 35 0
 2040 0000 630080E2 		add	r0, r0, #99
 2041              	.LVL217:
 2042              		.loc 4 34 0
 2043 0004 10402DE9 		push	{r4, lr}
 2044              		.cfi_def_cfa_offset 8
 2045              		.cfi_offset 4, -8
 2046              		.cfi_offset 14, -4
 2047              		.loc 4 35 0
 2048 0008 630050E3 		cmp	r0, #99
 2049 000c 00F19F97 		ldrls	pc, [pc, r0, asl #2]
 2050 0010 CB0000EA 		b	.L134
 2051              	.L136:
 2052 0014 E4020000 		.word	.L135
ARM GAS  /var/folders/3j/4xdnk5197cv_b7cw3n33qk7r0000gn/T//ccxkT2Pi.s 			page 37


 2053 0018 44030000 		.word	.L134
 2054 001c 44030000 		.word	.L134
 2055 0020 44030000 		.word	.L134
 2056 0024 44030000 		.word	.L134
 2057 0028 44030000 		.word	.L134
 2058 002c 44030000 		.word	.L134
 2059 0030 44030000 		.word	.L134
 2060 0034 44030000 		.word	.L134
 2061 0038 44030000 		.word	.L134
 2062 003c 44030000 		.word	.L134
 2063 0040 44030000 		.word	.L134
 2064 0044 44030000 		.word	.L134
 2065 0048 44030000 		.word	.L134
 2066 004c 44030000 		.word	.L134
 2067 0050 44030000 		.word	.L134
 2068 0054 44030000 		.word	.L134
 2069 0058 44030000 		.word	.L134
 2070 005c 44030000 		.word	.L134
 2071 0060 44030000 		.word	.L134
 2072 0064 44030000 		.word	.L134
 2073 0068 44030000 		.word	.L134
 2074 006c 44030000 		.word	.L134
 2075 0070 44030000 		.word	.L134
 2076 0074 44030000 		.word	.L134
 2077 0078 44030000 		.word	.L134
 2078 007c 44030000 		.word	.L134
 2079 0080 44030000 		.word	.L134
 2080 0084 44030000 		.word	.L134
 2081 0088 44030000 		.word	.L134
 2082 008c 44030000 		.word	.L134
 2083 0090 44030000 		.word	.L134
 2084 0094 44030000 		.word	.L134
 2085 0098 44030000 		.word	.L134
 2086 009c 44030000 		.word	.L134
 2087 00a0 44030000 		.word	.L134
 2088 00a4 44030000 		.word	.L134
 2089 00a8 44030000 		.word	.L134
 2090 00ac 44030000 		.word	.L134
 2091 00b0 44030000 		.word	.L134
 2092 00b4 44030000 		.word	.L134
 2093 00b8 44030000 		.word	.L134
 2094 00bc 44030000 		.word	.L134
 2095 00c0 44030000 		.word	.L134
 2096 00c4 44030000 		.word	.L134
 2097 00c8 44030000 		.word	.L134
 2098 00cc 44030000 		.word	.L134
 2099 00d0 44030000 		.word	.L134
 2100 00d4 44030000 		.word	.L134
 2101 00d8 04030000 		.word	.L137
 2102 00dc 44030000 		.word	.L134
 2103 00e0 44030000 		.word	.L134
 2104 00e4 44030000 		.word	.L134
 2105 00e8 44030000 		.word	.L134
 2106 00ec 44030000 		.word	.L134
 2107 00f0 44030000 		.word	.L134
 2108 00f4 44030000 		.word	.L134
 2109 00f8 44030000 		.word	.L134
ARM GAS  /var/folders/3j/4xdnk5197cv_b7cw3n33qk7r0000gn/T//ccxkT2Pi.s 			page 38


 2110 00fc 44030000 		.word	.L134
 2111 0100 24030000 		.word	.L138
 2112 0104 44030000 		.word	.L134
 2113 0108 44030000 		.word	.L134
 2114 010c 44030000 		.word	.L134
 2115 0110 44030000 		.word	.L134
 2116 0114 44030000 		.word	.L134
 2117 0118 44030000 		.word	.L134
 2118 011c 44030000 		.word	.L134
 2119 0120 44030000 		.word	.L134
 2120 0124 44030000 		.word	.L134
 2121 0128 4C020000 		.word	.L139
 2122 012c 44030000 		.word	.L134
 2123 0130 44030000 		.word	.L134
 2124 0134 44030000 		.word	.L134
 2125 0138 44030000 		.word	.L134
 2126 013c 44030000 		.word	.L134
 2127 0140 44030000 		.word	.L134
 2128 0144 44030000 		.word	.L134
 2129 0148 44030000 		.word	.L134
 2130 014c 44030000 		.word	.L134
 2131 0150 C8010000 		.word	.L140
 2132 0154 44030000 		.word	.L134
 2133 0158 44030000 		.word	.L134
 2134 015c 44030000 		.word	.L134
 2135 0160 44030000 		.word	.L134
 2136 0164 44030000 		.word	.L134
 2137 0168 44030000 		.word	.L134
 2138 016c 44030000 		.word	.L134
 2139 0170 EC010000 		.word	.L141
 2140 0174 A4010000 		.word	.L142
 2141 0178 24020000 		.word	.L143
 2142 017c 38020000 		.word	.L144
 2143 0180 D8010000 		.word	.L158
 2144 0184 FC010000 		.word	.L156
 2145 0188 B4010000 		.word	.L155
 2146 018c 10020000 		.word	.L148
 2147 0190 80020000 		.word	.L149
 2148 0194 94020000 		.word	.L150
 2149 0198 A8020000 		.word	.L151
 2150 019c BC020000 		.word	.L152
 2151 01a0 D0020000 		.word	.L153
 2152              	.L142:
 2153              		.loc 4 70 0
 2154 01a4 0120A0E3 		mov	r2, #1
 2155 01a8 0010A0E3 		mov	r1, #0
 2156 01ac 0200A0E1 		mov	r0, r2
 2157              	.L159:
 2158              		.loc 4 104 0
 2159 01b0 FEFFFFEB 		bl	blink
 2160              	.LVL218:
 2161              	.L155:
 2162              		.loc 4 113 0
 2163 01b4 1040BDE8 		pop	{r4, lr}
 2164              		.cfi_remember_state
 2165              		.cfi_restore 14
 2166              		.cfi_restore 4
ARM GAS  /var/folders/3j/4xdnk5197cv_b7cw3n33qk7r0000gn/T//ccxkT2Pi.s 			page 39


 2167              		.cfi_def_cfa_offset 0
 2168              		.loc 4 105 0
 2169 01b8 0120A0E3 		mov	r2, #1
 2170 01bc 0210A0E1 		mov	r1, r2
 2171 01c0 0200A0E1 		mov	r0, r2
 2172 01c4 FEFFFFEA 		b	blink
 2173              	.LVL219:
 2174              	.L140:
 2175              		.cfi_restore_state
 2176              		.loc 4 78 0
 2177 01c8 0120A0E3 		mov	r2, #1
 2178 01cc 0010A0E3 		mov	r1, #0
 2179 01d0 0300A0E3 		mov	r0, #3
 2180 01d4 FEFFFFEB 		bl	blink
 2181              	.LVL220:
 2182              	.L158:
 2183              		.loc 4 113 0
 2184 01d8 1040BDE8 		pop	{r4, lr}
 2185              		.cfi_remember_state
 2186              		.cfi_restore 14
 2187              		.cfi_restore 4
 2188              		.cfi_def_cfa_offset 0
 2189              		.loc 4 79 0
 2190 01dc 0120A0E3 		mov	r2, #1
 2191 01e0 0300A0E3 		mov	r0, #3
 2192 01e4 0210A0E1 		mov	r1, r2
 2193 01e8 FEFFFFEA 		b	blink
 2194              	.LVL221:
 2195              	.L141:
 2196              		.cfi_restore_state
 2197              		.loc 4 74 0
 2198 01ec 0120A0E3 		mov	r2, #1
 2199 01f0 0010A0E3 		mov	r1, #0
 2200 01f4 0200A0E3 		mov	r0, #2
 2201 01f8 FEFFFFEB 		bl	blink
 2202              	.LVL222:
 2203              	.L156:
 2204              		.loc 4 113 0
 2205 01fc 1040BDE8 		pop	{r4, lr}
 2206              		.cfi_remember_state
 2207              		.cfi_restore 14
 2208              		.cfi_restore 4
 2209              		.cfi_def_cfa_offset 0
 2210              		.loc 4 75 0
 2211 0200 0120A0E3 		mov	r2, #1
 2212 0204 0200A0E3 		mov	r0, #2
 2213 0208 0210A0E1 		mov	r1, r2
 2214 020c FEFFFFEA 		b	blink
 2215              	.LVL223:
 2216              	.L148:
 2217              		.cfi_restore_state
 2218              		.loc 4 52 0
 2219 0210 0120A0E3 		mov	r2, #1
 2220              		.loc 4 113 0
 2221 0214 1040BDE8 		pop	{r4, lr}
 2222              		.cfi_remember_state
 2223              		.cfi_restore 14
ARM GAS  /var/folders/3j/4xdnk5197cv_b7cw3n33qk7r0000gn/T//ccxkT2Pi.s 			page 40


 2224              		.cfi_restore 4
 2225              		.cfi_def_cfa_offset 0
 2226              		.loc 4 52 0
 2227 0218 0010A0E3 		mov	r1, #0
 2228 021c 0500A0E3 		mov	r0, #5
 2229 0220 FEFFFFEA 		b	blink
 2230              	.LVL224:
 2231              	.L143:
 2232              		.cfi_restore_state
 2233              		.loc 4 67 0
 2234 0224 0120A0E3 		mov	r2, #1
 2235              		.loc 4 113 0
 2236 0228 1040BDE8 		pop	{r4, lr}
 2237              		.cfi_remember_state
 2238              		.cfi_restore 14
 2239              		.cfi_restore 4
 2240              		.cfi_def_cfa_offset 0
 2241              		.loc 4 67 0
 2242 022c 0500A0E3 		mov	r0, #5
 2243 0230 0210A0E1 		mov	r1, r2
 2244 0234 FEFFFFEA 		b	blink
 2245              	.LVL225:
 2246              	.L144:
 2247              		.cfi_restore_state
 2248              		.loc 4 64 0
 2249 0238 0120A0E3 		mov	r2, #1
 2250              		.loc 4 113 0
 2251 023c 1040BDE8 		pop	{r4, lr}
 2252              		.cfi_remember_state
 2253              		.cfi_restore 14
 2254              		.cfi_restore 4
 2255              		.cfi_def_cfa_offset 0
 2256              		.loc 4 64 0
 2257 0240 0400A0E3 		mov	r0, #4
 2258 0244 0210A0E1 		mov	r1, r2
 2259 0248 FEFFFFEA 		b	blink
 2260              	.LVL226:
 2261              	.L139:
 2262              		.cfi_restore_state
 2263              		.loc 4 82 0
 2264 024c 0120A0E3 		mov	r2, #1
 2265 0250 0210A0E1 		mov	r1, r2
 2266 0254 0200A0E1 		mov	r0, r2
 2267 0258 FEFFFFEB 		bl	blink
 2268              	.LVL227:
 2269              		.loc 4 83 0
 2270 025c 0120A0E3 		mov	r2, #1
 2271 0260 0010A0E3 		mov	r1, #0
 2272 0264 0200A0E1 		mov	r0, r2
 2273              	.L157:
 2274              		.loc 4 98 0
 2275 0268 FEFFFFEB 		bl	blink
 2276              	.LVL228:
 2277              		.loc 4 113 0
 2278 026c 1040BDE8 		pop	{r4, lr}
 2279              		.cfi_remember_state
 2280              		.cfi_restore 14
ARM GAS  /var/folders/3j/4xdnk5197cv_b7cw3n33qk7r0000gn/T//ccxkT2Pi.s 			page 41


 2281              		.cfi_restore 4
 2282              		.cfi_def_cfa_offset 0
 2283              		.loc 4 99 0
 2284 0270 0110A0E3 		mov	r1, #1
 2285 0274 0020A0E3 		mov	r2, #0
 2286 0278 0100A0E1 		mov	r0, r1
 2287 027c FEFFFFEA 		b	blink
 2288              	.LVL229:
 2289              	.L149:
 2290              		.cfi_restore_state
 2291              		.loc 4 49 0
 2292 0280 0120A0E3 		mov	r2, #1
 2293              		.loc 4 113 0
 2294 0284 1040BDE8 		pop	{r4, lr}
 2295              		.cfi_remember_state
 2296              		.cfi_restore 14
 2297              		.cfi_restore 4
 2298              		.cfi_def_cfa_offset 0
 2299              		.loc 4 49 0
 2300 0288 0010A0E3 		mov	r1, #0
 2301 028c 0400A0E3 		mov	r0, #4
 2302 0290 FEFFFFEA 		b	blink
 2303              	.LVL230:
 2304              	.L150:
 2305              		.cfi_restore_state
 2306              		.loc 4 46 0
 2307 0294 0120A0E3 		mov	r2, #1
 2308              		.loc 4 113 0
 2309 0298 1040BDE8 		pop	{r4, lr}
 2310              		.cfi_remember_state
 2311              		.cfi_restore 14
 2312              		.cfi_restore 4
 2313              		.cfi_def_cfa_offset 0
 2314              		.loc 4 46 0
 2315 029c 0010A0E3 		mov	r1, #0
 2316 02a0 0300A0E3 		mov	r0, #3
 2317 02a4 FEFFFFEA 		b	blink
 2318              	.LVL231:
 2319              	.L151:
 2320              		.cfi_restore_state
 2321              		.loc 4 43 0
 2322 02a8 0120A0E3 		mov	r2, #1
 2323              		.loc 4 113 0
 2324 02ac 1040BDE8 		pop	{r4, lr}
 2325              		.cfi_remember_state
 2326              		.cfi_restore 14
 2327              		.cfi_restore 4
 2328              		.cfi_def_cfa_offset 0
 2329              		.loc 4 43 0
 2330 02b0 0010A0E3 		mov	r1, #0
 2331 02b4 0200A0E3 		mov	r0, #2
 2332 02b8 FEFFFFEA 		b	blink
 2333              	.LVL232:
 2334              	.L152:
 2335              		.cfi_restore_state
 2336              		.loc 4 40 0
 2337 02bc 0120A0E3 		mov	r2, #1
ARM GAS  /var/folders/3j/4xdnk5197cv_b7cw3n33qk7r0000gn/T//ccxkT2Pi.s 			page 42


 2338              		.loc 4 113 0
 2339 02c0 1040BDE8 		pop	{r4, lr}
 2340              		.cfi_remember_state
 2341              		.cfi_restore 14
 2342              		.cfi_restore 4
 2343              		.cfi_def_cfa_offset 0
 2344              		.loc 4 40 0
 2345 02c4 0010A0E3 		mov	r1, #0
 2346 02c8 0200A0E1 		mov	r0, r2
 2347 02cc FEFFFFEA 		b	blink
 2348              	.LVL233:
 2349              	.L153:
 2350              		.cfi_restore_state
 2351              		.loc 4 37 0
 2352 02d0 0020A0E3 		mov	r2, #0
 2353              		.loc 4 113 0
 2354 02d4 1040BDE8 		pop	{r4, lr}
 2355              		.cfi_remember_state
 2356              		.cfi_restore 14
 2357              		.cfi_restore 4
 2358              		.cfi_def_cfa_offset 0
 2359              		.loc 4 37 0
 2360 02d8 0110A0E3 		mov	r1, #1
 2361 02dc 0200A0E3 		mov	r0, #2
 2362 02e0 FEFFFFEA 		b	blink
 2363              	.LVL234:
 2364              	.L135:
 2365              		.cfi_restore_state
 2366              		.loc 4 97 0
 2367 02e4 0120A0E3 		mov	r2, #1
 2368 02e8 0210A0E1 		mov	r1, r2
 2369 02ec 0200A0E1 		mov	r0, r2
 2370 02f0 FEFFFFEB 		bl	blink
 2371              	.LVL235:
 2372              		.loc 4 98 0
 2373 02f4 0120A0E3 		mov	r2, #1
 2374 02f8 0010A0E3 		mov	r1, #0
 2375 02fc 0400A0E3 		mov	r0, #4
 2376 0300 D8FFFFEA 		b	.L157
 2377              	.L137:
 2378              		.loc 4 92 0
 2379 0304 0120A0E3 		mov	r2, #1
 2380 0308 0210A0E1 		mov	r1, r2
 2381 030c 0200A0E1 		mov	r0, r2
 2382 0310 FEFFFFEB 		bl	blink
 2383              	.LVL236:
 2384              		.loc 4 93 0
 2385 0314 0120A0E3 		mov	r2, #1
 2386 0318 0010A0E3 		mov	r1, #0
 2387 031c 0300A0E3 		mov	r0, #3
 2388 0320 D0FFFFEA 		b	.L157
 2389              	.L138:
 2390              		.loc 4 87 0
 2391 0324 0120A0E3 		mov	r2, #1
 2392 0328 0210A0E1 		mov	r1, r2
 2393 032c 0200A0E1 		mov	r0, r2
 2394 0330 FEFFFFEB 		bl	blink
ARM GAS  /var/folders/3j/4xdnk5197cv_b7cw3n33qk7r0000gn/T//ccxkT2Pi.s 			page 43


 2395              	.LVL237:
 2396              		.loc 4 88 0
 2397 0334 0120A0E3 		mov	r2, #1
 2398 0338 0010A0E3 		mov	r1, #0
 2399 033c 0200A0E3 		mov	r0, #2
 2400 0340 C8FFFFEA 		b	.L157
 2401              	.L134:
 2402              		.loc 4 102 0
 2403 0344 0120A0E3 		mov	r2, #1
 2404 0348 0210A0E1 		mov	r1, r2
 2405 034c 0200A0E1 		mov	r0, r2
 2406 0350 FEFFFFEB 		bl	blink
 2407              	.LVL238:
 2408              		.loc 4 103 0
 2409 0354 0120A0E3 		mov	r2, #1
 2410 0358 0010A0E3 		mov	r1, #0
 2411 035c 0200A0E1 		mov	r0, r2
 2412 0360 FEFFFFEB 		bl	blink
 2413              	.LVL239:
 2414              		.loc 4 104 0
 2415 0364 0110A0E3 		mov	r1, #1
 2416 0368 0020A0E3 		mov	r2, #0
 2417 036c 0100A0E1 		mov	r0, r1
 2418 0370 8EFFFFEA 		b	.L159
 2419              		.cfi_endproc
 2420              	.LFE32:
 2421              		.size	check_error_vl53, .-check_error_vl53
 2422              		.section	.text.check_error,"ax",%progbits
 2423              		.align	2
 2424              		.global	check_error
 2425              		.syntax unified
 2426              		.arm
 2427              		.fpu softvfp
 2428              		.type	check_error, %function
 2429              	check_error:
 2430              	.LFB33:
 2431              		.loc 4 115 0
 2432              		.cfi_startproc
 2433              		@ args = 0, pretend = 0, frame = 0
 2434              		@ frame_needed = 0, uses_anonymous_args = 0
 2435              	.LVL240:
 2436 0000 10402DE9 		push	{r4, lr}
 2437              		.cfi_def_cfa_offset 8
 2438              		.cfi_offset 4, -8
 2439              		.cfi_offset 14, -4
 2440 0004 48409FE5 		ldr	r4, .L164
 2441              		.loc 4 121 0
 2442 0008 000050E3 		cmp	r0, #0
 2443 000c 001094E5 		ldr	r1, [r4]
 2444 0010 0700001A 		bne	.L163
 2445              		.loc 4 126 0
 2446 0014 0400A0E1 		mov	r0, r4
 2447              	.LVL241:
 2448 0018 0118C1E3 		bic	r1, r1, #65536
 2449 001c FEFFFFEB 		bl	_pal_lld_writeport
 2450              	.LVL242:
 2451              		.loc 4 127 0
ARM GAS  /var/folders/3j/4xdnk5197cv_b7cw3n33qk7r0000gn/T//ccxkT2Pi.s 			page 44


 2452 0020 001094E5 		ldr	r1, [r4]
 2453 0024 0400A0E1 		mov	r0, r4
 2454              		.loc 4 129 0
 2455 0028 1040BDE8 		pop	{r4, lr}
 2456              		.cfi_remember_state
 2457              		.cfi_restore 14
 2458              		.cfi_restore 4
 2459              		.cfi_def_cfa_offset 0
 2460              		.loc 4 127 0
 2461 002c 011A81E3 		orr	r1, r1, #4096
 2462 0030 FEFFFFEA 		b	_pal_lld_writeport
 2463              	.LVL243:
 2464              	.L163:
 2465              		.cfi_restore_state
 2466              		.loc 4 122 0
 2467 0034 0400A0E1 		mov	r0, r4
 2468              	.LVL244:
 2469 0038 011881E3 		orr	r1, r1, #65536
 2470 003c FEFFFFEB 		bl	_pal_lld_writeport
 2471              	.LVL245:
 2472              		.loc 4 123 0
 2473 0040 001094E5 		ldr	r1, [r4]
 2474 0044 0400A0E1 		mov	r0, r4
 2475              		.loc 4 129 0
 2476 0048 1040BDE8 		pop	{r4, lr}
 2477              		.cfi_restore 14
 2478              		.cfi_restore 4
 2479              		.cfi_def_cfa_offset 0
 2480              		.loc 4 123 0
 2481 004c 011AC1E3 		bic	r1, r1, #4096
 2482 0050 FEFFFFEA 		b	_pal_lld_writeport
 2483              	.LVL246:
 2484              	.L165:
 2485              		.align	2
 2486              	.L164:
 2487 0054 00000000 		.word	IOPORT0
 2488              		.cfi_endproc
 2489              	.LFE33:
 2490              		.size	check_error, .-check_error
 2491              		.section	.text.startup.main,"ax",%progbits
 2492              		.align	2
 2493              		.global	main
 2494              		.syntax unified
 2495              		.arm
 2496              		.fpu softvfp
 2497              		.type	main, %function
 2498              	main:
 2499              	.LFB35:
 2500              		.loc 1 138 0
 2501              		.cfi_startproc
 2502              		@ args = 0, pretend = 0, frame = 56
 2503              		@ frame_needed = 0, uses_anonymous_args = 0
 2504 0000 70402DE9 		push	{r4, r5, r6, lr}
 2505              		.cfi_def_cfa_offset 16
 2506              		.cfi_offset 4, -16
 2507              		.cfi_offset 5, -12
 2508              		.cfi_offset 6, -8
ARM GAS  /var/folders/3j/4xdnk5197cv_b7cw3n33qk7r0000gn/T//ccxkT2Pi.s 			page 45


 2509              		.cfi_offset 14, -4
 2510              		.loc 1 171 0
 2511 0004 0F60A0E3 		mov	r6, #15
 2512              		.loc 1 138 0
 2513 0008 D6DE4DE2 		sub	sp, sp, #3424
 2514              		.cfi_def_cfa_offset 3440
 2515              		.loc 1 145 0
 2516 000c C8419FE5 		ldr	r4, .L168
 2517              		.loc 1 138 0
 2518 0010 08D04DE2 		sub	sp, sp, #8
 2519              		.cfi_def_cfa_offset 3448
 2520              		.loc 1 139 0
 2521 0014 FEFFFFEB 		bl	halInit
 2522              	.LVL247:
 2523              		.loc 1 140 0
 2524 0018 FEFFFFEB 		bl	chSysInit
 2525              	.LVL248:
 2526              		.loc 1 145 0
 2527 001c 0400A0E1 		mov	r0, r4
 2528 0020 0010A0E3 		mov	r1, #0
 2529 0024 FEFFFFEB 		bl	sdStart
 2530              	.LVL249:
 2531              		.loc 1 146 0
 2532 0028 0400A0E1 		mov	r0, r4
 2533 002c AC119FE5 		ldr	r1, .L168+4
 2534 0030 FEFFFFEB 		bl	chprintf
 2535              	.LVL250:
 2536              		.loc 1 151 0
 2537 0034 FEFFFFEB 		bl	shellInit
 2538              	.LVL251:
 2539              		.loc 1 152 0
 2540 0038 4120A0E3 		mov	r2, #65
 2541 003c A0119FE5 		ldr	r1, .L168+8
 2542 0040 A0019FE5 		ldr	r0, .L168+12
 2543 0044 FEFFFFEB 		bl	shellCreate
 2544              	.LVL252:
 2545              		.loc 1 168 0
 2546 0048 9C419FE5 		ldr	r4, .L168+16
 2547 004c D3EE8DE2 		add	lr, sp, #3376
 2548 0050 04E08EE2 		add	lr, lr, #4
 2549 0054 0F00B4E8 		ldmia	r4!, {r0, r1, r2, r3}
 2550 0058 0F00AEE8 		stmia	lr!, {r0, r1, r2, r3}
 2551 005c 030094E8 		ldm	r4, {r0, r1}
 2552              		.loc 1 171 0
 2553 0060 88519FE5 		ldr	r5, .L168+20
 2554 0064 D6CE8DE2 		add	ip, sp, #3424
 2555 0068 08C08CE2 		add	ip, ip, #8
 2556 006c 38602CE5 		str	r6, [ip, #-56]!
 2557 0070 314E85E2 		add	r4, r5, #784
 2558              		.loc 1 168 0
 2559 0074 03008EE8 		stm	lr, {r0, r1}
 2560              		.loc 1 171 0
 2561 0078 0F00BCE8 		ldmia	ip!, {r0, r1, r2, r3}
 2562 007c 0F00A4E8 		stmia	r4!, {r0, r1, r2, r3}
 2563 0080 0F00BCE8 		ldmia	ip!, {r0, r1, r2, r3}
 2564 0084 0F00A4E8 		stmia	r4!, {r0, r1, r2, r3}
 2565 0088 0F00BCE8 		ldmia	ip!, {r0, r1, r2, r3}
ARM GAS  /var/folders/3j/4xdnk5197cv_b7cw3n33qk7r0000gn/T//ccxkT2Pi.s 			page 46


 2566 008c 0F00A4E8 		stmia	r4!, {r0, r1, r2, r3}
 2567 0090 03009CE8 		ldm	ip, {r0, r1}
 2568              		.loc 1 173 0
 2569 0094 FE65A0E3 		mov	r6, #1065353216
 2570              		.loc 1 172 0
 2571 0098 66EE85E2 		add	lr, r5, #1632
 2572 009c D3CE8DE2 		add	ip, sp, #3376
 2573              		.loc 1 171 0
 2574 00a0 030084E8 		stm	r4, {r0, r1}
 2575              		.loc 1 172 0
 2576 00a4 0F00BCE8 		ldmia	ip!, {r0, r1, r2, r3}
 2577 00a8 0F00AEE8 		stmia	lr!, {r0, r1, r2, r3}
 2578 00ac 0F00BCE8 		ldmia	ip!, {r0, r1, r2, r3}
 2579 00b0 0F00AEE8 		stmia	lr!, {r0, r1, r2, r3}
 2580 00b4 0F00BCE8 		ldmia	ip!, {r0, r1, r2, r3}
 2581 00b8 0F00AEE8 		stmia	lr!, {r0, r1, r2, r3}
 2582 00bc 03009CE8 		ldm	ip, {r0, r1}
 2583              		.loc 1 176 0
 2584 00c0 9B4E85E2 		add	r4, r5, #2480
 2585 00c4 D3CE8DE2 		add	ip, sp, #3376
 2586              		.loc 1 172 0
 2587 00c8 03008EE8 		stm	lr, {r0, r1}
 2588              		.loc 1 176 0
 2589 00cc 0F00BCE8 		ldmia	ip!, {r0, r1, r2, r3}
 2590 00d0 0F00A4E8 		stmia	r4!, {r0, r1, r2, r3}
 2591 00d4 0F00BCE8 		ldmia	ip!, {r0, r1, r2, r3}
 2592 00d8 0F00A4E8 		stmia	r4!, {r0, r1, r2, r3}
 2593 00dc 0F00BCE8 		ldmia	ip!, {r0, r1, r2, r3}
 2594 00e0 0F00A4E8 		stmia	r4!, {r0, r1, r2, r3}
 2595 00e4 03009CE8 		ldm	ip, {r0, r1}
 2596              		.loc 1 177 0
 2597 00e8 D3EE8DE2 		add	lr, sp, #3376
 2598 00ec 0DCC85E2 		add	ip, r5, #3328
 2599              		.loc 1 173 0
 2600 00f0 486385E5 		str	r6, [r5, #840]	@ float
 2601              		.loc 1 174 0
 2602 00f4 986685E5 		str	r6, [r5, #1688]	@ float
 2603              		.loc 1 176 0
 2604 00f8 030084E8 		stm	r4, {r0, r1}
 2605              		.loc 1 177 0
 2606 00fc 0F00BEE8 		ldmia	lr!, {r0, r1, r2, r3}
 2607 0100 0F00ACE8 		stmia	ip!, {r0, r1, r2, r3}
 2608 0104 0F00BEE8 		ldmia	lr!, {r0, r1, r2, r3}
 2609 0108 0F00ACE8 		stmia	ip!, {r0, r1, r2, r3}
 2610 010c 0F00BEE8 		ldmia	lr!, {r0, r1, r2, r3}
 2611 0110 0F00ACE8 		stmia	ip!, {r0, r1, r2, r3}
 2612 0114 03009EE8 		ldm	lr, {r0, r1}
 2613              		.loc 1 194 0
 2614 0118 D4409FE5 		ldr	r4, .L168+24
 2615              		.loc 1 177 0
 2616 011c 03008CE8 		stm	ip, {r0, r1}
 2617              		.loc 1 181 0
 2618 0120 D32EA0E3 		mov	r2, #3376
 2619 0124 101085E2 		add	r1, r5, #16
 2620 0128 0D00A0E1 		mov	r0, sp
 2621              		.loc 1 178 0
 2622 012c E86985E5 		str	r6, [r5, #2536]	@ float
ARM GAS  /var/folders/3j/4xdnk5197cv_b7cw3n33qk7r0000gn/T//ccxkT2Pi.s 			page 47


 2623              		.loc 1 179 0
 2624 0130 386D85E5 		str	r6, [r5, #3384]	@ float
 2625              		.loc 1 181 0
 2626 0134 FEFFFFEB 		bl	memcpy
 2627              	.LVL253:
 2628 0138 0F0095E8 		ldm	r5, {r0, r1, r2, r3}
 2629 013c FEFFFFEB 		bl	setup_sensors.constprop.3
 2630              	.LVL254:
 2631              		.loc 1 194 0
 2632 0140 0430A0E1 		mov	r3, r4
 2633 0144 00508DE5 		str	r5, [sp]
 2634 0148 4020A0E3 		mov	r2, #64
 2635 014c 461FA0E3 		mov	r1, #280
 2636 0150 A0009FE5 		ldr	r0, .L168+28
 2637 0154 FEFFFFEB 		bl	chThdCreateStatic
 2638              	.LVL255:
 2639              		.loc 1 195 0
 2640 0158 353E85E2 		add	r3, r5, #848
 2641 015c 00308DE5 		str	r3, [sp]
 2642              		.loc 1 197 0
 2643 0160 6A6E85E2 		add	r6, r5, #1696
 2644              		.loc 1 195 0
 2645 0164 0430A0E1 		mov	r3, r4
 2646 0168 4020A0E3 		mov	r2, #64
 2647 016c 461FA0E3 		mov	r1, #280
 2648 0170 84009FE5 		ldr	r0, .L168+32
 2649 0174 FEFFFFEB 		bl	chThdCreateStatic
 2650              	.LVL256:
 2651              		.loc 1 197 0
 2652 0178 0430A0E1 		mov	r3, r4
 2653 017c 00608DE5 		str	r6, [sp]
 2654 0180 4020A0E3 		mov	r2, #64
 2655 0184 461FA0E3 		mov	r1, #280
 2656 0188 70009FE5 		ldr	r0, .L168+36
 2657 018c FEFFFFEB 		bl	chThdCreateStatic
 2658              	.LVL257:
 2659              		.loc 1 198 0
 2660 0190 0430A0E1 		mov	r3, r4
 2661 0194 00608DE5 		str	r6, [sp]
 2662 0198 4020A0E3 		mov	r2, #64
 2663 019c 461FA0E3 		mov	r1, #280
 2664 01a0 5C009FE5 		ldr	r0, .L168+40
 2665 01a4 FEFFFFEB 		bl	chThdCreateStatic
 2666              	.LVL258:
 2667              		.loc 1 200 0
 2668 01a8 4020A0E3 		mov	r2, #64
 2669 01ac 461FA0E3 		mov	r1, #280
 2670 01b0 00508DE5 		str	r5, [sp]
 2671 01b4 4C309FE5 		ldr	r3, .L168+44
 2672 01b8 4C009FE5 		ldr	r0, .L168+48
 2673 01bc FEFFFFEB 		bl	chThdCreateStatic
 2674              	.LVL259:
 2675              		.loc 1 204 0
 2676 01c0 48309FE5 		ldr	r3, .L168+52
 2677 01c4 180093E5 		ldr	r0, [r3, #24]
 2678 01c8 FEFFFFEB 		bl	chThdWait
 2679              	.LVL260:
ARM GAS  /var/folders/3j/4xdnk5197cv_b7cw3n33qk7r0000gn/T//ccxkT2Pi.s 			page 48


 2680              		.loc 1 207 0
 2681 01cc 0000A0E3 		mov	r0, #0
 2682 01d0 D6DE8DE2 		add	sp, sp, #3424
 2683 01d4 08D08DE2 		add	sp, sp, #8
 2684              		.cfi_def_cfa_offset 16
 2685              		@ sp needed
 2686 01d8 7080BDE8 		pop	{r4, r5, r6, pc}
 2687              	.L169:
 2688              		.align	2
 2689              	.L168:
 2690 01dc 00000000 		.word	SD1
 2691 01e0 00000000 		.word	.LC3
 2692 01e4 98100000 		.word	4248
 2693 01e8 00000000 		.word	.LANCHOR1
 2694 01ec 00000000 		.word	IOPORT0
 2695 01f0 00000000 		.word	system
 2696 01f4 00000000 		.word	Thread_Sensor
 2697 01f8 00000000 		.word	.LANCHOR2
 2698 01fc 00000000 		.word	.LANCHOR3
 2699 0200 00000000 		.word	.LANCHOR4
 2700 0204 00000000 		.word	.LANCHOR5
 2701 0208 00000000 		.word	Thread_Diplsay
 2702 020c 00000000 		.word	.LANCHOR6
 2703 0210 00000000 		.word	rlist
 2704              		.cfi_endproc
 2705              	.LFE35:
 2706              		.size	main, .-main
 2707              		.global	__aeabi_fcmpgt
 2708              		.section	.text.min,"ax",%progbits
 2709              		.align	2
 2710              		.global	min
 2711              		.syntax unified
 2712              		.arm
 2713              		.fpu softvfp
 2714              		.type	min, %function
 2715              	min:
 2716              	.LFB38:
 2717              		.loc 1 235 0
 2718              		.cfi_startproc
 2719              		@ args = 0, pretend = 0, frame = 0
 2720              		@ frame_needed = 0, uses_anonymous_args = 0
 2721              	.LVL261:
 2722 0000 70402DE9 		push	{r4, r5, r6, lr}
 2723              		.cfi_def_cfa_offset 16
 2724              		.cfi_offset 4, -16
 2725              		.cfi_offset 5, -12
 2726              		.cfi_offset 6, -8
 2727              		.cfi_offset 14, -4
 2728              		.loc 1 235 0
 2729 0004 0040A0E1 		mov	r4, r0
 2730 0008 0150A0E1 		mov	r5, r1
 2731              		.loc 1 236 0
 2732 000c FEFFFFEB 		bl	__aeabi_fcmpgt
 2733              	.LVL262:
 2734 0010 000050E3 		cmp	r0, #0
 2735              		.loc 1 238 0
 2736 0014 0400A001 		moveq	r0, r4
ARM GAS  /var/folders/3j/4xdnk5197cv_b7cw3n33qk7r0000gn/T//ccxkT2Pi.s 			page 49


 2737              		.loc 1 237 0
 2738 0018 0500A011 		movne	r0, r5
 2739              		.loc 1 239 0
 2740 001c 7080BDE8 		pop	{r4, r5, r6, pc}
 2741              		.cfi_endproc
 2742              	.LFE38:
 2743              		.size	min, .-min
 2744              		.global	system_failure_status
 2745              		.comm	system,3392,8
 2746              		.section	.bss.system_failure_status,"aw",%nobits
 2747              		.set	.LANCHOR0,. + 0
 2748              		.type	system_failure_status, %object
 2749              		.size	system_failure_status, 1
 2750              	system_failure_status:
 2751 0000 00       		.space	1
 2752              		.section	.bss.waThread_display,"aw",%nobits
 2753              		.align	2
 2754              		.set	.LANCHOR6,. + 0
 2755              		.type	waThread_display, %object
 2756              		.size	waThread_display, 280
 2757              	waThread_display:
 2758 0000 00000000 		.space	280
 2758      00000000 
 2758      00000000 
 2758      00000000 
 2758      00000000 
 2759              		.section	.bss.waThread_front_driver,"aw",%nobits
 2760              		.align	2
 2761              		.set	.LANCHOR2,. + 0
 2762              		.type	waThread_front_driver, %object
 2763              		.size	waThread_front_driver, 280
 2764              	waThread_front_driver:
 2765 0000 00000000 		.space	280
 2765      00000000 
 2765      00000000 
 2765      00000000 
 2765      00000000 
 2766              		.section	.bss.waThread_front_passenger,"aw",%nobits
 2767              		.align	2
 2768              		.set	.LANCHOR3,. + 0
 2769              		.type	waThread_front_passenger, %object
 2770              		.size	waThread_front_passenger, 280
 2771              	waThread_front_passenger:
 2772 0000 00000000 		.space	280
 2772      00000000 
 2772      00000000 
 2772      00000000 
 2772      00000000 
 2773              		.section	.bss.waThread_rear_driver,"aw",%nobits
 2774              		.align	2
 2775              		.set	.LANCHOR4,. + 0
 2776              		.type	waThread_rear_driver, %object
 2777              		.size	waThread_rear_driver, 280
 2778              	waThread_rear_driver:
 2779 0000 00000000 		.space	280
 2779      00000000 
 2779      00000000 
ARM GAS  /var/folders/3j/4xdnk5197cv_b7cw3n33qk7r0000gn/T//ccxkT2Pi.s 			page 50


 2779      00000000 
 2779      00000000 
 2780              		.section	.bss.waThread_rear_passenger,"aw",%nobits
 2781              		.align	2
 2782              		.set	.LANCHOR5,. + 0
 2783              		.type	waThread_rear_passenger, %object
 2784              		.size	waThread_rear_passenger, 280
 2785              	waThread_rear_passenger:
 2786 0000 00000000 		.space	280
 2786      00000000 
 2786      00000000 
 2786      00000000 
 2786      00000000 
 2787              		.section	.rodata.Thread_Diplsay.str1.4,"aMS",%progbits,1
 2788              		.align	2
 2789              	.LC0:
 2790 0000 64697370 		.ascii	"display_update\000"
 2790      6C61795F 
 2790      75706461 
 2790      746500
 2791              		.section	.rodata.Thread_Sensor.str1.4,"aMS",%progbits,1
 2792              		.align	2
 2793              	.LC2:
 2794 0000 73656E73 		.ascii	"sensor_read_in\000"
 2794      6F725F72 
 2794      6561645F 
 2794      696E00
 2795              		.section	.rodata.cmd_reboot.str1.4,"aMS",%progbits,1
 2796              		.align	2
 2797              	.LC1:
 2798 0000 55736167 		.ascii	"Usage: reboot\015\012\000"
 2798      653A2072 
 2798      65626F6F 
 2798      740D0A00 
 2799              		.section	.rodata.commands,"a",%progbits
 2800              		.align	2
 2801              		.type	commands, %object
 2802              		.size	commands, 16
 2803              	commands:
 2804 0000 00000000 		.word	.LC4
 2805 0004 00000000 		.word	cmd_reboot
 2806 0008 00000000 		.word	0
 2807 000c 00000000 		.word	0
 2808              		.section	.rodata.main.str1.4,"aMS",%progbits,1
 2809              		.align	2
 2810              	.LC3:
 2811 0000 4D61696E 		.ascii	"Main (SD1 started)\015\012\000"
 2811      20285344 
 2811      31207374 
 2811      61727465 
 2811      64290D0A 
 2812              		.section	.rodata.shell_config,"a",%progbits
 2813              		.align	2
 2814              		.set	.LANCHOR1,. + 0
 2815              		.type	shell_config, %object
 2816              		.size	shell_config, 8
 2817              	shell_config:
ARM GAS  /var/folders/3j/4xdnk5197cv_b7cw3n33qk7r0000gn/T//ccxkT2Pi.s 			page 51


 2818 0000 00000000 		.word	SD1
 2819 0004 00000000 		.word	commands
 2820              		.section	.rodata.str1.4,"aMS",%progbits,1
 2821              		.align	2
 2822              	.LC4:
 2823 0000 7265626F 		.ascii	"reboot\000"
 2823      6F7400
 2824              		.text
 2825              	.Letext0:
 2826              		.file 5 "/usr/local/Cellar/gcc-arm-none-eabi/20180627/lib/gcc/arm-none-eabi/7.3.1/include/stddef.h
 2827              		.file 6 "/usr/local/Cellar/gcc-arm-none-eabi/20180627/arm-none-eabi/include/machine/_default_types
 2828              		.file 7 "/usr/local/Cellar/gcc-arm-none-eabi/20180627/arm-none-eabi/include/sys/_stdint.h"
 2829              		.file 8 "..//os/ports/GCC/ARM/chtypes.h"
 2830              		.file 9 "..//os/kernel/include/chlists.h"
 2831              		.file 10 "..//os/kernel/include/chthreads.h"
 2832              		.file 11 "..//os/ports/GCC/ARM/chcore.h"
 2833              		.file 12 "..//os/kernel/include/chvt.h"
 2834              		.file 13 "..//os/kernel/include/chschd.h"
 2835              		.file 14 "..//os/kernel/include/chmtx.h"
 2836              		.file 15 "..//os/kernel/include/chevents.h"
 2837              		.file 16 "..//os/kernel/include/chregistry.h"
 2838              		.file 17 "..//os/kernel/include/chqueues.h"
 2839              		.file 18 "..//os/kernel/include/chstreams.h"
 2840              		.file 19 "..//os/kernel/include/ch.h"
 2841              		.file 20 "..//os/hal/platforms/BCM2835/bcm2835.h"
 2842              		.file 21 "..//os/hal/platforms/BCM2835/pal_lld.h"
 2843              		.file 22 "..//os/hal/include/i2c.h"
 2844              		.file 23 "..//os/hal/platforms/BCM2835/i2c_lld.h"
 2845              		.file 24 "..//os/hal/include/serial.h"
 2846              		.file 25 "..//os/hal/include/spi.h"
 2847              		.file 26 "..//os/hal/platforms/BCM2835/spi_lld.h"
 2848              		.file 27 "..//test/test.h"
 2849              		.file 28 "..//os/hal/platforms/BCM2835/serial_lld.h"
 2850              		.file 29 "..//os/various/shell.h"
 2851              		.file 30 "..//VL53L0X_Api/platform/inc/vl53l0x_types.h"
 2852              		.file 31 "..//VL53L0X_Api/core/inc/vl53l0x_device.h"
 2853              		.file 32 "..//VL53L0X_Api/core/inc/vl53l0x_def.h"
 2854              		.file 33 "/usr/local/Cellar/gcc-arm-none-eabi/20180627/arm-none-eabi/include/sys/lock.h"
 2855              		.file 34 "/usr/local/Cellar/gcc-arm-none-eabi/20180627/arm-none-eabi/include/sys/_types.h"
 2856              		.file 35 "/usr/local/Cellar/gcc-arm-none-eabi/20180627/arm-none-eabi/include/sys/reent.h"
 2857              		.file 36 "..//VL53L0X_Api/platform/inc/vl53l0x_platform.h"
 2858              		.file 37 "..//VL53L0X_Api/core/inc/vl53l0x_api.h"
 2859              		.file 38 "..//os/hal/include/hal.h"
 2860              		.file 39 "..//os/kernel/include/chsys.h"
 2861              		.file 40 "..//os/various/chprintf.h"
 2862              		.file 41 "..//os/hal/platforms/BCM2835/hal_lld.h"
 2863              		.file 42 "<built-in>"