ARM GAS  /var/folders/3j/4xdnk5197cv_b7cw3n33qk7r0000gn/T//cczlz7sX.s 			page 1


   1              		.cpu arm1176jz-s
   2              		.eabi_attribute 20, 1
   3              		.eabi_attribute 21, 1
   4              		.eabi_attribute 23, 3
   5              		.eabi_attribute 24, 1
   6              		.eabi_attribute 25, 1
   7              		.eabi_attribute 26, 1
   8              		.eabi_attribute 30, 2
   9              		.eabi_attribute 34, 1
  10              		.eabi_attribute 18, 4
  11              		.file	"pal_lld.c"
  12              		.text
  13              	.Ltext0:
  14              		.cfi_sections	.debug_frame
  15              		.section	.text.set_gpio_in.isra.0,"ax",%progbits
  16              		.align	2
  17              		.syntax unified
  18              		.arm
  19              		.fpu softvfp
  20              		.type	set_gpio_in.isra.0, %function
  21              	set_gpio_in.isra.0:
  22              	.LFB12:
  23              		.file 1 "..//os/hal/platforms/BCM2835/pal_lld.c"
  24              		.loc 1 64 0
  25              		.cfi_startproc
  26              		@ args = 0, pretend = 0, frame = 0
  27              		@ frame_needed = 0, uses_anonymous_args = 0
  28              	.LVL0:
  29 0000 70402DE9 		push	{r4, r5, r6, lr}
  30              		.cfi_def_cfa_offset 16
  31              		.cfi_offset 4, -16
  32              		.cfi_offset 5, -12
  33              		.cfi_offset 6, -8
  34              		.cfi_offset 14, -4
  35              		.loc 1 64 0
  36 0004 0060A0E1 		mov	r6, r0
  37 0008 0150A0E1 		mov	r5, r1
  38              		.loc 1 66 0
  39 000c 0040A0E3 		mov	r4, #0
  40 0010 030000EA 		b	.L3
  41              	.LVL1:
  42              	.L2:
  43 0014 014084E2 		add	r4, r4, #1
  44              	.LVL2:
  45 0018 200054E3 		cmp	r4, #32
  46              	.LBB3:
  47              		.loc 1 70 0
  48 001c A550A0E1 		lsr	r5, r5, #1
  49              	.LVL3:
  50              	.LBE3:
  51              		.loc 1 66 0
  52 0020 7080BD08 		popeq	{r4, r5, r6, pc}
  53              	.LVL4:
  54              	.L3:
  55              	.LBB4:
  56              		.loc 1 68 0
  57 0024 010015E3 		tst	r5, #1
ARM GAS  /var/folders/3j/4xdnk5197cv_b7cw3n33qk7r0000gn/T//cczlz7sX.s 			page 2


  58 0028 F9FFFF0A 		beq	.L2
  59              		.loc 1 69 0
  60 002c 000096E5 		ldr	r0, [r6]
  61 0030 0010A0E3 		mov	r1, #0
  62 0034 000084E0 		add	r0, r4, r0
  63 0038 FEFFFFEB 		bl	bcm2835_gpio_fnsel
  64              	.LVL5:
  65 003c F4FFFFEA 		b	.L2
  66              	.LBE4:
  67              		.cfi_endproc
  68              	.LFE12:
  69              		.size	set_gpio_in.isra.0, .-set_gpio_in.isra.0
  70              		.section	.text.set_gpio_pud.isra.1,"ax",%progbits
  71              		.align	2
  72              		.syntax unified
  73              		.arm
  74              		.fpu softvfp
  75              		.type	set_gpio_pud.isra.1, %function
  76              	set_gpio_pud.isra.1:
  77              	.LFB13:
  78              		.loc 1 54 0
  79              		.cfi_startproc
  80              		@ args = 0, pretend = 0, frame = 0
  81              		@ frame_needed = 0, uses_anonymous_args = 0
  82              	.LVL6:
  83 0000 70402DE9 		push	{r4, r5, r6, lr}
  84              		.cfi_def_cfa_offset 16
  85              		.cfi_offset 4, -16
  86              		.cfi_offset 5, -12
  87              		.cfi_offset 6, -8
  88              		.cfi_offset 14, -4
  89              		.loc 1 54 0
  90 0004 0050A0E1 		mov	r5, r0
  91 0008 0160A0E1 		mov	r6, r1
  92              		.loc 1 56 0
  93 000c 2C409FE5 		ldr	r4, .L13
  94              		.loc 1 57 0
  95 0010 9600A0E3 		mov	r0, #150
  96              		.loc 1 56 0
  97 0014 942084E5 		str	r2, [r4, #148]
  98              		.loc 1 57 0
  99 0018 FEFFFFEB 		bl	bcm2835_delay
 100              	.LVL7:
 101              		.loc 1 58 0
 102 001c 003095E5 		ldr	r3, [r5]
 103              		.loc 1 59 0
 104 0020 9600A0E3 		mov	r0, #150
 105              		.loc 1 58 0
 106 0024 006083E5 		str	r6, [r3]
 107              		.loc 1 59 0
 108 0028 FEFFFFEB 		bl	bcm2835_delay
 109              	.LVL8:
 110              		.loc 1 60 0
 111 002c 0030A0E3 		mov	r3, #0
 112              		.loc 1 61 0
 113 0030 002095E5 		ldr	r2, [r5]
 114              		.loc 1 60 0
ARM GAS  /var/folders/3j/4xdnk5197cv_b7cw3n33qk7r0000gn/T//cczlz7sX.s 			page 3


 115 0034 943084E5 		str	r3, [r4, #148]
 116              		.loc 1 61 0
 117 0038 003082E5 		str	r3, [r2]
 118              		.loc 1 62 0
 119 003c 7080BDE8 		pop	{r4, r5, r6, pc}
 120              	.L14:
 121              		.align	2
 122              	.L13:
 123 0040 00002020 		.word	538968064
 124              		.cfi_endproc
 125              	.LFE13:
 126              		.size	set_gpio_pud.isra.1, .-set_gpio_pud.isra.1
 127              		.section	.text._pal_lld_init,"ax",%progbits
 128              		.align	2
 129              		.global	_pal_lld_init
 130              		.syntax unified
 131              		.arm
 132              		.fpu softvfp
 133              		.type	_pal_lld_init, %function
 134              	_pal_lld_init:
 135              	.LFB9:
 136              		.loc 1 82 0
 137              		.cfi_startproc
 138              		@ args = 0, pretend = 0, frame = 0
 139              		@ frame_needed = 0, uses_anonymous_args = 0
 140              	.LVL9:
 141              		.loc 1 86 0
 142 0000 68309FE5 		ldr	r3, .L17
 143 0004 68109FE5 		ldr	r1, .L17+4
 144              		.loc 1 82 0
 145 0008 10402DE9 		push	{r4, lr}
 146              		.cfi_def_cfa_offset 8
 147              		.cfi_offset 4, -8
 148              		.cfi_offset 14, -4
 149              		.loc 1 88 0
 150 000c 64C09FE5 		ldr	ip, .L17+8
 151              		.loc 1 87 0
 152 0010 64E09FE5 		ldr	lr, .L17+12
 153              		.loc 1 89 0
 154 0014 64209FE5 		ldr	r2, .L17+16
 155              		.loc 1 90 0
 156 0018 140083E2 		add	r0, r3, #20
 157              	.LVL10:
 158              		.loc 1 86 0
 159 001c 041083E5 		str	r1, [r3, #4]
 160              		.loc 1 90 0
 161 0020 0010E0E3 		mvn	r1, #0
 162              		.loc 1 87 0
 163 0024 08E083E5 		str	lr, [r3, #8]
 164              		.loc 1 88 0
 165 0028 0CC083E5 		str	ip, [r3, #12]
 166              		.loc 1 89 0
 167 002c 102083E5 		str	r2, [r3, #16]
 168              		.loc 1 90 0
 169 0030 FEFFFFEB 		bl	set_gpio_in.isra.0
 170              	.LVL11:
 171              		.loc 1 92 0
ARM GAS  /var/folders/3j/4xdnk5197cv_b7cw3n33qk7r0000gn/T//cczlz7sX.s 			page 4


 172 0034 48309FE5 		ldr	r3, .L17+20
 173              		.loc 1 96 0
 174 0038 2020A0E3 		mov	r2, #32
 175 003c 0300A0E1 		mov	r0, r3
 176              		.loc 1 92 0
 177 0040 40109FE5 		ldr	r1, .L17+24
 178              		.loc 1 93 0
 179 0044 40E09FE5 		ldr	lr, .L17+28
 180              		.loc 1 96 0
 181 0048 1420A0E5 		str	r2, [r0, #20]!
 182              		.loc 1 94 0
 183 004c 3CC09FE5 		ldr	ip, .L17+32
 184              		.loc 1 95 0
 185 0050 3C209FE5 		ldr	r2, .L17+36
 186              		.loc 1 92 0
 187 0054 041083E5 		str	r1, [r3, #4]
 188              		.loc 1 93 0
 189 0058 08E083E5 		str	lr, [r3, #8]
 190              		.loc 1 97 0
 191 005c 0010E0E3 		mvn	r1, #0
 192              		.loc 1 98 0
 193 0060 1040BDE8 		pop	{r4, lr}
 194              		.cfi_restore 14
 195              		.cfi_restore 4
 196              		.cfi_def_cfa_offset 0
 197              		.loc 1 94 0
 198 0064 0CC083E5 		str	ip, [r3, #12]
 199              		.loc 1 95 0
 200 0068 102083E5 		str	r2, [r3, #16]
 201              		.loc 1 97 0
 202 006c FEFFFFEA 		b	set_gpio_in.isra.0
 203              	.LVL12:
 204              	.L18:
 205              		.align	2
 206              	.L17:
 207 0070 00000000 		.word	IOPORT0
 208 0074 1C002020 		.word	538968092
 209 0078 34002020 		.word	538968116
 210 007c 28002020 		.word	538968104
 211 0080 98002020 		.word	538968216
 212 0084 00000000 		.word	IOPORT1
 213 0088 20002020 		.word	538968096
 214 008c 2C002020 		.word	538968108
 215 0090 38002020 		.word	538968120
 216 0094 9C002020 		.word	538968220
 217              		.cfi_endproc
 218              	.LFE9:
 219              		.size	_pal_lld_init, .-_pal_lld_init
 220              		.section	.text._pal_lld_setgroupmode,"ax",%progbits
 221              		.align	2
 222              		.global	_pal_lld_setgroupmode
 223              		.syntax unified
 224              		.arm
 225              		.fpu softvfp
 226              		.type	_pal_lld_setgroupmode, %function
 227              	_pal_lld_setgroupmode:
 228              	.LFB10:
ARM GAS  /var/folders/3j/4xdnk5197cv_b7cw3n33qk7r0000gn/T//cczlz7sX.s 			page 5


 229              		.loc 1 100 0
 230              		.cfi_startproc
 231              		@ args = 0, pretend = 0, frame = 0
 232              		@ frame_needed = 0, uses_anonymous_args = 0
 233              	.LVL13:
 234              		.loc 1 102 0
 235 0000 040052E3 		cmp	r2, #4
 236              		.loc 1 100 0
 237 0004 70402DE9 		push	{r4, r5, r6, lr}
 238              		.cfi_def_cfa_offset 16
 239              		.cfi_offset 4, -16
 240              		.cfi_offset 5, -12
 241              		.cfi_offset 6, -8
 242              		.cfi_offset 14, -4
 243              		.loc 1 100 0
 244 0008 0060A0E1 		mov	r6, r0
 245 000c 0150A0E1 		mov	r5, r1
 246              		.loc 1 102 0
 247 0010 2500000A 		beq	.L21
 248 0014 1100008A 		bhi	.L22
 249 0018 020052E3 		cmp	r2, #2
 250 001c 0800000A 		beq	.L23
 251 0020 030052E3 		cmp	r2, #3
 252 0024 7080BD18 		popne	{r4, r5, r6, pc}
 253              		.loc 1 108 0
 254 0028 140080E2 		add	r0, r0, #20
 255              	.LVL14:
 256 002c FEFFFFEB 		bl	set_gpio_in.isra.0
 257              	.LVL15:
 258              		.loc 1 109 0
 259 0030 0510A0E1 		mov	r1, r5
 260 0034 100086E2 		add	r0, r6, #16
 261 0038 0220A0E3 		mov	r2, #2
 262              		.loc 1 126 0
 263 003c 7040BDE8 		pop	{r4, r5, r6, lr}
 264              		.cfi_remember_state
 265              		.cfi_restore 14
 266              		.cfi_restore 6
 267              		.cfi_restore 5
 268              		.cfi_restore 4
 269              		.cfi_def_cfa_offset 0
 270              	.LVL16:
 271              		.loc 1 109 0
 272 0040 FEFFFFEA 		b	set_gpio_pud.isra.1
 273              	.LVL17:
 274              	.L23:
 275              		.cfi_restore_state
 276              		.loc 1 104 0
 277 0044 140080E2 		add	r0, r0, #20
 278              	.LVL18:
 279 0048 FEFFFFEB 		bl	set_gpio_in.isra.0
 280              	.LVL19:
 281              		.loc 1 105 0
 282 004c 0510A0E1 		mov	r1, r5
 283 0050 100086E2 		add	r0, r6, #16
 284 0054 0020A0E3 		mov	r2, #0
 285              		.loc 1 126 0
ARM GAS  /var/folders/3j/4xdnk5197cv_b7cw3n33qk7r0000gn/T//cczlz7sX.s 			page 6


 286 0058 7040BDE8 		pop	{r4, r5, r6, lr}
 287              		.cfi_remember_state
 288              		.cfi_restore 14
 289              		.cfi_restore 6
 290              		.cfi_restore 5
 291              		.cfi_restore 4
 292              		.cfi_def_cfa_offset 0
 293              	.LVL20:
 294              		.loc 1 105 0
 295 005c FEFFFFEA 		b	set_gpio_pud.isra.1
 296              	.LVL21:
 297              	.L22:
 298              		.cfi_restore_state
 299              		.loc 1 102 0
 300 0060 060052E3 		cmp	r2, #6
 301 0064 7080BD38 		popcc	{r4, r5, r6, pc}
 302 0068 070052E3 		cmp	r2, #7
 303 006c 0100009A 		bls	.L27
 304 0070 FF0052E3 		cmp	r2, #255
 305 0074 7080BD18 		popne	{r4, r5, r6, pc}
 306              	.L27:
 307              		.loc 1 118 0
 308 0078 0040A0E3 		mov	r4, #0
 309 007c 030000EA 		b	.L25
 310              	.LVL22:
 311              	.L26:
 312              		.loc 1 118 0 is_stmt 0 discriminator 2
 313 0080 014084E2 		add	r4, r4, #1
 314              	.LVL23:
 315 0084 200054E3 		cmp	r4, #32
 316              	.LBB5:
 317              		.loc 1 122 0 is_stmt 1 discriminator 2
 318 0088 A550A0E1 		lsr	r5, r5, #1
 319              	.LVL24:
 320              	.LBE5:
 321              		.loc 1 118 0 discriminator 2
 322 008c 7080BD08 		popeq	{r4, r5, r6, pc}
 323              	.LVL25:
 324              	.L25:
 325              	.LBB6:
 326              		.loc 1 120 0
 327 0090 010015E3 		tst	r5, #1
 328 0094 F9FFFF0A 		beq	.L26
 329              		.loc 1 121 0
 330 0098 140096E5 		ldr	r0, [r6, #20]
 331 009c 0110A0E3 		mov	r1, #1
 332 00a0 000084E0 		add	r0, r4, r0
 333 00a4 FEFFFFEB 		bl	bcm2835_gpio_fnsel
 334              	.LVL26:
 335 00a8 F4FFFFEA 		b	.L26
 336              	.LVL27:
 337              	.L21:
 338              	.LBE6:
 339              		.loc 1 112 0
 340 00ac 140080E2 		add	r0, r0, #20
 341              	.LVL28:
 342 00b0 FEFFFFEB 		bl	set_gpio_in.isra.0
ARM GAS  /var/folders/3j/4xdnk5197cv_b7cw3n33qk7r0000gn/T//cczlz7sX.s 			page 7


 343              	.LVL29:
 344              		.loc 1 113 0
 345 00b4 0510A0E1 		mov	r1, r5
 346 00b8 100086E2 		add	r0, r6, #16
 347 00bc 0120A0E3 		mov	r2, #1
 348              		.loc 1 126 0
 349 00c0 7040BDE8 		pop	{r4, r5, r6, lr}
 350              		.cfi_restore 14
 351              		.cfi_restore 6
 352              		.cfi_restore 5
 353              		.cfi_restore 4
 354              		.cfi_def_cfa_offset 0
 355              	.LVL30:
 356              		.loc 1 113 0
 357 00c4 FEFFFFEA 		b	set_gpio_pud.isra.1
 358              	.LVL31:
 359              		.cfi_endproc
 360              	.LFE10:
 361              		.size	_pal_lld_setgroupmode, .-_pal_lld_setgroupmode
 362              		.section	.text._pal_lld_writeport,"ax",%progbits
 363              		.align	2
 364              		.global	_pal_lld_writeport
 365              		.syntax unified
 366              		.arm
 367              		.fpu softvfp
 368              		.type	_pal_lld_writeport, %function
 369              	_pal_lld_writeport:
 370              	.LFB11:
 371              		.loc 1 128 0
 372              		.cfi_startproc
 373              		@ args = 0, pretend = 0, frame = 0
 374              		@ frame_needed = 0, uses_anonymous_args = 0
 375              		@ link register save eliminated.
 376              	.LVL32:
 377              		.loc 1 130 0
 378 0000 0120E0E1 		mvn	r2, r1
 379              		.loc 1 129 0
 380 0004 04C090E5 		ldr	ip, [r0, #4]
 381              		.loc 1 130 0
 382 0008 083090E5 		ldr	r3, [r0, #8]
 383              		.loc 1 129 0
 384 000c 001080E5 		str	r1, [r0]
 385 0010 00108CE5 		str	r1, [ip]
 386              		.loc 1 130 0
 387 0014 002083E5 		str	r2, [r3]
 388              		.loc 1 131 0
 389 0018 1EFF2FE1 		bx	lr
 390              		.cfi_endproc
 391              	.LFE11:
 392              		.size	_pal_lld_writeport, .-_pal_lld_writeport
 393              		.comm	IOPORT1,24,4
 394              		.comm	IOPORT0,24,4
 395              		.text
 396              	.Letext0:
 397              		.file 2 "/usr/local/Cellar/gcc-arm-none-eabi/20180627/lib/gcc/arm-none-eabi/7.3.1/include/stddef.h
 398              		.file 3 "/usr/local/Cellar/gcc-arm-none-eabi/20180627/arm-none-eabi/include/machine/_default_types
 399              		.file 4 "/usr/local/Cellar/gcc-arm-none-eabi/20180627/arm-none-eabi/include/sys/_stdint.h"
ARM GAS  /var/folders/3j/4xdnk5197cv_b7cw3n33qk7r0000gn/T//cczlz7sX.s 			page 8


 400              		.file 5 "..//os/ports/GCC/ARM/chtypes.h"
 401              		.file 6 "..//os/kernel/include/chlists.h"
 402              		.file 7 "..//os/kernel/include/chthreads.h"
 403              		.file 8 "..//os/ports/GCC/ARM/chcore.h"
 404              		.file 9 "..//os/kernel/include/chvt.h"
 405              		.file 10 "..//os/kernel/include/chschd.h"
 406              		.file 11 "..//os/kernel/include/chmtx.h"
 407              		.file 12 "..//os/kernel/include/chevents.h"
 408              		.file 13 "..//os/kernel/include/chregistry.h"
 409              		.file 14 "..//os/kernel/include/chqueues.h"
 410              		.file 15 "..//os/kernel/include/ch.h"
 411              		.file 16 "..//os/hal/platforms/BCM2835/bcm2835.h"
 412              		.file 17 "..//os/hal/platforms/BCM2835/pal_lld.h"
 413              		.file 18 "..//os/hal/include/i2c.h"
 414              		.file 19 "..//os/hal/platforms/BCM2835/i2c_lld.h"
 415              		.file 20 "..//os/hal/include/serial.h"
 416              		.file 21 "..//os/hal/include/spi.h"
 417              		.file 22 "..//os/hal/platforms/BCM2835/spi_lld.h"
 418              		.file 23 "..//os/hal/platforms/BCM2835/serial_lld.h"