ARM GAS  /var/folders/3j/4xdnk5197cv_b7cw3n33qk7r0000gn/T//cczlz7sX.s 			page 1


   1              		.cpu arm1176jz-s
   2              		.eabi_attribute 20, 1
   3              		.eabi_attribute 21, 1
   4              		.eabi_attribute 23, 3
   5              		.eabi_attribute 24, 1
   6              		.eabi_attribute 25, 1
   7              		.eabi_attribute 26, 1
   8              		.eabi_attribute 30, 2
   9              		.eabi_attribute 34, 1
  10              		.eabi_attribute 18, 4
  11              		.file	"pal_lld.c"
  12              		.text
  13              	.Ltext0:
  14              		.cfi_sections	.debug_frame
  15              		.section	.text.set_gpio_in.isra.0,"ax",%progbits
  16              		.align	2
  17              		.syntax unified
  18              		.arm
  19              		.fpu softvfp
  20              		.type	set_gpio_in.isra.0, %function
  21              	set_gpio_in.isra.0:
  22              	.LFB12:
  23              		.file 1 "..//os/hal/platforms/BCM2835/pal_lld.c"
  24              		.loc 1 64 0
  25              		.cfi_startproc
  26              		@ args = 0, pretend = 0, frame = 0
  27              		@ frame_needed = 0, uses_anonymous_args = 0
  28              	.LVL0:
  29 0000 70402DE9 		push	{r4, r5, r6, lr}
  30              		.cfi_def_cfa_offset 16
  31              		.cfi_offset 4, -16
  32              		.cfi_offset 5, -12
  33              		.cfi_offset 6, -8
  34              		.cfi_offset 14, -4
  35              		.loc 1 64 0
  36 0004 0060A0E1 		mov	r6, r0
  37 0008 0150A0E1 		mov	r5, r1
  38              		.loc 1 66 0
  39 000c 0040A0E3 		mov	r4, #0
  40 0010 030000EA 		b	.L3
  41              	.LVL1:
  42              	.L2:
  43 0014 014084E2 		add	r4, r4, #1
  44              	.LVL2:
  45 0018 200054E3 		cmp	r4, #32
  46              	.LBB3:
  47              		.loc 1 70 0
  48 001c A550A0E1 		lsr	r5, r5, #1
  49              	.LVL3:
  50              	.LBE3:
  51              		.loc 1 66 0
  52 0020 7080BD08 		popeq	{r4, r5, r6, pc}
  53              	.LVL4:
  54              	.L3:
  55              	.LBB4:
  56              		.loc 1 68 0
  57 0024 010015E3 		tst	r5, #1
ARM GAS  /var/folders/3j/4xdnk5197cv_b7cw3n33qk7r0000gn/T//cczlz7sX.s 			page 2


  58 0028 F9FFFF0A 		beq	.L2
  59              		.loc 1 69 0
  60 002c 000096E5 		ldr	r0, [r6]
  61 0030 0010A0E3 		mov	r1, #0
  62 0034 000084E0 		add	r0, r4, r0
  63 0038 FEFFFFEB 		bl	bcm2835_gpio_fnsel
  64              	.LVL5:
  65 003c F4FFFFEA 		b	.L2
  66              	.LBE4:
  67              		.cfi_endproc
  68              	.LFE12:
  69              		.size	set_gpio_in.isra.0, .-set_gpio_in.isra.0
  70              		.section	.text.set_gpio_pud.isra.1,"ax",%progbits
  71              		.align	2
  72              		.syntax unified
  73              		.arm
  74              		.fpu softvfp
  75              		.type	set_gpio_pud.isra.1, %function
  76              	set_gpio_pud.isra.1:
  77              	.LFB13:
  78              		.loc 1 54 0
  79              		.cfi_startproc
  80              		@ args = 0, pretend = 0, frame = 0
  81              		@ frame_needed = 0, uses_anonymous_args = 0
  82              	.LVL6:
  83 0000 70402DE9 		push	{r4, r5, r6, lr}
  84              		.cfi_def_cfa_offset 16
  85              		.cfi_offset 4, -16
  86              		.cfi_offset 5, -12
  87              		.cfi_offset 6, -8
  88              		.cfi_offset 14, -4
  89              		.loc 1 54 0
  90 0004 0050A0E1 		mov	r5, r0
  91 0008 0160A0E1 		mov	r6, r1
  92              		.loc 1 56 0
  93 000c 2C409FE5 		ldr	r4, .L13
  94              		.loc 1 57 0
  95 0010 9600A0E3 		mov	r0, #150
  96              		.loc 1 56 0
  97 0014 942084E5 		str	r2, [r4, #148]
  98              		.loc 1 57 0
  99 0018 FEFFFFEB 		bl	bcm2835_delay
 100              	.LVL7:
 101              		.loc 1 58 0
 102 001c 003095E5 		ldr	r3, [r5]
 103              		.loc 1 59 0
 104 0020 9600A0E3 		mov	r0, #150
 105              		.loc 1 58 0
 106 0024 006083E5 		str	r6, [r3]
 107              		.loc 1 59 0
 108 0028 FEFFFFEB 		bl	bcm2835_delay
 109              	.LVL8:
 110              		.loc 1 60 0
 111 002c 0030A0E3 		mov	r3, #0
 112              		.loc 1 61 0
 113 0030 002095E5 		ldr	r2, [r5]
 114              		.loc 1 60 0
ARM GAS  /var/folders/3j/4xdnk5197cv_b7cw3n33qk7r0000gn/T//cczlz7sX.s 			page 3


 115 0034 943084E5 		str	r3, [r4, #148]
 116              		.loc 1 61 0
 117 0038 003082E5 		str	r3, [r2]
 118              		.loc 1 62 0
 119 003c 7080BDE8 		pop	{r4, r5, r6, pc}
 120              	.L14:
 121              		.align	2
 122              	.L13:
 123 0040 00002020 		.word	538968064
 124              		.cfi_endproc
 125              	.LFE13:
 126              		.size	set_gpio_pud.isra.1, .-set_gpio_pud.isra.1
 127              		.section	.text._pal_lld_init,"ax",%progbits
 128              		.align	2
 129              		.global	_pal_lld_init
 130              		.syntax unified
 131              		.arm
 132              		.fpu softvfp
 133              		.type	_pal_lld_init, %function
 134              	_pal_lld_init:
 135              	.LFB9:
 136              		.loc 1 82 0
 137              		.cfi_startproc
 138              		@ args = 0, pretend = 0, frame = 0
 139              		@ frame_needed = 0, uses_anonymous_args = 0
 140              	.LVL9:
 141              		.loc 1 86 0
 142 0000 68309FE5 		ldr	r3, .L17
 143 0004 68109FE5 		ldr	r1, .L17+4
 144              		.loc 1 82 0
 145 0008 10402DE9 		push	{r4, lr}
 146              		.cfi_def_cfa_offset 8
 147              		.cfi_offset 4, -8
 148              		.cfi_offset 14, -4
 149              		.loc 1 88 0
 150 000c 64C09FE5 		ldr	ip, .L17+8
 151              		.loc 1 87 0
 152 0010 64E09FE5 		ldr	lr, .L17+12
 153              		.loc 1 89 0
 154 0014 64209FE5 		ldr	r2, .L17+16
 155              		.loc 1 90 0
 156 0018 140083E2 		add	r0, r3, #20
 157              	.LVL10:
 158              		.loc 1 86 0
 159 001c 041083E5 		str	r1, [r3, #4]
 160              		.loc 1 90 0
 161 0020 0010E0E3 		mvn	r1, #0
 162              		.loc 1 87 0
 163 0024 08E083E5 		str	lr, [r3, #8]
 164              		.loc 1 88 0
 165 0028 0CC083E5 		str	ip, [r3, #12]
 166              		.loc 1 89 0
 167 002c 102083E5 		str	r2, [r3, #16]
 168              		.loc 1 90 0
 169 0030 FEFFFFEB 		bl	set_gpio_in.isra.0
 170              	.LVL11:
 171              		.loc 1 92 0
ARM GAS  /var/folders/3j/4xdnk5197cv_b7cw3n33qk7r0000gn/T//cczlz7sX.s 			page 4


 172 0034 48309FE5 		ldr	r3, .L17+20
 173              		.loc 1 96 0
 174 0038 2020A0E3 		mov	r2, #32
 175 003c 0300A0E1 		mov	r0, r3
 176              		.loc 1 92 0
 177 0040 40109FE5 		ldr	r1, .L17+24
 178              		.loc 1 93 0
 179 0044 40E09FE5 		ldr	lr, .L17+28
 180              		.loc 1 96 0
 181 0048 1420A0E5 		str	r2, [r0, #20]!
 182              		.loc 1 94 0
 183 004c 3CC09FE5 		ldr	ip, .L17+32
 184              		.loc 1 95 0
 185 0050 3C209FE5 		ldr	r2, .L17+36
 186              		.loc 1 92 0
 187 0054 041083E5 		str	r1, [r3, #4]
 188              		.loc 1 93 0
 189 0058 08E083E5 		str	lr, [r3, #8]
 190              		.loc 1 97 0
 191 005c 0010E0E3 		mvn	r1, #0
 192              		.loc 1 98 0
 193 0060 1040BDE8 		pop	{r4, lr}
 194              		.cfi_restore 14
 195              		.cfi_restore 4
 196              		.cfi_def_cfa_offset 0
 197              		.loc 1 94 0
 198 0064 0CC083E5 		str	ip, [r3, #12]
 199              		.loc 1 95 0
 200 0068 102083E5 		str	r2, [r3, #16]
 201              		.loc 1 97 0
 202 006c FEFFFFEA 		b	set_gpio_in.isra.0
 203              	.LVL12:
 204              	.L18:
 205              		.align	2
 206              	.L17:
 207 0070 00000000 		.word	IOPORT0
 208 0074 1C002020 		.word	538968092
 209 0078 34002020 		.word	538968116
 210 007c 28002020 		.word	538968104
 211 0080 98002020 		.word	538968216
 212 0084 00000000 		.word	IOPORT1
 213 0088 20002020 		.word	538968096
 214 008c 2C002020 		.word	538968108
 215 0090 38002020 		.word	538968120
 216 0094 9C002020 		.word	538968220
 217              		.cfi_endproc
 218              	.LFE9:
 219              		.size	_pal_lld_init, .-_pal_lld_init
 220              		.section	.text._pal_lld_setgroupmode,"ax",%progbits
 221              		.align	2
 222              		.global	_pal_lld_setgroupmode
 223              		.syntax unified
 224              		.arm
 225              		.fpu softvfp
 226              		.type	_pal_lld_setgroupmode, %function
 227              	_pal_lld_setgroupmode:
 228              	.LFB10:
ARM GAS  /var/folders/3j/4xdnk5197cv_b7cw3n33qk7r0000gn/T//cczlz7sX.s 			page 5


 229              		.loc 1 100 0
 230              		.cfi_startproc
 231              		@ args = 0, pretend = 0, frame = 0
 232              		@ frame_needed = 0, uses_anonymous_args = 0
 233              	.LVL13:
 234              		.loc 1 102 0
 235 0000 040052E3 		cmp	r2, #4
 236              		.loc 1 100 0
 237 0004 70402DE9 		push	{r4, r5, r6, lr}
 238              		.cfi_def_cfa_offset 16
 239              		.cfi_offset 4, -16
 240              		.cfi_offset 5, -12
 241              		.cfi_offset 6, -8
 242              		.cfi_offset 14, -4
 243              		.loc 1 100 0
 244 0008 0060A0E1 		mov	r6, r0
 245 000c 0150A0E1 		mov	r5, r1
 246              		.loc 1 102 0
 247 0010 2500000A 		beq	.L21
 248 0014 1100008A 		bhi	.L22
 249 0018 020052E3 		cmp	r2, #2
 250 001c 0800000A 		beq	.L23
 251 0020 030052E3 		cmp	r2, #3
 252 0024 7080BD18 		popne	{r4, r5, r6, pc}
 253              		.loc 1 108 0
 254 0028 140080E2 		add	r0, r0, #20
 255              	.LVL14:
 256 002c FEFFFFEB 		bl	set_gpio_in.isra.0
 257              	.LVL15:
 258              		.loc 1 109 0
 259 0030 0510A0E1 		mov	r1, r5
 260 0034 100086E2 		add	r0, r6, #16
 261 0038 0220A0E3 		mov	r2, #2
 262              		.loc 1 126 0
 263 003c 7040BDE8 		pop	{r4, r5, r6, lr}
 264              		.cfi_remember_state
 265              		.cfi_restore 14
 266              		.cfi_restore 6
 267              		.cfi_restore 5
 268              		.cfi_restore 4
 269              		.cfi_def_cfa_offset 0
 270              	.LVL16:
 271              		.loc 1 109 0
 272 0040 FEFFFFEA 		b	set_gpio_pud.isra.1
 273              	.LVL17:
 274              	.L23:
 275              		.cfi_restore_state
 276              		.loc 1 104 0
 277 0044 140080E2 		add	r0, r0, #20
 278              	.LVL18:
 279 0048 FEFFFFEB 		bl	set_gpio_in.isra.0
 280              	.LVL19:
 281              		.loc 1 105 0
 282 004c 0510A0E1 		mov	r1, r5
 283 0050 100086E2 		add	r0, r6, #16
 284 0054 0020A0E3 		mov	r2, #0
 285              		.loc 1 126 0
ARM GAS  /var/folders/3j/4xdnk5197cv_b7cw3n33qk7r0000gn/T//cczlz7sX.s 			page 6


 286 0058 7040BDE8 		pop	{r4, r5, r6, lr}
 287              		.cfi_remember_state
 288              		.cfi_restore 14
 289              		.cfi_restore 6
 290              		.cfi_restore 5
 291              		.cfi_restore 4
 292              		.cfi_def_cfa_offset 0
 293              	.LVL20:
 294              		.loc 1 105 0
 295 005c FEFFFFEA 		b	set_gpio_pud.isra.1
 296              	.LVL21:
 297              	.L22:
 298              		.cfi_restore_state
 299              		.loc 1 102 0
 300 0060 060052E3 		cmp	r2, #6
 301 0064 7080BD38 		popcc	{r4, r5, r6, pc}
 302 0068 070052E3 		cmp	r2, #7
 303 006c 0100009A 		bls	.L27
 304 0070 FF0052E3 		cmp	r2, #255
 305 0074 7080BD18 		popne	{r4, r5, r6, pc}
 306              	.L27:
 307              		.loc 1 118 0
 308 0078 0040A0E3 		mov	r4, #0
 309 007c 030000EA 		b	.L25
 310              	.LVL22:
 311              	.L26:
 312              		.loc 1 118 0 is_stmt 0 discriminator 2
 313 0080 014084E2 		add	r4, r4, #1
 314              	.LVL23:
 315 0084 200054E3 		cmp	r4, #32
 316              	.LBB5:
 317              		.loc 1 122 0 is_stmt 1 discriminator 2
 318 0088 A550A0E1 		lsr	r5, r5, #1
 319              	.LVL24:
 320              	.LBE5:
 321              		.loc 1 118 0 discriminator 2
 322 008c 7080BD08 		popeq	{r4, r5, r6, pc}
 323              	.LVL25:
 324              	.L25:
 325              	.LBB6:
 326              		.loc 1 120 0
 327 0090 010015E3 		tst	r5, #1
 328 0094 F9FFFF0A 		beq	.L26
 329              		.loc 1 121 0
 330 0098 140096E5 		ldr	r0, [r6, #20]
 331 009c 0110A0E3 		mov	r1, #1
 332 00a0 000084E0 		add	r0, r4, r0
 333 00a4 FEFFFFEB 		bl	bcm2835_gpio_fnsel
 334              	.LVL26:
 335 00a8 F4FFFFEA 		b	.L26
 336              	.LVL27:
 337              	.L21:
 338              	.LBE6:
 339              		.loc 1 112 0
 340 00ac 140080E2 		add	r0, r0, #20
 341              	.LVL28:
 342 00b0 FEFFFFEB 		bl	set_gpio_in.isra.0
ARM GAS  /var/folders/3j/4xdnk5197cv_b7cw3n33qk7r0000gn/T//cczlz7sX.s 			page 7


 343              	.LVL29:
 344              		.loc 1 113 0
 345 00b4 0510A0E1 		mov	r1, r5
 346 00b8 100086E2 		add	r0, r6, #16
 347 00bc 0120A0E3 		mov	r2, #1
 348              		.loc 1 126 0
 349 00c0 7040BDE8 		pop	{r4, r5, r6, lr}
 350              		.cfi_restore 14
 351              		.cfi_restore 6
 352              		.cfi_restore 5
 353              		.cfi_restore 4
 354              		.cfi_def_cfa_offset 0
 355              	.LVL30:
 356              		.loc 1 113 0
 357 00c4 FEFFFFEA 		b	set_gpio_pud.isra.1
 358              	.LVL31:
 359              		.cfi_endproc
 360              	.LFE10:
 361              		.size	_pal_lld_setgroupmode, .-_pal_lld_setgroupmode
 362              		.section	.text._pal_lld_writeport,"ax",%progbits
 363              		.align	2
 364              		.global	_pal_lld_writeport
 365              		.syntax unified
 366              		.arm
 367              		.fpu softvfp
 368              		.type	_pal_lld_writeport, %function
 369              	_pal_lld_writeport:
 370              	.LFB11:
 371              		.loc 1 128 0
 372              		.cfi_startproc
 373              		@ args = 0, pretend = 0, frame = 0
 374              		@ frame_needed = 0, uses_anonymous_args = 0
 375              		@ link register save eliminated.
 376              	.LVL32:
 377              		.loc 1 130 0
 378 0000 0120E0E1 		mvn	r2, r1
 379              		.loc 1 129 0
 380 0004 04C090E5 		ldr	ip, [r0, #4]
 381              		.loc 1 130 0
 382 0008 083090E5 		ldr	r3, [r0, #8]
 383              		.loc 1 129 0
 384 000c 001080E5 		str	r1, [r0]
 385 0010 00108CE5 		str	r1, [ip]
 386              		.loc 1 130 0
 387 0014 002083E5 		str	r2, [r3]
 388              		.loc 1 131 0
 389 0018 1EFF2FE1 		bx	lr
 390              		.cfi_endproc
 391              	.LFE11:
 392              		.size	_pal_lld_writeport, .-_pal_lld_writeport
 393              		.comm	IOPORT1,24,4
 394              		.comm	IOPORT0,24,4
 395              		.text
 396              	.Letext0:
 397              		.file 2 "/usr/local/Cellar/gcc-arm-none-eabi/20180627/lib/gcc/arm-none-eabi/7.3.1/include/stddef.h
 398              		.file 3 "/usr/local/Cellar/gcc-arm-none-eabi/20180627/arm-none-eabi/include/machine/_default_types
 399              		.file 4 "/usr/local/Cellar/gcc-arm-none-eabi/20180627/arm-none-eabi/include/sys/_stdint.h"
ARM GAS  /var/folders/3j/4xdnk5197cv_b7cw3n33qk7r0000gn/T//cczlz7sX.s 			page 8


 400              		.file 5 "..//os/ports/GCC/ARM/chtypes.h"
 401              		.file 6 "..//os/kernel/include/chlists.h"
 402              		.file 7 "..//os/kernel/include/chthreads.h"
 403              		.file 8 "..//os/ports/GCC/ARM/chcore.h"
 404              		.file 9 "..//os/kernel/include/chvt.h"
 405              		.file 10 "..//os/kernel/include/chschd.h"
 406              		.file 11 "..//os/kernel/include/chmtx.h"
 407              		.file 12 "..//os/kernel/include/chevents.h"
 408              		.file 13 "..//os/kernel/include/chregistry.h"
 409              		.file 14 "..//os/kernel/include/chqueues.h"
 410              		.file 15 "..//os/kernel/include/ch.h"
 411              		.file 16 "..//os/hal/platforms/BCM2835/bcm2835.h"
 412              		.file 17 "..//os/hal/platforms/BCM2835/pal_lld.h"
 413              		.file 18 "..//os/hal/include/i2c.h"
 414              		.file 19 "..//os/hal/platforms/BCM2835/i2c_lld.h"
 415              		.file 20 "..//os/hal/include/serial.h"
 416              		.file 21 "..//os/hal/include/spi.h"
 417              		.file 22 "..//os/hal/platforms/BCM2835/spi_lld.h"
 418              		.file 23 "..//os/hal/platforms/BCM2835/serial_lld.h"
 419              		.section	.debug_info,"",%progbits
 420              	.Ldebug_info0:
 421 0000 64100000 		.4byte	0x1064
 422 0004 0400     		.2byte	0x4
 423 0006 00000000 		.4byte	.Ldebug_abbrev0
 424 000a 04       		.byte	0x4
 425 000b 01       		.uleb128 0x1
 426 000c 43010000 		.4byte	.LASF214
 427 0010 0C       		.byte	0xc
 428 0011 1F020000 		.4byte	.LASF215
 429 0015 17060000 		.4byte	.LASF216
 430 0019 30000000 		.4byte	.Ldebug_ranges0+0x30
 431 001d 00000000 		.4byte	0
 432 0021 00000000 		.4byte	.Ldebug_line0
 433 0025 02       		.uleb128 0x2
 434 0026 04       		.byte	0x4
 435 0027 05       		.byte	0x5
 436 0028 696E7400 		.ascii	"int\000"
 437 002c 03       		.uleb128 0x3
 438 002d 13000000 		.4byte	.LASF2
 439 0031 02       		.byte	0x2
 440 0032 D8       		.byte	0xd8
 441 0033 37000000 		.4byte	0x37
 442 0037 04       		.uleb128 0x4
 443 0038 04       		.byte	0x4
 444 0039 07       		.byte	0x7
 445 003a 51030000 		.4byte	.LASF0
 446 003e 05       		.uleb128 0x5
 447 003f 37000000 		.4byte	0x37
 448 0043 04       		.uleb128 0x4
 449 0044 01       		.byte	0x1
 450 0045 06       		.byte	0x6
 451 0046 EE000000 		.4byte	.LASF1
 452 004a 03       		.uleb128 0x3
 453 004b 33000000 		.4byte	.LASF3
 454 004f 03       		.byte	0x3
 455 0050 2B       		.byte	0x2b
 456 0051 55000000 		.4byte	0x55
ARM GAS  /var/folders/3j/4xdnk5197cv_b7cw3n33qk7r0000gn/T//cczlz7sX.s 			page 9


 457 0055 04       		.uleb128 0x4
 458 0056 01       		.byte	0x1
 459 0057 08       		.byte	0x8
 460 0058 FD050000 		.4byte	.LASF4
 461 005c 04       		.uleb128 0x4
 462 005d 02       		.byte	0x2
 463 005e 05       		.byte	0x5
 464 005f 77060000 		.4byte	.LASF5
 465 0063 03       		.uleb128 0x3
 466 0064 7D070000 		.4byte	.LASF6
 467 0068 03       		.byte	0x3
 468 0069 39       		.byte	0x39
 469 006a 6E000000 		.4byte	0x6e
 470 006e 04       		.uleb128 0x4
 471 006f 02       		.byte	0x2
 472 0070 07       		.byte	0x7
 473 0071 E4030000 		.4byte	.LASF7
 474 0075 03       		.uleb128 0x3
 475 0076 AF070000 		.4byte	.LASF8
 476 007a 03       		.byte	0x3
 477 007b 4D       		.byte	0x4d
 478 007c 80000000 		.4byte	0x80
 479 0080 04       		.uleb128 0x4
 480 0081 04       		.byte	0x4
 481 0082 05       		.byte	0x5
 482 0083 16020000 		.4byte	.LASF9
 483 0087 03       		.uleb128 0x3
 484 0088 FA020000 		.4byte	.LASF10
 485 008c 03       		.byte	0x3
 486 008d 4F       		.byte	0x4f
 487 008e 92000000 		.4byte	0x92
 488 0092 04       		.uleb128 0x4
 489 0093 04       		.byte	0x4
 490 0094 07       		.byte	0x7
 491 0095 8A030000 		.4byte	.LASF11
 492 0099 04       		.uleb128 0x4
 493 009a 08       		.byte	0x8
 494 009b 05       		.byte	0x5
 495 009c E0000000 		.4byte	.LASF12
 496 00a0 04       		.uleb128 0x4
 497 00a1 08       		.byte	0x8
 498 00a2 07       		.byte	0x7
 499 00a3 6E000000 		.4byte	.LASF13
 500 00a7 03       		.uleb128 0x3
 501 00a8 A0080000 		.4byte	.LASF14
 502 00ac 04       		.byte	0x4
 503 00ad 18       		.byte	0x18
 504 00ae 4A000000 		.4byte	0x4a
 505 00b2 06       		.uleb128 0x6
 506 00b3 A7000000 		.4byte	0xa7
 507 00b7 03       		.uleb128 0x3
 508 00b8 6F020000 		.4byte	.LASF15
 509 00bc 04       		.byte	0x4
 510 00bd 24       		.byte	0x24
 511 00be 63000000 		.4byte	0x63
 512 00c2 03       		.uleb128 0x3
 513 00c3 F5050000 		.4byte	.LASF16
ARM GAS  /var/folders/3j/4xdnk5197cv_b7cw3n33qk7r0000gn/T//cczlz7sX.s 			page 10


 514 00c7 04       		.byte	0x4
 515 00c8 2C       		.byte	0x2c
 516 00c9 75000000 		.4byte	0x75
 517 00cd 03       		.uleb128 0x3
 518 00ce 1E070000 		.4byte	.LASF17
 519 00d2 04       		.byte	0x4
 520 00d3 30       		.byte	0x30
 521 00d4 87000000 		.4byte	0x87
 522 00d8 05       		.uleb128 0x5
 523 00d9 CD000000 		.4byte	0xcd
 524 00dd 03       		.uleb128 0x3
 525 00de 3B040000 		.4byte	.LASF18
 526 00e2 05       		.byte	0x5
 527 00e3 2A       		.byte	0x2a
 528 00e4 A7000000 		.4byte	0xa7
 529 00e8 03       		.uleb128 0x3
 530 00e9 46020000 		.4byte	.LASF19
 531 00ed 05       		.byte	0x5
 532 00ee 2B       		.byte	0x2b
 533 00ef A7000000 		.4byte	0xa7
 534 00f3 03       		.uleb128 0x3
 535 00f4 A5050000 		.4byte	.LASF20
 536 00f8 05       		.byte	0x5
 537 00f9 2C       		.byte	0x2c
 538 00fa A7000000 		.4byte	0xa7
 539 00fe 03       		.uleb128 0x3
 540 00ff 55070000 		.4byte	.LASF21
 541 0103 05       		.byte	0x5
 542 0104 2D       		.byte	0x2d
 543 0105 A7000000 		.4byte	0xa7
 544 0109 03       		.uleb128 0x3
 545 010a D4050000 		.4byte	.LASF22
 546 010e 05       		.byte	0x5
 547 010f 2E       		.byte	0x2e
 548 0110 CD000000 		.4byte	0xcd
 549 0114 03       		.uleb128 0x3
 550 0115 09040000 		.4byte	.LASF23
 551 0119 05       		.byte	0x5
 552 011a 2F       		.byte	0x2f
 553 011b C2000000 		.4byte	0xc2
 554 011f 03       		.uleb128 0x3
 555 0120 62040000 		.4byte	.LASF24
 556 0124 05       		.byte	0x5
 557 0125 31       		.byte	0x31
 558 0126 CD000000 		.4byte	0xcd
 559 012a 03       		.uleb128 0x3
 560 012b 3B080000 		.4byte	.LASF25
 561 012f 05       		.byte	0x5
 562 0130 32       		.byte	0x32
 563 0131 CD000000 		.4byte	0xcd
 564 0135 03       		.uleb128 0x3
 565 0136 9A070000 		.4byte	.LASF26
 566 013a 05       		.byte	0x5
 567 013b 33       		.byte	0x33
 568 013c CD000000 		.4byte	0xcd
 569 0140 05       		.uleb128 0x5
 570 0141 35010000 		.4byte	0x135
ARM GAS  /var/folders/3j/4xdnk5197cv_b7cw3n33qk7r0000gn/T//cczlz7sX.s 			page 11


 571 0145 03       		.uleb128 0x3
 572 0146 DC060000 		.4byte	.LASF27
 573 014a 06       		.byte	0x6
 574 014b 23       		.byte	0x23
 575 014c 50010000 		.4byte	0x150
 576 0150 07       		.uleb128 0x7
 577 0151 DC060000 		.4byte	.LASF27
 578 0155 44       		.byte	0x44
 579 0156 07       		.byte	0x7
 580 0157 57       		.byte	0x57
 581 0158 41020000 		.4byte	0x241
 582 015c 08       		.uleb128 0x8
 583 015d B6060000 		.4byte	.LASF28
 584 0161 07       		.byte	0x7
 585 0162 58       		.byte	0x58
 586 0163 62020000 		.4byte	0x262
 587 0167 00       		.byte	0
 588 0168 08       		.uleb128 0x8
 589 0169 CD050000 		.4byte	.LASF29
 590 016d 07       		.byte	0x7
 591 016e 5A       		.byte	0x5a
 592 016f 62020000 		.4byte	0x262
 593 0173 04       		.byte	0x4
 594 0174 08       		.uleb128 0x8
 595 0175 B5000000 		.4byte	.LASF30
 596 0179 07       		.byte	0x7
 597 017a 5C       		.byte	0x5c
 598 017b 09010000 		.4byte	0x109
 599 017f 08       		.byte	0x8
 600 0180 08       		.uleb128 0x8
 601 0181 45090000 		.4byte	.LASF31
 602 0185 07       		.byte	0x7
 603 0186 5D       		.byte	0x5d
 604 0187 1D030000 		.4byte	0x31d
 605 018b 0C       		.byte	0xc
 606 018c 08       		.uleb128 0x8
 607 018d A1020000 		.4byte	.LASF32
 608 0191 07       		.byte	0x7
 609 0192 5F       		.byte	0x5f
 610 0193 62020000 		.4byte	0x262
 611 0197 10       		.byte	0x10
 612 0198 08       		.uleb128 0x8
 613 0199 15050000 		.4byte	.LASF33
 614 019d 07       		.byte	0x7
 615 019e 60       		.byte	0x60
 616 019f 62020000 		.4byte	0x262
 617 01a3 14       		.byte	0x14
 618 01a4 08       		.uleb128 0x8
 619 01a5 CF080000 		.4byte	.LASF34
 620 01a9 07       		.byte	0x7
 621 01aa 67       		.byte	0x67
 622 01ab 51050000 		.4byte	0x551
 623 01af 18       		.byte	0x18
 624 01b0 08       		.uleb128 0x8
 625 01b1 81060000 		.4byte	.LASF35
 626 01b5 07       		.byte	0x7
 627 01b6 72       		.byte	0x72
ARM GAS  /var/folders/3j/4xdnk5197cv_b7cw3n33qk7r0000gn/T//cczlz7sX.s 			page 12


 628 01b7 E8000000 		.4byte	0xe8
 629 01bb 1C       		.byte	0x1c
 630 01bc 08       		.uleb128 0x8
 631 01bd D4060000 		.4byte	.LASF36
 632 01c1 07       		.byte	0x7
 633 01c2 76       		.byte	0x76
 634 01c3 DD000000 		.4byte	0xdd
 635 01c7 1D       		.byte	0x1d
 636 01c8 08       		.uleb128 0x8
 637 01c9 6C080000 		.4byte	.LASF37
 638 01cd 07       		.byte	0x7
 639 01ce 7B       		.byte	0x7b
 640 01cf F3000000 		.4byte	0xf3
 641 01d3 1E       		.byte	0x1e
 642 01d4 08       		.uleb128 0x8
 643 01d5 89060000 		.4byte	.LASF38
 644 01d9 07       		.byte	0x7
 645 01da 81       		.byte	0x81
 646 01db FE000000 		.4byte	0xfe
 647 01df 1F       		.byte	0x1f
 648 01e0 08       		.uleb128 0x8
 649 01e1 D8070000 		.4byte	.LASF39
 650 01e5 07       		.byte	0x7
 651 01e6 88       		.byte	0x88
 652 01e7 40010000 		.4byte	0x140
 653 01eb 20       		.byte	0x20
 654 01ec 09       		.uleb128 0x9
 655 01ed 705F7500 		.ascii	"p_u\000"
 656 01f1 07       		.byte	0x7
 657 01f2 AD       		.byte	0xad
 658 01f3 1C050000 		.4byte	0x51c
 659 01f7 24       		.byte	0x24
 660 01f8 08       		.uleb128 0x8
 661 01f9 4B090000 		.4byte	.LASF40
 662 01fd 07       		.byte	0x7
 663 01fe B2       		.byte	0xb2
 664 01ff 88020000 		.4byte	0x288
 665 0203 28       		.byte	0x28
 666 0204 08       		.uleb128 0x8
 667 0205 0B080000 		.4byte	.LASF41
 668 0209 07       		.byte	0x7
 669 020a B8       		.byte	0xb8
 670 020b 68020000 		.4byte	0x268
 671 020f 2C       		.byte	0x2c
 672 0210 08       		.uleb128 0x8
 673 0211 0D000000 		.4byte	.LASF42
 674 0215 07       		.byte	0x7
 675 0216 BC       		.byte	0xbc
 676 0217 14010000 		.4byte	0x114
 677 021b 34       		.byte	0x34
 678 021c 08       		.uleb128 0x8
 679 021d 09070000 		.4byte	.LASF43
 680 0221 07       		.byte	0x7
 681 0222 C2       		.byte	0xc2
 682 0223 1F010000 		.4byte	0x11f
 683 0227 38       		.byte	0x38
 684 0228 08       		.uleb128 0x8
ARM GAS  /var/folders/3j/4xdnk5197cv_b7cw3n33qk7r0000gn/T//cczlz7sX.s 			page 13


 685 0229 6D060000 		.4byte	.LASF44
 686 022d 07       		.byte	0x7
 687 022e C9       		.byte	0xc9
 688 022f 63050000 		.4byte	0x563
 689 0233 3C       		.byte	0x3c
 690 0234 08       		.uleb128 0x8
 691 0235 A4070000 		.4byte	.LASF45
 692 0239 07       		.byte	0x7
 693 023a CD       		.byte	0xcd
 694 023b 09010000 		.4byte	0x109
 695 023f 40       		.byte	0x40
 696 0240 00       		.byte	0
 697 0241 0A       		.uleb128 0xa
 698 0242 08       		.byte	0x8
 699 0243 06       		.byte	0x6
 700 0244 5A       		.byte	0x5a
 701 0245 62020000 		.4byte	0x262
 702 0249 08       		.uleb128 0x8
 703 024a B6060000 		.4byte	.LASF28
 704 024e 06       		.byte	0x6
 705 024f 5B       		.byte	0x5b
 706 0250 62020000 		.4byte	0x262
 707 0254 00       		.byte	0
 708 0255 08       		.uleb128 0x8
 709 0256 CD050000 		.4byte	.LASF29
 710 025a 06       		.byte	0x6
 711 025b 5D       		.byte	0x5d
 712 025c 62020000 		.4byte	0x262
 713 0260 04       		.byte	0x4
 714 0261 00       		.byte	0
 715 0262 0B       		.uleb128 0xb
 716 0263 04       		.byte	0x4
 717 0264 45010000 		.4byte	0x145
 718 0268 03       		.uleb128 0x3
 719 0269 33050000 		.4byte	.LASF46
 720 026d 06       		.byte	0x6
 721 026e 5F       		.byte	0x5f
 722 026f 41020000 		.4byte	0x241
 723 0273 0A       		.uleb128 0xa
 724 0274 04       		.byte	0x4
 725 0275 06       		.byte	0x6
 726 0276 64       		.byte	0x64
 727 0277 88020000 		.4byte	0x288
 728 027b 08       		.uleb128 0x8
 729 027c B6060000 		.4byte	.LASF28
 730 0280 06       		.byte	0x6
 731 0281 66       		.byte	0x66
 732 0282 62020000 		.4byte	0x262
 733 0286 00       		.byte	0
 734 0287 00       		.byte	0
 735 0288 03       		.uleb128 0x3
 736 0289 56040000 		.4byte	.LASF47
 737 028d 06       		.byte	0x6
 738 028e 69       		.byte	0x69
 739 028f 73020000 		.4byte	0x273
 740 0293 03       		.uleb128 0x3
 741 0294 9A040000 		.4byte	.LASF48
ARM GAS  /var/folders/3j/4xdnk5197cv_b7cw3n33qk7r0000gn/T//cczlz7sX.s 			page 14


 742 0298 08       		.byte	0x8
 743 0299 9D       		.byte	0x9d
 744 029a CD000000 		.4byte	0xcd
 745 029e 03       		.uleb128 0x3
 746 029f 0A030000 		.4byte	.LASF49
 747 02a3 08       		.byte	0x8
 748 02a4 A2       		.byte	0xa2
 749 02a5 A9020000 		.4byte	0x2a9
 750 02a9 0C       		.uleb128 0xc
 751 02aa 04       		.byte	0x4
 752 02ab 07       		.uleb128 0x7
 753 02ac 04080000 		.4byte	.LASF50
 754 02b0 24       		.byte	0x24
 755 02b1 08       		.byte	0x8
 756 02b2 B9       		.byte	0xb9
 757 02b3 1D030000 		.4byte	0x31d
 758 02b7 09       		.uleb128 0x9
 759 02b8 723400   		.ascii	"r4\000"
 760 02bb 08       		.byte	0x8
 761 02bc BA       		.byte	0xba
 762 02bd 9E020000 		.4byte	0x29e
 763 02c1 00       		.byte	0
 764 02c2 09       		.uleb128 0x9
 765 02c3 723500   		.ascii	"r5\000"
 766 02c6 08       		.byte	0x8
 767 02c7 BB       		.byte	0xbb
 768 02c8 9E020000 		.4byte	0x29e
 769 02cc 04       		.byte	0x4
 770 02cd 09       		.uleb128 0x9
 771 02ce 723600   		.ascii	"r6\000"
 772 02d1 08       		.byte	0x8
 773 02d2 BC       		.byte	0xbc
 774 02d3 9E020000 		.4byte	0x29e
 775 02d7 08       		.byte	0x8
 776 02d8 09       		.uleb128 0x9
 777 02d9 723700   		.ascii	"r7\000"
 778 02dc 08       		.byte	0x8
 779 02dd BD       		.byte	0xbd
 780 02de 9E020000 		.4byte	0x29e
 781 02e2 0C       		.byte	0xc
 782 02e3 09       		.uleb128 0x9
 783 02e4 723800   		.ascii	"r8\000"
 784 02e7 08       		.byte	0x8
 785 02e8 BE       		.byte	0xbe
 786 02e9 9E020000 		.4byte	0x29e
 787 02ed 10       		.byte	0x10
 788 02ee 09       		.uleb128 0x9
 789 02ef 723900   		.ascii	"r9\000"
 790 02f2 08       		.byte	0x8
 791 02f3 BF       		.byte	0xbf
 792 02f4 9E020000 		.4byte	0x29e
 793 02f8 14       		.byte	0x14
 794 02f9 09       		.uleb128 0x9
 795 02fa 72313000 		.ascii	"r10\000"
 796 02fe 08       		.byte	0x8
 797 02ff C0       		.byte	0xc0
 798 0300 9E020000 		.4byte	0x29e
ARM GAS  /var/folders/3j/4xdnk5197cv_b7cw3n33qk7r0000gn/T//cczlz7sX.s 			page 15


 799 0304 18       		.byte	0x18
 800 0305 09       		.uleb128 0x9
 801 0306 72313100 		.ascii	"r11\000"
 802 030a 08       		.byte	0x8
 803 030b C1       		.byte	0xc1
 804 030c 9E020000 		.4byte	0x29e
 805 0310 1C       		.byte	0x1c
 806 0311 09       		.uleb128 0x9
 807 0312 6C7200   		.ascii	"lr\000"
 808 0315 08       		.byte	0x8
 809 0316 C2       		.byte	0xc2
 810 0317 9E020000 		.4byte	0x29e
 811 031b 20       		.byte	0x20
 812 031c 00       		.byte	0
 813 031d 07       		.uleb128 0x7
 814 031e DC030000 		.4byte	.LASF51
 815 0322 04       		.byte	0x4
 816 0323 08       		.byte	0x8
 817 0324 CA       		.byte	0xca
 818 0325 36030000 		.4byte	0x336
 819 0329 09       		.uleb128 0x9
 820 032a 72313300 		.ascii	"r13\000"
 821 032e 08       		.byte	0x8
 822 032f CB       		.byte	0xcb
 823 0330 36030000 		.4byte	0x336
 824 0334 00       		.byte	0
 825 0335 00       		.byte	0
 826 0336 0B       		.uleb128 0xb
 827 0337 04       		.byte	0x4
 828 0338 AB020000 		.4byte	0x2ab
 829 033c 03       		.uleb128 0x3
 830 033d AA030000 		.4byte	.LASF52
 831 0341 09       		.byte	0x9
 832 0342 4E       		.byte	0x4e
 833 0343 47030000 		.4byte	0x347
 834 0347 0B       		.uleb128 0xb
 835 0348 04       		.byte	0x4
 836 0349 4D030000 		.4byte	0x34d
 837 034d 0D       		.uleb128 0xd
 838 034e 58030000 		.4byte	0x358
 839 0352 0E       		.uleb128 0xe
 840 0353 A9020000 		.4byte	0x2a9
 841 0357 00       		.byte	0
 842 0358 03       		.uleb128 0x3
 843 0359 3B070000 		.4byte	.LASF53
 844 035d 09       		.byte	0x9
 845 035e 53       		.byte	0x53
 846 035f 63030000 		.4byte	0x363
 847 0363 07       		.uleb128 0x7
 848 0364 3B070000 		.4byte	.LASF53
 849 0368 14       		.byte	0x14
 850 0369 09       		.byte	0x9
 851 036a 5A       		.byte	0x5a
 852 036b AC030000 		.4byte	0x3ac
 853 036f 08       		.uleb128 0x8
 854 0370 5E030000 		.4byte	.LASF54
 855 0374 09       		.byte	0x9
ARM GAS  /var/folders/3j/4xdnk5197cv_b7cw3n33qk7r0000gn/T//cczlz7sX.s 			page 16


 856 0375 5B       		.byte	0x5b
 857 0376 AC030000 		.4byte	0x3ac
 858 037a 00       		.byte	0
 859 037b 08       		.uleb128 0x8
 860 037c 13030000 		.4byte	.LASF55
 861 0380 09       		.byte	0x9
 862 0381 5D       		.byte	0x5d
 863 0382 AC030000 		.4byte	0x3ac
 864 0386 04       		.byte	0x4
 865 0387 08       		.uleb128 0x8
 866 0388 C4040000 		.4byte	.LASF56
 867 038c 09       		.byte	0x9
 868 038d 5F       		.byte	0x5f
 869 038e 35010000 		.4byte	0x135
 870 0392 08       		.byte	0x8
 871 0393 08       		.uleb128 0x8
 872 0394 EC040000 		.4byte	.LASF57
 873 0398 09       		.byte	0x9
 874 0399 60       		.byte	0x60
 875 039a 3C030000 		.4byte	0x33c
 876 039e 0C       		.byte	0xc
 877 039f 08       		.uleb128 0x8
 878 03a0 34080000 		.4byte	.LASF58
 879 03a4 09       		.byte	0x9
 880 03a5 62       		.byte	0x62
 881 03a6 A9020000 		.4byte	0x2a9
 882 03aa 10       		.byte	0x10
 883 03ab 00       		.byte	0
 884 03ac 0B       		.uleb128 0xb
 885 03ad 04       		.byte	0x4
 886 03ae 58030000 		.4byte	0x358
 887 03b2 0A       		.uleb128 0xa
 888 03b3 10       		.byte	0x10
 889 03b4 09       		.byte	0x9
 890 03b5 6C       		.byte	0x6c
 891 03b6 EB030000 		.4byte	0x3eb
 892 03ba 08       		.uleb128 0x8
 893 03bb 5E030000 		.4byte	.LASF54
 894 03bf 09       		.byte	0x9
 895 03c0 6D       		.byte	0x6d
 896 03c1 AC030000 		.4byte	0x3ac
 897 03c5 00       		.byte	0
 898 03c6 08       		.uleb128 0x8
 899 03c7 13030000 		.4byte	.LASF55
 900 03cb 09       		.byte	0x9
 901 03cc 6F       		.byte	0x6f
 902 03cd AC030000 		.4byte	0x3ac
 903 03d1 04       		.byte	0x4
 904 03d2 08       		.uleb128 0x8
 905 03d3 C4040000 		.4byte	.LASF56
 906 03d7 09       		.byte	0x9
 907 03d8 71       		.byte	0x71
 908 03d9 35010000 		.4byte	0x135
 909 03dd 08       		.byte	0x8
 910 03de 08       		.uleb128 0x8
 911 03df DF080000 		.4byte	.LASF59
 912 03e3 09       		.byte	0x9
ARM GAS  /var/folders/3j/4xdnk5197cv_b7cw3n33qk7r0000gn/T//cczlz7sX.s 			page 17


 913 03e4 72       		.byte	0x72
 914 03e5 40010000 		.4byte	0x140
 915 03e9 0C       		.byte	0xc
 916 03ea 00       		.byte	0
 917 03eb 03       		.uleb128 0x3
 918 03ec 12090000 		.4byte	.LASF60
 919 03f0 09       		.byte	0x9
 920 03f1 73       		.byte	0x73
 921 03f2 B2030000 		.4byte	0x3b2
 922 03f6 0F       		.uleb128 0xf
 923 03f7 48000000 		.4byte	.LASF68
 924 03fb 09       		.byte	0x9
 925 03fc D1       		.byte	0xd1
 926 03fd EB030000 		.4byte	0x3eb
 927 0401 0A       		.uleb128 0xa
 928 0402 1C       		.byte	0x1c
 929 0403 0A       		.byte	0xa
 930 0404 57       		.byte	0x57
 931 0405 52040000 		.4byte	0x452
 932 0409 08       		.uleb128 0x8
 933 040a 33070000 		.4byte	.LASF61
 934 040e 0A       		.byte	0xa
 935 040f 58       		.byte	0x58
 936 0410 68020000 		.4byte	0x268
 937 0414 00       		.byte	0
 938 0415 08       		.uleb128 0x8
 939 0416 9F060000 		.4byte	.LASF62
 940 041a 0A       		.byte	0xa
 941 041b 59       		.byte	0x59
 942 041c 09010000 		.4byte	0x109
 943 0420 08       		.byte	0x8
 944 0421 08       		.uleb128 0x8
 945 0422 2D050000 		.4byte	.LASF63
 946 0426 0A       		.byte	0xa
 947 0427 5B       		.byte	0x5b
 948 0428 1D030000 		.4byte	0x31d
 949 042c 0C       		.byte	0xc
 950 042d 08       		.uleb128 0x8
 951 042e 16040000 		.4byte	.LASF64
 952 0432 0A       		.byte	0xa
 953 0433 5E       		.byte	0x5e
 954 0434 62020000 		.4byte	0x262
 955 0438 10       		.byte	0x10
 956 0439 08       		.uleb128 0x8
 957 043a 5A050000 		.4byte	.LASF65
 958 043e 0A       		.byte	0xa
 959 043f 5F       		.byte	0x5f
 960 0440 62020000 		.4byte	0x262
 961 0444 14       		.byte	0x14
 962 0445 08       		.uleb128 0x8
 963 0446 50050000 		.4byte	.LASF66
 964 044a 0A       		.byte	0xa
 965 044b 62       		.byte	0x62
 966 044c 62020000 		.4byte	0x262
 967 0450 18       		.byte	0x18
 968 0451 00       		.byte	0
 969 0452 03       		.uleb128 0x3
ARM GAS  /var/folders/3j/4xdnk5197cv_b7cw3n33qk7r0000gn/T//cczlz7sX.s 			page 18


 970 0453 7A080000 		.4byte	.LASF67
 971 0457 0A       		.byte	0xa
 972 0458 64       		.byte	0x64
 973 0459 01040000 		.4byte	0x401
 974 045d 0F       		.uleb128 0xf
 975 045e 8D080000 		.4byte	.LASF69
 976 0462 0A       		.byte	0xa
 977 0463 68       		.byte	0x68
 978 0464 52040000 		.4byte	0x452
 979 0468 07       		.uleb128 0x7
 980 0469 79040000 		.4byte	.LASF70
 981 046d 10       		.byte	0x10
 982 046e 0B       		.byte	0xb
 983 046f 25       		.byte	0x25
 984 0470 99040000 		.4byte	0x499
 985 0474 08       		.uleb128 0x8
 986 0475 28010000 		.4byte	.LASF71
 987 0479 0B       		.byte	0xb
 988 047a 26       		.byte	0x26
 989 047b 68020000 		.4byte	0x268
 990 047f 00       		.byte	0
 991 0480 08       		.uleb128 0x8
 992 0481 2A090000 		.4byte	.LASF72
 993 0485 0B       		.byte	0xb
 994 0486 28       		.byte	0x28
 995 0487 62020000 		.4byte	0x262
 996 048b 08       		.byte	0x8
 997 048c 08       		.uleb128 0x8
 998 048d 93070000 		.4byte	.LASF73
 999 0491 0B       		.byte	0xb
 1000 0492 2A       		.byte	0x2a
 1001 0493 99040000 		.4byte	0x499
 1002 0497 0C       		.byte	0xc
 1003 0498 00       		.byte	0
 1004 0499 0B       		.uleb128 0xb
 1005 049a 04       		.byte	0x4
 1006 049b 68040000 		.4byte	0x468
 1007 049f 03       		.uleb128 0x3
 1008 04a0 79040000 		.4byte	.LASF70
 1009 04a4 0B       		.byte	0xb
 1010 04a5 2C       		.byte	0x2c
 1011 04a6 68040000 		.4byte	0x468
 1012 04aa 03       		.uleb128 0x3
 1013 04ab BA080000 		.4byte	.LASF74
 1014 04af 0C       		.byte	0xc
 1015 04b0 25       		.byte	0x25
 1016 04b1 B5040000 		.4byte	0x4b5
 1017 04b5 07       		.uleb128 0x7
 1018 04b6 BA080000 		.4byte	.LASF74
 1019 04ba 10       		.byte	0x10
 1020 04bb 0C       		.byte	0xc
 1021 04bc 2A       		.byte	0x2a
 1022 04bd F2040000 		.4byte	0x4f2
 1023 04c1 08       		.uleb128 0x8
 1024 04c2 1E040000 		.4byte	.LASF75
 1025 04c6 0C       		.byte	0xc
 1026 04c7 2B       		.byte	0x2b
ARM GAS  /var/folders/3j/4xdnk5197cv_b7cw3n33qk7r0000gn/T//cczlz7sX.s 			page 19


 1027 04c8 F2040000 		.4byte	0x4f2
 1028 04cc 00       		.byte	0
 1029 04cd 08       		.uleb128 0x8
 1030 04ce 0B060000 		.4byte	.LASF76
 1031 04d2 0C       		.byte	0xc
 1032 04d3 2E       		.byte	0x2e
 1033 04d4 62020000 		.4byte	0x262
 1034 04d8 04       		.byte	0x4
 1035 04d9 08       		.uleb128 0x8
 1036 04da 62050000 		.4byte	.LASF77
 1037 04de 0C       		.byte	0xc
 1038 04df 30       		.byte	0x30
 1039 04e0 1F010000 		.4byte	0x11f
 1040 04e4 08       		.byte	0x8
 1041 04e5 08       		.uleb128 0x8
 1042 04e6 64060000 		.4byte	.LASF78
 1043 04ea 0C       		.byte	0xc
 1044 04eb 33       		.byte	0x33
 1045 04ec 2A010000 		.4byte	0x12a
 1046 04f0 0C       		.byte	0xc
 1047 04f1 00       		.byte	0
 1048 04f2 0B       		.uleb128 0xb
 1049 04f3 04       		.byte	0x4
 1050 04f4 AA040000 		.4byte	0x4aa
 1051 04f8 07       		.uleb128 0x7
 1052 04f9 40030000 		.4byte	.LASF79
 1053 04fd 04       		.byte	0x4
 1054 04fe 0C       		.byte	0xc
 1055 04ff 3A       		.byte	0x3a
 1056 0500 11050000 		.4byte	0x511
 1057 0504 08       		.uleb128 0x8
 1058 0505 EA080000 		.4byte	.LASF80
 1059 0509 0C       		.byte	0xc
 1060 050a 3B       		.byte	0x3b
 1061 050b F2040000 		.4byte	0x4f2
 1062 050f 00       		.byte	0
 1063 0510 00       		.byte	0
 1064 0511 03       		.uleb128 0x3
 1065 0512 40030000 		.4byte	.LASF79
 1066 0516 0C       		.byte	0xc
 1067 0517 3E       		.byte	0x3e
 1068 0518 F8040000 		.4byte	0x4f8
 1069 051c 10       		.uleb128 0x10
 1070 051d 04       		.byte	0x4
 1071 051e 07       		.byte	0x7
 1072 051f 8F       		.byte	0x8f
 1073 0520 51050000 		.4byte	0x551
 1074 0524 11       		.uleb128 0x11
 1075 0525 1A000000 		.4byte	.LASF81
 1076 0529 07       		.byte	0x7
 1077 052a 96       		.byte	0x96
 1078 052b 14010000 		.4byte	0x114
 1079 052f 11       		.uleb128 0x11
 1080 0530 93000000 		.4byte	.LASF82
 1081 0534 07       		.byte	0x7
 1082 0535 9D       		.byte	0x9d
 1083 0536 14010000 		.4byte	0x114
ARM GAS  /var/folders/3j/4xdnk5197cv_b7cw3n33qk7r0000gn/T//cczlz7sX.s 			page 20


 1084 053a 11       		.uleb128 0x11
 1085 053b C8080000 		.4byte	.LASF83
 1086 053f 07       		.byte	0x7
 1087 0540 A4       		.byte	0xa4
 1088 0541 A9020000 		.4byte	0x2a9
 1089 0545 11       		.uleb128 0x11
 1090 0546 AF060000 		.4byte	.LASF84
 1091 054a 07       		.byte	0x7
 1092 054b AB       		.byte	0xab
 1093 054c 1F010000 		.4byte	0x11f
 1094 0550 00       		.byte	0
 1095 0551 0B       		.uleb128 0xb
 1096 0552 04       		.byte	0x4
 1097 0553 5E050000 		.4byte	0x55e
 1098 0557 04       		.uleb128 0x4
 1099 0558 01       		.byte	0x1
 1100 0559 08       		.byte	0x8
 1101 055a 64070000 		.4byte	.LASF85
 1102 055e 06       		.uleb128 0x6
 1103 055f 57050000 		.4byte	0x557
 1104 0563 0B       		.uleb128 0xb
 1105 0564 04       		.byte	0x4
 1106 0565 9F040000 		.4byte	0x49f
 1107 0569 0B       		.uleb128 0xb
 1108 056a 04       		.byte	0x4
 1109 056b 6F050000 		.4byte	0x56f
 1110 056f 12       		.uleb128 0x12
 1111 0570 14010000 		.4byte	0x114
 1112 0574 7E050000 		.4byte	0x57e
 1113 0578 0E       		.uleb128 0xe
 1114 0579 A9020000 		.4byte	0x2a9
 1115 057d 00       		.byte	0
 1116 057e 0A       		.uleb128 0xa
 1117 057f 16       		.byte	0x16
 1118 0580 0D       		.byte	0xd
 1119 0581 25       		.byte	0x25
 1120 0582 5F060000 		.4byte	0x65f
 1121 0586 08       		.uleb128 0x8
 1122 0587 B3030000 		.4byte	.LASF86
 1123 058b 0D       		.byte	0xd
 1124 058c 26       		.byte	0x26
 1125 058d 5F060000 		.4byte	0x65f
 1126 0591 00       		.byte	0
 1127 0592 08       		.uleb128 0x8
 1128 0593 A5040000 		.4byte	.LASF87
 1129 0597 0D       		.byte	0xd
 1130 0598 27       		.byte	0x27
 1131 0599 A7000000 		.4byte	0xa7
 1132 059d 04       		.byte	0x4
 1133 059e 08       		.uleb128 0x8
 1134 059f 40050000 		.4byte	.LASF88
 1135 05a3 0D       		.byte	0xd
 1136 05a4 28       		.byte	0x28
 1137 05a5 A7000000 		.4byte	0xa7
 1138 05a9 05       		.byte	0x5
 1139 05aa 08       		.uleb128 0x8
 1140 05ab FC080000 		.4byte	.LASF89
ARM GAS  /var/folders/3j/4xdnk5197cv_b7cw3n33qk7r0000gn/T//cczlz7sX.s 			page 21


 1141 05af 0D       		.byte	0xd
 1142 05b0 29       		.byte	0x29
 1143 05b1 B7000000 		.4byte	0xb7
 1144 05b5 06       		.byte	0x6
 1145 05b6 08       		.uleb128 0x8
 1146 05b7 B8050000 		.4byte	.LASF90
 1147 05bb 0D       		.byte	0xd
 1148 05bc 2A       		.byte	0x2a
 1149 05bd A7000000 		.4byte	0xa7
 1150 05c1 08       		.byte	0x8
 1151 05c2 08       		.uleb128 0x8
 1152 05c3 F4040000 		.4byte	.LASF91
 1153 05c7 0D       		.byte	0xd
 1154 05c8 2B       		.byte	0x2b
 1155 05c9 A7000000 		.4byte	0xa7
 1156 05cd 09       		.byte	0x9
 1157 05ce 08       		.uleb128 0x8
 1158 05cf 85000000 		.4byte	.LASF92
 1159 05d3 0D       		.byte	0xd
 1160 05d4 2C       		.byte	0x2c
 1161 05d5 A7000000 		.4byte	0xa7
 1162 05d9 0A       		.byte	0xa
 1163 05da 08       		.uleb128 0x8
 1164 05db 27070000 		.4byte	.LASF93
 1165 05df 0D       		.byte	0xd
 1166 05e0 2D       		.byte	0x2d
 1167 05e1 A7000000 		.4byte	0xa7
 1168 05e5 0B       		.byte	0xb
 1169 05e6 08       		.uleb128 0x8
 1170 05e7 61080000 		.4byte	.LASF94
 1171 05eb 0D       		.byte	0xd
 1172 05ec 2E       		.byte	0x2e
 1173 05ed A7000000 		.4byte	0xa7
 1174 05f1 0C       		.byte	0xc
 1175 05f2 08       		.uleb128 0x8
 1176 05f3 F1060000 		.4byte	.LASF95
 1177 05f7 0D       		.byte	0xd
 1178 05f8 2F       		.byte	0x2f
 1179 05f9 A7000000 		.4byte	0xa7
 1180 05fd 0D       		.byte	0xd
 1181 05fe 08       		.uleb128 0x8
 1182 05ff 00000000 		.4byte	.LASF96
 1183 0603 0D       		.byte	0xd
 1184 0604 30       		.byte	0x30
 1185 0605 A7000000 		.4byte	0xa7
 1186 0609 0E       		.byte	0xe
 1187 060a 08       		.uleb128 0x8
 1188 060b 09050000 		.4byte	.LASF97
 1189 060f 0D       		.byte	0xd
 1190 0610 31       		.byte	0x31
 1191 0611 A7000000 		.4byte	0xa7
 1192 0615 0F       		.byte	0xf
 1193 0616 08       		.uleb128 0x8
 1194 0617 FA000000 		.4byte	.LASF98
 1195 061b 0D       		.byte	0xd
 1196 061c 32       		.byte	0x32
 1197 061d A7000000 		.4byte	0xa7
ARM GAS  /var/folders/3j/4xdnk5197cv_b7cw3n33qk7r0000gn/T//cczlz7sX.s 			page 22


 1198 0621 10       		.byte	0x10
 1199 0622 08       		.uleb128 0x8
 1200 0623 BC000000 		.4byte	.LASF99
 1201 0627 0D       		.byte	0xd
 1202 0628 34       		.byte	0x34
 1203 0629 A7000000 		.4byte	0xa7
 1204 062d 11       		.byte	0x11
 1205 062e 08       		.uleb128 0x8
 1206 062f 13010000 		.4byte	.LASF100
 1207 0633 0D       		.byte	0xd
 1208 0634 35       		.byte	0x35
 1209 0635 A7000000 		.4byte	0xa7
 1210 0639 12       		.byte	0x12
 1211 063a 08       		.uleb128 0x8
 1212 063b AD040000 		.4byte	.LASF101
 1213 063f 0D       		.byte	0xd
 1214 0640 36       		.byte	0x36
 1215 0641 A7000000 		.4byte	0xa7
 1216 0645 13       		.byte	0x13
 1217 0646 08       		.uleb128 0x8
 1218 0647 C5060000 		.4byte	.LASF102
 1219 064b 0D       		.byte	0xd
 1220 064c 37       		.byte	0x37
 1221 064d A7000000 		.4byte	0xa7
 1222 0651 14       		.byte	0x14
 1223 0652 08       		.uleb128 0x8
 1224 0653 93060000 		.4byte	.LASF103
 1225 0657 0D       		.byte	0xd
 1226 0658 39       		.byte	0x39
 1227 0659 A7000000 		.4byte	0xa7
 1228 065d 15       		.byte	0x15
 1229 065e 00       		.byte	0
 1230 065f 13       		.uleb128 0x13
 1231 0660 57050000 		.4byte	0x557
 1232 0664 6F060000 		.4byte	0x66f
 1233 0668 14       		.uleb128 0x14
 1234 0669 37000000 		.4byte	0x37
 1235 066d 03       		.byte	0x3
 1236 066e 00       		.byte	0
 1237 066f 03       		.uleb128 0x3
 1238 0670 7D020000 		.4byte	.LASF104
 1239 0674 0D       		.byte	0xd
 1240 0675 3A       		.byte	0x3a
 1241 0676 7E050000 		.4byte	0x57e
 1242 067a 06       		.uleb128 0x6
 1243 067b 6F060000 		.4byte	0x66f
 1244 067f 0F       		.uleb128 0xf
 1245 0680 9C030000 		.4byte	.LASF105
 1246 0684 0D       		.byte	0xd
 1247 0685 77       		.byte	0x77
 1248 0686 7A060000 		.4byte	0x67a
 1249 068a 03       		.uleb128 0x3
 1250 068b 8D040000 		.4byte	.LASF106
 1251 068f 0E       		.byte	0xe
 1252 0690 30       		.byte	0x30
 1253 0691 95060000 		.4byte	0x695
 1254 0695 07       		.uleb128 0x7
ARM GAS  /var/folders/3j/4xdnk5197cv_b7cw3n33qk7r0000gn/T//cczlz7sX.s 			page 23


 1255 0696 8D040000 		.4byte	.LASF106
 1256 069a 24       		.byte	0x24
 1257 069b 0E       		.byte	0xe
 1258 069c 3E       		.byte	0x3e
 1259 069d 02070000 		.4byte	0x702
 1260 06a1 08       		.uleb128 0x8
 1261 06a2 D6000000 		.4byte	.LASF107
 1262 06a6 0E       		.byte	0xe
 1263 06a7 3F       		.byte	0x3f
 1264 06a8 68020000 		.4byte	0x268
 1265 06ac 00       		.byte	0
 1266 06ad 08       		.uleb128 0x8
 1267 06ae E2040000 		.4byte	.LASF108
 1268 06b2 0E       		.byte	0xe
 1269 06b3 40       		.byte	0x40
 1270 06b4 2C000000 		.4byte	0x2c
 1271 06b8 08       		.byte	0x8
 1272 06b9 08       		.uleb128 0x8
 1273 06ba 66020000 		.4byte	.LASF109
 1274 06be 0E       		.byte	0xe
 1275 06bf 41       		.byte	0x41
 1276 06c0 24070000 		.4byte	0x724
 1277 06c4 0C       		.byte	0xc
 1278 06c5 08       		.uleb128 0x8
 1279 06c6 68000000 		.4byte	.LASF110
 1280 06ca 0E       		.byte	0xe
 1281 06cb 42       		.byte	0x42
 1282 06cc 24070000 		.4byte	0x724
 1283 06d0 10       		.byte	0x10
 1284 06d1 08       		.uleb128 0x8
 1285 06d2 25050000 		.4byte	.LASF111
 1286 06d6 0E       		.byte	0xe
 1287 06d7 44       		.byte	0x44
 1288 06d8 24070000 		.4byte	0x724
 1289 06dc 14       		.byte	0x14
 1290 06dd 08       		.uleb128 0x8
 1291 06de DC050000 		.4byte	.LASF112
 1292 06e2 0E       		.byte	0xe
 1293 06e3 45       		.byte	0x45
 1294 06e4 24070000 		.4byte	0x724
 1295 06e8 18       		.byte	0x18
 1296 06e9 08       		.uleb128 0x8
 1297 06ea 84080000 		.4byte	.LASF113
 1298 06ee 0E       		.byte	0xe
 1299 06ef 46       		.byte	0x46
 1300 06f0 02070000 		.4byte	0x702
 1301 06f4 1C       		.byte	0x1c
 1302 06f5 08       		.uleb128 0x8
 1303 06f6 19090000 		.4byte	.LASF114
 1304 06fa 0E       		.byte	0xe
 1305 06fb 47       		.byte	0x47
 1306 06fc A9020000 		.4byte	0x2a9
 1307 0700 20       		.byte	0x20
 1308 0701 00       		.byte	0
 1309 0702 03       		.uleb128 0x3
 1310 0703 C3050000 		.4byte	.LASF115
 1311 0707 0E       		.byte	0xe
ARM GAS  /var/folders/3j/4xdnk5197cv_b7cw3n33qk7r0000gn/T//cczlz7sX.s 			page 24


 1312 0708 33       		.byte	0x33
 1313 0709 0D070000 		.4byte	0x70d
 1314 070d 0B       		.uleb128 0xb
 1315 070e 04       		.byte	0x4
 1316 070f 13070000 		.4byte	0x713
 1317 0713 0D       		.uleb128 0xd
 1318 0714 1E070000 		.4byte	0x71e
 1319 0718 0E       		.uleb128 0xe
 1320 0719 1E070000 		.4byte	0x71e
 1321 071d 00       		.byte	0
 1322 071e 0B       		.uleb128 0xb
 1323 071f 04       		.byte	0x4
 1324 0720 8A060000 		.4byte	0x68a
 1325 0724 0B       		.uleb128 0xb
 1326 0725 04       		.byte	0x4
 1327 0726 A7000000 		.4byte	0xa7
 1328 072a 03       		.uleb128 0x3
 1329 072b 6E040000 		.4byte	.LASF116
 1330 072f 0E       		.byte	0xe
 1331 0730 7B       		.byte	0x7b
 1332 0731 8A060000 		.4byte	0x68a
 1333 0735 03       		.uleb128 0x3
 1334 0736 27000000 		.4byte	.LASF117
 1335 073a 0E       		.byte	0xe
 1336 073b EE       		.byte	0xee
 1337 073c 8A060000 		.4byte	0x68a
 1338 0740 12       		.uleb128 0x12
 1339 0741 2C000000 		.4byte	0x2c
 1340 0745 59070000 		.4byte	0x759
 1341 0749 0E       		.uleb128 0xe
 1342 074a A9020000 		.4byte	0x2a9
 1343 074e 0E       		.uleb128 0xe
 1344 074f 59070000 		.4byte	0x759
 1345 0753 0E       		.uleb128 0xe
 1346 0754 2C000000 		.4byte	0x2c
 1347 0758 00       		.byte	0
 1348 0759 0B       		.uleb128 0xb
 1349 075a 04       		.byte	0x4
 1350 075b B2000000 		.4byte	0xb2
 1351 075f 0B       		.uleb128 0xb
 1352 0760 04       		.byte	0x4
 1353 0761 40070000 		.4byte	0x740
 1354 0765 12       		.uleb128 0x12
 1355 0766 2C000000 		.4byte	0x2c
 1356 076a 7E070000 		.4byte	0x77e
 1357 076e 0E       		.uleb128 0xe
 1358 076f A9020000 		.4byte	0x2a9
 1359 0773 0E       		.uleb128 0xe
 1360 0774 24070000 		.4byte	0x724
 1361 0778 0E       		.uleb128 0xe
 1362 0779 2C000000 		.4byte	0x2c
 1363 077d 00       		.byte	0
 1364 077e 0B       		.uleb128 0xb
 1365 077f 04       		.byte	0x4
 1366 0780 65070000 		.4byte	0x765
 1367 0784 12       		.uleb128 0x12
 1368 0785 14010000 		.4byte	0x114
ARM GAS  /var/folders/3j/4xdnk5197cv_b7cw3n33qk7r0000gn/T//cczlz7sX.s 			page 25


 1369 0789 98070000 		.4byte	0x798
 1370 078d 0E       		.uleb128 0xe
 1371 078e A9020000 		.4byte	0x2a9
 1372 0792 0E       		.uleb128 0xe
 1373 0793 A7000000 		.4byte	0xa7
 1374 0797 00       		.byte	0
 1375 0798 0B       		.uleb128 0xb
 1376 0799 04       		.byte	0x4
 1377 079a 84070000 		.4byte	0x784
 1378 079e 13       		.uleb128 0x13
 1379 079f 93020000 		.4byte	0x293
 1380 07a3 AE070000 		.4byte	0x7ae
 1381 07a7 14       		.uleb128 0x14
 1382 07a8 37000000 		.4byte	0x37
 1383 07ac 26       		.byte	0x26
 1384 07ad 00       		.byte	0
 1385 07ae 0F       		.uleb128 0xf
 1386 07af A9020000 		.4byte	.LASF118
 1387 07b3 0F       		.byte	0xf
 1388 07b4 82       		.byte	0x82
 1389 07b5 9E070000 		.4byte	0x79e
 1390 07b9 07       		.uleb128 0x7
 1391 07ba 4F000000 		.4byte	.LASF119
 1392 07be 20       		.byte	0x20
 1393 07bf 10       		.byte	0x10
 1394 07c0 FD       		.byte	0xfd
 1395 07c1 2C080000 		.4byte	0x82c
 1396 07c5 08       		.uleb128 0x8
 1397 07c6 F2020000 		.4byte	.LASF120
 1398 07ca 10       		.byte	0x10
 1399 07cb FE       		.byte	0xfe
 1400 07cc 3E000000 		.4byte	0x3e
 1401 07d0 00       		.byte	0
 1402 07d1 08       		.uleb128 0x8
 1403 07d2 73080000 		.4byte	.LASF121
 1404 07d6 10       		.byte	0x10
 1405 07d7 FF       		.byte	0xff
 1406 07d8 3E000000 		.4byte	0x3e
 1407 07dc 04       		.byte	0x4
 1408 07dd 15       		.uleb128 0x15
 1409 07de 07090000 		.4byte	.LASF122
 1410 07e2 10       		.byte	0x10
 1411 07e3 0001     		.2byte	0x100
 1412 07e5 3E000000 		.4byte	0x3e
 1413 07e9 08       		.byte	0x8
 1414 07ea 15       		.uleb128 0x15
 1415 07eb 1B030000 		.4byte	.LASF123
 1416 07ef 10       		.byte	0x10
 1417 07f0 0101     		.2byte	0x101
 1418 07f2 3E000000 		.4byte	0x3e
 1419 07f6 0C       		.byte	0xc
 1420 07f7 15       		.uleb128 0x15
 1421 07f8 AC000000 		.4byte	.LASF124
 1422 07fc 10       		.byte	0x10
 1423 07fd 0201     		.2byte	0x102
 1424 07ff 3E000000 		.4byte	0x3e
 1425 0803 10       		.byte	0x10
ARM GAS  /var/folders/3j/4xdnk5197cv_b7cw3n33qk7r0000gn/T//cczlz7sX.s 			page 26


 1426 0804 15       		.uleb128 0x15
 1427 0805 D5040000 		.4byte	.LASF125
 1428 0809 10       		.byte	0x10
 1429 080a 0301     		.2byte	0x103
 1430 080c 3E000000 		.4byte	0x3e
 1431 0810 14       		.byte	0x14
 1432 0811 15       		.uleb128 0x15
 1433 0812 56020000 		.4byte	.LASF126
 1434 0816 10       		.byte	0x10
 1435 0817 0401     		.2byte	0x104
 1436 0819 3E000000 		.4byte	0x3e
 1437 081d 18       		.byte	0x18
 1438 081e 15       		.uleb128 0x15
 1439 081f 5D090000 		.4byte	.LASF127
 1440 0823 10       		.byte	0x10
 1441 0824 0501     		.2byte	0x105
 1442 0826 3E000000 		.4byte	0x3e
 1443 082a 1C       		.byte	0x1c
 1444 082b 00       		.byte	0
 1445 082c 16       		.uleb128 0x16
 1446 082d 4F000000 		.4byte	.LASF119
 1447 0831 10       		.byte	0x10
 1448 0832 0801     		.2byte	0x108
 1449 0834 B9070000 		.4byte	0x7b9
 1450 0838 12       		.uleb128 0x12
 1451 0839 14010000 		.4byte	0x114
 1452 083d 51080000 		.4byte	0x851
 1453 0841 0E       		.uleb128 0xe
 1454 0842 A9020000 		.4byte	0x2a9
 1455 0846 0E       		.uleb128 0xe
 1456 0847 A7000000 		.4byte	0xa7
 1457 084b 0E       		.uleb128 0xe
 1458 084c 35010000 		.4byte	0x135
 1459 0850 00       		.byte	0
 1460 0851 0B       		.uleb128 0xb
 1461 0852 04       		.byte	0x4
 1462 0853 38080000 		.4byte	0x838
 1463 0857 12       		.uleb128 0x12
 1464 0858 14010000 		.4byte	0x114
 1465 085c 6B080000 		.4byte	0x86b
 1466 0860 0E       		.uleb128 0xe
 1467 0861 A9020000 		.4byte	0x2a9
 1468 0865 0E       		.uleb128 0xe
 1469 0866 35010000 		.4byte	0x135
 1470 086a 00       		.byte	0
 1471 086b 0B       		.uleb128 0xb
 1472 086c 04       		.byte	0x4
 1473 086d 57080000 		.4byte	0x857
 1474 0871 12       		.uleb128 0x12
 1475 0872 2C000000 		.4byte	0x2c
 1476 0876 8F080000 		.4byte	0x88f
 1477 087a 0E       		.uleb128 0xe
 1478 087b A9020000 		.4byte	0x2a9
 1479 087f 0E       		.uleb128 0xe
 1480 0880 59070000 		.4byte	0x759
 1481 0884 0E       		.uleb128 0xe
 1482 0885 2C000000 		.4byte	0x2c
ARM GAS  /var/folders/3j/4xdnk5197cv_b7cw3n33qk7r0000gn/T//cczlz7sX.s 			page 27


 1483 0889 0E       		.uleb128 0xe
 1484 088a 35010000 		.4byte	0x135
 1485 088e 00       		.byte	0
 1486 088f 0B       		.uleb128 0xb
 1487 0890 04       		.byte	0x4
 1488 0891 71080000 		.4byte	0x871
 1489 0895 12       		.uleb128 0x12
 1490 0896 2C000000 		.4byte	0x2c
 1491 089a B3080000 		.4byte	0x8b3
 1492 089e 0E       		.uleb128 0xe
 1493 089f A9020000 		.4byte	0x2a9
 1494 08a3 0E       		.uleb128 0xe
 1495 08a4 24070000 		.4byte	0x724
 1496 08a8 0E       		.uleb128 0xe
 1497 08a9 2C000000 		.4byte	0x2c
 1498 08ad 0E       		.uleb128 0xe
 1499 08ae 35010000 		.4byte	0x135
 1500 08b2 00       		.byte	0
 1501 08b3 0B       		.uleb128 0xb
 1502 08b4 04       		.byte	0x4
 1503 08b5 95080000 		.4byte	0x895
 1504 08b9 0A       		.uleb128 0xa
 1505 08ba 18       		.byte	0x18
 1506 08bb 11       		.byte	0x11
 1507 08bc 2A       		.byte	0x2a
 1508 08bd 0A090000 		.4byte	0x90a
 1509 08c1 08       		.uleb128 0x8
 1510 08c2 B4080000 		.4byte	.LASF128
 1511 08c6 11       		.byte	0x11
 1512 08c7 2F       		.byte	0x2f
 1513 08c8 CD000000 		.4byte	0xcd
 1514 08cc 00       		.byte	0
 1515 08cd 08       		.uleb128 0x8
 1516 08ce 6A050000 		.4byte	.LASF129
 1517 08d2 11       		.byte	0x11
 1518 08d3 31       		.byte	0x31
 1519 08d4 0A090000 		.4byte	0x90a
 1520 08d8 04       		.byte	0x4
 1521 08d9 08       		.uleb128 0x8
 1522 08da 03040000 		.4byte	.LASF130
 1523 08de 11       		.byte	0x11
 1524 08df 32       		.byte	0x32
 1525 08e0 0A090000 		.4byte	0x90a
 1526 08e4 08       		.byte	0x8
 1527 08e5 08       		.uleb128 0x8
 1528 08e6 B9040000 		.4byte	.LASF131
 1529 08ea 11       		.byte	0x11
 1530 08eb 33       		.byte	0x33
 1531 08ec 0A090000 		.4byte	0x90a
 1532 08f0 0C       		.byte	0xc
 1533 08f1 08       		.uleb128 0x8
 1534 08f2 70050000 		.4byte	.LASF132
 1535 08f6 11       		.byte	0x11
 1536 08f7 34       		.byte	0x34
 1537 08f8 0A090000 		.4byte	0x90a
 1538 08fc 10       		.byte	0x10
 1539 08fd 08       		.uleb128 0x8
ARM GAS  /var/folders/3j/4xdnk5197cv_b7cw3n33qk7r0000gn/T//cczlz7sX.s 			page 28


 1540 08fe A6060000 		.4byte	.LASF133
 1541 0902 11       		.byte	0x11
 1542 0903 35       		.byte	0x35
 1543 0904 37000000 		.4byte	0x37
 1544 0908 14       		.byte	0x14
 1545 0909 00       		.byte	0
 1546 090a 0B       		.uleb128 0xb
 1547 090b 04       		.byte	0x4
 1548 090c D8000000 		.4byte	0xd8
 1549 0910 03       		.uleb128 0x3
 1550 0911 F7030000 		.4byte	.LASF134
 1551 0915 11       		.byte	0x11
 1552 0916 37       		.byte	0x37
 1553 0917 B9080000 		.4byte	0x8b9
 1554 091b 17       		.uleb128 0x17
 1555 091c 00       		.byte	0
 1556 091d 11       		.byte	0x11
 1557 091e 43       		.byte	0x43
 1558 091f 03       		.uleb128 0x3
 1559 0920 20090000 		.4byte	.LASF135
 1560 0924 11       		.byte	0x11
 1561 0925 45       		.byte	0x45
 1562 0926 1B090000 		.4byte	0x91b
 1563 092a 06       		.uleb128 0x6
 1564 092b 1F090000 		.4byte	0x91f
 1565 092f 03       		.uleb128 0x3
 1566 0930 5B000000 		.4byte	.LASF136
 1567 0934 11       		.byte	0x11
 1568 0935 55       		.byte	0x55
 1569 0936 CD000000 		.4byte	0xcd
 1570 093a 03       		.uleb128 0x3
 1571 093b CD070000 		.4byte	.LASF137
 1572 093f 11       		.byte	0x11
 1573 0940 62       		.byte	0x62
 1574 0941 45090000 		.4byte	0x945
 1575 0945 0B       		.uleb128 0xb
 1576 0946 04       		.byte	0x4
 1577 0947 10090000 		.4byte	0x910
 1578 094b 0F       		.uleb128 0xf
 1579 094c 48050000 		.4byte	.LASF138
 1580 0950 11       		.byte	0x11
 1581 0951 6D       		.byte	0x6d
 1582 0952 10090000 		.4byte	0x910
 1583 0956 0F       		.uleb128 0xf
 1584 0957 BD060000 		.4byte	.LASF139
 1585 095b 11       		.byte	0x11
 1586 095c 6E       		.byte	0x6e
 1587 095d 10090000 		.4byte	0x910
 1588 0961 0F       		.uleb128 0xf
 1589 0962 32090000 		.4byte	.LASF140
 1590 0966 11       		.byte	0x11
 1591 0967 75       		.byte	0x75
 1592 0968 2A090000 		.4byte	0x92a
 1593 096c 18       		.uleb128 0x18
 1594 096d 07       		.byte	0x7
 1595 096e 01       		.byte	0x1
 1596 096f 55000000 		.4byte	0x55
ARM GAS  /var/folders/3j/4xdnk5197cv_b7cw3n33qk7r0000gn/T//cczlz7sX.s 			page 29


 1597 0973 12       		.byte	0x12
 1598 0974 54       		.byte	0x54
 1599 0975 9E090000 		.4byte	0x99e
 1600 0979 19       		.uleb128 0x19
 1601 097a F6010000 		.4byte	.LASF141
 1602 097e 00       		.byte	0
 1603 097f 19       		.uleb128 0x19
 1604 0980 CC040000 		.4byte	.LASF142
 1605 0984 01       		.byte	0x1
 1606 0985 19       		.uleb128 0x19
 1607 0986 B9070000 		.4byte	.LASF143
 1608 098a 02       		.byte	0x2
 1609 098b 19       		.uleb128 0x19
 1610 098c 87020000 		.4byte	.LASF144
 1611 0990 03       		.byte	0x3
 1612 0991 19       		.uleb128 0x19
 1613 0992 7F040000 		.4byte	.LASF145
 1614 0996 04       		.byte	0x4
 1615 0997 19       		.uleb128 0x19
 1616 0998 FE060000 		.4byte	.LASF146
 1617 099c 05       		.byte	0x5
 1618 099d 00       		.byte	0
 1619 099e 03       		.uleb128 0x3
 1620 099f AD050000 		.4byte	.LASF147
 1621 09a3 12       		.byte	0x12
 1622 09a4 5B       		.byte	0x5b
 1623 09a5 6C090000 		.4byte	0x96c
 1624 09a9 03       		.uleb128 0x3
 1625 09aa C3070000 		.4byte	.LASF148
 1626 09ae 13       		.byte	0x13
 1627 09af 38       		.byte	0x38
 1628 09b0 B4090000 		.4byte	0x9b4
 1629 09b4 07       		.uleb128 0x7
 1630 09b5 C3070000 		.4byte	.LASF148
 1631 09b9 40       		.byte	0x40
 1632 09ba 13       		.byte	0x13
 1633 09bb 62       		.byte	0x62
 1634 09bc 5D0A0000 		.4byte	0xa5d
 1635 09c0 08       		.uleb128 0x8
 1636 09c1 0B020000 		.4byte	.LASF149
 1637 09c5 13       		.byte	0x13
 1638 09c6 64       		.byte	0x64
 1639 09c7 9E090000 		.4byte	0x99e
 1640 09cb 00       		.byte	0
 1641 09cc 08       		.uleb128 0x8
 1642 09cd 76070000 		.4byte	.LASF150
 1643 09d1 13       		.byte	0x13
 1644 09d2 66       		.byte	0x66
 1645 09d3 980A0000 		.4byte	0xa98
 1646 09d7 04       		.byte	0x4
 1647 09d8 08       		.uleb128 0x8
 1648 09d9 7C030000 		.4byte	.LASF151
 1649 09dd 13       		.byte	0x13
 1650 09de 68       		.byte	0x68
 1651 09df 5D0A0000 		.4byte	0xa5d
 1652 09e3 08       		.byte	0x8
 1653 09e4 08       		.uleb128 0x8
ARM GAS  /var/folders/3j/4xdnk5197cv_b7cw3n33qk7r0000gn/T//cczlz7sX.s 			page 30


 1654 09e5 CF000000 		.4byte	.LASF152
 1655 09e9 13       		.byte	0x13
 1656 09ea 6A       		.byte	0x6a
 1657 09eb 9E0A0000 		.4byte	0xa9e
 1658 09ef 0C       		.byte	0xc
 1659 09f0 08       		.uleb128 0x8
 1660 09f1 EF050000 		.4byte	.LASF153
 1661 09f5 13       		.byte	0x13
 1662 09f6 6D       		.byte	0x6d
 1663 09f7 9F040000 		.4byte	0x49f
 1664 09fb 10       		.byte	0x10
 1665 09fc 08       		.uleb128 0x8
 1666 09fd 4F020000 		.4byte	.LASF154
 1667 0a01 13       		.byte	0x13
 1668 0a02 77       		.byte	0x77
 1669 0a03 62020000 		.4byte	0x262
 1670 0a07 20       		.byte	0x20
 1671 0a08 08       		.uleb128 0x8
 1672 0a09 30010000 		.4byte	.LASF155
 1673 0a0d 13       		.byte	0x13
 1674 0a0e 7B       		.byte	0x7b
 1675 0a0f 680A0000 		.4byte	0xa68
 1676 0a13 24       		.byte	0x24
 1677 0a14 08       		.uleb128 0x8
 1678 0a15 66030000 		.4byte	.LASF156
 1679 0a19 13       		.byte	0x13
 1680 0a1a 7F       		.byte	0x7f
 1681 0a1b 59070000 		.4byte	0x759
 1682 0a1f 28       		.byte	0x28
 1683 0a20 08       		.uleb128 0x8
 1684 0a21 55090000 		.4byte	.LASF157
 1685 0a25 13       		.byte	0x13
 1686 0a26 83       		.byte	0x83
 1687 0a27 2C000000 		.4byte	0x2c
 1688 0a2b 2C       		.byte	0x2c
 1689 0a2c 08       		.uleb128 0x8
 1690 0a2d 5B080000 		.4byte	.LASF158
 1691 0a31 13       		.byte	0x13
 1692 0a32 87       		.byte	0x87
 1693 0a33 2C000000 		.4byte	0x2c
 1694 0a37 30       		.byte	0x30
 1695 0a38 08       		.uleb128 0x8
 1696 0a39 A6000000 		.4byte	.LASF159
 1697 0a3d 13       		.byte	0x13
 1698 0a3e 8B       		.byte	0x8b
 1699 0a3f 24070000 		.4byte	0x724
 1700 0a43 34       		.byte	0x34
 1701 0a44 08       		.uleb128 0x8
 1702 0a45 1D050000 		.4byte	.LASF160
 1703 0a49 13       		.byte	0x13
 1704 0a4a 8F       		.byte	0x8f
 1705 0a4b 2C000000 		.4byte	0x2c
 1706 0a4f 38       		.byte	0x38
 1707 0a50 08       		.uleb128 0x8
 1708 0a51 60020000 		.4byte	.LASF161
 1709 0a55 13       		.byte	0x13
 1710 0a56 93       		.byte	0x93
ARM GAS  /var/folders/3j/4xdnk5197cv_b7cw3n33qk7r0000gn/T//cczlz7sX.s 			page 31


 1711 0a57 2C000000 		.4byte	0x2c
 1712 0a5b 3C       		.byte	0x3c
 1713 0a5c 00       		.byte	0
 1714 0a5d 03       		.uleb128 0x3
 1715 0a5e E4050000 		.4byte	.LASF162
 1716 0a62 13       		.byte	0x13
 1717 0a63 42       		.byte	0x42
 1718 0a64 CD000000 		.4byte	0xcd
 1719 0a68 03       		.uleb128 0x3
 1720 0a69 01020000 		.4byte	.LASF163
 1721 0a6d 13       		.byte	0x13
 1722 0a6e 48       		.byte	0x48
 1723 0a6f B7000000 		.4byte	0xb7
 1724 0a73 0A       		.uleb128 0xa
 1725 0a74 04       		.byte	0x4
 1726 0a75 13       		.byte	0x13
 1727 0a76 57       		.byte	0x57
 1728 0a77 880A0000 		.4byte	0xa88
 1729 0a7b 08       		.uleb128 0x8
 1730 0a7c 00050000 		.4byte	.LASF164
 1731 0a80 13       		.byte	0x13
 1732 0a81 59       		.byte	0x59
 1733 0a82 CD000000 		.4byte	0xcd
 1734 0a86 00       		.byte	0
 1735 0a87 00       		.byte	0
 1736 0a88 03       		.uleb128 0x3
 1737 0a89 47080000 		.4byte	.LASF165
 1738 0a8d 13       		.byte	0x13
 1739 0a8e 5B       		.byte	0x5b
 1740 0a8f 730A0000 		.4byte	0xa73
 1741 0a93 06       		.uleb128 0x6
 1742 0a94 880A0000 		.4byte	0xa88
 1743 0a98 0B       		.uleb128 0xb
 1744 0a99 04       		.byte	0x4
 1745 0a9a 930A0000 		.4byte	0xa93
 1746 0a9e 0B       		.uleb128 0xb
 1747 0a9f 04       		.byte	0x4
 1748 0aa0 2C080000 		.4byte	0x82c
 1749 0aa4 0F       		.uleb128 0xf
 1750 0aa5 36030000 		.4byte	.LASF166
 1751 0aa9 13       		.byte	0x13
 1752 0aaa A6       		.byte	0xa6
 1753 0aab A9090000 		.4byte	0x9a9
 1754 0aaf 18       		.uleb128 0x18
 1755 0ab0 07       		.byte	0x7
 1756 0ab1 01       		.byte	0x1
 1757 0ab2 55000000 		.4byte	0x55
 1758 0ab6 14       		.byte	0x14
 1759 0ab7 5D       		.byte	0x5d
 1760 0ab8 CF0A0000 		.4byte	0xacf
 1761 0abc 19       		.uleb128 0x19
 1762 0abd 14070000 		.4byte	.LASF167
 1763 0ac1 00       		.byte	0
 1764 0ac2 19       		.uleb128 0x19
 1765 0ac3 20010000 		.4byte	.LASF168
 1766 0ac7 01       		.byte	0x1
 1767 0ac8 19       		.uleb128 0x19
ARM GAS  /var/folders/3j/4xdnk5197cv_b7cw3n33qk7r0000gn/T//cczlz7sX.s 			page 32


 1768 0ac9 16080000 		.4byte	.LASF169
 1769 0acd 02       		.byte	0x2
 1770 0ace 00       		.byte	0
 1771 0acf 03       		.uleb128 0x3
 1772 0ad0 51080000 		.4byte	.LASF170
 1773 0ad4 14       		.byte	0x14
 1774 0ad5 61       		.byte	0x61
 1775 0ad6 AF0A0000 		.4byte	0xaaf
 1776 0ada 03       		.uleb128 0x3
 1777 0adb 48070000 		.4byte	.LASF171
 1778 0adf 14       		.byte	0x14
 1779 0ae0 66       		.byte	0x66
 1780 0ae1 E50A0000 		.4byte	0xae5
 1781 0ae5 07       		.uleb128 0x7
 1782 0ae6 48070000 		.4byte	.LASF171
 1783 0aea 74       		.byte	0x74
 1784 0aeb 14       		.byte	0x14
 1785 0aec 80       		.byte	0x80
 1786 0aed 440B0000 		.4byte	0xb44
 1787 0af1 09       		.uleb128 0x9
 1788 0af2 766D7400 		.ascii	"vmt\000"
 1789 0af6 14       		.byte	0x14
 1790 0af7 82       		.byte	0x82
 1791 0af8 C10B0000 		.4byte	0xbc1
 1792 0afc 00       		.byte	0
 1793 0afd 08       		.uleb128 0x8
 1794 0afe D6030000 		.4byte	.LASF172
 1795 0b02 14       		.byte	0x14
 1796 0b03 83       		.byte	0x83
 1797 0b04 11050000 		.4byte	0x511
 1798 0b08 04       		.byte	0x4
 1799 0b09 08       		.uleb128 0x8
 1800 0b0a 0B020000 		.4byte	.LASF149
 1801 0b0e 14       		.byte	0x14
 1802 0b0f 83       		.byte	0x83
 1803 0b10 CF0A0000 		.4byte	0xacf
 1804 0b14 08       		.byte	0x8
 1805 0b15 08       		.uleb128 0x8
 1806 0b16 83030000 		.4byte	.LASF173
 1807 0b1a 14       		.byte	0x14
 1808 0b1b 83       		.byte	0x83
 1809 0b1c 2A070000 		.4byte	0x72a
 1810 0b20 0C       		.byte	0xc
 1811 0b21 08       		.uleb128 0x8
 1812 0b22 0F040000 		.4byte	.LASF174
 1813 0b26 14       		.byte	0x14
 1814 0b27 83       		.byte	0x83
 1815 0b28 35070000 		.4byte	0x735
 1816 0b2c 30       		.byte	0x30
 1817 0b2d 09       		.uleb128 0x9
 1818 0b2e 696200   		.ascii	"ib\000"
 1819 0b31 14       		.byte	0x14
 1820 0b32 83       		.byte	0x83
 1821 0b33 C70B0000 		.4byte	0xbc7
 1822 0b37 54       		.byte	0x54
 1823 0b38 09       		.uleb128 0x9
 1824 0b39 6F6200   		.ascii	"ob\000"
ARM GAS  /var/folders/3j/4xdnk5197cv_b7cw3n33qk7r0000gn/T//cczlz7sX.s 			page 33


 1825 0b3c 14       		.byte	0x14
 1826 0b3d 83       		.byte	0x83
 1827 0b3e C70B0000 		.4byte	0xbc7
 1828 0b42 64       		.byte	0x64
 1829 0b43 00       		.byte	0
 1830 0b44 1A       		.uleb128 0x1a
 1831 0b45 53443100 		.ascii	"SD1\000"
 1832 0b49 17       		.byte	0x17
 1833 0b4a 62       		.byte	0x62
 1834 0b4b DA0A0000 		.4byte	0xada
 1835 0b4f 07       		.uleb128 0x7
 1836 0b50 6C030000 		.4byte	.LASF175
 1837 0b54 20       		.byte	0x20
 1838 0b55 14       		.byte	0x14
 1839 0b56 75       		.byte	0x75
 1840 0b57 BC0B0000 		.4byte	0xbbc
 1841 0b5b 08       		.uleb128 0x8
 1842 0b5c 21000000 		.4byte	.LASF176
 1843 0b60 14       		.byte	0x14
 1844 0b61 76       		.byte	0x76
 1845 0b62 5F070000 		.4byte	0x75f
 1846 0b66 00       		.byte	0
 1847 0b67 08       		.uleb128 0x8
 1848 0b68 5F070000 		.4byte	.LASF177
 1849 0b6c 14       		.byte	0x14
 1850 0b6d 76       		.byte	0x76
 1851 0b6e 7E070000 		.4byte	0x77e
 1852 0b72 04       		.byte	0x4
 1853 0b73 09       		.uleb128 0x9
 1854 0b74 70757400 		.ascii	"put\000"
 1855 0b78 14       		.byte	0x14
 1856 0b79 76       		.byte	0x76
 1857 0b7a 98070000 		.4byte	0x798
 1858 0b7e 08       		.byte	0x8
 1859 0b7f 09       		.uleb128 0x9
 1860 0b80 67657400 		.ascii	"get\000"
 1861 0b84 14       		.byte	0x14
 1862 0b85 76       		.byte	0x76
 1863 0b86 69050000 		.4byte	0x569
 1864 0b8a 0C       		.byte	0xc
 1865 0b8b 08       		.uleb128 0x8
 1866 0b8c BF040000 		.4byte	.LASF178
 1867 0b90 14       		.byte	0x14
 1868 0b91 76       		.byte	0x76
 1869 0b92 51080000 		.4byte	0x851
 1870 0b96 10       		.byte	0x10
 1871 0b97 08       		.uleb128 0x8
 1872 0b98 A5030000 		.4byte	.LASF179
 1873 0b9c 14       		.byte	0x14
 1874 0b9d 76       		.byte	0x76
 1875 0b9e 6B080000 		.4byte	0x86b
 1876 0ba2 14       		.byte	0x14
 1877 0ba3 08       		.uleb128 0x8
 1878 0ba4 34040000 		.4byte	.LASF180
 1879 0ba8 14       		.byte	0x14
 1880 0ba9 76       		.byte	0x76
 1881 0baa 8F080000 		.4byte	0x88f
ARM GAS  /var/folders/3j/4xdnk5197cv_b7cw3n33qk7r0000gn/T//cczlz7sX.s 			page 34


 1882 0bae 18       		.byte	0x18
 1883 0baf 08       		.uleb128 0x8
 1884 0bb0 C9000000 		.4byte	.LASF181
 1885 0bb4 14       		.byte	0x14
 1886 0bb5 76       		.byte	0x76
 1887 0bb6 B3080000 		.4byte	0x8b3
 1888 0bba 1C       		.byte	0x1c
 1889 0bbb 00       		.byte	0
 1890 0bbc 06       		.uleb128 0x6
 1891 0bbd 4F0B0000 		.4byte	0xb4f
 1892 0bc1 0B       		.uleb128 0xb
 1893 0bc2 04       		.byte	0x4
 1894 0bc3 BC0B0000 		.4byte	0xbbc
 1895 0bc7 13       		.uleb128 0x13
 1896 0bc8 A7000000 		.4byte	0xa7
 1897 0bcc D70B0000 		.4byte	0xbd7
 1898 0bd0 14       		.uleb128 0x14
 1899 0bd1 37000000 		.4byte	0x37
 1900 0bd5 0F       		.byte	0xf
 1901 0bd6 00       		.byte	0
 1902 0bd7 18       		.uleb128 0x18
 1903 0bd8 07       		.byte	0x7
 1904 0bd9 01       		.byte	0x1
 1905 0bda 55000000 		.4byte	0x55
 1906 0bde 15       		.byte	0x15
 1907 0bdf 4E       		.byte	0x4e
 1908 0be0 030C0000 		.4byte	0xc03
 1909 0be4 19       		.uleb128 0x19
 1910 0be5 29080000 		.4byte	.LASF182
 1911 0be9 00       		.byte	0
 1912 0bea 19       		.uleb128 0x19
 1913 0beb 0A010000 		.4byte	.LASF183
 1914 0bef 01       		.byte	0x1
 1915 0bf0 19       		.uleb128 0x19
 1916 0bf1 1F080000 		.4byte	.LASF184
 1917 0bf5 02       		.byte	0x2
 1918 0bf6 19       		.uleb128 0x19
 1919 0bf7 3D000000 		.4byte	.LASF185
 1920 0bfb 03       		.byte	0x3
 1921 0bfc 19       		.uleb128 0x19
 1922 0bfd 69070000 		.4byte	.LASF186
 1923 0c01 04       		.byte	0x4
 1924 0c02 00       		.byte	0
 1925 0c03 03       		.uleb128 0x3
 1926 0c04 88070000 		.4byte	.LASF187
 1927 0c08 15       		.byte	0x15
 1928 0c09 54       		.byte	0x54
 1929 0c0a D70B0000 		.4byte	0xbd7
 1930 0c0e 03       		.uleb128 0x3
 1931 0c0f 9C000000 		.4byte	.LASF188
 1932 0c13 16       		.byte	0x16
 1933 0c14 35       		.byte	0x35
 1934 0c15 190C0000 		.4byte	0xc19
 1935 0c19 07       		.uleb128 0x7
 1936 0c1a 9C000000 		.4byte	.LASF188
 1937 0c1e 28       		.byte	0x28
 1938 0c1f 16       		.byte	0x16
ARM GAS  /var/folders/3j/4xdnk5197cv_b7cw3n33qk7r0000gn/T//cczlz7sX.s 			page 35


 1939 0c20 7C       		.byte	0x7c
 1940 0c21 7A0C0000 		.4byte	0xc7a
 1941 0c25 08       		.uleb128 0x8
 1942 0c26 0B020000 		.4byte	.LASF149
 1943 0c2a 16       		.byte	0x16
 1944 0c2b 80       		.byte	0x80
 1945 0c2c 030C0000 		.4byte	0xc03
 1946 0c30 00       		.byte	0
 1947 0c31 08       		.uleb128 0x8
 1948 0c32 76070000 		.4byte	.LASF150
 1949 0c36 16       		.byte	0x16
 1950 0c37 84       		.byte	0x84
 1951 0c38 210D0000 		.4byte	0xd21
 1952 0c3c 04       		.byte	0x4
 1953 0c3d 08       		.uleb128 0x8
 1954 0c3e 4F020000 		.4byte	.LASF154
 1955 0c42 16       		.byte	0x16
 1956 0c43 89       		.byte	0x89
 1957 0c44 62020000 		.4byte	0x262
 1958 0c48 08       		.byte	0x8
 1959 0c49 08       		.uleb128 0x8
 1960 0c4a EF050000 		.4byte	.LASF153
 1961 0c4e 16       		.byte	0x16
 1962 0c4f 90       		.byte	0x90
 1963 0c50 9F040000 		.4byte	0x49f
 1964 0c54 0C       		.byte	0xc
 1965 0c55 08       		.uleb128 0x8
 1966 0c56 A6000000 		.4byte	.LASF159
 1967 0c5a 16       		.byte	0x16
 1968 0c5b 98       		.byte	0x98
 1969 0c5c A9020000 		.4byte	0x2a9
 1970 0c60 1C       		.byte	0x1c
 1971 0c61 08       		.uleb128 0x8
 1972 0c62 66030000 		.4byte	.LASF156
 1973 0c66 16       		.byte	0x16
 1974 0c67 9D       		.byte	0x9d
 1975 0c68 270D0000 		.4byte	0xd27
 1976 0c6c 20       		.byte	0x20
 1977 0c6d 08       		.uleb128 0x8
 1978 0c6e C0020000 		.4byte	.LASF189
 1979 0c72 16       		.byte	0x16
 1980 0c73 A2       		.byte	0xa2
 1981 0c74 2C000000 		.4byte	0x2c
 1982 0c78 24       		.byte	0x24
 1983 0c79 00       		.byte	0
 1984 0c7a 03       		.uleb128 0x3
 1985 0c7b 28030000 		.4byte	.LASF190
 1986 0c7f 16       		.byte	0x16
 1987 0c80 3D       		.byte	0x3d
 1988 0c81 850C0000 		.4byte	0xc85
 1989 0c85 0B       		.uleb128 0xb
 1990 0c86 04       		.byte	0x4
 1991 0c87 8B0C0000 		.4byte	0xc8b
 1992 0c8b 0D       		.uleb128 0xd
 1993 0c8c 960C0000 		.4byte	0xc96
 1994 0c90 0E       		.uleb128 0xe
 1995 0c91 960C0000 		.4byte	0xc96
ARM GAS  /var/folders/3j/4xdnk5197cv_b7cw3n33qk7r0000gn/T//cczlz7sX.s 			page 36


 1996 0c95 00       		.byte	0
 1997 0c96 0B       		.uleb128 0xb
 1998 0c97 04       		.byte	0x4
 1999 0c98 0E0C0000 		.4byte	0xc0e
 2000 0c9c 0A       		.uleb128 0xa
 2001 0c9d 10       		.byte	0x10
 2002 0c9e 16       		.byte	0x16
 2003 0c9f 44       		.byte	0x44
 2004 0ca0 110D0000 		.4byte	0xd11
 2005 0ca4 08       		.uleb128 0x8
 2006 0ca5 B9020000 		.4byte	.LASF191
 2007 0ca9 16       		.byte	0x16
 2008 0caa 48       		.byte	0x48
 2009 0cab 7A0C0000 		.4byte	0xc7a
 2010 0caf 00       		.byte	0
 2011 0cb0 08       		.uleb128 0x8
 2012 0cb1 79050000 		.4byte	.LASF192
 2013 0cb5 16       		.byte	0x16
 2014 0cb6 4F       		.byte	0x4f
 2015 0cb7 A7000000 		.4byte	0xa7
 2016 0cbb 04       		.byte	0x4
 2017 0cbc 08       		.uleb128 0x8
 2018 0cbd 99050000 		.4byte	.LASF193
 2019 0cc1 16       		.byte	0x16
 2020 0cc2 52       		.byte	0x52
 2021 0cc3 A7000000 		.4byte	0xa7
 2022 0cc7 05       		.byte	0x5
 2023 0cc8 08       		.uleb128 0x8
 2024 0cc9 C1030000 		.4byte	.LASF194
 2025 0ccd 16       		.byte	0x16
 2026 0cce 58       		.byte	0x58
 2027 0ccf A7000000 		.4byte	0xa7
 2028 0cd3 06       		.byte	0x6
 2029 0cd4 08       		.uleb128 0x8
 2030 0cd5 C6020000 		.4byte	.LASF195
 2031 0cd9 16       		.byte	0x16
 2032 0cda 5E       		.byte	0x5e
 2033 0cdb A7000000 		.4byte	0xa7
 2034 0cdf 07       		.byte	0x7
 2035 0ce0 08       		.uleb128 0x8
 2036 0ce1 DC020000 		.4byte	.LASF196
 2037 0ce5 16       		.byte	0x16
 2038 0ce6 64       		.byte	0x64
 2039 0ce7 A7000000 		.4byte	0xa7
 2040 0ceb 08       		.byte	0x8
 2041 0cec 08       		.uleb128 0x8
 2042 0ced DF070000 		.4byte	.LASF197
 2043 0cf1 16       		.byte	0x16
 2044 0cf2 6A       		.byte	0x6a
 2045 0cf3 A7000000 		.4byte	0xa7
 2046 0cf7 09       		.byte	0x9
 2047 0cf8 08       		.uleb128 0x8
 2048 0cf9 95020000 		.4byte	.LASF198
 2049 0cfd 16       		.byte	0x16
 2050 0cfe 70       		.byte	0x70
 2051 0cff A7000000 		.4byte	0xa7
 2052 0d03 0A       		.byte	0xa
ARM GAS  /var/folders/3j/4xdnk5197cv_b7cw3n33qk7r0000gn/T//cczlz7sX.s 			page 37


 2053 0d04 08       		.uleb128 0x8
 2054 0d05 E3060000 		.4byte	.LASF199
 2055 0d09 16       		.byte	0x16
 2056 0d0a 73       		.byte	0x73
 2057 0d0b CD000000 		.4byte	0xcd
 2058 0d0f 0C       		.byte	0xc
 2059 0d10 00       		.byte	0
 2060 0d11 03       		.uleb128 0x3
 2061 0d12 F2080000 		.4byte	.LASF200
 2062 0d16 16       		.byte	0x16
 2063 0d17 75       		.byte	0x75
 2064 0d18 9C0C0000 		.4byte	0xc9c
 2065 0d1c 06       		.uleb128 0x6
 2066 0d1d 110D0000 		.4byte	0xd11
 2067 0d21 0B       		.uleb128 0xb
 2068 0d22 04       		.byte	0x4
 2069 0d23 1C0D0000 		.4byte	0xd1c
 2070 0d27 0B       		.uleb128 0xb
 2071 0d28 04       		.byte	0x4
 2072 0d29 2D0D0000 		.4byte	0xd2d
 2073 0d2d 1B       		.uleb128 0x1b
 2074 0d2e 0F       		.uleb128 0xf
 2075 0d2f 78020000 		.4byte	.LASF201
 2076 0d33 16       		.byte	0x16
 2077 0d34 B6       		.byte	0xb6
 2078 0d35 0E0C0000 		.4byte	0xc0e
 2079 0d39 1C       		.uleb128 0x1c
 2080 0d3a 4B090000 		.4byte	0x94b
 2081 0d3e 01       		.byte	0x1
 2082 0d3f 2B       		.byte	0x2b
 2083 0d40 05       		.uleb128 0x5
 2084 0d41 03       		.byte	0x3
 2085 0d42 00000000 		.4byte	IOPORT0
 2086 0d46 1C       		.uleb128 0x1c
 2087 0d47 56090000 		.4byte	0x956
 2088 0d4b 01       		.byte	0x1
 2089 0d4c 2C       		.byte	0x2c
 2090 0d4d 05       		.uleb128 0x5
 2091 0d4e 03       		.byte	0x3
 2092 0d4f 00000000 		.4byte	IOPORT1
 2093 0d53 1D       		.uleb128 0x1d
 2094 0d54 43040000 		.4byte	.LASF204
 2095 0d58 01       		.byte	0x1
 2096 0d59 80       		.byte	0x80
 2097 0d5a 00000000 		.4byte	.LFB11
 2098 0d5e 1C000000 		.4byte	.LFE11-.LFB11
 2099 0d62 01       		.uleb128 0x1
 2100 0d63 9C       		.byte	0x9c
 2101 0d64 830D0000 		.4byte	0xd83
 2102 0d68 1E       		.uleb128 0x1e
 2103 0d69 3B030000 		.4byte	.LASF202
 2104 0d6d 01       		.byte	0x1
 2105 0d6e 80       		.byte	0x80
 2106 0d6f 3A090000 		.4byte	0x93a
 2107 0d73 01       		.uleb128 0x1
 2108 0d74 50       		.byte	0x50
 2109 0d75 1E       		.uleb128 0x1e
ARM GAS  /var/folders/3j/4xdnk5197cv_b7cw3n33qk7r0000gn/T//cczlz7sX.s 			page 38


 2110 0d76 11020000 		.4byte	.LASF203
 2111 0d7a 01       		.byte	0x1
 2112 0d7b 80       		.byte	0x80
 2113 0d7c 2F090000 		.4byte	0x92f
 2114 0d80 01       		.uleb128 0x1
 2115 0d81 51       		.byte	0x51
 2116 0d82 00       		.byte	0
 2117 0d83 1D       		.uleb128 0x1d
 2118 0d84 EE070000 		.4byte	.LASF205
 2119 0d88 01       		.byte	0x1
 2120 0d89 64       		.byte	0x64
 2121 0d8a 00000000 		.4byte	.LFB10
 2122 0d8e C8000000 		.4byte	.LFE10-.LFB10
 2123 0d92 01       		.uleb128 0x1
 2124 0d93 9C       		.byte	0x9c
 2125 0d94 D50E0000 		.4byte	0xed5
 2126 0d98 1F       		.uleb128 0x1f
 2127 0d99 3B030000 		.4byte	.LASF202
 2128 0d9d 01       		.byte	0x1
 2129 0d9e 64       		.byte	0x64
 2130 0d9f 3A090000 		.4byte	0x93a
 2131 0da3 00000000 		.4byte	.LLST6
 2132 0da7 1F       		.uleb128 0x1f
 2133 0da8 05030000 		.4byte	.LASF206
 2134 0dac 01       		.byte	0x1
 2135 0dad 64       		.byte	0x64
 2136 0dae 2F090000 		.4byte	0x92f
 2137 0db2 B1000000 		.4byte	.LLST7
 2138 0db6 1F       		.uleb128 0x1f
 2139 0db7 4C030000 		.4byte	.LASF207
 2140 0dbb 01       		.byte	0x1
 2141 0dbc 64       		.byte	0x64
 2142 0dbd CD000000 		.4byte	0xcd
 2143 0dc1 5C010000 		.4byte	.LLST8
 2144 0dc5 20       		.uleb128 0x20
 2145 0dc6 6900     		.ascii	"i\000"
 2146 0dc8 01       		.byte	0x1
 2147 0dc9 65       		.byte	0x65
 2148 0dca 25000000 		.4byte	0x25
 2149 0dce C8010000 		.4byte	.LLST9
 2150 0dd2 21       		.uleb128 0x21
 2151 0dd3 18000000 		.4byte	.Ldebug_ranges0+0x18
 2152 0dd7 FA0D0000 		.4byte	0xdfa
 2153 0ddb 20       		.uleb128 0x20
 2154 0ddc 62697400 		.ascii	"bit\000"
 2155 0de0 01       		.byte	0x1
 2156 0de1 77       		.byte	0x77
 2157 0de2 37000000 		.4byte	0x37
 2158 0de6 F3010000 		.4byte	.LLST10
 2159 0dea 22       		.uleb128 0x22
 2160 0deb A8000000 		.4byte	.LVL26
 2161 0def 4F100000 		.4byte	0x104f
 2162 0df3 23       		.uleb128 0x23
 2163 0df4 01       		.uleb128 0x1
 2164 0df5 51       		.byte	0x51
 2165 0df6 01       		.uleb128 0x1
 2166 0df7 31       		.byte	0x31
ARM GAS  /var/folders/3j/4xdnk5197cv_b7cw3n33qk7r0000gn/T//cczlz7sX.s 			page 39


 2167 0df8 00       		.byte	0
 2168 0df9 00       		.byte	0
 2169 0dfa 24       		.uleb128 0x24
 2170 0dfb 30000000 		.4byte	.LVL15
 2171 0dff B30F0000 		.4byte	0xfb3
 2172 0e03 1C0E0000 		.4byte	0xe1c
 2173 0e07 23       		.uleb128 0x23
 2174 0e08 01       		.uleb128 0x1
 2175 0e09 50       		.byte	0x50
 2176 0e0a 02       		.uleb128 0x2
 2177 0e0b 76       		.byte	0x76
 2178 0e0c 14       		.sleb128 20
 2179 0e0d 23       		.uleb128 0x23
 2180 0e0e 01       		.uleb128 0x1
 2181 0e0f 51       		.byte	0x51
 2182 0e10 02       		.uleb128 0x2
 2183 0e11 75       		.byte	0x75
 2184 0e12 00       		.sleb128 0
 2185 0e13 25       		.uleb128 0x25
 2186 0e14 580F0000 		.4byte	0xf58
 2187 0e18 02       		.uleb128 0x2
 2188 0e19 76       		.byte	0x76
 2189 0e1a 00       		.sleb128 0
 2190 0e1b 00       		.byte	0
 2191 0e1c 26       		.uleb128 0x26
 2192 0e1d 44000000 		.4byte	.LVL17
 2193 0e21 00100000 		.4byte	0x1000
 2194 0e25 480E0000 		.4byte	0xe48
 2195 0e29 23       		.uleb128 0x23
 2196 0e2a 01       		.uleb128 0x1
 2197 0e2b 50       		.byte	0x50
 2198 0e2c 05       		.uleb128 0x5
 2199 0e2d F3       		.byte	0xf3
 2200 0e2e 01       		.uleb128 0x1
 2201 0e2f 50       		.byte	0x50
 2202 0e30 23       		.byte	0x23
 2203 0e31 10       		.uleb128 0x10
 2204 0e32 23       		.uleb128 0x23
 2205 0e33 01       		.uleb128 0x1
 2206 0e34 51       		.byte	0x51
 2207 0e35 03       		.uleb128 0x3
 2208 0e36 F3       		.byte	0xf3
 2209 0e37 01       		.uleb128 0x1
 2210 0e38 51       		.byte	0x51
 2211 0e39 23       		.uleb128 0x23
 2212 0e3a 01       		.uleb128 0x1
 2213 0e3b 52       		.byte	0x52
 2214 0e3c 01       		.uleb128 0x1
 2215 0e3d 32       		.byte	0x32
 2216 0e3e 25       		.uleb128 0x25
 2217 0e3f 910F0000 		.4byte	0xf91
 2218 0e43 03       		.uleb128 0x3
 2219 0e44 F3       		.byte	0xf3
 2220 0e45 01       		.uleb128 0x1
 2221 0e46 50       		.byte	0x50
 2222 0e47 00       		.byte	0
 2223 0e48 24       		.uleb128 0x24
ARM GAS  /var/folders/3j/4xdnk5197cv_b7cw3n33qk7r0000gn/T//cczlz7sX.s 			page 40


 2224 0e49 4C000000 		.4byte	.LVL19
 2225 0e4d B30F0000 		.4byte	0xfb3
 2226 0e51 640E0000 		.4byte	0xe64
 2227 0e55 23       		.uleb128 0x23
 2228 0e56 01       		.uleb128 0x1
 2229 0e57 50       		.byte	0x50
 2230 0e58 02       		.uleb128 0x2
 2231 0e59 76       		.byte	0x76
 2232 0e5a 14       		.sleb128 20
 2233 0e5b 25       		.uleb128 0x25
 2234 0e5c 580F0000 		.4byte	0xf58
 2235 0e60 02       		.uleb128 0x2
 2236 0e61 76       		.byte	0x76
 2237 0e62 00       		.sleb128 0
 2238 0e63 00       		.byte	0
 2239 0e64 26       		.uleb128 0x26
 2240 0e65 60000000 		.4byte	.LVL21
 2241 0e69 00100000 		.4byte	0x1000
 2242 0e6d 900E0000 		.4byte	0xe90
 2243 0e71 23       		.uleb128 0x23
 2244 0e72 01       		.uleb128 0x1
 2245 0e73 50       		.byte	0x50
 2246 0e74 05       		.uleb128 0x5
 2247 0e75 F3       		.byte	0xf3
 2248 0e76 01       		.uleb128 0x1
 2249 0e77 50       		.byte	0x50
 2250 0e78 23       		.byte	0x23
 2251 0e79 10       		.uleb128 0x10
 2252 0e7a 23       		.uleb128 0x23
 2253 0e7b 01       		.uleb128 0x1
 2254 0e7c 51       		.byte	0x51
 2255 0e7d 03       		.uleb128 0x3
 2256 0e7e F3       		.byte	0xf3
 2257 0e7f 01       		.uleb128 0x1
 2258 0e80 51       		.byte	0x51
 2259 0e81 23       		.uleb128 0x23
 2260 0e82 01       		.uleb128 0x1
 2261 0e83 52       		.byte	0x52
 2262 0e84 01       		.uleb128 0x1
 2263 0e85 30       		.byte	0x30
 2264 0e86 25       		.uleb128 0x25
 2265 0e87 910F0000 		.4byte	0xf91
 2266 0e8b 03       		.uleb128 0x3
 2267 0e8c F3       		.byte	0xf3
 2268 0e8d 01       		.uleb128 0x1
 2269 0e8e 50       		.byte	0x50
 2270 0e8f 00       		.byte	0
 2271 0e90 24       		.uleb128 0x24
 2272 0e91 B4000000 		.4byte	.LVL29
 2273 0e95 B30F0000 		.4byte	0xfb3
 2274 0e99 AC0E0000 		.4byte	0xeac
 2275 0e9d 23       		.uleb128 0x23
 2276 0e9e 01       		.uleb128 0x1
 2277 0e9f 50       		.byte	0x50
 2278 0ea0 02       		.uleb128 0x2
 2279 0ea1 76       		.byte	0x76
 2280 0ea2 14       		.sleb128 20
ARM GAS  /var/folders/3j/4xdnk5197cv_b7cw3n33qk7r0000gn/T//cczlz7sX.s 			page 41


 2281 0ea3 25       		.uleb128 0x25
 2282 0ea4 580F0000 		.4byte	0xf58
 2283 0ea8 02       		.uleb128 0x2
 2284 0ea9 76       		.byte	0x76
 2285 0eaa 00       		.sleb128 0
 2286 0eab 00       		.byte	0
 2287 0eac 27       		.uleb128 0x27
 2288 0ead C8000000 		.4byte	.LVL31
 2289 0eb1 00100000 		.4byte	0x1000
 2290 0eb5 23       		.uleb128 0x23
 2291 0eb6 01       		.uleb128 0x1
 2292 0eb7 50       		.byte	0x50
 2293 0eb8 05       		.uleb128 0x5
 2294 0eb9 F3       		.byte	0xf3
 2295 0eba 01       		.uleb128 0x1
 2296 0ebb 50       		.byte	0x50
 2297 0ebc 23       		.byte	0x23
 2298 0ebd 10       		.uleb128 0x10
 2299 0ebe 23       		.uleb128 0x23
 2300 0ebf 01       		.uleb128 0x1
 2301 0ec0 51       		.byte	0x51
 2302 0ec1 03       		.uleb128 0x3
 2303 0ec2 F3       		.byte	0xf3
 2304 0ec3 01       		.uleb128 0x1
 2305 0ec4 51       		.byte	0x51
 2306 0ec5 23       		.uleb128 0x23
 2307 0ec6 01       		.uleb128 0x1
 2308 0ec7 52       		.byte	0x52
 2309 0ec8 01       		.uleb128 0x1
 2310 0ec9 31       		.byte	0x31
 2311 0eca 25       		.uleb128 0x25
 2312 0ecb 910F0000 		.4byte	0xf91
 2313 0ecf 03       		.uleb128 0x3
 2314 0ed0 F3       		.byte	0xf3
 2315 0ed1 01       		.uleb128 0x1
 2316 0ed2 50       		.byte	0x50
 2317 0ed3 00       		.byte	0
 2318 0ed4 00       		.byte	0
 2319 0ed5 1D       		.uleb128 0x1d
 2320 0ed6 35010000 		.4byte	.LASF208
 2321 0eda 01       		.byte	0x1
 2322 0edb 52       		.byte	0x52
 2323 0edc 00000000 		.4byte	.LFB9
 2324 0ee0 98000000 		.4byte	.LFE9-.LFB9
 2325 0ee4 01       		.uleb128 0x1
 2326 0ee5 9C       		.byte	0x9c
 2327 0ee6 460F0000 		.4byte	0xf46
 2328 0eea 1F       		.uleb128 0x1f
 2329 0eeb 76070000 		.4byte	.LASF150
 2330 0eef 01       		.byte	0x1
 2331 0ef0 52       		.byte	0x52
 2332 0ef1 460F0000 		.4byte	0xf46
 2333 0ef5 19020000 		.4byte	.LLST5
 2334 0ef9 24       		.uleb128 0x24
 2335 0efa 34000000 		.4byte	.LVL11
 2336 0efe B30F0000 		.4byte	0xfb3
 2337 0f02 210F0000 		.4byte	0xf21
ARM GAS  /var/folders/3j/4xdnk5197cv_b7cw3n33qk7r0000gn/T//cczlz7sX.s 			page 42


 2338 0f06 23       		.uleb128 0x23
 2339 0f07 01       		.uleb128 0x1
 2340 0f08 50       		.byte	0x50
 2341 0f09 05       		.uleb128 0x5
 2342 0f0a 03       		.byte	0x3
 2343 0f0b 14000000 		.4byte	IOPORT0+20
 2344 0f0f 23       		.uleb128 0x23
 2345 0f10 01       		.uleb128 0x1
 2346 0f11 51       		.byte	0x51
 2347 0f12 02       		.uleb128 0x2
 2348 0f13 09       		.byte	0x9
 2349 0f14 FF       		.byte	0xff
 2350 0f15 25       		.uleb128 0x25
 2351 0f16 580F0000 		.4byte	0xf58
 2352 0f1a 05       		.uleb128 0x5
 2353 0f1b 03       		.byte	0x3
 2354 0f1c 00000000 		.4byte	IOPORT0
 2355 0f20 00       		.byte	0
 2356 0f21 27       		.uleb128 0x27
 2357 0f22 70000000 		.4byte	.LVL12
 2358 0f26 B30F0000 		.4byte	0xfb3
 2359 0f2a 23       		.uleb128 0x23
 2360 0f2b 01       		.uleb128 0x1
 2361 0f2c 50       		.byte	0x50
 2362 0f2d 05       		.uleb128 0x5
 2363 0f2e 03       		.byte	0x3
 2364 0f2f 14000000 		.4byte	IOPORT1+20
 2365 0f33 23       		.uleb128 0x23
 2366 0f34 01       		.uleb128 0x1
 2367 0f35 51       		.byte	0x51
 2368 0f36 02       		.uleb128 0x2
 2369 0f37 09       		.byte	0x9
 2370 0f38 FF       		.byte	0xff
 2371 0f39 25       		.uleb128 0x25
 2372 0f3a 580F0000 		.4byte	0xf58
 2373 0f3e 05       		.uleb128 0x5
 2374 0f3f 03       		.byte	0x3
 2375 0f40 00000000 		.4byte	IOPORT1
 2376 0f44 00       		.byte	0
 2377 0f45 00       		.byte	0
 2378 0f46 0B       		.uleb128 0xb
 2379 0f47 04       		.byte	0x4
 2380 0f48 2A090000 		.4byte	0x92a
 2381 0f4c 28       		.uleb128 0x28
 2382 0f4d A8080000 		.4byte	.LASF209
 2383 0f51 01       		.byte	0x1
 2384 0f52 40       		.byte	0x40
 2385 0f53 01       		.byte	0x1
 2386 0f54 850F0000 		.4byte	0xf85
 2387 0f58 29       		.uleb128 0x29
 2388 0f59 3B030000 		.4byte	.LASF202
 2389 0f5d 01       		.byte	0x1
 2390 0f5e 40       		.byte	0x40
 2391 0f5f 3A090000 		.4byte	0x93a
 2392 0f63 29       		.uleb128 0x29
 2393 0f64 05030000 		.4byte	.LASF206
 2394 0f68 01       		.byte	0x1
ARM GAS  /var/folders/3j/4xdnk5197cv_b7cw3n33qk7r0000gn/T//cczlz7sX.s 			page 43


 2395 0f69 40       		.byte	0x40
 2396 0f6a 2F090000 		.4byte	0x92f
 2397 0f6e 2A       		.uleb128 0x2a
 2398 0f6f 6900     		.ascii	"i\000"
 2399 0f71 01       		.byte	0x1
 2400 0f72 41       		.byte	0x41
 2401 0f73 25000000 		.4byte	0x25
 2402 0f77 2B       		.uleb128 0x2b
 2403 0f78 2A       		.uleb128 0x2a
 2404 0f79 62697400 		.ascii	"bit\000"
 2405 0f7d 01       		.byte	0x1
 2406 0f7e 43       		.byte	0x43
 2407 0f7f 37000000 		.4byte	0x37
 2408 0f83 00       		.byte	0
 2409 0f84 00       		.byte	0
 2410 0f85 28       		.uleb128 0x28
 2411 0f86 93080000 		.4byte	.LASF210
 2412 0f8a 01       		.byte	0x1
 2413 0f8b 36       		.byte	0x36
 2414 0f8c 01       		.byte	0x1
 2415 0f8d B30F0000 		.4byte	0xfb3
 2416 0f91 29       		.uleb128 0x29
 2417 0f92 3B030000 		.4byte	.LASF202
 2418 0f96 01       		.byte	0x1
 2419 0f97 36       		.byte	0x36
 2420 0f98 3A090000 		.4byte	0x93a
 2421 0f9c 29       		.uleb128 0x29
 2422 0f9d 05030000 		.4byte	.LASF206
 2423 0fa1 01       		.byte	0x1
 2424 0fa2 36       		.byte	0x36
 2425 0fa3 2F090000 		.4byte	0x92f
 2426 0fa7 29       		.uleb128 0x29
 2427 0fa8 D6080000 		.4byte	.LASF211
 2428 0fac 01       		.byte	0x1
 2429 0fad 36       		.byte	0x36
 2430 0fae CD000000 		.4byte	0xcd
 2431 0fb2 00       		.byte	0
 2432 0fb3 2C       		.uleb128 0x2c
 2433 0fb4 4C0F0000 		.4byte	0xf4c
 2434 0fb8 00000000 		.4byte	.LFB12
 2435 0fbc 40000000 		.4byte	.LFE12-.LFB12
 2436 0fc0 01       		.uleb128 0x1
 2437 0fc1 9C       		.byte	0x9c
 2438 0fc2 00100000 		.4byte	0x1000
 2439 0fc6 2D       		.uleb128 0x2d
 2440 0fc7 630F0000 		.4byte	0xf63
 2441 0fcb 3A020000 		.4byte	.LLST0
 2442 0fcf 2E       		.uleb128 0x2e
 2443 0fd0 580F0000 		.4byte	0xf58
 2444 0fd4 2F       		.uleb128 0x2f
 2445 0fd5 6E0F0000 		.4byte	0xf6e
 2446 0fd9 58020000 		.4byte	.LLST1
 2447 0fdd 30       		.uleb128 0x30
 2448 0fde 770F0000 		.4byte	0xf77
 2449 0fe2 00000000 		.4byte	.Ldebug_ranges0+0
 2450 0fe6 2F       		.uleb128 0x2f
 2451 0fe7 780F0000 		.4byte	0xf78
ARM GAS  /var/folders/3j/4xdnk5197cv_b7cw3n33qk7r0000gn/T//cczlz7sX.s 			page 44


 2452 0feb 8F020000 		.4byte	.LLST2
 2453 0fef 22       		.uleb128 0x22
 2454 0ff0 3C000000 		.4byte	.LVL5
 2455 0ff4 4F100000 		.4byte	0x104f
 2456 0ff8 23       		.uleb128 0x23
 2457 0ff9 01       		.uleb128 0x1
 2458 0ffa 51       		.byte	0x51
 2459 0ffb 01       		.uleb128 0x1
 2460 0ffc 30       		.byte	0x30
 2461 0ffd 00       		.byte	0
 2462 0ffe 00       		.byte	0
 2463 0fff 00       		.byte	0
 2464 1000 2C       		.uleb128 0x2c
 2465 1001 850F0000 		.4byte	0xf85
 2466 1005 00000000 		.4byte	.LFB13
 2467 1009 44000000 		.4byte	.LFE13-.LFB13
 2468 100d 01       		.uleb128 0x1
 2469 100e 9C       		.byte	0x9c
 2470 100f 4F100000 		.4byte	0x104f
 2471 1013 2D       		.uleb128 0x2d
 2472 1014 9C0F0000 		.4byte	0xf9c
 2473 1018 B5020000 		.4byte	.LLST3
 2474 101c 2D       		.uleb128 0x2d
 2475 101d A70F0000 		.4byte	0xfa7
 2476 1021 D3020000 		.4byte	.LLST4
 2477 1025 2E       		.uleb128 0x2e
 2478 1026 910F0000 		.4byte	0xf91
 2479 102a 24       		.uleb128 0x24
 2480 102b 1C000000 		.4byte	.LVL7
 2481 102f 5B100000 		.4byte	0x105b
 2482 1033 3E100000 		.4byte	0x103e
 2483 1037 23       		.uleb128 0x23
 2484 1038 01       		.uleb128 0x1
 2485 1039 50       		.byte	0x50
 2486 103a 02       		.uleb128 0x2
 2487 103b 08       		.byte	0x8
 2488 103c 96       		.byte	0x96
 2489 103d 00       		.byte	0
 2490 103e 22       		.uleb128 0x22
 2491 103f 2C000000 		.4byte	.LVL8
 2492 1043 5B100000 		.4byte	0x105b
 2493 1047 23       		.uleb128 0x23
 2494 1048 01       		.uleb128 0x1
 2495 1049 50       		.byte	0x50
 2496 104a 02       		.uleb128 0x2
 2497 104b 08       		.byte	0x8
 2498 104c 96       		.byte	0x96
 2499 104d 00       		.byte	0
 2500 104e 00       		.byte	0
 2501 104f 31       		.uleb128 0x31
 2502 1050 86050000 		.4byte	.LASF212
 2503 1054 86050000 		.4byte	.LASF212
 2504 1058 10       		.byte	0x10
 2505 1059 8C01     		.2byte	0x18c
 2506 105b 31       		.uleb128 0x31
 2507 105c 26040000 		.4byte	.LASF213
 2508 1060 26040000 		.4byte	.LASF213
ARM GAS  /var/folders/3j/4xdnk5197cv_b7cw3n33qk7r0000gn/T//cczlz7sX.s 			page 45


 2509 1064 10       		.byte	0x10
 2510 1065 8D01     		.2byte	0x18d
 2511 1067 00       		.byte	0
 2512              		.section	.debug_abbrev,"",%progbits
 2513              	.Ldebug_abbrev0:
 2514 0000 01       		.uleb128 0x1
 2515 0001 11       		.uleb128 0x11
 2516 0002 01       		.byte	0x1
 2517 0003 25       		.uleb128 0x25
 2518 0004 0E       		.uleb128 0xe
 2519 0005 13       		.uleb128 0x13
 2520 0006 0B       		.uleb128 0xb
 2521 0007 03       		.uleb128 0x3
 2522 0008 0E       		.uleb128 0xe
 2523 0009 1B       		.uleb128 0x1b
 2524 000a 0E       		.uleb128 0xe
 2525 000b 55       		.uleb128 0x55
 2526 000c 17       		.uleb128 0x17
 2527 000d 11       		.uleb128 0x11
 2528 000e 01       		.uleb128 0x1
 2529 000f 10       		.uleb128 0x10
 2530 0010 17       		.uleb128 0x17
 2531 0011 00       		.byte	0
 2532 0012 00       		.byte	0
 2533 0013 02       		.uleb128 0x2
 2534 0014 24       		.uleb128 0x24
 2535 0015 00       		.byte	0
 2536 0016 0B       		.uleb128 0xb
 2537 0017 0B       		.uleb128 0xb
 2538 0018 3E       		.uleb128 0x3e
 2539 0019 0B       		.uleb128 0xb
 2540 001a 03       		.uleb128 0x3
 2541 001b 08       		.uleb128 0x8
 2542 001c 00       		.byte	0
 2543 001d 00       		.byte	0
 2544 001e 03       		.uleb128 0x3
 2545 001f 16       		.uleb128 0x16
 2546 0020 00       		.byte	0
 2547 0021 03       		.uleb128 0x3
 2548 0022 0E       		.uleb128 0xe
 2549 0023 3A       		.uleb128 0x3a
 2550 0024 0B       		.uleb128 0xb
 2551 0025 3B       		.uleb128 0x3b
 2552 0026 0B       		.uleb128 0xb
 2553 0027 49       		.uleb128 0x49
 2554 0028 13       		.uleb128 0x13
 2555 0029 00       		.byte	0
 2556 002a 00       		.byte	0
 2557 002b 04       		.uleb128 0x4
 2558 002c 24       		.uleb128 0x24
 2559 002d 00       		.byte	0
 2560 002e 0B       		.uleb128 0xb
 2561 002f 0B       		.uleb128 0xb
 2562 0030 3E       		.uleb128 0x3e
 2563 0031 0B       		.uleb128 0xb
 2564 0032 03       		.uleb128 0x3
 2565 0033 0E       		.uleb128 0xe
ARM GAS  /var/folders/3j/4xdnk5197cv_b7cw3n33qk7r0000gn/T//cczlz7sX.s 			page 46


 2566 0034 00       		.byte	0
 2567 0035 00       		.byte	0
 2568 0036 05       		.uleb128 0x5
 2569 0037 35       		.uleb128 0x35
 2570 0038 00       		.byte	0
 2571 0039 49       		.uleb128 0x49
 2572 003a 13       		.uleb128 0x13
 2573 003b 00       		.byte	0
 2574 003c 00       		.byte	0
 2575 003d 06       		.uleb128 0x6
 2576 003e 26       		.uleb128 0x26
 2577 003f 00       		.byte	0
 2578 0040 49       		.uleb128 0x49
 2579 0041 13       		.uleb128 0x13
 2580 0042 00       		.byte	0
 2581 0043 00       		.byte	0
 2582 0044 07       		.uleb128 0x7
 2583 0045 13       		.uleb128 0x13
 2584 0046 01       		.byte	0x1
 2585 0047 03       		.uleb128 0x3
 2586 0048 0E       		.uleb128 0xe
 2587 0049 0B       		.uleb128 0xb
 2588 004a 0B       		.uleb128 0xb
 2589 004b 3A       		.uleb128 0x3a
 2590 004c 0B       		.uleb128 0xb
 2591 004d 3B       		.uleb128 0x3b
 2592 004e 0B       		.uleb128 0xb
 2593 004f 01       		.uleb128 0x1
 2594 0050 13       		.uleb128 0x13
 2595 0051 00       		.byte	0
 2596 0052 00       		.byte	0
 2597 0053 08       		.uleb128 0x8
 2598 0054 0D       		.uleb128 0xd
 2599 0055 00       		.byte	0
 2600 0056 03       		.uleb128 0x3
 2601 0057 0E       		.uleb128 0xe
 2602 0058 3A       		.uleb128 0x3a
 2603 0059 0B       		.uleb128 0xb
 2604 005a 3B       		.uleb128 0x3b
 2605 005b 0B       		.uleb128 0xb
 2606 005c 49       		.uleb128 0x49
 2607 005d 13       		.uleb128 0x13
 2608 005e 38       		.uleb128 0x38
 2609 005f 0B       		.uleb128 0xb
 2610 0060 00       		.byte	0
 2611 0061 00       		.byte	0
 2612 0062 09       		.uleb128 0x9
 2613 0063 0D       		.uleb128 0xd
 2614 0064 00       		.byte	0
 2615 0065 03       		.uleb128 0x3
 2616 0066 08       		.uleb128 0x8
 2617 0067 3A       		.uleb128 0x3a
 2618 0068 0B       		.uleb128 0xb
 2619 0069 3B       		.uleb128 0x3b
 2620 006a 0B       		.uleb128 0xb
 2621 006b 49       		.uleb128 0x49
 2622 006c 13       		.uleb128 0x13
ARM GAS  /var/folders/3j/4xdnk5197cv_b7cw3n33qk7r0000gn/T//cczlz7sX.s 			page 47


 2623 006d 38       		.uleb128 0x38
 2624 006e 0B       		.uleb128 0xb
 2625 006f 00       		.byte	0
 2626 0070 00       		.byte	0
 2627 0071 0A       		.uleb128 0xa
 2628 0072 13       		.uleb128 0x13
 2629 0073 01       		.byte	0x1
 2630 0074 0B       		.uleb128 0xb
 2631 0075 0B       		.uleb128 0xb
 2632 0076 3A       		.uleb128 0x3a
 2633 0077 0B       		.uleb128 0xb
 2634 0078 3B       		.uleb128 0x3b
 2635 0079 0B       		.uleb128 0xb
 2636 007a 01       		.uleb128 0x1
 2637 007b 13       		.uleb128 0x13
 2638 007c 00       		.byte	0
 2639 007d 00       		.byte	0
 2640 007e 0B       		.uleb128 0xb
 2641 007f 0F       		.uleb128 0xf
 2642 0080 00       		.byte	0
 2643 0081 0B       		.uleb128 0xb
 2644 0082 0B       		.uleb128 0xb
 2645 0083 49       		.uleb128 0x49
 2646 0084 13       		.uleb128 0x13
 2647 0085 00       		.byte	0
 2648 0086 00       		.byte	0
 2649 0087 0C       		.uleb128 0xc
 2650 0088 0F       		.uleb128 0xf
 2651 0089 00       		.byte	0
 2652 008a 0B       		.uleb128 0xb
 2653 008b 0B       		.uleb128 0xb
 2654 008c 00       		.byte	0
 2655 008d 00       		.byte	0
 2656 008e 0D       		.uleb128 0xd
 2657 008f 15       		.uleb128 0x15
 2658 0090 01       		.byte	0x1
 2659 0091 27       		.uleb128 0x27
 2660 0092 19       		.uleb128 0x19
 2661 0093 01       		.uleb128 0x1
 2662 0094 13       		.uleb128 0x13
 2663 0095 00       		.byte	0
 2664 0096 00       		.byte	0
 2665 0097 0E       		.uleb128 0xe
 2666 0098 05       		.uleb128 0x5
 2667 0099 00       		.byte	0
 2668 009a 49       		.uleb128 0x49
 2669 009b 13       		.uleb128 0x13
 2670 009c 00       		.byte	0
 2671 009d 00       		.byte	0
 2672 009e 0F       		.uleb128 0xf
 2673 009f 34       		.uleb128 0x34
 2674 00a0 00       		.byte	0
 2675 00a1 03       		.uleb128 0x3
 2676 00a2 0E       		.uleb128 0xe
 2677 00a3 3A       		.uleb128 0x3a
 2678 00a4 0B       		.uleb128 0xb
 2679 00a5 3B       		.uleb128 0x3b
ARM GAS  /var/folders/3j/4xdnk5197cv_b7cw3n33qk7r0000gn/T//cczlz7sX.s 			page 48


 2680 00a6 0B       		.uleb128 0xb
 2681 00a7 49       		.uleb128 0x49
 2682 00a8 13       		.uleb128 0x13
 2683 00a9 3F       		.uleb128 0x3f
 2684 00aa 19       		.uleb128 0x19
 2685 00ab 3C       		.uleb128 0x3c
 2686 00ac 19       		.uleb128 0x19
 2687 00ad 00       		.byte	0
 2688 00ae 00       		.byte	0
 2689 00af 10       		.uleb128 0x10
 2690 00b0 17       		.uleb128 0x17
 2691 00b1 01       		.byte	0x1
 2692 00b2 0B       		.uleb128 0xb
 2693 00b3 0B       		.uleb128 0xb
 2694 00b4 3A       		.uleb128 0x3a
 2695 00b5 0B       		.uleb128 0xb
 2696 00b6 3B       		.uleb128 0x3b
 2697 00b7 0B       		.uleb128 0xb
 2698 00b8 01       		.uleb128 0x1
 2699 00b9 13       		.uleb128 0x13
 2700 00ba 00       		.byte	0
 2701 00bb 00       		.byte	0
 2702 00bc 11       		.uleb128 0x11
 2703 00bd 0D       		.uleb128 0xd
 2704 00be 00       		.byte	0
 2705 00bf 03       		.uleb128 0x3
 2706 00c0 0E       		.uleb128 0xe
 2707 00c1 3A       		.uleb128 0x3a
 2708 00c2 0B       		.uleb128 0xb
 2709 00c3 3B       		.uleb128 0x3b
 2710 00c4 0B       		.uleb128 0xb
 2711 00c5 49       		.uleb128 0x49
 2712 00c6 13       		.uleb128 0x13
 2713 00c7 00       		.byte	0
 2714 00c8 00       		.byte	0
 2715 00c9 12       		.uleb128 0x12
 2716 00ca 15       		.uleb128 0x15
 2717 00cb 01       		.byte	0x1
 2718 00cc 27       		.uleb128 0x27
 2719 00cd 19       		.uleb128 0x19
 2720 00ce 49       		.uleb128 0x49
 2721 00cf 13       		.uleb128 0x13
 2722 00d0 01       		.uleb128 0x1
 2723 00d1 13       		.uleb128 0x13
 2724 00d2 00       		.byte	0
 2725 00d3 00       		.byte	0
 2726 00d4 13       		.uleb128 0x13
 2727 00d5 01       		.uleb128 0x1
 2728 00d6 01       		.byte	0x1
 2729 00d7 49       		.uleb128 0x49
 2730 00d8 13       		.uleb128 0x13
 2731 00d9 01       		.uleb128 0x1
 2732 00da 13       		.uleb128 0x13
 2733 00db 00       		.byte	0
 2734 00dc 00       		.byte	0
 2735 00dd 14       		.uleb128 0x14
 2736 00de 21       		.uleb128 0x21
ARM GAS  /var/folders/3j/4xdnk5197cv_b7cw3n33qk7r0000gn/T//cczlz7sX.s 			page 49


 2737 00df 00       		.byte	0
 2738 00e0 49       		.uleb128 0x49
 2739 00e1 13       		.uleb128 0x13
 2740 00e2 2F       		.uleb128 0x2f
 2741 00e3 0B       		.uleb128 0xb
 2742 00e4 00       		.byte	0
 2743 00e5 00       		.byte	0
 2744 00e6 15       		.uleb128 0x15
 2745 00e7 0D       		.uleb128 0xd
 2746 00e8 00       		.byte	0
 2747 00e9 03       		.uleb128 0x3
 2748 00ea 0E       		.uleb128 0xe
 2749 00eb 3A       		.uleb128 0x3a
 2750 00ec 0B       		.uleb128 0xb
 2751 00ed 3B       		.uleb128 0x3b
 2752 00ee 05       		.uleb128 0x5
 2753 00ef 49       		.uleb128 0x49
 2754 00f0 13       		.uleb128 0x13
 2755 00f1 38       		.uleb128 0x38
 2756 00f2 0B       		.uleb128 0xb
 2757 00f3 00       		.byte	0
 2758 00f4 00       		.byte	0
 2759 00f5 16       		.uleb128 0x16
 2760 00f6 16       		.uleb128 0x16
 2761 00f7 00       		.byte	0
 2762 00f8 03       		.uleb128 0x3
 2763 00f9 0E       		.uleb128 0xe
 2764 00fa 3A       		.uleb128 0x3a
 2765 00fb 0B       		.uleb128 0xb
 2766 00fc 3B       		.uleb128 0x3b
 2767 00fd 05       		.uleb128 0x5
 2768 00fe 49       		.uleb128 0x49
 2769 00ff 13       		.uleb128 0x13
 2770 0100 00       		.byte	0
 2771 0101 00       		.byte	0
 2772 0102 17       		.uleb128 0x17
 2773 0103 13       		.uleb128 0x13
 2774 0104 00       		.byte	0
 2775 0105 0B       		.uleb128 0xb
 2776 0106 0B       		.uleb128 0xb
 2777 0107 3A       		.uleb128 0x3a
 2778 0108 0B       		.uleb128 0xb
 2779 0109 3B       		.uleb128 0x3b
 2780 010a 0B       		.uleb128 0xb
 2781 010b 00       		.byte	0
 2782 010c 00       		.byte	0
 2783 010d 18       		.uleb128 0x18
 2784 010e 04       		.uleb128 0x4
 2785 010f 01       		.byte	0x1
 2786 0110 3E       		.uleb128 0x3e
 2787 0111 0B       		.uleb128 0xb
 2788 0112 0B       		.uleb128 0xb
 2789 0113 0B       		.uleb128 0xb
 2790 0114 49       		.uleb128 0x49
 2791 0115 13       		.uleb128 0x13
 2792 0116 3A       		.uleb128 0x3a
 2793 0117 0B       		.uleb128 0xb
ARM GAS  /var/folders/3j/4xdnk5197cv_b7cw3n33qk7r0000gn/T//cczlz7sX.s 			page 50


 2794 0118 3B       		.uleb128 0x3b
 2795 0119 0B       		.uleb128 0xb
 2796 011a 01       		.uleb128 0x1
 2797 011b 13       		.uleb128 0x13
 2798 011c 00       		.byte	0
 2799 011d 00       		.byte	0
 2800 011e 19       		.uleb128 0x19
 2801 011f 28       		.uleb128 0x28
 2802 0120 00       		.byte	0
 2803 0121 03       		.uleb128 0x3
 2804 0122 0E       		.uleb128 0xe
 2805 0123 1C       		.uleb128 0x1c
 2806 0124 0B       		.uleb128 0xb
 2807 0125 00       		.byte	0
 2808 0126 00       		.byte	0
 2809 0127 1A       		.uleb128 0x1a
 2810 0128 34       		.uleb128 0x34
 2811 0129 00       		.byte	0
 2812 012a 03       		.uleb128 0x3
 2813 012b 08       		.uleb128 0x8
 2814 012c 3A       		.uleb128 0x3a
 2815 012d 0B       		.uleb128 0xb
 2816 012e 3B       		.uleb128 0x3b
 2817 012f 0B       		.uleb128 0xb
 2818 0130 49       		.uleb128 0x49
 2819 0131 13       		.uleb128 0x13
 2820 0132 3F       		.uleb128 0x3f
 2821 0133 19       		.uleb128 0x19
 2822 0134 3C       		.uleb128 0x3c
 2823 0135 19       		.uleb128 0x19
 2824 0136 00       		.byte	0
 2825 0137 00       		.byte	0
 2826 0138 1B       		.uleb128 0x1b
 2827 0139 26       		.uleb128 0x26
 2828 013a 00       		.byte	0
 2829 013b 00       		.byte	0
 2830 013c 00       		.byte	0
 2831 013d 1C       		.uleb128 0x1c
 2832 013e 34       		.uleb128 0x34
 2833 013f 00       		.byte	0
 2834 0140 47       		.uleb128 0x47
 2835 0141 13       		.uleb128 0x13
 2836 0142 3A       		.uleb128 0x3a
 2837 0143 0B       		.uleb128 0xb
 2838 0144 3B       		.uleb128 0x3b
 2839 0145 0B       		.uleb128 0xb
 2840 0146 02       		.uleb128 0x2
 2841 0147 18       		.uleb128 0x18
 2842 0148 00       		.byte	0
 2843 0149 00       		.byte	0
 2844 014a 1D       		.uleb128 0x1d
 2845 014b 2E       		.uleb128 0x2e
 2846 014c 01       		.byte	0x1
 2847 014d 3F       		.uleb128 0x3f
 2848 014e 19       		.uleb128 0x19
 2849 014f 03       		.uleb128 0x3
 2850 0150 0E       		.uleb128 0xe
ARM GAS  /var/folders/3j/4xdnk5197cv_b7cw3n33qk7r0000gn/T//cczlz7sX.s 			page 51


 2851 0151 3A       		.uleb128 0x3a
 2852 0152 0B       		.uleb128 0xb
 2853 0153 3B       		.uleb128 0x3b
 2854 0154 0B       		.uleb128 0xb
 2855 0155 27       		.uleb128 0x27
 2856 0156 19       		.uleb128 0x19
 2857 0157 11       		.uleb128 0x11
 2858 0158 01       		.uleb128 0x1
 2859 0159 12       		.uleb128 0x12
 2860 015a 06       		.uleb128 0x6
 2861 015b 40       		.uleb128 0x40
 2862 015c 18       		.uleb128 0x18
 2863 015d 9742     		.uleb128 0x2117
 2864 015f 19       		.uleb128 0x19
 2865 0160 01       		.uleb128 0x1
 2866 0161 13       		.uleb128 0x13
 2867 0162 00       		.byte	0
 2868 0163 00       		.byte	0
 2869 0164 1E       		.uleb128 0x1e
 2870 0165 05       		.uleb128 0x5
 2871 0166 00       		.byte	0
 2872 0167 03       		.uleb128 0x3
 2873 0168 0E       		.uleb128 0xe
 2874 0169 3A       		.uleb128 0x3a
 2875 016a 0B       		.uleb128 0xb
 2876 016b 3B       		.uleb128 0x3b
 2877 016c 0B       		.uleb128 0xb
 2878 016d 49       		.uleb128 0x49
 2879 016e 13       		.uleb128 0x13
 2880 016f 02       		.uleb128 0x2
 2881 0170 18       		.uleb128 0x18
 2882 0171 00       		.byte	0
 2883 0172 00       		.byte	0
 2884 0173 1F       		.uleb128 0x1f
 2885 0174 05       		.uleb128 0x5
 2886 0175 00       		.byte	0
 2887 0176 03       		.uleb128 0x3
 2888 0177 0E       		.uleb128 0xe
 2889 0178 3A       		.uleb128 0x3a
 2890 0179 0B       		.uleb128 0xb
 2891 017a 3B       		.uleb128 0x3b
 2892 017b 0B       		.uleb128 0xb
 2893 017c 49       		.uleb128 0x49
 2894 017d 13       		.uleb128 0x13
 2895 017e 02       		.uleb128 0x2
 2896 017f 17       		.uleb128 0x17
 2897 0180 00       		.byte	0
 2898 0181 00       		.byte	0
 2899 0182 20       		.uleb128 0x20
 2900 0183 34       		.uleb128 0x34
 2901 0184 00       		.byte	0
 2902 0185 03       		.uleb128 0x3
 2903 0186 08       		.uleb128 0x8
 2904 0187 3A       		.uleb128 0x3a
 2905 0188 0B       		.uleb128 0xb
 2906 0189 3B       		.uleb128 0x3b
 2907 018a 0B       		.uleb128 0xb
ARM GAS  /var/folders/3j/4xdnk5197cv_b7cw3n33qk7r0000gn/T//cczlz7sX.s 			page 52


 2908 018b 49       		.uleb128 0x49
 2909 018c 13       		.uleb128 0x13
 2910 018d 02       		.uleb128 0x2
 2911 018e 17       		.uleb128 0x17
 2912 018f 00       		.byte	0
 2913 0190 00       		.byte	0
 2914 0191 21       		.uleb128 0x21
 2915 0192 0B       		.uleb128 0xb
 2916 0193 01       		.byte	0x1
 2917 0194 55       		.uleb128 0x55
 2918 0195 17       		.uleb128 0x17
 2919 0196 01       		.uleb128 0x1
 2920 0197 13       		.uleb128 0x13
 2921 0198 00       		.byte	0
 2922 0199 00       		.byte	0
 2923 019a 22       		.uleb128 0x22
 2924 019b 898201   		.uleb128 0x4109
 2925 019e 01       		.byte	0x1
 2926 019f 11       		.uleb128 0x11
 2927 01a0 01       		.uleb128 0x1
 2928 01a1 31       		.uleb128 0x31
 2929 01a2 13       		.uleb128 0x13
 2930 01a3 00       		.byte	0
 2931 01a4 00       		.byte	0
 2932 01a5 23       		.uleb128 0x23
 2933 01a6 8A8201   		.uleb128 0x410a
 2934 01a9 00       		.byte	0
 2935 01aa 02       		.uleb128 0x2
 2936 01ab 18       		.uleb128 0x18
 2937 01ac 9142     		.uleb128 0x2111
 2938 01ae 18       		.uleb128 0x18
 2939 01af 00       		.byte	0
 2940 01b0 00       		.byte	0
 2941 01b1 24       		.uleb128 0x24
 2942 01b2 898201   		.uleb128 0x4109
 2943 01b5 01       		.byte	0x1
 2944 01b6 11       		.uleb128 0x11
 2945 01b7 01       		.uleb128 0x1
 2946 01b8 31       		.uleb128 0x31
 2947 01b9 13       		.uleb128 0x13
 2948 01ba 01       		.uleb128 0x1
 2949 01bb 13       		.uleb128 0x13
 2950 01bc 00       		.byte	0
 2951 01bd 00       		.byte	0
 2952 01be 25       		.uleb128 0x25
 2953 01bf 8A8201   		.uleb128 0x410a
 2954 01c2 00       		.byte	0
 2955 01c3 31       		.uleb128 0x31
 2956 01c4 13       		.uleb128 0x13
 2957 01c5 9142     		.uleb128 0x2111
 2958 01c7 18       		.uleb128 0x18
 2959 01c8 00       		.byte	0
 2960 01c9 00       		.byte	0
 2961 01ca 26       		.uleb128 0x26
 2962 01cb 898201   		.uleb128 0x4109
 2963 01ce 01       		.byte	0x1
 2964 01cf 11       		.uleb128 0x11
ARM GAS  /var/folders/3j/4xdnk5197cv_b7cw3n33qk7r0000gn/T//cczlz7sX.s 			page 53


 2965 01d0 01       		.uleb128 0x1
 2966 01d1 9542     		.uleb128 0x2115
 2967 01d3 19       		.uleb128 0x19
 2968 01d4 31       		.uleb128 0x31
 2969 01d5 13       		.uleb128 0x13
 2970 01d6 01       		.uleb128 0x1
 2971 01d7 13       		.uleb128 0x13
 2972 01d8 00       		.byte	0
 2973 01d9 00       		.byte	0
 2974 01da 27       		.uleb128 0x27
 2975 01db 898201   		.uleb128 0x4109
 2976 01de 01       		.byte	0x1
 2977 01df 11       		.uleb128 0x11
 2978 01e0 01       		.uleb128 0x1
 2979 01e1 9542     		.uleb128 0x2115
 2980 01e3 19       		.uleb128 0x19
 2981 01e4 31       		.uleb128 0x31
 2982 01e5 13       		.uleb128 0x13
 2983 01e6 00       		.byte	0
 2984 01e7 00       		.byte	0
 2985 01e8 28       		.uleb128 0x28
 2986 01e9 2E       		.uleb128 0x2e
 2987 01ea 01       		.byte	0x1
 2988 01eb 03       		.uleb128 0x3
 2989 01ec 0E       		.uleb128 0xe
 2990 01ed 3A       		.uleb128 0x3a
 2991 01ee 0B       		.uleb128 0xb
 2992 01ef 3B       		.uleb128 0x3b
 2993 01f0 0B       		.uleb128 0xb
 2994 01f1 27       		.uleb128 0x27
 2995 01f2 19       		.uleb128 0x19
 2996 01f3 20       		.uleb128 0x20
 2997 01f4 0B       		.uleb128 0xb
 2998 01f5 01       		.uleb128 0x1
 2999 01f6 13       		.uleb128 0x13
 3000 01f7 00       		.byte	0
 3001 01f8 00       		.byte	0
 3002 01f9 29       		.uleb128 0x29
 3003 01fa 05       		.uleb128 0x5
 3004 01fb 00       		.byte	0
 3005 01fc 03       		.uleb128 0x3
 3006 01fd 0E       		.uleb128 0xe
 3007 01fe 3A       		.uleb128 0x3a
 3008 01ff 0B       		.uleb128 0xb
 3009 0200 3B       		.uleb128 0x3b
 3010 0201 0B       		.uleb128 0xb
 3011 0202 49       		.uleb128 0x49
 3012 0203 13       		.uleb128 0x13
 3013 0204 00       		.byte	0
 3014 0205 00       		.byte	0
 3015 0206 2A       		.uleb128 0x2a
 3016 0207 34       		.uleb128 0x34
 3017 0208 00       		.byte	0
 3018 0209 03       		.uleb128 0x3
 3019 020a 08       		.uleb128 0x8
 3020 020b 3A       		.uleb128 0x3a
 3021 020c 0B       		.uleb128 0xb
ARM GAS  /var/folders/3j/4xdnk5197cv_b7cw3n33qk7r0000gn/T//cczlz7sX.s 			page 54


 3022 020d 3B       		.uleb128 0x3b
 3023 020e 0B       		.uleb128 0xb
 3024 020f 49       		.uleb128 0x49
 3025 0210 13       		.uleb128 0x13
 3026 0211 00       		.byte	0
 3027 0212 00       		.byte	0
 3028 0213 2B       		.uleb128 0x2b
 3029 0214 0B       		.uleb128 0xb
 3030 0215 01       		.byte	0x1
 3031 0216 00       		.byte	0
 3032 0217 00       		.byte	0
 3033 0218 2C       		.uleb128 0x2c
 3034 0219 2E       		.uleb128 0x2e
 3035 021a 01       		.byte	0x1
 3036 021b 31       		.uleb128 0x31
 3037 021c 13       		.uleb128 0x13
 3038 021d 11       		.uleb128 0x11
 3039 021e 01       		.uleb128 0x1
 3040 021f 12       		.uleb128 0x12
 3041 0220 06       		.uleb128 0x6
 3042 0221 40       		.uleb128 0x40
 3043 0222 18       		.uleb128 0x18
 3044 0223 9742     		.uleb128 0x2117
 3045 0225 19       		.uleb128 0x19
 3046 0226 01       		.uleb128 0x1
 3047 0227 13       		.uleb128 0x13
 3048 0228 00       		.byte	0
 3049 0229 00       		.byte	0
 3050 022a 2D       		.uleb128 0x2d
 3051 022b 05       		.uleb128 0x5
 3052 022c 00       		.byte	0
 3053 022d 31       		.uleb128 0x31
 3054 022e 13       		.uleb128 0x13
 3055 022f 02       		.uleb128 0x2
 3056 0230 17       		.uleb128 0x17
 3057 0231 00       		.byte	0
 3058 0232 00       		.byte	0
 3059 0233 2E       		.uleb128 0x2e
 3060 0234 05       		.uleb128 0x5
 3061 0235 00       		.byte	0
 3062 0236 31       		.uleb128 0x31
 3063 0237 13       		.uleb128 0x13
 3064 0238 00       		.byte	0
 3065 0239 00       		.byte	0
 3066 023a 2F       		.uleb128 0x2f
 3067 023b 34       		.uleb128 0x34
 3068 023c 00       		.byte	0
 3069 023d 31       		.uleb128 0x31
 3070 023e 13       		.uleb128 0x13
 3071 023f 02       		.uleb128 0x2
 3072 0240 17       		.uleb128 0x17
 3073 0241 00       		.byte	0
 3074 0242 00       		.byte	0
 3075 0243 30       		.uleb128 0x30
 3076 0244 0B       		.uleb128 0xb
 3077 0245 01       		.byte	0x1
 3078 0246 31       		.uleb128 0x31
ARM GAS  /var/folders/3j/4xdnk5197cv_b7cw3n33qk7r0000gn/T//cczlz7sX.s 			page 55


 3079 0247 13       		.uleb128 0x13
 3080 0248 55       		.uleb128 0x55
 3081 0249 17       		.uleb128 0x17
 3082 024a 00       		.byte	0
 3083 024b 00       		.byte	0
 3084 024c 31       		.uleb128 0x31
 3085 024d 2E       		.uleb128 0x2e
 3086 024e 00       		.byte	0
 3087 024f 3F       		.uleb128 0x3f
 3088 0250 19       		.uleb128 0x19
 3089 0251 3C       		.uleb128 0x3c
 3090 0252 19       		.uleb128 0x19
 3091 0253 6E       		.uleb128 0x6e
 3092 0254 0E       		.uleb128 0xe
 3093 0255 03       		.uleb128 0x3
 3094 0256 0E       		.uleb128 0xe
 3095 0257 3A       		.uleb128 0x3a
 3096 0258 0B       		.uleb128 0xb
 3097 0259 3B       		.uleb128 0x3b
 3098 025a 05       		.uleb128 0x5
 3099 025b 00       		.byte	0
 3100 025c 00       		.byte	0
 3101 025d 00       		.byte	0
 3102              		.section	.debug_loc,"",%progbits
 3103              	.Ldebug_loc0:
 3104              	.LLST6:
 3105 0000 00000000 		.4byte	.LVL13
 3106 0004 2C000000 		.4byte	.LVL14
 3107 0008 0100     		.2byte	0x1
 3108 000a 50       		.byte	0x50
 3109 000b 2C000000 		.4byte	.LVL14
 3110 000f 40000000 		.4byte	.LVL16
 3111 0013 0100     		.2byte	0x1
 3112 0015 56       		.byte	0x56
 3113 0016 40000000 		.4byte	.LVL16
 3114 001a 43000000 		.4byte	.LVL17-1
 3115 001e 0300     		.2byte	0x3
 3116 0020 70       		.byte	0x70
 3117 0021 70       		.sleb128 -16
 3118 0022 9F       		.byte	0x9f
 3119 0023 43000000 		.4byte	.LVL17-1
 3120 0027 44000000 		.4byte	.LVL17
 3121 002b 0400     		.2byte	0x4
 3122 002d F3       		.byte	0xf3
 3123 002e 01       		.uleb128 0x1
 3124 002f 50       		.byte	0x50
 3125 0030 9F       		.byte	0x9f
 3126 0031 44000000 		.4byte	.LVL17
 3127 0035 48000000 		.4byte	.LVL18
 3128 0039 0100     		.2byte	0x1
 3129 003b 50       		.byte	0x50
 3130 003c 48000000 		.4byte	.LVL18
 3131 0040 5C000000 		.4byte	.LVL20
 3132 0044 0100     		.2byte	0x1
 3133 0046 56       		.byte	0x56
 3134 0047 5C000000 		.4byte	.LVL20
 3135 004b 5F000000 		.4byte	.LVL21-1
ARM GAS  /var/folders/3j/4xdnk5197cv_b7cw3n33qk7r0000gn/T//cczlz7sX.s 			page 56


 3136 004f 0300     		.2byte	0x3
 3137 0051 70       		.byte	0x70
 3138 0052 70       		.sleb128 -16
 3139 0053 9F       		.byte	0x9f
 3140 0054 5F000000 		.4byte	.LVL21-1
 3141 0058 60000000 		.4byte	.LVL21
 3142 005c 0400     		.2byte	0x4
 3143 005e F3       		.byte	0xf3
 3144 005f 01       		.uleb128 0x1
 3145 0060 50       		.byte	0x50
 3146 0061 9F       		.byte	0x9f
 3147 0062 60000000 		.4byte	.LVL21
 3148 0066 80000000 		.4byte	.LVL22
 3149 006a 0100     		.2byte	0x1
 3150 006c 50       		.byte	0x50
 3151 006d 80000000 		.4byte	.LVL22
 3152 0071 AC000000 		.4byte	.LVL27
 3153 0075 0100     		.2byte	0x1
 3154 0077 56       		.byte	0x56
 3155 0078 AC000000 		.4byte	.LVL27
 3156 007c B0000000 		.4byte	.LVL28
 3157 0080 0100     		.2byte	0x1
 3158 0082 50       		.byte	0x50
 3159 0083 B0000000 		.4byte	.LVL28
 3160 0087 C4000000 		.4byte	.LVL30
 3161 008b 0100     		.2byte	0x1
 3162 008d 56       		.byte	0x56
 3163 008e C4000000 		.4byte	.LVL30
 3164 0092 C7000000 		.4byte	.LVL31-1
 3165 0096 0300     		.2byte	0x3
 3166 0098 70       		.byte	0x70
 3167 0099 70       		.sleb128 -16
 3168 009a 9F       		.byte	0x9f
 3169 009b C7000000 		.4byte	.LVL31-1
 3170 009f C8000000 		.4byte	.LFE10
 3171 00a3 0400     		.2byte	0x4
 3172 00a5 F3       		.byte	0xf3
 3173 00a6 01       		.uleb128 0x1
 3174 00a7 50       		.byte	0x50
 3175 00a8 9F       		.byte	0x9f
 3176 00a9 00000000 		.4byte	0
 3177 00ad 00000000 		.4byte	0
 3178              	.LLST7:
 3179 00b1 00000000 		.4byte	.LVL13
 3180 00b5 2F000000 		.4byte	.LVL15-1
 3181 00b9 0100     		.2byte	0x1
 3182 00bb 51       		.byte	0x51
 3183 00bc 2F000000 		.4byte	.LVL15-1
 3184 00c0 40000000 		.4byte	.LVL16
 3185 00c4 0100     		.2byte	0x1
 3186 00c6 55       		.byte	0x55
 3187 00c7 40000000 		.4byte	.LVL16
 3188 00cb 43000000 		.4byte	.LVL17-1
 3189 00cf 0100     		.2byte	0x1
 3190 00d1 51       		.byte	0x51
 3191 00d2 43000000 		.4byte	.LVL17-1
 3192 00d6 44000000 		.4byte	.LVL17
ARM GAS  /var/folders/3j/4xdnk5197cv_b7cw3n33qk7r0000gn/T//cczlz7sX.s 			page 57


 3193 00da 0400     		.2byte	0x4
 3194 00dc F3       		.byte	0xf3
 3195 00dd 01       		.uleb128 0x1
 3196 00de 51       		.byte	0x51
 3197 00df 9F       		.byte	0x9f
 3198 00e0 44000000 		.4byte	.LVL17
 3199 00e4 4B000000 		.4byte	.LVL19-1
 3200 00e8 0100     		.2byte	0x1
 3201 00ea 51       		.byte	0x51
 3202 00eb 4B000000 		.4byte	.LVL19-1
 3203 00ef 5C000000 		.4byte	.LVL20
 3204 00f3 0100     		.2byte	0x1
 3205 00f5 55       		.byte	0x55
 3206 00f6 5C000000 		.4byte	.LVL20
 3207 00fa 5F000000 		.4byte	.LVL21-1
 3208 00fe 0100     		.2byte	0x1
 3209 0100 51       		.byte	0x51
 3210 0101 5F000000 		.4byte	.LVL21-1
 3211 0105 60000000 		.4byte	.LVL21
 3212 0109 0400     		.2byte	0x4
 3213 010b F3       		.byte	0xf3
 3214 010c 01       		.uleb128 0x1
 3215 010d 51       		.byte	0x51
 3216 010e 9F       		.byte	0x9f
 3217 010f 60000000 		.4byte	.LVL21
 3218 0113 80000000 		.4byte	.LVL22
 3219 0117 0100     		.2byte	0x1
 3220 0119 51       		.byte	0x51
 3221 011a 80000000 		.4byte	.LVL22
 3222 011e AC000000 		.4byte	.LVL27
 3223 0122 0100     		.2byte	0x1
 3224 0124 55       		.byte	0x55
 3225 0125 AC000000 		.4byte	.LVL27
 3226 0129 B3000000 		.4byte	.LVL29-1
 3227 012d 0100     		.2byte	0x1
 3228 012f 51       		.byte	0x51
 3229 0130 B3000000 		.4byte	.LVL29-1
 3230 0134 C4000000 		.4byte	.LVL30
 3231 0138 0100     		.2byte	0x1
 3232 013a 55       		.byte	0x55
 3233 013b C4000000 		.4byte	.LVL30
 3234 013f C7000000 		.4byte	.LVL31-1
 3235 0143 0100     		.2byte	0x1
 3236 0145 51       		.byte	0x51
 3237 0146 C7000000 		.4byte	.LVL31-1
 3238 014a C8000000 		.4byte	.LFE10
 3239 014e 0400     		.2byte	0x4
 3240 0150 F3       		.byte	0xf3
 3241 0151 01       		.uleb128 0x1
 3242 0152 51       		.byte	0x51
 3243 0153 9F       		.byte	0x9f
 3244 0154 00000000 		.4byte	0
 3245 0158 00000000 		.4byte	0
 3246              	.LLST8:
 3247 015c 00000000 		.4byte	.LVL13
 3248 0160 2F000000 		.4byte	.LVL15-1
 3249 0164 0100     		.2byte	0x1
ARM GAS  /var/folders/3j/4xdnk5197cv_b7cw3n33qk7r0000gn/T//cczlz7sX.s 			page 58


 3250 0166 52       		.byte	0x52
 3251 0167 2F000000 		.4byte	.LVL15-1
 3252 016b 44000000 		.4byte	.LVL17
 3253 016f 0400     		.2byte	0x4
 3254 0171 F3       		.byte	0xf3
 3255 0172 01       		.uleb128 0x1
 3256 0173 52       		.byte	0x52
 3257 0174 9F       		.byte	0x9f
 3258 0175 44000000 		.4byte	.LVL17
 3259 0179 4B000000 		.4byte	.LVL19-1
 3260 017d 0100     		.2byte	0x1
 3261 017f 52       		.byte	0x52
 3262 0180 4B000000 		.4byte	.LVL19-1
 3263 0184 60000000 		.4byte	.LVL21
 3264 0188 0400     		.2byte	0x4
 3265 018a F3       		.byte	0xf3
 3266 018b 01       		.uleb128 0x1
 3267 018c 52       		.byte	0x52
 3268 018d 9F       		.byte	0x9f
 3269 018e 60000000 		.4byte	.LVL21
 3270 0192 80000000 		.4byte	.LVL22
 3271 0196 0100     		.2byte	0x1
 3272 0198 52       		.byte	0x52
 3273 0199 80000000 		.4byte	.LVL22
 3274 019d AC000000 		.4byte	.LVL27
 3275 01a1 0400     		.2byte	0x4
 3276 01a3 F3       		.byte	0xf3
 3277 01a4 01       		.uleb128 0x1
 3278 01a5 52       		.byte	0x52
 3279 01a6 9F       		.byte	0x9f
 3280 01a7 AC000000 		.4byte	.LVL27
 3281 01ab B3000000 		.4byte	.LVL29-1
 3282 01af 0100     		.2byte	0x1
 3283 01b1 52       		.byte	0x52
 3284 01b2 B3000000 		.4byte	.LVL29-1
 3285 01b6 C8000000 		.4byte	.LFE10
 3286 01ba 0400     		.2byte	0x4
 3287 01bc F3       		.byte	0xf3
 3288 01bd 01       		.uleb128 0x1
 3289 01be 52       		.byte	0x52
 3290 01bf 9F       		.byte	0x9f
 3291 01c0 00000000 		.4byte	0
 3292 01c4 00000000 		.4byte	0
 3293              	.LLST9:
 3294 01c8 80000000 		.4byte	.LVL22
 3295 01cc 84000000 		.4byte	.LVL23
 3296 01d0 0100     		.2byte	0x1
 3297 01d2 54       		.byte	0x54
 3298 01d3 84000000 		.4byte	.LVL23
 3299 01d7 8C000000 		.4byte	.LVL24
 3300 01db 0300     		.2byte	0x3
 3301 01dd 74       		.byte	0x74
 3302 01de 7F       		.sleb128 -1
 3303 01df 9F       		.byte	0x9f
 3304 01e0 8C000000 		.4byte	.LVL24
 3305 01e4 AC000000 		.4byte	.LVL27
 3306 01e8 0100     		.2byte	0x1
ARM GAS  /var/folders/3j/4xdnk5197cv_b7cw3n33qk7r0000gn/T//cczlz7sX.s 			page 59


 3307 01ea 54       		.byte	0x54
 3308 01eb 00000000 		.4byte	0
 3309 01ef 00000000 		.4byte	0
 3310              	.LLST10:
 3311 01f3 80000000 		.4byte	.LVL22
 3312 01f7 8C000000 		.4byte	.LVL24
 3313 01fb 0500     		.2byte	0x5
 3314 01fd 75       		.byte	0x75
 3315 01fe 00       		.sleb128 0
 3316 01ff 31       		.byte	0x31
 3317 0200 1A       		.byte	0x1a
 3318 0201 9F       		.byte	0x9f
 3319 0202 90000000 		.4byte	.LVL25
 3320 0206 AC000000 		.4byte	.LVL27
 3321 020a 0500     		.2byte	0x5
 3322 020c 75       		.byte	0x75
 3323 020d 00       		.sleb128 0
 3324 020e 31       		.byte	0x31
 3325 020f 1A       		.byte	0x1a
 3326 0210 9F       		.byte	0x9f
 3327 0211 00000000 		.4byte	0
 3328 0215 00000000 		.4byte	0
 3329              	.LLST5:
 3330 0219 00000000 		.4byte	.LVL9
 3331 021d 1C000000 		.4byte	.LVL10
 3332 0221 0100     		.2byte	0x1
 3333 0223 50       		.byte	0x50
 3334 0224 1C000000 		.4byte	.LVL10
 3335 0228 98000000 		.4byte	.LFE9
 3336 022c 0400     		.2byte	0x4
 3337 022e F3       		.byte	0xf3
 3338 022f 01       		.uleb128 0x1
 3339 0230 50       		.byte	0x50
 3340 0231 9F       		.byte	0x9f
 3341 0232 00000000 		.4byte	0
 3342 0236 00000000 		.4byte	0
 3343              	.LLST0:
 3344 023a 00000000 		.4byte	.LVL0
 3345 023e 14000000 		.4byte	.LVL1
 3346 0242 0100     		.2byte	0x1
 3347 0244 51       		.byte	0x51
 3348 0245 14000000 		.4byte	.LVL1
 3349 0249 40000000 		.4byte	.LFE12
 3350 024d 0100     		.2byte	0x1
 3351 024f 55       		.byte	0x55
 3352 0250 00000000 		.4byte	0
 3353 0254 00000000 		.4byte	0
 3354              	.LLST1:
 3355 0258 00000000 		.4byte	.LVL0
 3356 025c 14000000 		.4byte	.LVL1
 3357 0260 0200     		.2byte	0x2
 3358 0262 30       		.byte	0x30
 3359 0263 9F       		.byte	0x9f
 3360 0264 14000000 		.4byte	.LVL1
 3361 0268 18000000 		.4byte	.LVL2
 3362 026c 0100     		.2byte	0x1
 3363 026e 54       		.byte	0x54
ARM GAS  /var/folders/3j/4xdnk5197cv_b7cw3n33qk7r0000gn/T//cczlz7sX.s 			page 60


 3364 026f 18000000 		.4byte	.LVL2
 3365 0273 20000000 		.4byte	.LVL3
 3366 0277 0300     		.2byte	0x3
 3367 0279 74       		.byte	0x74
 3368 027a 7F       		.sleb128 -1
 3369 027b 9F       		.byte	0x9f
 3370 027c 20000000 		.4byte	.LVL3
 3371 0280 40000000 		.4byte	.LFE12
 3372 0284 0100     		.2byte	0x1
 3373 0286 54       		.byte	0x54
 3374 0287 00000000 		.4byte	0
 3375 028b 00000000 		.4byte	0
 3376              	.LLST2:
 3377 028f 14000000 		.4byte	.LVL1
 3378 0293 20000000 		.4byte	.LVL3
 3379 0297 0500     		.2byte	0x5
 3380 0299 75       		.byte	0x75
 3381 029a 00       		.sleb128 0
 3382 029b 31       		.byte	0x31
 3383 029c 1A       		.byte	0x1a
 3384 029d 9F       		.byte	0x9f
 3385 029e 24000000 		.4byte	.LVL4
 3386 02a2 40000000 		.4byte	.LFE12
 3387 02a6 0500     		.2byte	0x5
 3388 02a8 75       		.byte	0x75
 3389 02a9 00       		.sleb128 0
 3390 02aa 31       		.byte	0x31
 3391 02ab 1A       		.byte	0x1a
 3392 02ac 9F       		.byte	0x9f
 3393 02ad 00000000 		.4byte	0
 3394 02b1 00000000 		.4byte	0
 3395              	.LLST3:
 3396 02b5 00000000 		.4byte	.LVL6
 3397 02b9 1B000000 		.4byte	.LVL7-1
 3398 02bd 0100     		.2byte	0x1
 3399 02bf 51       		.byte	0x51
 3400 02c0 1B000000 		.4byte	.LVL7-1
 3401 02c4 44000000 		.4byte	.LFE13
 3402 02c8 0100     		.2byte	0x1
 3403 02ca 56       		.byte	0x56
 3404 02cb 00000000 		.4byte	0
 3405 02cf 00000000 		.4byte	0
 3406              	.LLST4:
 3407 02d3 00000000 		.4byte	.LVL6
 3408 02d7 1B000000 		.4byte	.LVL7-1
 3409 02db 0100     		.2byte	0x1
 3410 02dd 52       		.byte	0x52
 3411 02de 1B000000 		.4byte	.LVL7-1
 3412 02e2 44000000 		.4byte	.LFE13
 3413 02e6 0400     		.2byte	0x4
 3414 02e8 F3       		.byte	0xf3
 3415 02e9 01       		.uleb128 0x1
 3416 02ea 52       		.byte	0x52
 3417 02eb 9F       		.byte	0x9f
 3418 02ec 00000000 		.4byte	0
 3419 02f0 00000000 		.4byte	0
 3420              		.section	.debug_aranges,"",%progbits
ARM GAS  /var/folders/3j/4xdnk5197cv_b7cw3n33qk7r0000gn/T//cczlz7sX.s 			page 61


 3421 0000 3C000000 		.4byte	0x3c
 3422 0004 0200     		.2byte	0x2
 3423 0006 00000000 		.4byte	.Ldebug_info0
 3424 000a 04       		.byte	0x4
 3425 000b 00       		.byte	0
 3426 000c 0000     		.2byte	0
 3427 000e 0000     		.2byte	0
 3428 0010 00000000 		.4byte	.LFB12
 3429 0014 40000000 		.4byte	.LFE12-.LFB12
 3430 0018 00000000 		.4byte	.LFB13
 3431 001c 44000000 		.4byte	.LFE13-.LFB13
 3432 0020 00000000 		.4byte	.LFB9
 3433 0024 98000000 		.4byte	.LFE9-.LFB9
 3434 0028 00000000 		.4byte	.LFB10
 3435 002c C8000000 		.4byte	.LFE10-.LFB10
 3436 0030 00000000 		.4byte	.LFB11
 3437 0034 1C000000 		.4byte	.LFE11-.LFB11
 3438 0038 00000000 		.4byte	0
 3439 003c 00000000 		.4byte	0
 3440              		.section	.debug_ranges,"",%progbits
 3441              	.Ldebug_ranges0:
 3442 0000 1C000000 		.4byte	.LBB3
 3443 0004 20000000 		.4byte	.LBE3
 3444 0008 24000000 		.4byte	.LBB4
 3445 000c 40000000 		.4byte	.LBE4
 3446 0010 00000000 		.4byte	0
 3447 0014 00000000 		.4byte	0
 3448 0018 88000000 		.4byte	.LBB5
 3449 001c 8C000000 		.4byte	.LBE5
 3450 0020 90000000 		.4byte	.LBB6
 3451 0024 AC000000 		.4byte	.LBE6
 3452 0028 00000000 		.4byte	0
 3453 002c 00000000 		.4byte	0
 3454 0030 00000000 		.4byte	.LFB12
 3455 0034 40000000 		.4byte	.LFE12
 3456 0038 00000000 		.4byte	.LFB13
 3457 003c 44000000 		.4byte	.LFE13
 3458 0040 00000000 		.4byte	.LFB9
 3459 0044 98000000 		.4byte	.LFE9
 3460 0048 00000000 		.4byte	.LFB10
 3461 004c C8000000 		.4byte	.LFE10
 3462 0050 00000000 		.4byte	.LFB11
 3463 0054 1C000000 		.4byte	.LFE11
 3464 0058 00000000 		.4byte	0
 3465 005c 00000000 		.4byte	0
 3466              		.section	.debug_line,"",%progbits
 3467              	.Ldebug_line0:
 3468 0000 34030000 		.section	.debug_str,"MS",%progbits,1
 3468      02007702 
 3468      00000201 
 3468      FB0E0D00 
 3468      01010101 
 3469              	.LASF96:
 3470 0000 63665F6F 		.ascii	"cf_off_older\000"
 3470      66665F6F 
 3470      6C646572 
 3470      00
ARM GAS  /var/folders/3j/4xdnk5197cv_b7cw3n33qk7r0000gn/T//cczlz7sX.s 			page 62


 3471              	.LASF42:
 3472 000d 705F6D73 		.ascii	"p_msg\000"
 3472      6700
 3473              	.LASF2:
 3474 0013 73697A65 		.ascii	"size_t\000"
 3474      5F7400
 3475              	.LASF81:
 3476 001a 7264796D 		.ascii	"rdymsg\000"
 3476      736700
 3477              	.LASF176:
 3478 0021 77726974 		.ascii	"write\000"
 3478      6500
 3479              	.LASF117:
 3480 0027 4F757470 		.ascii	"OutputQueue\000"
 3480      75745175 
 3480      65756500 
 3481              	.LASF3:
 3482 0033 5F5F7569 		.ascii	"__uint8_t\000"
 3482      6E74385F 
 3482      7400
 3483              	.LASF185:
 3484 003d 5350495F 		.ascii	"SPI_ACTIVE\000"
 3484      41435449 
 3484      564500
 3485              	.LASF68:
 3486 0048 76746C69 		.ascii	"vtlist\000"
 3486      737400
 3487              	.LASF119:
 3488 004f 62736364 		.ascii	"bscdevice_t\000"
 3488      65766963 
 3488      655F7400 
 3489              	.LASF136:
 3490 005b 696F706F 		.ascii	"ioportmask_t\000"
 3490      72746D61 
 3490      736B5F74 
 3490      00
 3491              	.LASF110:
 3492 0068 715F746F 		.ascii	"q_top\000"
 3492      7000
 3493              	.LASF13:
 3494 006e 6C6F6E67 		.ascii	"long long unsigned int\000"
 3494      206C6F6E 
 3494      6720756E 
 3494      7369676E 
 3494      65642069 
 3495              	.LASF92:
 3496 0085 63685F74 		.ascii	"ch_threadsize\000"
 3496      68726561 
 3496      6473697A 
 3496      6500
 3497              	.LASF82:
 3498 0093 65786974 		.ascii	"exitcode\000"
 3498      636F6465 
 3498      00
 3499              	.LASF188:
 3500 009c 53504944 		.ascii	"SPIDriver\000"
 3500      72697665 
ARM GAS  /var/folders/3j/4xdnk5197cv_b7cw3n33qk7r0000gn/T//cczlz7sX.s 			page 63


 3500      7200
 3501              	.LASF159:
 3502 00a6 72786275 		.ascii	"rxbuf\000"
 3502      6600
 3503              	.LASF124:
 3504 00ac 64617461 		.ascii	"dataFifo\000"
 3504      4669666F 
 3504      00
 3505              	.LASF30:
 3506 00b5 705F7072 		.ascii	"p_prio\000"
 3506      696F00
 3507              	.LASF99:
 3508 00bc 63665F6F 		.ascii	"cf_off_state\000"
 3508      66665F73 
 3508      74617465 
 3508      00
 3509              	.LASF181:
 3510 00c9 72656164 		.ascii	"readt\000"
 3510      7400
 3511              	.LASF152:
 3512 00cf 64657669 		.ascii	"device\000"
 3512      636500
 3513              	.LASF107:
 3514 00d6 715F7761 		.ascii	"q_waiting\000"
 3514      6974696E 
 3514      6700
 3515              	.LASF12:
 3516 00e0 6C6F6E67 		.ascii	"long long int\000"
 3516      206C6F6E 
 3516      6720696E 
 3516      7400
 3517              	.LASF1:
 3518 00ee 7369676E 		.ascii	"signed char\000"
 3518      65642063 
 3518      68617200 
 3519              	.LASF98:
 3520 00fa 63665F6F 		.ascii	"cf_off_stklimit\000"
 3520      66665F73 
 3520      746B6C69 
 3520      6D697400 
 3521              	.LASF183:
 3522 010a 5350495F 		.ascii	"SPI_STOP\000"
 3522      53544F50 
 3522      00
 3523              	.LASF100:
 3524 0113 63665F6F 		.ascii	"cf_off_flags\000"
 3524      66665F66 
 3524      6C616773 
 3524      00
 3525              	.LASF168:
 3526 0120 53445F53 		.ascii	"SD_STOP\000"
 3526      544F5000 
 3527              	.LASF71:
 3528 0128 6D5F7175 		.ascii	"m_queue\000"
 3528      65756500 
 3529              	.LASF155:
 3530 0130 61646472 		.ascii	"addr\000"
ARM GAS  /var/folders/3j/4xdnk5197cv_b7cw3n33qk7r0000gn/T//cczlz7sX.s 			page 64


 3530      00
 3531              	.LASF208:
 3532 0135 5F70616C 		.ascii	"_pal_lld_init\000"
 3532      5F6C6C64 
 3532      5F696E69 
 3532      7400
 3533              	.LASF214:
 3534 0143 474E5520 		.ascii	"GNU C11 7.3.1 20180622 (release) [ARM/embedded-7-br"
 3534      43313120 
 3534      372E332E 
 3534      31203230 
 3534      31383036 
 3535 0176 616E6368 		.ascii	"anch revision 261907] -mcpu=arm1176jz-s -mno-thumb-"
 3535      20726576 
 3535      6973696F 
 3535      6E203236 
 3535      31393037 
 3536 01a9 696E7465 		.ascii	"interwork -ggdb -O2 -fomit-frame-pointer -ffunction"
 3536      72776F72 
 3536      6B202D67 
 3536      67646220 
 3536      2D4F3220 
 3537 01dc 2D736563 		.ascii	"-sections -fdata-sections\000"
 3537      74696F6E 
 3537      73202D66 
 3537      64617461 
 3537      2D736563 
 3538              	.LASF141:
 3539 01f6 4932435F 		.ascii	"I2C_UNINIT\000"
 3539      554E494E 
 3539      495400
 3540              	.LASF163:
 3541 0201 69326361 		.ascii	"i2caddr_t\000"
 3541      6464725F 
 3541      7400
 3542              	.LASF149:
 3543 020b 73746174 		.ascii	"state\000"
 3543      6500
 3544              	.LASF203:
 3545 0211 62697473 		.ascii	"bits\000"
 3545      00
 3546              	.LASF9:
 3547 0216 6C6F6E67 		.ascii	"long int\000"
 3547      20696E74 
 3547      00
 3548              	.LASF215:
 3549 021f 2E2E2F2F 		.ascii	"..//os/hal/platforms/BCM2835/pal_lld.c\000"
 3549      6F732F68 
 3549      616C2F70 
 3549      6C617466 
 3549      6F726D73 
 3550              	.LASF19:
 3551 0246 74737461 		.ascii	"tstate_t\000"
 3551      74655F74 
 3551      00
 3552              	.LASF154:
 3553 024f 74687265 		.ascii	"thread\000"
ARM GAS  /var/folders/3j/4xdnk5197cv_b7cw3n33qk7r0000gn/T//cczlz7sX.s 			page 65


 3553      616400
 3554              	.LASF126:
 3555 0256 64617461 		.ascii	"dataDelay\000"
 3555      44656C61 
 3555      7900
 3556              	.LASF161:
 3557 0260 72786964 		.ascii	"rxidx\000"
 3557      7800
 3558              	.LASF109:
 3559 0266 715F6275 		.ascii	"q_buffer\000"
 3559      66666572 
 3559      00
 3560              	.LASF15:
 3561 026f 75696E74 		.ascii	"uint16_t\000"
 3561      31365F74 
 3561      00
 3562              	.LASF201:
 3563 0278 53504930 		.ascii	"SPI0\000"
 3563      00
 3564              	.LASF104:
 3565 027d 63686465 		.ascii	"chdebug_t\000"
 3565      6275675F 
 3565      7400
 3566              	.LASF144:
 3567 0287 4932435F 		.ascii	"I2C_ACTIVE_TX\000"
 3567      41435449 
 3567      56455F54 
 3567      5800
 3568              	.LASF198:
 3569 0295 636C6F63 		.ascii	"clock_phase\000"
 3569      6B5F7068 
 3569      61736500 
 3570              	.LASF32:
 3571 02a1 705F6E65 		.ascii	"p_newer\000"
 3571      77657200 
 3572              	.LASF118:
 3573 02a9 5F69646C 		.ascii	"_idle_thread_wa\000"
 3573      655F7468 
 3573      72656164 
 3573      5F776100 
 3574              	.LASF191:
 3575 02b9 656E645F 		.ascii	"end_cb\000"
 3575      636200
 3576              	.LASF189:
 3577 02c0 7478636E 		.ascii	"txcnt\000"
 3577      7400
 3578              	.LASF195:
 3579 02c6 63686970 		.ascii	"chip_select_polarity0\000"
 3579      5F73656C 
 3579      6563745F 
 3579      706F6C61 
 3579      72697479 
 3580              	.LASF196:
 3581 02dc 63686970 		.ascii	"chip_select_polarity1\000"
 3581      5F73656C 
 3581      6563745F 
 3581      706F6C61 
ARM GAS  /var/folders/3j/4xdnk5197cv_b7cw3n33qk7r0000gn/T//cczlz7sX.s 			page 66


 3581      72697479 
 3582              	.LASF120:
 3583 02f2 636F6E74 		.ascii	"control\000"
 3583      726F6C00 
 3584              	.LASF10:
 3585 02fa 5F5F7569 		.ascii	"__uint32_t\000"
 3585      6E743332 
 3585      5F7400
 3586              	.LASF206:
 3587 0305 6D61736B 		.ascii	"mask\000"
 3587      00
 3588              	.LASF49:
 3589 030a 72656761 		.ascii	"regarm_t\000"
 3589      726D5F74 
 3589      00
 3590              	.LASF55:
 3591 0313 76745F70 		.ascii	"vt_prev\000"
 3591      72657600 
 3592              	.LASF123:
 3593 031b 736C6176 		.ascii	"slaveAddress\000"
 3593      65416464 
 3593      72657373 
 3593      00
 3594              	.LASF190:
 3595 0328 73706963 		.ascii	"spicallback_t\000"
 3595      616C6C62 
 3595      61636B5F 
 3595      7400
 3596              	.LASF166:
 3597 0336 49324330 		.ascii	"I2C0\000"
 3597      00
 3598              	.LASF202:
 3599 033b 706F7274 		.ascii	"port\000"
 3599      00
 3600              	.LASF79:
 3601 0340 4576656E 		.ascii	"EventSource\000"
 3601      74536F75 
 3601      72636500 
 3602              	.LASF207:
 3603 034c 6D6F6465 		.ascii	"mode\000"
 3603      00
 3604              	.LASF0:
 3605 0351 756E7369 		.ascii	"unsigned int\000"
 3605      676E6564 
 3605      20696E74 
 3605      00
 3606              	.LASF54:
 3607 035e 76745F6E 		.ascii	"vt_next\000"
 3607      65787400 
 3608              	.LASF156:
 3609 0366 74786275 		.ascii	"txbuf\000"
 3609      6600
 3610              	.LASF175:
 3611 036c 53657269 		.ascii	"SerialDriverVMT\000"
 3611      616C4472 
 3611      69766572 
 3611      564D5400 
ARM GAS  /var/folders/3j/4xdnk5197cv_b7cw3n33qk7r0000gn/T//cczlz7sX.s 			page 67


 3612              	.LASF151:
 3613 037c 6572726F 		.ascii	"errors\000"
 3613      727300
 3614              	.LASF173:
 3615 0383 69717565 		.ascii	"iqueue\000"
 3615      756500
 3616              	.LASF11:
 3617 038a 6C6F6E67 		.ascii	"long unsigned int\000"
 3617      20756E73 
 3617      69676E65 
 3617      6420696E 
 3617      7400
 3618              	.LASF105:
 3619 039c 63685F64 		.ascii	"ch_debug\000"
 3619      65627567 
 3619      00
 3620              	.LASF179:
 3621 03a5 67657474 		.ascii	"gett\000"
 3621      00
 3622              	.LASF52:
 3623 03aa 76746675 		.ascii	"vtfunc_t\000"
 3623      6E635F74 
 3623      00
 3624              	.LASF86:
 3625 03b3 63685F69 		.ascii	"ch_identifier\000"
 3625      64656E74 
 3625      69666965 
 3625      7200
 3626              	.LASF194:
 3627 03c1 63686970 		.ascii	"chip_select_polarity\000"
 3627      5F73656C 
 3627      6563745F 
 3627      706F6C61 
 3627      72697479 
 3628              	.LASF172:
 3629 03d6 6576656E 		.ascii	"event\000"
 3629      7400
 3630              	.LASF51:
 3631 03dc 636F6E74 		.ascii	"context\000"
 3631      65787400 
 3632              	.LASF7:
 3633 03e4 73686F72 		.ascii	"short unsigned int\000"
 3633      7420756E 
 3633      7369676E 
 3633      65642069 
 3633      6E7400
 3634              	.LASF134:
 3635 03f7 6770696F 		.ascii	"gpio_port_t\000"
 3635      5F706F72 
 3635      745F7400 
 3636              	.LASF130:
 3637 0403 6770636C 		.ascii	"gpclr\000"
 3637      7200
 3638              	.LASF23:
 3639 0409 6D73675F 		.ascii	"msg_t\000"
 3639      7400
 3640              	.LASF174:
ARM GAS  /var/folders/3j/4xdnk5197cv_b7cw3n33qk7r0000gn/T//cczlz7sX.s 			page 68


 3641 040f 6F717565 		.ascii	"oqueue\000"
 3641      756500
 3642              	.LASF64:
 3643 0416 725F6E65 		.ascii	"r_newer\000"
 3643      77657200 
 3644              	.LASF75:
 3645 041e 656C5F6E 		.ascii	"el_next\000"
 3645      65787400 
 3646              	.LASF213:
 3647 0426 62636D32 		.ascii	"bcm2835_delay\000"
 3647      3833355F 
 3647      64656C61 
 3647      7900
 3648              	.LASF180:
 3649 0434 77726974 		.ascii	"writet\000"
 3649      657400
 3650              	.LASF18:
 3651 043b 746D6F64 		.ascii	"tmode_t\000"
 3651      655F7400 
 3652              	.LASF204:
 3653 0443 5F70616C 		.ascii	"_pal_lld_writeport\000"
 3653      5F6C6C64 
 3653      5F777269 
 3653      7465706F 
 3653      727400
 3654              	.LASF47:
 3655 0456 54687265 		.ascii	"ThreadsList\000"
 3655      6164734C 
 3655      69737400 
 3656              	.LASF24:
 3657 0462 6576656E 		.ascii	"eventmask_t\000"
 3657      746D6173 
 3657      6B5F7400 
 3658              	.LASF116:
 3659 046e 496E7075 		.ascii	"InputQueue\000"
 3659      74517565 
 3659      756500
 3660              	.LASF70:
 3661 0479 4D757465 		.ascii	"Mutex\000"
 3661      7800
 3662              	.LASF145:
 3663 047f 4932435F 		.ascii	"I2C_ACTIVE_RX\000"
 3663      41435449 
 3663      56455F52 
 3663      5800
 3664              	.LASF106:
 3665 048d 47656E65 		.ascii	"GenericQueue\000"
 3665      72696351 
 3665      75657565 
 3665      00
 3666              	.LASF48:
 3667 049a 73746B61 		.ascii	"stkalign_t\000"
 3667      6C69676E 
 3667      5F7400
 3668              	.LASF87:
 3669 04a5 63685F7A 		.ascii	"ch_zero\000"
 3669      65726F00 
ARM GAS  /var/folders/3j/4xdnk5197cv_b7cw3n33qk7r0000gn/T//cczlz7sX.s 			page 69


 3670              	.LASF101:
 3671 04ad 63665F6F 		.ascii	"cf_off_refs\000"
 3671      66665F72 
 3671      65667300 
 3672              	.LASF131:
 3673 04b9 67706C65 		.ascii	"gplev\000"
 3673      7600
 3674              	.LASF178:
 3675 04bf 70757474 		.ascii	"putt\000"
 3675      00
 3676              	.LASF56:
 3677 04c4 76745F74 		.ascii	"vt_time\000"
 3677      696D6500 
 3678              	.LASF142:
 3679 04cc 4932435F 		.ascii	"I2C_STOP\000"
 3679      53544F50 
 3679      00
 3680              	.LASF125:
 3681 04d5 636C6F63 		.ascii	"clockDivider\000"
 3681      6B446976 
 3681      69646572 
 3681      00
 3682              	.LASF108:
 3683 04e2 715F636F 		.ascii	"q_counter\000"
 3683      756E7465 
 3683      7200
 3684              	.LASF57:
 3685 04ec 76745F66 		.ascii	"vt_func\000"
 3685      756E6300 
 3686              	.LASF91:
 3687 04f4 63685F74 		.ascii	"ch_timesize\000"
 3687      696D6573 
 3687      697A6500 
 3688              	.LASF164:
 3689 0500 69635F73 		.ascii	"ic_speed\000"
 3689      70656564 
 3689      00
 3690              	.LASF97:
 3691 0509 63665F6F 		.ascii	"cf_off_name\000"
 3691      66665F6E 
 3691      616D6500 
 3692              	.LASF33:
 3693 0515 705F6F6C 		.ascii	"p_older\000"
 3693      64657200 
 3694              	.LASF160:
 3695 051d 72786279 		.ascii	"rxbytes\000"
 3695      74657300 
 3696              	.LASF111:
 3697 0525 715F7772 		.ascii	"q_wrptr\000"
 3697      70747200 
 3698              	.LASF63:
 3699 052d 725F6374 		.ascii	"r_ctx\000"
 3699      7800
 3700              	.LASF46:
 3701 0533 54687265 		.ascii	"ThreadsQueue\000"
 3701      61647351 
 3701      75657565 
ARM GAS  /var/folders/3j/4xdnk5197cv_b7cw3n33qk7r0000gn/T//cczlz7sX.s 			page 70


 3701      00
 3702              	.LASF88:
 3703 0540 63685F73 		.ascii	"ch_size\000"
 3703      697A6500 
 3704              	.LASF138:
 3705 0548 494F504F 		.ascii	"IOPORT0\000"
 3705      52543000 
 3706              	.LASF66:
 3707 0550 725F6375 		.ascii	"r_current\000"
 3707      7272656E 
 3707      7400
 3708              	.LASF65:
 3709 055a 725F6F6C 		.ascii	"r_older\000"
 3709      64657200 
 3710              	.LASF77:
 3711 0562 656C5F6D 		.ascii	"el_mask\000"
 3711      61736B00 
 3712              	.LASF129:
 3713 056a 67707365 		.ascii	"gpset\000"
 3713      7400
 3714              	.LASF132:
 3715 0570 67707075 		.ascii	"gppudclk\000"
 3715      64636C6B 
 3715      00
 3716              	.LASF192:
 3717 0579 6C6F7373 		.ascii	"lossiEnabled\000"
 3717      69456E61 
 3717      626C6564 
 3717      00
 3718              	.LASF212:
 3719 0586 62636D32 		.ascii	"bcm2835_gpio_fnsel\000"
 3719      3833355F 
 3719      6770696F 
 3719      5F666E73 
 3719      656C00
 3720              	.LASF193:
 3721 0599 63686970 		.ascii	"chip_select\000"
 3721      5F73656C 
 3721      65637400 
 3722              	.LASF20:
 3723 05a5 74726566 		.ascii	"trefs_t\000"
 3723      735F7400 
 3724              	.LASF147:
 3725 05ad 69326373 		.ascii	"i2cstate_t\000"
 3725      74617465 
 3725      5F7400
 3726              	.LASF90:
 3727 05b8 63685F70 		.ascii	"ch_ptrsize\000"
 3727      74727369 
 3727      7A6500
 3728              	.LASF115:
 3729 05c3 716E6F74 		.ascii	"qnotify_t\000"
 3729      6966795F 
 3729      7400
 3730              	.LASF29:
 3731 05cd 705F7072 		.ascii	"p_prev\000"
 3731      657600
ARM GAS  /var/folders/3j/4xdnk5197cv_b7cw3n33qk7r0000gn/T//cczlz7sX.s 			page 71


 3732              	.LASF22:
 3733 05d4 74707269 		.ascii	"tprio_t\000"
 3733      6F5F7400 
 3734              	.LASF112:
 3735 05dc 715F7264 		.ascii	"q_rdptr\000"
 3735      70747200 
 3736              	.LASF162:
 3737 05e4 69326366 		.ascii	"i2cflags_t\000"
 3737      6C616773 
 3737      5F7400
 3738              	.LASF153:
 3739 05ef 6D757465 		.ascii	"mutex\000"
 3739      7800
 3740              	.LASF16:
 3741 05f5 696E7433 		.ascii	"int32_t\000"
 3741      325F7400 
 3742              	.LASF4:
 3743 05fd 756E7369 		.ascii	"unsigned char\000"
 3743      676E6564 
 3743      20636861 
 3743      7200
 3744              	.LASF76:
 3745 060b 656C5F6C 		.ascii	"el_listener\000"
 3745      69737465 
 3745      6E657200 
 3746              	.LASF216:
 3747 0617 2F557365 		.ascii	"/Users/kevinmalmsten/development_raspberry_pi/Chibi"
 3747      72732F6B 
 3747      6576696E 
 3747      6D616C6D 
 3747      7374656E 
 3748 064a 4F532D42 		.ascii	"OS-Backup/__Backup_System\000"
 3748      61636B75 
 3748      702F5F5F 
 3748      4261636B 
 3748      75705F53 
 3749              	.LASF78:
 3750 0664 656C5F66 		.ascii	"el_flags\000"
 3750      6C616773 
 3750      00
 3751              	.LASF44:
 3752 066d 705F6D74 		.ascii	"p_mtxlist\000"
 3752      786C6973 
 3752      7400
 3753              	.LASF5:
 3754 0677 73686F72 		.ascii	"short int\000"
 3754      7420696E 
 3754      7400
 3755              	.LASF35:
 3756 0681 705F7374 		.ascii	"p_state\000"
 3756      61746500 
 3757              	.LASF38:
 3758 0689 705F7072 		.ascii	"p_preempt\000"
 3758      65656D70 
 3758      7400
 3759              	.LASF103:
 3760 0693 63665F6F 		.ascii	"cf_off_time\000"
ARM GAS  /var/folders/3j/4xdnk5197cv_b7cw3n33qk7r0000gn/T//cczlz7sX.s 			page 72


 3760      66665F74 
 3760      696D6500 
 3761              	.LASF62:
 3762 069f 725F7072 		.ascii	"r_prio\000"
 3762      696F00
 3763              	.LASF133:
 3764 06a6 70696E5F 		.ascii	"pin_base\000"
 3764      62617365 
 3764      00
 3765              	.LASF84:
 3766 06af 65776D61 		.ascii	"ewmask\000"
 3766      736B00
 3767              	.LASF28:
 3768 06b6 705F6E65 		.ascii	"p_next\000"
 3768      787400
 3769              	.LASF139:
 3770 06bd 494F504F 		.ascii	"IOPORT1\000"
 3770      52543100 
 3771              	.LASF102:
 3772 06c5 63665F6F 		.ascii	"cf_off_preempt\000"
 3772      66665F70 
 3772      7265656D 
 3772      707400
 3773              	.LASF36:
 3774 06d4 705F666C 		.ascii	"p_flags\000"
 3774      61677300 
 3775              	.LASF27:
 3776 06dc 54687265 		.ascii	"Thread\000"
 3776      616400
 3777              	.LASF199:
 3778 06e3 636C6F63 		.ascii	"clock_divider\000"
 3778      6B5F6469 
 3778      76696465 
 3778      7200
 3779              	.LASF95:
 3780 06f1 63665F6F 		.ascii	"cf_off_newer\000"
 3780      66665F6E 
 3780      65776572 
 3780      00
 3781              	.LASF146:
 3782 06fe 4932435F 		.ascii	"I2C_LOCKED\000"
 3782      4C4F434B 
 3782      454400
 3783              	.LASF43:
 3784 0709 705F6570 		.ascii	"p_epending\000"
 3784      656E6469 
 3784      6E6700
 3785              	.LASF167:
 3786 0714 53445F55 		.ascii	"SD_UNINIT\000"
 3786      4E494E49 
 3786      5400
 3787              	.LASF17:
 3788 071e 75696E74 		.ascii	"uint32_t\000"
 3788      33325F74 
 3788      00
 3789              	.LASF93:
 3790 0727 63665F6F 		.ascii	"cf_off_prio\000"
ARM GAS  /var/folders/3j/4xdnk5197cv_b7cw3n33qk7r0000gn/T//cczlz7sX.s 			page 73


 3790      66665F70 
 3790      72696F00 
 3791              	.LASF61:
 3792 0733 725F7175 		.ascii	"r_queue\000"
 3792      65756500 
 3793              	.LASF53:
 3794 073b 56697274 		.ascii	"VirtualTimer\000"
 3794      75616C54 
 3794      696D6572 
 3794      00
 3795              	.LASF171:
 3796 0748 53657269 		.ascii	"SerialDriver\000"
 3796      616C4472 
 3796      69766572 
 3796      00
 3797              	.LASF21:
 3798 0755 74736C69 		.ascii	"tslices_t\000"
 3798      6365735F 
 3798      7400
 3799              	.LASF177:
 3800 075f 72656164 		.ascii	"read\000"
 3800      00
 3801              	.LASF85:
 3802 0764 63686172 		.ascii	"char\000"
 3802      00
 3803              	.LASF186:
 3804 0769 5350495F 		.ascii	"SPI_COMPLETE\000"
 3804      434F4D50 
 3804      4C455445 
 3804      00
 3805              	.LASF150:
 3806 0776 636F6E66 		.ascii	"config\000"
 3806      696700
 3807              	.LASF6:
 3808 077d 5F5F7569 		.ascii	"__uint16_t\000"
 3808      6E743136 
 3808      5F7400
 3809              	.LASF187:
 3810 0788 73706973 		.ascii	"spistate_t\000"
 3810      74617465 
 3810      5F7400
 3811              	.LASF73:
 3812 0793 6D5F6E65 		.ascii	"m_next\000"
 3812      787400
 3813              	.LASF26:
 3814 079a 73797374 		.ascii	"systime_t\000"
 3814      696D655F 
 3814      7400
 3815              	.LASF45:
 3816 07a4 705F7265 		.ascii	"p_realprio\000"
 3816      616C7072 
 3816      696F00
 3817              	.LASF8:
 3818 07af 5F5F696E 		.ascii	"__int32_t\000"
 3818      7433325F 
 3818      7400
 3819              	.LASF143:
ARM GAS  /var/folders/3j/4xdnk5197cv_b7cw3n33qk7r0000gn/T//cczlz7sX.s 			page 74


 3820 07b9 4932435F 		.ascii	"I2C_READY\000"
 3820      52454144 
 3820      5900
 3821              	.LASF148:
 3822 07c3 49324344 		.ascii	"I2CDriver\000"
 3822      72697665 
 3822      7200
 3823              	.LASF137:
 3824 07cd 696F706F 		.ascii	"ioportid_t\000"
 3824      72746964 
 3824      5F7400
 3825              	.LASF39:
 3826 07d8 705F7469 		.ascii	"p_time\000"
 3826      6D6500
 3827              	.LASF197:
 3828 07df 636C6F63 		.ascii	"clock_polarity\000"
 3828      6B5F706F 
 3828      6C617269 
 3828      747900
 3829              	.LASF205:
 3830 07ee 5F70616C 		.ascii	"_pal_lld_setgroupmode\000"
 3830      5F6C6C64 
 3830      5F736574 
 3830      67726F75 
 3830      706D6F64 
 3831              	.LASF50:
 3832 0804 696E7463 		.ascii	"intctx\000"
 3832      747800
 3833              	.LASF41:
 3834 080b 705F6D73 		.ascii	"p_msgqueue\000"
 3834      67717565 
 3834      756500
 3835              	.LASF169:
 3836 0816 53445F52 		.ascii	"SD_READY\000"
 3836      45414459 
 3836      00
 3837              	.LASF184:
 3838 081f 5350495F 		.ascii	"SPI_READY\000"
 3838      52454144 
 3838      5900
 3839              	.LASF182:
 3840 0829 5350495F 		.ascii	"SPI_UNINIT\000"
 3840      554E494E 
 3840      495400
 3841              	.LASF58:
 3842 0834 76745F70 		.ascii	"vt_par\000"
 3842      617200
 3843              	.LASF25:
 3844 083b 666C6167 		.ascii	"flagsmask_t\000"
 3844      736D6173 
 3844      6B5F7400 
 3845              	.LASF165:
 3846 0847 49324343 		.ascii	"I2CConfig\000"
 3846      6F6E6669 
 3846      6700
 3847              	.LASF170:
 3848 0851 73647374 		.ascii	"sdstate_t\000"
ARM GAS  /var/folders/3j/4xdnk5197cv_b7cw3n33qk7r0000gn/T//cczlz7sX.s 			page 75


 3848      6174655F 
 3848      7400
 3849              	.LASF158:
 3850 085b 74786964 		.ascii	"txidx\000"
 3850      7800
 3851              	.LASF94:
 3852 0861 63665F6F 		.ascii	"cf_off_ctx\000"
 3852      66665F63 
 3852      747800
 3853              	.LASF37:
 3854 086c 705F7265 		.ascii	"p_refs\000"
 3854      667300
 3855              	.LASF121:
 3856 0873 73746174 		.ascii	"status\000"
 3856      757300
 3857              	.LASF67:
 3858 087a 52656164 		.ascii	"ReadyList\000"
 3858      794C6973 
 3858      7400
 3859              	.LASF113:
 3860 0884 715F6E6F 		.ascii	"q_notify\000"
 3860      74696679 
 3860      00
 3861              	.LASF69:
 3862 088d 726C6973 		.ascii	"rlist\000"
 3862      7400
 3863              	.LASF210:
 3864 0893 7365745F 		.ascii	"set_gpio_pud\000"
 3864      6770696F 
 3864      5F707564 
 3864      00
 3865              	.LASF14:
 3866 08a0 75696E74 		.ascii	"uint8_t\000"
 3866      385F7400 
 3867              	.LASF209:
 3868 08a8 7365745F 		.ascii	"set_gpio_in\000"
 3868      6770696F 
 3868      5F696E00 
 3869              	.LASF128:
 3870 08b4 6C617463 		.ascii	"latch\000"
 3870      6800
 3871              	.LASF74:
 3872 08ba 4576656E 		.ascii	"EventListener\000"
 3872      744C6973 
 3872      74656E65 
 3872      7200
 3873              	.LASF83:
 3874 08c8 77746F62 		.ascii	"wtobjp\000"
 3874      6A7000
 3875              	.LASF34:
 3876 08cf 705F6E61 		.ascii	"p_name\000"
 3876      6D6500
 3877              	.LASF211:
 3878 08d6 7075645F 		.ascii	"pud_mode\000"
 3878      6D6F6465 
 3878      00
 3879              	.LASF59:
ARM GAS  /var/folders/3j/4xdnk5197cv_b7cw3n33qk7r0000gn/T//cczlz7sX.s 			page 76


 3880 08df 76745F73 		.ascii	"vt_systime\000"
 3880      79737469 
 3880      6D6500
 3881              	.LASF80:
 3882 08ea 65735F6E 		.ascii	"es_next\000"
 3882      65787400 
 3883              	.LASF200:
 3884 08f2 53504943 		.ascii	"SPIConfig\000"
 3884      6F6E6669 
 3884      6700
 3885              	.LASF89:
 3886 08fc 63685F76 		.ascii	"ch_version\000"
 3886      65727369 
 3886      6F6E00
 3887              	.LASF122:
 3888 0907 64617461 		.ascii	"dataLength\000"
 3888      4C656E67 
 3888      746800
 3889              	.LASF60:
 3890 0912 56544C69 		.ascii	"VTList\000"
 3890      737400
 3891              	.LASF114:
 3892 0919 715F6C69 		.ascii	"q_link\000"
 3892      6E6B00
 3893              	.LASF135:
 3894 0920 50414C43 		.ascii	"PALConfig\000"
 3894      6F6E6669 
 3894      6700
 3895              	.LASF72:
 3896 092a 6D5F6F77 		.ascii	"m_owner\000"
 3896      6E657200 
 3897              	.LASF140:
 3898 0932 70616C5F 		.ascii	"pal_default_config\000"
 3898      64656661 
 3898      756C745F 
 3898      636F6E66 
 3898      696700
 3899              	.LASF31:
 3900 0945 705F6374 		.ascii	"p_ctx\000"
 3900      7800
 3901              	.LASF40:
 3902 094b 705F7761 		.ascii	"p_waiting\000"
 3902      6974696E 
 3902      6700
 3903              	.LASF157:
 3904 0955 74786279 		.ascii	"txbytes\000"
 3904      74657300 
 3905              	.LASF127:
 3906 095d 636C6F63 		.ascii	"clockStretchTimeout\000"
 3906      6B537472 
 3906      65746368 
 3906      54696D65 
 3906      6F757400 
 3907              		.ident	"GCC: (GNU Tools for Arm Embedded Processors 7-2018-q2-update) 7.3.1 20180622 (release) [AR
ARM GAS  /var/folders/3j/4xdnk5197cv_b7cw3n33qk7r0000gn/T//cczlz7sX.s 			page 77


DEFINED SYMBOLS
                            *ABS*:0000000000000000 pal_lld.c
/var/folders/3j/4xdnk5197cv_b7cw3n33qk7r0000gn/T//cczlz7sX.s:16     .text.set_gpio_in.isra.0:0000000000000000 $a
/var/folders/3j/4xdnk5197cv_b7cw3n33qk7r0000gn/T//cczlz7sX.s:21     .text.set_gpio_in.isra.0:0000000000000000 set_gpio_in.isra.0
/var/folders/3j/4xdnk5197cv_b7cw3n33qk7r0000gn/T//cczlz7sX.s:71     .text.set_gpio_pud.isra.1:0000000000000000 $a
/var/folders/3j/4xdnk5197cv_b7cw3n33qk7r0000gn/T//cczlz7sX.s:76     .text.set_gpio_pud.isra.1:0000000000000000 set_gpio_pud.isra.1
/var/folders/3j/4xdnk5197cv_b7cw3n33qk7r0000gn/T//cczlz7sX.s:123    .text.set_gpio_pud.isra.1:0000000000000040 $d
/var/folders/3j/4xdnk5197cv_b7cw3n33qk7r0000gn/T//cczlz7sX.s:128    .text._pal_lld_init:0000000000000000 $a
/var/folders/3j/4xdnk5197cv_b7cw3n33qk7r0000gn/T//cczlz7sX.s:134    .text._pal_lld_init:0000000000000000 _pal_lld_init
/var/folders/3j/4xdnk5197cv_b7cw3n33qk7r0000gn/T//cczlz7sX.s:207    .text._pal_lld_init:0000000000000070 $d
                            *COM*:0000000000000018 IOPORT0
                            *COM*:0000000000000018 IOPORT1
/var/folders/3j/4xdnk5197cv_b7cw3n33qk7r0000gn/T//cczlz7sX.s:221    .text._pal_lld_setgroupmode:0000000000000000 $a
/var/folders/3j/4xdnk5197cv_b7cw3n33qk7r0000gn/T//cczlz7sX.s:227    .text._pal_lld_setgroupmode:0000000000000000 _pal_lld_setgroupmode
/var/folders/3j/4xdnk5197cv_b7cw3n33qk7r0000gn/T//cczlz7sX.s:363    .text._pal_lld_writeport:0000000000000000 $a
/var/folders/3j/4xdnk5197cv_b7cw3n33qk7r0000gn/T//cczlz7sX.s:369    .text._pal_lld_writeport:0000000000000000 _pal_lld_writeport

UNDEFINED SYMBOLS
bcm2835_gpio_fnsel
bcm2835_delay
