ARM GAS  /var/folders/3j/4xdnk5197cv_b7cw3n33qk7r0000gn/T//ccK3Dbpf.s 			page 1


   1              		.cpu arm1176jz-s
   2              		.eabi_attribute 20, 1
   3              		.eabi_attribute 21, 1
   4              		.eabi_attribute 23, 3
   5              		.eabi_attribute 24, 1
   6              		.eabi_attribute 25, 1
   7              		.eabi_attribute 26, 1
   8              		.eabi_attribute 30, 2
   9              		.eabi_attribute 34, 1
  10              		.eabi_attribute 18, 4
  11              		.file	"serial_lld.c"
  12              		.text
  13              	.Ltext0:
  14              		.cfi_sections	.debug_frame
  15              		.section	.text.output_notify,"ax",%progbits
  16              		.align	2
  17              		.syntax unified
  18              		.arm
  19              		.fpu softvfp
  20              		.type	output_notify, %function
  21              	output_notify:
  22              	.LFB7:
  23              		.file 1 "..//os/hal/platforms/BCM2835/serial_lld.c"
  24              		.loc 1 59 0
  25              		.cfi_startproc
  26              		@ args = 0, pretend = 0, frame = 0
  27              		@ frame_needed = 0, uses_anonymous_args = 0
  28              		@ link register save eliminated.
  29              	.LVL0:
  30              		.loc 1 62 0
  31 0000 0C209FE5 		ldr	r2, .L3
  32 0004 443092E5 		ldr	r3, [r2, #68]
  33 0008 023083E3 		orr	r3, r3, #2
  34 000c 443082E5 		str	r3, [r2, #68]
  35              		.loc 1 63 0
  36 0010 1EFF2FE1 		bx	lr
  37              	.L4:
  38              		.align	2
  39              	.L3:
  40 0014 00502120 		.word	539054080
  41              		.cfi_endproc
  42              	.LFE7:
  43              		.size	output_notify, .-output_notify
  44              		.section	.text.sd_lld_serve_interrupt,"ax",%progbits
  45              		.align	2
  46              		.global	sd_lld_serve_interrupt
  47              		.syntax unified
  48              		.arm
  49              		.fpu softvfp
  50              		.type	sd_lld_serve_interrupt, %function
  51              	sd_lld_serve_interrupt:
  52              	.LFB8:
  53              		.loc 1 69 0
  54              		.cfi_startproc
  55              		@ args = 0, pretend = 0, frame = 0
  56              		@ frame_needed = 0, uses_anonymous_args = 0
  57              	.LVL1:
ARM GAS  /var/folders/3j/4xdnk5197cv_b7cw3n33qk7r0000gn/T//ccK3Dbpf.s 			page 2


  58              		.loc 1 70 0
  59 0000 9C309FE5 		ldr	r3, .L22
  60              		.loc 1 69 0
  61 0004 70402DE9 		push	{r4, r5, r6, lr}
  62              		.cfi_def_cfa_offset 16
  63              		.cfi_offset 4, -16
  64              		.cfi_offset 5, -12
  65              		.cfi_offset 6, -8
  66              		.cfi_offset 14, -4
  67              		.loc 1 70 0
  68 0008 482093E5 		ldr	r2, [r3, #72]
  69              		.loc 1 69 0
  70 000c 0050A0E1 		mov	r5, r0
  71              		.loc 1 70 0
  72 0010 072002E2 		and	r2, r2, #7
  73 0014 040052E3 		cmp	r2, #4
  74 0018 1100000A 		beq	.L7
  75              	.LVL2:
  76              	.L6:
  77              		.loc 1 79 0
  78 001c 80409FE5 		ldr	r4, .L22
  79 0020 483094E5 		ldr	r3, [r4, #72]
  80 0024 073003E2 		and	r3, r3, #7
  81 0028 020053E3 		cmp	r3, #2
  82 002c 7080BD18 		popne	{r4, r5, r6, pc}
  83              	.L10:
  84              	.LBB15:
  85              		.loc 1 81 0 discriminator 1
  86 0030 543094E5 		ldr	r3, [r4, #84]
  87 0034 200013E3 		tst	r3, #32
  88 0038 FCFFFF0A 		beq	.L10
  89              		.loc 1 82 0
  90 003c 0500A0E1 		mov	r0, r5
  91 0040 FEFFFFEB 		bl	sdRequestDataI
  92              	.LVL3:
  93              		.loc 1 83 0
  94 0044 000050E3 		cmp	r0, #0
  95              	.LBB16:
  96              	.LBB17:
  97              		.loc 1 174 0
  98 0048 54209FA5 		ldrge	r2, .L22
  99              	.LBE17:
 100              	.LBE16:
 101              		.loc 1 83 0
 102 004c 100000BA 		blt	.L21
 103              	.L12:
 104              	.LBB19:
 105              	.LBB18:
 106              		.loc 1 174 0
 107 0050 543092E5 		ldr	r3, [r2, #84]
 108 0054 200013E3 		tst	r3, #32
 109 0058 FCFFFF0A 		beq	.L12
 110              		.loc 1 175 0
 111 005c 400082E5 		str	r0, [r2, #64]
 112              	.LBE18:
 113              	.LBE19:
 114              	.LBE15:
ARM GAS  /var/folders/3j/4xdnk5197cv_b7cw3n33qk7r0000gn/T//ccK3Dbpf.s 			page 3


 115              		.loc 1 92 0
 116 0060 7080BDE8 		pop	{r4, r5, r6, pc}
 117              	.LVL4:
 118              	.L7:
 119              		.loc 1 72 0 discriminator 1
 120 0064 542093E5 		ldr	r2, [r3, #84]
 121 0068 010012E3 		tst	r2, #1
 122 006c FCFFFF0A 		beq	.L7
 123              		.loc 1 74 0
 124 0070 2C409FE5 		ldr	r4, .L22
 125              	.LVL5:
 126              	.L8:
 127              		.loc 1 74 0 is_stmt 0 discriminator 1
 128 0074 401094E5 		ldr	r1, [r4, #64]
 129 0078 0500A0E1 		mov	r0, r5
 130 007c 7110EFE6 		uxtb	r1, r1
 131 0080 FEFFFFEB 		bl	sdIncomingDataI
 132              	.LVL6:
 133              		.loc 1 75 0 is_stmt 1 discriminator 1
 134 0084 543094E5 		ldr	r3, [r4, #84]
 135 0088 010013E3 		tst	r3, #1
 136 008c F8FFFF1A 		bne	.L8
 137 0090 E1FFFFEA 		b	.L6
 138              	.LVL7:
 139              	.L21:
 140              	.LBB20:
 141              		.loc 1 85 0
 142 0094 443094E5 		ldr	r3, [r4, #68]
 143 0098 0230C3E3 		bic	r3, r3, #2
 144 009c 443084E5 		str	r3, [r4, #68]
 145 00a0 7080BDE8 		pop	{r4, r5, r6, pc}
 146              	.L23:
 147              		.align	2
 148              	.L22:
 149 00a4 00502120 		.word	539054080
 150              	.LBE20:
 151              		.cfi_endproc
 152              	.LFE8:
 153              		.size	sd_lld_serve_interrupt, .-sd_lld_serve_interrupt
 154              		.section	.text.sd_lld_init,"ax",%progbits
 155              		.align	2
 156              		.global	sd_lld_init
 157              		.syntax unified
 158              		.arm
 159              		.fpu softvfp
 160              		.type	sd_lld_init, %function
 161              	sd_lld_init:
 162              	.LFB9:
 163              		.loc 1 103 0
 164              		.cfi_startproc
 165              		@ args = 0, pretend = 0, frame = 0
 166              		@ frame_needed = 0, uses_anonymous_args = 0
 167              		@ link register save eliminated.
 168              		.loc 1 104 0
 169 0000 08209FE5 		ldr	r2, .L25
 170 0004 0010A0E3 		mov	r1, #0
 171 0008 04009FE5 		ldr	r0, .L25+4
ARM GAS  /var/folders/3j/4xdnk5197cv_b7cw3n33qk7r0000gn/T//ccK3Dbpf.s 			page 4


 172 000c FEFFFFEA 		b	sdObjectInit
 173              	.LVL8:
 174              	.L26:
 175              		.align	2
 176              	.L25:
 177 0010 00000000 		.word	output_notify
 178 0014 00000000 		.word	SD1
 179              		.cfi_endproc
 180              	.LFE9:
 181              		.size	sd_lld_init, .-sd_lld_init
 182              		.global	__aeabi_uidiv
 183              		.section	.text.sd_lld_start,"ax",%progbits
 184              		.align	2
 185              		.global	sd_lld_start
 186              		.syntax unified
 187              		.arm
 188              		.fpu softvfp
 189              		.type	sd_lld_start, %function
 190              	sd_lld_start:
 191              	.LFB10:
 192              		.loc 1 117 0
 193              		.cfi_startproc
 194              		@ args = 0, pretend = 0, frame = 0
 195              		@ frame_needed = 0, uses_anonymous_args = 0
 196              	.LVL9:
 197 0000 F0472DE9 		push	{r4, r5, r6, r7, r8, r9, r10, lr}
 198              		.cfi_def_cfa_offset 32
 199              		.cfi_offset 4, -32
 200              		.cfi_offset 5, -28
 201              		.cfi_offset 6, -24
 202              		.cfi_offset 7, -20
 203              		.cfi_offset 8, -16
 204              		.cfi_offset 9, -12
 205              		.cfi_offset 10, -8
 206              		.cfi_offset 14, -4
 207              		.loc 1 127 0
 208 0004 0050A0E3 		mov	r5, #0
 209              		.loc 1 121 0
 210 0008 A0309FE5 		ldr	r3, .L30
 211 000c 050051E1 		cmp	r1, r5
 212 0010 0310A001 		moveq	r1, r3
 213              	.LVL10:
 214              		.loc 1 131 0
 215 0014 0520A0E3 		mov	r2, #5
 216              		.loc 1 132 0
 217 0018 C630A0E3 		mov	r3, #198
 218              		.loc 1 129 0
 219 001c 0390A0E3 		mov	r9, #3
 220              		.loc 1 123 0
 221 0020 0282A0E3 		mov	r8, #536870912
 222              		.loc 1 125 0
 223 0024 0100A0E3 		mov	r0, #1
 224              	.LVL11:
 225 0028 84409FE5 		ldr	r4, .L30+4
 226              		.loc 1 123 0
 227 002c 84709FE5 		ldr	r7, .L30+8
 228              		.loc 1 138 0
ARM GAS  /var/folders/3j/4xdnk5197cv_b7cw3n33qk7r0000gn/T//ccK3Dbpf.s 			page 5


 229 0030 84609FE5 		ldr	r6, .L30+12
 230              		.loc 1 123 0
 231 0034 1C8287E5 		str	r8, [r7, #540]
 232              		.loc 1 125 0
 233 0038 040084E5 		str	r0, [r4, #4]
 234              		.loc 1 127 0
 235 003c 445084E5 		str	r5, [r4, #68]
 236              		.loc 1 128 0
 237 0040 605084E5 		str	r5, [r4, #96]
 238              		.loc 1 129 0
 239 0044 4C9084E5 		str	r9, [r4, #76]
 240              		.loc 1 130 0
 241 0048 505084E5 		str	r5, [r4, #80]
 242              		.loc 1 131 0
 243 004c 442084E5 		str	r2, [r4, #68]
 244              		.loc 1 132 0
 245 0050 483084E5 		str	r3, [r4, #72]
 246              		.loc 1 133 0
 247 0054 001091E5 		ldr	r1, [r1]
 248              	.LVL12:
 249 0058 60009FE5 		ldr	r0, .L30+16
 250 005c 1119A0E1 		lsl	r1, r1, r9
 251 0060 FEFFFFEB 		bl	__aeabi_uidiv
 252              	.LVL13:
 253 0064 010040E2 		sub	r0, r0, #1
 254 0068 680084E5 		str	r0, [r4, #104]
 255              		.loc 1 135 0
 256 006c 0210A0E3 		mov	r1, #2
 257 0070 0E00A0E3 		mov	r0, #14
 258 0074 FEFFFFEB 		bl	bcm2835_gpio_fnsel
 259              	.LVL14:
 260              		.loc 1 136 0
 261 0078 0210A0E3 		mov	r1, #2
 262 007c 0F00A0E3 		mov	r0, #15
 263 0080 FEFFFFEB 		bl	bcm2835_gpio_fnsel
 264              	.LVL15:
 265              		.loc 1 139 0
 266 0084 9600A0E3 		mov	r0, #150
 267              		.loc 1 138 0
 268 0088 945086E5 		str	r5, [r6, #148]
 269              		.loc 1 139 0
 270 008c FEFFFFEB 		bl	bcm2835_delay
 271              	.LVL16:
 272              		.loc 1 140 0
 273 0090 0339A0E3 		mov	r3, #49152
 274              		.loc 1 141 0
 275 0094 9600A0E3 		mov	r0, #150
 276              		.loc 1 140 0
 277 0098 983086E5 		str	r3, [r6, #152]
 278              		.loc 1 141 0
 279 009c FEFFFFEB 		bl	bcm2835_delay
 280              	.LVL17:
 281              		.loc 1 142 0
 282 00a0 985086E5 		str	r5, [r6, #152]
 283              		.loc 1 144 0
 284 00a4 609084E5 		str	r9, [r4, #96]
 285              		.loc 1 146 0
ARM GAS  /var/folders/3j/4xdnk5197cv_b7cw3n33qk7r0000gn/T//ccK3Dbpf.s 			page 6


 286 00a8 108287E5 		str	r8, [r7, #528]
 287              		.loc 1 147 0
 288 00ac F087BDE8 		pop	{r4, r5, r6, r7, r8, r9, r10, pc}
 289              	.L31:
 290              		.align	2
 291              	.L30:
 292 00b0 00000000 		.word	.LANCHOR0
 293 00b4 00502120 		.word	539054080
 294 00b8 00B00020 		.word	536915968
 295 00bc 00002020 		.word	538968064
 296 00c0 80B2E60E 		.word	250000000
 297              		.cfi_endproc
 298              	.LFE10:
 299              		.size	sd_lld_start, .-sd_lld_start
 300              		.section	.text.sd_lld_stop,"ax",%progbits
 301              		.align	2
 302              		.global	sd_lld_stop
 303              		.syntax unified
 304              		.arm
 305              		.fpu softvfp
 306              		.type	sd_lld_stop, %function
 307              	sd_lld_stop:
 308              	.LFB11:
 309              		.loc 1 158 0
 310              		.cfi_startproc
 311              		@ args = 0, pretend = 0, frame = 0
 312              		@ frame_needed = 0, uses_anonymous_args = 0
 313              	.LVL18:
 314              		.loc 1 161 0
 315 0000 28209FE5 		ldr	r2, .L34
 316              		.loc 1 158 0
 317 0004 10402DE9 		push	{r4, lr}
 318              		.cfi_def_cfa_offset 8
 319              		.cfi_offset 4, -8
 320              		.cfi_offset 14, -4
 321              		.loc 1 161 0
 322 0008 1C3292E5 		ldr	r3, [r2, #540]
 323              		.loc 1 162 0
 324 000c 0010A0E3 		mov	r1, #0
 325              		.loc 1 161 0
 326 0010 023283E3 		orr	r3, r3, #536870912
 327              		.loc 1 162 0
 328 0014 0E00A0E3 		mov	r0, #14
 329              	.LVL19:
 330              		.loc 1 161 0
 331 0018 1C3282E5 		str	r3, [r2, #540]
 332              		.loc 1 162 0
 333 001c FEFFFFEB 		bl	bcm2835_gpio_fnsel
 334              	.LVL20:
 335              		.loc 1 164 0
 336 0020 1040BDE8 		pop	{r4, lr}
 337              		.cfi_restore 14
 338              		.cfi_restore 4
 339              		.cfi_def_cfa_offset 0
 340              		.loc 1 163 0
 341 0024 0010A0E3 		mov	r1, #0
 342 0028 0F00A0E3 		mov	r0, #15
ARM GAS  /var/folders/3j/4xdnk5197cv_b7cw3n33qk7r0000gn/T//ccK3Dbpf.s 			page 7


 343 002c FEFFFFEA 		b	bcm2835_gpio_fnsel
 344              	.LVL21:
 345              	.L35:
 346              		.align	2
 347              	.L34:
 348 0030 00B00020 		.word	536915968
 349              		.cfi_endproc
 350              	.LFE11:
 351              		.size	sd_lld_stop, .-sd_lld_stop
 352              		.section	.text.mini_uart_recv,"ax",%progbits
 353              		.align	2
 354              		.global	mini_uart_recv
 355              		.syntax unified
 356              		.arm
 357              		.fpu softvfp
 358              		.type	mini_uart_recv, %function
 359              	mini_uart_recv:
 360              	.LFB12:
 361              		.loc 1 167 0
 362              		.cfi_startproc
 363              		@ args = 0, pretend = 0, frame = 0
 364              		@ frame_needed = 0, uses_anonymous_args = 0
 365              		@ link register save eliminated.
 366              		.loc 1 168 0
 367 0000 14209FE5 		ldr	r2, .L40
 368              	.L37:
 369              		.loc 1 168 0 is_stmt 0 discriminator 1
 370 0004 543092E5 		ldr	r3, [r2, #84]
 371 0008 010013E3 		tst	r3, #1
 372 000c FCFFFF0A 		beq	.L37
 373              		.loc 1 169 0 is_stmt 1
 374 0010 400092E5 		ldr	r0, [r2, #64]
 375              		.loc 1 170 0
 376 0014 7000EFE6 		uxtb	r0, r0
 377 0018 1EFF2FE1 		bx	lr
 378              	.L41:
 379              		.align	2
 380              	.L40:
 381 001c 00502120 		.word	539054080
 382              		.cfi_endproc
 383              	.LFE12:
 384              		.size	mini_uart_recv, .-mini_uart_recv
 385              		.section	.text.mini_uart_send,"ax",%progbits
 386              		.align	2
 387              		.global	mini_uart_send
 388              		.syntax unified
 389              		.arm
 390              		.fpu softvfp
 391              		.type	mini_uart_send, %function
 392              	mini_uart_send:
 393              	.LFB13:
 394              		.loc 1 173 0
 395              		.cfi_startproc
 396              		@ args = 0, pretend = 0, frame = 0
 397              		@ frame_needed = 0, uses_anonymous_args = 0
 398              		@ link register save eliminated.
 399              	.LVL22:
ARM GAS  /var/folders/3j/4xdnk5197cv_b7cw3n33qk7r0000gn/T//ccK3Dbpf.s 			page 8


 400              		.loc 1 174 0
 401 0000 10209FE5 		ldr	r2, .L46
 402              	.L43:
 403              		.loc 1 174 0 is_stmt 0 discriminator 1
 404 0004 543092E5 		ldr	r3, [r2, #84]
 405 0008 200013E3 		tst	r3, #32
 406 000c FCFFFF0A 		beq	.L43
 407              		.loc 1 175 0 is_stmt 1
 408 0010 400082E5 		str	r0, [r2, #64]
 409              		.loc 1 176 0
 410 0014 1EFF2FE1 		bx	lr
 411              	.L47:
 412              		.align	2
 413              	.L46:
 414 0018 00502120 		.word	539054080
 415              		.cfi_endproc
 416              	.LFE13:
 417              		.size	mini_uart_send, .-mini_uart_send
 418              		.section	.text.mini_uart_sendstr,"ax",%progbits
 419              		.align	2
 420              		.global	mini_uart_sendstr
 421              		.syntax unified
 422              		.arm
 423              		.fpu softvfp
 424              		.type	mini_uart_sendstr, %function
 425              	mini_uart_sendstr:
 426              	.LFB14:
 427              		.loc 1 179 0
 428              		.cfi_startproc
 429              		@ args = 0, pretend = 0, frame = 0
 430              		@ frame_needed = 0, uses_anonymous_args = 0
 431              		@ link register save eliminated.
 432              	.LVL23:
 433              		.loc 1 181 0
 434 0000 0010D0E5 		ldrb	r1, [r0]	@ zero_extendqisi2
 435 0004 010080E2 		add	r0, r0, #1
 436              	.LVL24:
 437 0008 000051E3 		cmp	r1, #0
 438 000c 1EFF2F01 		bxeq	lr
 439              	.LBB21:
 440              	.LBB22:
 441              		.loc 1 174 0
 442 0010 1C209FE5 		ldr	r2, .L58
 443              	.LVL25:
 444              	.L50:
 445 0014 543092E5 		ldr	r3, [r2, #84]
 446 0018 200013E3 		tst	r3, #32
 447 001c FCFFFF0A 		beq	.L50
 448              		.loc 1 175 0
 449 0020 401082E5 		str	r1, [r2, #64]
 450              	.LVL26:
 451              	.LBE22:
 452              	.LBE21:
 453              		.loc 1 181 0
 454 0024 0110D0E4 		ldrb	r1, [r0], #1	@ zero_extendqisi2
 455              	.LVL27:
 456 0028 000051E3 		cmp	r1, #0
ARM GAS  /var/folders/3j/4xdnk5197cv_b7cw3n33qk7r0000gn/T//ccK3Dbpf.s 			page 9


 457 002c F8FFFF1A 		bne	.L50
 458 0030 1EFF2FE1 		bx	lr
 459              	.L59:
 460              		.align	2
 461              	.L58:
 462 0034 00502120 		.word	539054080
 463              		.cfi_endproc
 464              	.LFE14:
 465              		.size	mini_uart_sendstr, .-mini_uart_sendstr
 466              		.section	.text.mini_uart_sendhex,"ax",%progbits
 467              		.align	2
 468              		.global	mini_uart_sendhex
 469              		.syntax unified
 470              		.arm
 471              		.fpu softvfp
 472              		.type	mini_uart_sendhex, %function
 473              	mini_uart_sendhex:
 474              	.LFB15:
 475              		.loc 1 185 0
 476              		.cfi_startproc
 477              		@ args = 0, pretend = 0, frame = 0
 478              		@ frame_needed = 0, uses_anonymous_args = 0
 479              	.LVL28:
 480 0000 04E02DE5 		str	lr, [sp, #-4]!
 481              		.cfi_def_cfa_offset 4
 482              		.cfi_offset 14, -4
 483              		.loc 1 189 0
 484 0004 20E0A0E3 		mov	lr, #32
 485              	.LBB23:
 486              	.LBB24:
 487              		.loc 1 174 0
 488 0008 80209FE5 		ldr	r2, .L82
 489              	.LVL29:
 490              	.L64:
 491              	.LBE24:
 492              	.LBE23:
 493              		.loc 1 192 0
 494 000c 04E04EE2 		sub	lr, lr, #4
 495              	.LVL30:
 496              		.loc 1 193 0
 497 0010 303EA0E1 		lsr	r3, r0, lr
 498 0014 0F3003E2 		and	r3, r3, #15
 499              	.LVL31:
 500              		.loc 1 194 0
 501 0018 090053E3 		cmp	r3, #9
 502              		.loc 1 195 0
 503 001c 37C08382 		addhi	ip, r3, #55
 504              	.LVL32:
 505              		.loc 1 197 0
 506 0020 30C08392 		addls	ip, r3, #48
 507              	.LVL33:
 508              	.L63:
 509              	.LBB27:
 510              	.LBB25:
 511              		.loc 1 174 0
 512 0024 543092E5 		ldr	r3, [r2, #84]
 513 0028 200013E3 		tst	r3, #32
ARM GAS  /var/folders/3j/4xdnk5197cv_b7cw3n33qk7r0000gn/T//ccK3Dbpf.s 			page 10


 514 002c FCFFFF0A 		beq	.L63
 515              	.LBE25:
 516              	.LBE27:
 517              		.loc 1 199 0
 518 0030 00005EE3 		cmp	lr, #0
 519              	.LBB28:
 520              	.LBB26:
 521              		.loc 1 175 0
 522 0034 40C082E5 		str	ip, [r2, #64]
 523              	.LVL34:
 524              	.LBE26:
 525              	.LBE28:
 526              		.loc 1 199 0
 527 0038 F3FFFF1A 		bne	.L64
 528              	.LBB29:
 529              	.LBB30:
 530              		.loc 1 174 0
 531 003c 4C209FE5 		ldr	r2, .L82
 532              	.L65:
 533 0040 543092E5 		ldr	r3, [r2, #84]
 534 0044 200013E3 		tst	r3, #32
 535 0048 FCFFFF0A 		beq	.L65
 536              		.loc 1 175 0
 537 004c 2030A0E3 		mov	r3, #32
 538              	.LBE30:
 539              	.LBE29:
 540              		.loc 1 204 0
 541 0050 000051E3 		cmp	r1, #0
 542              	.LBB32:
 543              	.LBB31:
 544              		.loc 1 175 0
 545 0054 403082E5 		str	r3, [r2, #64]
 546              	.LBE31:
 547              	.LBE32:
 548              		.loc 1 204 0
 549 0058 04F09D04 		ldreq	pc, [sp], #4
 550              	.LBB33:
 551              	.LBB34:
 552              		.loc 1 174 0
 553 005c 2C109FE5 		ldr	r1, .L82
 554              	.LVL35:
 555              	.L67:
 556 0060 543091E5 		ldr	r3, [r1, #84]
 557 0064 200013E3 		tst	r3, #32
 558 0068 FCFFFF0A 		beq	.L67
 559              		.loc 1 175 0
 560 006c 0D30A0E3 		mov	r3, #13
 561              	.LBE34:
 562              	.LBE33:
 563              	.LBB36:
 564              	.LBB37:
 565              		.loc 1 174 0
 566 0070 18209FE5 		ldr	r2, .L82
 567              	.LBE37:
 568              	.LBE36:
 569              	.LBB39:
 570              	.LBB35:
ARM GAS  /var/folders/3j/4xdnk5197cv_b7cw3n33qk7r0000gn/T//ccK3Dbpf.s 			page 11


 571              		.loc 1 175 0
 572 0074 403081E5 		str	r3, [r1, #64]
 573              	.L68:
 574              	.LBE35:
 575              	.LBE39:
 576              	.LBB40:
 577              	.LBB38:
 578              		.loc 1 174 0
 579 0078 543092E5 		ldr	r3, [r2, #84]
 580 007c 200013E3 		tst	r3, #32
 581 0080 FCFFFF0A 		beq	.L68
 582              		.loc 1 175 0
 583 0084 0A30A0E3 		mov	r3, #10
 584 0088 403082E5 		str	r3, [r2, #64]
 585              	.LBE38:
 586              	.LBE40:
 587              		.loc 1 208 0
 588 008c 04F09DE4 		ldr	pc, [sp], #4
 589              	.L83:
 590              		.align	2
 591              	.L82:
 592 0090 00502120 		.word	539054080
 593              		.cfi_endproc
 594              	.LFE15:
 595              		.size	mini_uart_sendhex, .-mini_uart_sendhex
 596              		.comm	SD1,116,4
 597              		.section	.rodata.default_config,"a",%progbits
 598              		.align	2
 599              		.set	.LANCHOR0,. + 0
 600              		.type	default_config, %object
 601              		.size	default_config, 4
 602              	default_config:
 603 0000 00C20100 		.word	115200
 604              		.text
 605              	.Letext0:
 606              		.file 2 "/usr/local/Cellar/gcc-arm-none-eabi/20180627/lib/gcc/arm-none-eabi/7.3.1/include/stddef.h
 607              		.file 3 "/usr/local/Cellar/gcc-arm-none-eabi/20180627/arm-none-eabi/include/machine/_default_types
 608              		.file 4 "/usr/local/Cellar/gcc-arm-none-eabi/20180627/arm-none-eabi/include/sys/_stdint.h"
 609              		.file 5 "..//os/ports/GCC/ARM/chtypes.h"
 610              		.file 6 "..//os/kernel/include/chlists.h"
 611              		.file 7 "..//os/kernel/include/chthreads.h"
 612              		.file 8 "..//os/ports/GCC/ARM/chcore.h"
 613              		.file 9 "..//os/kernel/include/chvt.h"
 614              		.file 10 "..//os/kernel/include/chschd.h"
 615              		.file 11 "..//os/kernel/include/chmtx.h"
 616              		.file 12 "..//os/kernel/include/chevents.h"
 617              		.file 13 "..//os/kernel/include/chregistry.h"
 618              		.file 14 "..//os/kernel/include/chqueues.h"
 619              		.file 15 "..//os/kernel/include/ch.h"
 620              		.file 16 "..//os/hal/platforms/BCM2835/bcm2835.h"
 621              		.file 17 "..//os/hal/platforms/BCM2835/pal_lld.h"
 622              		.file 18 "..//os/hal/include/i2c.h"
 623              		.file 19 "..//os/hal/platforms/BCM2835/i2c_lld.h"
 624              		.file 20 "..//os/hal/include/serial.h"
 625              		.file 21 "..//os/hal/platforms/BCM2835/serial_lld.h"
 626              		.file 22 "..//os/hal/include/spi.h"
 627              		.file 23 "..//os/hal/platforms/BCM2835/spi_lld.h"
ARM GAS  /var/folders/3j/4xdnk5197cv_b7cw3n33qk7r0000gn/T//ccK3Dbpf.s 			page 12

