ARM GAS  /var/folders/3j/4xdnk5197cv_b7cw3n33qk7r0000gn/T//ccc1um7j.s 			page 1


   1              		.cpu arm1176jz-s
   2              		.eabi_attribute 20, 1
   3              		.eabi_attribute 21, 1
   4              		.eabi_attribute 23, 3
   5              		.eabi_attribute 24, 1
   6              		.eabi_attribute 25, 1
   7              		.eabi_attribute 26, 1
   8              		.eabi_attribute 30, 2
   9              		.eabi_attribute 34, 1
  10              		.eabi_attribute 18, 4
  11              		.file	"serial.c"
  12              		.text
  13              	.Ltext0:
  14              		.cfi_sections	.debug_frame
  15              		.section	.text.readt,"ax",%progbits
  16              		.align	2
  17              		.syntax unified
  18              		.arm
  19              		.fpu softvfp
  20              		.type	readt, %function
  21              	readt:
  22              	.LFB14:
  23              		.file 1 "..//os/hal/src/serial.c"
  24              		.loc 1 92 0
  25              		.cfi_startproc
  26              		@ args = 0, pretend = 0, frame = 0
  27              		@ frame_needed = 0, uses_anonymous_args = 0
  28              		@ link register save eliminated.
  29              	.LVL0:
  30              		.loc 1 94 0
  31 0000 0C0080E2 		add	r0, r0, #12
  32              	.LVL1:
  33 0004 FEFFFFEA 		b	chIQReadTimeout
  34              	.LVL2:
  35              		.cfi_endproc
  36              	.LFE14:
  37              		.size	readt, .-readt
  38              		.section	.text.read,"ax",%progbits
  39              		.align	2
  40              		.syntax unified
  41              		.arm
  42              		.fpu softvfp
  43              		.type	read, %function
  44              	read:
  45              	.LFB8:
  46              		.loc 1 61 0
  47              		.cfi_startproc
  48              		@ args = 0, pretend = 0, frame = 0
  49              		@ frame_needed = 0, uses_anonymous_args = 0
  50              		@ link register save eliminated.
  51              	.LVL3:
  52              		.loc 1 63 0
  53 0000 0C0080E2 		add	r0, r0, #12
  54              	.LVL4:
  55 0004 0030E0E3 		mvn	r3, #0
  56 0008 FEFFFFEA 		b	chIQReadTimeout
  57              	.LVL5:
ARM GAS  /var/folders/3j/4xdnk5197cv_b7cw3n33qk7r0000gn/T//ccc1um7j.s 			page 2


  58              		.cfi_endproc
  59              	.LFE8:
  60              		.size	read, .-read
  61              		.section	.text.writet,"ax",%progbits
  62              		.align	2
  63              		.syntax unified
  64              		.arm
  65              		.fpu softvfp
  66              		.type	writet, %function
  67              	writet:
  68              	.LFB13:
  69              		.loc 1 87 0
  70              		.cfi_startproc
  71              		@ args = 0, pretend = 0, frame = 0
  72              		@ frame_needed = 0, uses_anonymous_args = 0
  73              		@ link register save eliminated.
  74              	.LVL6:
  75              		.loc 1 89 0
  76 0000 300080E2 		add	r0, r0, #48
  77              	.LVL7:
  78 0004 FEFFFFEA 		b	chOQWriteTimeout
  79              	.LVL8:
  80              		.cfi_endproc
  81              	.LFE13:
  82              		.size	writet, .-writet
  83              		.section	.text.write,"ax",%progbits
  84              		.align	2
  85              		.syntax unified
  86              		.arm
  87              		.fpu softvfp
  88              		.type	write, %function
  89              	write:
  90              	.LFB7:
  91              		.loc 1 55 0
  92              		.cfi_startproc
  93              		@ args = 0, pretend = 0, frame = 0
  94              		@ frame_needed = 0, uses_anonymous_args = 0
  95              		@ link register save eliminated.
  96              	.LVL9:
  97              		.loc 1 57 0
  98 0000 300080E2 		add	r0, r0, #48
  99              	.LVL10:
 100 0004 0030E0E3 		mvn	r3, #0
 101 0008 FEFFFFEA 		b	chOQWriteTimeout
 102              	.LVL11:
 103              		.cfi_endproc
 104              	.LFE7:
 105              		.size	write, .-write
 106              		.section	.text.gett,"ax",%progbits
 107              		.align	2
 108              		.syntax unified
 109              		.arm
 110              		.fpu softvfp
 111              		.type	gett, %function
 112              	gett:
 113              	.LFB12:
 114              		.loc 1 82 0
ARM GAS  /var/folders/3j/4xdnk5197cv_b7cw3n33qk7r0000gn/T//ccc1um7j.s 			page 3


 115              		.cfi_startproc
 116              		@ args = 0, pretend = 0, frame = 0
 117              		@ frame_needed = 0, uses_anonymous_args = 0
 118              		@ link register save eliminated.
 119              	.LVL12:
 120              		.loc 1 84 0
 121 0000 0C0080E2 		add	r0, r0, #12
 122              	.LVL13:
 123 0004 FEFFFFEA 		b	chIQGetTimeout
 124              	.LVL14:
 125              		.cfi_endproc
 126              	.LFE12:
 127              		.size	gett, .-gett
 128              		.section	.text.get,"ax",%progbits
 129              		.align	2
 130              		.syntax unified
 131              		.arm
 132              		.fpu softvfp
 133              		.type	get, %function
 134              	get:
 135              	.LFB10:
 136              		.loc 1 72 0
 137              		.cfi_startproc
 138              		@ args = 0, pretend = 0, frame = 0
 139              		@ frame_needed = 0, uses_anonymous_args = 0
 140              		@ link register save eliminated.
 141              	.LVL15:
 142              		.loc 1 74 0
 143 0000 0C0080E2 		add	r0, r0, #12
 144              	.LVL16:
 145 0004 0010E0E3 		mvn	r1, #0
 146 0008 FEFFFFEA 		b	chIQGetTimeout
 147              	.LVL17:
 148              		.cfi_endproc
 149              	.LFE10:
 150              		.size	get, .-get
 151              		.section	.text.putt,"ax",%progbits
 152              		.align	2
 153              		.syntax unified
 154              		.arm
 155              		.fpu softvfp
 156              		.type	putt, %function
 157              	putt:
 158              	.LFB11:
 159              		.loc 1 77 0
 160              		.cfi_startproc
 161              		@ args = 0, pretend = 0, frame = 0
 162              		@ frame_needed = 0, uses_anonymous_args = 0
 163              		@ link register save eliminated.
 164              	.LVL18:
 165              		.loc 1 79 0
 166 0000 300080E2 		add	r0, r0, #48
 167              	.LVL19:
 168 0004 FEFFFFEA 		b	chOQPutTimeout
 169              	.LVL20:
 170              		.cfi_endproc
 171              	.LFE11:
ARM GAS  /var/folders/3j/4xdnk5197cv_b7cw3n33qk7r0000gn/T//ccc1um7j.s 			page 4


 172              		.size	putt, .-putt
 173              		.section	.text.put,"ax",%progbits
 174              		.align	2
 175              		.syntax unified
 176              		.arm
 177              		.fpu softvfp
 178              		.type	put, %function
 179              	put:
 180              	.LFB9:
 181              		.loc 1 67 0
 182              		.cfi_startproc
 183              		@ args = 0, pretend = 0, frame = 0
 184              		@ frame_needed = 0, uses_anonymous_args = 0
 185              		@ link register save eliminated.
 186              	.LVL21:
 187              		.loc 1 69 0
 188 0000 300080E2 		add	r0, r0, #48
 189              	.LVL22:
 190 0004 0020E0E3 		mvn	r2, #0
 191 0008 FEFFFFEA 		b	chOQPutTimeout
 192              	.LVL23:
 193              		.cfi_endproc
 194              	.LFE9:
 195              		.size	put, .-put
 196              		.section	.text.sdInit,"ax",%progbits
 197              		.align	2
 198              		.global	sdInit
 199              		.syntax unified
 200              		.arm
 201              		.fpu softvfp
 202              		.type	sdInit, %function
 203              	sdInit:
 204              	.LFB15:
 205              		.loc 1 113 0
 206              		.cfi_startproc
 207              		@ args = 0, pretend = 0, frame = 0
 208              		@ frame_needed = 0, uses_anonymous_args = 0
 209              		@ link register save eliminated.
 210              		.loc 1 115 0
 211 0000 FEFFFFEA 		b	sd_lld_init
 212              	.LVL24:
 213              		.cfi_endproc
 214              	.LFE15:
 215              		.size	sdInit, .-sdInit
 216              		.section	.text.sdObjectInit,"ax",%progbits
 217              		.align	2
 218              		.global	sdObjectInit
 219              		.syntax unified
 220              		.arm
 221              		.fpu softvfp
 222              		.type	sdObjectInit, %function
 223              	sdObjectInit:
 224              	.LFB16:
 225              		.loc 1 133 0
 226              		.cfi_startproc
 227              		@ args = 0, pretend = 0, frame = 0
 228              		@ frame_needed = 0, uses_anonymous_args = 0
ARM GAS  /var/folders/3j/4xdnk5197cv_b7cw3n33qk7r0000gn/T//ccc1um7j.s 			page 5


 229              	.LVL25:
 230 0000 30402DE9 		push	{r4, r5, lr}
 231              		.cfi_def_cfa_offset 12
 232              		.cfi_offset 4, -12
 233              		.cfi_offset 5, -8
 234              		.cfi_offset 14, -4
 235              		.loc 1 137 0
 236 0004 01C0A0E3 		mov	ip, #1
 237              		.loc 1 133 0
 238 0008 0040A0E1 		mov	r4, r0
 239 000c 0250A0E1 		mov	r5, r2
 240              		.loc 1 135 0
 241 0010 44309FE5 		ldr	r3, .L13
 242              		.loc 1 133 0
 243 0014 0CD04DE2 		sub	sp, sp, #12
 244              		.cfi_def_cfa_offset 24
 245              		.loc 1 138 0
 246 0018 00008DE5 		str	r0, [sp]
 247              		.loc 1 135 0
 248 001c 043080E4 		str	r3, [r0], #4
 249              	.LVL26:
 250              		.loc 1 136 0
 251 0020 040084E5 		str	r0, [r4, #4]
 252              		.loc 1 138 0
 253 0024 0130A0E1 		mov	r3, r1
 254              		.loc 1 137 0
 255 0028 08C0C4E5 		strb	ip, [r4, #8]
 256              		.loc 1 138 0
 257 002c 541084E2 		add	r1, r4, #84
 258              	.LVL27:
 259 0030 0C0084E2 		add	r0, r4, #12
 260 0034 1020A0E3 		mov	r2, #16
 261              	.LVL28:
 262 0038 FEFFFFEB 		bl	chIQInit
 263              	.LVL29:
 264              		.loc 1 139 0
 265 003c 00408DE5 		str	r4, [sp]
 266 0040 0530A0E1 		mov	r3, r5
 267 0044 641084E2 		add	r1, r4, #100
 268 0048 300084E2 		add	r0, r4, #48
 269 004c 1020A0E3 		mov	r2, #16
 270 0050 FEFFFFEB 		bl	chOQInit
 271              	.LVL30:
 272              		.loc 1 140 0
 273 0054 0CD08DE2 		add	sp, sp, #12
 274              		.cfi_def_cfa_offset 12
 275              		@ sp needed
 276 0058 3080BDE8 		pop	{r4, r5, pc}
 277              	.LVL31:
 278              	.L14:
 279              		.align	2
 280              	.L13:
 281 005c 00000000 		.word	.LANCHOR0
 282              		.cfi_endproc
 283              	.LFE16:
 284              		.size	sdObjectInit, .-sdObjectInit
 285              		.section	.text.sdStart,"ax",%progbits
ARM GAS  /var/folders/3j/4xdnk5197cv_b7cw3n33qk7r0000gn/T//ccc1um7j.s 			page 6


 286              		.align	2
 287              		.global	sdStart
 288              		.syntax unified
 289              		.arm
 290              		.fpu softvfp
 291              		.type	sdStart, %function
 292              	sdStart:
 293              	.LFB17:
 294              		.loc 1 152 0
 295              		.cfi_startproc
 296              		@ args = 0, pretend = 0, frame = 0
 297              		@ frame_needed = 0, uses_anonymous_args = 0
 298              	.LVL32:
 299 0000 10402DE9 		push	{r4, lr}
 300              		.cfi_def_cfa_offset 8
 301              		.cfi_offset 4, -8
 302              		.cfi_offset 14, -4
 303              		.loc 1 152 0
 304 0004 0040A0E1 		mov	r4, r0
 305              		.loc 1 156 0
 306              		.syntax divided
 307              	@ 156 "..//os/hal/src/serial.c" 1
 308 0008 9FF021E3 		msr     CPSR_c, #0x9F
 309              	@ 0 "" 2
 310              		.loc 1 160 0
 311              		.arm
 312              		.syntax unified
 313 000c FEFFFFEB 		bl	sd_lld_start
 314              	.LVL33:
 315              		.loc 1 161 0
 316 0010 0230A0E3 		mov	r3, #2
 317 0014 0830C4E5 		strb	r3, [r4, #8]
 318              		.loc 1 162 0
 319              		.syntax divided
 320              	@ 162 "..//os/hal/src/serial.c" 1
 321 0018 1FF021E3 		msr     CPSR_c, #0x1F
 322              	@ 0 "" 2
 323              		.loc 1 163 0
 324              		.arm
 325              		.syntax unified
 326 001c 1080BDE8 		pop	{r4, pc}
 327              		.cfi_endproc
 328              	.LFE17:
 329              		.size	sdStart, .-sdStart
 330              		.section	.text.sdStop,"ax",%progbits
 331              		.align	2
 332              		.global	sdStop
 333              		.syntax unified
 334              		.arm
 335              		.fpu softvfp
 336              		.type	sdStop, %function
 337              	sdStop:
 338              	.LFB18:
 339              		.loc 1 174 0
 340              		.cfi_startproc
 341              		@ args = 0, pretend = 0, frame = 0
 342              		@ frame_needed = 0, uses_anonymous_args = 0
ARM GAS  /var/folders/3j/4xdnk5197cv_b7cw3n33qk7r0000gn/T//ccc1um7j.s 			page 7


 343              	.LVL34:
 344 0000 10402DE9 		push	{r4, lr}
 345              		.cfi_def_cfa_offset 8
 346              		.cfi_offset 4, -8
 347              		.cfi_offset 14, -4
 348              		.loc 1 174 0
 349 0004 0040A0E1 		mov	r4, r0
 350              		.loc 1 178 0
 351              		.syntax divided
 352              	@ 178 "..//os/hal/src/serial.c" 1
 353 0008 9FF021E3 		msr     CPSR_c, #0x9F
 354              	@ 0 "" 2
 355              		.loc 1 182 0
 356              		.arm
 357              		.syntax unified
 358 000c FEFFFFEB 		bl	sd_lld_stop
 359              	.LVL35:
 360              		.loc 1 183 0
 361 0010 0130A0E3 		mov	r3, #1
 362              		.loc 1 184 0
 363 0014 300084E2 		add	r0, r4, #48
 364              		.loc 1 183 0
 365 0018 0830C4E5 		strb	r3, [r4, #8]
 366              		.loc 1 184 0
 367 001c FEFFFFEB 		bl	chOQResetI
 368              	.LVL36:
 369              		.loc 1 185 0
 370 0020 0C0084E2 		add	r0, r4, #12
 371 0024 FEFFFFEB 		bl	chIQResetI
 372              	.LVL37:
 373              		.loc 1 186 0
 374 0028 FEFFFFEB 		bl	chSchRescheduleS
 375              	.LVL38:
 376              		.loc 1 187 0
 377              		.syntax divided
 378              	@ 187 "..//os/hal/src/serial.c" 1
 379 002c 1FF021E3 		msr     CPSR_c, #0x1F
 380              	@ 0 "" 2
 381              		.loc 1 188 0
 382              		.arm
 383              		.syntax unified
 384 0030 1080BDE8 		pop	{r4, pc}
 385              		.cfi_endproc
 386              	.LFE18:
 387              		.size	sdStop, .-sdStop
 388              		.section	.text.sdIncomingDataI,"ax",%progbits
 389              		.align	2
 390              		.global	sdIncomingDataI
 391              		.syntax unified
 392              		.arm
 393              		.fpu softvfp
 394              		.type	sdIncomingDataI, %function
 395              	sdIncomingDataI:
 396              	.LFB19:
 397              		.loc 1 206 0
 398              		.cfi_startproc
 399              		@ args = 0, pretend = 0, frame = 0
ARM GAS  /var/folders/3j/4xdnk5197cv_b7cw3n33qk7r0000gn/T//ccc1um7j.s 			page 8


 400              		@ frame_needed = 0, uses_anonymous_args = 0
 401              	.LVL39:
 402              		.loc 1 211 0
 403 0000 143090E5 		ldr	r3, [r0, #20]
 404              		.loc 1 206 0
 405 0004 70402DE9 		push	{r4, r5, r6, lr}
 406              		.cfi_def_cfa_offset 16
 407              		.cfi_offset 4, -16
 408              		.cfi_offset 5, -12
 409              		.cfi_offset 6, -8
 410              		.cfi_offset 14, -4
 411              		.loc 1 211 0
 412 0008 000053E3 		cmp	r3, #0
 413              		.loc 1 206 0
 414 000c 0040A0E1 		mov	r4, r0
 415 0010 0150A0E1 		mov	r5, r1
 416              		.loc 1 211 0
 417 0014 0800000A 		beq	.L23
 418              	.LVL40:
 419              	.L20:
 420              		.loc 1 213 0
 421 0018 0510A0E1 		mov	r1, r5
 422 001c 0C0084E2 		add	r0, r4, #12
 423 0020 FEFFFFEB 		bl	chIQPutI
 424              	.LVL41:
 425 0024 000050E3 		cmp	r0, #0
 426 0028 7080BDA8 		popge	{r4, r5, r6, pc}
 427              		.loc 1 214 0
 428 002c 040084E2 		add	r0, r4, #4
 429 0030 8010A0E3 		mov	r1, #128
 430              		.loc 1 215 0
 431 0034 7040BDE8 		pop	{r4, r5, r6, lr}
 432              		.cfi_remember_state
 433              		.cfi_restore 14
 434              		.cfi_restore 6
 435              		.cfi_restore 5
 436              		.cfi_restore 4
 437              		.cfi_def_cfa_offset 0
 438              	.LVL42:
 439              		.loc 1 214 0
 440 0038 FEFFFFEA 		b	chEvtBroadcastFlagsI
 441              	.LVL43:
 442              	.L23:
 443              		.cfi_restore_state
 444              		.loc 1 212 0
 445 003c 0410A0E3 		mov	r1, #4
 446              	.LVL44:
 447 0040 010080E0 		add	r0, r0, r1
 448              	.LVL45:
 449 0044 FEFFFFEB 		bl	chEvtBroadcastFlagsI
 450              	.LVL46:
 451 0048 F2FFFFEA 		b	.L20
 452              		.cfi_endproc
 453              	.LFE19:
 454              		.size	sdIncomingDataI, .-sdIncomingDataI
 455              		.section	.text.sdRequestDataI,"ax",%progbits
 456              		.align	2
ARM GAS  /var/folders/3j/4xdnk5197cv_b7cw3n33qk7r0000gn/T//ccc1um7j.s 			page 9


 457              		.global	sdRequestDataI
 458              		.syntax unified
 459              		.arm
 460              		.fpu softvfp
 461              		.type	sdRequestDataI, %function
 462              	sdRequestDataI:
 463              	.LFB20:
 464              		.loc 1 232 0
 465              		.cfi_startproc
 466              		@ args = 0, pretend = 0, frame = 0
 467              		@ frame_needed = 0, uses_anonymous_args = 0
 468              	.LVL47:
 469 0000 70402DE9 		push	{r4, r5, r6, lr}
 470              		.cfi_def_cfa_offset 16
 471              		.cfi_offset 4, -16
 472              		.cfi_offset 5, -12
 473              		.cfi_offset 6, -8
 474              		.cfi_offset 14, -4
 475              		.loc 1 232 0
 476 0004 0040A0E1 		mov	r4, r0
 477              		.loc 1 238 0
 478 0008 300080E2 		add	r0, r0, #48
 479              	.LVL48:
 480 000c FEFFFFEB 		bl	chOQGetI
 481              	.LVL49:
 482              		.loc 1 239 0
 483 0010 005050E2 		subs	r5, r0, #0
 484 0014 010000BA 		blt	.L27
 485              		.loc 1 242 0
 486 0018 0500A0E1 		mov	r0, r5
 487 001c 7080BDE8 		pop	{r4, r5, r6, pc}
 488              	.L27:
 489              		.loc 1 240 0
 490 0020 040084E2 		add	r0, r4, #4
 491 0024 0810A0E3 		mov	r1, #8
 492 0028 FEFFFFEB 		bl	chEvtBroadcastFlagsI
 493              	.LVL50:
 494              		.loc 1 242 0
 495 002c 0500A0E1 		mov	r0, r5
 496 0030 7080BDE8 		pop	{r4, r5, r6, pc}
 497              		.cfi_endproc
 498              	.LFE20:
 499              		.size	sdRequestDataI, .-sdRequestDataI
 500              		.section	.rodata.vmt,"a",%progbits
 501              		.align	2
 502              		.set	.LANCHOR0,. + 0
 503              		.type	vmt, %object
 504              		.size	vmt, 32
 505              	vmt:
 506 0000 00000000 		.word	write
 507 0004 00000000 		.word	read
 508 0008 00000000 		.word	put
 509 000c 00000000 		.word	get
 510 0010 00000000 		.word	putt
 511 0014 00000000 		.word	gett
 512 0018 00000000 		.word	writet
 513 001c 00000000 		.word	readt
ARM GAS  /var/folders/3j/4xdnk5197cv_b7cw3n33qk7r0000gn/T//ccc1um7j.s 			page 10


 514              		.text
 515              	.Letext0:
 516              		.file 2 "/usr/local/Cellar/gcc-arm-none-eabi/20180627/lib/gcc/arm-none-eabi/7.3.1/include/stddef.h
 517              		.file 3 "/usr/local/Cellar/gcc-arm-none-eabi/20180627/arm-none-eabi/include/machine/_default_types
 518              		.file 4 "/usr/local/Cellar/gcc-arm-none-eabi/20180627/arm-none-eabi/include/sys/_stdint.h"
 519              		.file 5 "..//os/ports/GCC/ARM/chtypes.h"
 520              		.file 6 "..//os/kernel/include/chlists.h"
 521              		.file 7 "..//os/kernel/include/chthreads.h"
 522              		.file 8 "..//os/ports/GCC/ARM/chcore.h"
 523              		.file 9 "..//os/kernel/include/chvt.h"
 524              		.file 10 "..//os/kernel/include/chschd.h"
 525              		.file 11 "..//os/kernel/include/chmtx.h"
 526              		.file 12 "..//os/kernel/include/chevents.h"
 527              		.file 13 "..//os/kernel/include/chregistry.h"
 528              		.file 14 "..//os/kernel/include/chqueues.h"
 529              		.file 15 "..//os/kernel/include/ch.h"
 530              		.file 16 "..//os/hal/platforms/BCM2835/bcm2835.h"
 531              		.file 17 "..//os/hal/platforms/BCM2835/pal_lld.h"
 532              		.file 18 "..//os/hal/include/i2c.h"
 533              		.file 19 "..//os/hal/platforms/BCM2835/i2c_lld.h"
 534              		.file 20 "..//os/hal/include/serial.h"
 535              		.file 21 "..//os/hal/platforms/BCM2835/serial_lld.h"
 536              		.file 22 "..//os/hal/include/spi.h"
 537              		.file 23 "..//os/hal/platforms/BCM2835/spi_lld.h"