ARM GAS  /var/folders/3j/4xdnk5197cv_b7cw3n33qk7r0000gn/T//ccDwti1K.s 			page 1


   1              		.cpu arm1176jz-s
   2              		.eabi_attribute 20, 1
   3              		.eabi_attribute 21, 1
   4              		.eabi_attribute 23, 3
   5              		.eabi_attribute 24, 1
   6              		.eabi_attribute 25, 1
   7              		.eabi_attribute 26, 1
   8              		.eabi_attribute 30, 2
   9              		.eabi_attribute 34, 1
  10              		.eabi_attribute 18, 4
  11              		.file	"shell.c"
  12              		.text
  13              	.Ltext0:
  14              		.cfi_sections	.debug_frame
  15              		.section	.text.cmd_systime,"ax",%progbits
  16              		.align	2
  17              		.syntax unified
  18              		.arm
  19              		.fpu softvfp
  20              		.type	cmd_systime, %function
  21              	cmd_systime:
  22              	.LFB11:
  23              		.file 1 "..//os/various/shell.c"
  24              		.loc 1 103 0
  25              		.cfi_startproc
  26              		@ args = 0, pretend = 0, frame = 0
  27              		@ frame_needed = 0, uses_anonymous_args = 0
  28              		@ link register save eliminated.
  29              	.LVL0:
  30              		.loc 1 106 0
  31 0000 000051E3 		cmp	r1, #0
  32 0004 020000DA 		ble	.L2
  33              	.LVL1:
  34              	.LBB24:
  35              	.LBB25:
  36              		.loc 1 60 0
  37 0008 14209FE5 		ldr	r2, .L4
  38              	.LVL2:
  39 000c 14109FE5 		ldr	r1, .L4+4
  40              	.LVL3:
  41 0010 FEFFFFEA 		b	chprintf
  42              	.LVL4:
  43              	.L2:
  44              	.LBE25:
  45              	.LBE24:
  46              	.LBB26:
  47              	.LBB27:
  48              		.loc 1 110 0
  49 0014 10309FE5 		ldr	r3, .L4+8
  50 0018 10109FE5 		ldr	r1, .L4+12
  51              	.LVL5:
  52 001c 0C2093E5 		ldr	r2, [r3, #12]
  53              	.LVL6:
  54 0020 FEFFFFEA 		b	chprintf
  55              	.LVL7:
  56              	.L5:
  57              		.align	2
ARM GAS  /var/folders/3j/4xdnk5197cv_b7cw3n33qk7r0000gn/T//ccDwti1K.s 			page 2


  58              	.L4:
  59 0024 00000000 		.word	.LC0
  60 0028 08000000 		.word	.LC1
  61 002c 00000000 		.word	vtlist
  62 0030 14000000 		.word	.LC2
  63              	.LBE27:
  64              	.LBE26:
  65              		.cfi_endproc
  66              	.LFE11:
  67              		.size	cmd_systime, .-cmd_systime
  68              		.section	.text.cmd_info,"ax",%progbits
  69              		.align	2
  70              		.syntax unified
  71              		.arm
  72              		.fpu softvfp
  73              		.type	cmd_info, %function
  74              	cmd_info:
  75              	.LFB10:
  76              		.loc 1 71 0
  77              		.cfi_startproc
  78              		@ args = 0, pretend = 0, frame = 0
  79              		@ frame_needed = 0, uses_anonymous_args = 0
  80              	.LVL8:
  81              		.loc 1 74 0
  82 0000 000051E3 		cmp	r1, #0
  83 0004 020000DA 		ble	.L7
  84              	.LVL9:
  85              	.LBB34:
  86              	.LBB35:
  87              		.loc 1 60 0
  88 0008 90209FE5 		ldr	r2, .L10
  89              	.LVL10:
  90 000c 90109FE5 		ldr	r1, .L10+4
  91              	.LVL11:
  92 0010 FEFFFFEA 		b	chprintf
  93              	.LVL12:
  94              	.L7:
  95              	.LBE35:
  96              	.LBE34:
  97              		.loc 1 71 0
  98 0014 10402DE9 		push	{r4, lr}
  99              		.cfi_def_cfa_offset 8
 100              		.cfi_offset 4, -8
 101              		.cfi_offset 14, -4
 102 0018 0040A0E1 		mov	r4, r0
 103              	.LVL13:
 104 001c 08D04DE2 		sub	sp, sp, #8
 105              		.cfi_def_cfa_offset 16
 106              	.LBB36:
 107              	.LBB37:
 108              		.loc 1 79 0
 109 0020 80209FE5 		ldr	r2, .L10+8
 110              	.LVL14:
 111 0024 80109FE5 		ldr	r1, .L10+12
 112              	.LVL15:
 113 0028 FEFFFFEB 		bl	chprintf
 114              	.LVL16:
ARM GAS  /var/folders/3j/4xdnk5197cv_b7cw3n33qk7r0000gn/T//ccDwti1K.s 			page 3


 115              		.loc 1 81 0
 116 002c 0400A0E1 		mov	r0, r4
 117 0030 78209FE5 		ldr	r2, .L10+16
 118 0034 78109FE5 		ldr	r1, .L10+20
 119 0038 FEFFFFEB 		bl	chprintf
 120              	.LVL17:
 121              		.loc 1 83 0
 122 003c 0400A0E1 		mov	r0, r4
 123 0040 70209FE5 		ldr	r2, .L10+24
 124 0044 70109FE5 		ldr	r1, .L10+28
 125 0048 FEFFFFEB 		bl	chprintf
 126              	.LVL18:
 127              		.loc 1 85 0
 128 004c 0400A0E1 		mov	r0, r4
 129 0050 68209FE5 		ldr	r2, .L10+32
 130 0054 68109FE5 		ldr	r1, .L10+36
 131 0058 FEFFFFEB 		bl	chprintf
 132              	.LVL19:
 133              		.loc 1 88 0
 134 005c 0400A0E1 		mov	r0, r4
 135 0060 60209FE5 		ldr	r2, .L10+40
 136 0064 60109FE5 		ldr	r1, .L10+44
 137 0068 FEFFFFEB 		bl	chprintf
 138              	.LVL20:
 139              		.loc 1 91 0
 140 006c 0400A0E1 		mov	r0, r4
 141 0070 58209FE5 		ldr	r2, .L10+48
 142 0074 58109FE5 		ldr	r1, .L10+52
 143 0078 FEFFFFEB 		bl	chprintf
 144              	.LVL21:
 145              		.loc 1 98 0
 146 007c 54309FE5 		ldr	r3, .L10+56
 147 0080 0400A0E1 		mov	r0, r4
 148 0084 00308DE5 		str	r3, [sp]
 149 0088 4C209FE5 		ldr	r2, .L10+60
 150 008c 4C309FE5 		ldr	r3, .L10+64
 151 0090 4C109FE5 		ldr	r1, .L10+68
 152 0094 FEFFFFEB 		bl	chprintf
 153              	.LVL22:
 154              	.LBE37:
 155              	.LBE36:
 156              		.loc 1 101 0
 157 0098 08D08DE2 		add	sp, sp, #8
 158              		.cfi_def_cfa_offset 8
 159              		@ sp needed
 160 009c 1080BDE8 		pop	{r4, pc}
 161              	.LVL23:
 162              	.L11:
 163              		.align	2
 164              	.L10:
 165 00a0 00000000 		.word	.LC3
 166 00a4 08000000 		.word	.LC1
 167 00a8 08000000 		.word	.LC4
 168 00ac 18000000 		.word	.LC5
 169 00b0 2C000000 		.word	.LC6
 170 00b4 74000000 		.word	.LC7
 171 00b8 88000000 		.word	.LC8
ARM GAS  /var/folders/3j/4xdnk5197cv_b7cw3n33qk7r0000gn/T//ccDwti1K.s 			page 4


 172 00bc 90000000 		.word	.LC9
 173 00c0 A4000000 		.word	.LC10
 174 00c4 B4000000 		.word	.LC11
 175 00c8 C8000000 		.word	.LC12
 176 00cc D8000000 		.word	.LC13
 177 00d0 EC000000 		.word	.LC14
 178 00d4 F4000000 		.word	.LC15
 179 00d8 30010000 		.word	.LC19
 180 00dc 0C010000 		.word	.LC17
 181 00e0 08010000 		.word	.LC16
 182 00e4 18010000 		.word	.LC18
 183              		.cfi_endproc
 184              	.LFE10:
 185              		.size	cmd_info, .-cmd_info
 186              		.section	.text._strtok.constprop.2,"ax",%progbits
 187              		.align	2
 188              		.syntax unified
 189              		.arm
 190              		.fpu softvfp
 191              		.type	_strtok.constprop.2, %function
 192              	_strtok.constprop.2:
 193              	.LFB20:
 194              		.loc 1 41 0
 195              		.cfi_startproc
 196              		@ args = 0, pretend = 0, frame = 0
 197              		@ frame_needed = 0, uses_anonymous_args = 0
 198              	.LVL24:
 199 0000 70402DE9 		push	{r4, r5, r6, lr}
 200              		.cfi_def_cfa_offset 16
 201              		.cfi_offset 4, -16
 202              		.cfi_offset 5, -12
 203              		.cfi_offset 6, -8
 204              		.cfi_offset 14, -4
 205              		.loc 1 43 0
 206 0004 004050E2 		subs	r4, r0, #0
 207              		.loc 1 41 0
 208 0008 0150A0E1 		mov	r5, r1
 209              		.loc 1 44 0
 210 000c 00408115 		strne	r4, [r1]
 211              		.loc 1 43 0
 212 0010 1100000A 		beq	.L23
 213              	.L14:
 214              	.LVL25:
 215              		.loc 1 50 0
 216 0014 58109FE5 		ldr	r1, .L24
 217              	.LVL26:
 218 0018 0400A0E1 		mov	r0, r4
 219              	.LVL27:
 220 001c FEFFFFEB 		bl	strspn
 221              	.LVL28:
 222 0020 004084E0 		add	r4, r4, r0
 223              	.LVL29:
 224              		.loc 1 51 0
 225 0024 0400A0E1 		mov	r0, r4
 226 0028 2010A0E3 		mov	r1, #32
 227 002c FEFFFFEB 		bl	strchr
 228              	.LVL30:
ARM GAS  /var/folders/3j/4xdnk5197cv_b7cw3n33qk7r0000gn/T//ccDwti1K.s 			page 5


 229              		.loc 1 52 0
 230 0030 000050E3 		cmp	r0, #0
 231              		.loc 1 53 0
 232 0034 0030A013 		movne	r3, #0
 233 0038 01208012 		addne	r2, r0, #1
 234 003c 00208515 		strne	r2, [r5]
 235              		.loc 1 51 0
 236 0040 00008505 		streq	r0, [r5]
 237              		.loc 1 53 0
 238 0044 0030C015 		strbne	r3, [r0]
 239              		.loc 1 55 0
 240 0048 0030D4E5 		ldrb	r3, [r4]	@ zero_extendqisi2
 241 004c 000053E3 		cmp	r3, #0
 242 0050 0400000A 		beq	.L15
 243              		.loc 1 56 0
 244 0054 0400A0E1 		mov	r0, r4
 245 0058 7080BDE8 		pop	{r4, r5, r6, pc}
 246              	.LVL31:
 247              	.L23:
 248              		.loc 1 45 0
 249 005c 004091E5 		ldr	r4, [r1]
 250              	.LVL32:
 251              		.loc 1 47 0
 252 0060 000054E3 		cmp	r4, #0
 253 0064 EAFFFF1A 		bne	.L14
 254              	.LVL33:
 255              	.L15:
 256              		.loc 1 55 0
 257 0068 0040A0E3 		mov	r4, #0
 258              	.LVL34:
 259              		.loc 1 56 0
 260 006c 0400A0E1 		mov	r0, r4
 261 0070 7080BDE8 		pop	{r4, r5, r6, pc}
 262              	.L25:
 263              		.align	2
 264              	.L24:
 265 0074 00000000 		.word	.LANCHOR0
 266              		.cfi_endproc
 267              	.LFE20:
 268              		.size	_strtok.constprop.2, .-_strtok.constprop.2
 269              		.section	.text.shellInit,"ax",%progbits
 270              		.align	2
 271              		.global	shellInit
 272              		.syntax unified
 273              		.arm
 274              		.fpu softvfp
 275              		.type	shellInit, %function
 276              	shellInit:
 277              	.LFB14:
 278              		.loc 1 208 0
 279              		.cfi_startproc
 280              		@ args = 0, pretend = 0, frame = 0
 281              		@ frame_needed = 0, uses_anonymous_args = 0
 282              		@ link register save eliminated.
 283              		.loc 1 210 0
 284 0000 04309FE5 		ldr	r3, .L27
 285 0004 003083E5 		str	r3, [r3]
ARM GAS  /var/folders/3j/4xdnk5197cv_b7cw3n33qk7r0000gn/T//ccDwti1K.s 			page 6


 286              		.loc 1 211 0
 287 0008 1EFF2FE1 		bx	lr
 288              	.L28:
 289              		.align	2
 290              	.L27:
 291 000c 00000000 		.word	shell_terminated
 292              		.cfi_endproc
 293              	.LFE14:
 294              		.size	shellInit, .-shellInit
 295              		.section	.text.shellCreate,"ax",%progbits
 296              		.align	2
 297              		.global	shellCreate
 298              		.syntax unified
 299              		.arm
 300              		.fpu softvfp
 301              		.type	shellCreate, %function
 302              	shellCreate:
 303              	.LFB15:
 304              		.loc 1 224 0
 305              		.cfi_startproc
 306              		@ args = 0, pretend = 0, frame = 0
 307              		@ frame_needed = 0, uses_anonymous_args = 0
 308              	.LVL35:
 309 0000 04E02DE5 		str	lr, [sp, #-4]!
 310              		.cfi_def_cfa_offset 4
 311              		.cfi_offset 14, -4
 312 0004 0CD04DE2 		sub	sp, sp, #12
 313              		.cfi_def_cfa_offset 16
 314              		.loc 1 226 0
 315 0008 00008DE5 		str	r0, [sp]
 316 000c 0C309FE5 		ldr	r3, .L31
 317 0010 0000A0E3 		mov	r0, #0
 318              	.LVL36:
 319 0014 FEFFFFEB 		bl	chThdCreateFromHeap
 320              	.LVL37:
 321              		.loc 1 227 0
 322 0018 0CD08DE2 		add	sp, sp, #12
 323              		.cfi_def_cfa_offset 4
 324              		@ sp needed
 325 001c 04F09DE4 		ldr	pc, [sp], #4
 326              	.L32:
 327              		.align	2
 328              	.L31:
 329 0020 00000000 		.word	shell_thread
 330              		.cfi_endproc
 331              	.LFE15:
 332              		.size	shellCreate, .-shellCreate
 333              		.section	.text.shellCreateStatic,"ax",%progbits
 334              		.align	2
 335              		.global	shellCreateStatic
 336              		.syntax unified
 337              		.arm
 338              		.fpu softvfp
 339              		.type	shellCreateStatic, %function
 340              	shellCreateStatic:
 341              	.LFB16:
 342              		.loc 1 240 0
ARM GAS  /var/folders/3j/4xdnk5197cv_b7cw3n33qk7r0000gn/T//ccDwti1K.s 			page 7


 343              		.cfi_startproc
 344              		@ args = 0, pretend = 0, frame = 0
 345              		@ frame_needed = 0, uses_anonymous_args = 0
 346              	.LVL38:
 347 0000 01C0A0E1 		mov	ip, r1
 348 0004 04E02DE5 		str	lr, [sp, #-4]!
 349              		.cfi_def_cfa_offset 4
 350              		.cfi_offset 14, -4
 351 0008 0CD04DE2 		sub	sp, sp, #12
 352              		.cfi_def_cfa_offset 16
 353              		.loc 1 242 0
 354 000c 0210A0E1 		mov	r1, r2
 355              	.LVL39:
 356 0010 00008DE5 		str	r0, [sp]
 357 0014 0320A0E1 		mov	r2, r3
 358              	.LVL40:
 359 0018 0C00A0E1 		mov	r0, ip
 360              	.LVL41:
 361 001c 08309FE5 		ldr	r3, .L35
 362              	.LVL42:
 363 0020 FEFFFFEB 		bl	chThdCreateStatic
 364              	.LVL43:
 365              		.loc 1 243 0
 366 0024 0CD08DE2 		add	sp, sp, #12
 367              		.cfi_def_cfa_offset 4
 368              		@ sp needed
 369 0028 04F09DE4 		ldr	pc, [sp], #4
 370              	.L36:
 371              		.align	2
 372              	.L35:
 373 002c 00000000 		.word	shell_thread
 374              		.cfi_endproc
 375              	.LFE16:
 376              		.size	shellCreateStatic, .-shellCreateStatic
 377              		.section	.text.shellGetLine,"ax",%progbits
 378              		.align	2
 379              		.global	shellGetLine
 380              		.syntax unified
 381              		.arm
 382              		.fpu softvfp
 383              		.type	shellGetLine, %function
 384              	shellGetLine:
 385              	.LFB17:
 386              		.loc 1 255 0
 387              		.cfi_startproc
 388              		@ args = 0, pretend = 0, frame = 8
 389              		@ frame_needed = 0, uses_anonymous_args = 0
 390              	.LVL44:
 391 0000 F0402DE9 		push	{r4, r5, r6, r7, lr}
 392              		.cfi_def_cfa_offset 20
 393              		.cfi_offset 4, -20
 394              		.cfi_offset 5, -16
 395              		.cfi_offset 6, -12
 396              		.cfi_offset 7, -8
 397              		.cfi_offset 14, -4
 398 0004 0170A0E1 		mov	r7, r1
 399              	.LVL45:
ARM GAS  /var/folders/3j/4xdnk5197cv_b7cw3n33qk7r0000gn/T//ccDwti1K.s 			page 8


 400 0008 0040A0E1 		mov	r4, r0
 401 000c 0150A0E1 		mov	r5, r1
 402              	.LBB38:
 403              		.loc 1 283 0
 404 0010 012042E2 		sub	r2, r2, #1
 405              	.LVL46:
 406 0014 003090E5 		ldr	r3, [r0]
 407              	.LBE38:
 408              		.loc 1 255 0
 409 0018 0CD04DE2 		sub	sp, sp, #12
 410              		.cfi_def_cfa_offset 32
 411              	.LBB39:
 412              		.loc 1 283 0
 413 001c 026081E0 		add	r6, r1, r2
 414              	.LVL47:
 415              	.L38:
 416              		.loc 1 261 0
 417 0020 043093E5 		ldr	r3, [r3, #4]
 418 0024 0120A0E3 		mov	r2, #1
 419 0028 07108DE2 		add	r1, sp, #7
 420 002c 0400A0E1 		mov	r0, r4
 421 0030 33FF2FE1 		blx	r3
 422              	.LVL48:
 423 0034 000050E3 		cmp	r0, #0
 424 0038 2600000A 		beq	.L46
 425              		.loc 1 263 0
 426 003c 0710DDE5 		ldrb	r1, [sp, #7]	@ zero_extendqisi2
 427 0040 040051E3 		cmp	r1, #4
 428 0044 2600000A 		beq	.L49
 429              		.loc 1 267 0
 430 0048 080051E3 		cmp	r1, #8
 431 004c 0E00000A 		beq	.L50
 432              		.loc 1 276 0
 433 0050 0D0051E3 		cmp	r1, #13
 434 0054 2800000A 		beq	.L51
 435              		.loc 1 281 0
 436 0058 1F0051E3 		cmp	r1, #31
 437 005c 003094E5 		ldr	r3, [r4]
 438 0060 EEFFFF9A 		bls	.L38
 439              		.loc 1 283 0
 440 0064 060055E1 		cmp	r5, r6
 441 0068 ECFFFF2A 		bcs	.L38
 442              		.loc 1 284 0
 443 006c 083093E5 		ldr	r3, [r3, #8]
 444 0070 0400A0E1 		mov	r0, r4
 445 0074 33FF2FE1 		blx	r3
 446              	.LVL49:
 447              		.loc 1 285 0
 448 0078 0730DDE5 		ldrb	r3, [sp, #7]	@ zero_extendqisi2
 449 007c 015085E2 		add	r5, r5, #1
 450              	.LVL50:
 451 0080 013045E5 		strb	r3, [r5, #-1]
 452 0084 003094E5 		ldr	r3, [r4]
 453 0088 E4FFFFEA 		b	.L38
 454              	.L50:
 455              		.loc 1 268 0
 456 008c 070055E1 		cmp	r5, r7
ARM GAS  /var/folders/3j/4xdnk5197cv_b7cw3n33qk7r0000gn/T//ccDwti1K.s 			page 9


 457 0090 003094E5 		ldr	r3, [r4]
 458 0094 E1FFFF0A 		beq	.L38
 459              		.loc 1 269 0
 460 0098 083093E5 		ldr	r3, [r3, #8]
 461 009c 0400A0E1 		mov	r0, r4
 462 00a0 33FF2FE1 		blx	r3
 463              	.LVL51:
 464              		.loc 1 270 0
 465 00a4 003094E5 		ldr	r3, [r4]
 466 00a8 2010A0E3 		mov	r1, #32
 467 00ac 083093E5 		ldr	r3, [r3, #8]
 468 00b0 0400A0E1 		mov	r0, r4
 469 00b4 33FF2FE1 		blx	r3
 470              	.LVL52:
 471              		.loc 1 271 0
 472 00b8 003094E5 		ldr	r3, [r4]
 473 00bc 0710DDE5 		ldrb	r1, [sp, #7]	@ zero_extendqisi2
 474 00c0 083093E5 		ldr	r3, [r3, #8]
 475 00c4 0400A0E1 		mov	r0, r4
 476 00c8 33FF2FE1 		blx	r3
 477              	.LVL53:
 478              		.loc 1 272 0
 479 00cc 015045E2 		sub	r5, r5, #1
 480              	.LVL54:
 481 00d0 003094E5 		ldr	r3, [r4]
 482 00d4 D1FFFFEA 		b	.L38
 483              	.L46:
 484              		.loc 1 262 0
 485 00d8 0100A0E3 		mov	r0, #1
 486              	.LBE39:
 487              		.loc 1 288 0
 488 00dc 0CD08DE2 		add	sp, sp, #12
 489              		.cfi_remember_state
 490              		.cfi_def_cfa_offset 20
 491              		@ sp needed
 492 00e0 F080BDE8 		pop	{r4, r5, r6, r7, pc}
 493              	.LVL55:
 494              	.L49:
 495              		.cfi_restore_state
 496              	.LBB40:
 497              		.loc 1 264 0
 498 00e4 0400A0E1 		mov	r0, r4
 499 00e8 28109FE5 		ldr	r1, .L52
 500 00ec FEFFFFEB 		bl	chprintf
 501              	.LVL56:
 502              		.loc 1 265 0
 503 00f0 0100A0E3 		mov	r0, #1
 504              	.LBE40:
 505              		.loc 1 288 0
 506 00f4 0CD08DE2 		add	sp, sp, #12
 507              		.cfi_remember_state
 508              		.cfi_def_cfa_offset 20
 509              		@ sp needed
 510 00f8 F080BDE8 		pop	{r4, r5, r6, r7, pc}
 511              	.LVL57:
 512              	.L51:
 513              		.cfi_restore_state
ARM GAS  /var/folders/3j/4xdnk5197cv_b7cw3n33qk7r0000gn/T//ccDwti1K.s 			page 10


 514              	.LBB41:
 515              		.loc 1 277 0
 516 00fc 0400A0E1 		mov	r0, r4
 517 0100 14109FE5 		ldr	r1, .L52+4
 518 0104 FEFFFFEB 		bl	chprintf
 519              	.LVL58:
 520              		.loc 1 278 0
 521 0108 0000A0E3 		mov	r0, #0
 522 010c 0000C5E5 		strb	r0, [r5]
 523              	.LBE41:
 524              		.loc 1 288 0
 525 0110 0CD08DE2 		add	sp, sp, #12
 526              		.cfi_def_cfa_offset 20
 527              		@ sp needed
 528 0114 F080BDE8 		pop	{r4, r5, r6, r7, pc}
 529              	.LVL59:
 530              	.L53:
 531              		.align	2
 532              	.L52:
 533 0118 00000000 		.word	.LC21
 534 011c 04000000 		.word	.LC22
 535              		.cfi_endproc
 536              	.LFE17:
 537              		.size	shellGetLine, .-shellGetLine
 538              		.section	.text.shell_thread,"ax",%progbits
 539              		.align	2
 540              		.syntax unified
 541              		.arm
 542              		.fpu softvfp
 543              		.type	shell_thread, %function
 544              	shell_thread:
 545              	.LFB13:
 546              		.loc 1 143 0
 547              		.cfi_startproc
 548              		@ args = 0, pretend = 0, frame = 88
 549              		@ frame_needed = 0, uses_anonymous_args = 0
 550              	.LVL60:
 551 0000 F04F2DE9 		push	{r4, r5, r6, r7, r8, r9, r10, fp, lr}
 552              		.cfi_def_cfa_offset 36
 553              		.cfi_offset 4, -36
 554              		.cfi_offset 5, -32
 555              		.cfi_offset 6, -28
 556              		.cfi_offset 7, -24
 557              		.cfi_offset 8, -20
 558              		.cfi_offset 9, -16
 559              		.cfi_offset 10, -12
 560              		.cfi_offset 11, -8
 561              		.cfi_offset 14, -4
 562              		.loc 1 151 0
 563 0004 70329FE5 		ldr	r3, .L108
 564              		.loc 1 146 0
 565 0008 005090E5 		ldr	r5, [r0]
 566              	.LVL61:
 567              		.loc 1 151 0
 568 000c 183093E5 		ldr	r3, [r3, #24]
 569 0010 68229FE5 		ldr	r2, .L108+4
 570              		.loc 1 147 0
ARM GAS  /var/folders/3j/4xdnk5197cv_b7cw3n33qk7r0000gn/T//ccDwti1K.s 			page 11


 571 0014 04A090E5 		ldr	r10, [r0, #4]
 572              	.LVL62:
 573              		.loc 1 143 0
 574 0018 5CD04DE2 		sub	sp, sp, #92
 575              		.cfi_def_cfa_offset 128
 576              		.loc 1 152 0
 577 001c 0500A0E1 		mov	r0, r5
 578              	.LVL63:
 579              		.loc 1 151 0
 580 0020 182083E5 		str	r2, [r3, #24]
 581              		.loc 1 152 0
 582 0024 58129FE5 		ldr	r1, .L108+8
 583 0028 FEFFFFEB 		bl	chprintf
 584              	.LVL64:
 585              		.loc 1 154 0
 586 002c 54729FE5 		ldr	r7, .L108+12
 587              		.loc 1 172 0
 588 0030 54829FE5 		ldr	r8, .L108+16
 589              		.loc 1 179 0
 590 0034 54929FE5 		ldr	r9, .L108+20
 591              	.L55:
 592              		.loc 1 154 0
 593 0038 0710A0E1 		mov	r1, r7
 594 003c 0500A0E1 		mov	r0, r5
 595 0040 FEFFFFEB 		bl	chprintf
 596              	.LVL65:
 597              		.loc 1 155 0
 598 0044 4020A0E3 		mov	r2, #64
 599 0048 18108DE2 		add	r1, sp, #24
 600 004c 0500A0E1 		mov	r0, r5
 601 0050 FEFFFFEB 		bl	shellGetLine
 602              	.LVL66:
 603 0054 004050E2 		subs	r4, r0, #0
 604 0058 3400001A 		bne	.L103
 605              		.loc 1 159 0
 606 005c 0D10A0E1 		mov	r1, sp
 607 0060 18008DE2 		add	r0, sp, #24
 608 0064 FEFFFFEB 		bl	_strtok.constprop.2
 609              	.LVL67:
 610 0068 00B0A0E1 		mov	fp, r0
 611              	.LVL68:
 612              		.loc 1 168 0
 613 006c 04608DE2 		add	r6, sp, #4
 614              	.LVL69:
 615              	.L58:
 616              		.loc 1 162 0
 617 0070 0D10A0E1 		mov	r1, sp
 618 0074 0000A0E3 		mov	r0, #0
 619              	.LVL70:
 620 0078 FEFFFFEB 		bl	_strtok.constprop.2
 621              	.LVL71:
 622 007c 000050E3 		cmp	r0, #0
 623 0080 0900000A 		beq	.L104
 624              		.loc 1 163 0
 625 0084 040054E3 		cmp	r4, #4
 626              		.loc 1 168 0
 627 0088 04018617 		strne	r0, [r6, r4, lsl #2]
ARM GAS  /var/folders/3j/4xdnk5197cv_b7cw3n33qk7r0000gn/T//ccDwti1K.s 			page 12


 628 008c 01408412 		addne	r4, r4, #1
 629              	.LVL72:
 630 0090 F6FFFF1A 		bne	.L58
 631              	.LVL73:
 632              	.L105:
 633              		.loc 1 164 0
 634 0094 F8119FE5 		ldr	r1, .L108+24
 635 0098 0500A0E1 		mov	r0, r5
 636              	.LVL74:
 637 009c FEFFFFEB 		bl	chprintf
 638              	.LVL75:
 639              		.loc 1 170 0
 640 00a0 0030A0E3 		mov	r3, #0
 641 00a4 14308DE5 		str	r3, [sp, #20]
 642 00a8 E2FFFFEA 		b	.L55
 643              	.LVL76:
 644              	.L104:
 645 00ac 58308DE2 		add	r3, sp, #88
 646 00b0 043183E0 		add	r3, r3, r4, lsl #2
 647              		.loc 1 171 0
 648 00b4 00005BE3 		cmp	fp, #0
 649              		.loc 1 170 0
 650 00b8 540003E5 		str	r0, [r3, #-84]
 651              		.loc 1 171 0
 652 00bc DDFFFF0A 		beq	.L55
 653              		.loc 1 172 0
 654 00c0 0810A0E1 		mov	r1, r8
 655 00c4 0B00A0E1 		mov	r0, fp
 656              	.LVL77:
 657 00c8 FEFFFFEB 		bl	strcasecmp
 658              	.LVL78:
 659 00cc 000050E3 		cmp	r0, #0
 660 00d0 0A00001A 		bne	.L62
 661              		.loc 1 173 0
 662 00d4 000054E3 		cmp	r4, #0
 663 00d8 1800001A 		bne	.L106
 664              	.LVL79:
 665              	.L57:
 666              		.loc 1 199 0
 667              		.syntax divided
 668              	@ 199 "..//os/various/shell.c" 1
 669 00dc 9FF021E3 		msr     CPSR_c, #0x9F
 670              	@ 0 "" 2
 671              		.loc 1 200 0
 672              		.arm
 673              		.syntax unified
 674 00e0 0010A0E3 		mov	r1, #0
 675 00e4 AC019FE5 		ldr	r0, .L108+28
 676 00e8 FEFFFFEB 		bl	chEvtBroadcastFlagsI
 677              	.LVL80:
 678              		.loc 1 201 0
 679 00ec 0000A0E3 		mov	r0, #0
 680 00f0 FEFFFFEB 		bl	chThdExitS
 681              	.LVL81:
 682              		.loc 1 203 0
 683 00f4 0000A0E3 		mov	r0, #0
 684 00f8 5CD08DE2 		add	sp, sp, #92
ARM GAS  /var/folders/3j/4xdnk5197cv_b7cw3n33qk7r0000gn/T//ccDwti1K.s 			page 13


 685              		.cfi_remember_state
 686              		.cfi_def_cfa_offset 36
 687              		@ sp needed
 688 00fc F08FBDE8 		pop	{r4, r5, r6, r7, r8, r9, r10, fp, pc}
 689              	.LVL82:
 690              	.L62:
 691              		.cfi_restore_state
 692              		.loc 1 179 0
 693 0100 0910A0E1 		mov	r1, r9
 694 0104 0B00A0E1 		mov	r0, fp
 695 0108 FEFFFFEB 		bl	strcasecmp
 696              	.LVL83:
 697 010c 000050E3 		cmp	r0, #0
 698 0110 0F00001A 		bne	.L107
 699              		.loc 1 180 0
 700 0114 000054E3 		cmp	r4, #0
 701 0118 2000000A 		beq	.L66
 702              	.LVL84:
 703              	.LBB54:
 704              	.LBB55:
 705              		.loc 1 60 0
 706 011c 0920A0E1 		mov	r2, r9
 707 0120 74119FE5 		ldr	r1, .L108+32
 708 0124 0500A0E1 		mov	r0, r5
 709 0128 FEFFFFEB 		bl	chprintf
 710              	.LVL85:
 711              	.LBE55:
 712              	.LBE54:
 713              		.loc 1 182 0
 714 012c C1FFFFEA 		b	.L55
 715              	.LVL86:
 716              	.L103:
 717              		.loc 1 156 0
 718 0130 0500A0E1 		mov	r0, r5
 719 0134 64119FE5 		ldr	r1, .L108+36
 720 0138 FEFFFFEB 		bl	chprintf
 721              	.LVL87:
 722              		.loc 1 157 0
 723 013c E6FFFFEA 		b	.L57
 724              	.LVL88:
 725              	.L106:
 726              	.LBB56:
 727              	.LBB57:
 728              		.loc 1 60 0
 729 0140 0820A0E1 		mov	r2, r8
 730 0144 50119FE5 		ldr	r1, .L108+32
 731 0148 0500A0E1 		mov	r0, r5
 732 014c FEFFFFEB 		bl	chprintf
 733              	.LVL89:
 734              	.LBE57:
 735              	.LBE56:
 736              		.loc 1 175 0
 737 0150 B8FFFFEA 		b	.L55
 738              	.L107:
 739              	.LVL90:
 740              	.LBB58:
 741              	.LBB59:
ARM GAS  /var/folders/3j/4xdnk5197cv_b7cw3n33qk7r0000gn/T//ccDwti1K.s 			page 14


 742              		.loc 1 125 0
 743 0154 48319FE5 		ldr	r3, .L108+40
 744 0158 000093E5 		ldr	r0, [r3]
 745 015c 000050E3 		cmp	r0, #0
 746 0160 3C619F15 		ldrne	r6, .L108+40
 747 0164 0300001A 		bne	.L72
 748 0168 2C0000EA 		b	.L65
 749              	.LVL91:
 750              	.L71:
 751 016c 0800B6E5 		ldr	r0, [r6, #8]!
 752              	.LVL92:
 753 0170 000050E3 		cmp	r0, #0
 754 0174 2900000A 		beq	.L65
 755              	.LVL93:
 756              	.L72:
 757              		.loc 1 126 0
 758 0178 0B10A0E1 		mov	r1, fp
 759 017c FEFFFFEB 		bl	strcasecmp
 760              	.LVL94:
 761 0180 000050E3 		cmp	r0, #0
 762 0184 F8FFFF1A 		bne	.L71
 763              	.LVL95:
 764              	.L102:
 765              	.LBE59:
 766              	.LBE58:
 767              	.LBB60:
 768              	.LBB61:
 769              		.loc 1 127 0
 770 0188 043096E5 		ldr	r3, [r6, #4]
 771 018c 0410A0E1 		mov	r1, r4
 772 0190 04208DE2 		add	r2, sp, #4
 773 0194 0500A0E1 		mov	r0, r5
 774 0198 33FF2FE1 		blx	r3
 775              	.LVL96:
 776 019c A5FFFFEA 		b	.L55
 777              	.L66:
 778              	.LBE61:
 779              	.LBE60:
 780              		.loc 1 184 0
 781 01a0 00119FE5 		ldr	r1, .L108+44
 782 01a4 0500A0E1 		mov	r0, r5
 783 01a8 FEFFFFEB 		bl	chprintf
 784              	.LVL97:
 785              	.LBB63:
 786              	.LBB64:
 787              		.loc 1 65 0
 788 01ac F0309FE5 		ldr	r3, .L108+40
 789 01b0 002093E5 		ldr	r2, [r3]
 790 01b4 000052E3 		cmp	r2, #0
 791 01b8 0700000A 		beq	.L67
 792 01bc 0340A0E1 		mov	r4, r3
 793              	.LVL98:
 794              		.loc 1 66 0
 795 01c0 E4609FE5 		ldr	r6, .L108+48
 796              	.LVL99:
 797              	.L68:
 798 01c4 0610A0E1 		mov	r1, r6
ARM GAS  /var/folders/3j/4xdnk5197cv_b7cw3n33qk7r0000gn/T//ccDwti1K.s 			page 15


 799 01c8 0500A0E1 		mov	r0, r5
 800 01cc FEFFFFEB 		bl	chprintf
 801              	.LVL100:
 802              		.loc 1 65 0
 803 01d0 0820B4E5 		ldr	r2, [r4, #8]!
 804              	.LVL101:
 805 01d4 000052E3 		cmp	r2, #0
 806 01d8 F9FFFF1A 		bne	.L68
 807              	.LVL102:
 808              	.L67:
 809              	.LBE64:
 810              	.LBE63:
 811              		.loc 1 186 0
 812 01dc 00005AE3 		cmp	r10, #0
 813 01e0 0A00000A 		beq	.L69
 814              	.LVL103:
 815              	.LBB65:
 816              	.LBB66:
 817              		.loc 1 65 0
 818 01e4 00209AE5 		ldr	r2, [r10]
 819 01e8 000052E3 		cmp	r2, #0
 820 01ec 0700000A 		beq	.L69
 821 01f0 0A40A0E1 		mov	r4, r10
 822              		.loc 1 66 0
 823 01f4 B0609FE5 		ldr	r6, .L108+48
 824              	.LVL104:
 825              	.L70:
 826 01f8 0610A0E1 		mov	r1, r6
 827 01fc 0500A0E1 		mov	r0, r5
 828 0200 FEFFFFEB 		bl	chprintf
 829              	.LVL105:
 830              		.loc 1 65 0
 831 0204 0820B4E5 		ldr	r2, [r4, #8]!
 832              	.LVL106:
 833 0208 000052E3 		cmp	r2, #0
 834 020c F9FFFF1A 		bne	.L70
 835              	.LVL107:
 836              	.L69:
 837              	.LBE66:
 838              	.LBE65:
 839              		.loc 1 188 0
 840 0210 98109FE5 		ldr	r1, .L108+52
 841 0214 0500A0E1 		mov	r0, r5
 842 0218 FEFFFFEB 		bl	chprintf
 843              	.LVL108:
 844 021c 85FFFFEA 		b	.L55
 845              	.LVL109:
 846              	.L65:
 847              		.loc 1 190 0
 848 0220 00005AE3 		cmp	r10, #0
 849 0224 0C00000A 		beq	.L73
 850              	.LVL110:
 851              	.LBB67:
 852              	.LBB62:
 853              		.loc 1 125 0
 854 0228 00009AE5 		ldr	r0, [r10]
 855 022c 000050E3 		cmp	r0, #0
ARM GAS  /var/folders/3j/4xdnk5197cv_b7cw3n33qk7r0000gn/T//ccDwti1K.s 			page 16


 856 0230 0900000A 		beq	.L73
 857 0234 0A60A0E1 		mov	r6, r10
 858 0238 020000EA 		b	.L75
 859              	.LVL111:
 860              	.L74:
 861 023c 0800B6E5 		ldr	r0, [r6, #8]!
 862              	.LVL112:
 863 0240 000050E3 		cmp	r0, #0
 864 0244 0400000A 		beq	.L73
 865              	.LVL113:
 866              	.L75:
 867              		.loc 1 126 0
 868 0248 0B10A0E1 		mov	r1, fp
 869 024c FEFFFFEB 		bl	strcasecmp
 870              	.LVL114:
 871 0250 000050E3 		cmp	r0, #0
 872 0254 F8FFFF1A 		bne	.L74
 873 0258 CAFFFFEA 		b	.L102
 874              	.LVL115:
 875              	.L73:
 876              	.LBE62:
 877              	.LBE67:
 878              		.loc 1 192 0
 879 025c 0500A0E1 		mov	r0, r5
 880 0260 0B20A0E1 		mov	r2, fp
 881 0264 48109FE5 		ldr	r1, .L108+56
 882 0268 FEFFFFEB 		bl	chprintf
 883              	.LVL116:
 884              		.loc 1 193 0
 885 026c 44109FE5 		ldr	r1, .L108+60
 886 0270 0500A0E1 		mov	r0, r5
 887 0274 FEFFFFEB 		bl	chprintf
 888              	.LVL117:
 889 0278 6EFFFFEA 		b	.L55
 890              	.L109:
 891              		.align	2
 892              	.L108:
 893 027c 00000000 		.word	rlist
 894 0280 00000000 		.word	.LC23
 895 0284 08000000 		.word	.LC24
 896 0288 20000000 		.word	.LC25
 897 028c 4C000000 		.word	.LC28
 898 0290 54000000 		.word	.LC29
 899 0294 34000000 		.word	.LC27
 900 0298 00000000 		.word	shell_terminated
 901 029c 08000000 		.word	.LC1
 902 02a0 28000000 		.word	.LC26
 903 02a4 00000000 		.word	.LANCHOR1
 904 02a8 5C000000 		.word	.LC30
 905 02ac 74000000 		.word	.LC31
 906 02b0 04000000 		.word	.LC22
 907 02b4 78000000 		.word	.LC32
 908 02b8 7C000000 		.word	.LC33
 909              		.cfi_endproc
 910              	.LFE13:
 911              		.size	shell_thread, .-shell_thread
 912              		.comm	shell_terminated,4,4
ARM GAS  /var/folders/3j/4xdnk5197cv_b7cw3n33qk7r0000gn/T//ccDwti1K.s 			page 17


 913              		.section	.rodata
 914              		.align	2
 915              		.set	.LANCHOR0,. + 0
 916              	.LC20:
 917 0000 20003900 		.ascii	" \0009\000"
 918              		.section	.data.local_commands,"aw",%progbits
 919              		.align	2
 920              		.set	.LANCHOR1,. + 0
 921              		.type	local_commands, %object
 922              		.size	local_commands, 24
 923              	local_commands:
 924 0000 00000000 		.word	.LC3
 925 0004 00000000 		.word	cmd_info
 926 0008 00000000 		.word	.LC0
 927 000c 00000000 		.word	cmd_systime
 928 0010 00000000 		.word	0
 929 0014 00000000 		.word	0
 930              		.section	.rodata.cmd_info.str1.4,"aMS",%progbits,1
 931              		.align	2
 932              	.LC3:
 933 0000 696E666F 		.ascii	"info\000"
 933      00
 934 0005 000000   		.space	3
 935              	.LC4:
 936 0008 322E352E 		.ascii	"2.5.1unstable\000"
 936      31756E73 
 936      7461626C 
 936      6500
 937 0016 0000     		.space	2
 938              	.LC5:
 939 0018 4B65726E 		.ascii	"Kernel:       %s\015\012\000"
 939      656C3A20 
 939      20202020 
 939      20202573 
 939      0D0A00
 940 002b 00       		.space	1
 941              	.LC6:
 942 002c 47434320 		.ascii	"GCC 7.3.1 20180622 (release) [ARM/embedded-7-branch"
 942      372E332E 
 942      31203230 
 942      31383036 
 942      32322028 
 943 005f 20726576 		.ascii	" revision 261907]\000"
 943      6973696F 
 943      6E203236 
 943      31393037 
 943      5D00
 944 0071 000000   		.space	3
 945              	.LC7:
 946 0074 436F6D70 		.ascii	"Compiler:     %s\015\012\000"
 946      696C6572 
 946      3A202020 
 946      20202573 
 946      0D0A00
 947 0087 00       		.space	1
 948              	.LC8:
 949 0088 41524D31 		.ascii	"ARM11\000"
ARM GAS  /var/folders/3j/4xdnk5197cv_b7cw3n33qk7r0000gn/T//ccDwti1K.s 			page 18


 949      3100
 950 008e 0000     		.space	2
 951              	.LC9:
 952 0090 41726368 		.ascii	"Architecture: %s\015\012\000"
 952      69746563 
 952      74757265 
 952      3A202573 
 952      0D0A00
 953 00a3 00       		.space	1
 954              	.LC10:
 955 00a4 41524D31 		.ascii	"ARM1176JZF-S\000"
 955      3137364A 
 955      5A462D53 
 955      00
 956 00b1 000000   		.space	3
 957              	.LC11:
 958 00b4 436F7265 		.ascii	"Core Variant: %s\015\012\000"
 958      20566172 
 958      69616E74 
 958      3A202573 
 958      0D0A00
 959 00c7 00       		.space	1
 960              	.LC12:
 961 00c8 50757265 		.ascii	"Pure ARM mode\000"
 961      2041524D 
 961      206D6F64 
 961      6500
 962 00d6 0000     		.space	2
 963              	.LC13:
 964 00d8 506F7274 		.ascii	"Port Info:    %s\015\012\000"
 964      20496E66 
 964      6F3A2020 
 964      20202573 
 964      0D0A00
 965 00eb 00       		.space	1
 966              	.LC14:
 967 00ec 42434D32 		.ascii	"BCM2835\000"
 967      38333500 
 968              	.LC15:
 969 00f4 506C6174 		.ascii	"Platform:     %s\015\012\000"
 969      666F726D 
 969      3A202020 
 969      20202573 
 969      0D0A00
 970 0107 00       		.space	1
 971              	.LC16:
 972 0108 202D2000 		.ascii	" - \000"
 973              	.LC17:
 974 010c 4A756C20 		.ascii	"Jul 21 2020\000"
 974      32312032 
 974      30323000 
 975              	.LC18:
 976 0118 4275696C 		.ascii	"Build time:   %s%s%s\015\012\000"
 976      64207469 
 976      6D653A20 
 976      20202573 
 976      25732573 
ARM GAS  /var/folders/3j/4xdnk5197cv_b7cw3n33qk7r0000gn/T//ccDwti1K.s 			page 19


 977 012f 00       		.space	1
 978              	.LC19:
 979 0130 31353A34 		.ascii	"15:40:28\000"
 979      303A3238 
 979      00
 980              		.section	.rodata.cmd_systime.str1.4,"aMS",%progbits,1
 981              		.align	2
 982              	.LC0:
 983 0000 73797374 		.ascii	"systime\000"
 983      696D6500 
 984              	.LC1:
 985 0008 55736167 		.ascii	"Usage: %s\015\012\000"
 985      653A2025 
 985      730D0A00 
 986              	.LC2:
 987 0014 256C750D 		.ascii	"%lu\015\012\000"
 987      0A00
 988              		.section	.rodata.shellGetLine.str1.4,"aMS",%progbits,1
 989              		.align	2
 990              	.LC21:
 991 0000 5E4400   		.ascii	"^D\000"
 992 0003 00       		.space	1
 993              	.LC22:
 994 0004 0D0A00   		.ascii	"\015\012\000"
 995              		.section	.rodata.shell_thread.str1.4,"aMS",%progbits,1
 996              		.align	2
 997              	.LC23:
 998 0000 7368656C 		.ascii	"shell\000"
 998      6C00
 999 0006 0000     		.space	2
 1000              	.LC24:
 1001 0008 0D0A4368 		.ascii	"\015\012ChibiOS/RT Shell\015\012\000"
 1001      6962694F 
 1001      532F5254 
 1001      20536865 
 1001      6C6C0D0A 
 1002 001d 000000   		.space	3
 1003              	.LC25:
 1004 0020 63683E20 		.ascii	"ch> \000"
 1004      00
 1005 0025 000000   		.space	3
 1006              	.LC26:
 1007 0028 0D0A6C6F 		.ascii	"\015\012logout\000"
 1007      676F7574 
 1007      00
 1008 0031 000000   		.space	3
 1009              	.LC27:
 1010 0034 746F6F20 		.ascii	"too many arguments\015\012\000"
 1010      6D616E79 
 1010      20617267 
 1010      756D656E 
 1010      74730D0A 
 1011 0049 000000   		.space	3
 1012              	.LC28:
 1013 004c 65786974 		.ascii	"exit\000"
 1013      00
 1014 0051 000000   		.space	3
ARM GAS  /var/folders/3j/4xdnk5197cv_b7cw3n33qk7r0000gn/T//ccDwti1K.s 			page 20


 1015              	.LC29:
 1016 0054 68656C70 		.ascii	"help\000"
 1016      00
 1017 0059 000000   		.space	3
 1018              	.LC30:
 1019 005c 436F6D6D 		.ascii	"Commands: help exit \000"
 1019      616E6473 
 1019      3A206865 
 1019      6C702065 
 1019      78697420 
 1020 0071 000000   		.space	3
 1021              	.LC31:
 1022 0074 25732000 		.ascii	"%s \000"
 1023              	.LC32:
 1024 0078 257300   		.ascii	"%s\000"
 1025 007b 00       		.space	1
 1026              	.LC33:
 1027 007c 203F0D0A 		.ascii	" ?\015\012\000"
 1027      00
 1028              		.text
 1029              	.Letext0:
 1030              		.file 2 "/usr/local/Cellar/gcc-arm-none-eabi/20180627/lib/gcc/arm-none-eabi/7.3.1/include/stddef.h
 1031              		.file 3 "/usr/local/Cellar/gcc-arm-none-eabi/20180627/arm-none-eabi/include/machine/_default_types
 1032              		.file 4 "/usr/local/Cellar/gcc-arm-none-eabi/20180627/arm-none-eabi/include/sys/lock.h"
 1033              		.file 5 "/usr/local/Cellar/gcc-arm-none-eabi/20180627/arm-none-eabi/include/sys/_types.h"
 1034              		.file 6 "/usr/local/Cellar/gcc-arm-none-eabi/20180627/arm-none-eabi/include/sys/reent.h"
 1035              		.file 7 "/usr/local/Cellar/gcc-arm-none-eabi/20180627/arm-none-eabi/include/sys/_stdint.h"
 1036              		.file 8 "..//os/ports/GCC/ARM/chtypes.h"
 1037              		.file 9 "..//os/kernel/include/chlists.h"
 1038              		.file 10 "..//os/kernel/include/chthreads.h"
 1039              		.file 11 "..//os/ports/GCC/ARM/chcore.h"
 1040              		.file 12 "..//os/kernel/include/chvt.h"
 1041              		.file 13 "..//os/kernel/include/chschd.h"
 1042              		.file 14 "..//os/kernel/include/chmtx.h"
 1043              		.file 15 "..//os/kernel/include/chevents.h"
 1044              		.file 16 "..//os/kernel/include/chregistry.h"
 1045              		.file 17 "..//os/kernel/include/chqueues.h"
 1046              		.file 18 "..//os/kernel/include/chstreams.h"
 1047              		.file 19 "..//os/kernel/include/ch.h"
 1048              		.file 20 "..//os/hal/platforms/BCM2835/bcm2835.h"
 1049              		.file 21 "..//os/hal/platforms/BCM2835/pal_lld.h"
 1050              		.file 22 "..//os/hal/include/i2c.h"
 1051              		.file 23 "..//os/hal/platforms/BCM2835/i2c_lld.h"
 1052              		.file 24 "..//os/hal/include/serial.h"
 1053              		.file 25 "..//os/hal/include/spi.h"
 1054              		.file 26 "..//os/hal/platforms/BCM2835/spi_lld.h"
 1055              		.file 27 "..//os/various/shell.h"
 1056              		.file 28 "..//os/various/chprintf.h"
 1057              		.file 29 "..//os/kernel/include/chdynamic.h"
 1058              		.file 30 "/usr/local/Cellar/gcc-arm-none-eabi/20180627/arm-none-eabi/include/strings.h"
 1059              		.file 31 "/usr/local/Cellar/gcc-arm-none-eabi/20180627/arm-none-eabi/include/string.h"
 1060              		.file 32 "..//os/hal/platforms/BCM2835/serial_lld.h"
 1061              		.file 33 "<built-in>"