ARM GAS  /var/folders/3j/4xdnk5197cv_b7cw3n33qk7r0000gn/T//ccXtcaer.s 			page 1


   1              		.cpu arm1176jz-s
   2              		.eabi_attribute 20, 1
   3              		.eabi_attribute 21, 1
   4              		.eabi_attribute 23, 3
   5              		.eabi_attribute 24, 1
   6              		.eabi_attribute 25, 1
   7              		.eabi_attribute 26, 1
   8              		.eabi_attribute 30, 2
   9              		.eabi_attribute 34, 1
  10              		.eabi_attribute 18, 4
  11              		.file	"spi.c"
  12              		.text
  13              	.Ltext0:
  14              		.cfi_sections	.debug_frame
  15              		.section	.text.spiInit,"ax",%progbits
  16              		.align	2
  17              		.global	spiInit
  18              		.syntax unified
  19              		.arm
  20              		.fpu softvfp
  21              		.type	spiInit, %function
  22              	spiInit:
  23              	.LFB7:
  24              		.file 1 "..//os/hal/src/spi.c"
  25              		.loc 1 61 0
  26              		.cfi_startproc
  27              		@ args = 0, pretend = 0, frame = 0
  28              		@ frame_needed = 0, uses_anonymous_args = 0
  29              		@ link register save eliminated.
  30              		.loc 1 63 0
  31 0000 FEFFFFEA 		b	spi_lld_init
  32              	.LVL0:
  33              		.cfi_endproc
  34              	.LFE7:
  35              		.size	spiInit, .-spiInit
  36              		.section	.text.spiObjectInit,"ax",%progbits
  37              		.align	2
  38              		.global	spiObjectInit
  39              		.syntax unified
  40              		.arm
  41              		.fpu softvfp
  42              		.type	spiObjectInit, %function
  43              	spiObjectInit:
  44              	.LFB8:
  45              		.loc 1 73 0
  46              		.cfi_startproc
  47              		@ args = 0, pretend = 0, frame = 0
  48              		@ frame_needed = 0, uses_anonymous_args = 0
  49              		@ link register save eliminated.
  50              	.LVL1:
  51              		.loc 1 76 0
  52 0000 0030A0E3 		mov	r3, #0
  53              		.loc 1 75 0
  54 0004 0120A0E3 		mov	r2, #1
  55              		.loc 1 76 0
  56 0008 043080E5 		str	r3, [r0, #4]
  57              		.loc 1 75 0
ARM GAS  /var/folders/3j/4xdnk5197cv_b7cw3n33qk7r0000gn/T//ccXtcaer.s 			page 2


  58 000c 0020C0E5 		strb	r2, [r0]
  59              		.loc 1 78 0
  60 0010 083080E5 		str	r3, [r0, #8]
  61              		.loc 1 82 0
  62 0014 0C0080E2 		add	r0, r0, #12
  63              	.LVL2:
  64 0018 FEFFFFEA 		b	chMtxInit
  65              	.LVL3:
  66              		.cfi_endproc
  67              	.LFE8:
  68              		.size	spiObjectInit, .-spiObjectInit
  69              		.section	.text.spiStart,"ax",%progbits
  70              		.align	2
  71              		.global	spiStart
  72              		.syntax unified
  73              		.arm
  74              		.fpu softvfp
  75              		.type	spiStart, %function
  76              	spiStart:
  77              	.LFB9:
  78              		.loc 1 100 0
  79              		.cfi_startproc
  80              		@ args = 0, pretend = 0, frame = 0
  81              		@ frame_needed = 0, uses_anonymous_args = 0
  82              	.LVL4:
  83 0000 10402DE9 		push	{r4, lr}
  84              		.cfi_def_cfa_offset 8
  85              		.cfi_offset 4, -8
  86              		.cfi_offset 14, -4
  87              		.loc 1 100 0
  88 0004 0040A0E1 		mov	r4, r0
  89              		.loc 1 104 0
  90              		.syntax divided
  91              	@ 104 "..//os/hal/src/spi.c" 1
  92 0008 9FF021E3 		msr     CPSR_c, #0x9F
  93              	@ 0 "" 2
  94              		.loc 1 107 0
  95              		.arm
  96              		.syntax unified
  97 000c 041080E5 		str	r1, [r0, #4]
  98              		.loc 1 108 0
  99 0010 FEFFFFEB 		bl	spi_lld_start
 100              	.LVL5:
 101              		.loc 1 109 0
 102 0014 0230A0E3 		mov	r3, #2
 103 0018 0030C4E5 		strb	r3, [r4]
 104              		.loc 1 110 0
 105              		.syntax divided
 106              	@ 110 "..//os/hal/src/spi.c" 1
 107 001c 1FF021E3 		msr     CPSR_c, #0x1F
 108              	@ 0 "" 2
 109              		.loc 1 111 0
 110              		.arm
 111              		.syntax unified
 112 0020 1080BDE8 		pop	{r4, pc}
 113              		.cfi_endproc
 114              	.LFE9:
ARM GAS  /var/folders/3j/4xdnk5197cv_b7cw3n33qk7r0000gn/T//ccXtcaer.s 			page 3


 115              		.size	spiStart, .-spiStart
 116              		.section	.text.spiStop,"ax",%progbits
 117              		.align	2
 118              		.global	spiStop
 119              		.syntax unified
 120              		.arm
 121              		.fpu softvfp
 122              		.type	spiStop, %function
 123              	spiStop:
 124              	.LFB10:
 125              		.loc 1 122 0
 126              		.cfi_startproc
 127              		@ args = 0, pretend = 0, frame = 0
 128              		@ frame_needed = 0, uses_anonymous_args = 0
 129              	.LVL6:
 130 0000 10402DE9 		push	{r4, lr}
 131              		.cfi_def_cfa_offset 8
 132              		.cfi_offset 4, -8
 133              		.cfi_offset 14, -4
 134              		.loc 1 122 0
 135 0004 0040A0E1 		mov	r4, r0
 136              		.loc 1 126 0
 137              		.syntax divided
 138              	@ 126 "..//os/hal/src/spi.c" 1
 139 0008 9FF021E3 		msr     CPSR_c, #0x9F
 140              	@ 0 "" 2
 141              		.loc 1 129 0
 142              		.arm
 143              		.syntax unified
 144 000c FEFFFFEB 		bl	spi_lld_unselect
 145              	.LVL7:
 146              		.loc 1 130 0
 147 0010 0400A0E1 		mov	r0, r4
 148 0014 FEFFFFEB 		bl	spi_lld_stop
 149              	.LVL8:
 150              		.loc 1 131 0
 151 0018 0130A0E3 		mov	r3, #1
 152 001c 0030C4E5 		strb	r3, [r4]
 153              		.loc 1 132 0
 154              		.syntax divided
 155              	@ 132 "..//os/hal/src/spi.c" 1
 156 0020 1FF021E3 		msr     CPSR_c, #0x1F
 157              	@ 0 "" 2
 158              		.loc 1 133 0
 159              		.arm
 160              		.syntax unified
 161 0024 1080BDE8 		pop	{r4, pc}
 162              		.cfi_endproc
 163              	.LFE10:
 164              		.size	spiStop, .-spiStop
 165              		.section	.text.spiSelect,"ax",%progbits
 166              		.align	2
 167              		.global	spiSelect
 168              		.syntax unified
 169              		.arm
 170              		.fpu softvfp
 171              		.type	spiSelect, %function
ARM GAS  /var/folders/3j/4xdnk5197cv_b7cw3n33qk7r0000gn/T//ccXtcaer.s 			page 4


 172              	spiSelect:
 173              	.LFB11:
 174              		.loc 1 142 0
 175              		.cfi_startproc
 176              		@ args = 0, pretend = 0, frame = 0
 177              		@ frame_needed = 0, uses_anonymous_args = 0
 178              	.LVL9:
 179 0000 10402DE9 		push	{r4, lr}
 180              		.cfi_def_cfa_offset 8
 181              		.cfi_offset 4, -8
 182              		.cfi_offset 14, -4
 183              		.loc 1 146 0
 184              		.syntax divided
 185              	@ 146 "..//os/hal/src/spi.c" 1
 186 0004 9FF021E3 		msr     CPSR_c, #0x9F
 187              	@ 0 "" 2
 188              		.loc 1 148 0
 189              		.arm
 190              		.syntax unified
 191 0008 FEFFFFEB 		bl	spi_lld_select
 192              	.LVL10:
 193              		.loc 1 149 0
 194              		.syntax divided
 195              	@ 149 "..//os/hal/src/spi.c" 1
 196 000c 1FF021E3 		msr     CPSR_c, #0x1F
 197              	@ 0 "" 2
 198              		.loc 1 150 0
 199              		.arm
 200              		.syntax unified
 201 0010 1080BDE8 		pop	{r4, pc}
 202              		.cfi_endproc
 203              	.LFE11:
 204              		.size	spiSelect, .-spiSelect
 205              		.section	.text.spiUnselect,"ax",%progbits
 206              		.align	2
 207              		.global	spiUnselect
 208              		.syntax unified
 209              		.arm
 210              		.fpu softvfp
 211              		.type	spiUnselect, %function
 212              	spiUnselect:
 213              	.LFB12:
 214              		.loc 1 160 0
 215              		.cfi_startproc
 216              		@ args = 0, pretend = 0, frame = 0
 217              		@ frame_needed = 0, uses_anonymous_args = 0
 218              	.LVL11:
 219 0000 10402DE9 		push	{r4, lr}
 220              		.cfi_def_cfa_offset 8
 221              		.cfi_offset 4, -8
 222              		.cfi_offset 14, -4
 223              		.loc 1 164 0
 224              		.syntax divided
 225              	@ 164 "..//os/hal/src/spi.c" 1
 226 0004 9FF021E3 		msr     CPSR_c, #0x9F
 227              	@ 0 "" 2
 228              		.loc 1 166 0
ARM GAS  /var/folders/3j/4xdnk5197cv_b7cw3n33qk7r0000gn/T//ccXtcaer.s 			page 5


 229              		.arm
 230              		.syntax unified
 231 0008 FEFFFFEB 		bl	spi_lld_unselect
 232              	.LVL12:
 233              		.loc 1 167 0
 234              		.syntax divided
 235              	@ 167 "..//os/hal/src/spi.c" 1
 236 000c 1FF021E3 		msr     CPSR_c, #0x1F
 237              	@ 0 "" 2
 238              		.loc 1 168 0
 239              		.arm
 240              		.syntax unified
 241 0010 1080BDE8 		pop	{r4, pc}
 242              		.cfi_endproc
 243              	.LFE12:
 244              		.size	spiUnselect, .-spiUnselect
 245              		.section	.text.spiStartIgnore,"ax",%progbits
 246              		.align	2
 247              		.global	spiStartIgnore
 248              		.syntax unified
 249              		.arm
 250              		.fpu softvfp
 251              		.type	spiStartIgnore, %function
 252              	spiStartIgnore:
 253              	.LFB13:
 254              		.loc 1 183 0
 255              		.cfi_startproc
 256              		@ args = 0, pretend = 0, frame = 0
 257              		@ frame_needed = 0, uses_anonymous_args = 0
 258              	.LVL13:
 259 0000 10402DE9 		push	{r4, lr}
 260              		.cfi_def_cfa_offset 8
 261              		.cfi_offset 4, -8
 262              		.cfi_offset 14, -4
 263              		.loc 1 187 0
 264              		.syntax divided
 265              	@ 187 "..//os/hal/src/spi.c" 1
 266 0004 9FF021E3 		msr     CPSR_c, #0x9F
 267              	@ 0 "" 2
 268              		.loc 1 189 0
 269              		.arm
 270              		.syntax unified
 271 0008 0320A0E3 		mov	r2, #3
 272 000c 0020C0E5 		strb	r2, [r0]
 273 0010 FEFFFFEB 		bl	spi_lld_ignore
 274              	.LVL14:
 275              		.loc 1 190 0
 276              		.syntax divided
 277              	@ 190 "..//os/hal/src/spi.c" 1
 278 0014 1FF021E3 		msr     CPSR_c, #0x1F
 279              	@ 0 "" 2
 280              		.loc 1 191 0
 281              		.arm
 282              		.syntax unified
 283 0018 1080BDE8 		pop	{r4, pc}
 284              		.cfi_endproc
 285              	.LFE13:
ARM GAS  /var/folders/3j/4xdnk5197cv_b7cw3n33qk7r0000gn/T//ccXtcaer.s 			page 6


 286              		.size	spiStartIgnore, .-spiStartIgnore
 287              		.section	.text.spiStartExchange,"ax",%progbits
 288              		.align	2
 289              		.global	spiStartExchange
 290              		.syntax unified
 291              		.arm
 292              		.fpu softvfp
 293              		.type	spiStartExchange, %function
 294              	spiStartExchange:
 295              	.LFB14:
 296              		.loc 1 211 0
 297              		.cfi_startproc
 298              		@ args = 0, pretend = 0, frame = 0
 299              		@ frame_needed = 0, uses_anonymous_args = 0
 300              	.LVL15:
 301 0000 10402DE9 		push	{r4, lr}
 302              		.cfi_def_cfa_offset 8
 303              		.cfi_offset 4, -8
 304              		.cfi_offset 14, -4
 305              		.loc 1 216 0
 306              		.syntax divided
 307              	@ 216 "..//os/hal/src/spi.c" 1
 308 0004 9FF021E3 		msr     CPSR_c, #0x9F
 309              	@ 0 "" 2
 310              		.loc 1 218 0
 311              		.arm
 312              		.syntax unified
 313 0008 03E0A0E3 		mov	lr, #3
 314 000c 00E0C0E5 		strb	lr, [r0]
 315 0010 FEFFFFEB 		bl	spi_lld_exchange
 316              	.LVL16:
 317              		.loc 1 219 0
 318              		.syntax divided
 319              	@ 219 "..//os/hal/src/spi.c" 1
 320 0014 1FF021E3 		msr     CPSR_c, #0x1F
 321              	@ 0 "" 2
 322              		.loc 1 220 0
 323              		.arm
 324              		.syntax unified
 325 0018 1080BDE8 		pop	{r4, pc}
 326              		.cfi_endproc
 327              	.LFE14:
 328              		.size	spiStartExchange, .-spiStartExchange
 329              		.section	.text.spiStartSend,"ax",%progbits
 330              		.align	2
 331              		.global	spiStartSend
 332              		.syntax unified
 333              		.arm
 334              		.fpu softvfp
 335              		.type	spiStartSend, %function
 336              	spiStartSend:
 337              	.LFB15:
 338              		.loc 1 237 0
 339              		.cfi_startproc
 340              		@ args = 0, pretend = 0, frame = 0
 341              		@ frame_needed = 0, uses_anonymous_args = 0
 342              	.LVL17:
ARM GAS  /var/folders/3j/4xdnk5197cv_b7cw3n33qk7r0000gn/T//ccXtcaer.s 			page 7


 343 0000 10402DE9 		push	{r4, lr}
 344              		.cfi_def_cfa_offset 8
 345              		.cfi_offset 4, -8
 346              		.cfi_offset 14, -4
 347              		.loc 1 242 0
 348              		.syntax divided
 349              	@ 242 "..//os/hal/src/spi.c" 1
 350 0004 9FF021E3 		msr     CPSR_c, #0x9F
 351              	@ 0 "" 2
 352              		.loc 1 244 0
 353              		.arm
 354              		.syntax unified
 355 0008 03C0A0E3 		mov	ip, #3
 356 000c 00C0C0E5 		strb	ip, [r0]
 357 0010 FEFFFFEB 		bl	spi_lld_send
 358              	.LVL18:
 359              		.loc 1 245 0
 360              		.syntax divided
 361              	@ 245 "..//os/hal/src/spi.c" 1
 362 0014 1FF021E3 		msr     CPSR_c, #0x1F
 363              	@ 0 "" 2
 364              		.loc 1 246 0
 365              		.arm
 366              		.syntax unified
 367 0018 1080BDE8 		pop	{r4, pc}
 368              		.cfi_endproc
 369              	.LFE15:
 370              		.size	spiStartSend, .-spiStartSend
 371              		.section	.text.spiStartReceive,"ax",%progbits
 372              		.align	2
 373              		.global	spiStartReceive
 374              		.syntax unified
 375              		.arm
 376              		.fpu softvfp
 377              		.type	spiStartReceive, %function
 378              	spiStartReceive:
 379              	.LFB16:
 380              		.loc 1 263 0
 381              		.cfi_startproc
 382              		@ args = 0, pretend = 0, frame = 0
 383              		@ frame_needed = 0, uses_anonymous_args = 0
 384              	.LVL19:
 385 0000 10402DE9 		push	{r4, lr}
 386              		.cfi_def_cfa_offset 8
 387              		.cfi_offset 4, -8
 388              		.cfi_offset 14, -4
 389              		.loc 1 268 0
 390              		.syntax divided
 391              	@ 268 "..//os/hal/src/spi.c" 1
 392 0004 9FF021E3 		msr     CPSR_c, #0x9F
 393              	@ 0 "" 2
 394              		.loc 1 270 0
 395              		.arm
 396              		.syntax unified
 397 0008 03C0A0E3 		mov	ip, #3
 398 000c 00C0C0E5 		strb	ip, [r0]
 399 0010 FEFFFFEB 		bl	spi_lld_receive
ARM GAS  /var/folders/3j/4xdnk5197cv_b7cw3n33qk7r0000gn/T//ccXtcaer.s 			page 8


 400              	.LVL20:
 401              		.loc 1 271 0
 402              		.syntax divided
 403              	@ 271 "..//os/hal/src/spi.c" 1
 404 0014 1FF021E3 		msr     CPSR_c, #0x1F
 405              	@ 0 "" 2
 406              		.loc 1 272 0
 407              		.arm
 408              		.syntax unified
 409 0018 1080BDE8 		pop	{r4, pc}
 410              		.cfi_endproc
 411              	.LFE16:
 412              		.size	spiStartReceive, .-spiStartReceive
 413              		.section	.text.spiIgnore,"ax",%progbits
 414              		.align	2
 415              		.global	spiIgnore
 416              		.syntax unified
 417              		.arm
 418              		.fpu softvfp
 419              		.type	spiIgnore, %function
 420              	spiIgnore:
 421              	.LFB17:
 422              		.loc 1 289 0
 423              		.cfi_startproc
 424              		@ args = 0, pretend = 0, frame = 0
 425              		@ frame_needed = 0, uses_anonymous_args = 0
 426              	.LVL21:
 427 0000 10402DE9 		push	{r4, lr}
 428              		.cfi_def_cfa_offset 8
 429              		.cfi_offset 4, -8
 430              		.cfi_offset 14, -4
 431              		.loc 1 289 0
 432 0004 0040A0E1 		mov	r4, r0
 433              		.loc 1 293 0
 434              		.syntax divided
 435              	@ 293 "..//os/hal/src/spi.c" 1
 436 0008 9FF021E3 		msr     CPSR_c, #0x9F
 437              	@ 0 "" 2
 438              		.loc 1 296 0
 439              		.arm
 440              		.syntax unified
 441 000c 0330A0E3 		mov	r3, #3
 442 0010 0030C0E5 		strb	r3, [r0]
 443 0014 FEFFFFEB 		bl	spi_lld_ignore
 444              	.LVL22:
 445              		.loc 1 297 0
 446 0018 14309FE5 		ldr	r3, .L22
 447 001c 0200A0E3 		mov	r0, #2
 448 0020 183093E5 		ldr	r3, [r3, #24]
 449 0024 083084E5 		str	r3, [r4, #8]
 450 0028 FEFFFFEB 		bl	chSchGoSleepS
 451              	.LVL23:
 452              		.loc 1 298 0
 453              		.syntax divided
 454              	@ 298 "..//os/hal/src/spi.c" 1
 455 002c 1FF021E3 		msr     CPSR_c, #0x1F
 456              	@ 0 "" 2
ARM GAS  /var/folders/3j/4xdnk5197cv_b7cw3n33qk7r0000gn/T//ccXtcaer.s 			page 9


 457              		.loc 1 299 0
 458              		.arm
 459              		.syntax unified
 460 0030 1080BDE8 		pop	{r4, pc}
 461              	.L23:
 462              		.align	2
 463              	.L22:
 464 0034 00000000 		.word	rlist
 465              		.cfi_endproc
 466              	.LFE17:
 467              		.size	spiIgnore, .-spiIgnore
 468              		.section	.text.spiExchange,"ax",%progbits
 469              		.align	2
 470              		.global	spiExchange
 471              		.syntax unified
 472              		.arm
 473              		.fpu softvfp
 474              		.type	spiExchange, %function
 475              	spiExchange:
 476              	.LFB18:
 477              		.loc 1 320 0
 478              		.cfi_startproc
 479              		@ args = 0, pretend = 0, frame = 0
 480              		@ frame_needed = 0, uses_anonymous_args = 0
 481              	.LVL24:
 482 0000 10402DE9 		push	{r4, lr}
 483              		.cfi_def_cfa_offset 8
 484              		.cfi_offset 4, -8
 485              		.cfi_offset 14, -4
 486              		.loc 1 320 0
 487 0004 0040A0E1 		mov	r4, r0
 488              		.loc 1 325 0
 489              		.syntax divided
 490              	@ 325 "..//os/hal/src/spi.c" 1
 491 0008 9FF021E3 		msr     CPSR_c, #0x9F
 492              	@ 0 "" 2
 493              		.loc 1 329 0
 494              		.arm
 495              		.syntax unified
 496 000c 03C0A0E3 		mov	ip, #3
 497 0010 00C0C0E5 		strb	ip, [r0]
 498 0014 FEFFFFEB 		bl	spi_lld_exchange
 499              	.LVL25:
 500              		.loc 1 330 0
 501 0018 14309FE5 		ldr	r3, .L26
 502 001c 0200A0E3 		mov	r0, #2
 503 0020 183093E5 		ldr	r3, [r3, #24]
 504 0024 083084E5 		str	r3, [r4, #8]
 505 0028 FEFFFFEB 		bl	chSchGoSleepS
 506              	.LVL26:
 507              		.loc 1 331 0
 508              		.syntax divided
 509              	@ 331 "..//os/hal/src/spi.c" 1
 510 002c 1FF021E3 		msr     CPSR_c, #0x1F
 511              	@ 0 "" 2
 512              		.loc 1 332 0
 513              		.arm
ARM GAS  /var/folders/3j/4xdnk5197cv_b7cw3n33qk7r0000gn/T//ccXtcaer.s 			page 10


 514              		.syntax unified
 515 0030 1080BDE8 		pop	{r4, pc}
 516              	.L27:
 517              		.align	2
 518              	.L26:
 519 0034 00000000 		.word	rlist
 520              		.cfi_endproc
 521              	.LFE18:
 522              		.size	spiExchange, .-spiExchange
 523              		.section	.text.spiSend,"ax",%progbits
 524              		.align	2
 525              		.global	spiSend
 526              		.syntax unified
 527              		.arm
 528              		.fpu softvfp
 529              		.type	spiSend, %function
 530              	spiSend:
 531              	.LFB19:
 532              		.loc 1 350 0
 533              		.cfi_startproc
 534              		@ args = 0, pretend = 0, frame = 0
 535              		@ frame_needed = 0, uses_anonymous_args = 0
 536              	.LVL27:
 537 0000 10402DE9 		push	{r4, lr}
 538              		.cfi_def_cfa_offset 8
 539              		.cfi_offset 4, -8
 540              		.cfi_offset 14, -4
 541              		.loc 1 350 0
 542 0004 0040A0E1 		mov	r4, r0
 543              		.loc 1 354 0
 544              		.syntax divided
 545              	@ 354 "..//os/hal/src/spi.c" 1
 546 0008 9FF021E3 		msr     CPSR_c, #0x9F
 547              	@ 0 "" 2
 548              		.loc 1 357 0
 549              		.arm
 550              		.syntax unified
 551 000c 0330A0E3 		mov	r3, #3
 552 0010 0030C0E5 		strb	r3, [r0]
 553 0014 FEFFFFEB 		bl	spi_lld_send
 554              	.LVL28:
 555              		.loc 1 358 0
 556 0018 14309FE5 		ldr	r3, .L30
 557 001c 0200A0E3 		mov	r0, #2
 558 0020 183093E5 		ldr	r3, [r3, #24]
 559 0024 083084E5 		str	r3, [r4, #8]
 560 0028 FEFFFFEB 		bl	chSchGoSleepS
 561              	.LVL29:
 562              		.loc 1 359 0
 563              		.syntax divided
 564              	@ 359 "..//os/hal/src/spi.c" 1
 565 002c 1FF021E3 		msr     CPSR_c, #0x1F
 566              	@ 0 "" 2
 567              		.loc 1 360 0
 568              		.arm
 569              		.syntax unified
 570 0030 1080BDE8 		pop	{r4, pc}
ARM GAS  /var/folders/3j/4xdnk5197cv_b7cw3n33qk7r0000gn/T//ccXtcaer.s 			page 11


 571              	.L31:
 572              		.align	2
 573              	.L30:
 574 0034 00000000 		.word	rlist
 575              		.cfi_endproc
 576              	.LFE19:
 577              		.size	spiSend, .-spiSend
 578              		.section	.text.spiReceive,"ax",%progbits
 579              		.align	2
 580              		.global	spiReceive
 581              		.syntax unified
 582              		.arm
 583              		.fpu softvfp
 584              		.type	spiReceive, %function
 585              	spiReceive:
 586              	.LFB20:
 587              		.loc 1 378 0
 588              		.cfi_startproc
 589              		@ args = 0, pretend = 0, frame = 0
 590              		@ frame_needed = 0, uses_anonymous_args = 0
 591              	.LVL30:
 592 0000 10402DE9 		push	{r4, lr}
 593              		.cfi_def_cfa_offset 8
 594              		.cfi_offset 4, -8
 595              		.cfi_offset 14, -4
 596              		.loc 1 378 0
 597 0004 0040A0E1 		mov	r4, r0
 598              		.loc 1 383 0
 599              		.syntax divided
 600              	@ 383 "..//os/hal/src/spi.c" 1
 601 0008 9FF021E3 		msr     CPSR_c, #0x9F
 602              	@ 0 "" 2
 603              		.loc 1 387 0
 604              		.arm
 605              		.syntax unified
 606 000c 0330A0E3 		mov	r3, #3
 607 0010 0030C0E5 		strb	r3, [r0]
 608 0014 FEFFFFEB 		bl	spi_lld_receive
 609              	.LVL31:
 610              		.loc 1 388 0
 611 0018 14309FE5 		ldr	r3, .L34
 612 001c 0200A0E3 		mov	r0, #2
 613 0020 183093E5 		ldr	r3, [r3, #24]
 614 0024 083084E5 		str	r3, [r4, #8]
 615 0028 FEFFFFEB 		bl	chSchGoSleepS
 616              	.LVL32:
 617              		.loc 1 389 0
 618              		.syntax divided
 619              	@ 389 "..//os/hal/src/spi.c" 1
 620 002c 1FF021E3 		msr     CPSR_c, #0x1F
 621              	@ 0 "" 2
 622              		.loc 1 390 0
 623              		.arm
 624              		.syntax unified
 625 0030 1080BDE8 		pop	{r4, pc}
 626              	.L35:
 627              		.align	2
ARM GAS  /var/folders/3j/4xdnk5197cv_b7cw3n33qk7r0000gn/T//ccXtcaer.s 			page 12


 628              	.L34:
 629 0034 00000000 		.word	rlist
 630              		.cfi_endproc
 631              	.LFE20:
 632              		.size	spiReceive, .-spiReceive
 633              		.section	.text.spiAcquireBus,"ax",%progbits
 634              		.align	2
 635              		.global	spiAcquireBus
 636              		.syntax unified
 637              		.arm
 638              		.fpu softvfp
 639              		.type	spiAcquireBus, %function
 640              	spiAcquireBus:
 641              	.LFB21:
 642              		.loc 1 405 0
 643              		.cfi_startproc
 644              		@ args = 0, pretend = 0, frame = 0
 645              		@ frame_needed = 0, uses_anonymous_args = 0
 646              		@ link register save eliminated.
 647              	.LVL33:
 648              		.loc 1 410 0
 649 0000 0C0080E2 		add	r0, r0, #12
 650              	.LVL34:
 651 0004 FEFFFFEA 		b	chMtxLock
 652              	.LVL35:
 653              		.cfi_endproc
 654              	.LFE21:
 655              		.size	spiAcquireBus, .-spiAcquireBus
 656              		.section	.text.spiReleaseBus,"ax",%progbits
 657              		.align	2
 658              		.global	spiReleaseBus
 659              		.syntax unified
 660              		.arm
 661              		.fpu softvfp
 662              		.type	spiReleaseBus, %function
 663              	spiReleaseBus:
 664              	.LFB22:
 665              		.loc 1 425 0
 666              		.cfi_startproc
 667              		@ args = 0, pretend = 0, frame = 0
 668              		@ frame_needed = 0, uses_anonymous_args = 0
 669              		@ link register save eliminated.
 670              	.LVL36:
 671              		.loc 1 431 0
 672 0000 FEFFFFEA 		b	chMtxUnlock
 673              	.LVL37:
 674              		.cfi_endproc
 675              	.LFE22:
 676              		.size	spiReleaseBus, .-spiReleaseBus
 677              		.text
 678              	.Letext0:
 679              		.file 2 "/usr/local/Cellar/gcc-arm-none-eabi/20180627/lib/gcc/arm-none-eabi/7.3.1/include/stddef.h
 680              		.file 3 "/usr/local/Cellar/gcc-arm-none-eabi/20180627/arm-none-eabi/include/machine/_default_types
 681              		.file 4 "/usr/local/Cellar/gcc-arm-none-eabi/20180627/arm-none-eabi/include/sys/_stdint.h"
 682              		.file 5 "..//os/ports/GCC/ARM/chtypes.h"
 683              		.file 6 "..//os/kernel/include/chlists.h"
 684              		.file 7 "..//os/kernel/include/chthreads.h"
ARM GAS  /var/folders/3j/4xdnk5197cv_b7cw3n33qk7r0000gn/T//ccXtcaer.s 			page 13


 685              		.file 8 "..//os/ports/GCC/ARM/chcore.h"
 686              		.file 9 "..//os/kernel/include/chvt.h"
 687              		.file 10 "..//os/kernel/include/chschd.h"
 688              		.file 11 "..//os/kernel/include/chmtx.h"
 689              		.file 12 "..//os/kernel/include/chevents.h"
 690              		.file 13 "..//os/kernel/include/chregistry.h"
 691              		.file 14 "..//os/kernel/include/chqueues.h"
 692              		.file 15 "..//os/kernel/include/ch.h"
 693              		.file 16 "..//os/hal/platforms/BCM2835/bcm2835.h"
 694              		.file 17 "..//os/hal/platforms/BCM2835/pal_lld.h"
 695              		.file 18 "..//os/hal/include/i2c.h"
 696              		.file 19 "..//os/hal/platforms/BCM2835/i2c_lld.h"
 697              		.file 20 "..//os/hal/include/serial.h"
 698              		.file 21 "..//os/hal/include/spi.h"
 699              		.file 22 "..//os/hal/platforms/BCM2835/spi_lld.h"
 700              		.file 23 "..//os/hal/platforms/BCM2835/serial_lld.h"
 701              		.section	.debug_info,"",%progbits
 702              	.Ldebug_info0:
 703 0000 CA120000 		.4byte	0x12ca
 704 0004 0400     		.2byte	0x4
 705 0006 00000000 		.4byte	.Ldebug_abbrev0
 706 000a 04       		.byte	0x4
 707 000b 01       		.uleb128 0x1
 708 000c BB010000 		.4byte	.LASF231
 709 0010 0C       		.byte	0xc
 710 0011 FD070000 		.4byte	.LASF232
 711 0015 00000000 		.4byte	.LASF233
 712 0019 00000000 		.4byte	.Ldebug_ranges0+0
 713 001d 00000000 		.4byte	0
 714 0021 00000000 		.4byte	.Ldebug_line0
 715 0025 02       		.uleb128 0x2
 716 0026 04       		.byte	0x4
 717 0027 05       		.byte	0x5
 718 0028 696E7400 		.ascii	"int\000"
 719 002c 03       		.uleb128 0x3
 720 002d 66000000 		.4byte	.LASF2
 721 0031 02       		.byte	0x2
 722 0032 D8       		.byte	0xd8
 723 0033 37000000 		.4byte	0x37
 724 0037 04       		.uleb128 0x4
 725 0038 04       		.byte	0x4
 726 0039 07       		.byte	0x7
 727 003a CF030000 		.4byte	.LASF0
 728 003e 05       		.uleb128 0x5
 729 003f 37000000 		.4byte	0x37
 730 0043 04       		.uleb128 0x4
 731 0044 01       		.byte	0x1
 732 0045 06       		.byte	0x6
 733 0046 67010000 		.4byte	.LASF1
 734 004a 03       		.uleb128 0x3
 735 004b 86000000 		.4byte	.LASF3
 736 004f 03       		.byte	0x3
 737 0050 2B       		.byte	0x2b
 738 0051 55000000 		.4byte	0x55
 739 0055 04       		.uleb128 0x4
 740 0056 01       		.byte	0x1
 741 0057 08       		.byte	0x8
ARM GAS  /var/folders/3j/4xdnk5197cv_b7cw3n33qk7r0000gn/T//ccXtcaer.s 			page 14


 742 0058 BF060000 		.4byte	.LASF4
 743 005c 04       		.uleb128 0x4
 744 005d 02       		.byte	0x2
 745 005e 05       		.byte	0x5
 746 005f EC060000 		.4byte	.LASF5
 747 0063 03       		.uleb128 0x3
 748 0064 26080000 		.4byte	.LASF6
 749 0068 03       		.byte	0x3
 750 0069 39       		.byte	0x39
 751 006a 6E000000 		.4byte	0x6e
 752 006e 04       		.uleb128 0x4
 753 006f 02       		.byte	0x2
 754 0070 07       		.byte	0x7
 755 0071 6D040000 		.4byte	.LASF7
 756 0075 03       		.uleb128 0x3
 757 0076 67080000 		.4byte	.LASF8
 758 007a 03       		.byte	0x3
 759 007b 4D       		.byte	0x4d
 760 007c 80000000 		.4byte	0x80
 761 0080 04       		.uleb128 0x4
 762 0081 04       		.byte	0x4
 763 0082 05       		.byte	0x5
 764 0083 89020000 		.4byte	.LASF9
 765 0087 03       		.uleb128 0x3
 766 0088 65030000 		.4byte	.LASF10
 767 008c 03       		.byte	0x3
 768 008d 4F       		.byte	0x4f
 769 008e 92000000 		.4byte	0x92
 770 0092 04       		.uleb128 0x4
 771 0093 04       		.byte	0x4
 772 0094 07       		.byte	0x7
 773 0095 13040000 		.4byte	.LASF11
 774 0099 04       		.uleb128 0x4
 775 009a 08       		.byte	0x8
 776 009b 05       		.byte	0x5
 777 009c 59010000 		.4byte	.LASF12
 778 00a0 04       		.uleb128 0x4
 779 00a1 08       		.byte	0x8
 780 00a2 07       		.byte	0x7
 781 00a3 C2000000 		.4byte	.LASF13
 782 00a7 03       		.uleb128 0x3
 783 00a8 6C090000 		.4byte	.LASF14
 784 00ac 04       		.byte	0x4
 785 00ad 18       		.byte	0x18
 786 00ae 4A000000 		.4byte	0x4a
 787 00b2 06       		.uleb128 0x6
 788 00b3 A7000000 		.4byte	0xa7
 789 00b7 03       		.uleb128 0x3
 790 00b8 CB020000 		.4byte	.LASF15
 791 00bc 04       		.byte	0x4
 792 00bd 24       		.byte	0x24
 793 00be 63000000 		.4byte	0x63
 794 00c2 03       		.uleb128 0x3
 795 00c3 B7060000 		.4byte	.LASF16
 796 00c7 04       		.byte	0x4
 797 00c8 2C       		.byte	0x2c
 798 00c9 75000000 		.4byte	0x75
ARM GAS  /var/folders/3j/4xdnk5197cv_b7cw3n33qk7r0000gn/T//ccXtcaer.s 			page 15


 799 00cd 03       		.uleb128 0x3
 800 00ce B2070000 		.4byte	.LASF17
 801 00d2 04       		.byte	0x4
 802 00d3 30       		.byte	0x30
 803 00d4 87000000 		.4byte	0x87
 804 00d8 05       		.uleb128 0x5
 805 00d9 CD000000 		.4byte	0xcd
 806 00dd 03       		.uleb128 0x3
 807 00de C7040000 		.4byte	.LASF18
 808 00e2 05       		.byte	0x5
 809 00e3 2A       		.byte	0x2a
 810 00e4 A7000000 		.4byte	0xa7
 811 00e8 03       		.uleb128 0x3
 812 00e9 92020000 		.4byte	.LASF19
 813 00ed 05       		.byte	0x5
 814 00ee 2B       		.byte	0x2b
 815 00ef A7000000 		.4byte	0xa7
 816 00f3 03       		.uleb128 0x3
 817 00f4 5F060000 		.4byte	.LASF20
 818 00f8 05       		.byte	0x5
 819 00f9 2C       		.byte	0x2c
 820 00fa A7000000 		.4byte	0xa7
 821 00fe 03       		.uleb128 0x3
 822 00ff E9070000 		.4byte	.LASF21
 823 0103 05       		.byte	0x5
 824 0104 2D       		.byte	0x2d
 825 0105 A7000000 		.4byte	0xa7
 826 0109 03       		.uleb128 0x3
 827 010a 96060000 		.4byte	.LASF22
 828 010e 05       		.byte	0x5
 829 010f 2E       		.byte	0x2e
 830 0110 CD000000 		.4byte	0xcd
 831 0114 03       		.uleb128 0x3
 832 0115 92040000 		.4byte	.LASF23
 833 0119 05       		.byte	0x5
 834 011a 2F       		.byte	0x2f
 835 011b C2000000 		.4byte	0xc2
 836 011f 03       		.uleb128 0x3
 837 0120 E7040000 		.4byte	.LASF24
 838 0124 05       		.byte	0x5
 839 0125 31       		.byte	0x31
 840 0126 CD000000 		.4byte	0xcd
 841 012a 03       		.uleb128 0x3
 842 012b 14090000 		.4byte	.LASF25
 843 012f 05       		.byte	0x5
 844 0130 32       		.byte	0x32
 845 0131 CD000000 		.4byte	0xcd
 846 0135 03       		.uleb128 0x3
 847 0136 52080000 		.4byte	.LASF26
 848 013a 05       		.byte	0x5
 849 013b 33       		.byte	0x33
 850 013c CD000000 		.4byte	0xcd
 851 0140 05       		.uleb128 0x5
 852 0141 35010000 		.4byte	0x135
 853 0145 03       		.uleb128 0x3
 854 0146 62070000 		.4byte	.LASF27
 855 014a 06       		.byte	0x6
ARM GAS  /var/folders/3j/4xdnk5197cv_b7cw3n33qk7r0000gn/T//ccXtcaer.s 			page 16


 856 014b 23       		.byte	0x23
 857 014c 50010000 		.4byte	0x150
 858 0150 07       		.uleb128 0x7
 859 0151 62070000 		.4byte	.LASF27
 860 0155 44       		.byte	0x44
 861 0156 07       		.byte	0x7
 862 0157 57       		.byte	0x57
 863 0158 41020000 		.4byte	0x241
 864 015c 08       		.uleb128 0x8
 865 015d 2B070000 		.4byte	.LASF28
 866 0161 07       		.byte	0x7
 867 0162 58       		.byte	0x58
 868 0163 62020000 		.4byte	0x262
 869 0167 00       		.byte	0
 870 0168 08       		.uleb128 0x8
 871 0169 87060000 		.4byte	.LASF29
 872 016d 07       		.byte	0x7
 873 016e 5A       		.byte	0x5a
 874 016f 62020000 		.4byte	0x262
 875 0173 04       		.byte	0x4
 876 0174 08       		.uleb128 0x8
 877 0175 2E010000 		.4byte	.LASF30
 878 0179 07       		.byte	0x7
 879 017a 5C       		.byte	0x5c
 880 017b 09010000 		.4byte	0x109
 881 017f 08       		.byte	0x8
 882 0180 08       		.uleb128 0x8
 883 0181 0F0A0000 		.4byte	.LASF31
 884 0185 07       		.byte	0x7
 885 0186 5D       		.byte	0x5d
 886 0187 1D030000 		.4byte	0x31d
 887 018b 0C       		.byte	0xc
 888 018c 08       		.uleb128 0x8
 889 018d 0C030000 		.4byte	.LASF32
 890 0191 07       		.byte	0x7
 891 0192 5F       		.byte	0x5f
 892 0193 62020000 		.4byte	0x262
 893 0197 10       		.byte	0x10
 894 0198 08       		.uleb128 0x8
 895 0199 D3050000 		.4byte	.LASF33
 896 019d 07       		.byte	0x7
 897 019e 60       		.byte	0x60
 898 019f 62020000 		.4byte	0x262
 899 01a3 14       		.byte	0x14
 900 01a4 08       		.uleb128 0x8
 901 01a5 94090000 		.4byte	.LASF34
 902 01a9 07       		.byte	0x7
 903 01aa 67       		.byte	0x67
 904 01ab 51050000 		.4byte	0x551
 905 01af 18       		.byte	0x18
 906 01b0 08       		.uleb128 0x8
 907 01b1 F6060000 		.4byte	.LASF35
 908 01b5 07       		.byte	0x7
 909 01b6 72       		.byte	0x72
 910 01b7 E8000000 		.4byte	0xe8
 911 01bb 1C       		.byte	0x1c
 912 01bc 08       		.uleb128 0x8
ARM GAS  /var/folders/3j/4xdnk5197cv_b7cw3n33qk7r0000gn/T//ccXtcaer.s 			page 17


 913 01bd 49070000 		.4byte	.LASF36
 914 01c1 07       		.byte	0x7
 915 01c2 76       		.byte	0x76
 916 01c3 DD000000 		.4byte	0xdd
 917 01c7 1D       		.byte	0x1d
 918 01c8 08       		.uleb128 0x8
 919 01c9 45090000 		.4byte	.LASF37
 920 01cd 07       		.byte	0x7
 921 01ce 7B       		.byte	0x7b
 922 01cf F3000000 		.4byte	0xf3
 923 01d3 1E       		.byte	0x1e
 924 01d4 08       		.uleb128 0x8
 925 01d5 FE060000 		.4byte	.LASF38
 926 01d9 07       		.byte	0x7
 927 01da 81       		.byte	0x81
 928 01db FE000000 		.4byte	0xfe
 929 01df 1F       		.byte	0x1f
 930 01e0 08       		.uleb128 0x8
 931 01e1 AA080000 		.4byte	.LASF39
 932 01e5 07       		.byte	0x7
 933 01e6 88       		.byte	0x88
 934 01e7 40010000 		.4byte	0x140
 935 01eb 20       		.byte	0x20
 936 01ec 09       		.uleb128 0x9
 937 01ed 705F7500 		.ascii	"p_u\000"
 938 01f1 07       		.byte	0x7
 939 01f2 AD       		.byte	0xad
 940 01f3 1C050000 		.4byte	0x51c
 941 01f7 24       		.byte	0x24
 942 01f8 08       		.uleb128 0x8
 943 01f9 150A0000 		.4byte	.LASF40
 944 01fd 07       		.byte	0x7
 945 01fe B2       		.byte	0xb2
 946 01ff 88020000 		.4byte	0x288
 947 0203 28       		.byte	0x28
 948 0204 08       		.uleb128 0x8
 949 0205 DA080000 		.4byte	.LASF41
 950 0209 07       		.byte	0x7
 951 020a B8       		.byte	0xb8
 952 020b 68020000 		.4byte	0x268
 953 020f 2C       		.byte	0x2c
 954 0210 08       		.uleb128 0x8
 955 0211 60000000 		.4byte	.LASF42
 956 0215 07       		.byte	0x7
 957 0216 BC       		.byte	0xbc
 958 0217 14010000 		.4byte	0x114
 959 021b 34       		.byte	0x34
 960 021c 08       		.uleb128 0x8
 961 021d 9D070000 		.4byte	.LASF43
 962 0221 07       		.byte	0x7
 963 0222 C2       		.byte	0xc2
 964 0223 1F010000 		.4byte	0x11f
 965 0227 38       		.byte	0x38
 966 0228 08       		.uleb128 0x8
 967 0229 E2060000 		.4byte	.LASF44
 968 022d 07       		.byte	0x7
 969 022e C9       		.byte	0xc9
ARM GAS  /var/folders/3j/4xdnk5197cv_b7cw3n33qk7r0000gn/T//ccXtcaer.s 			page 18


 970 022f 63050000 		.4byte	0x563
 971 0233 3C       		.byte	0x3c
 972 0234 08       		.uleb128 0x8
 973 0235 5C080000 		.4byte	.LASF45
 974 0239 07       		.byte	0x7
 975 023a CD       		.byte	0xcd
 976 023b 09010000 		.4byte	0x109
 977 023f 40       		.byte	0x40
 978 0240 00       		.byte	0
 979 0241 0A       		.uleb128 0xa
 980 0242 08       		.byte	0x8
 981 0243 06       		.byte	0x6
 982 0244 5A       		.byte	0x5a
 983 0245 62020000 		.4byte	0x262
 984 0249 08       		.uleb128 0x8
 985 024a 2B070000 		.4byte	.LASF28
 986 024e 06       		.byte	0x6
 987 024f 5B       		.byte	0x5b
 988 0250 62020000 		.4byte	0x262
 989 0254 00       		.byte	0
 990 0255 08       		.uleb128 0x8
 991 0256 87060000 		.4byte	.LASF29
 992 025a 06       		.byte	0x6
 993 025b 5D       		.byte	0x5d
 994 025c 62020000 		.4byte	0x262
 995 0260 04       		.byte	0x4
 996 0261 00       		.byte	0
 997 0262 0B       		.uleb128 0xb
 998 0263 04       		.byte	0x4
 999 0264 45010000 		.4byte	0x145
 1000 0268 03       		.uleb128 0x3
 1001 0269 F1050000 		.4byte	.LASF46
 1002 026d 06       		.byte	0x6
 1003 026e 5F       		.byte	0x5f
 1004 026f 41020000 		.4byte	0x241
 1005 0273 0A       		.uleb128 0xa
 1006 0274 04       		.byte	0x4
 1007 0275 06       		.byte	0x6
 1008 0276 64       		.byte	0x64
 1009 0277 88020000 		.4byte	0x288
 1010 027b 08       		.uleb128 0x8
 1011 027c 2B070000 		.4byte	.LASF28
 1012 0280 06       		.byte	0x6
 1013 0281 66       		.byte	0x66
 1014 0282 62020000 		.4byte	0x262
 1015 0286 00       		.byte	0
 1016 0287 00       		.byte	0
 1017 0288 03       		.uleb128 0x3
 1018 0289 DB040000 		.4byte	.LASF47
 1019 028d 06       		.byte	0x6
 1020 028e 69       		.byte	0x69
 1021 028f 73020000 		.4byte	0x273
 1022 0293 03       		.uleb128 0x3
 1023 0294 1F050000 		.4byte	.LASF48
 1024 0298 08       		.byte	0x8
 1025 0299 9D       		.byte	0x9d
 1026 029a CD000000 		.4byte	0xcd
ARM GAS  /var/folders/3j/4xdnk5197cv_b7cw3n33qk7r0000gn/T//ccXtcaer.s 			page 19


 1027 029e 03       		.uleb128 0x3
 1028 029f 70030000 		.4byte	.LASF49
 1029 02a3 08       		.byte	0x8
 1030 02a4 A2       		.byte	0xa2
 1031 02a5 A9020000 		.4byte	0x2a9
 1032 02a9 0C       		.uleb128 0xc
 1033 02aa 04       		.byte	0x4
 1034 02ab 07       		.uleb128 0x7
 1035 02ac D3080000 		.4byte	.LASF50
 1036 02b0 24       		.byte	0x24
 1037 02b1 08       		.byte	0x8
 1038 02b2 B9       		.byte	0xb9
 1039 02b3 1D030000 		.4byte	0x31d
 1040 02b7 09       		.uleb128 0x9
 1041 02b8 723400   		.ascii	"r4\000"
 1042 02bb 08       		.byte	0x8
 1043 02bc BA       		.byte	0xba
 1044 02bd 9E020000 		.4byte	0x29e
 1045 02c1 00       		.byte	0
 1046 02c2 09       		.uleb128 0x9
 1047 02c3 723500   		.ascii	"r5\000"
 1048 02c6 08       		.byte	0x8
 1049 02c7 BB       		.byte	0xbb
 1050 02c8 9E020000 		.4byte	0x29e
 1051 02cc 04       		.byte	0x4
 1052 02cd 09       		.uleb128 0x9
 1053 02ce 723600   		.ascii	"r6\000"
 1054 02d1 08       		.byte	0x8
 1055 02d2 BC       		.byte	0xbc
 1056 02d3 9E020000 		.4byte	0x29e
 1057 02d7 08       		.byte	0x8
 1058 02d8 09       		.uleb128 0x9
 1059 02d9 723700   		.ascii	"r7\000"
 1060 02dc 08       		.byte	0x8
 1061 02dd BD       		.byte	0xbd
 1062 02de 9E020000 		.4byte	0x29e
 1063 02e2 0C       		.byte	0xc
 1064 02e3 09       		.uleb128 0x9
 1065 02e4 723800   		.ascii	"r8\000"
 1066 02e7 08       		.byte	0x8
 1067 02e8 BE       		.byte	0xbe
 1068 02e9 9E020000 		.4byte	0x29e
 1069 02ed 10       		.byte	0x10
 1070 02ee 09       		.uleb128 0x9
 1071 02ef 723900   		.ascii	"r9\000"
 1072 02f2 08       		.byte	0x8
 1073 02f3 BF       		.byte	0xbf
 1074 02f4 9E020000 		.4byte	0x29e
 1075 02f8 14       		.byte	0x14
 1076 02f9 09       		.uleb128 0x9
 1077 02fa 72313000 		.ascii	"r10\000"
 1078 02fe 08       		.byte	0x8
 1079 02ff C0       		.byte	0xc0
 1080 0300 9E020000 		.4byte	0x29e
 1081 0304 18       		.byte	0x18
 1082 0305 09       		.uleb128 0x9
 1083 0306 72313100 		.ascii	"r11\000"
ARM GAS  /var/folders/3j/4xdnk5197cv_b7cw3n33qk7r0000gn/T//ccXtcaer.s 			page 20


 1084 030a 08       		.byte	0x8
 1085 030b C1       		.byte	0xc1
 1086 030c 9E020000 		.4byte	0x29e
 1087 0310 1C       		.byte	0x1c
 1088 0311 09       		.uleb128 0x9
 1089 0312 6C7200   		.ascii	"lr\000"
 1090 0315 08       		.byte	0x8
 1091 0316 C2       		.byte	0xc2
 1092 0317 9E020000 		.4byte	0x29e
 1093 031b 20       		.byte	0x20
 1094 031c 00       		.byte	0
 1095 031d 07       		.uleb128 0x7
 1096 031e 65040000 		.4byte	.LASF51
 1097 0322 04       		.byte	0x4
 1098 0323 08       		.byte	0x8
 1099 0324 CA       		.byte	0xca
 1100 0325 36030000 		.4byte	0x336
 1101 0329 09       		.uleb128 0x9
 1102 032a 72313300 		.ascii	"r13\000"
 1103 032e 08       		.byte	0x8
 1104 032f CB       		.byte	0xcb
 1105 0330 36030000 		.4byte	0x336
 1106 0334 00       		.byte	0
 1107 0335 00       		.byte	0
 1108 0336 0B       		.uleb128 0xb
 1109 0337 04       		.byte	0x4
 1110 0338 AB020000 		.4byte	0x2ab
 1111 033c 03       		.uleb128 0x3
 1112 033d 33040000 		.4byte	.LASF52
 1113 0341 09       		.byte	0x9
 1114 0342 4E       		.byte	0x4e
 1115 0343 47030000 		.4byte	0x347
 1116 0347 0B       		.uleb128 0xb
 1117 0348 04       		.byte	0x4
 1118 0349 4D030000 		.4byte	0x34d
 1119 034d 0D       		.uleb128 0xd
 1120 034e 58030000 		.4byte	0x358
 1121 0352 0E       		.uleb128 0xe
 1122 0353 A9020000 		.4byte	0x2a9
 1123 0357 00       		.byte	0
 1124 0358 03       		.uleb128 0x3
 1125 0359 CF070000 		.4byte	.LASF53
 1126 035d 09       		.byte	0x9
 1127 035e 53       		.byte	0x53
 1128 035f 63030000 		.4byte	0x363
 1129 0363 07       		.uleb128 0x7
 1130 0364 CF070000 		.4byte	.LASF53
 1131 0368 14       		.byte	0x14
 1132 0369 09       		.byte	0x9
 1133 036a 5A       		.byte	0x5a
 1134 036b AC030000 		.4byte	0x3ac
 1135 036f 08       		.uleb128 0x8
 1136 0370 DC030000 		.4byte	.LASF54
 1137 0374 09       		.byte	0x9
 1138 0375 5B       		.byte	0x5b
 1139 0376 AC030000 		.4byte	0x3ac
 1140 037a 00       		.byte	0
ARM GAS  /var/folders/3j/4xdnk5197cv_b7cw3n33qk7r0000gn/T//ccXtcaer.s 			page 21


 1141 037b 08       		.uleb128 0x8
 1142 037c 79030000 		.4byte	.LASF55
 1143 0380 09       		.byte	0x9
 1144 0381 5D       		.byte	0x5d
 1145 0382 AC030000 		.4byte	0x3ac
 1146 0386 04       		.byte	0x4
 1147 0387 08       		.uleb128 0x8
 1148 0388 5D050000 		.4byte	.LASF56
 1149 038c 09       		.byte	0x9
 1150 038d 5F       		.byte	0x5f
 1151 038e 35010000 		.4byte	0x135
 1152 0392 08       		.byte	0x8
 1153 0393 08       		.uleb128 0x8
 1154 0394 93050000 		.4byte	.LASF57
 1155 0398 09       		.byte	0x9
 1156 0399 60       		.byte	0x60
 1157 039a 3C030000 		.4byte	0x33c
 1158 039e 0C       		.byte	0xc
 1159 039f 08       		.uleb128 0x8
 1160 03a0 03090000 		.4byte	.LASF58
 1161 03a4 09       		.byte	0x9
 1162 03a5 62       		.byte	0x62
 1163 03a6 A9020000 		.4byte	0x2a9
 1164 03aa 10       		.byte	0x10
 1165 03ab 00       		.byte	0
 1166 03ac 0B       		.uleb128 0xb
 1167 03ad 04       		.byte	0x4
 1168 03ae 58030000 		.4byte	0x358
 1169 03b2 0A       		.uleb128 0xa
 1170 03b3 10       		.byte	0x10
 1171 03b4 09       		.byte	0x9
 1172 03b5 6C       		.byte	0x6c
 1173 03b6 EB030000 		.4byte	0x3eb
 1174 03ba 08       		.uleb128 0x8
 1175 03bb DC030000 		.4byte	.LASF54
 1176 03bf 09       		.byte	0x9
 1177 03c0 6D       		.byte	0x6d
 1178 03c1 AC030000 		.4byte	0x3ac
 1179 03c5 00       		.byte	0
 1180 03c6 08       		.uleb128 0x8
 1181 03c7 79030000 		.4byte	.LASF55
 1182 03cb 09       		.byte	0x9
 1183 03cc 6F       		.byte	0x6f
 1184 03cd AC030000 		.4byte	0x3ac
 1185 03d1 04       		.byte	0x4
 1186 03d2 08       		.uleb128 0x8
 1187 03d3 5D050000 		.4byte	.LASF56
 1188 03d7 09       		.byte	0x9
 1189 03d8 71       		.byte	0x71
 1190 03d9 35010000 		.4byte	0x135
 1191 03dd 08       		.byte	0x8
 1192 03de 08       		.uleb128 0x8
 1193 03df 9B090000 		.4byte	.LASF59
 1194 03e3 09       		.byte	0x9
 1195 03e4 72       		.byte	0x72
 1196 03e5 40010000 		.4byte	0x140
 1197 03e9 0C       		.byte	0xc
ARM GAS  /var/folders/3j/4xdnk5197cv_b7cw3n33qk7r0000gn/T//ccXtcaer.s 			page 22


 1198 03ea 00       		.byte	0
 1199 03eb 03       		.uleb128 0x3
 1200 03ec DC090000 		.4byte	.LASF60
 1201 03f0 09       		.byte	0x9
 1202 03f1 73       		.byte	0x73
 1203 03f2 B2030000 		.4byte	0x3b2
 1204 03f6 0F       		.uleb128 0xf
 1205 03f7 9B000000 		.4byte	.LASF68
 1206 03fb 09       		.byte	0x9
 1207 03fc D1       		.byte	0xd1
 1208 03fd EB030000 		.4byte	0x3eb
 1209 0401 0A       		.uleb128 0xa
 1210 0402 1C       		.byte	0x1c
 1211 0403 0A       		.byte	0xa
 1212 0404 57       		.byte	0x57
 1213 0405 52040000 		.4byte	0x452
 1214 0409 08       		.uleb128 0x8
 1215 040a C7070000 		.4byte	.LASF61
 1216 040e 0A       		.byte	0xa
 1217 040f 58       		.byte	0x58
 1218 0410 68020000 		.4byte	0x268
 1219 0414 00       		.byte	0
 1220 0415 08       		.uleb128 0x8
 1221 0416 14070000 		.4byte	.LASF62
 1222 041a 0A       		.byte	0xa
 1223 041b 59       		.byte	0x59
 1224 041c 09010000 		.4byte	0x109
 1225 0420 08       		.byte	0x8
 1226 0421 08       		.uleb128 0x8
 1227 0422 EB050000 		.4byte	.LASF63
 1228 0426 0A       		.byte	0xa
 1229 0427 5B       		.byte	0x5b
 1230 0428 1D030000 		.4byte	0x31d
 1231 042c 0C       		.byte	0xc
 1232 042d 08       		.uleb128 0x8
 1233 042e B0040000 		.4byte	.LASF64
 1234 0432 0A       		.byte	0xa
 1235 0433 5E       		.byte	0x5e
 1236 0434 62020000 		.4byte	0x262
 1237 0438 10       		.byte	0x10
 1238 0439 08       		.uleb128 0x8
 1239 043a 18060000 		.4byte	.LASF65
 1240 043e 0A       		.byte	0xa
 1241 043f 5F       		.byte	0x5f
 1242 0440 62020000 		.4byte	0x262
 1243 0444 14       		.byte	0x14
 1244 0445 08       		.uleb128 0x8
 1245 0446 0E060000 		.4byte	.LASF66
 1246 044a 0A       		.byte	0xa
 1247 044b 62       		.byte	0x62
 1248 044c 62020000 		.4byte	0x262
 1249 0450 18       		.byte	0x18
 1250 0451 00       		.byte	0
 1251 0452 03       		.uleb128 0x3
 1252 0453 53090000 		.4byte	.LASF67
 1253 0457 0A       		.byte	0xa
 1254 0458 64       		.byte	0x64
ARM GAS  /var/folders/3j/4xdnk5197cv_b7cw3n33qk7r0000gn/T//ccXtcaer.s 			page 23


 1255 0459 01040000 		.4byte	0x401
 1256 045d 0F       		.uleb128 0xf
 1257 045e 66090000 		.4byte	.LASF69
 1258 0462 0A       		.byte	0xa
 1259 0463 68       		.byte	0x68
 1260 0464 52040000 		.4byte	0x452
 1261 0468 07       		.uleb128 0x7
 1262 0469 FE040000 		.4byte	.LASF70
 1263 046d 10       		.byte	0x10
 1264 046e 0B       		.byte	0xb
 1265 046f 25       		.byte	0x25
 1266 0470 99040000 		.4byte	0x499
 1267 0474 08       		.uleb128 0x8
 1268 0475 AE010000 		.4byte	.LASF71
 1269 0479 0B       		.byte	0xb
 1270 047a 26       		.byte	0x26
 1271 047b 68020000 		.4byte	0x268
 1272 047f 00       		.byte	0
 1273 0480 08       		.uleb128 0x8
 1274 0481 F4090000 		.4byte	.LASF72
 1275 0485 0B       		.byte	0xb
 1276 0486 28       		.byte	0x28
 1277 0487 62020000 		.4byte	0x262
 1278 048b 08       		.byte	0x8
 1279 048c 08       		.uleb128 0x8
 1280 048d 4B080000 		.4byte	.LASF73
 1281 0491 0B       		.byte	0xb
 1282 0492 2A       		.byte	0x2a
 1283 0493 99040000 		.4byte	0x499
 1284 0497 0C       		.byte	0xc
 1285 0498 00       		.byte	0
 1286 0499 0B       		.uleb128 0xb
 1287 049a 04       		.byte	0x4
 1288 049b 68040000 		.4byte	0x468
 1289 049f 03       		.uleb128 0x3
 1290 04a0 FE040000 		.4byte	.LASF70
 1291 04a4 0B       		.byte	0xb
 1292 04a5 2C       		.byte	0x2c
 1293 04a6 68040000 		.4byte	0x468
 1294 04aa 03       		.uleb128 0x3
 1295 04ab 7F090000 		.4byte	.LASF74
 1296 04af 0C       		.byte	0xc
 1297 04b0 25       		.byte	0x25
 1298 04b1 B5040000 		.4byte	0x4b5
 1299 04b5 07       		.uleb128 0x7
 1300 04b6 7F090000 		.4byte	.LASF74
 1301 04ba 10       		.byte	0x10
 1302 04bb 0C       		.byte	0xc
 1303 04bc 2A       		.byte	0x2a
 1304 04bd F2040000 		.4byte	0x4f2
 1305 04c1 08       		.uleb128 0x8
 1306 04c2 B8040000 		.4byte	.LASF75
 1307 04c6 0C       		.byte	0xc
 1308 04c7 2B       		.byte	0x2b
 1309 04c8 F2040000 		.4byte	0x4f2
 1310 04cc 00       		.byte	0
 1311 04cd 08       		.uleb128 0x8
ARM GAS  /var/folders/3j/4xdnk5197cv_b7cw3n33qk7r0000gn/T//ccXtcaer.s 			page 24


 1312 04ce CD060000 		.4byte	.LASF76
 1313 04d2 0C       		.byte	0xc
 1314 04d3 2E       		.byte	0x2e
 1315 04d4 62020000 		.4byte	0x262
 1316 04d8 04       		.byte	0x4
 1317 04d9 08       		.uleb128 0x8
 1318 04da 20060000 		.4byte	.LASF77
 1319 04de 0C       		.byte	0xc
 1320 04df 30       		.byte	0x30
 1321 04e0 1F010000 		.4byte	0x11f
 1322 04e4 08       		.byte	0x8
 1323 04e5 08       		.uleb128 0x8
 1324 04e6 D9060000 		.4byte	.LASF78
 1325 04ea 0C       		.byte	0xc
 1326 04eb 33       		.byte	0x33
 1327 04ec 2A010000 		.4byte	0x12a
 1328 04f0 0C       		.byte	0xc
 1329 04f1 00       		.byte	0
 1330 04f2 0B       		.uleb128 0xb
 1331 04f3 04       		.byte	0x4
 1332 04f4 AA040000 		.4byte	0x4aa
 1333 04f8 07       		.uleb128 0x7
 1334 04f9 A6030000 		.4byte	.LASF79
 1335 04fd 04       		.byte	0x4
 1336 04fe 0C       		.byte	0xc
 1337 04ff 3A       		.byte	0x3a
 1338 0500 11050000 		.4byte	0x511
 1339 0504 08       		.uleb128 0x8
 1340 0505 A6090000 		.4byte	.LASF80
 1341 0509 0C       		.byte	0xc
 1342 050a 3B       		.byte	0x3b
 1343 050b F2040000 		.4byte	0x4f2
 1344 050f 00       		.byte	0
 1345 0510 00       		.byte	0
 1346 0511 03       		.uleb128 0x3
 1347 0512 A6030000 		.4byte	.LASF79
 1348 0516 0C       		.byte	0xc
 1349 0517 3E       		.byte	0x3e
 1350 0518 F8040000 		.4byte	0x4f8
 1351 051c 10       		.uleb128 0x10
 1352 051d 04       		.byte	0x4
 1353 051e 07       		.byte	0x7
 1354 051f 8F       		.byte	0x8f
 1355 0520 51050000 		.4byte	0x551
 1356 0524 11       		.uleb128 0x11
 1357 0525 6D000000 		.4byte	.LASF81
 1358 0529 07       		.byte	0x7
 1359 052a 96       		.byte	0x96
 1360 052b 14010000 		.4byte	0x114
 1361 052f 11       		.uleb128 0x11
 1362 0530 F8000000 		.4byte	.LASF82
 1363 0534 07       		.byte	0x7
 1364 0535 9D       		.byte	0x9d
 1365 0536 14010000 		.4byte	0x114
 1366 053a 11       		.uleb128 0x11
 1367 053b 8D090000 		.4byte	.LASF83
 1368 053f 07       		.byte	0x7
ARM GAS  /var/folders/3j/4xdnk5197cv_b7cw3n33qk7r0000gn/T//ccXtcaer.s 			page 25


 1369 0540 A4       		.byte	0xa4
 1370 0541 A9020000 		.4byte	0x2a9
 1371 0545 11       		.uleb128 0x11
 1372 0546 24070000 		.4byte	.LASF84
 1373 054a 07       		.byte	0x7
 1374 054b AB       		.byte	0xab
 1375 054c 1F010000 		.4byte	0x11f
 1376 0550 00       		.byte	0
 1377 0551 0B       		.uleb128 0xb
 1378 0552 04       		.byte	0x4
 1379 0553 5E050000 		.4byte	0x55e
 1380 0557 04       		.uleb128 0x4
 1381 0558 01       		.byte	0x1
 1382 0559 08       		.byte	0x8
 1383 055a F8070000 		.4byte	.LASF85
 1384 055e 06       		.uleb128 0x6
 1385 055f 57050000 		.4byte	0x557
 1386 0563 0B       		.uleb128 0xb
 1387 0564 04       		.byte	0x4
 1388 0565 9F040000 		.4byte	0x49f
 1389 0569 0B       		.uleb128 0xb
 1390 056a 04       		.byte	0x4
 1391 056b 6F050000 		.4byte	0x56f
 1392 056f 12       		.uleb128 0x12
 1393 0570 14010000 		.4byte	0x114
 1394 0574 7E050000 		.4byte	0x57e
 1395 0578 0E       		.uleb128 0xe
 1396 0579 A9020000 		.4byte	0x2a9
 1397 057d 00       		.byte	0
 1398 057e 0A       		.uleb128 0xa
 1399 057f 16       		.byte	0x16
 1400 0580 0D       		.byte	0xd
 1401 0581 25       		.byte	0x25
 1402 0582 5F060000 		.4byte	0x65f
 1403 0586 08       		.uleb128 0x8
 1404 0587 3C040000 		.4byte	.LASF86
 1405 058b 0D       		.byte	0xd
 1406 058c 26       		.byte	0x26
 1407 058d 5F060000 		.4byte	0x65f
 1408 0591 00       		.byte	0
 1409 0592 08       		.uleb128 0x8
 1410 0593 32050000 		.4byte	.LASF87
 1411 0597 0D       		.byte	0xd
 1412 0598 27       		.byte	0x27
 1413 0599 A7000000 		.4byte	0xa7
 1414 059d 04       		.byte	0x4
 1415 059e 08       		.uleb128 0x8
 1416 059f FE050000 		.4byte	.LASF88
 1417 05a3 0D       		.byte	0xd
 1418 05a4 28       		.byte	0x28
 1419 05a5 A7000000 		.4byte	0xa7
 1420 05a9 05       		.byte	0x5
 1421 05aa 08       		.uleb128 0x8
 1422 05ab C6090000 		.4byte	.LASF89
 1423 05af 0D       		.byte	0xd
 1424 05b0 29       		.byte	0x29
 1425 05b1 B7000000 		.4byte	0xb7
ARM GAS  /var/folders/3j/4xdnk5197cv_b7cw3n33qk7r0000gn/T//ccXtcaer.s 			page 26


 1426 05b5 06       		.byte	0x6
 1427 05b6 08       		.uleb128 0x8
 1428 05b7 72060000 		.4byte	.LASF90
 1429 05bb 0D       		.byte	0xd
 1430 05bc 2A       		.byte	0x2a
 1431 05bd A7000000 		.4byte	0xa7
 1432 05c1 08       		.byte	0x8
 1433 05c2 08       		.uleb128 0x8
 1434 05c3 9B050000 		.4byte	.LASF91
 1435 05c7 0D       		.byte	0xd
 1436 05c8 2B       		.byte	0x2b
 1437 05c9 A7000000 		.4byte	0xa7
 1438 05cd 09       		.byte	0x9
 1439 05ce 08       		.uleb128 0x8
 1440 05cf EA000000 		.4byte	.LASF92
 1441 05d3 0D       		.byte	0xd
 1442 05d4 2C       		.byte	0x2c
 1443 05d5 A7000000 		.4byte	0xa7
 1444 05d9 0A       		.byte	0xa
 1445 05da 08       		.uleb128 0x8
 1446 05db BB070000 		.4byte	.LASF93
 1447 05df 0D       		.byte	0xd
 1448 05e0 2D       		.byte	0x2d
 1449 05e1 A7000000 		.4byte	0xa7
 1450 05e5 0B       		.byte	0xb
 1451 05e6 08       		.uleb128 0x8
 1452 05e7 3A090000 		.4byte	.LASF94
 1453 05eb 0D       		.byte	0xd
 1454 05ec 2E       		.byte	0x2e
 1455 05ed A7000000 		.4byte	0xa7
 1456 05f1 0C       		.byte	0xc
 1457 05f2 08       		.uleb128 0x8
 1458 05f3 77070000 		.4byte	.LASF95
 1459 05f7 0D       		.byte	0xd
 1460 05f8 2F       		.byte	0x2f
 1461 05f9 A7000000 		.4byte	0xa7
 1462 05fd 0D       		.byte	0xd
 1463 05fe 08       		.uleb128 0x8
 1464 05ff 53000000 		.4byte	.LASF96
 1465 0603 0D       		.byte	0xd
 1466 0604 30       		.byte	0x30
 1467 0605 A7000000 		.4byte	0xa7
 1468 0609 0E       		.byte	0xe
 1469 060a 08       		.uleb128 0x8
 1470 060b BD050000 		.4byte	.LASF97
 1471 060f 0D       		.byte	0xd
 1472 0610 31       		.byte	0x31
 1473 0611 A7000000 		.4byte	0xa7
 1474 0615 0F       		.byte	0xf
 1475 0616 08       		.uleb128 0x8
 1476 0617 73010000 		.4byte	.LASF98
 1477 061b 0D       		.byte	0xd
 1478 061c 32       		.byte	0x32
 1479 061d A7000000 		.4byte	0xa7
 1480 0621 10       		.byte	0x10
 1481 0622 08       		.uleb128 0x8
 1482 0623 35010000 		.4byte	.LASF99
ARM GAS  /var/folders/3j/4xdnk5197cv_b7cw3n33qk7r0000gn/T//ccXtcaer.s 			page 27


 1483 0627 0D       		.byte	0xd
 1484 0628 34       		.byte	0x34
 1485 0629 A7000000 		.4byte	0xa7
 1486 062d 11       		.byte	0x11
 1487 062e 08       		.uleb128 0x8
 1488 062f 8C010000 		.4byte	.LASF100
 1489 0633 0D       		.byte	0xd
 1490 0634 35       		.byte	0x35
 1491 0635 A7000000 		.4byte	0xa7
 1492 0639 12       		.byte	0x12
 1493 063a 08       		.uleb128 0x8
 1494 063b 3A050000 		.4byte	.LASF101
 1495 063f 0D       		.byte	0xd
 1496 0640 36       		.byte	0x36
 1497 0641 A7000000 		.4byte	0xa7
 1498 0645 13       		.byte	0x13
 1499 0646 08       		.uleb128 0x8
 1500 0647 3A070000 		.4byte	.LASF102
 1501 064b 0D       		.byte	0xd
 1502 064c 37       		.byte	0x37
 1503 064d A7000000 		.4byte	0xa7
 1504 0651 14       		.byte	0x14
 1505 0652 08       		.uleb128 0x8
 1506 0653 08070000 		.4byte	.LASF103
 1507 0657 0D       		.byte	0xd
 1508 0658 39       		.byte	0x39
 1509 0659 A7000000 		.4byte	0xa7
 1510 065d 15       		.byte	0x15
 1511 065e 00       		.byte	0
 1512 065f 13       		.uleb128 0x13
 1513 0660 57050000 		.4byte	0x557
 1514 0664 6F060000 		.4byte	0x66f
 1515 0668 14       		.uleb128 0x14
 1516 0669 37000000 		.4byte	0x37
 1517 066d 03       		.byte	0x3
 1518 066e 00       		.byte	0
 1519 066f 03       		.uleb128 0x3
 1520 0670 E8020000 		.4byte	.LASF104
 1521 0674 0D       		.byte	0xd
 1522 0675 3A       		.byte	0x3a
 1523 0676 7E050000 		.4byte	0x57e
 1524 067a 06       		.uleb128 0x6
 1525 067b 6F060000 		.4byte	0x66f
 1526 067f 0F       		.uleb128 0xf
 1527 0680 25040000 		.4byte	.LASF105
 1528 0684 0D       		.byte	0xd
 1529 0685 77       		.byte	0x77
 1530 0686 7A060000 		.4byte	0x67a
 1531 068a 03       		.uleb128 0x3
 1532 068b 12050000 		.4byte	.LASF106
 1533 068f 0E       		.byte	0xe
 1534 0690 30       		.byte	0x30
 1535 0691 95060000 		.4byte	0x695
 1536 0695 07       		.uleb128 0x7
 1537 0696 12050000 		.4byte	.LASF106
 1538 069a 24       		.byte	0x24
 1539 069b 0E       		.byte	0xe
ARM GAS  /var/folders/3j/4xdnk5197cv_b7cw3n33qk7r0000gn/T//ccXtcaer.s 			page 28


 1540 069c 3E       		.byte	0x3e
 1541 069d 02070000 		.4byte	0x702
 1542 06a1 08       		.uleb128 0x8
 1543 06a2 4F010000 		.4byte	.LASF107
 1544 06a6 0E       		.byte	0xe
 1545 06a7 3F       		.byte	0x3f
 1546 06a8 68020000 		.4byte	0x268
 1547 06ac 00       		.byte	0
 1548 06ad 08       		.uleb128 0x8
 1549 06ae 89050000 		.4byte	.LASF108
 1550 06b2 0E       		.byte	0xe
 1551 06b3 40       		.byte	0x40
 1552 06b4 2C000000 		.4byte	0x2c
 1553 06b8 08       		.byte	0x8
 1554 06b9 08       		.uleb128 0x8
 1555 06ba C2020000 		.4byte	.LASF109
 1556 06be 0E       		.byte	0xe
 1557 06bf 41       		.byte	0x41
 1558 06c0 24070000 		.4byte	0x724
 1559 06c4 0C       		.byte	0xc
 1560 06c5 08       		.uleb128 0x8
 1561 06c6 BC000000 		.4byte	.LASF110
 1562 06ca 0E       		.byte	0xe
 1563 06cb 42       		.byte	0x42
 1564 06cc 24070000 		.4byte	0x724
 1565 06d0 10       		.byte	0x10
 1566 06d1 08       		.uleb128 0x8
 1567 06d2 E3050000 		.4byte	.LASF111
 1568 06d6 0E       		.byte	0xe
 1569 06d7 44       		.byte	0x44
 1570 06d8 24070000 		.4byte	0x724
 1571 06dc 14       		.byte	0x14
 1572 06dd 08       		.uleb128 0x8
 1573 06de 9E060000 		.4byte	.LASF112
 1574 06e2 0E       		.byte	0xe
 1575 06e3 45       		.byte	0x45
 1576 06e4 24070000 		.4byte	0x724
 1577 06e8 18       		.byte	0x18
 1578 06e9 08       		.uleb128 0x8
 1579 06ea 5D090000 		.4byte	.LASF113
 1580 06ee 0E       		.byte	0xe
 1581 06ef 46       		.byte	0x46
 1582 06f0 02070000 		.4byte	0x702
 1583 06f4 1C       		.byte	0x1c
 1584 06f5 08       		.uleb128 0x8
 1585 06f6 E3090000 		.4byte	.LASF114
 1586 06fa 0E       		.byte	0xe
 1587 06fb 47       		.byte	0x47
 1588 06fc A9020000 		.4byte	0x2a9
 1589 0700 20       		.byte	0x20
 1590 0701 00       		.byte	0
 1591 0702 03       		.uleb128 0x3
 1592 0703 7D060000 		.4byte	.LASF115
 1593 0707 0E       		.byte	0xe
 1594 0708 33       		.byte	0x33
 1595 0709 0D070000 		.4byte	0x70d
 1596 070d 0B       		.uleb128 0xb
ARM GAS  /var/folders/3j/4xdnk5197cv_b7cw3n33qk7r0000gn/T//ccXtcaer.s 			page 29


 1597 070e 04       		.byte	0x4
 1598 070f 13070000 		.4byte	0x713
 1599 0713 0D       		.uleb128 0xd
 1600 0714 1E070000 		.4byte	0x71e
 1601 0718 0E       		.uleb128 0xe
 1602 0719 1E070000 		.4byte	0x71e
 1603 071d 00       		.byte	0
 1604 071e 0B       		.uleb128 0xb
 1605 071f 04       		.byte	0x4
 1606 0720 8A060000 		.4byte	0x68a
 1607 0724 0B       		.uleb128 0xb
 1608 0725 04       		.byte	0x4
 1609 0726 A7000000 		.4byte	0xa7
 1610 072a 03       		.uleb128 0x3
 1611 072b F3040000 		.4byte	.LASF116
 1612 072f 0E       		.byte	0xe
 1613 0730 7B       		.byte	0x7b
 1614 0731 8A060000 		.4byte	0x68a
 1615 0735 03       		.uleb128 0x3
 1616 0736 7A000000 		.4byte	.LASF117
 1617 073a 0E       		.byte	0xe
 1618 073b EE       		.byte	0xee
 1619 073c 8A060000 		.4byte	0x68a
 1620 0740 12       		.uleb128 0x12
 1621 0741 2C000000 		.4byte	0x2c
 1622 0745 59070000 		.4byte	0x759
 1623 0749 0E       		.uleb128 0xe
 1624 074a A9020000 		.4byte	0x2a9
 1625 074e 0E       		.uleb128 0xe
 1626 074f 59070000 		.4byte	0x759
 1627 0753 0E       		.uleb128 0xe
 1628 0754 2C000000 		.4byte	0x2c
 1629 0758 00       		.byte	0
 1630 0759 0B       		.uleb128 0xb
 1631 075a 04       		.byte	0x4
 1632 075b B2000000 		.4byte	0xb2
 1633 075f 0B       		.uleb128 0xb
 1634 0760 04       		.byte	0x4
 1635 0761 40070000 		.4byte	0x740
 1636 0765 12       		.uleb128 0x12
 1637 0766 2C000000 		.4byte	0x2c
 1638 076a 7E070000 		.4byte	0x77e
 1639 076e 0E       		.uleb128 0xe
 1640 076f A9020000 		.4byte	0x2a9
 1641 0773 0E       		.uleb128 0xe
 1642 0774 24070000 		.4byte	0x724
 1643 0778 0E       		.uleb128 0xe
 1644 0779 2C000000 		.4byte	0x2c
 1645 077d 00       		.byte	0
 1646 077e 0B       		.uleb128 0xb
 1647 077f 04       		.byte	0x4
 1648 0780 65070000 		.4byte	0x765
 1649 0784 12       		.uleb128 0x12
 1650 0785 14010000 		.4byte	0x114
 1651 0789 98070000 		.4byte	0x798
 1652 078d 0E       		.uleb128 0xe
 1653 078e A9020000 		.4byte	0x2a9
ARM GAS  /var/folders/3j/4xdnk5197cv_b7cw3n33qk7r0000gn/T//ccXtcaer.s 			page 30


 1654 0792 0E       		.uleb128 0xe
 1655 0793 A7000000 		.4byte	0xa7
 1656 0797 00       		.byte	0
 1657 0798 0B       		.uleb128 0xb
 1658 0799 04       		.byte	0x4
 1659 079a 84070000 		.4byte	0x784
 1660 079e 13       		.uleb128 0x13
 1661 079f 93020000 		.4byte	0x293
 1662 07a3 AE070000 		.4byte	0x7ae
 1663 07a7 14       		.uleb128 0x14
 1664 07a8 37000000 		.4byte	0x37
 1665 07ac 26       		.byte	0x26
 1666 07ad 00       		.byte	0
 1667 07ae 0F       		.uleb128 0xf
 1668 07af 14030000 		.4byte	.LASF118
 1669 07b3 0F       		.byte	0xf
 1670 07b4 82       		.byte	0x82
 1671 07b5 9E070000 		.4byte	0x79e
 1672 07b9 07       		.uleb128 0x7
 1673 07ba A2000000 		.4byte	.LASF119
 1674 07be 20       		.byte	0x20
 1675 07bf 10       		.byte	0x10
 1676 07c0 FD       		.byte	0xfd
 1677 07c1 2C080000 		.4byte	0x82c
 1678 07c5 08       		.uleb128 0x8
 1679 07c6 5D030000 		.4byte	.LASF120
 1680 07ca 10       		.byte	0x10
 1681 07cb FE       		.byte	0xfe
 1682 07cc 3E000000 		.4byte	0x3e
 1683 07d0 00       		.byte	0
 1684 07d1 08       		.uleb128 0x8
 1685 07d2 4C090000 		.4byte	.LASF121
 1686 07d6 10       		.byte	0x10
 1687 07d7 FF       		.byte	0xff
 1688 07d8 3E000000 		.4byte	0x3e
 1689 07dc 04       		.byte	0x4
 1690 07dd 15       		.uleb128 0x15
 1691 07de D1090000 		.4byte	.LASF122
 1692 07e2 10       		.byte	0x10
 1693 07e3 0001     		.2byte	0x100
 1694 07e5 3E000000 		.4byte	0x3e
 1695 07e9 08       		.byte	0x8
 1696 07ea 15       		.uleb128 0x15
 1697 07eb 81030000 		.4byte	.LASF123
 1698 07ef 10       		.byte	0x10
 1699 07f0 0101     		.2byte	0x101
 1700 07f2 3E000000 		.4byte	0x3e
 1701 07f6 0C       		.byte	0xc
 1702 07f7 15       		.uleb128 0x15
 1703 07f8 25010000 		.4byte	.LASF124
 1704 07fc 10       		.byte	0x10
 1705 07fd 0201     		.2byte	0x102
 1706 07ff 3E000000 		.4byte	0x3e
 1707 0803 10       		.byte	0x10
 1708 0804 15       		.uleb128 0x15
 1709 0805 7C050000 		.4byte	.LASF125
 1710 0809 10       		.byte	0x10
ARM GAS  /var/folders/3j/4xdnk5197cv_b7cw3n33qk7r0000gn/T//ccXtcaer.s 			page 31


 1711 080a 0301     		.2byte	0x103
 1712 080c 3E000000 		.4byte	0x3e
 1713 0810 14       		.byte	0x14
 1714 0811 15       		.uleb128 0x15
 1715 0812 B2020000 		.4byte	.LASF126
 1716 0816 10       		.byte	0x10
 1717 0817 0401     		.2byte	0x104
 1718 0819 3E000000 		.4byte	0x3e
 1719 081d 18       		.byte	0x18
 1720 081e 15       		.uleb128 0x15
 1721 081f 270A0000 		.4byte	.LASF127
 1722 0823 10       		.byte	0x10
 1723 0824 0501     		.2byte	0x105
 1724 0826 3E000000 		.4byte	0x3e
 1725 082a 1C       		.byte	0x1c
 1726 082b 00       		.byte	0
 1727 082c 16       		.uleb128 0x16
 1728 082d A2000000 		.4byte	.LASF119
 1729 0831 10       		.byte	0x10
 1730 0832 0801     		.2byte	0x108
 1731 0834 B9070000 		.4byte	0x7b9
 1732 0838 12       		.uleb128 0x12
 1733 0839 14010000 		.4byte	0x114
 1734 083d 51080000 		.4byte	0x851
 1735 0841 0E       		.uleb128 0xe
 1736 0842 A9020000 		.4byte	0x2a9
 1737 0846 0E       		.uleb128 0xe
 1738 0847 A7000000 		.4byte	0xa7
 1739 084b 0E       		.uleb128 0xe
 1740 084c 35010000 		.4byte	0x135
 1741 0850 00       		.byte	0
 1742 0851 0B       		.uleb128 0xb
 1743 0852 04       		.byte	0x4
 1744 0853 38080000 		.4byte	0x838
 1745 0857 12       		.uleb128 0x12
 1746 0858 14010000 		.4byte	0x114
 1747 085c 6B080000 		.4byte	0x86b
 1748 0860 0E       		.uleb128 0xe
 1749 0861 A9020000 		.4byte	0x2a9
 1750 0865 0E       		.uleb128 0xe
 1751 0866 35010000 		.4byte	0x135
 1752 086a 00       		.byte	0
 1753 086b 0B       		.uleb128 0xb
 1754 086c 04       		.byte	0x4
 1755 086d 57080000 		.4byte	0x857
 1756 0871 12       		.uleb128 0x12
 1757 0872 2C000000 		.4byte	0x2c
 1758 0876 8F080000 		.4byte	0x88f
 1759 087a 0E       		.uleb128 0xe
 1760 087b A9020000 		.4byte	0x2a9
 1761 087f 0E       		.uleb128 0xe
 1762 0880 59070000 		.4byte	0x759
 1763 0884 0E       		.uleb128 0xe
 1764 0885 2C000000 		.4byte	0x2c
 1765 0889 0E       		.uleb128 0xe
 1766 088a 35010000 		.4byte	0x135
 1767 088e 00       		.byte	0
ARM GAS  /var/folders/3j/4xdnk5197cv_b7cw3n33qk7r0000gn/T//ccXtcaer.s 			page 32


 1768 088f 0B       		.uleb128 0xb
 1769 0890 04       		.byte	0x4
 1770 0891 71080000 		.4byte	0x871
 1771 0895 12       		.uleb128 0x12
 1772 0896 2C000000 		.4byte	0x2c
 1773 089a B3080000 		.4byte	0x8b3
 1774 089e 0E       		.uleb128 0xe
 1775 089f A9020000 		.4byte	0x2a9
 1776 08a3 0E       		.uleb128 0xe
 1777 08a4 24070000 		.4byte	0x724
 1778 08a8 0E       		.uleb128 0xe
 1779 08a9 2C000000 		.4byte	0x2c
 1780 08ad 0E       		.uleb128 0xe
 1781 08ae 35010000 		.4byte	0x135
 1782 08b2 00       		.byte	0
 1783 08b3 0B       		.uleb128 0xb
 1784 08b4 04       		.byte	0x4
 1785 08b5 95080000 		.4byte	0x895
 1786 08b9 0A       		.uleb128 0xa
 1787 08ba 18       		.byte	0x18
 1788 08bb 11       		.byte	0x11
 1789 08bc 2A       		.byte	0x2a
 1790 08bd 0A090000 		.4byte	0x90a
 1791 08c1 08       		.uleb128 0x8
 1792 08c2 79090000 		.4byte	.LASF128
 1793 08c6 11       		.byte	0x11
 1794 08c7 2F       		.byte	0x2f
 1795 08c8 CD000000 		.4byte	0xcd
 1796 08cc 00       		.byte	0
 1797 08cd 08       		.uleb128 0x8
 1798 08ce 28060000 		.4byte	.LASF129
 1799 08d2 11       		.byte	0x11
 1800 08d3 31       		.byte	0x31
 1801 08d4 0A090000 		.4byte	0x90a
 1802 08d8 04       		.byte	0x4
 1803 08d9 08       		.uleb128 0x8
 1804 08da 8C040000 		.4byte	.LASF130
 1805 08de 11       		.byte	0x11
 1806 08df 32       		.byte	0x32
 1807 08e0 0A090000 		.4byte	0x90a
 1808 08e4 08       		.byte	0x8
 1809 08e5 08       		.uleb128 0x8
 1810 08e6 46050000 		.4byte	.LASF131
 1811 08ea 11       		.byte	0x11
 1812 08eb 33       		.byte	0x33
 1813 08ec 0A090000 		.4byte	0x90a
 1814 08f0 0C       		.byte	0xc
 1815 08f1 08       		.uleb128 0x8
 1816 08f2 2E060000 		.4byte	.LASF132
 1817 08f6 11       		.byte	0x11
 1818 08f7 34       		.byte	0x34
 1819 08f8 0A090000 		.4byte	0x90a
 1820 08fc 10       		.byte	0x10
 1821 08fd 08       		.uleb128 0x8
 1822 08fe 1B070000 		.4byte	.LASF133
 1823 0902 11       		.byte	0x11
 1824 0903 35       		.byte	0x35
ARM GAS  /var/folders/3j/4xdnk5197cv_b7cw3n33qk7r0000gn/T//ccXtcaer.s 			page 33


 1825 0904 37000000 		.4byte	0x37
 1826 0908 14       		.byte	0x14
 1827 0909 00       		.byte	0
 1828 090a 0B       		.uleb128 0xb
 1829 090b 04       		.byte	0x4
 1830 090c D8000000 		.4byte	0xd8
 1831 0910 03       		.uleb128 0x3
 1832 0911 80040000 		.4byte	.LASF134
 1833 0915 11       		.byte	0x11
 1834 0916 37       		.byte	0x37
 1835 0917 B9080000 		.4byte	0x8b9
 1836 091b 17       		.uleb128 0x17
 1837 091c 00       		.byte	0
 1838 091d 11       		.byte	0x11
 1839 091e 43       		.byte	0x43
 1840 091f 03       		.uleb128 0x3
 1841 0920 EA090000 		.4byte	.LASF135
 1842 0924 11       		.byte	0x11
 1843 0925 45       		.byte	0x45
 1844 0926 1B090000 		.4byte	0x91b
 1845 092a 06       		.uleb128 0x6
 1846 092b 1F090000 		.4byte	0x91f
 1847 092f 0F       		.uleb128 0xf
 1848 0930 06060000 		.4byte	.LASF136
 1849 0934 11       		.byte	0x11
 1850 0935 6D       		.byte	0x6d
 1851 0936 10090000 		.4byte	0x910
 1852 093a 0F       		.uleb128 0xf
 1853 093b 32070000 		.4byte	.LASF137
 1854 093f 11       		.byte	0x11
 1855 0940 6E       		.byte	0x6e
 1856 0941 10090000 		.4byte	0x910
 1857 0945 0F       		.uleb128 0xf
 1858 0946 FC090000 		.4byte	.LASF138
 1859 094a 11       		.byte	0x11
 1860 094b 75       		.byte	0x75
 1861 094c 2A090000 		.4byte	0x92a
 1862 0950 18       		.uleb128 0x18
 1863 0951 07       		.byte	0x7
 1864 0952 01       		.byte	0x1
 1865 0953 55000000 		.4byte	0x55
 1866 0957 12       		.byte	0x12
 1867 0958 54       		.byte	0x54
 1868 0959 82090000 		.4byte	0x982
 1869 095d 19       		.uleb128 0x19
 1870 095e 6E020000 		.4byte	.LASF139
 1871 0962 00       		.byte	0
 1872 0963 19       		.uleb128 0x19
 1873 0964 65050000 		.4byte	.LASF140
 1874 0968 01       		.byte	0x1
 1875 0969 19       		.uleb128 0x19
 1876 096a 96080000 		.4byte	.LASF141
 1877 096e 02       		.byte	0x2
 1878 096f 19       		.uleb128 0x19
 1879 0970 F2020000 		.4byte	.LASF142
 1880 0974 03       		.byte	0x3
 1881 0975 19       		.uleb128 0x19
ARM GAS  /var/folders/3j/4xdnk5197cv_b7cw3n33qk7r0000gn/T//ccXtcaer.s 			page 34


 1882 0976 04050000 		.4byte	.LASF143
 1883 097a 04       		.byte	0x4
 1884 097b 19       		.uleb128 0x19
 1885 097c 84070000 		.4byte	.LASF144
 1886 0980 05       		.byte	0x5
 1887 0981 00       		.byte	0
 1888 0982 03       		.uleb128 0x3
 1889 0983 67060000 		.4byte	.LASF145
 1890 0987 12       		.byte	0x12
 1891 0988 5B       		.byte	0x5b
 1892 0989 50090000 		.4byte	0x950
 1893 098d 03       		.uleb128 0x3
 1894 098e A0080000 		.4byte	.LASF146
 1895 0992 13       		.byte	0x13
 1896 0993 38       		.byte	0x38
 1897 0994 98090000 		.4byte	0x998
 1898 0998 07       		.uleb128 0x7
 1899 0999 A0080000 		.4byte	.LASF146
 1900 099d 40       		.byte	0x40
 1901 099e 13       		.byte	0x13
 1902 099f 62       		.byte	0x62
 1903 09a0 410A0000 		.4byte	0xa41
 1904 09a4 08       		.uleb128 0x8
 1905 09a5 83020000 		.4byte	.LASF147
 1906 09a9 13       		.byte	0x13
 1907 09aa 64       		.byte	0x64
 1908 09ab 82090000 		.4byte	0x982
 1909 09af 00       		.byte	0
 1910 09b0 08       		.uleb128 0x8
 1911 09b1 1F080000 		.4byte	.LASF148
 1912 09b5 13       		.byte	0x13
 1913 09b6 66       		.byte	0x66
 1914 09b7 7C0A0000 		.4byte	0xa7c
 1915 09bb 04       		.byte	0x4
 1916 09bc 08       		.uleb128 0x8
 1917 09bd 05040000 		.4byte	.LASF149
 1918 09c1 13       		.byte	0x13
 1919 09c2 68       		.byte	0x68
 1920 09c3 410A0000 		.4byte	0xa41
 1921 09c7 08       		.byte	0x8
 1922 09c8 08       		.uleb128 0x8
 1923 09c9 48010000 		.4byte	.LASF150
 1924 09cd 13       		.byte	0x13
 1925 09ce 6A       		.byte	0x6a
 1926 09cf 820A0000 		.4byte	0xa82
 1927 09d3 0C       		.byte	0xc
 1928 09d4 08       		.uleb128 0x8
 1929 09d5 B1060000 		.4byte	.LASF151
 1930 09d9 13       		.byte	0x13
 1931 09da 6D       		.byte	0x6d
 1932 09db 9F040000 		.4byte	0x49f
 1933 09df 10       		.byte	0x10
 1934 09e0 08       		.uleb128 0x8
 1935 09e1 AB020000 		.4byte	.LASF152
 1936 09e5 13       		.byte	0x13
 1937 09e6 77       		.byte	0x77
 1938 09e7 62020000 		.4byte	0x262
ARM GAS  /var/folders/3j/4xdnk5197cv_b7cw3n33qk7r0000gn/T//ccXtcaer.s 			page 35


 1939 09eb 20       		.byte	0x20
 1940 09ec 08       		.uleb128 0x8
 1941 09ed B6010000 		.4byte	.LASF153
 1942 09f1 13       		.byte	0x13
 1943 09f2 7B       		.byte	0x7b
 1944 09f3 4C0A0000 		.4byte	0xa4c
 1945 09f7 24       		.byte	0x24
 1946 09f8 08       		.uleb128 0x8
 1947 09f9 E4030000 		.4byte	.LASF154
 1948 09fd 13       		.byte	0x13
 1949 09fe 7F       		.byte	0x7f
 1950 09ff 59070000 		.4byte	0x759
 1951 0a03 28       		.byte	0x28
 1952 0a04 08       		.uleb128 0x8
 1953 0a05 1F0A0000 		.4byte	.LASF155
 1954 0a09 13       		.byte	0x13
 1955 0a0a 83       		.byte	0x83
 1956 0a0b 2C000000 		.4byte	0x2c
 1957 0a0f 2C       		.byte	0x2c
 1958 0a10 08       		.uleb128 0x8
 1959 0a11 34090000 		.4byte	.LASF156
 1960 0a15 13       		.byte	0x13
 1961 0a16 87       		.byte	0x87
 1962 0a17 2C000000 		.4byte	0x2c
 1963 0a1b 30       		.byte	0x30
 1964 0a1c 08       		.uleb128 0x8
 1965 0a1d B6000000 		.4byte	.LASF157
 1966 0a21 13       		.byte	0x13
 1967 0a22 8B       		.byte	0x8b
 1968 0a23 24070000 		.4byte	0x724
 1969 0a27 34       		.byte	0x34
 1970 0a28 08       		.uleb128 0x8
 1971 0a29 DB050000 		.4byte	.LASF158
 1972 0a2d 13       		.byte	0x13
 1973 0a2e 8F       		.byte	0x8f
 1974 0a2f 2C000000 		.4byte	0x2c
 1975 0a33 38       		.byte	0x38
 1976 0a34 08       		.uleb128 0x8
 1977 0a35 BC020000 		.4byte	.LASF159
 1978 0a39 13       		.byte	0x13
 1979 0a3a 93       		.byte	0x93
 1980 0a3b 2C000000 		.4byte	0x2c
 1981 0a3f 3C       		.byte	0x3c
 1982 0a40 00       		.byte	0
 1983 0a41 03       		.uleb128 0x3
 1984 0a42 A6060000 		.4byte	.LASF160
 1985 0a46 13       		.byte	0x13
 1986 0a47 42       		.byte	0x42
 1987 0a48 CD000000 		.4byte	0xcd
 1988 0a4c 03       		.uleb128 0x3
 1989 0a4d 79020000 		.4byte	.LASF161
 1990 0a51 13       		.byte	0x13
 1991 0a52 48       		.byte	0x48
 1992 0a53 B7000000 		.4byte	0xb7
 1993 0a57 0A       		.uleb128 0xa
 1994 0a58 04       		.byte	0x4
 1995 0a59 13       		.byte	0x13
ARM GAS  /var/folders/3j/4xdnk5197cv_b7cw3n33qk7r0000gn/T//ccXtcaer.s 			page 36


 1996 0a5a 57       		.byte	0x57
 1997 0a5b 6C0A0000 		.4byte	0xa6c
 1998 0a5f 08       		.uleb128 0x8
 1999 0a60 B4050000 		.4byte	.LASF162
 2000 0a64 13       		.byte	0x13
 2001 0a65 59       		.byte	0x59
 2002 0a66 CD000000 		.4byte	0xcd
 2003 0a6a 00       		.byte	0
 2004 0a6b 00       		.byte	0
 2005 0a6c 03       		.uleb128 0x3
 2006 0a6d 20090000 		.4byte	.LASF163
 2007 0a71 13       		.byte	0x13
 2008 0a72 5B       		.byte	0x5b
 2009 0a73 570A0000 		.4byte	0xa57
 2010 0a77 06       		.uleb128 0x6
 2011 0a78 6C0A0000 		.4byte	0xa6c
 2012 0a7c 0B       		.uleb128 0xb
 2013 0a7d 04       		.byte	0x4
 2014 0a7e 770A0000 		.4byte	0xa77
 2015 0a82 0B       		.uleb128 0xb
 2016 0a83 04       		.byte	0x4
 2017 0a84 2C080000 		.4byte	0x82c
 2018 0a88 0F       		.uleb128 0xf
 2019 0a89 9C030000 		.4byte	.LASF164
 2020 0a8d 13       		.byte	0x13
 2021 0a8e A6       		.byte	0xa6
 2022 0a8f 8D090000 		.4byte	0x98d
 2023 0a93 0F       		.uleb128 0xf
 2024 0a94 A1030000 		.4byte	.LASF165
 2025 0a98 13       		.byte	0x13
 2026 0a99 A7       		.byte	0xa7
 2027 0a9a 8D090000 		.4byte	0x98d
 2028 0a9e 18       		.uleb128 0x18
 2029 0a9f 07       		.byte	0x7
 2030 0aa0 01       		.byte	0x1
 2031 0aa1 55000000 		.4byte	0x55
 2032 0aa5 14       		.byte	0x14
 2033 0aa6 5D       		.byte	0x5d
 2034 0aa7 BE0A0000 		.4byte	0xabe
 2035 0aab 19       		.uleb128 0x19
 2036 0aac A8070000 		.4byte	.LASF166
 2037 0ab0 00       		.byte	0
 2038 0ab1 19       		.uleb128 0x19
 2039 0ab2 99010000 		.4byte	.LASF167
 2040 0ab6 01       		.byte	0x1
 2041 0ab7 19       		.uleb128 0x19
 2042 0ab8 E5080000 		.4byte	.LASF168
 2043 0abc 02       		.byte	0x2
 2044 0abd 00       		.byte	0
 2045 0abe 03       		.uleb128 0x3
 2046 0abf 2A090000 		.4byte	.LASF169
 2047 0ac3 14       		.byte	0x14
 2048 0ac4 61       		.byte	0x61
 2049 0ac5 9E0A0000 		.4byte	0xa9e
 2050 0ac9 03       		.uleb128 0x3
 2051 0aca DC070000 		.4byte	.LASF170
 2052 0ace 14       		.byte	0x14
ARM GAS  /var/folders/3j/4xdnk5197cv_b7cw3n33qk7r0000gn/T//ccXtcaer.s 			page 37


 2053 0acf 66       		.byte	0x66
 2054 0ad0 D40A0000 		.4byte	0xad4
 2055 0ad4 07       		.uleb128 0x7
 2056 0ad5 DC070000 		.4byte	.LASF170
 2057 0ad9 74       		.byte	0x74
 2058 0ada 14       		.byte	0x14
 2059 0adb 80       		.byte	0x80
 2060 0adc 330B0000 		.4byte	0xb33
 2061 0ae0 09       		.uleb128 0x9
 2062 0ae1 766D7400 		.ascii	"vmt\000"
 2063 0ae5 14       		.byte	0x14
 2064 0ae6 82       		.byte	0x82
 2065 0ae7 B00B0000 		.4byte	0xbb0
 2066 0aeb 00       		.byte	0
 2067 0aec 08       		.uleb128 0x8
 2068 0aed 5F040000 		.4byte	.LASF171
 2069 0af1 14       		.byte	0x14
 2070 0af2 83       		.byte	0x83
 2071 0af3 11050000 		.4byte	0x511
 2072 0af7 04       		.byte	0x4
 2073 0af8 08       		.uleb128 0x8
 2074 0af9 83020000 		.4byte	.LASF147
 2075 0afd 14       		.byte	0x14
 2076 0afe 83       		.byte	0x83
 2077 0aff BE0A0000 		.4byte	0xabe
 2078 0b03 08       		.byte	0x8
 2079 0b04 08       		.uleb128 0x8
 2080 0b05 0C040000 		.4byte	.LASF172
 2081 0b09 14       		.byte	0x14
 2082 0b0a 83       		.byte	0x83
 2083 0b0b 2A070000 		.4byte	0x72a
 2084 0b0f 0C       		.byte	0xc
 2085 0b10 08       		.uleb128 0x8
 2086 0b11 98040000 		.4byte	.LASF173
 2087 0b15 14       		.byte	0x14
 2088 0b16 83       		.byte	0x83
 2089 0b17 35070000 		.4byte	0x735
 2090 0b1b 30       		.byte	0x30
 2091 0b1c 09       		.uleb128 0x9
 2092 0b1d 696200   		.ascii	"ib\000"
 2093 0b20 14       		.byte	0x14
 2094 0b21 83       		.byte	0x83
 2095 0b22 B60B0000 		.4byte	0xbb6
 2096 0b26 54       		.byte	0x54
 2097 0b27 09       		.uleb128 0x9
 2098 0b28 6F6200   		.ascii	"ob\000"
 2099 0b2b 14       		.byte	0x14
 2100 0b2c 83       		.byte	0x83
 2101 0b2d B60B0000 		.4byte	0xbb6
 2102 0b31 64       		.byte	0x64
 2103 0b32 00       		.byte	0
 2104 0b33 1A       		.uleb128 0x1a
 2105 0b34 53443100 		.ascii	"SD1\000"
 2106 0b38 17       		.byte	0x17
 2107 0b39 62       		.byte	0x62
 2108 0b3a C90A0000 		.4byte	0xac9
 2109 0b3e 07       		.uleb128 0x7
ARM GAS  /var/folders/3j/4xdnk5197cv_b7cw3n33qk7r0000gn/T//ccXtcaer.s 			page 38


 2110 0b3f EA030000 		.4byte	.LASF174
 2111 0b43 20       		.byte	0x20
 2112 0b44 14       		.byte	0x14
 2113 0b45 75       		.byte	0x75
 2114 0b46 AB0B0000 		.4byte	0xbab
 2115 0b4a 08       		.uleb128 0x8
 2116 0b4b 74000000 		.4byte	.LASF175
 2117 0b4f 14       		.byte	0x14
 2118 0b50 76       		.byte	0x76
 2119 0b51 5F070000 		.4byte	0x75f
 2120 0b55 00       		.byte	0
 2121 0b56 08       		.uleb128 0x8
 2122 0b57 F3070000 		.4byte	.LASF176
 2123 0b5b 14       		.byte	0x14
 2124 0b5c 76       		.byte	0x76
 2125 0b5d 7E070000 		.4byte	0x77e
 2126 0b61 04       		.byte	0x4
 2127 0b62 09       		.uleb128 0x9
 2128 0b63 70757400 		.ascii	"put\000"
 2129 0b67 14       		.byte	0x14
 2130 0b68 76       		.byte	0x76
 2131 0b69 98070000 		.4byte	0x798
 2132 0b6d 08       		.byte	0x8
 2133 0b6e 09       		.uleb128 0x9
 2134 0b6f 67657400 		.ascii	"get\000"
 2135 0b73 14       		.byte	0x14
 2136 0b74 76       		.byte	0x76
 2137 0b75 69050000 		.4byte	0x569
 2138 0b79 0C       		.byte	0xc
 2139 0b7a 08       		.uleb128 0x8
 2140 0b7b 4C050000 		.4byte	.LASF177
 2141 0b7f 14       		.byte	0x14
 2142 0b80 76       		.byte	0x76
 2143 0b81 51080000 		.4byte	0x851
 2144 0b85 10       		.byte	0x10
 2145 0b86 08       		.uleb128 0x8
 2146 0b87 2E040000 		.4byte	.LASF178
 2147 0b8b 14       		.byte	0x14
 2148 0b8c 76       		.byte	0x76
 2149 0b8d 6B080000 		.4byte	0x86b
 2150 0b91 14       		.byte	0x14
 2151 0b92 08       		.uleb128 0x8
 2152 0b93 C0040000 		.4byte	.LASF179
 2153 0b97 14       		.byte	0x14
 2154 0b98 76       		.byte	0x76
 2155 0b99 8F080000 		.4byte	0x88f
 2156 0b9d 18       		.byte	0x18
 2157 0b9e 08       		.uleb128 0x8
 2158 0b9f 42010000 		.4byte	.LASF180
 2159 0ba3 14       		.byte	0x14
 2160 0ba4 76       		.byte	0x76
 2161 0ba5 B3080000 		.4byte	0x8b3
 2162 0ba9 1C       		.byte	0x1c
 2163 0baa 00       		.byte	0
 2164 0bab 06       		.uleb128 0x6
 2165 0bac 3E0B0000 		.4byte	0xb3e
 2166 0bb0 0B       		.uleb128 0xb
ARM GAS  /var/folders/3j/4xdnk5197cv_b7cw3n33qk7r0000gn/T//ccXtcaer.s 			page 39


 2167 0bb1 04       		.byte	0x4
 2168 0bb2 AB0B0000 		.4byte	0xbab
 2169 0bb6 13       		.uleb128 0x13
 2170 0bb7 A7000000 		.4byte	0xa7
 2171 0bbb C60B0000 		.4byte	0xbc6
 2172 0bbf 14       		.uleb128 0x14
 2173 0bc0 37000000 		.4byte	0x37
 2174 0bc4 0F       		.byte	0xf
 2175 0bc5 00       		.byte	0
 2176 0bc6 18       		.uleb128 0x18
 2177 0bc7 07       		.byte	0x7
 2178 0bc8 01       		.byte	0x1
 2179 0bc9 55000000 		.4byte	0x55
 2180 0bcd 15       		.byte	0x15
 2181 0bce 4E       		.byte	0x4e
 2182 0bcf F20B0000 		.4byte	0xbf2
 2183 0bd3 19       		.uleb128 0x19
 2184 0bd4 F8080000 		.4byte	.LASF181
 2185 0bd8 00       		.byte	0
 2186 0bd9 19       		.uleb128 0x19
 2187 0bda 83010000 		.4byte	.LASF182
 2188 0bde 01       		.byte	0x1
 2189 0bdf 19       		.uleb128 0x19
 2190 0be0 EE080000 		.4byte	.LASF183
 2191 0be4 02       		.byte	0x2
 2192 0be5 19       		.uleb128 0x19
 2193 0be6 90000000 		.4byte	.LASF184
 2194 0bea 03       		.byte	0x3
 2195 0beb 19       		.uleb128 0x19
 2196 0bec 12080000 		.4byte	.LASF185
 2197 0bf0 04       		.byte	0x4
 2198 0bf1 00       		.byte	0
 2199 0bf2 03       		.uleb128 0x3
 2200 0bf3 40080000 		.4byte	.LASF186
 2201 0bf7 15       		.byte	0x15
 2202 0bf8 54       		.byte	0x54
 2203 0bf9 C60B0000 		.4byte	0xbc6
 2204 0bfd 03       		.uleb128 0x3
 2205 0bfe 01010000 		.4byte	.LASF187
 2206 0c02 16       		.byte	0x16
 2207 0c03 35       		.byte	0x35
 2208 0c04 080C0000 		.4byte	0xc08
 2209 0c08 07       		.uleb128 0x7
 2210 0c09 01010000 		.4byte	.LASF187
 2211 0c0d 28       		.byte	0x28
 2212 0c0e 16       		.byte	0x16
 2213 0c0f 7C       		.byte	0x7c
 2214 0c10 690C0000 		.4byte	0xc69
 2215 0c14 08       		.uleb128 0x8
 2216 0c15 83020000 		.4byte	.LASF147
 2217 0c19 16       		.byte	0x16
 2218 0c1a 80       		.byte	0x80
 2219 0c1b F20B0000 		.4byte	0xbf2
 2220 0c1f 00       		.byte	0
 2221 0c20 08       		.uleb128 0x8
 2222 0c21 1F080000 		.4byte	.LASF148
 2223 0c25 16       		.byte	0x16
ARM GAS  /var/folders/3j/4xdnk5197cv_b7cw3n33qk7r0000gn/T//ccXtcaer.s 			page 40


 2224 0c26 84       		.byte	0x84
 2225 0c27 100D0000 		.4byte	0xd10
 2226 0c2b 04       		.byte	0x4
 2227 0c2c 08       		.uleb128 0x8
 2228 0c2d AB020000 		.4byte	.LASF152
 2229 0c31 16       		.byte	0x16
 2230 0c32 89       		.byte	0x89
 2231 0c33 62020000 		.4byte	0x262
 2232 0c37 08       		.byte	0x8
 2233 0c38 08       		.uleb128 0x8
 2234 0c39 B1060000 		.4byte	.LASF151
 2235 0c3d 16       		.byte	0x16
 2236 0c3e 90       		.byte	0x90
 2237 0c3f 9F040000 		.4byte	0x49f
 2238 0c43 0C       		.byte	0xc
 2239 0c44 08       		.uleb128 0x8
 2240 0c45 B6000000 		.4byte	.LASF157
 2241 0c49 16       		.byte	0x16
 2242 0c4a 98       		.byte	0x98
 2243 0c4b A9020000 		.4byte	0x2a9
 2244 0c4f 1C       		.byte	0x1c
 2245 0c50 08       		.uleb128 0x8
 2246 0c51 E4030000 		.4byte	.LASF154
 2247 0c55 16       		.byte	0x16
 2248 0c56 9D       		.byte	0x9d
 2249 0c57 160D0000 		.4byte	0xd16
 2250 0c5b 20       		.byte	0x20
 2251 0c5c 08       		.uleb128 0x8
 2252 0c5d 2B030000 		.4byte	.LASF188
 2253 0c61 16       		.byte	0x16
 2254 0c62 A2       		.byte	0xa2
 2255 0c63 2C000000 		.4byte	0x2c
 2256 0c67 24       		.byte	0x24
 2257 0c68 00       		.byte	0
 2258 0c69 03       		.uleb128 0x3
 2259 0c6a 8E030000 		.4byte	.LASF189
 2260 0c6e 16       		.byte	0x16
 2261 0c6f 3D       		.byte	0x3d
 2262 0c70 740C0000 		.4byte	0xc74
 2263 0c74 0B       		.uleb128 0xb
 2264 0c75 04       		.byte	0x4
 2265 0c76 7A0C0000 		.4byte	0xc7a
 2266 0c7a 0D       		.uleb128 0xd
 2267 0c7b 850C0000 		.4byte	0xc85
 2268 0c7f 0E       		.uleb128 0xe
 2269 0c80 850C0000 		.4byte	0xc85
 2270 0c84 00       		.byte	0
 2271 0c85 0B       		.uleb128 0xb
 2272 0c86 04       		.byte	0x4
 2273 0c87 FD0B0000 		.4byte	0xbfd
 2274 0c8b 0A       		.uleb128 0xa
 2275 0c8c 10       		.byte	0x10
 2276 0c8d 16       		.byte	0x16
 2277 0c8e 44       		.byte	0x44
 2278 0c8f 000D0000 		.4byte	0xd00
 2279 0c93 08       		.uleb128 0x8
 2280 0c94 24030000 		.4byte	.LASF190
ARM GAS  /var/folders/3j/4xdnk5197cv_b7cw3n33qk7r0000gn/T//ccXtcaer.s 			page 41


 2281 0c98 16       		.byte	0x16
 2282 0c99 48       		.byte	0x48
 2283 0c9a 690C0000 		.4byte	0xc69
 2284 0c9e 00       		.byte	0
 2285 0c9f 08       		.uleb128 0x8
 2286 0ca0 37060000 		.4byte	.LASF191
 2287 0ca4 16       		.byte	0x16
 2288 0ca5 4F       		.byte	0x4f
 2289 0ca6 A7000000 		.4byte	0xa7
 2290 0caa 04       		.byte	0x4
 2291 0cab 08       		.uleb128 0x8
 2292 0cac 53060000 		.4byte	.LASF192
 2293 0cb0 16       		.byte	0x16
 2294 0cb1 52       		.byte	0x52
 2295 0cb2 A7000000 		.4byte	0xa7
 2296 0cb6 05       		.byte	0x5
 2297 0cb7 08       		.uleb128 0x8
 2298 0cb8 4A040000 		.4byte	.LASF193
 2299 0cbc 16       		.byte	0x16
 2300 0cbd 58       		.byte	0x58
 2301 0cbe A7000000 		.4byte	0xa7
 2302 0cc2 06       		.byte	0x6
 2303 0cc3 08       		.uleb128 0x8
 2304 0cc4 31030000 		.4byte	.LASF194
 2305 0cc8 16       		.byte	0x16
 2306 0cc9 5E       		.byte	0x5e
 2307 0cca A7000000 		.4byte	0xa7
 2308 0cce 07       		.byte	0x7
 2309 0ccf 08       		.uleb128 0x8
 2310 0cd0 47030000 		.4byte	.LASF195
 2311 0cd4 16       		.byte	0x16
 2312 0cd5 64       		.byte	0x64
 2313 0cd6 A7000000 		.4byte	0xa7
 2314 0cda 08       		.byte	0x8
 2315 0cdb 08       		.uleb128 0x8
 2316 0cdc B1080000 		.4byte	.LASF196
 2317 0ce0 16       		.byte	0x16
 2318 0ce1 6A       		.byte	0x6a
 2319 0ce2 A7000000 		.4byte	0xa7
 2320 0ce6 09       		.byte	0x9
 2321 0ce7 08       		.uleb128 0x8
 2322 0ce8 00030000 		.4byte	.LASF197
 2323 0cec 16       		.byte	0x16
 2324 0ced 70       		.byte	0x70
 2325 0cee A7000000 		.4byte	0xa7
 2326 0cf2 0A       		.byte	0xa
 2327 0cf3 08       		.uleb128 0x8
 2328 0cf4 69070000 		.4byte	.LASF198
 2329 0cf8 16       		.byte	0x16
 2330 0cf9 73       		.byte	0x73
 2331 0cfa CD000000 		.4byte	0xcd
 2332 0cfe 0C       		.byte	0xc
 2333 0cff 00       		.byte	0
 2334 0d00 03       		.uleb128 0x3
 2335 0d01 BC090000 		.4byte	.LASF199
 2336 0d05 16       		.byte	0x16
 2337 0d06 75       		.byte	0x75
ARM GAS  /var/folders/3j/4xdnk5197cv_b7cw3n33qk7r0000gn/T//ccXtcaer.s 			page 42


 2338 0d07 8B0C0000 		.4byte	0xc8b
 2339 0d0b 06       		.uleb128 0x6
 2340 0d0c 000D0000 		.4byte	0xd00
 2341 0d10 0B       		.uleb128 0xb
 2342 0d11 04       		.byte	0x4
 2343 0d12 0B0D0000 		.4byte	0xd0b
 2344 0d16 0B       		.uleb128 0xb
 2345 0d17 04       		.byte	0x4
 2346 0d18 1C0D0000 		.4byte	0xd1c
 2347 0d1c 1B       		.uleb128 0x1b
 2348 0d1d 0F       		.uleb128 0xf
 2349 0d1e D4020000 		.4byte	.LASF200
 2350 0d22 16       		.byte	0x16
 2351 0d23 B6       		.byte	0xb6
 2352 0d24 FD0B0000 		.4byte	0xbfd
 2353 0d28 1C       		.uleb128 0x1c
 2354 0d29 7E080000 		.4byte	.LASF201
 2355 0d2d 01       		.byte	0x1
 2356 0d2e A901     		.2byte	0x1a9
 2357 0d30 00000000 		.4byte	.LFB22
 2358 0d34 04000000 		.4byte	.LFE22-.LFB22
 2359 0d38 01       		.uleb128 0x1
 2360 0d39 9C       		.byte	0x9c
 2361 0d3a 580D0000 		.4byte	0xd58
 2362 0d3e 1D       		.uleb128 0x1d
 2363 0d3f 74090000 		.4byte	.LASF203
 2364 0d43 01       		.byte	0x1
 2365 0d44 A901     		.2byte	0x1a9
 2366 0d46 850C0000 		.4byte	0xc85
 2367 0d4a 00000000 		.4byte	.LLST31
 2368 0d4e 1E       		.uleb128 0x1e
 2369 0d4f 04000000 		.4byte	.LVL37
 2370 0d53 3E120000 		.4byte	0x123e
 2371 0d57 00       		.byte	0
 2372 0d58 1C       		.uleb128 0x1c
 2373 0d59 AE090000 		.4byte	.LASF202
 2374 0d5d 01       		.byte	0x1
 2375 0d5e 9501     		.2byte	0x195
 2376 0d60 00000000 		.4byte	.LFB21
 2377 0d64 08000000 		.4byte	.LFE21-.LFB21
 2378 0d68 01       		.uleb128 0x1
 2379 0d69 9C       		.byte	0x9c
 2380 0d6a 920D0000 		.4byte	0xd92
 2381 0d6e 1D       		.uleb128 0x1d
 2382 0d6f 74090000 		.4byte	.LASF203
 2383 0d73 01       		.byte	0x1
 2384 0d74 9501     		.2byte	0x195
 2385 0d76 850C0000 		.4byte	0xc85
 2386 0d7a 21000000 		.4byte	.LLST30
 2387 0d7e 1F       		.uleb128 0x1f
 2388 0d7f 08000000 		.4byte	.LVL35
 2389 0d83 49120000 		.4byte	0x1249
 2390 0d87 20       		.uleb128 0x20
 2391 0d88 01       		.uleb128 0x1
 2392 0d89 50       		.byte	0x50
 2393 0d8a 05       		.uleb128 0x5
 2394 0d8b F3       		.byte	0xf3
ARM GAS  /var/folders/3j/4xdnk5197cv_b7cw3n33qk7r0000gn/T//ccXtcaer.s 			page 43


 2395 0d8c 01       		.uleb128 0x1
 2396 0d8d 50       		.byte	0x50
 2397 0d8e 23       		.byte	0x23
 2398 0d8f 0C       		.uleb128 0xc
 2399 0d90 00       		.byte	0
 2400 0d91 00       		.byte	0
 2401 0d92 1C       		.uleb128 0x1c
 2402 0d93 FA030000 		.4byte	.LASF204
 2403 0d97 01       		.byte	0x1
 2404 0d98 7A01     		.2byte	0x17a
 2405 0d9a 00000000 		.4byte	.LFB20
 2406 0d9e 38000000 		.4byte	.LFE20-.LFB20
 2407 0da2 01       		.uleb128 0x1
 2408 0da3 9C       		.byte	0x9c
 2409 0da4 080E0000 		.4byte	0xe08
 2410 0da8 1D       		.uleb128 0x1d
 2411 0da9 74090000 		.4byte	.LASF203
 2412 0dad 01       		.byte	0x1
 2413 0dae 7A01     		.2byte	0x17a
 2414 0db0 850C0000 		.4byte	0xc85
 2415 0db4 4F000000 		.4byte	.LLST27
 2416 0db8 21       		.uleb128 0x21
 2417 0db9 6E00     		.ascii	"n\000"
 2418 0dbb 01       		.byte	0x1
 2419 0dbc 7A01     		.2byte	0x17a
 2420 0dbe 2C000000 		.4byte	0x2c
 2421 0dc2 6D000000 		.4byte	.LLST28
 2422 0dc6 1D       		.uleb128 0x1d
 2423 0dc7 B6000000 		.4byte	.LASF157
 2424 0dcb 01       		.byte	0x1
 2425 0dcc 7A01     		.2byte	0x17a
 2426 0dce A9020000 		.4byte	0x2a9
 2427 0dd2 8E000000 		.4byte	.LLST29
 2428 0dd6 22       		.uleb128 0x22
 2429 0dd7 18000000 		.4byte	.LVL31
 2430 0ddb 54120000 		.4byte	0x1254
 2431 0ddf F80D0000 		.4byte	0xdf8
 2432 0de3 20       		.uleb128 0x20
 2433 0de4 01       		.uleb128 0x1
 2434 0de5 50       		.byte	0x50
 2435 0de6 02       		.uleb128 0x2
 2436 0de7 74       		.byte	0x74
 2437 0de8 00       		.sleb128 0
 2438 0de9 20       		.uleb128 0x20
 2439 0dea 01       		.uleb128 0x1
 2440 0deb 51       		.byte	0x51
 2441 0dec 03       		.uleb128 0x3
 2442 0ded F3       		.byte	0xf3
 2443 0dee 01       		.uleb128 0x1
 2444 0def 51       		.byte	0x51
 2445 0df0 20       		.uleb128 0x20
 2446 0df1 01       		.uleb128 0x1
 2447 0df2 52       		.byte	0x52
 2448 0df3 03       		.uleb128 0x3
 2449 0df4 F3       		.byte	0xf3
 2450 0df5 01       		.uleb128 0x1
 2451 0df6 52       		.byte	0x52
ARM GAS  /var/folders/3j/4xdnk5197cv_b7cw3n33qk7r0000gn/T//ccXtcaer.s 			page 44


 2452 0df7 00       		.byte	0
 2453 0df8 23       		.uleb128 0x23
 2454 0df9 2C000000 		.4byte	.LVL32
 2455 0dfd 5F120000 		.4byte	0x125f
 2456 0e01 20       		.uleb128 0x20
 2457 0e02 01       		.uleb128 0x1
 2458 0e03 50       		.byte	0x50
 2459 0e04 01       		.uleb128 0x1
 2460 0e05 32       		.byte	0x32
 2461 0e06 00       		.byte	0
 2462 0e07 00       		.byte	0
 2463 0e08 1C       		.uleb128 0x1c
 2464 0e09 8E060000 		.4byte	.LASF205
 2465 0e0d 01       		.byte	0x1
 2466 0e0e 5E01     		.2byte	0x15e
 2467 0e10 00000000 		.4byte	.LFB19
 2468 0e14 38000000 		.4byte	.LFE19-.LFB19
 2469 0e18 01       		.uleb128 0x1
 2470 0e19 9C       		.byte	0x9c
 2471 0e1a 7E0E0000 		.4byte	0xe7e
 2472 0e1e 1D       		.uleb128 0x1d
 2473 0e1f 74090000 		.4byte	.LASF203
 2474 0e23 01       		.byte	0x1
 2475 0e24 5E01     		.2byte	0x15e
 2476 0e26 850C0000 		.4byte	0xc85
 2477 0e2a AF000000 		.4byte	.LLST24
 2478 0e2e 21       		.uleb128 0x21
 2479 0e2f 6E00     		.ascii	"n\000"
 2480 0e31 01       		.byte	0x1
 2481 0e32 5E01     		.2byte	0x15e
 2482 0e34 2C000000 		.4byte	0x2c
 2483 0e38 CD000000 		.4byte	.LLST25
 2484 0e3c 1D       		.uleb128 0x1d
 2485 0e3d E4030000 		.4byte	.LASF154
 2486 0e41 01       		.byte	0x1
 2487 0e42 5E01     		.2byte	0x15e
 2488 0e44 160D0000 		.4byte	0xd16
 2489 0e48 EE000000 		.4byte	.LLST26
 2490 0e4c 22       		.uleb128 0x22
 2491 0e4d 18000000 		.4byte	.LVL28
 2492 0e51 6A120000 		.4byte	0x126a
 2493 0e55 6E0E0000 		.4byte	0xe6e
 2494 0e59 20       		.uleb128 0x20
 2495 0e5a 01       		.uleb128 0x1
 2496 0e5b 50       		.byte	0x50
 2497 0e5c 02       		.uleb128 0x2
 2498 0e5d 74       		.byte	0x74
 2499 0e5e 00       		.sleb128 0
 2500 0e5f 20       		.uleb128 0x20
 2501 0e60 01       		.uleb128 0x1
 2502 0e61 51       		.byte	0x51
 2503 0e62 03       		.uleb128 0x3
 2504 0e63 F3       		.byte	0xf3
 2505 0e64 01       		.uleb128 0x1
 2506 0e65 51       		.byte	0x51
 2507 0e66 20       		.uleb128 0x20
 2508 0e67 01       		.uleb128 0x1
ARM GAS  /var/folders/3j/4xdnk5197cv_b7cw3n33qk7r0000gn/T//ccXtcaer.s 			page 45


 2509 0e68 52       		.byte	0x52
 2510 0e69 03       		.uleb128 0x3
 2511 0e6a F3       		.byte	0xf3
 2512 0e6b 01       		.uleb128 0x1
 2513 0e6c 52       		.byte	0x52
 2514 0e6d 00       		.byte	0
 2515 0e6e 23       		.uleb128 0x23
 2516 0e6f 2C000000 		.4byte	.LVL29
 2517 0e73 5F120000 		.4byte	0x125f
 2518 0e77 20       		.uleb128 0x20
 2519 0e78 01       		.uleb128 0x1
 2520 0e79 50       		.byte	0x50
 2521 0e7a 01       		.uleb128 0x1
 2522 0e7b 32       		.byte	0x32
 2523 0e7c 00       		.byte	0
 2524 0e7d 00       		.byte	0
 2525 0e7e 1C       		.uleb128 0x1c
 2526 0e7f 51050000 		.4byte	.LASF206
 2527 0e83 01       		.byte	0x1
 2528 0e84 3F01     		.2byte	0x13f
 2529 0e86 00000000 		.4byte	.LFB18
 2530 0e8a 38000000 		.4byte	.LFE18-.LFB18
 2531 0e8e 01       		.uleb128 0x1
 2532 0e8f 9C       		.byte	0x9c
 2533 0e90 0B0F0000 		.4byte	0xf0b
 2534 0e94 1D       		.uleb128 0x1d
 2535 0e95 74090000 		.4byte	.LASF203
 2536 0e99 01       		.byte	0x1
 2537 0e9a 3F01     		.2byte	0x13f
 2538 0e9c 850C0000 		.4byte	0xc85
 2539 0ea0 0F010000 		.4byte	.LLST20
 2540 0ea4 21       		.uleb128 0x21
 2541 0ea5 6E00     		.ascii	"n\000"
 2542 0ea7 01       		.byte	0x1
 2543 0ea8 3F01     		.2byte	0x13f
 2544 0eaa 2C000000 		.4byte	0x2c
 2545 0eae 2D010000 		.4byte	.LLST21
 2546 0eb2 1D       		.uleb128 0x1d
 2547 0eb3 E4030000 		.4byte	.LASF154
 2548 0eb7 01       		.byte	0x1
 2549 0eb8 4001     		.2byte	0x140
 2550 0eba 160D0000 		.4byte	0xd16
 2551 0ebe 4E010000 		.4byte	.LLST22
 2552 0ec2 1D       		.uleb128 0x1d
 2553 0ec3 B6000000 		.4byte	.LASF157
 2554 0ec7 01       		.byte	0x1
 2555 0ec8 4001     		.2byte	0x140
 2556 0eca A9020000 		.4byte	0x2a9
 2557 0ece 6F010000 		.4byte	.LLST23
 2558 0ed2 22       		.uleb128 0x22
 2559 0ed3 18000000 		.4byte	.LVL25
 2560 0ed7 75120000 		.4byte	0x1275
 2561 0edb FB0E0000 		.4byte	0xefb
 2562 0edf 20       		.uleb128 0x20
 2563 0ee0 01       		.uleb128 0x1
 2564 0ee1 50       		.byte	0x50
 2565 0ee2 02       		.uleb128 0x2
ARM GAS  /var/folders/3j/4xdnk5197cv_b7cw3n33qk7r0000gn/T//ccXtcaer.s 			page 46


 2566 0ee3 74       		.byte	0x74
 2567 0ee4 00       		.sleb128 0
 2568 0ee5 20       		.uleb128 0x20
 2569 0ee6 01       		.uleb128 0x1
 2570 0ee7 51       		.byte	0x51
 2571 0ee8 03       		.uleb128 0x3
 2572 0ee9 F3       		.byte	0xf3
 2573 0eea 01       		.uleb128 0x1
 2574 0eeb 51       		.byte	0x51
 2575 0eec 20       		.uleb128 0x20
 2576 0eed 01       		.uleb128 0x1
 2577 0eee 52       		.byte	0x52
 2578 0eef 03       		.uleb128 0x3
 2579 0ef0 F3       		.byte	0xf3
 2580 0ef1 01       		.uleb128 0x1
 2581 0ef2 52       		.byte	0x52
 2582 0ef3 20       		.uleb128 0x20
 2583 0ef4 01       		.uleb128 0x1
 2584 0ef5 53       		.byte	0x53
 2585 0ef6 03       		.uleb128 0x3
 2586 0ef7 F3       		.byte	0xf3
 2587 0ef8 01       		.uleb128 0x1
 2588 0ef9 53       		.byte	0x53
 2589 0efa 00       		.byte	0
 2590 0efb 23       		.uleb128 0x23
 2591 0efc 2C000000 		.4byte	.LVL26
 2592 0f00 5F120000 		.4byte	0x125f
 2593 0f04 20       		.uleb128 0x20
 2594 0f05 01       		.uleb128 0x1
 2595 0f06 50       		.byte	0x50
 2596 0f07 01       		.uleb128 0x1
 2597 0f08 32       		.byte	0x32
 2598 0f09 00       		.byte	0
 2599 0f0a 00       		.byte	0
 2600 0f0b 1C       		.uleb128 0x1c
 2601 0f0c 8C080000 		.4byte	.LASF207
 2602 0f10 01       		.byte	0x1
 2603 0f11 2101     		.2byte	0x121
 2604 0f13 00000000 		.4byte	.LFB17
 2605 0f17 38000000 		.4byte	.LFE17-.LFB17
 2606 0f1b 01       		.uleb128 0x1
 2607 0f1c 9C       		.byte	0x9c
 2608 0f1d 6A0F0000 		.4byte	0xf6a
 2609 0f21 1D       		.uleb128 0x1d
 2610 0f22 74090000 		.4byte	.LASF203
 2611 0f26 01       		.byte	0x1
 2612 0f27 2101     		.2byte	0x121
 2613 0f29 850C0000 		.4byte	0xc85
 2614 0f2d 90010000 		.4byte	.LLST18
 2615 0f31 21       		.uleb128 0x21
 2616 0f32 6E00     		.ascii	"n\000"
 2617 0f34 01       		.byte	0x1
 2618 0f35 2101     		.2byte	0x121
 2619 0f37 2C000000 		.4byte	0x2c
 2620 0f3b AE010000 		.4byte	.LLST19
 2621 0f3f 22       		.uleb128 0x22
 2622 0f40 18000000 		.4byte	.LVL22
ARM GAS  /var/folders/3j/4xdnk5197cv_b7cw3n33qk7r0000gn/T//ccXtcaer.s 			page 47


 2623 0f44 80120000 		.4byte	0x1280
 2624 0f48 5A0F0000 		.4byte	0xf5a
 2625 0f4c 20       		.uleb128 0x20
 2626 0f4d 01       		.uleb128 0x1
 2627 0f4e 50       		.byte	0x50
 2628 0f4f 02       		.uleb128 0x2
 2629 0f50 74       		.byte	0x74
 2630 0f51 00       		.sleb128 0
 2631 0f52 20       		.uleb128 0x20
 2632 0f53 01       		.uleb128 0x1
 2633 0f54 51       		.byte	0x51
 2634 0f55 03       		.uleb128 0x3
 2635 0f56 F3       		.byte	0xf3
 2636 0f57 01       		.uleb128 0x1
 2637 0f58 51       		.byte	0x51
 2638 0f59 00       		.byte	0
 2639 0f5a 23       		.uleb128 0x23
 2640 0f5b 2C000000 		.4byte	.LVL23
 2641 0f5f 5F120000 		.4byte	0x125f
 2642 0f63 20       		.uleb128 0x20
 2643 0f64 01       		.uleb128 0x1
 2644 0f65 50       		.byte	0x50
 2645 0f66 01       		.uleb128 0x1
 2646 0f67 32       		.byte	0x32
 2647 0f68 00       		.byte	0
 2648 0f69 00       		.byte	0
 2649 0f6a 1C       		.uleb128 0x1c
 2650 0f6b 9B020000 		.4byte	.LASF208
 2651 0f6f 01       		.byte	0x1
 2652 0f70 0701     		.2byte	0x107
 2653 0f72 00000000 		.4byte	.LFB16
 2654 0f76 1C000000 		.4byte	.LFE16-.LFB16
 2655 0f7a 01       		.uleb128 0x1
 2656 0f7b 9C       		.byte	0x9c
 2657 0f7c CE0F0000 		.4byte	0xfce
 2658 0f80 1D       		.uleb128 0x1d
 2659 0f81 74090000 		.4byte	.LASF203
 2660 0f85 01       		.byte	0x1
 2661 0f86 0701     		.2byte	0x107
 2662 0f88 850C0000 		.4byte	0xc85
 2663 0f8c CF010000 		.4byte	.LLST15
 2664 0f90 21       		.uleb128 0x21
 2665 0f91 6E00     		.ascii	"n\000"
 2666 0f93 01       		.byte	0x1
 2667 0f94 0701     		.2byte	0x107
 2668 0f96 2C000000 		.4byte	0x2c
 2669 0f9a F0010000 		.4byte	.LLST16
 2670 0f9e 1D       		.uleb128 0x1d
 2671 0f9f B6000000 		.4byte	.LASF157
 2672 0fa3 01       		.byte	0x1
 2673 0fa4 0701     		.2byte	0x107
 2674 0fa6 A9020000 		.4byte	0x2a9
 2675 0faa 11020000 		.4byte	.LLST17
 2676 0fae 23       		.uleb128 0x23
 2677 0faf 14000000 		.4byte	.LVL20
 2678 0fb3 54120000 		.4byte	0x1254
 2679 0fb7 20       		.uleb128 0x20
ARM GAS  /var/folders/3j/4xdnk5197cv_b7cw3n33qk7r0000gn/T//ccXtcaer.s 			page 48


 2680 0fb8 01       		.uleb128 0x1
 2681 0fb9 50       		.byte	0x50
 2682 0fba 03       		.uleb128 0x3
 2683 0fbb F3       		.byte	0xf3
 2684 0fbc 01       		.uleb128 0x1
 2685 0fbd 50       		.byte	0x50
 2686 0fbe 20       		.uleb128 0x20
 2687 0fbf 01       		.uleb128 0x1
 2688 0fc0 51       		.byte	0x51
 2689 0fc1 03       		.uleb128 0x3
 2690 0fc2 F3       		.byte	0xf3
 2691 0fc3 01       		.uleb128 0x1
 2692 0fc4 51       		.byte	0x51
 2693 0fc5 20       		.uleb128 0x20
 2694 0fc6 01       		.uleb128 0x1
 2695 0fc7 52       		.byte	0x52
 2696 0fc8 03       		.uleb128 0x3
 2697 0fc9 F3       		.byte	0xf3
 2698 0fca 01       		.uleb128 0x1
 2699 0fcb 52       		.byte	0x52
 2700 0fcc 00       		.byte	0
 2701 0fcd 00       		.byte	0
 2702 0fce 24       		.uleb128 0x24
 2703 0fcf 71080000 		.4byte	.LASF209
 2704 0fd3 01       		.byte	0x1
 2705 0fd4 ED       		.byte	0xed
 2706 0fd5 00000000 		.4byte	.LFB15
 2707 0fd9 1C000000 		.4byte	.LFE15-.LFB15
 2708 0fdd 01       		.uleb128 0x1
 2709 0fde 9C       		.byte	0x9c
 2710 0fdf 2E100000 		.4byte	0x102e
 2711 0fe3 25       		.uleb128 0x25
 2712 0fe4 74090000 		.4byte	.LASF203
 2713 0fe8 01       		.byte	0x1
 2714 0fe9 ED       		.byte	0xed
 2715 0fea 850C0000 		.4byte	0xc85
 2716 0fee 32020000 		.4byte	.LLST12
 2717 0ff2 26       		.uleb128 0x26
 2718 0ff3 6E00     		.ascii	"n\000"
 2719 0ff5 01       		.byte	0x1
 2720 0ff6 ED       		.byte	0xed
 2721 0ff7 2C000000 		.4byte	0x2c
 2722 0ffb 53020000 		.4byte	.LLST13
 2723 0fff 25       		.uleb128 0x25
 2724 1000 E4030000 		.4byte	.LASF154
 2725 1004 01       		.byte	0x1
 2726 1005 ED       		.byte	0xed
 2727 1006 160D0000 		.4byte	0xd16
 2728 100a 74020000 		.4byte	.LLST14
 2729 100e 23       		.uleb128 0x23
 2730 100f 14000000 		.4byte	.LVL18
 2731 1013 6A120000 		.4byte	0x126a
 2732 1017 20       		.uleb128 0x20
 2733 1018 01       		.uleb128 0x1
 2734 1019 50       		.byte	0x50
 2735 101a 03       		.uleb128 0x3
 2736 101b F3       		.byte	0xf3
ARM GAS  /var/folders/3j/4xdnk5197cv_b7cw3n33qk7r0000gn/T//ccXtcaer.s 			page 49


 2737 101c 01       		.uleb128 0x1
 2738 101d 50       		.byte	0x50
 2739 101e 20       		.uleb128 0x20
 2740 101f 01       		.uleb128 0x1
 2741 1020 51       		.byte	0x51
 2742 1021 03       		.uleb128 0x3
 2743 1022 F3       		.byte	0xf3
 2744 1023 01       		.uleb128 0x1
 2745 1024 51       		.byte	0x51
 2746 1025 20       		.uleb128 0x20
 2747 1026 01       		.uleb128 0x1
 2748 1027 52       		.byte	0x52
 2749 1028 03       		.uleb128 0x3
 2750 1029 F3       		.byte	0xf3
 2751 102a 01       		.uleb128 0x1
 2752 102b 52       		.byte	0x52
 2753 102c 00       		.byte	0
 2754 102d 00       		.byte	0
 2755 102e 24       		.uleb128 0x24
 2756 102f D9000000 		.4byte	.LASF210
 2757 1033 01       		.byte	0x1
 2758 1034 D2       		.byte	0xd2
 2759 1035 00000000 		.4byte	.LFB14
 2760 1039 1C000000 		.4byte	.LFE14-.LFB14
 2761 103d 01       		.uleb128 0x1
 2762 103e 9C       		.byte	0x9c
 2763 103f A4100000 		.4byte	0x10a4
 2764 1043 25       		.uleb128 0x25
 2765 1044 74090000 		.4byte	.LASF203
 2766 1048 01       		.byte	0x1
 2767 1049 D2       		.byte	0xd2
 2768 104a 850C0000 		.4byte	0xc85
 2769 104e 95020000 		.4byte	.LLST8
 2770 1052 26       		.uleb128 0x26
 2771 1053 6E00     		.ascii	"n\000"
 2772 1055 01       		.byte	0x1
 2773 1056 D2       		.byte	0xd2
 2774 1057 2C000000 		.4byte	0x2c
 2775 105b B6020000 		.4byte	.LLST9
 2776 105f 25       		.uleb128 0x25
 2777 1060 E4030000 		.4byte	.LASF154
 2778 1064 01       		.byte	0x1
 2779 1065 D3       		.byte	0xd3
 2780 1066 160D0000 		.4byte	0xd16
 2781 106a D7020000 		.4byte	.LLST10
 2782 106e 25       		.uleb128 0x25
 2783 106f B6000000 		.4byte	.LASF157
 2784 1073 01       		.byte	0x1
 2785 1074 D3       		.byte	0xd3
 2786 1075 A9020000 		.4byte	0x2a9
 2787 1079 F8020000 		.4byte	.LLST11
 2788 107d 23       		.uleb128 0x23
 2789 107e 14000000 		.4byte	.LVL16
 2790 1082 75120000 		.4byte	0x1275
 2791 1086 20       		.uleb128 0x20
 2792 1087 01       		.uleb128 0x1
 2793 1088 50       		.byte	0x50
ARM GAS  /var/folders/3j/4xdnk5197cv_b7cw3n33qk7r0000gn/T//ccXtcaer.s 			page 50


 2794 1089 03       		.uleb128 0x3
 2795 108a F3       		.byte	0xf3
 2796 108b 01       		.uleb128 0x1
 2797 108c 50       		.byte	0x50
 2798 108d 20       		.uleb128 0x20
 2799 108e 01       		.uleb128 0x1
 2800 108f 51       		.byte	0x51
 2801 1090 03       		.uleb128 0x3
 2802 1091 F3       		.byte	0xf3
 2803 1092 01       		.uleb128 0x1
 2804 1093 51       		.byte	0x51
 2805 1094 20       		.uleb128 0x20
 2806 1095 01       		.uleb128 0x1
 2807 1096 52       		.byte	0x52
 2808 1097 03       		.uleb128 0x3
 2809 1098 F3       		.byte	0xf3
 2810 1099 01       		.uleb128 0x1
 2811 109a 52       		.byte	0x52
 2812 109b 20       		.uleb128 0x20
 2813 109c 01       		.uleb128 0x1
 2814 109d 53       		.byte	0x53
 2815 109e 03       		.uleb128 0x3
 2816 109f F3       		.byte	0xf3
 2817 10a0 01       		.uleb128 0x1
 2818 10a1 53       		.byte	0x53
 2819 10a2 00       		.byte	0
 2820 10a3 00       		.byte	0
 2821 10a4 24       		.uleb128 0x24
 2822 10a5 D9020000 		.4byte	.LASF211
 2823 10a9 01       		.byte	0x1
 2824 10aa B7       		.byte	0xb7
 2825 10ab 00000000 		.4byte	.LFB13
 2826 10af 1C000000 		.4byte	.LFE13-.LFB13
 2827 10b3 01       		.uleb128 0x1
 2828 10b4 9C       		.byte	0x9c
 2829 10b5 EE100000 		.4byte	0x10ee
 2830 10b9 25       		.uleb128 0x25
 2831 10ba 74090000 		.4byte	.LASF203
 2832 10be 01       		.byte	0x1
 2833 10bf B7       		.byte	0xb7
 2834 10c0 850C0000 		.4byte	0xc85
 2835 10c4 19030000 		.4byte	.LLST6
 2836 10c8 26       		.uleb128 0x26
 2837 10c9 6E00     		.ascii	"n\000"
 2838 10cb 01       		.byte	0x1
 2839 10cc B7       		.byte	0xb7
 2840 10cd 2C000000 		.4byte	0x2c
 2841 10d1 3A030000 		.4byte	.LLST7
 2842 10d5 23       		.uleb128 0x23
 2843 10d6 14000000 		.4byte	.LVL14
 2844 10da 80120000 		.4byte	0x1280
 2845 10de 20       		.uleb128 0x20
 2846 10df 01       		.uleb128 0x1
 2847 10e0 50       		.byte	0x50
 2848 10e1 03       		.uleb128 0x3
 2849 10e2 F3       		.byte	0xf3
 2850 10e3 01       		.uleb128 0x1
ARM GAS  /var/folders/3j/4xdnk5197cv_b7cw3n33qk7r0000gn/T//ccXtcaer.s 			page 51


 2851 10e4 50       		.byte	0x50
 2852 10e5 20       		.uleb128 0x20
 2853 10e6 01       		.uleb128 0x1
 2854 10e7 51       		.byte	0x51
 2855 10e8 03       		.uleb128 0x3
 2856 10e9 F3       		.byte	0xf3
 2857 10ea 01       		.uleb128 0x1
 2858 10eb 51       		.byte	0x51
 2859 10ec 00       		.byte	0
 2860 10ed 00       		.byte	0
 2861 10ee 24       		.uleb128 0x24
 2862 10ef CF040000 		.4byte	.LASF212
 2863 10f3 01       		.byte	0x1
 2864 10f4 A0       		.byte	0xa0
 2865 10f5 00000000 		.4byte	.LFB12
 2866 10f9 14000000 		.4byte	.LFE12-.LFB12
 2867 10fd 01       		.uleb128 0x1
 2868 10fe 9C       		.byte	0x9c
 2869 10ff 24110000 		.4byte	0x1124
 2870 1103 25       		.uleb128 0x25
 2871 1104 74090000 		.4byte	.LASF203
 2872 1108 01       		.byte	0x1
 2873 1109 A0       		.byte	0xa0
 2874 110a 850C0000 		.4byte	0xc85
 2875 110e 5B030000 		.4byte	.LLST5
 2876 1112 23       		.uleb128 0x23
 2877 1113 0C000000 		.4byte	.LVL12
 2878 1117 8B120000 		.4byte	0x128b
 2879 111b 20       		.uleb128 0x20
 2880 111c 01       		.uleb128 0x1
 2881 111d 50       		.byte	0x50
 2882 111e 03       		.uleb128 0x3
 2883 111f F3       		.byte	0xf3
 2884 1120 01       		.uleb128 0x1
 2885 1121 50       		.byte	0x50
 2886 1122 00       		.byte	0
 2887 1123 00       		.byte	0
 2888 1124 24       		.uleb128 0x24
 2889 1125 C9080000 		.4byte	.LASF213
 2890 1129 01       		.byte	0x1
 2891 112a 8E       		.byte	0x8e
 2892 112b 00000000 		.4byte	.LFB11
 2893 112f 14000000 		.4byte	.LFE11-.LFB11
 2894 1133 01       		.uleb128 0x1
 2895 1134 9C       		.byte	0x9c
 2896 1135 5A110000 		.4byte	0x115a
 2897 1139 25       		.uleb128 0x25
 2898 113a 74090000 		.4byte	.LASF203
 2899 113e 01       		.byte	0x1
 2900 113f 8E       		.byte	0x8e
 2901 1140 850C0000 		.4byte	0xc85
 2902 1144 7C030000 		.4byte	.LLST4
 2903 1148 23       		.uleb128 0x23
 2904 1149 0C000000 		.4byte	.LVL10
 2905 114d 96120000 		.4byte	0x1296
 2906 1151 20       		.uleb128 0x20
 2907 1152 01       		.uleb128 0x1
ARM GAS  /var/folders/3j/4xdnk5197cv_b7cw3n33qk7r0000gn/T//ccXtcaer.s 			page 52


 2908 1153 50       		.byte	0x50
 2909 1154 03       		.uleb128 0x3
 2910 1155 F3       		.byte	0xf3
 2911 1156 01       		.uleb128 0x1
 2912 1157 50       		.byte	0x50
 2913 1158 00       		.byte	0
 2914 1159 00       		.byte	0
 2915 115a 24       		.uleb128 0x24
 2916 115b AE000000 		.4byte	.LASF214
 2917 115f 01       		.byte	0x1
 2918 1160 7A       		.byte	0x7a
 2919 1161 00000000 		.4byte	.LFB10
 2920 1165 28000000 		.4byte	.LFE10-.LFB10
 2921 1169 01       		.uleb128 0x1
 2922 116a 9C       		.byte	0x9c
 2923 116b A3110000 		.4byte	0x11a3
 2924 116f 25       		.uleb128 0x25
 2925 1170 74090000 		.4byte	.LASF203
 2926 1174 01       		.byte	0x1
 2927 1175 7A       		.byte	0x7a
 2928 1176 850C0000 		.4byte	0xc85
 2929 117a 9D030000 		.4byte	.LLST3
 2930 117e 22       		.uleb128 0x22
 2931 117f 10000000 		.4byte	.LVL7
 2932 1183 8B120000 		.4byte	0x128b
 2933 1187 92110000 		.4byte	0x1192
 2934 118b 20       		.uleb128 0x20
 2935 118c 01       		.uleb128 0x1
 2936 118d 50       		.byte	0x50
 2937 118e 02       		.uleb128 0x2
 2938 118f 74       		.byte	0x74
 2939 1190 00       		.sleb128 0
 2940 1191 00       		.byte	0
 2941 1192 23       		.uleb128 0x23
 2942 1193 18000000 		.4byte	.LVL8
 2943 1197 A1120000 		.4byte	0x12a1
 2944 119b 20       		.uleb128 0x20
 2945 119c 01       		.uleb128 0x1
 2946 119d 50       		.byte	0x50
 2947 119e 02       		.uleb128 0x2
 2948 119f 74       		.byte	0x74
 2949 11a0 00       		.sleb128 0
 2950 11a1 00       		.byte	0
 2951 11a2 00       		.byte	0
 2952 11a3 24       		.uleb128 0x24
 2953 11a4 C0080000 		.4byte	.LASF215
 2954 11a8 01       		.byte	0x1
 2955 11a9 64       		.byte	0x64
 2956 11aa 00000000 		.4byte	.LFB9
 2957 11ae 24000000 		.4byte	.LFE9-.LFB9
 2958 11b2 01       		.uleb128 0x1
 2959 11b3 9C       		.byte	0x9c
 2960 11b4 E7110000 		.4byte	0x11e7
 2961 11b8 25       		.uleb128 0x25
 2962 11b9 74090000 		.4byte	.LASF203
 2963 11bd 01       		.byte	0x1
 2964 11be 64       		.byte	0x64
ARM GAS  /var/folders/3j/4xdnk5197cv_b7cw3n33qk7r0000gn/T//ccXtcaer.s 			page 53


 2965 11bf 850C0000 		.4byte	0xc85
 2966 11c3 BB030000 		.4byte	.LLST1
 2967 11c7 25       		.uleb128 0x25
 2968 11c8 1F080000 		.4byte	.LASF148
 2969 11cc 01       		.byte	0x1
 2970 11cd 64       		.byte	0x64
 2971 11ce 100D0000 		.4byte	0xd10
 2972 11d2 D9030000 		.4byte	.LLST2
 2973 11d6 23       		.uleb128 0x23
 2974 11d7 14000000 		.4byte	.LVL5
 2975 11db AC120000 		.4byte	0x12ac
 2976 11df 20       		.uleb128 0x20
 2977 11e0 01       		.uleb128 0x1
 2978 11e1 50       		.byte	0x50
 2979 11e2 02       		.uleb128 0x2
 2980 11e3 74       		.byte	0x74
 2981 11e4 00       		.sleb128 0
 2982 11e5 00       		.byte	0
 2983 11e6 00       		.byte	0
 2984 11e7 24       		.uleb128 0x24
 2985 11e8 0B010000 		.4byte	.LASF216
 2986 11ec 01       		.byte	0x1
 2987 11ed 49       		.byte	0x49
 2988 11ee 00000000 		.4byte	.LFB8
 2989 11f2 1C000000 		.4byte	.LFE8-.LFB8
 2990 11f6 01       		.uleb128 0x1
 2991 11f7 9C       		.byte	0x9c
 2992 11f8 1F120000 		.4byte	0x121f
 2993 11fc 25       		.uleb128 0x25
 2994 11fd 74090000 		.4byte	.LASF203
 2995 1201 01       		.byte	0x1
 2996 1202 49       		.byte	0x49
 2997 1203 850C0000 		.4byte	0xc85
 2998 1207 FA030000 		.4byte	.LLST0
 2999 120b 1F       		.uleb128 0x1f
 3000 120c 1C000000 		.4byte	.LVL3
 3001 1210 B7120000 		.4byte	0x12b7
 3002 1214 20       		.uleb128 0x20
 3003 1215 01       		.uleb128 0x1
 3004 1216 50       		.byte	0x50
 3005 1217 05       		.uleb128 0x5
 3006 1218 F3       		.byte	0xf3
 3007 1219 01       		.uleb128 0x1
 3008 121a 50       		.byte	0x50
 3009 121b 23       		.byte	0x23
 3010 121c 0C       		.uleb128 0xc
 3011 121d 00       		.byte	0
 3012 121e 00       		.byte	0
 3013 121f 24       		.uleb128 0x24
 3014 1220 2A050000 		.4byte	.LASF217
 3015 1224 01       		.byte	0x1
 3016 1225 3D       		.byte	0x3d
 3017 1226 00000000 		.4byte	.LFB7
 3018 122a 04000000 		.4byte	.LFE7-.LFB7
 3019 122e 01       		.uleb128 0x1
 3020 122f 9C       		.byte	0x9c
 3021 1230 3E120000 		.4byte	0x123e
ARM GAS  /var/folders/3j/4xdnk5197cv_b7cw3n33qk7r0000gn/T//ccXtcaer.s 			page 54


 3022 1234 1E       		.uleb128 0x1e
 3023 1235 04000000 		.4byte	.LVL0
 3024 1239 C2120000 		.4byte	0x12c2
 3025 123d 00       		.byte	0
 3026 123e 27       		.uleb128 0x27
 3027 123f 19010000 		.4byte	.LASF218
 3028 1243 19010000 		.4byte	.LASF218
 3029 1247 0B       		.byte	0xb
 3030 1248 36       		.byte	0x36
 3031 1249 27       		.uleb128 0x27
 3032 124a C9050000 		.4byte	.LASF219
 3033 124e C9050000 		.4byte	.LASF219
 3034 1252 0B       		.byte	0xb
 3035 1253 32       		.byte	0x32
 3036 1254 27       		.uleb128 0x27
 3037 1255 BF030000 		.4byte	.LASF220
 3038 1259 BF030000 		.4byte	.LASF220
 3039 125d 16       		.byte	0x16
 3040 125e C1       		.byte	0xc1
 3041 125f 27       		.uleb128 0x27
 3042 1260 8F070000 		.4byte	.LASF221
 3043 1264 8F070000 		.4byte	.LASF221
 3044 1268 0A       		.byte	0xa
 3045 1269 8C       		.byte	0x8c
 3046 126a 27       		.uleb128 0x27
 3047 126b B2030000 		.4byte	.LASF222
 3048 126f B2030000 		.4byte	.LASF222
 3049 1273 16       		.byte	0x16
 3050 1274 C0       		.byte	0xc0
 3051 1275 27       		.uleb128 0x27
 3052 1276 9F040000 		.4byte	.LASF223
 3053 127a 9F040000 		.4byte	.LASF223
 3054 127e 16       		.byte	0x16
 3055 127f BE       		.byte	0xbe
 3056 1280 27       		.uleb128 0x27
 3057 1281 31080000 		.4byte	.LASF224
 3058 1285 31080000 		.4byte	.LASF224
 3059 1289 16       		.byte	0x16
 3060 128a BD       		.byte	0xbd
 3061 128b 27       		.uleb128 0x27
 3062 128c 51070000 		.4byte	.LASF225
 3063 1290 51070000 		.4byte	.LASF225
 3064 1294 16       		.byte	0x16
 3065 1295 BC       		.byte	0xbc
 3066 1296 27       		.uleb128 0x27
 3067 1297 44060000 		.4byte	.LASF226
 3068 129b 44060000 		.4byte	.LASF226
 3069 129f 16       		.byte	0x16
 3070 12a0 BB       		.byte	0xbb
 3071 12a1 27       		.uleb128 0x27
 3072 12a2 A7050000 		.4byte	.LASF227
 3073 12a6 A7050000 		.4byte	.LASF227
 3074 12aa 16       		.byte	0x16
 3075 12ab BA       		.byte	0xba
 3076 12ac 27       		.uleb128 0x27
 3077 12ad 6E050000 		.4byte	.LASF228
 3078 12b1 6E050000 		.4byte	.LASF228
ARM GAS  /var/folders/3j/4xdnk5197cv_b7cw3n33qk7r0000gn/T//ccXtcaer.s 			page 55


 3079 12b5 16       		.byte	0x16
 3080 12b6 B9       		.byte	0xb9
 3081 12b7 27       		.uleb128 0x27
 3082 12b8 0A090000 		.4byte	.LASF229
 3083 12bc 0A090000 		.4byte	.LASF229
 3084 12c0 0B       		.byte	0xb
 3085 12c1 31       		.byte	0x31
 3086 12c2 27       		.uleb128 0x27
 3087 12c3 A1010000 		.4byte	.LASF230
 3088 12c7 A1010000 		.4byte	.LASF230
 3089 12cb 16       		.byte	0x16
 3090 12cc B8       		.byte	0xb8
 3091 12cd 00       		.byte	0
 3092              		.section	.debug_abbrev,"",%progbits
 3093              	.Ldebug_abbrev0:
 3094 0000 01       		.uleb128 0x1
 3095 0001 11       		.uleb128 0x11
 3096 0002 01       		.byte	0x1
 3097 0003 25       		.uleb128 0x25
 3098 0004 0E       		.uleb128 0xe
 3099 0005 13       		.uleb128 0x13
 3100 0006 0B       		.uleb128 0xb
 3101 0007 03       		.uleb128 0x3
 3102 0008 0E       		.uleb128 0xe
 3103 0009 1B       		.uleb128 0x1b
 3104 000a 0E       		.uleb128 0xe
 3105 000b 55       		.uleb128 0x55
 3106 000c 17       		.uleb128 0x17
 3107 000d 11       		.uleb128 0x11
 3108 000e 01       		.uleb128 0x1
 3109 000f 10       		.uleb128 0x10
 3110 0010 17       		.uleb128 0x17
 3111 0011 00       		.byte	0
 3112 0012 00       		.byte	0
 3113 0013 02       		.uleb128 0x2
 3114 0014 24       		.uleb128 0x24
 3115 0015 00       		.byte	0
 3116 0016 0B       		.uleb128 0xb
 3117 0017 0B       		.uleb128 0xb
 3118 0018 3E       		.uleb128 0x3e
 3119 0019 0B       		.uleb128 0xb
 3120 001a 03       		.uleb128 0x3
 3121 001b 08       		.uleb128 0x8
 3122 001c 00       		.byte	0
 3123 001d 00       		.byte	0
 3124 001e 03       		.uleb128 0x3
 3125 001f 16       		.uleb128 0x16
 3126 0020 00       		.byte	0
 3127 0021 03       		.uleb128 0x3
 3128 0022 0E       		.uleb128 0xe
 3129 0023 3A       		.uleb128 0x3a
 3130 0024 0B       		.uleb128 0xb
 3131 0025 3B       		.uleb128 0x3b
 3132 0026 0B       		.uleb128 0xb
 3133 0027 49       		.uleb128 0x49
 3134 0028 13       		.uleb128 0x13
 3135 0029 00       		.byte	0
ARM GAS  /var/folders/3j/4xdnk5197cv_b7cw3n33qk7r0000gn/T//ccXtcaer.s 			page 56


 3136 002a 00       		.byte	0
 3137 002b 04       		.uleb128 0x4
 3138 002c 24       		.uleb128 0x24
 3139 002d 00       		.byte	0
 3140 002e 0B       		.uleb128 0xb
 3141 002f 0B       		.uleb128 0xb
 3142 0030 3E       		.uleb128 0x3e
 3143 0031 0B       		.uleb128 0xb
 3144 0032 03       		.uleb128 0x3
 3145 0033 0E       		.uleb128 0xe
 3146 0034 00       		.byte	0
 3147 0035 00       		.byte	0
 3148 0036 05       		.uleb128 0x5
 3149 0037 35       		.uleb128 0x35
 3150 0038 00       		.byte	0
 3151 0039 49       		.uleb128 0x49
 3152 003a 13       		.uleb128 0x13
 3153 003b 00       		.byte	0
 3154 003c 00       		.byte	0
 3155 003d 06       		.uleb128 0x6
 3156 003e 26       		.uleb128 0x26
 3157 003f 00       		.byte	0
 3158 0040 49       		.uleb128 0x49
 3159 0041 13       		.uleb128 0x13
 3160 0042 00       		.byte	0
 3161 0043 00       		.byte	0
 3162 0044 07       		.uleb128 0x7
 3163 0045 13       		.uleb128 0x13
 3164 0046 01       		.byte	0x1
 3165 0047 03       		.uleb128 0x3
 3166 0048 0E       		.uleb128 0xe
 3167 0049 0B       		.uleb128 0xb
 3168 004a 0B       		.uleb128 0xb
 3169 004b 3A       		.uleb128 0x3a
 3170 004c 0B       		.uleb128 0xb
 3171 004d 3B       		.uleb128 0x3b
 3172 004e 0B       		.uleb128 0xb
 3173 004f 01       		.uleb128 0x1
 3174 0050 13       		.uleb128 0x13
 3175 0051 00       		.byte	0
 3176 0052 00       		.byte	0
 3177 0053 08       		.uleb128 0x8
 3178 0054 0D       		.uleb128 0xd
 3179 0055 00       		.byte	0
 3180 0056 03       		.uleb128 0x3
 3181 0057 0E       		.uleb128 0xe
 3182 0058 3A       		.uleb128 0x3a
 3183 0059 0B       		.uleb128 0xb
 3184 005a 3B       		.uleb128 0x3b
 3185 005b 0B       		.uleb128 0xb
 3186 005c 49       		.uleb128 0x49
 3187 005d 13       		.uleb128 0x13
 3188 005e 38       		.uleb128 0x38
 3189 005f 0B       		.uleb128 0xb
 3190 0060 00       		.byte	0
 3191 0061 00       		.byte	0
 3192 0062 09       		.uleb128 0x9
ARM GAS  /var/folders/3j/4xdnk5197cv_b7cw3n33qk7r0000gn/T//ccXtcaer.s 			page 57


 3193 0063 0D       		.uleb128 0xd
 3194 0064 00       		.byte	0
 3195 0065 03       		.uleb128 0x3
 3196 0066 08       		.uleb128 0x8
 3197 0067 3A       		.uleb128 0x3a
 3198 0068 0B       		.uleb128 0xb
 3199 0069 3B       		.uleb128 0x3b
 3200 006a 0B       		.uleb128 0xb
 3201 006b 49       		.uleb128 0x49
 3202 006c 13       		.uleb128 0x13
 3203 006d 38       		.uleb128 0x38
 3204 006e 0B       		.uleb128 0xb
 3205 006f 00       		.byte	0
 3206 0070 00       		.byte	0
 3207 0071 0A       		.uleb128 0xa
 3208 0072 13       		.uleb128 0x13
 3209 0073 01       		.byte	0x1
 3210 0074 0B       		.uleb128 0xb
 3211 0075 0B       		.uleb128 0xb
 3212 0076 3A       		.uleb128 0x3a
 3213 0077 0B       		.uleb128 0xb
 3214 0078 3B       		.uleb128 0x3b
 3215 0079 0B       		.uleb128 0xb
 3216 007a 01       		.uleb128 0x1
 3217 007b 13       		.uleb128 0x13
 3218 007c 00       		.byte	0
 3219 007d 00       		.byte	0
 3220 007e 0B       		.uleb128 0xb
 3221 007f 0F       		.uleb128 0xf
 3222 0080 00       		.byte	0
 3223 0081 0B       		.uleb128 0xb
 3224 0082 0B       		.uleb128 0xb
 3225 0083 49       		.uleb128 0x49
 3226 0084 13       		.uleb128 0x13
 3227 0085 00       		.byte	0
 3228 0086 00       		.byte	0
 3229 0087 0C       		.uleb128 0xc
 3230 0088 0F       		.uleb128 0xf
 3231 0089 00       		.byte	0
 3232 008a 0B       		.uleb128 0xb
 3233 008b 0B       		.uleb128 0xb
 3234 008c 00       		.byte	0
 3235 008d 00       		.byte	0
 3236 008e 0D       		.uleb128 0xd
 3237 008f 15       		.uleb128 0x15
 3238 0090 01       		.byte	0x1
 3239 0091 27       		.uleb128 0x27
 3240 0092 19       		.uleb128 0x19
 3241 0093 01       		.uleb128 0x1
 3242 0094 13       		.uleb128 0x13
 3243 0095 00       		.byte	0
 3244 0096 00       		.byte	0
 3245 0097 0E       		.uleb128 0xe
 3246 0098 05       		.uleb128 0x5
 3247 0099 00       		.byte	0
 3248 009a 49       		.uleb128 0x49
 3249 009b 13       		.uleb128 0x13
ARM GAS  /var/folders/3j/4xdnk5197cv_b7cw3n33qk7r0000gn/T//ccXtcaer.s 			page 58


 3250 009c 00       		.byte	0
 3251 009d 00       		.byte	0
 3252 009e 0F       		.uleb128 0xf
 3253 009f 34       		.uleb128 0x34
 3254 00a0 00       		.byte	0
 3255 00a1 03       		.uleb128 0x3
 3256 00a2 0E       		.uleb128 0xe
 3257 00a3 3A       		.uleb128 0x3a
 3258 00a4 0B       		.uleb128 0xb
 3259 00a5 3B       		.uleb128 0x3b
 3260 00a6 0B       		.uleb128 0xb
 3261 00a7 49       		.uleb128 0x49
 3262 00a8 13       		.uleb128 0x13
 3263 00a9 3F       		.uleb128 0x3f
 3264 00aa 19       		.uleb128 0x19
 3265 00ab 3C       		.uleb128 0x3c
 3266 00ac 19       		.uleb128 0x19
 3267 00ad 00       		.byte	0
 3268 00ae 00       		.byte	0
 3269 00af 10       		.uleb128 0x10
 3270 00b0 17       		.uleb128 0x17
 3271 00b1 01       		.byte	0x1
 3272 00b2 0B       		.uleb128 0xb
 3273 00b3 0B       		.uleb128 0xb
 3274 00b4 3A       		.uleb128 0x3a
 3275 00b5 0B       		.uleb128 0xb
 3276 00b6 3B       		.uleb128 0x3b
 3277 00b7 0B       		.uleb128 0xb
 3278 00b8 01       		.uleb128 0x1
 3279 00b9 13       		.uleb128 0x13
 3280 00ba 00       		.byte	0
 3281 00bb 00       		.byte	0
 3282 00bc 11       		.uleb128 0x11
 3283 00bd 0D       		.uleb128 0xd
 3284 00be 00       		.byte	0
 3285 00bf 03       		.uleb128 0x3
 3286 00c0 0E       		.uleb128 0xe
 3287 00c1 3A       		.uleb128 0x3a
 3288 00c2 0B       		.uleb128 0xb
 3289 00c3 3B       		.uleb128 0x3b
 3290 00c4 0B       		.uleb128 0xb
 3291 00c5 49       		.uleb128 0x49
 3292 00c6 13       		.uleb128 0x13
 3293 00c7 00       		.byte	0
 3294 00c8 00       		.byte	0
 3295 00c9 12       		.uleb128 0x12
 3296 00ca 15       		.uleb128 0x15
 3297 00cb 01       		.byte	0x1
 3298 00cc 27       		.uleb128 0x27
 3299 00cd 19       		.uleb128 0x19
 3300 00ce 49       		.uleb128 0x49
 3301 00cf 13       		.uleb128 0x13
 3302 00d0 01       		.uleb128 0x1
 3303 00d1 13       		.uleb128 0x13
 3304 00d2 00       		.byte	0
 3305 00d3 00       		.byte	0
 3306 00d4 13       		.uleb128 0x13
ARM GAS  /var/folders/3j/4xdnk5197cv_b7cw3n33qk7r0000gn/T//ccXtcaer.s 			page 59


 3307 00d5 01       		.uleb128 0x1
 3308 00d6 01       		.byte	0x1
 3309 00d7 49       		.uleb128 0x49
 3310 00d8 13       		.uleb128 0x13
 3311 00d9 01       		.uleb128 0x1
 3312 00da 13       		.uleb128 0x13
 3313 00db 00       		.byte	0
 3314 00dc 00       		.byte	0
 3315 00dd 14       		.uleb128 0x14
 3316 00de 21       		.uleb128 0x21
 3317 00df 00       		.byte	0
 3318 00e0 49       		.uleb128 0x49
 3319 00e1 13       		.uleb128 0x13
 3320 00e2 2F       		.uleb128 0x2f
 3321 00e3 0B       		.uleb128 0xb
 3322 00e4 00       		.byte	0
 3323 00e5 00       		.byte	0
 3324 00e6 15       		.uleb128 0x15
 3325 00e7 0D       		.uleb128 0xd
 3326 00e8 00       		.byte	0
 3327 00e9 03       		.uleb128 0x3
 3328 00ea 0E       		.uleb128 0xe
 3329 00eb 3A       		.uleb128 0x3a
 3330 00ec 0B       		.uleb128 0xb
 3331 00ed 3B       		.uleb128 0x3b
 3332 00ee 05       		.uleb128 0x5
 3333 00ef 49       		.uleb128 0x49
 3334 00f0 13       		.uleb128 0x13
 3335 00f1 38       		.uleb128 0x38
 3336 00f2 0B       		.uleb128 0xb
 3337 00f3 00       		.byte	0
 3338 00f4 00       		.byte	0
 3339 00f5 16       		.uleb128 0x16
 3340 00f6 16       		.uleb128 0x16
 3341 00f7 00       		.byte	0
 3342 00f8 03       		.uleb128 0x3
 3343 00f9 0E       		.uleb128 0xe
 3344 00fa 3A       		.uleb128 0x3a
 3345 00fb 0B       		.uleb128 0xb
 3346 00fc 3B       		.uleb128 0x3b
 3347 00fd 05       		.uleb128 0x5
 3348 00fe 49       		.uleb128 0x49
 3349 00ff 13       		.uleb128 0x13
 3350 0100 00       		.byte	0
 3351 0101 00       		.byte	0
 3352 0102 17       		.uleb128 0x17
 3353 0103 13       		.uleb128 0x13
 3354 0104 00       		.byte	0
 3355 0105 0B       		.uleb128 0xb
 3356 0106 0B       		.uleb128 0xb
 3357 0107 3A       		.uleb128 0x3a
 3358 0108 0B       		.uleb128 0xb
 3359 0109 3B       		.uleb128 0x3b
 3360 010a 0B       		.uleb128 0xb
 3361 010b 00       		.byte	0
 3362 010c 00       		.byte	0
 3363 010d 18       		.uleb128 0x18
ARM GAS  /var/folders/3j/4xdnk5197cv_b7cw3n33qk7r0000gn/T//ccXtcaer.s 			page 60


 3364 010e 04       		.uleb128 0x4
 3365 010f 01       		.byte	0x1
 3366 0110 3E       		.uleb128 0x3e
 3367 0111 0B       		.uleb128 0xb
 3368 0112 0B       		.uleb128 0xb
 3369 0113 0B       		.uleb128 0xb
 3370 0114 49       		.uleb128 0x49
 3371 0115 13       		.uleb128 0x13
 3372 0116 3A       		.uleb128 0x3a
 3373 0117 0B       		.uleb128 0xb
 3374 0118 3B       		.uleb128 0x3b
 3375 0119 0B       		.uleb128 0xb
 3376 011a 01       		.uleb128 0x1
 3377 011b 13       		.uleb128 0x13
 3378 011c 00       		.byte	0
 3379 011d 00       		.byte	0
 3380 011e 19       		.uleb128 0x19
 3381 011f 28       		.uleb128 0x28
 3382 0120 00       		.byte	0
 3383 0121 03       		.uleb128 0x3
 3384 0122 0E       		.uleb128 0xe
 3385 0123 1C       		.uleb128 0x1c
 3386 0124 0B       		.uleb128 0xb
 3387 0125 00       		.byte	0
 3388 0126 00       		.byte	0
 3389 0127 1A       		.uleb128 0x1a
 3390 0128 34       		.uleb128 0x34
 3391 0129 00       		.byte	0
 3392 012a 03       		.uleb128 0x3
 3393 012b 08       		.uleb128 0x8
 3394 012c 3A       		.uleb128 0x3a
 3395 012d 0B       		.uleb128 0xb
 3396 012e 3B       		.uleb128 0x3b
 3397 012f 0B       		.uleb128 0xb
 3398 0130 49       		.uleb128 0x49
 3399 0131 13       		.uleb128 0x13
 3400 0132 3F       		.uleb128 0x3f
 3401 0133 19       		.uleb128 0x19
 3402 0134 3C       		.uleb128 0x3c
 3403 0135 19       		.uleb128 0x19
 3404 0136 00       		.byte	0
 3405 0137 00       		.byte	0
 3406 0138 1B       		.uleb128 0x1b
 3407 0139 26       		.uleb128 0x26
 3408 013a 00       		.byte	0
 3409 013b 00       		.byte	0
 3410 013c 00       		.byte	0
 3411 013d 1C       		.uleb128 0x1c
 3412 013e 2E       		.uleb128 0x2e
 3413 013f 01       		.byte	0x1
 3414 0140 3F       		.uleb128 0x3f
 3415 0141 19       		.uleb128 0x19
 3416 0142 03       		.uleb128 0x3
 3417 0143 0E       		.uleb128 0xe
 3418 0144 3A       		.uleb128 0x3a
 3419 0145 0B       		.uleb128 0xb
 3420 0146 3B       		.uleb128 0x3b
ARM GAS  /var/folders/3j/4xdnk5197cv_b7cw3n33qk7r0000gn/T//ccXtcaer.s 			page 61


 3421 0147 05       		.uleb128 0x5
 3422 0148 27       		.uleb128 0x27
 3423 0149 19       		.uleb128 0x19
 3424 014a 11       		.uleb128 0x11
 3425 014b 01       		.uleb128 0x1
 3426 014c 12       		.uleb128 0x12
 3427 014d 06       		.uleb128 0x6
 3428 014e 40       		.uleb128 0x40
 3429 014f 18       		.uleb128 0x18
 3430 0150 9742     		.uleb128 0x2117
 3431 0152 19       		.uleb128 0x19
 3432 0153 01       		.uleb128 0x1
 3433 0154 13       		.uleb128 0x13
 3434 0155 00       		.byte	0
 3435 0156 00       		.byte	0
 3436 0157 1D       		.uleb128 0x1d
 3437 0158 05       		.uleb128 0x5
 3438 0159 00       		.byte	0
 3439 015a 03       		.uleb128 0x3
 3440 015b 0E       		.uleb128 0xe
 3441 015c 3A       		.uleb128 0x3a
 3442 015d 0B       		.uleb128 0xb
 3443 015e 3B       		.uleb128 0x3b
 3444 015f 05       		.uleb128 0x5
 3445 0160 49       		.uleb128 0x49
 3446 0161 13       		.uleb128 0x13
 3447 0162 02       		.uleb128 0x2
 3448 0163 17       		.uleb128 0x17
 3449 0164 00       		.byte	0
 3450 0165 00       		.byte	0
 3451 0166 1E       		.uleb128 0x1e
 3452 0167 898201   		.uleb128 0x4109
 3453 016a 00       		.byte	0
 3454 016b 11       		.uleb128 0x11
 3455 016c 01       		.uleb128 0x1
 3456 016d 9542     		.uleb128 0x2115
 3457 016f 19       		.uleb128 0x19
 3458 0170 31       		.uleb128 0x31
 3459 0171 13       		.uleb128 0x13
 3460 0172 00       		.byte	0
 3461 0173 00       		.byte	0
 3462 0174 1F       		.uleb128 0x1f
 3463 0175 898201   		.uleb128 0x4109
 3464 0178 01       		.byte	0x1
 3465 0179 11       		.uleb128 0x11
 3466 017a 01       		.uleb128 0x1
 3467 017b 9542     		.uleb128 0x2115
 3468 017d 19       		.uleb128 0x19
 3469 017e 31       		.uleb128 0x31
 3470 017f 13       		.uleb128 0x13
 3471 0180 00       		.byte	0
 3472 0181 00       		.byte	0
 3473 0182 20       		.uleb128 0x20
 3474 0183 8A8201   		.uleb128 0x410a
 3475 0186 00       		.byte	0
 3476 0187 02       		.uleb128 0x2
 3477 0188 18       		.uleb128 0x18
ARM GAS  /var/folders/3j/4xdnk5197cv_b7cw3n33qk7r0000gn/T//ccXtcaer.s 			page 62


 3478 0189 9142     		.uleb128 0x2111
 3479 018b 18       		.uleb128 0x18
 3480 018c 00       		.byte	0
 3481 018d 00       		.byte	0
 3482 018e 21       		.uleb128 0x21
 3483 018f 05       		.uleb128 0x5
 3484 0190 00       		.byte	0
 3485 0191 03       		.uleb128 0x3
 3486 0192 08       		.uleb128 0x8
 3487 0193 3A       		.uleb128 0x3a
 3488 0194 0B       		.uleb128 0xb
 3489 0195 3B       		.uleb128 0x3b
 3490 0196 05       		.uleb128 0x5
 3491 0197 49       		.uleb128 0x49
 3492 0198 13       		.uleb128 0x13
 3493 0199 02       		.uleb128 0x2
 3494 019a 17       		.uleb128 0x17
 3495 019b 00       		.byte	0
 3496 019c 00       		.byte	0
 3497 019d 22       		.uleb128 0x22
 3498 019e 898201   		.uleb128 0x4109
 3499 01a1 01       		.byte	0x1
 3500 01a2 11       		.uleb128 0x11
 3501 01a3 01       		.uleb128 0x1
 3502 01a4 31       		.uleb128 0x31
 3503 01a5 13       		.uleb128 0x13
 3504 01a6 01       		.uleb128 0x1
 3505 01a7 13       		.uleb128 0x13
 3506 01a8 00       		.byte	0
 3507 01a9 00       		.byte	0
 3508 01aa 23       		.uleb128 0x23
 3509 01ab 898201   		.uleb128 0x4109
 3510 01ae 01       		.byte	0x1
 3511 01af 11       		.uleb128 0x11
 3512 01b0 01       		.uleb128 0x1
 3513 01b1 31       		.uleb128 0x31
 3514 01b2 13       		.uleb128 0x13
 3515 01b3 00       		.byte	0
 3516 01b4 00       		.byte	0
 3517 01b5 24       		.uleb128 0x24
 3518 01b6 2E       		.uleb128 0x2e
 3519 01b7 01       		.byte	0x1
 3520 01b8 3F       		.uleb128 0x3f
 3521 01b9 19       		.uleb128 0x19
 3522 01ba 03       		.uleb128 0x3
 3523 01bb 0E       		.uleb128 0xe
 3524 01bc 3A       		.uleb128 0x3a
 3525 01bd 0B       		.uleb128 0xb
 3526 01be 3B       		.uleb128 0x3b
 3527 01bf 0B       		.uleb128 0xb
 3528 01c0 27       		.uleb128 0x27
 3529 01c1 19       		.uleb128 0x19
 3530 01c2 11       		.uleb128 0x11
 3531 01c3 01       		.uleb128 0x1
 3532 01c4 12       		.uleb128 0x12
 3533 01c5 06       		.uleb128 0x6
 3534 01c6 40       		.uleb128 0x40
ARM GAS  /var/folders/3j/4xdnk5197cv_b7cw3n33qk7r0000gn/T//ccXtcaer.s 			page 63


 3535 01c7 18       		.uleb128 0x18
 3536 01c8 9742     		.uleb128 0x2117
 3537 01ca 19       		.uleb128 0x19
 3538 01cb 01       		.uleb128 0x1
 3539 01cc 13       		.uleb128 0x13
 3540 01cd 00       		.byte	0
 3541 01ce 00       		.byte	0
 3542 01cf 25       		.uleb128 0x25
 3543 01d0 05       		.uleb128 0x5
 3544 01d1 00       		.byte	0
 3545 01d2 03       		.uleb128 0x3
 3546 01d3 0E       		.uleb128 0xe
 3547 01d4 3A       		.uleb128 0x3a
 3548 01d5 0B       		.uleb128 0xb
 3549 01d6 3B       		.uleb128 0x3b
 3550 01d7 0B       		.uleb128 0xb
 3551 01d8 49       		.uleb128 0x49
 3552 01d9 13       		.uleb128 0x13
 3553 01da 02       		.uleb128 0x2
 3554 01db 17       		.uleb128 0x17
 3555 01dc 00       		.byte	0
 3556 01dd 00       		.byte	0
 3557 01de 26       		.uleb128 0x26
 3558 01df 05       		.uleb128 0x5
 3559 01e0 00       		.byte	0
 3560 01e1 03       		.uleb128 0x3
 3561 01e2 08       		.uleb128 0x8
 3562 01e3 3A       		.uleb128 0x3a
 3563 01e4 0B       		.uleb128 0xb
 3564 01e5 3B       		.uleb128 0x3b
 3565 01e6 0B       		.uleb128 0xb
 3566 01e7 49       		.uleb128 0x49
 3567 01e8 13       		.uleb128 0x13
 3568 01e9 02       		.uleb128 0x2
 3569 01ea 17       		.uleb128 0x17
 3570 01eb 00       		.byte	0
 3571 01ec 00       		.byte	0
 3572 01ed 27       		.uleb128 0x27
 3573 01ee 2E       		.uleb128 0x2e
 3574 01ef 00       		.byte	0
 3575 01f0 3F       		.uleb128 0x3f
 3576 01f1 19       		.uleb128 0x19
 3577 01f2 3C       		.uleb128 0x3c
 3578 01f3 19       		.uleb128 0x19
 3579 01f4 6E       		.uleb128 0x6e
 3580 01f5 0E       		.uleb128 0xe
 3581 01f6 03       		.uleb128 0x3
 3582 01f7 0E       		.uleb128 0xe
 3583 01f8 3A       		.uleb128 0x3a
 3584 01f9 0B       		.uleb128 0xb
 3585 01fa 3B       		.uleb128 0x3b
 3586 01fb 0B       		.uleb128 0xb
 3587 01fc 00       		.byte	0
 3588 01fd 00       		.byte	0
 3589 01fe 00       		.byte	0
 3590              		.section	.debug_loc,"",%progbits
 3591              	.Ldebug_loc0:
ARM GAS  /var/folders/3j/4xdnk5197cv_b7cw3n33qk7r0000gn/T//ccXtcaer.s 			page 64


 3592              	.LLST31:
 3593 0000 00000000 		.4byte	.LVL36
 3594 0004 03000000 		.4byte	.LVL37-1
 3595 0008 0100     		.2byte	0x1
 3596 000a 50       		.byte	0x50
 3597 000b 03000000 		.4byte	.LVL37-1
 3598 000f 04000000 		.4byte	.LFE22
 3599 0013 0400     		.2byte	0x4
 3600 0015 F3       		.byte	0xf3
 3601 0016 01       		.uleb128 0x1
 3602 0017 50       		.byte	0x50
 3603 0018 9F       		.byte	0x9f
 3604 0019 00000000 		.4byte	0
 3605 001d 00000000 		.4byte	0
 3606              	.LLST30:
 3607 0021 00000000 		.4byte	.LVL33
 3608 0025 04000000 		.4byte	.LVL34
 3609 0029 0100     		.2byte	0x1
 3610 002b 50       		.byte	0x50
 3611 002c 04000000 		.4byte	.LVL34
 3612 0030 07000000 		.4byte	.LVL35-1
 3613 0034 0300     		.2byte	0x3
 3614 0036 70       		.byte	0x70
 3615 0037 74       		.sleb128 -12
 3616 0038 9F       		.byte	0x9f
 3617 0039 07000000 		.4byte	.LVL35-1
 3618 003d 08000000 		.4byte	.LFE21
 3619 0041 0400     		.2byte	0x4
 3620 0043 F3       		.byte	0xf3
 3621 0044 01       		.uleb128 0x1
 3622 0045 50       		.byte	0x50
 3623 0046 9F       		.byte	0x9f
 3624 0047 00000000 		.4byte	0
 3625 004b 00000000 		.4byte	0
 3626              	.LLST27:
 3627 004f 00000000 		.4byte	.LVL30
 3628 0053 17000000 		.4byte	.LVL31-1
 3629 0057 0100     		.2byte	0x1
 3630 0059 50       		.byte	0x50
 3631 005a 17000000 		.4byte	.LVL31-1
 3632 005e 38000000 		.4byte	.LFE20
 3633 0062 0100     		.2byte	0x1
 3634 0064 54       		.byte	0x54
 3635 0065 00000000 		.4byte	0
 3636 0069 00000000 		.4byte	0
 3637              	.LLST28:
 3638 006d 00000000 		.4byte	.LVL30
 3639 0071 17000000 		.4byte	.LVL31-1
 3640 0075 0100     		.2byte	0x1
 3641 0077 51       		.byte	0x51
 3642 0078 17000000 		.4byte	.LVL31-1
 3643 007c 38000000 		.4byte	.LFE20
 3644 0080 0400     		.2byte	0x4
 3645 0082 F3       		.byte	0xf3
 3646 0083 01       		.uleb128 0x1
 3647 0084 51       		.byte	0x51
 3648 0085 9F       		.byte	0x9f
ARM GAS  /var/folders/3j/4xdnk5197cv_b7cw3n33qk7r0000gn/T//ccXtcaer.s 			page 65


 3649 0086 00000000 		.4byte	0
 3650 008a 00000000 		.4byte	0
 3651              	.LLST29:
 3652 008e 00000000 		.4byte	.LVL30
 3653 0092 17000000 		.4byte	.LVL31-1
 3654 0096 0100     		.2byte	0x1
 3655 0098 52       		.byte	0x52
 3656 0099 17000000 		.4byte	.LVL31-1
 3657 009d 38000000 		.4byte	.LFE20
 3658 00a1 0400     		.2byte	0x4
 3659 00a3 F3       		.byte	0xf3
 3660 00a4 01       		.uleb128 0x1
 3661 00a5 52       		.byte	0x52
 3662 00a6 9F       		.byte	0x9f
 3663 00a7 00000000 		.4byte	0
 3664 00ab 00000000 		.4byte	0
 3665              	.LLST24:
 3666 00af 00000000 		.4byte	.LVL27
 3667 00b3 17000000 		.4byte	.LVL28-1
 3668 00b7 0100     		.2byte	0x1
 3669 00b9 50       		.byte	0x50
 3670 00ba 17000000 		.4byte	.LVL28-1
 3671 00be 38000000 		.4byte	.LFE19
 3672 00c2 0100     		.2byte	0x1
 3673 00c4 54       		.byte	0x54
 3674 00c5 00000000 		.4byte	0
 3675 00c9 00000000 		.4byte	0
 3676              	.LLST25:
 3677 00cd 00000000 		.4byte	.LVL27
 3678 00d1 17000000 		.4byte	.LVL28-1
 3679 00d5 0100     		.2byte	0x1
 3680 00d7 51       		.byte	0x51
 3681 00d8 17000000 		.4byte	.LVL28-1
 3682 00dc 38000000 		.4byte	.LFE19
 3683 00e0 0400     		.2byte	0x4
 3684 00e2 F3       		.byte	0xf3
 3685 00e3 01       		.uleb128 0x1
 3686 00e4 51       		.byte	0x51
 3687 00e5 9F       		.byte	0x9f
 3688 00e6 00000000 		.4byte	0
 3689 00ea 00000000 		.4byte	0
 3690              	.LLST26:
 3691 00ee 00000000 		.4byte	.LVL27
 3692 00f2 17000000 		.4byte	.LVL28-1
 3693 00f6 0100     		.2byte	0x1
 3694 00f8 52       		.byte	0x52
 3695 00f9 17000000 		.4byte	.LVL28-1
 3696 00fd 38000000 		.4byte	.LFE19
 3697 0101 0400     		.2byte	0x4
 3698 0103 F3       		.byte	0xf3
 3699 0104 01       		.uleb128 0x1
 3700 0105 52       		.byte	0x52
 3701 0106 9F       		.byte	0x9f
 3702 0107 00000000 		.4byte	0
 3703 010b 00000000 		.4byte	0
 3704              	.LLST20:
 3705 010f 00000000 		.4byte	.LVL24
ARM GAS  /var/folders/3j/4xdnk5197cv_b7cw3n33qk7r0000gn/T//ccXtcaer.s 			page 66


 3706 0113 17000000 		.4byte	.LVL25-1
 3707 0117 0100     		.2byte	0x1
 3708 0119 50       		.byte	0x50
 3709 011a 17000000 		.4byte	.LVL25-1
 3710 011e 38000000 		.4byte	.LFE18
 3711 0122 0100     		.2byte	0x1
 3712 0124 54       		.byte	0x54
 3713 0125 00000000 		.4byte	0
 3714 0129 00000000 		.4byte	0
 3715              	.LLST21:
 3716 012d 00000000 		.4byte	.LVL24
 3717 0131 17000000 		.4byte	.LVL25-1
 3718 0135 0100     		.2byte	0x1
 3719 0137 51       		.byte	0x51
 3720 0138 17000000 		.4byte	.LVL25-1
 3721 013c 38000000 		.4byte	.LFE18
 3722 0140 0400     		.2byte	0x4
 3723 0142 F3       		.byte	0xf3
 3724 0143 01       		.uleb128 0x1
 3725 0144 51       		.byte	0x51
 3726 0145 9F       		.byte	0x9f
 3727 0146 00000000 		.4byte	0
 3728 014a 00000000 		.4byte	0
 3729              	.LLST22:
 3730 014e 00000000 		.4byte	.LVL24
 3731 0152 17000000 		.4byte	.LVL25-1
 3732 0156 0100     		.2byte	0x1
 3733 0158 52       		.byte	0x52
 3734 0159 17000000 		.4byte	.LVL25-1
 3735 015d 38000000 		.4byte	.LFE18
 3736 0161 0400     		.2byte	0x4
 3737 0163 F3       		.byte	0xf3
 3738 0164 01       		.uleb128 0x1
 3739 0165 52       		.byte	0x52
 3740 0166 9F       		.byte	0x9f
 3741 0167 00000000 		.4byte	0
 3742 016b 00000000 		.4byte	0
 3743              	.LLST23:
 3744 016f 00000000 		.4byte	.LVL24
 3745 0173 17000000 		.4byte	.LVL25-1
 3746 0177 0100     		.2byte	0x1
 3747 0179 53       		.byte	0x53
 3748 017a 17000000 		.4byte	.LVL25-1
 3749 017e 38000000 		.4byte	.LFE18
 3750 0182 0400     		.2byte	0x4
 3751 0184 F3       		.byte	0xf3
 3752 0185 01       		.uleb128 0x1
 3753 0186 53       		.byte	0x53
 3754 0187 9F       		.byte	0x9f
 3755 0188 00000000 		.4byte	0
 3756 018c 00000000 		.4byte	0
 3757              	.LLST18:
 3758 0190 00000000 		.4byte	.LVL21
 3759 0194 17000000 		.4byte	.LVL22-1
 3760 0198 0100     		.2byte	0x1
 3761 019a 50       		.byte	0x50
 3762 019b 17000000 		.4byte	.LVL22-1
ARM GAS  /var/folders/3j/4xdnk5197cv_b7cw3n33qk7r0000gn/T//ccXtcaer.s 			page 67


 3763 019f 38000000 		.4byte	.LFE17
 3764 01a3 0100     		.2byte	0x1
 3765 01a5 54       		.byte	0x54
 3766 01a6 00000000 		.4byte	0
 3767 01aa 00000000 		.4byte	0
 3768              	.LLST19:
 3769 01ae 00000000 		.4byte	.LVL21
 3770 01b2 17000000 		.4byte	.LVL22-1
 3771 01b6 0100     		.2byte	0x1
 3772 01b8 51       		.byte	0x51
 3773 01b9 17000000 		.4byte	.LVL22-1
 3774 01bd 38000000 		.4byte	.LFE17
 3775 01c1 0400     		.2byte	0x4
 3776 01c3 F3       		.byte	0xf3
 3777 01c4 01       		.uleb128 0x1
 3778 01c5 51       		.byte	0x51
 3779 01c6 9F       		.byte	0x9f
 3780 01c7 00000000 		.4byte	0
 3781 01cb 00000000 		.4byte	0
 3782              	.LLST15:
 3783 01cf 00000000 		.4byte	.LVL19
 3784 01d3 13000000 		.4byte	.LVL20-1
 3785 01d7 0100     		.2byte	0x1
 3786 01d9 50       		.byte	0x50
 3787 01da 13000000 		.4byte	.LVL20-1
 3788 01de 1C000000 		.4byte	.LFE16
 3789 01e2 0400     		.2byte	0x4
 3790 01e4 F3       		.byte	0xf3
 3791 01e5 01       		.uleb128 0x1
 3792 01e6 50       		.byte	0x50
 3793 01e7 9F       		.byte	0x9f
 3794 01e8 00000000 		.4byte	0
 3795 01ec 00000000 		.4byte	0
 3796              	.LLST16:
 3797 01f0 00000000 		.4byte	.LVL19
 3798 01f4 13000000 		.4byte	.LVL20-1
 3799 01f8 0100     		.2byte	0x1
 3800 01fa 51       		.byte	0x51
 3801 01fb 13000000 		.4byte	.LVL20-1
 3802 01ff 1C000000 		.4byte	.LFE16
 3803 0203 0400     		.2byte	0x4
 3804 0205 F3       		.byte	0xf3
 3805 0206 01       		.uleb128 0x1
 3806 0207 51       		.byte	0x51
 3807 0208 9F       		.byte	0x9f
 3808 0209 00000000 		.4byte	0
 3809 020d 00000000 		.4byte	0
 3810              	.LLST17:
 3811 0211 00000000 		.4byte	.LVL19
 3812 0215 13000000 		.4byte	.LVL20-1
 3813 0219 0100     		.2byte	0x1
 3814 021b 52       		.byte	0x52
 3815 021c 13000000 		.4byte	.LVL20-1
 3816 0220 1C000000 		.4byte	.LFE16
 3817 0224 0400     		.2byte	0x4
 3818 0226 F3       		.byte	0xf3
 3819 0227 01       		.uleb128 0x1
ARM GAS  /var/folders/3j/4xdnk5197cv_b7cw3n33qk7r0000gn/T//ccXtcaer.s 			page 68


 3820 0228 52       		.byte	0x52
 3821 0229 9F       		.byte	0x9f
 3822 022a 00000000 		.4byte	0
 3823 022e 00000000 		.4byte	0
 3824              	.LLST12:
 3825 0232 00000000 		.4byte	.LVL17
 3826 0236 13000000 		.4byte	.LVL18-1
 3827 023a 0100     		.2byte	0x1
 3828 023c 50       		.byte	0x50
 3829 023d 13000000 		.4byte	.LVL18-1
 3830 0241 1C000000 		.4byte	.LFE15
 3831 0245 0400     		.2byte	0x4
 3832 0247 F3       		.byte	0xf3
 3833 0248 01       		.uleb128 0x1
 3834 0249 50       		.byte	0x50
 3835 024a 9F       		.byte	0x9f
 3836 024b 00000000 		.4byte	0
 3837 024f 00000000 		.4byte	0
 3838              	.LLST13:
 3839 0253 00000000 		.4byte	.LVL17
 3840 0257 13000000 		.4byte	.LVL18-1
 3841 025b 0100     		.2byte	0x1
 3842 025d 51       		.byte	0x51
 3843 025e 13000000 		.4byte	.LVL18-1
 3844 0262 1C000000 		.4byte	.LFE15
 3845 0266 0400     		.2byte	0x4
 3846 0268 F3       		.byte	0xf3
 3847 0269 01       		.uleb128 0x1
 3848 026a 51       		.byte	0x51
 3849 026b 9F       		.byte	0x9f
 3850 026c 00000000 		.4byte	0
 3851 0270 00000000 		.4byte	0
 3852              	.LLST14:
 3853 0274 00000000 		.4byte	.LVL17
 3854 0278 13000000 		.4byte	.LVL18-1
 3855 027c 0100     		.2byte	0x1
 3856 027e 52       		.byte	0x52
 3857 027f 13000000 		.4byte	.LVL18-1
 3858 0283 1C000000 		.4byte	.LFE15
 3859 0287 0400     		.2byte	0x4
 3860 0289 F3       		.byte	0xf3
 3861 028a 01       		.uleb128 0x1
 3862 028b 52       		.byte	0x52
 3863 028c 9F       		.byte	0x9f
 3864 028d 00000000 		.4byte	0
 3865 0291 00000000 		.4byte	0
 3866              	.LLST8:
 3867 0295 00000000 		.4byte	.LVL15
 3868 0299 13000000 		.4byte	.LVL16-1
 3869 029d 0100     		.2byte	0x1
 3870 029f 50       		.byte	0x50
 3871 02a0 13000000 		.4byte	.LVL16-1
 3872 02a4 1C000000 		.4byte	.LFE14
 3873 02a8 0400     		.2byte	0x4
 3874 02aa F3       		.byte	0xf3
 3875 02ab 01       		.uleb128 0x1
 3876 02ac 50       		.byte	0x50
ARM GAS  /var/folders/3j/4xdnk5197cv_b7cw3n33qk7r0000gn/T//ccXtcaer.s 			page 69


 3877 02ad 9F       		.byte	0x9f
 3878 02ae 00000000 		.4byte	0
 3879 02b2 00000000 		.4byte	0
 3880              	.LLST9:
 3881 02b6 00000000 		.4byte	.LVL15
 3882 02ba 13000000 		.4byte	.LVL16-1
 3883 02be 0100     		.2byte	0x1
 3884 02c0 51       		.byte	0x51
 3885 02c1 13000000 		.4byte	.LVL16-1
 3886 02c5 1C000000 		.4byte	.LFE14
 3887 02c9 0400     		.2byte	0x4
 3888 02cb F3       		.byte	0xf3
 3889 02cc 01       		.uleb128 0x1
 3890 02cd 51       		.byte	0x51
 3891 02ce 9F       		.byte	0x9f
 3892 02cf 00000000 		.4byte	0
 3893 02d3 00000000 		.4byte	0
 3894              	.LLST10:
 3895 02d7 00000000 		.4byte	.LVL15
 3896 02db 13000000 		.4byte	.LVL16-1
 3897 02df 0100     		.2byte	0x1
 3898 02e1 52       		.byte	0x52
 3899 02e2 13000000 		.4byte	.LVL16-1
 3900 02e6 1C000000 		.4byte	.LFE14
 3901 02ea 0400     		.2byte	0x4
 3902 02ec F3       		.byte	0xf3
 3903 02ed 01       		.uleb128 0x1
 3904 02ee 52       		.byte	0x52
 3905 02ef 9F       		.byte	0x9f
 3906 02f0 00000000 		.4byte	0
 3907 02f4 00000000 		.4byte	0
 3908              	.LLST11:
 3909 02f8 00000000 		.4byte	.LVL15
 3910 02fc 13000000 		.4byte	.LVL16-1
 3911 0300 0100     		.2byte	0x1
 3912 0302 53       		.byte	0x53
 3913 0303 13000000 		.4byte	.LVL16-1
 3914 0307 1C000000 		.4byte	.LFE14
 3915 030b 0400     		.2byte	0x4
 3916 030d F3       		.byte	0xf3
 3917 030e 01       		.uleb128 0x1
 3918 030f 53       		.byte	0x53
 3919 0310 9F       		.byte	0x9f
 3920 0311 00000000 		.4byte	0
 3921 0315 00000000 		.4byte	0
 3922              	.LLST6:
 3923 0319 00000000 		.4byte	.LVL13
 3924 031d 13000000 		.4byte	.LVL14-1
 3925 0321 0100     		.2byte	0x1
 3926 0323 50       		.byte	0x50
 3927 0324 13000000 		.4byte	.LVL14-1
 3928 0328 1C000000 		.4byte	.LFE13
 3929 032c 0400     		.2byte	0x4
 3930 032e F3       		.byte	0xf3
 3931 032f 01       		.uleb128 0x1
 3932 0330 50       		.byte	0x50
 3933 0331 9F       		.byte	0x9f
ARM GAS  /var/folders/3j/4xdnk5197cv_b7cw3n33qk7r0000gn/T//ccXtcaer.s 			page 70


 3934 0332 00000000 		.4byte	0
 3935 0336 00000000 		.4byte	0
 3936              	.LLST7:
 3937 033a 00000000 		.4byte	.LVL13
 3938 033e 13000000 		.4byte	.LVL14-1
 3939 0342 0100     		.2byte	0x1
 3940 0344 51       		.byte	0x51
 3941 0345 13000000 		.4byte	.LVL14-1
 3942 0349 1C000000 		.4byte	.LFE13
 3943 034d 0400     		.2byte	0x4
 3944 034f F3       		.byte	0xf3
 3945 0350 01       		.uleb128 0x1
 3946 0351 51       		.byte	0x51
 3947 0352 9F       		.byte	0x9f
 3948 0353 00000000 		.4byte	0
 3949 0357 00000000 		.4byte	0
 3950              	.LLST5:
 3951 035b 00000000 		.4byte	.LVL11
 3952 035f 0B000000 		.4byte	.LVL12-1
 3953 0363 0100     		.2byte	0x1
 3954 0365 50       		.byte	0x50
 3955 0366 0B000000 		.4byte	.LVL12-1
 3956 036a 14000000 		.4byte	.LFE12
 3957 036e 0400     		.2byte	0x4
 3958 0370 F3       		.byte	0xf3
 3959 0371 01       		.uleb128 0x1
 3960 0372 50       		.byte	0x50
 3961 0373 9F       		.byte	0x9f
 3962 0374 00000000 		.4byte	0
 3963 0378 00000000 		.4byte	0
 3964              	.LLST4:
 3965 037c 00000000 		.4byte	.LVL9
 3966 0380 0B000000 		.4byte	.LVL10-1
 3967 0384 0100     		.2byte	0x1
 3968 0386 50       		.byte	0x50
 3969 0387 0B000000 		.4byte	.LVL10-1
 3970 038b 14000000 		.4byte	.LFE11
 3971 038f 0400     		.2byte	0x4
 3972 0391 F3       		.byte	0xf3
 3973 0392 01       		.uleb128 0x1
 3974 0393 50       		.byte	0x50
 3975 0394 9F       		.byte	0x9f
 3976 0395 00000000 		.4byte	0
 3977 0399 00000000 		.4byte	0
 3978              	.LLST3:
 3979 039d 00000000 		.4byte	.LVL6
 3980 03a1 0F000000 		.4byte	.LVL7-1
 3981 03a5 0100     		.2byte	0x1
 3982 03a7 50       		.byte	0x50
 3983 03a8 0F000000 		.4byte	.LVL7-1
 3984 03ac 28000000 		.4byte	.LFE10
 3985 03b0 0100     		.2byte	0x1
 3986 03b2 54       		.byte	0x54
 3987 03b3 00000000 		.4byte	0
 3988 03b7 00000000 		.4byte	0
 3989              	.LLST1:
 3990 03bb 00000000 		.4byte	.LVL4
ARM GAS  /var/folders/3j/4xdnk5197cv_b7cw3n33qk7r0000gn/T//ccXtcaer.s 			page 71


 3991 03bf 13000000 		.4byte	.LVL5-1
 3992 03c3 0100     		.2byte	0x1
 3993 03c5 50       		.byte	0x50
 3994 03c6 13000000 		.4byte	.LVL5-1
 3995 03ca 24000000 		.4byte	.LFE9
 3996 03ce 0100     		.2byte	0x1
 3997 03d0 54       		.byte	0x54
 3998 03d1 00000000 		.4byte	0
 3999 03d5 00000000 		.4byte	0
 4000              	.LLST2:
 4001 03d9 00000000 		.4byte	.LVL4
 4002 03dd 13000000 		.4byte	.LVL5-1
 4003 03e1 0100     		.2byte	0x1
 4004 03e3 51       		.byte	0x51
 4005 03e4 13000000 		.4byte	.LVL5-1
 4006 03e8 24000000 		.4byte	.LFE9
 4007 03ec 0400     		.2byte	0x4
 4008 03ee F3       		.byte	0xf3
 4009 03ef 01       		.uleb128 0x1
 4010 03f0 51       		.byte	0x51
 4011 03f1 9F       		.byte	0x9f
 4012 03f2 00000000 		.4byte	0
 4013 03f6 00000000 		.4byte	0
 4014              	.LLST0:
 4015 03fa 00000000 		.4byte	.LVL1
 4016 03fe 18000000 		.4byte	.LVL2
 4017 0402 0100     		.2byte	0x1
 4018 0404 50       		.byte	0x50
 4019 0405 18000000 		.4byte	.LVL2
 4020 0409 1B000000 		.4byte	.LVL3-1
 4021 040d 0300     		.2byte	0x3
 4022 040f 70       		.byte	0x70
 4023 0410 74       		.sleb128 -12
 4024 0411 9F       		.byte	0x9f
 4025 0412 1B000000 		.4byte	.LVL3-1
 4026 0416 1C000000 		.4byte	.LFE8
 4027 041a 0400     		.2byte	0x4
 4028 041c F3       		.byte	0xf3
 4029 041d 01       		.uleb128 0x1
 4030 041e 50       		.byte	0x50
 4031 041f 9F       		.byte	0x9f
 4032 0420 00000000 		.4byte	0
 4033 0424 00000000 		.4byte	0
 4034              		.section	.debug_aranges,"",%progbits
 4035 0000 94000000 		.4byte	0x94
 4036 0004 0200     		.2byte	0x2
 4037 0006 00000000 		.4byte	.Ldebug_info0
 4038 000a 04       		.byte	0x4
 4039 000b 00       		.byte	0
 4040 000c 0000     		.2byte	0
 4041 000e 0000     		.2byte	0
 4042 0010 00000000 		.4byte	.LFB7
 4043 0014 04000000 		.4byte	.LFE7-.LFB7
 4044 0018 00000000 		.4byte	.LFB8
 4045 001c 1C000000 		.4byte	.LFE8-.LFB8
 4046 0020 00000000 		.4byte	.LFB9
 4047 0024 24000000 		.4byte	.LFE9-.LFB9
ARM GAS  /var/folders/3j/4xdnk5197cv_b7cw3n33qk7r0000gn/T//ccXtcaer.s 			page 72


 4048 0028 00000000 		.4byte	.LFB10
 4049 002c 28000000 		.4byte	.LFE10-.LFB10
 4050 0030 00000000 		.4byte	.LFB11
 4051 0034 14000000 		.4byte	.LFE11-.LFB11
 4052 0038 00000000 		.4byte	.LFB12
 4053 003c 14000000 		.4byte	.LFE12-.LFB12
 4054 0040 00000000 		.4byte	.LFB13
 4055 0044 1C000000 		.4byte	.LFE13-.LFB13
 4056 0048 00000000 		.4byte	.LFB14
 4057 004c 1C000000 		.4byte	.LFE14-.LFB14
 4058 0050 00000000 		.4byte	.LFB15
 4059 0054 1C000000 		.4byte	.LFE15-.LFB15
 4060 0058 00000000 		.4byte	.LFB16
 4061 005c 1C000000 		.4byte	.LFE16-.LFB16
 4062 0060 00000000 		.4byte	.LFB17
 4063 0064 38000000 		.4byte	.LFE17-.LFB17
 4064 0068 00000000 		.4byte	.LFB18
 4065 006c 38000000 		.4byte	.LFE18-.LFB18
 4066 0070 00000000 		.4byte	.LFB19
 4067 0074 38000000 		.4byte	.LFE19-.LFB19
 4068 0078 00000000 		.4byte	.LFB20
 4069 007c 38000000 		.4byte	.LFE20-.LFB20
 4070 0080 00000000 		.4byte	.LFB21
 4071 0084 08000000 		.4byte	.LFE21-.LFB21
 4072 0088 00000000 		.4byte	.LFB22
 4073 008c 04000000 		.4byte	.LFE22-.LFB22
 4074 0090 00000000 		.4byte	0
 4075 0094 00000000 		.4byte	0
 4076              		.section	.debug_ranges,"",%progbits
 4077              	.Ldebug_ranges0:
 4078 0000 00000000 		.4byte	.LFB7
 4079 0004 04000000 		.4byte	.LFE7
 4080 0008 00000000 		.4byte	.LFB8
 4081 000c 1C000000 		.4byte	.LFE8
 4082 0010 00000000 		.4byte	.LFB9
 4083 0014 24000000 		.4byte	.LFE9
 4084 0018 00000000 		.4byte	.LFB10
 4085 001c 28000000 		.4byte	.LFE10
 4086 0020 00000000 		.4byte	.LFB11
 4087 0024 14000000 		.4byte	.LFE11
 4088 0028 00000000 		.4byte	.LFB12
 4089 002c 14000000 		.4byte	.LFE12
 4090 0030 00000000 		.4byte	.LFB13
 4091 0034 1C000000 		.4byte	.LFE13
 4092 0038 00000000 		.4byte	.LFB14
 4093 003c 1C000000 		.4byte	.LFE14
 4094 0040 00000000 		.4byte	.LFB15
 4095 0044 1C000000 		.4byte	.LFE15
 4096 0048 00000000 		.4byte	.LFB16
 4097 004c 1C000000 		.4byte	.LFE16
 4098 0050 00000000 		.4byte	.LFB17
 4099 0054 38000000 		.4byte	.LFE17
 4100 0058 00000000 		.4byte	.LFB18
 4101 005c 38000000 		.4byte	.LFE18
 4102 0060 00000000 		.4byte	.LFB19
 4103 0064 38000000 		.4byte	.LFE19
 4104 0068 00000000 		.4byte	.LFB20
ARM GAS  /var/folders/3j/4xdnk5197cv_b7cw3n33qk7r0000gn/T//ccXtcaer.s 			page 73


 4105 006c 38000000 		.4byte	.LFE20
 4106 0070 00000000 		.4byte	.LFB21
 4107 0074 08000000 		.4byte	.LFE21
 4108 0078 00000000 		.4byte	.LFB22
 4109 007c 04000000 		.4byte	.LFE22
 4110 0080 00000000 		.4byte	0
 4111 0084 00000000 		.4byte	0
 4112              		.section	.debug_line,"",%progbits
 4113              	.Ldebug_line0:
 4114 0000 CE030000 		.section	.debug_str,"MS",%progbits,1
 4114      02008202 
 4114      00000201 
 4114      FB0E0D00 
 4114      01010101 
 4115              	.LASF233:
 4116 0000 2F557365 		.ascii	"/Users/kevinmalmsten/development_raspberry_pi/Backu"
 4116      72732F6B 
 4116      6576696E 
 4116      6D616C6D 
 4116      7374656E 
 4117 0033 7053656E 		.ascii	"pSensor_ChibiOS/__Backup_System\000"
 4117      736F725F 
 4117      43686962 
 4117      694F532F 
 4117      5F5F4261 
 4118              	.LASF96:
 4119 0053 63665F6F 		.ascii	"cf_off_older\000"
 4119      66665F6F 
 4119      6C646572 
 4119      00
 4120              	.LASF42:
 4121 0060 705F6D73 		.ascii	"p_msg\000"
 4121      6700
 4122              	.LASF2:
 4123 0066 73697A65 		.ascii	"size_t\000"
 4123      5F7400
 4124              	.LASF81:
 4125 006d 7264796D 		.ascii	"rdymsg\000"
 4125      736700
 4126              	.LASF175:
 4127 0074 77726974 		.ascii	"write\000"
 4127      6500
 4128              	.LASF117:
 4129 007a 4F757470 		.ascii	"OutputQueue\000"
 4129      75745175 
 4129      65756500 
 4130              	.LASF3:
 4131 0086 5F5F7569 		.ascii	"__uint8_t\000"
 4131      6E74385F 
 4131      7400
 4132              	.LASF184:
 4133 0090 5350495F 		.ascii	"SPI_ACTIVE\000"
 4133      41435449 
 4133      564500
 4134              	.LASF68:
 4135 009b 76746C69 		.ascii	"vtlist\000"
 4135      737400
ARM GAS  /var/folders/3j/4xdnk5197cv_b7cw3n33qk7r0000gn/T//ccXtcaer.s 			page 74


 4136              	.LASF119:
 4137 00a2 62736364 		.ascii	"bscdevice_t\000"
 4137      65766963 
 4137      655F7400 
 4138              	.LASF214:
 4139 00ae 73706953 		.ascii	"spiStop\000"
 4139      746F7000 
 4140              	.LASF157:
 4141 00b6 72786275 		.ascii	"rxbuf\000"
 4141      6600
 4142              	.LASF110:
 4143 00bc 715F746F 		.ascii	"q_top\000"
 4143      7000
 4144              	.LASF13:
 4145 00c2 6C6F6E67 		.ascii	"long long unsigned int\000"
 4145      206C6F6E 
 4145      6720756E 
 4145      7369676E 
 4145      65642069 
 4146              	.LASF210:
 4147 00d9 73706953 		.ascii	"spiStartExchange\000"
 4147      74617274 
 4147      45786368 
 4147      616E6765 
 4147      00
 4148              	.LASF92:
 4149 00ea 63685F74 		.ascii	"ch_threadsize\000"
 4149      68726561 
 4149      6473697A 
 4149      6500
 4150              	.LASF82:
 4151 00f8 65786974 		.ascii	"exitcode\000"
 4151      636F6465 
 4151      00
 4152              	.LASF187:
 4153 0101 53504944 		.ascii	"SPIDriver\000"
 4153      72697665 
 4153      7200
 4154              	.LASF216:
 4155 010b 7370694F 		.ascii	"spiObjectInit\000"
 4155      626A6563 
 4155      74496E69 
 4155      7400
 4156              	.LASF218:
 4157 0119 63684D74 		.ascii	"chMtxUnlock\000"
 4157      78556E6C 
 4157      6F636B00 
 4158              	.LASF124:
 4159 0125 64617461 		.ascii	"dataFifo\000"
 4159      4669666F 
 4159      00
 4160              	.LASF30:
 4161 012e 705F7072 		.ascii	"p_prio\000"
 4161      696F00
 4162              	.LASF99:
 4163 0135 63665F6F 		.ascii	"cf_off_state\000"
 4163      66665F73 
ARM GAS  /var/folders/3j/4xdnk5197cv_b7cw3n33qk7r0000gn/T//ccXtcaer.s 			page 75


 4163      74617465 
 4163      00
 4164              	.LASF180:
 4165 0142 72656164 		.ascii	"readt\000"
 4165      7400
 4166              	.LASF150:
 4167 0148 64657669 		.ascii	"device\000"
 4167      636500
 4168              	.LASF107:
 4169 014f 715F7761 		.ascii	"q_waiting\000"
 4169      6974696E 
 4169      6700
 4170              	.LASF12:
 4171 0159 6C6F6E67 		.ascii	"long long int\000"
 4171      206C6F6E 
 4171      6720696E 
 4171      7400
 4172              	.LASF1:
 4173 0167 7369676E 		.ascii	"signed char\000"
 4173      65642063 
 4173      68617200 
 4174              	.LASF98:
 4175 0173 63665F6F 		.ascii	"cf_off_stklimit\000"
 4175      66665F73 
 4175      746B6C69 
 4175      6D697400 
 4176              	.LASF182:
 4177 0183 5350495F 		.ascii	"SPI_STOP\000"
 4177      53544F50 
 4177      00
 4178              	.LASF100:
 4179 018c 63665F6F 		.ascii	"cf_off_flags\000"
 4179      66665F66 
 4179      6C616773 
 4179      00
 4180              	.LASF167:
 4181 0199 53445F53 		.ascii	"SD_STOP\000"
 4181      544F5000 
 4182              	.LASF230:
 4183 01a1 7370695F 		.ascii	"spi_lld_init\000"
 4183      6C6C645F 
 4183      696E6974 
 4183      00
 4184              	.LASF71:
 4185 01ae 6D5F7175 		.ascii	"m_queue\000"
 4185      65756500 
 4186              	.LASF153:
 4187 01b6 61646472 		.ascii	"addr\000"
 4187      00
 4188              	.LASF231:
 4189 01bb 474E5520 		.ascii	"GNU C11 7.3.1 20180622 (release) [ARM/embedded-7-br"
 4189      43313120 
 4189      372E332E 
 4189      31203230 
 4189      31383036 
 4190 01ee 616E6368 		.ascii	"anch revision 261907] -mcpu=arm1176jz-s -mno-thumb-"
 4190      20726576 
ARM GAS  /var/folders/3j/4xdnk5197cv_b7cw3n33qk7r0000gn/T//ccXtcaer.s 			page 76


 4190      6973696F 
 4190      6E203236 
 4190      31393037 
 4191 0221 696E7465 		.ascii	"interwork -ggdb -O2 -fomit-frame-pointer -ffunction"
 4191      72776F72 
 4191      6B202D67 
 4191      67646220 
 4191      2D4F3220 
 4192 0254 2D736563 		.ascii	"-sections -fdata-sections\000"
 4192      74696F6E 
 4192      73202D66 
 4192      64617461 
 4192      2D736563 
 4193              	.LASF139:
 4194 026e 4932435F 		.ascii	"I2C_UNINIT\000"
 4194      554E494E 
 4194      495400
 4195              	.LASF161:
 4196 0279 69326361 		.ascii	"i2caddr_t\000"
 4196      6464725F 
 4196      7400
 4197              	.LASF147:
 4198 0283 73746174 		.ascii	"state\000"
 4198      6500
 4199              	.LASF9:
 4200 0289 6C6F6E67 		.ascii	"long int\000"
 4200      20696E74 
 4200      00
 4201              	.LASF19:
 4202 0292 74737461 		.ascii	"tstate_t\000"
 4202      74655F74 
 4202      00
 4203              	.LASF208:
 4204 029b 73706953 		.ascii	"spiStartReceive\000"
 4204      74617274 
 4204      52656365 
 4204      69766500 
 4205              	.LASF152:
 4206 02ab 74687265 		.ascii	"thread\000"
 4206      616400
 4207              	.LASF126:
 4208 02b2 64617461 		.ascii	"dataDelay\000"
 4208      44656C61 
 4208      7900
 4209              	.LASF159:
 4210 02bc 72786964 		.ascii	"rxidx\000"
 4210      7800
 4211              	.LASF109:
 4212 02c2 715F6275 		.ascii	"q_buffer\000"
 4212      66666572 
 4212      00
 4213              	.LASF15:
 4214 02cb 75696E74 		.ascii	"uint16_t\000"
 4214      31365F74 
 4214      00
 4215              	.LASF200:
 4216 02d4 53504930 		.ascii	"SPI0\000"
ARM GAS  /var/folders/3j/4xdnk5197cv_b7cw3n33qk7r0000gn/T//ccXtcaer.s 			page 77


 4216      00
 4217              	.LASF211:
 4218 02d9 73706953 		.ascii	"spiStartIgnore\000"
 4218      74617274 
 4218      49676E6F 
 4218      726500
 4219              	.LASF104:
 4220 02e8 63686465 		.ascii	"chdebug_t\000"
 4220      6275675F 
 4220      7400
 4221              	.LASF142:
 4222 02f2 4932435F 		.ascii	"I2C_ACTIVE_TX\000"
 4222      41435449 
 4222      56455F54 
 4222      5800
 4223              	.LASF197:
 4224 0300 636C6F63 		.ascii	"clock_phase\000"
 4224      6B5F7068 
 4224      61736500 
 4225              	.LASF32:
 4226 030c 705F6E65 		.ascii	"p_newer\000"
 4226      77657200 
 4227              	.LASF118:
 4228 0314 5F69646C 		.ascii	"_idle_thread_wa\000"
 4228      655F7468 
 4228      72656164 
 4228      5F776100 
 4229              	.LASF190:
 4230 0324 656E645F 		.ascii	"end_cb\000"
 4230      636200
 4231              	.LASF188:
 4232 032b 7478636E 		.ascii	"txcnt\000"
 4232      7400
 4233              	.LASF194:
 4234 0331 63686970 		.ascii	"chip_select_polarity0\000"
 4234      5F73656C 
 4234      6563745F 
 4234      706F6C61 
 4234      72697479 
 4235              	.LASF195:
 4236 0347 63686970 		.ascii	"chip_select_polarity1\000"
 4236      5F73656C 
 4236      6563745F 
 4236      706F6C61 
 4236      72697479 
 4237              	.LASF120:
 4238 035d 636F6E74 		.ascii	"control\000"
 4238      726F6C00 
 4239              	.LASF10:
 4240 0365 5F5F7569 		.ascii	"__uint32_t\000"
 4240      6E743332 
 4240      5F7400
 4241              	.LASF49:
 4242 0370 72656761 		.ascii	"regarm_t\000"
 4242      726D5F74 
 4242      00
 4243              	.LASF55:
ARM GAS  /var/folders/3j/4xdnk5197cv_b7cw3n33qk7r0000gn/T//ccXtcaer.s 			page 78


 4244 0379 76745F70 		.ascii	"vt_prev\000"
 4244      72657600 
 4245              	.LASF123:
 4246 0381 736C6176 		.ascii	"slaveAddress\000"
 4246      65416464 
 4246      72657373 
 4246      00
 4247              	.LASF189:
 4248 038e 73706963 		.ascii	"spicallback_t\000"
 4248      616C6C62 
 4248      61636B5F 
 4248      7400
 4249              	.LASF164:
 4250 039c 49324330 		.ascii	"I2C0\000"
 4250      00
 4251              	.LASF165:
 4252 03a1 49324331 		.ascii	"I2C1\000"
 4252      00
 4253              	.LASF79:
 4254 03a6 4576656E 		.ascii	"EventSource\000"
 4254      74536F75 
 4254      72636500 
 4255              	.LASF222:
 4256 03b2 7370695F 		.ascii	"spi_lld_send\000"
 4256      6C6C645F 
 4256      73656E64 
 4256      00
 4257              	.LASF220:
 4258 03bf 7370695F 		.ascii	"spi_lld_receive\000"
 4258      6C6C645F 
 4258      72656365 
 4258      69766500 
 4259              	.LASF0:
 4260 03cf 756E7369 		.ascii	"unsigned int\000"
 4260      676E6564 
 4260      20696E74 
 4260      00
 4261              	.LASF54:
 4262 03dc 76745F6E 		.ascii	"vt_next\000"
 4262      65787400 
 4263              	.LASF154:
 4264 03e4 74786275 		.ascii	"txbuf\000"
 4264      6600
 4265              	.LASF174:
 4266 03ea 53657269 		.ascii	"SerialDriverVMT\000"
 4266      616C4472 
 4266      69766572 
 4266      564D5400 
 4267              	.LASF204:
 4268 03fa 73706952 		.ascii	"spiReceive\000"
 4268      65636569 
 4268      766500
 4269              	.LASF149:
 4270 0405 6572726F 		.ascii	"errors\000"
 4270      727300
 4271              	.LASF172:
 4272 040c 69717565 		.ascii	"iqueue\000"
ARM GAS  /var/folders/3j/4xdnk5197cv_b7cw3n33qk7r0000gn/T//ccXtcaer.s 			page 79


 4272      756500
 4273              	.LASF11:
 4274 0413 6C6F6E67 		.ascii	"long unsigned int\000"
 4274      20756E73 
 4274      69676E65 
 4274      6420696E 
 4274      7400
 4275              	.LASF105:
 4276 0425 63685F64 		.ascii	"ch_debug\000"
 4276      65627567 
 4276      00
 4277              	.LASF178:
 4278 042e 67657474 		.ascii	"gett\000"
 4278      00
 4279              	.LASF52:
 4280 0433 76746675 		.ascii	"vtfunc_t\000"
 4280      6E635F74 
 4280      00
 4281              	.LASF86:
 4282 043c 63685F69 		.ascii	"ch_identifier\000"
 4282      64656E74 
 4282      69666965 
 4282      7200
 4283              	.LASF193:
 4284 044a 63686970 		.ascii	"chip_select_polarity\000"
 4284      5F73656C 
 4284      6563745F 
 4284      706F6C61 
 4284      72697479 
 4285              	.LASF171:
 4286 045f 6576656E 		.ascii	"event\000"
 4286      7400
 4287              	.LASF51:
 4288 0465 636F6E74 		.ascii	"context\000"
 4288      65787400 
 4289              	.LASF7:
 4290 046d 73686F72 		.ascii	"short unsigned int\000"
 4290      7420756E 
 4290      7369676E 
 4290      65642069 
 4290      6E7400
 4291              	.LASF134:
 4292 0480 6770696F 		.ascii	"gpio_port_t\000"
 4292      5F706F72 
 4292      745F7400 
 4293              	.LASF130:
 4294 048c 6770636C 		.ascii	"gpclr\000"
 4294      7200
 4295              	.LASF23:
 4296 0492 6D73675F 		.ascii	"msg_t\000"
 4296      7400
 4297              	.LASF173:
 4298 0498 6F717565 		.ascii	"oqueue\000"
 4298      756500
 4299              	.LASF223:
 4300 049f 7370695F 		.ascii	"spi_lld_exchange\000"
 4300      6C6C645F 
ARM GAS  /var/folders/3j/4xdnk5197cv_b7cw3n33qk7r0000gn/T//ccXtcaer.s 			page 80


 4300      65786368 
 4300      616E6765 
 4300      00
 4301              	.LASF64:
 4302 04b0 725F6E65 		.ascii	"r_newer\000"
 4302      77657200 
 4303              	.LASF75:
 4304 04b8 656C5F6E 		.ascii	"el_next\000"
 4304      65787400 
 4305              	.LASF179:
 4306 04c0 77726974 		.ascii	"writet\000"
 4306      657400
 4307              	.LASF18:
 4308 04c7 746D6F64 		.ascii	"tmode_t\000"
 4308      655F7400 
 4309              	.LASF212:
 4310 04cf 73706955 		.ascii	"spiUnselect\000"
 4310      6E73656C 
 4310      65637400 
 4311              	.LASF47:
 4312 04db 54687265 		.ascii	"ThreadsList\000"
 4312      6164734C 
 4312      69737400 
 4313              	.LASF24:
 4314 04e7 6576656E 		.ascii	"eventmask_t\000"
 4314      746D6173 
 4314      6B5F7400 
 4315              	.LASF116:
 4316 04f3 496E7075 		.ascii	"InputQueue\000"
 4316      74517565 
 4316      756500
 4317              	.LASF70:
 4318 04fe 4D757465 		.ascii	"Mutex\000"
 4318      7800
 4319              	.LASF143:
 4320 0504 4932435F 		.ascii	"I2C_ACTIVE_RX\000"
 4320      41435449 
 4320      56455F52 
 4320      5800
 4321              	.LASF106:
 4322 0512 47656E65 		.ascii	"GenericQueue\000"
 4322      72696351 
 4322      75657565 
 4322      00
 4323              	.LASF48:
 4324 051f 73746B61 		.ascii	"stkalign_t\000"
 4324      6C69676E 
 4324      5F7400
 4325              	.LASF217:
 4326 052a 73706949 		.ascii	"spiInit\000"
 4326      6E697400 
 4327              	.LASF87:
 4328 0532 63685F7A 		.ascii	"ch_zero\000"
 4328      65726F00 
 4329              	.LASF101:
 4330 053a 63665F6F 		.ascii	"cf_off_refs\000"
 4330      66665F72 
ARM GAS  /var/folders/3j/4xdnk5197cv_b7cw3n33qk7r0000gn/T//ccXtcaer.s 			page 81


 4330      65667300 
 4331              	.LASF131:
 4332 0546 67706C65 		.ascii	"gplev\000"
 4332      7600
 4333              	.LASF177:
 4334 054c 70757474 		.ascii	"putt\000"
 4334      00
 4335              	.LASF206:
 4336 0551 73706945 		.ascii	"spiExchange\000"
 4336      78636861 
 4336      6E676500 
 4337              	.LASF56:
 4338 055d 76745F74 		.ascii	"vt_time\000"
 4338      696D6500 
 4339              	.LASF140:
 4340 0565 4932435F 		.ascii	"I2C_STOP\000"
 4340      53544F50 
 4340      00
 4341              	.LASF228:
 4342 056e 7370695F 		.ascii	"spi_lld_start\000"
 4342      6C6C645F 
 4342      73746172 
 4342      7400
 4343              	.LASF125:
 4344 057c 636C6F63 		.ascii	"clockDivider\000"
 4344      6B446976 
 4344      69646572 
 4344      00
 4345              	.LASF108:
 4346 0589 715F636F 		.ascii	"q_counter\000"
 4346      756E7465 
 4346      7200
 4347              	.LASF57:
 4348 0593 76745F66 		.ascii	"vt_func\000"
 4348      756E6300 
 4349              	.LASF91:
 4350 059b 63685F74 		.ascii	"ch_timesize\000"
 4350      696D6573 
 4350      697A6500 
 4351              	.LASF227:
 4352 05a7 7370695F 		.ascii	"spi_lld_stop\000"
 4352      6C6C645F 
 4352      73746F70 
 4352      00
 4353              	.LASF162:
 4354 05b4 69635F73 		.ascii	"ic_speed\000"
 4354      70656564 
 4354      00
 4355              	.LASF97:
 4356 05bd 63665F6F 		.ascii	"cf_off_name\000"
 4356      66665F6E 
 4356      616D6500 
 4357              	.LASF219:
 4358 05c9 63684D74 		.ascii	"chMtxLock\000"
 4358      784C6F63 
 4358      6B00
 4359              	.LASF33:
ARM GAS  /var/folders/3j/4xdnk5197cv_b7cw3n33qk7r0000gn/T//ccXtcaer.s 			page 82


 4360 05d3 705F6F6C 		.ascii	"p_older\000"
 4360      64657200 
 4361              	.LASF158:
 4362 05db 72786279 		.ascii	"rxbytes\000"
 4362      74657300 
 4363              	.LASF111:
 4364 05e3 715F7772 		.ascii	"q_wrptr\000"
 4364      70747200 
 4365              	.LASF63:
 4366 05eb 725F6374 		.ascii	"r_ctx\000"
 4366      7800
 4367              	.LASF46:
 4368 05f1 54687265 		.ascii	"ThreadsQueue\000"
 4368      61647351 
 4368      75657565 
 4368      00
 4369              	.LASF88:
 4370 05fe 63685F73 		.ascii	"ch_size\000"
 4370      697A6500 
 4371              	.LASF136:
 4372 0606 494F504F 		.ascii	"IOPORT0\000"
 4372      52543000 
 4373              	.LASF66:
 4374 060e 725F6375 		.ascii	"r_current\000"
 4374      7272656E 
 4374      7400
 4375              	.LASF65:
 4376 0618 725F6F6C 		.ascii	"r_older\000"
 4376      64657200 
 4377              	.LASF77:
 4378 0620 656C5F6D 		.ascii	"el_mask\000"
 4378      61736B00 
 4379              	.LASF129:
 4380 0628 67707365 		.ascii	"gpset\000"
 4380      7400
 4381              	.LASF132:
 4382 062e 67707075 		.ascii	"gppudclk\000"
 4382      64636C6B 
 4382      00
 4383              	.LASF191:
 4384 0637 6C6F7373 		.ascii	"lossiEnabled\000"
 4384      69456E61 
 4384      626C6564 
 4384      00
 4385              	.LASF226:
 4386 0644 7370695F 		.ascii	"spi_lld_select\000"
 4386      6C6C645F 
 4386      73656C65 
 4386      637400
 4387              	.LASF192:
 4388 0653 63686970 		.ascii	"chip_select\000"
 4388      5F73656C 
 4388      65637400 
 4389              	.LASF20:
 4390 065f 74726566 		.ascii	"trefs_t\000"
 4390      735F7400 
 4391              	.LASF145:
ARM GAS  /var/folders/3j/4xdnk5197cv_b7cw3n33qk7r0000gn/T//ccXtcaer.s 			page 83


 4392 0667 69326373 		.ascii	"i2cstate_t\000"
 4392      74617465 
 4392      5F7400
 4393              	.LASF90:
 4394 0672 63685F70 		.ascii	"ch_ptrsize\000"
 4394      74727369 
 4394      7A6500
 4395              	.LASF115:
 4396 067d 716E6F74 		.ascii	"qnotify_t\000"
 4396      6966795F 
 4396      7400
 4397              	.LASF29:
 4398 0687 705F7072 		.ascii	"p_prev\000"
 4398      657600
 4399              	.LASF205:
 4400 068e 73706953 		.ascii	"spiSend\000"
 4400      656E6400 
 4401              	.LASF22:
 4402 0696 74707269 		.ascii	"tprio_t\000"
 4402      6F5F7400 
 4403              	.LASF112:
 4404 069e 715F7264 		.ascii	"q_rdptr\000"
 4404      70747200 
 4405              	.LASF160:
 4406 06a6 69326366 		.ascii	"i2cflags_t\000"
 4406      6C616773 
 4406      5F7400
 4407              	.LASF151:
 4408 06b1 6D757465 		.ascii	"mutex\000"
 4408      7800
 4409              	.LASF16:
 4410 06b7 696E7433 		.ascii	"int32_t\000"
 4410      325F7400 
 4411              	.LASF4:
 4412 06bf 756E7369 		.ascii	"unsigned char\000"
 4412      676E6564 
 4412      20636861 
 4412      7200
 4413              	.LASF76:
 4414 06cd 656C5F6C 		.ascii	"el_listener\000"
 4414      69737465 
 4414      6E657200 
 4415              	.LASF78:
 4416 06d9 656C5F66 		.ascii	"el_flags\000"
 4416      6C616773 
 4416      00
 4417              	.LASF44:
 4418 06e2 705F6D74 		.ascii	"p_mtxlist\000"
 4418      786C6973 
 4418      7400
 4419              	.LASF5:
 4420 06ec 73686F72 		.ascii	"short int\000"
 4420      7420696E 
 4420      7400
 4421              	.LASF35:
 4422 06f6 705F7374 		.ascii	"p_state\000"
 4422      61746500 
ARM GAS  /var/folders/3j/4xdnk5197cv_b7cw3n33qk7r0000gn/T//ccXtcaer.s 			page 84


 4423              	.LASF38:
 4424 06fe 705F7072 		.ascii	"p_preempt\000"
 4424      65656D70 
 4424      7400
 4425              	.LASF103:
 4426 0708 63665F6F 		.ascii	"cf_off_time\000"
 4426      66665F74 
 4426      696D6500 
 4427              	.LASF62:
 4428 0714 725F7072 		.ascii	"r_prio\000"
 4428      696F00
 4429              	.LASF133:
 4430 071b 70696E5F 		.ascii	"pin_base\000"
 4430      62617365 
 4430      00
 4431              	.LASF84:
 4432 0724 65776D61 		.ascii	"ewmask\000"
 4432      736B00
 4433              	.LASF28:
 4434 072b 705F6E65 		.ascii	"p_next\000"
 4434      787400
 4435              	.LASF137:
 4436 0732 494F504F 		.ascii	"IOPORT1\000"
 4436      52543100 
 4437              	.LASF102:
 4438 073a 63665F6F 		.ascii	"cf_off_preempt\000"
 4438      66665F70 
 4438      7265656D 
 4438      707400
 4439              	.LASF36:
 4440 0749 705F666C 		.ascii	"p_flags\000"
 4440      61677300 
 4441              	.LASF225:
 4442 0751 7370695F 		.ascii	"spi_lld_unselect\000"
 4442      6C6C645F 
 4442      756E7365 
 4442      6C656374 
 4442      00
 4443              	.LASF27:
 4444 0762 54687265 		.ascii	"Thread\000"
 4444      616400
 4445              	.LASF198:
 4446 0769 636C6F63 		.ascii	"clock_divider\000"
 4446      6B5F6469 
 4446      76696465 
 4446      7200
 4447              	.LASF95:
 4448 0777 63665F6F 		.ascii	"cf_off_newer\000"
 4448      66665F6E 
 4448      65776572 
 4448      00
 4449              	.LASF144:
 4450 0784 4932435F 		.ascii	"I2C_LOCKED\000"
 4450      4C4F434B 
 4450      454400
 4451              	.LASF221:
 4452 078f 63685363 		.ascii	"chSchGoSleepS\000"
ARM GAS  /var/folders/3j/4xdnk5197cv_b7cw3n33qk7r0000gn/T//ccXtcaer.s 			page 85


 4452      68476F53 
 4452      6C656570 
 4452      5300
 4453              	.LASF43:
 4454 079d 705F6570 		.ascii	"p_epending\000"
 4454      656E6469 
 4454      6E6700
 4455              	.LASF166:
 4456 07a8 53445F55 		.ascii	"SD_UNINIT\000"
 4456      4E494E49 
 4456      5400
 4457              	.LASF17:
 4458 07b2 75696E74 		.ascii	"uint32_t\000"
 4458      33325F74 
 4458      00
 4459              	.LASF93:
 4460 07bb 63665F6F 		.ascii	"cf_off_prio\000"
 4460      66665F70 
 4460      72696F00 
 4461              	.LASF61:
 4462 07c7 725F7175 		.ascii	"r_queue\000"
 4462      65756500 
 4463              	.LASF53:
 4464 07cf 56697274 		.ascii	"VirtualTimer\000"
 4464      75616C54 
 4464      696D6572 
 4464      00
 4465              	.LASF170:
 4466 07dc 53657269 		.ascii	"SerialDriver\000"
 4466      616C4472 
 4466      69766572 
 4466      00
 4467              	.LASF21:
 4468 07e9 74736C69 		.ascii	"tslices_t\000"
 4468      6365735F 
 4468      7400
 4469              	.LASF176:
 4470 07f3 72656164 		.ascii	"read\000"
 4470      00
 4471              	.LASF85:
 4472 07f8 63686172 		.ascii	"char\000"
 4472      00
 4473              	.LASF232:
 4474 07fd 2E2E2F2F 		.ascii	"..//os/hal/src/spi.c\000"
 4474      6F732F68 
 4474      616C2F73 
 4474      72632F73 
 4474      70692E63 
 4475              	.LASF185:
 4476 0812 5350495F 		.ascii	"SPI_COMPLETE\000"
 4476      434F4D50 
 4476      4C455445 
 4476      00
 4477              	.LASF148:
 4478 081f 636F6E66 		.ascii	"config\000"
 4478      696700
 4479              	.LASF6:
ARM GAS  /var/folders/3j/4xdnk5197cv_b7cw3n33qk7r0000gn/T//ccXtcaer.s 			page 86


 4480 0826 5F5F7569 		.ascii	"__uint16_t\000"
 4480      6E743136 
 4480      5F7400
 4481              	.LASF224:
 4482 0831 7370695F 		.ascii	"spi_lld_ignore\000"
 4482      6C6C645F 
 4482      69676E6F 
 4482      726500
 4483              	.LASF186:
 4484 0840 73706973 		.ascii	"spistate_t\000"
 4484      74617465 
 4484      5F7400
 4485              	.LASF73:
 4486 084b 6D5F6E65 		.ascii	"m_next\000"
 4486      787400
 4487              	.LASF26:
 4488 0852 73797374 		.ascii	"systime_t\000"
 4488      696D655F 
 4488      7400
 4489              	.LASF45:
 4490 085c 705F7265 		.ascii	"p_realprio\000"
 4490      616C7072 
 4490      696F00
 4491              	.LASF8:
 4492 0867 5F5F696E 		.ascii	"__int32_t\000"
 4492      7433325F 
 4492      7400
 4493              	.LASF209:
 4494 0871 73706953 		.ascii	"spiStartSend\000"
 4494      74617274 
 4494      53656E64 
 4494      00
 4495              	.LASF201:
 4496 087e 73706952 		.ascii	"spiReleaseBus\000"
 4496      656C6561 
 4496      73654275 
 4496      7300
 4497              	.LASF207:
 4498 088c 73706949 		.ascii	"spiIgnore\000"
 4498      676E6F72 
 4498      6500
 4499              	.LASF141:
 4500 0896 4932435F 		.ascii	"I2C_READY\000"
 4500      52454144 
 4500      5900
 4501              	.LASF146:
 4502 08a0 49324344 		.ascii	"I2CDriver\000"
 4502      72697665 
 4502      7200
 4503              	.LASF39:
 4504 08aa 705F7469 		.ascii	"p_time\000"
 4504      6D6500
 4505              	.LASF196:
 4506 08b1 636C6F63 		.ascii	"clock_polarity\000"
 4506      6B5F706F 
 4506      6C617269 
 4506      747900
ARM GAS  /var/folders/3j/4xdnk5197cv_b7cw3n33qk7r0000gn/T//ccXtcaer.s 			page 87


 4507              	.LASF215:
 4508 08c0 73706953 		.ascii	"spiStart\000"
 4508      74617274 
 4508      00
 4509              	.LASF213:
 4510 08c9 73706953 		.ascii	"spiSelect\000"
 4510      656C6563 
 4510      7400
 4511              	.LASF50:
 4512 08d3 696E7463 		.ascii	"intctx\000"
 4512      747800
 4513              	.LASF41:
 4514 08da 705F6D73 		.ascii	"p_msgqueue\000"
 4514      67717565 
 4514      756500
 4515              	.LASF168:
 4516 08e5 53445F52 		.ascii	"SD_READY\000"
 4516      45414459 
 4516      00
 4517              	.LASF183:
 4518 08ee 5350495F 		.ascii	"SPI_READY\000"
 4518      52454144 
 4518      5900
 4519              	.LASF181:
 4520 08f8 5350495F 		.ascii	"SPI_UNINIT\000"
 4520      554E494E 
 4520      495400
 4521              	.LASF58:
 4522 0903 76745F70 		.ascii	"vt_par\000"
 4522      617200
 4523              	.LASF229:
 4524 090a 63684D74 		.ascii	"chMtxInit\000"
 4524      78496E69 
 4524      7400
 4525              	.LASF25:
 4526 0914 666C6167 		.ascii	"flagsmask_t\000"
 4526      736D6173 
 4526      6B5F7400 
 4527              	.LASF163:
 4528 0920 49324343 		.ascii	"I2CConfig\000"
 4528      6F6E6669 
 4528      6700
 4529              	.LASF169:
 4530 092a 73647374 		.ascii	"sdstate_t\000"
 4530      6174655F 
 4530      7400
 4531              	.LASF156:
 4532 0934 74786964 		.ascii	"txidx\000"
 4532      7800
 4533              	.LASF94:
 4534 093a 63665F6F 		.ascii	"cf_off_ctx\000"
 4534      66665F63 
 4534      747800
 4535              	.LASF37:
 4536 0945 705F7265 		.ascii	"p_refs\000"
 4536      667300
 4537              	.LASF121:
ARM GAS  /var/folders/3j/4xdnk5197cv_b7cw3n33qk7r0000gn/T//ccXtcaer.s 			page 88


 4538 094c 73746174 		.ascii	"status\000"
 4538      757300
 4539              	.LASF67:
 4540 0953 52656164 		.ascii	"ReadyList\000"
 4540      794C6973 
 4540      7400
 4541              	.LASF113:
 4542 095d 715F6E6F 		.ascii	"q_notify\000"
 4542      74696679 
 4542      00
 4543              	.LASF69:
 4544 0966 726C6973 		.ascii	"rlist\000"
 4544      7400
 4545              	.LASF14:
 4546 096c 75696E74 		.ascii	"uint8_t\000"
 4546      385F7400 
 4547              	.LASF203:
 4548 0974 73706970 		.ascii	"spip\000"
 4548      00
 4549              	.LASF128:
 4550 0979 6C617463 		.ascii	"latch\000"
 4550      6800
 4551              	.LASF74:
 4552 097f 4576656E 		.ascii	"EventListener\000"
 4552      744C6973 
 4552      74656E65 
 4552      7200
 4553              	.LASF83:
 4554 098d 77746F62 		.ascii	"wtobjp\000"
 4554      6A7000
 4555              	.LASF34:
 4556 0994 705F6E61 		.ascii	"p_name\000"
 4556      6D6500
 4557              	.LASF59:
 4558 099b 76745F73 		.ascii	"vt_systime\000"
 4558      79737469 
 4558      6D6500
 4559              	.LASF80:
 4560 09a6 65735F6E 		.ascii	"es_next\000"
 4560      65787400 
 4561              	.LASF202:
 4562 09ae 73706941 		.ascii	"spiAcquireBus\000"
 4562      63717569 
 4562      72654275 
 4562      7300
 4563              	.LASF199:
 4564 09bc 53504943 		.ascii	"SPIConfig\000"
 4564      6F6E6669 
 4564      6700
 4565              	.LASF89:
 4566 09c6 63685F76 		.ascii	"ch_version\000"
 4566      65727369 
 4566      6F6E00
 4567              	.LASF122:
 4568 09d1 64617461 		.ascii	"dataLength\000"
 4568      4C656E67 
 4568      746800
ARM GAS  /var/folders/3j/4xdnk5197cv_b7cw3n33qk7r0000gn/T//ccXtcaer.s 			page 89


 4569              	.LASF60:
 4570 09dc 56544C69 		.ascii	"VTList\000"
 4570      737400
 4571              	.LASF114:
 4572 09e3 715F6C69 		.ascii	"q_link\000"
 4572      6E6B00
 4573              	.LASF135:
 4574 09ea 50414C43 		.ascii	"PALConfig\000"
 4574      6F6E6669 
 4574      6700
 4575              	.LASF72:
 4576 09f4 6D5F6F77 		.ascii	"m_owner\000"
 4576      6E657200 
 4577              	.LASF138:
 4578 09fc 70616C5F 		.ascii	"pal_default_config\000"
 4578      64656661 
 4578      756C745F 
 4578      636F6E66 
 4578      696700
 4579              	.LASF31:
 4580 0a0f 705F6374 		.ascii	"p_ctx\000"
 4580      7800
 4581              	.LASF40:
 4582 0a15 705F7761 		.ascii	"p_waiting\000"
 4582      6974696E 
 4582      6700
 4583              	.LASF155:
 4584 0a1f 74786279 		.ascii	"txbytes\000"
 4584      74657300 
 4585              	.LASF127:
 4586 0a27 636C6F63 		.ascii	"clockStretchTimeout\000"
 4586      6B537472 
 4586      65746368 
 4586      54696D65 
 4586      6F757400 
 4587              		.ident	"GCC: (GNU Tools for Arm Embedded Processors 7-2018-q2-update) 7.3.1 20180622 (release) [AR
ARM GAS  /var/folders/3j/4xdnk5197cv_b7cw3n33qk7r0000gn/T//ccXtcaer.s 			page 90


DEFINED SYMBOLS
                            *ABS*:0000000000000000 spi.c
/var/folders/3j/4xdnk5197cv_b7cw3n33qk7r0000gn/T//ccXtcaer.s:16     .text.spiInit:0000000000000000 $a
/var/folders/3j/4xdnk5197cv_b7cw3n33qk7r0000gn/T//ccXtcaer.s:22     .text.spiInit:0000000000000000 spiInit
/var/folders/3j/4xdnk5197cv_b7cw3n33qk7r0000gn/T//ccXtcaer.s:37     .text.spiObjectInit:0000000000000000 $a
/var/folders/3j/4xdnk5197cv_b7cw3n33qk7r0000gn/T//ccXtcaer.s:43     .text.spiObjectInit:0000000000000000 spiObjectInit
/var/folders/3j/4xdnk5197cv_b7cw3n33qk7r0000gn/T//ccXtcaer.s:70     .text.spiStart:0000000000000000 $a
/var/folders/3j/4xdnk5197cv_b7cw3n33qk7r0000gn/T//ccXtcaer.s:76     .text.spiStart:0000000000000000 spiStart
/var/folders/3j/4xdnk5197cv_b7cw3n33qk7r0000gn/T//ccXtcaer.s:117    .text.spiStop:0000000000000000 $a
/var/folders/3j/4xdnk5197cv_b7cw3n33qk7r0000gn/T//ccXtcaer.s:123    .text.spiStop:0000000000000000 spiStop
/var/folders/3j/4xdnk5197cv_b7cw3n33qk7r0000gn/T//ccXtcaer.s:166    .text.spiSelect:0000000000000000 $a
/var/folders/3j/4xdnk5197cv_b7cw3n33qk7r0000gn/T//ccXtcaer.s:172    .text.spiSelect:0000000000000000 spiSelect
/var/folders/3j/4xdnk5197cv_b7cw3n33qk7r0000gn/T//ccXtcaer.s:206    .text.spiUnselect:0000000000000000 $a
/var/folders/3j/4xdnk5197cv_b7cw3n33qk7r0000gn/T//ccXtcaer.s:212    .text.spiUnselect:0000000000000000 spiUnselect
/var/folders/3j/4xdnk5197cv_b7cw3n33qk7r0000gn/T//ccXtcaer.s:246    .text.spiStartIgnore:0000000000000000 $a
/var/folders/3j/4xdnk5197cv_b7cw3n33qk7r0000gn/T//ccXtcaer.s:252    .text.spiStartIgnore:0000000000000000 spiStartIgnore
/var/folders/3j/4xdnk5197cv_b7cw3n33qk7r0000gn/T//ccXtcaer.s:288    .text.spiStartExchange:0000000000000000 $a
/var/folders/3j/4xdnk5197cv_b7cw3n33qk7r0000gn/T//ccXtcaer.s:294    .text.spiStartExchange:0000000000000000 spiStartExchange
/var/folders/3j/4xdnk5197cv_b7cw3n33qk7r0000gn/T//ccXtcaer.s:330    .text.spiStartSend:0000000000000000 $a
/var/folders/3j/4xdnk5197cv_b7cw3n33qk7r0000gn/T//ccXtcaer.s:336    .text.spiStartSend:0000000000000000 spiStartSend
/var/folders/3j/4xdnk5197cv_b7cw3n33qk7r0000gn/T//ccXtcaer.s:372    .text.spiStartReceive:0000000000000000 $a
/var/folders/3j/4xdnk5197cv_b7cw3n33qk7r0000gn/T//ccXtcaer.s:378    .text.spiStartReceive:0000000000000000 spiStartReceive
/var/folders/3j/4xdnk5197cv_b7cw3n33qk7r0000gn/T//ccXtcaer.s:414    .text.spiIgnore:0000000000000000 $a
/var/folders/3j/4xdnk5197cv_b7cw3n33qk7r0000gn/T//ccXtcaer.s:420    .text.spiIgnore:0000000000000000 spiIgnore
/var/folders/3j/4xdnk5197cv_b7cw3n33qk7r0000gn/T//ccXtcaer.s:464    .text.spiIgnore:0000000000000034 $d
/var/folders/3j/4xdnk5197cv_b7cw3n33qk7r0000gn/T//ccXtcaer.s:469    .text.spiExchange:0000000000000000 $a
/var/folders/3j/4xdnk5197cv_b7cw3n33qk7r0000gn/T//ccXtcaer.s:475    .text.spiExchange:0000000000000000 spiExchange
/var/folders/3j/4xdnk5197cv_b7cw3n33qk7r0000gn/T//ccXtcaer.s:519    .text.spiExchange:0000000000000034 $d
/var/folders/3j/4xdnk5197cv_b7cw3n33qk7r0000gn/T//ccXtcaer.s:524    .text.spiSend:0000000000000000 $a
/var/folders/3j/4xdnk5197cv_b7cw3n33qk7r0000gn/T//ccXtcaer.s:530    .text.spiSend:0000000000000000 spiSend
/var/folders/3j/4xdnk5197cv_b7cw3n33qk7r0000gn/T//ccXtcaer.s:574    .text.spiSend:0000000000000034 $d
/var/folders/3j/4xdnk5197cv_b7cw3n33qk7r0000gn/T//ccXtcaer.s:579    .text.spiReceive:0000000000000000 $a
/var/folders/3j/4xdnk5197cv_b7cw3n33qk7r0000gn/T//ccXtcaer.s:585    .text.spiReceive:0000000000000000 spiReceive
/var/folders/3j/4xdnk5197cv_b7cw3n33qk7r0000gn/T//ccXtcaer.s:629    .text.spiReceive:0000000000000034 $d
/var/folders/3j/4xdnk5197cv_b7cw3n33qk7r0000gn/T//ccXtcaer.s:634    .text.spiAcquireBus:0000000000000000 $a
/var/folders/3j/4xdnk5197cv_b7cw3n33qk7r0000gn/T//ccXtcaer.s:640    .text.spiAcquireBus:0000000000000000 spiAcquireBus
/var/folders/3j/4xdnk5197cv_b7cw3n33qk7r0000gn/T//ccXtcaer.s:657    .text.spiReleaseBus:0000000000000000 $a
/var/folders/3j/4xdnk5197cv_b7cw3n33qk7r0000gn/T//ccXtcaer.s:663    .text.spiReleaseBus:0000000000000000 spiReleaseBus

UNDEFINED SYMBOLS
spi_lld_init
chMtxInit
spi_lld_start
spi_lld_unselect
spi_lld_stop
spi_lld_select
spi_lld_ignore
spi_lld_exchange
spi_lld_send
spi_lld_receive
chSchGoSleepS
rlist
chMtxLock
chMtxUnlock
