ARM GAS  /var/folders/3j/4xdnk5197cv_b7cw3n33qk7r0000gn/T//ccXtcaer.s 			page 1


   1              		.cpu arm1176jz-s
   2              		.eabi_attribute 20, 1
   3              		.eabi_attribute 21, 1
   4              		.eabi_attribute 23, 3
   5              		.eabi_attribute 24, 1
   6              		.eabi_attribute 25, 1
   7              		.eabi_attribute 26, 1
   8              		.eabi_attribute 30, 2
   9              		.eabi_attribute 34, 1
  10              		.eabi_attribute 18, 4
  11              		.file	"spi.c"
  12              		.text
  13              	.Ltext0:
  14              		.cfi_sections	.debug_frame
  15              		.section	.text.spiInit,"ax",%progbits
  16              		.align	2
  17              		.global	spiInit
  18              		.syntax unified
  19              		.arm
  20              		.fpu softvfp
  21              		.type	spiInit, %function
  22              	spiInit:
  23              	.LFB7:
  24              		.file 1 "..//os/hal/src/spi.c"
  25              		.loc 1 61 0
  26              		.cfi_startproc
  27              		@ args = 0, pretend = 0, frame = 0
  28              		@ frame_needed = 0, uses_anonymous_args = 0
  29              		@ link register save eliminated.
  30              		.loc 1 63 0
  31 0000 FEFFFFEA 		b	spi_lld_init
  32              	.LVL0:
  33              		.cfi_endproc
  34              	.LFE7:
  35              		.size	spiInit, .-spiInit
  36              		.section	.text.spiObjectInit,"ax",%progbits
  37              		.align	2
  38              		.global	spiObjectInit
  39              		.syntax unified
  40              		.arm
  41              		.fpu softvfp
  42              		.type	spiObjectInit, %function
  43              	spiObjectInit:
  44              	.LFB8:
  45              		.loc 1 73 0
  46              		.cfi_startproc
  47              		@ args = 0, pretend = 0, frame = 0
  48              		@ frame_needed = 0, uses_anonymous_args = 0
  49              		@ link register save eliminated.
  50              	.LVL1:
  51              		.loc 1 76 0
  52 0000 0030A0E3 		mov	r3, #0
  53              		.loc 1 75 0
  54 0004 0120A0E3 		mov	r2, #1
  55              		.loc 1 76 0
  56 0008 043080E5 		str	r3, [r0, #4]
  57              		.loc 1 75 0
ARM GAS  /var/folders/3j/4xdnk5197cv_b7cw3n33qk7r0000gn/T//ccXtcaer.s 			page 2


  58 000c 0020C0E5 		strb	r2, [r0]
  59              		.loc 1 78 0
  60 0010 083080E5 		str	r3, [r0, #8]
  61              		.loc 1 82 0
  62 0014 0C0080E2 		add	r0, r0, #12
  63              	.LVL2:
  64 0018 FEFFFFEA 		b	chMtxInit
  65              	.LVL3:
  66              		.cfi_endproc
  67              	.LFE8:
  68              		.size	spiObjectInit, .-spiObjectInit
  69              		.section	.text.spiStart,"ax",%progbits
  70              		.align	2
  71              		.global	spiStart
  72              		.syntax unified
  73              		.arm
  74              		.fpu softvfp
  75              		.type	spiStart, %function
  76              	spiStart:
  77              	.LFB9:
  78              		.loc 1 100 0
  79              		.cfi_startproc
  80              		@ args = 0, pretend = 0, frame = 0
  81              		@ frame_needed = 0, uses_anonymous_args = 0
  82              	.LVL4:
  83 0000 10402DE9 		push	{r4, lr}
  84              		.cfi_def_cfa_offset 8
  85              		.cfi_offset 4, -8
  86              		.cfi_offset 14, -4
  87              		.loc 1 100 0
  88 0004 0040A0E1 		mov	r4, r0
  89              		.loc 1 104 0
  90              		.syntax divided
  91              	@ 104 "..//os/hal/src/spi.c" 1
  92 0008 9FF021E3 		msr     CPSR_c, #0x9F
  93              	@ 0 "" 2
  94              		.loc 1 107 0
  95              		.arm
  96              		.syntax unified
  97 000c 041080E5 		str	r1, [r0, #4]
  98              		.loc 1 108 0
  99 0010 FEFFFFEB 		bl	spi_lld_start
 100              	.LVL5:
 101              		.loc 1 109 0
 102 0014 0230A0E3 		mov	r3, #2
 103 0018 0030C4E5 		strb	r3, [r4]
 104              		.loc 1 110 0
 105              		.syntax divided
 106              	@ 110 "..//os/hal/src/spi.c" 1
 107 001c 1FF021E3 		msr     CPSR_c, #0x1F
 108              	@ 0 "" 2
 109              		.loc 1 111 0
 110              		.arm
 111              		.syntax unified
 112 0020 1080BDE8 		pop	{r4, pc}
 113              		.cfi_endproc
 114              	.LFE9:
ARM GAS  /var/folders/3j/4xdnk5197cv_b7cw3n33qk7r0000gn/T//ccXtcaer.s 			page 3


 115              		.size	spiStart, .-spiStart
 116              		.section	.text.spiStop,"ax",%progbits
 117              		.align	2
 118              		.global	spiStop
 119              		.syntax unified
 120              		.arm
 121              		.fpu softvfp
 122              		.type	spiStop, %function
 123              	spiStop:
 124              	.LFB10:
 125              		.loc 1 122 0
 126              		.cfi_startproc
 127              		@ args = 0, pretend = 0, frame = 0
 128              		@ frame_needed = 0, uses_anonymous_args = 0
 129              	.LVL6:
 130 0000 10402DE9 		push	{r4, lr}
 131              		.cfi_def_cfa_offset 8
 132              		.cfi_offset 4, -8
 133              		.cfi_offset 14, -4
 134              		.loc 1 122 0
 135 0004 0040A0E1 		mov	r4, r0
 136              		.loc 1 126 0
 137              		.syntax divided
 138              	@ 126 "..//os/hal/src/spi.c" 1
 139 0008 9FF021E3 		msr     CPSR_c, #0x9F
 140              	@ 0 "" 2
 141              		.loc 1 129 0
 142              		.arm
 143              		.syntax unified
 144 000c FEFFFFEB 		bl	spi_lld_unselect
 145              	.LVL7:
 146              		.loc 1 130 0
 147 0010 0400A0E1 		mov	r0, r4
 148 0014 FEFFFFEB 		bl	spi_lld_stop
 149              	.LVL8:
 150              		.loc 1 131 0
 151 0018 0130A0E3 		mov	r3, #1
 152 001c 0030C4E5 		strb	r3, [r4]
 153              		.loc 1 132 0
 154              		.syntax divided
 155              	@ 132 "..//os/hal/src/spi.c" 1
 156 0020 1FF021E3 		msr     CPSR_c, #0x1F
 157              	@ 0 "" 2
 158              		.loc 1 133 0
 159              		.arm
 160              		.syntax unified
 161 0024 1080BDE8 		pop	{r4, pc}
 162              		.cfi_endproc
 163              	.LFE10:
 164              		.size	spiStop, .-spiStop
 165              		.section	.text.spiSelect,"ax",%progbits
 166              		.align	2
 167              		.global	spiSelect
 168              		.syntax unified
 169              		.arm
 170              		.fpu softvfp
 171              		.type	spiSelect, %function
ARM GAS  /var/folders/3j/4xdnk5197cv_b7cw3n33qk7r0000gn/T//ccXtcaer.s 			page 4


 172              	spiSelect:
 173              	.LFB11:
 174              		.loc 1 142 0
 175              		.cfi_startproc
 176              		@ args = 0, pretend = 0, frame = 0
 177              		@ frame_needed = 0, uses_anonymous_args = 0
 178              	.LVL9:
 179 0000 10402DE9 		push	{r4, lr}
 180              		.cfi_def_cfa_offset 8
 181              		.cfi_offset 4, -8
 182              		.cfi_offset 14, -4
 183              		.loc 1 146 0
 184              		.syntax divided
 185              	@ 146 "..//os/hal/src/spi.c" 1
 186 0004 9FF021E3 		msr     CPSR_c, #0x9F
 187              	@ 0 "" 2
 188              		.loc 1 148 0
 189              		.arm
 190              		.syntax unified
 191 0008 FEFFFFEB 		bl	spi_lld_select
 192              	.LVL10:
 193              		.loc 1 149 0
 194              		.syntax divided
 195              	@ 149 "..//os/hal/src/spi.c" 1
 196 000c 1FF021E3 		msr     CPSR_c, #0x1F
 197              	@ 0 "" 2
 198              		.loc 1 150 0
 199              		.arm
 200              		.syntax unified
 201 0010 1080BDE8 		pop	{r4, pc}
 202              		.cfi_endproc
 203              	.LFE11:
 204              		.size	spiSelect, .-spiSelect
 205              		.section	.text.spiUnselect,"ax",%progbits
 206              		.align	2
 207              		.global	spiUnselect
 208              		.syntax unified
 209              		.arm
 210              		.fpu softvfp
 211              		.type	spiUnselect, %function
 212              	spiUnselect:
 213              	.LFB12:
 214              		.loc 1 160 0
 215              		.cfi_startproc
 216              		@ args = 0, pretend = 0, frame = 0
 217              		@ frame_needed = 0, uses_anonymous_args = 0
 218              	.LVL11:
 219 0000 10402DE9 		push	{r4, lr}
 220              		.cfi_def_cfa_offset 8
 221              		.cfi_offset 4, -8
 222              		.cfi_offset 14, -4
 223              		.loc 1 164 0
 224              		.syntax divided
 225              	@ 164 "..//os/hal/src/spi.c" 1
 226 0004 9FF021E3 		msr     CPSR_c, #0x9F
 227              	@ 0 "" 2
 228              		.loc 1 166 0
ARM GAS  /var/folders/3j/4xdnk5197cv_b7cw3n33qk7r0000gn/T//ccXtcaer.s 			page 5


 229              		.arm
 230              		.syntax unified
 231 0008 FEFFFFEB 		bl	spi_lld_unselect
 232              	.LVL12:
 233              		.loc 1 167 0
 234              		.syntax divided
 235              	@ 167 "..//os/hal/src/spi.c" 1
 236 000c 1FF021E3 		msr     CPSR_c, #0x1F
 237              	@ 0 "" 2
 238              		.loc 1 168 0
 239              		.arm
 240              		.syntax unified
 241 0010 1080BDE8 		pop	{r4, pc}
 242              		.cfi_endproc
 243              	.LFE12:
 244              		.size	spiUnselect, .-spiUnselect
 245              		.section	.text.spiStartIgnore,"ax",%progbits
 246              		.align	2
 247              		.global	spiStartIgnore
 248              		.syntax unified
 249              		.arm
 250              		.fpu softvfp
 251              		.type	spiStartIgnore, %function
 252              	spiStartIgnore:
 253              	.LFB13:
 254              		.loc 1 183 0
 255              		.cfi_startproc
 256              		@ args = 0, pretend = 0, frame = 0
 257              		@ frame_needed = 0, uses_anonymous_args = 0
 258              	.LVL13:
 259 0000 10402DE9 		push	{r4, lr}
 260              		.cfi_def_cfa_offset 8
 261              		.cfi_offset 4, -8
 262              		.cfi_offset 14, -4
 263              		.loc 1 187 0
 264              		.syntax divided
 265              	@ 187 "..//os/hal/src/spi.c" 1
 266 0004 9FF021E3 		msr     CPSR_c, #0x9F
 267              	@ 0 "" 2
 268              		.loc 1 189 0
 269              		.arm
 270              		.syntax unified
 271 0008 0320A0E3 		mov	r2, #3
 272 000c 0020C0E5 		strb	r2, [r0]
 273 0010 FEFFFFEB 		bl	spi_lld_ignore
 274              	.LVL14:
 275              		.loc 1 190 0
 276              		.syntax divided
 277              	@ 190 "..//os/hal/src/spi.c" 1
 278 0014 1FF021E3 		msr     CPSR_c, #0x1F
 279              	@ 0 "" 2
 280              		.loc 1 191 0
 281              		.arm
 282              		.syntax unified
 283 0018 1080BDE8 		pop	{r4, pc}
 284              		.cfi_endproc
 285              	.LFE13:
ARM GAS  /var/folders/3j/4xdnk5197cv_b7cw3n33qk7r0000gn/T//ccXtcaer.s 			page 6


 286              		.size	spiStartIgnore, .-spiStartIgnore
 287              		.section	.text.spiStartExchange,"ax",%progbits
 288              		.align	2
 289              		.global	spiStartExchange
 290              		.syntax unified
 291              		.arm
 292              		.fpu softvfp
 293              		.type	spiStartExchange, %function
 294              	spiStartExchange:
 295              	.LFB14:
 296              		.loc 1 211 0
 297              		.cfi_startproc
 298              		@ args = 0, pretend = 0, frame = 0
 299              		@ frame_needed = 0, uses_anonymous_args = 0
 300              	.LVL15:
 301 0000 10402DE9 		push	{r4, lr}
 302              		.cfi_def_cfa_offset 8
 303              		.cfi_offset 4, -8
 304              		.cfi_offset 14, -4
 305              		.loc 1 216 0
 306              		.syntax divided
 307              	@ 216 "..//os/hal/src/spi.c" 1
 308 0004 9FF021E3 		msr     CPSR_c, #0x9F
 309              	@ 0 "" 2
 310              		.loc 1 218 0
 311              		.arm
 312              		.syntax unified
 313 0008 03E0A0E3 		mov	lr, #3
 314 000c 00E0C0E5 		strb	lr, [r0]
 315 0010 FEFFFFEB 		bl	spi_lld_exchange
 316              	.LVL16:
 317              		.loc 1 219 0
 318              		.syntax divided
 319              	@ 219 "..//os/hal/src/spi.c" 1
 320 0014 1FF021E3 		msr     CPSR_c, #0x1F
 321              	@ 0 "" 2
 322              		.loc 1 220 0
 323              		.arm
 324              		.syntax unified
 325 0018 1080BDE8 		pop	{r4, pc}
 326              		.cfi_endproc
 327              	.LFE14:
 328              		.size	spiStartExchange, .-spiStartExchange
 329              		.section	.text.spiStartSend,"ax",%progbits
 330              		.align	2
 331              		.global	spiStartSend
 332              		.syntax unified
 333              		.arm
 334              		.fpu softvfp
 335              		.type	spiStartSend, %function
 336              	spiStartSend:
 337              	.LFB15:
 338              		.loc 1 237 0
 339              		.cfi_startproc
 340              		@ args = 0, pretend = 0, frame = 0
 341              		@ frame_needed = 0, uses_anonymous_args = 0
 342              	.LVL17:
ARM GAS  /var/folders/3j/4xdnk5197cv_b7cw3n33qk7r0000gn/T//ccXtcaer.s 			page 7


 343 0000 10402DE9 		push	{r4, lr}
 344              		.cfi_def_cfa_offset 8
 345              		.cfi_offset 4, -8
 346              		.cfi_offset 14, -4
 347              		.loc 1 242 0
 348              		.syntax divided
 349              	@ 242 "..//os/hal/src/spi.c" 1
 350 0004 9FF021E3 		msr     CPSR_c, #0x9F
 351              	@ 0 "" 2
 352              		.loc 1 244 0
 353              		.arm
 354              		.syntax unified
 355 0008 03C0A0E3 		mov	ip, #3
 356 000c 00C0C0E5 		strb	ip, [r0]
 357 0010 FEFFFFEB 		bl	spi_lld_send
 358              	.LVL18:
 359              		.loc 1 245 0
 360              		.syntax divided
 361              	@ 245 "..//os/hal/src/spi.c" 1
 362 0014 1FF021E3 		msr     CPSR_c, #0x1F
 363              	@ 0 "" 2
 364              		.loc 1 246 0
 365              		.arm
 366              		.syntax unified
 367 0018 1080BDE8 		pop	{r4, pc}
 368              		.cfi_endproc
 369              	.LFE15:
 370              		.size	spiStartSend, .-spiStartSend
 371              		.section	.text.spiStartReceive,"ax",%progbits
 372              		.align	2
 373              		.global	spiStartReceive
 374              		.syntax unified
 375              		.arm
 376              		.fpu softvfp
 377              		.type	spiStartReceive, %function
 378              	spiStartReceive:
 379              	.LFB16:
 380              		.loc 1 263 0
 381              		.cfi_startproc
 382              		@ args = 0, pretend = 0, frame = 0
 383              		@ frame_needed = 0, uses_anonymous_args = 0
 384              	.LVL19:
 385 0000 10402DE9 		push	{r4, lr}
 386              		.cfi_def_cfa_offset 8
 387              		.cfi_offset 4, -8
 388              		.cfi_offset 14, -4
 389              		.loc 1 268 0
 390              		.syntax divided
 391              	@ 268 "..//os/hal/src/spi.c" 1
 392 0004 9FF021E3 		msr     CPSR_c, #0x9F
 393              	@ 0 "" 2
 394              		.loc 1 270 0
 395              		.arm
 396              		.syntax unified
 397 0008 03C0A0E3 		mov	ip, #3
 398 000c 00C0C0E5 		strb	ip, [r0]
 399 0010 FEFFFFEB 		bl	spi_lld_receive
ARM GAS  /var/folders/3j/4xdnk5197cv_b7cw3n33qk7r0000gn/T//ccXtcaer.s 			page 8


 400              	.LVL20:
 401              		.loc 1 271 0
 402              		.syntax divided
 403              	@ 271 "..//os/hal/src/spi.c" 1
 404 0014 1FF021E3 		msr     CPSR_c, #0x1F
 405              	@ 0 "" 2
 406              		.loc 1 272 0
 407              		.arm
 408              		.syntax unified
 409 0018 1080BDE8 		pop	{r4, pc}
 410              		.cfi_endproc
 411              	.LFE16:
 412              		.size	spiStartReceive, .-spiStartReceive
 413              		.section	.text.spiIgnore,"ax",%progbits
 414              		.align	2
 415              		.global	spiIgnore
 416              		.syntax unified
 417              		.arm
 418              		.fpu softvfp
 419              		.type	spiIgnore, %function
 420              	spiIgnore:
 421              	.LFB17:
 422              		.loc 1 289 0
 423              		.cfi_startproc
 424              		@ args = 0, pretend = 0, frame = 0
 425              		@ frame_needed = 0, uses_anonymous_args = 0
 426              	.LVL21:
 427 0000 10402DE9 		push	{r4, lr}
 428              		.cfi_def_cfa_offset 8
 429              		.cfi_offset 4, -8
 430              		.cfi_offset 14, -4
 431              		.loc 1 289 0
 432 0004 0040A0E1 		mov	r4, r0
 433              		.loc 1 293 0
 434              		.syntax divided
 435              	@ 293 "..//os/hal/src/spi.c" 1
 436 0008 9FF021E3 		msr     CPSR_c, #0x9F
 437              	@ 0 "" 2
 438              		.loc 1 296 0
 439              		.arm
 440              		.syntax unified
 441 000c 0330A0E3 		mov	r3, #3
 442 0010 0030C0E5 		strb	r3, [r0]
 443 0014 FEFFFFEB 		bl	spi_lld_ignore
 444              	.LVL22:
 445              		.loc 1 297 0
 446 0018 14309FE5 		ldr	r3, .L22
 447 001c 0200A0E3 		mov	r0, #2
 448 0020 183093E5 		ldr	r3, [r3, #24]
 449 0024 083084E5 		str	r3, [r4, #8]
 450 0028 FEFFFFEB 		bl	chSchGoSleepS
 451              	.LVL23:
 452              		.loc 1 298 0
 453              		.syntax divided
 454              	@ 298 "..//os/hal/src/spi.c" 1
 455 002c 1FF021E3 		msr     CPSR_c, #0x1F
 456              	@ 0 "" 2
ARM GAS  /var/folders/3j/4xdnk5197cv_b7cw3n33qk7r0000gn/T//ccXtcaer.s 			page 9


 457              		.loc 1 299 0
 458              		.arm
 459              		.syntax unified
 460 0030 1080BDE8 		pop	{r4, pc}
 461              	.L23:
 462              		.align	2
 463              	.L22:
 464 0034 00000000 		.word	rlist
 465              		.cfi_endproc
 466              	.LFE17:
 467              		.size	spiIgnore, .-spiIgnore
 468              		.section	.text.spiExchange,"ax",%progbits
 469              		.align	2
 470              		.global	spiExchange
 471              		.syntax unified
 472              		.arm
 473              		.fpu softvfp
 474              		.type	spiExchange, %function
 475              	spiExchange:
 476              	.LFB18:
 477              		.loc 1 320 0
 478              		.cfi_startproc
 479              		@ args = 0, pretend = 0, frame = 0
 480              		@ frame_needed = 0, uses_anonymous_args = 0
 481              	.LVL24:
 482 0000 10402DE9 		push	{r4, lr}
 483              		.cfi_def_cfa_offset 8
 484              		.cfi_offset 4, -8
 485              		.cfi_offset 14, -4
 486              		.loc 1 320 0
 487 0004 0040A0E1 		mov	r4, r0
 488              		.loc 1 325 0
 489              		.syntax divided
 490              	@ 325 "..//os/hal/src/spi.c" 1
 491 0008 9FF021E3 		msr     CPSR_c, #0x9F
 492              	@ 0 "" 2
 493              		.loc 1 329 0
 494              		.arm
 495              		.syntax unified
 496 000c 03C0A0E3 		mov	ip, #3
 497 0010 00C0C0E5 		strb	ip, [r0]
 498 0014 FEFFFFEB 		bl	spi_lld_exchange
 499              	.LVL25:
 500              		.loc 1 330 0
 501 0018 14309FE5 		ldr	r3, .L26
 502 001c 0200A0E3 		mov	r0, #2
 503 0020 183093E5 		ldr	r3, [r3, #24]
 504 0024 083084E5 		str	r3, [r4, #8]
 505 0028 FEFFFFEB 		bl	chSchGoSleepS
 506              	.LVL26:
 507              		.loc 1 331 0
 508              		.syntax divided
 509              	@ 331 "..//os/hal/src/spi.c" 1
 510 002c 1FF021E3 		msr     CPSR_c, #0x1F
 511              	@ 0 "" 2
 512              		.loc 1 332 0
 513              		.arm
ARM GAS  /var/folders/3j/4xdnk5197cv_b7cw3n33qk7r0000gn/T//ccXtcaer.s 			page 10


 514              		.syntax unified
 515 0030 1080BDE8 		pop	{r4, pc}
 516              	.L27:
 517              		.align	2
 518              	.L26:
 519 0034 00000000 		.word	rlist
 520              		.cfi_endproc
 521              	.LFE18:
 522              		.size	spiExchange, .-spiExchange
 523              		.section	.text.spiSend,"ax",%progbits
 524              		.align	2
 525              		.global	spiSend
 526              		.syntax unified
 527              		.arm
 528              		.fpu softvfp
 529              		.type	spiSend, %function
 530              	spiSend:
 531              	.LFB19:
 532              		.loc 1 350 0
 533              		.cfi_startproc
 534              		@ args = 0, pretend = 0, frame = 0
 535              		@ frame_needed = 0, uses_anonymous_args = 0
 536              	.LVL27:
 537 0000 10402DE9 		push	{r4, lr}
 538              		.cfi_def_cfa_offset 8
 539              		.cfi_offset 4, -8
 540              		.cfi_offset 14, -4
 541              		.loc 1 350 0
 542 0004 0040A0E1 		mov	r4, r0
 543              		.loc 1 354 0
 544              		.syntax divided
 545              	@ 354 "..//os/hal/src/spi.c" 1
 546 0008 9FF021E3 		msr     CPSR_c, #0x9F
 547              	@ 0 "" 2
 548              		.loc 1 357 0
 549              		.arm
 550              		.syntax unified
 551 000c 0330A0E3 		mov	r3, #3
 552 0010 0030C0E5 		strb	r3, [r0]
 553 0014 FEFFFFEB 		bl	spi_lld_send
 554              	.LVL28:
 555              		.loc 1 358 0
 556 0018 14309FE5 		ldr	r3, .L30
 557 001c 0200A0E3 		mov	r0, #2
 558 0020 183093E5 		ldr	r3, [r3, #24]
 559 0024 083084E5 		str	r3, [r4, #8]
 560 0028 FEFFFFEB 		bl	chSchGoSleepS
 561              	.LVL29:
 562              		.loc 1 359 0
 563              		.syntax divided
 564              	@ 359 "..//os/hal/src/spi.c" 1
 565 002c 1FF021E3 		msr     CPSR_c, #0x1F
 566              	@ 0 "" 2
 567              		.loc 1 360 0
 568              		.arm
 569              		.syntax unified
 570 0030 1080BDE8 		pop	{r4, pc}
ARM GAS  /var/folders/3j/4xdnk5197cv_b7cw3n33qk7r0000gn/T//ccXtcaer.s 			page 11


 571              	.L31:
 572              		.align	2
 573              	.L30:
 574 0034 00000000 		.word	rlist
 575              		.cfi_endproc
 576              	.LFE19:
 577              		.size	spiSend, .-spiSend
 578              		.section	.text.spiReceive,"ax",%progbits
 579              		.align	2
 580              		.global	spiReceive
 581              		.syntax unified
 582              		.arm
 583              		.fpu softvfp
 584              		.type	spiReceive, %function
 585              	spiReceive:
 586              	.LFB20:
 587              		.loc 1 378 0
 588              		.cfi_startproc
 589              		@ args = 0, pretend = 0, frame = 0
 590              		@ frame_needed = 0, uses_anonymous_args = 0
 591              	.LVL30:
 592 0000 10402DE9 		push	{r4, lr}
 593              		.cfi_def_cfa_offset 8
 594              		.cfi_offset 4, -8
 595              		.cfi_offset 14, -4
 596              		.loc 1 378 0
 597 0004 0040A0E1 		mov	r4, r0
 598              		.loc 1 383 0
 599              		.syntax divided
 600              	@ 383 "..//os/hal/src/spi.c" 1
 601 0008 9FF021E3 		msr     CPSR_c, #0x9F
 602              	@ 0 "" 2
 603              		.loc 1 387 0
 604              		.arm
 605              		.syntax unified
 606 000c 0330A0E3 		mov	r3, #3
 607 0010 0030C0E5 		strb	r3, [r0]
 608 0014 FEFFFFEB 		bl	spi_lld_receive
 609              	.LVL31:
 610              		.loc 1 388 0
 611 0018 14309FE5 		ldr	r3, .L34
 612 001c 0200A0E3 		mov	r0, #2
 613 0020 183093E5 		ldr	r3, [r3, #24]
 614 0024 083084E5 		str	r3, [r4, #8]
 615 0028 FEFFFFEB 		bl	chSchGoSleepS
 616              	.LVL32:
 617              		.loc 1 389 0
 618              		.syntax divided
 619              	@ 389 "..//os/hal/src/spi.c" 1
 620 002c 1FF021E3 		msr     CPSR_c, #0x1F
 621              	@ 0 "" 2
 622              		.loc 1 390 0
 623              		.arm
 624              		.syntax unified
 625 0030 1080BDE8 		pop	{r4, pc}
 626              	.L35:
 627              		.align	2
ARM GAS  /var/folders/3j/4xdnk5197cv_b7cw3n33qk7r0000gn/T//ccXtcaer.s 			page 12


 628              	.L34:
 629 0034 00000000 		.word	rlist
 630              		.cfi_endproc
 631              	.LFE20:
 632              		.size	spiReceive, .-spiReceive
 633              		.section	.text.spiAcquireBus,"ax",%progbits
 634              		.align	2
 635              		.global	spiAcquireBus
 636              		.syntax unified
 637              		.arm
 638              		.fpu softvfp
 639              		.type	spiAcquireBus, %function
 640              	spiAcquireBus:
 641              	.LFB21:
 642              		.loc 1 405 0
 643              		.cfi_startproc
 644              		@ args = 0, pretend = 0, frame = 0
 645              		@ frame_needed = 0, uses_anonymous_args = 0
 646              		@ link register save eliminated.
 647              	.LVL33:
 648              		.loc 1 410 0
 649 0000 0C0080E2 		add	r0, r0, #12
 650              	.LVL34:
 651 0004 FEFFFFEA 		b	chMtxLock
 652              	.LVL35:
 653              		.cfi_endproc
 654              	.LFE21:
 655              		.size	spiAcquireBus, .-spiAcquireBus
 656              		.section	.text.spiReleaseBus,"ax",%progbits
 657              		.align	2
 658              		.global	spiReleaseBus
 659              		.syntax unified
 660              		.arm
 661              		.fpu softvfp
 662              		.type	spiReleaseBus, %function
 663              	spiReleaseBus:
 664              	.LFB22:
 665              		.loc 1 425 0
 666              		.cfi_startproc
 667              		@ args = 0, pretend = 0, frame = 0
 668              		@ frame_needed = 0, uses_anonymous_args = 0
 669              		@ link register save eliminated.
 670              	.LVL36:
 671              		.loc 1 431 0
 672 0000 FEFFFFEA 		b	chMtxUnlock
 673              	.LVL37:
 674              		.cfi_endproc
 675              	.LFE22:
 676              		.size	spiReleaseBus, .-spiReleaseBus
 677              		.text
 678              	.Letext0:
 679              		.file 2 "/usr/local/Cellar/gcc-arm-none-eabi/20180627/lib/gcc/arm-none-eabi/7.3.1/include/stddef.h
 680              		.file 3 "/usr/local/Cellar/gcc-arm-none-eabi/20180627/arm-none-eabi/include/machine/_default_types
 681              		.file 4 "/usr/local/Cellar/gcc-arm-none-eabi/20180627/arm-none-eabi/include/sys/_stdint.h"
 682              		.file 5 "..//os/ports/GCC/ARM/chtypes.h"
 683              		.file 6 "..//os/kernel/include/chlists.h"
 684              		.file 7 "..//os/kernel/include/chthreads.h"
ARM GAS  /var/folders/3j/4xdnk5197cv_b7cw3n33qk7r0000gn/T//ccXtcaer.s 			page 13


 685              		.file 8 "..//os/ports/GCC/ARM/chcore.h"
 686              		.file 9 "..//os/kernel/include/chvt.h"
 687              		.file 10 "..//os/kernel/include/chschd.h"
 688              		.file 11 "..//os/kernel/include/chmtx.h"
 689              		.file 12 "..//os/kernel/include/chevents.h"
 690              		.file 13 "..//os/kernel/include/chregistry.h"
 691              		.file 14 "..//os/kernel/include/chqueues.h"
 692              		.file 15 "..//os/kernel/include/ch.h"
 693              		.file 16 "..//os/hal/platforms/BCM2835/bcm2835.h"
 694              		.file 17 "..//os/hal/platforms/BCM2835/pal_lld.h"
 695              		.file 18 "..//os/hal/include/i2c.h"
 696              		.file 19 "..//os/hal/platforms/BCM2835/i2c_lld.h"
 697              		.file 20 "..//os/hal/include/serial.h"
 698              		.file 21 "..//os/hal/include/spi.h"
 699              		.file 22 "..//os/hal/platforms/BCM2835/spi_lld.h"
 700              		.file 23 "..//os/hal/platforms/BCM2835/serial_lld.h"