ARM GAS  /var/folders/3j/4xdnk5197cv_b7cw3n33qk7r0000gn/T//cc4fOuw6.s 			page 1


   1              		.cpu arm1176jz-s
   2              		.eabi_attribute 20, 1
   3              		.eabi_attribute 21, 1
   4              		.eabi_attribute 23, 3
   5              		.eabi_attribute 24, 1
   6              		.eabi_attribute 25, 1
   7              		.eabi_attribute 26, 1
   8              		.eabi_attribute 30, 2
   9              		.eabi_attribute 34, 1
  10              		.eabi_attribute 18, 4
  11              		.file	"spi_lld.c"
  12              		.text
  13              	.Ltext0:
  14              		.cfi_sections	.debug_frame
  15              		.section	.text.spi_lld_serve_interrupt,"ax",%progbits
  16              		.align	2
  17              		.global	spi_lld_serve_interrupt
  18              		.syntax unified
  19              		.arm
  20              		.fpu softvfp
  21              		.type	spi_lld_serve_interrupt, %function
  22              	spi_lld_serve_interrupt:
  23              	.LFB7:
  24              		.file 1 "..//os/hal/platforms/BCM2835/spi_lld.c"
  25              		.loc 1 75 0
  26              		.cfi_startproc
  27              		@ args = 0, pretend = 0, frame = 0
  28              		@ frame_needed = 0, uses_anonymous_args = 0
  29              	.LVL0:
  30              		.loc 1 76 0
  31 0000 74319FE5 		ldr	r3, .L54
  32 0004 083293E5 		ldr	r3, [r3, #520]
  33 0008 010513E3 		tst	r3, #4194304
  34 000c 1EFF2F01 		bxeq	lr
  35              		.loc 1 77 0
  36 0010 68319FE5 		ldr	r3, .L54+4
  37              		.loc 1 75 0
  38 0014 10402DE9 		push	{r4, lr}
  39              		.cfi_def_cfa_offset 8
  40              		.cfi_offset 4, -8
  41              		.cfi_offset 14, -4
  42              		.loc 1 77 0
  43 0018 002093E5 		ldr	r2, [r3]
  44 001c 0040A0E1 		mov	r4, r0
  45 0020 010812E3 		tst	r2, #65536
  46 0024 1800000A 		beq	.L4
  47              	.LVL1:
  48              	.LBB8:
  49              		.loc 1 79 0
  50 0028 242090E5 		ldr	r2, [r0, #36]
  51 002c 000052E3 		cmp	r2, #0
  52 0030 2500000A 		beq	.L13
  53              		.loc 1 81 0
  54 0034 040090E5 		ldr	r0, [r0, #4]
  55              	.LVL2:
  56 0038 201094E5 		ldr	r1, [r4, #32]
  57 003c 0400D0E5 		ldrb	r0, [r0, #4]	@ zero_extendqisi2
ARM GAS  /var/folders/3j/4xdnk5197cv_b7cw3n33qk7r0000gn/T//cc4fOuw6.s 			page 2


  58 0040 000050E3 		cmp	r0, #0
  59              	.LBB9:
  60              		.loc 1 84 0
  61 0044 000093E5 		ldr	r0, [r3]
  62              	.LBE9:
  63              		.loc 1 81 0
  64 0048 3700000A 		beq	.L6
  65              	.LVL3:
  66              	.LBB10:
  67              		.loc 1 84 0
  68 004c 010710E3 		tst	r0, #262144
  69 0050 0D00000A 		beq	.L4
  70              		.loc 1 83 0
  71 0054 0100A0E1 		mov	r0, r1
  72 0058 010000EA 		b	.L10
  73              	.LVL4:
  74              	.L9:
  75              		.loc 1 84 0 discriminator 1
  76 005c 000052E3 		cmp	r2, #0
  77 0060 0800000A 		beq	.L51
  78              	.LVL5:
  79              	.L10:
  80              		.loc 1 85 0
  81 0064 000051E3 		cmp	r1, #0
  82 0068 01C0A001 		moveq	ip, r1
  83 006c B0C0D011 		ldrhne	ip, [r0]
  84 0070 02008012 		addne	r0, r0, #2
  85              	.LVL6:
  86 0074 04C083E5 		str	ip, [r3, #4]
  87              		.loc 1 84 0
  88 0078 00C093E5 		ldr	ip, [r3]
  89              		.loc 1 86 0
  90 007c 022042E2 		sub	r2, r2, #2
  91              		.loc 1 84 0
  92 0080 01071CE3 		tst	ip, #262144
  93 0084 F4FFFF1A 		bne	.L9
  94              	.L51:
  95 0088 242084E5 		str	r2, [r4, #36]
  96              	.LVL7:
  97              	.L4:
  98              	.LBE10:
  99              	.LBE8:
 100              		.loc 1 106 0
 101 008c EC309FE5 		ldr	r3, .L54+4
 102 0090 002093E5 		ldr	r2, [r3]
 103 0094 020712E3 		tst	r2, #524288
 104 0098 1080BD08 		popeq	{r4, pc}
 105              	.L19:
 106              		.loc 1 107 0 discriminator 3
 107 009c 002093E5 		ldr	r2, [r3]
 108 00a0 020812E3 		tst	r2, #131072
 109 00a4 1080BD08 		popeq	{r4, pc}
 110              	.LBB14:
 111              		.loc 1 107 0 is_stmt 0 discriminator 4
 112 00a8 1C2094E5 		ldr	r2, [r4, #28]
 113 00ac 041093E5 		ldr	r1, [r3, #4]
 114              	.LVL8:
ARM GAS  /var/folders/3j/4xdnk5197cv_b7cw3n33qk7r0000gn/T//cc4fOuw6.s 			page 3


 115 00b0 000052E3 		cmp	r2, #0
 116              	.LVL9:
 117 00b4 0010C215 		strbne	r1, [r2]
 118 00b8 F7FFFFEA 		b	.L19
 119              	.LVL10:
 120              	.L14:
 121              	.LBE14:
 122              	.LBB15:
 123              	.LBB11:
 124              		.loc 1 99 0 is_stmt 1 discriminator 4
 125 00bc 1C2094E5 		ldr	r2, [r4, #28]
 126 00c0 041093E5 		ldr	r1, [r3, #4]
 127              	.LVL11:
 128 00c4 000052E3 		cmp	r2, #0
 129              	.LVL12:
 130 00c8 0010C215 		strbne	r1, [r2]
 131              	.LVL13:
 132              	.L13:
 133              	.LBE11:
 134              		.loc 1 99 0 is_stmt 0 discriminator 3
 135 00cc 002093E5 		ldr	r2, [r3]
 136 00d0 020812E3 		tst	r2, #131072
 137 00d4 F8FFFF1A 		bne	.L14
 138              		.loc 1 102 0 is_stmt 1
 139 00d8 041094E5 		ldr	r1, [r4, #4]
 140              		.loc 1 101 0
 141 00dc 002093E5 		ldr	r2, [r3]
 142              		.loc 1 102 0
 143 00e0 001091E5 		ldr	r1, [r1]
 144              		.loc 1 101 0
 145 00e4 1A2DC2E3 		bic	r2, r2, #1664
 146              		.loc 1 102 0
 147 00e8 000051E3 		cmp	r1, #0
 148              		.loc 1 101 0
 149 00ec 002083E5 		str	r2, [r3]
 150              		.loc 1 102 0
 151 00f0 1E00000A 		beq	.L15
 152              		.loc 1 102 0 is_stmt 0 discriminator 1
 153 00f4 0430A0E3 		mov	r3, #4
 154 00f8 0400A0E1 		mov	r0, r4
 155              	.LVL14:
 156 00fc 0030C4E5 		strb	r3, [r4]
 157 0100 31FF2FE1 		blx	r1
 158              	.LVL15:
 159 0104 0030D4E5 		ldrb	r3, [r4]	@ zero_extendqisi2
 160 0108 040053E3 		cmp	r3, #4
 161 010c 1700000A 		beq	.L15
 162              	.L16:
 163              		.loc 1 102 0 discriminator 4
 164 0110 080094E5 		ldr	r0, [r4, #8]
 165 0114 000050E3 		cmp	r0, #0
 166 0118 DBFFFF0A 		beq	.L4
 167              	.LVL16:
 168              	.LBB12:
 169              		.loc 1 102 0 discriminator 5
 170 011c 0030A0E3 		mov	r3, #0
 171 0120 083084E5 		str	r3, [r4, #8]
ARM GAS  /var/folders/3j/4xdnk5197cv_b7cw3n33qk7r0000gn/T//cc4fOuw6.s 			page 4


 172 0124 FEFFFFEB 		bl	chSchReadyI
 173              	.LVL17:
 174 0128 D7FFFFEA 		b	.L4
 175              	.L6:
 176              	.LVL18:
 177              	.LBE12:
 178              	.LBB13:
 179              		.loc 1 91 0 is_stmt 1
 180 012c 010710E3 		tst	r0, #262144
 181 0130 D5FFFF0A 		beq	.L4
 182              		.loc 1 90 0
 183 0134 0100A0E1 		mov	r0, r1
 184 0138 010000EA 		b	.L12
 185              	.LVL19:
 186              	.L53:
 187              		.loc 1 91 0 discriminator 1
 188 013c 000052E3 		cmp	r2, #0
 189 0140 D1FFFF0A 		beq	.L4
 190              	.LVL20:
 191              	.L12:
 192              		.loc 1 92 0
 193 0144 000051E3 		cmp	r1, #0
 194 0148 01C0A001 		moveq	ip, r1
 195 014c 00C0D015 		ldrbne	ip, [r0]	@ zero_extendqisi2
 196              		.loc 1 93 0
 197 0150 012042E2 		sub	r2, r2, #1
 198              		.loc 1 92 0
 199 0154 04C083E5 		str	ip, [r3, #4]
 200              		.loc 1 91 0
 201 0158 00C093E5 		ldr	ip, [r3]
 202              		.loc 1 92 0
 203 015c 01008012 		addne	r0, r0, #1
 204              	.LVL21:
 205              		.loc 1 91 0
 206 0160 01071CE3 		tst	ip, #262144
 207              		.loc 1 93 0
 208 0164 242084E5 		str	r2, [r4, #36]
 209              		.loc 1 91 0
 210 0168 F3FFFF1A 		bne	.L53
 211 016c C6FFFFEA 		b	.L4
 212              	.LVL22:
 213              	.L15:
 214              	.LBE13:
 215              		.loc 1 102 0 discriminator 3
 216 0170 0230A0E3 		mov	r3, #2
 217 0174 0030C4E5 		strb	r3, [r4]
 218 0178 E4FFFFEA 		b	.L16
 219              	.L55:
 220              		.align	2
 221              	.L54:
 222 017c 00B00020 		.word	536915968
 223 0180 00402020 		.word	538984448
 224              	.LBE15:
 225              		.cfi_endproc
 226              	.LFE7:
 227              		.size	spi_lld_serve_interrupt, .-spi_lld_serve_interrupt
 228              		.section	.text.spi_lld_init,"ax",%progbits
ARM GAS  /var/folders/3j/4xdnk5197cv_b7cw3n33qk7r0000gn/T//cc4fOuw6.s 			page 5


 229              		.align	2
 230              		.global	spi_lld_init
 231              		.syntax unified
 232              		.arm
 233              		.fpu softvfp
 234              		.type	spi_lld_init, %function
 235              	spi_lld_init:
 236              	.LFB8:
 237              		.loc 1 121 0
 238              		.cfi_startproc
 239              		@ args = 0, pretend = 0, frame = 0
 240              		@ frame_needed = 0, uses_anonymous_args = 0
 241              		@ link register save eliminated.
 242              		.loc 1 122 0
 243 0000 00009FE5 		ldr	r0, .L57
 244 0004 FEFFFFEA 		b	spiObjectInit
 245              	.LVL23:
 246              	.L58:
 247              		.align	2
 248              	.L57:
 249 0008 00000000 		.word	SPI0
 250              		.cfi_endproc
 251              	.LFE8:
 252              		.size	spi_lld_init, .-spi_lld_init
 253              		.section	.text.spi_lld_start,"ax",%progbits
 254              		.align	2
 255              		.global	spi_lld_start
 256              		.syntax unified
 257              		.arm
 258              		.fpu softvfp
 259              		.type	spi_lld_start, %function
 260              	spi_lld_start:
 261              	.LFB9:
 262              		.loc 1 132 0
 263              		.cfi_startproc
 264              		@ args = 0, pretend = 0, frame = 0
 265              		@ frame_needed = 0, uses_anonymous_args = 0
 266              	.LVL24:
 267 0000 10402DE9 		push	{r4, lr}
 268              		.cfi_def_cfa_offset 8
 269              		.cfi_offset 4, -8
 270              		.cfi_offset 14, -4
 271              		.loc 1 132 0
 272 0004 0040A0E1 		mov	r4, r0
 273              		.loc 1 135 0
 274 0008 AC209FE5 		ldr	r2, .L83
 275              		.loc 1 138 0
 276 000c 0410A0E3 		mov	r1, #4
 277              		.loc 1 135 0
 278 0010 203292E5 		ldr	r3, [r2, #544]
 279              		.loc 1 138 0
 280 0014 0700A0E3 		mov	r0, #7
 281              	.LVL25:
 282              		.loc 1 135 0
 283 0018 013583E3 		orr	r3, r3, #4194304
 284 001c 203282E5 		str	r3, [r2, #544]
 285              		.loc 1 138 0
ARM GAS  /var/folders/3j/4xdnk5197cv_b7cw3n33qk7r0000gn/T//cc4fOuw6.s 			page 6


 286 0020 FEFFFFEB 		bl	bcm2835_gpio_fnsel
 287              	.LVL26:
 288              		.loc 1 139 0
 289 0024 0410A0E3 		mov	r1, #4
 290 0028 0800A0E3 		mov	r0, #8
 291 002c FEFFFFEB 		bl	bcm2835_gpio_fnsel
 292              	.LVL27:
 293              		.loc 1 140 0
 294 0030 0410A0E3 		mov	r1, #4
 295 0034 0900A0E3 		mov	r0, #9
 296 0038 FEFFFFEB 		bl	bcm2835_gpio_fnsel
 297              	.LVL28:
 298              		.loc 1 141 0
 299 003c 0410A0E3 		mov	r1, #4
 300 0040 0A00A0E3 		mov	r0, #10
 301 0044 FEFFFFEB 		bl	bcm2835_gpio_fnsel
 302              	.LVL29:
 303              		.loc 1 142 0
 304 0048 0410A0E3 		mov	r1, #4
 305 004c 0B00A0E3 		mov	r0, #11
 306 0050 FEFFFFEB 		bl	bcm2835_gpio_fnsel
 307              	.LVL30:
 308              		.loc 1 149 0
 309 0054 042094E5 		ldr	r2, [r4, #4]
 310              	.LVL31:
 311              		.loc 1 151 0
 312 0058 0930D2E5 		ldrb	r3, [r2, #9]	@ zero_extendqisi2
 313              		.loc 1 154 0
 314 005c 0A10D2E5 		ldrb	r1, [r2, #10]	@ zero_extendqisi2
 315              		.loc 1 152 0
 316 0060 000053E3 		cmp	r3, #0
 317 0064 0830A013 		movne	r3, #8
 318 0068 0030A003 		moveq	r3, #0
 319              	.LVL32:
 320              		.loc 1 154 0
 321 006c 000051E3 		cmp	r1, #0
 322              		.loc 1 157 0
 323 0070 0610D2E5 		ldrb	r1, [r2, #6]	@ zero_extendqisi2
 324              		.loc 1 155 0
 325 0074 04308313 		orrne	r3, r3, #4
 326              	.LVL33:
 327              		.loc 1 157 0
 328 0078 000051E3 		cmp	r1, #0
 329              		.loc 1 160 0
 330 007c 0710D2E5 		ldrb	r1, [r2, #7]	@ zero_extendqisi2
 331              		.loc 1 158 0
 332 0080 40308313 		orrne	r3, r3, #64
 333              	.LVL34:
 334              		.loc 1 160 0
 335 0084 000051E3 		cmp	r1, #0
 336              		.loc 1 163 0
 337 0088 0810D2E5 		ldrb	r1, [r2, #8]	@ zero_extendqisi2
 338              		.loc 1 161 0
 339 008c 02368313 		orrne	r3, r3, #2097152
 340              	.LVL35:
 341              		.loc 1 163 0
 342 0090 000051E3 		cmp	r1, #0
ARM GAS  /var/folders/3j/4xdnk5197cv_b7cw3n33qk7r0000gn/T//cc4fOuw6.s 			page 7


 343              		.loc 1 166 0
 344 0094 0410D2E5 		ldrb	r1, [r2, #4]	@ zero_extendqisi2
 345              		.loc 1 164 0
 346 0098 01358313 		orrne	r3, r3, #4194304
 347              	.LVL36:
 348              		.loc 1 166 0
 349 009c 000051E3 		cmp	r1, #0
 350              		.loc 1 167 0
 351 00a0 023A8313 		orrne	r3, r3, #8192
 352              	.LVL37:
 353              		.loc 1 170 0
 354 00a4 14109FE5 		ldr	r1, .L83+4
 355 00a8 303083E3 		orr	r3, r3, #48
 356              	.LVL38:
 357 00ac 003081E5 		str	r3, [r1]
 358              	.LVL39:
 359              		.loc 1 172 0
 360 00b0 0C3092E5 		ldr	r3, [r2, #12]
 361 00b4 083081E5 		str	r3, [r1, #8]
 362              		.loc 1 173 0
 363 00b8 1080BDE8 		pop	{r4, pc}
 364              	.L84:
 365              		.align	2
 366              	.L83:
 367 00bc 00B00020 		.word	536915968
 368 00c0 00402020 		.word	538984448
 369              		.cfi_endproc
 370              	.LFE9:
 371              		.size	spi_lld_start, .-spi_lld_start
 372              		.section	.text.spi_lld_stop,"ax",%progbits
 373              		.align	2
 374              		.global	spi_lld_stop
 375              		.syntax unified
 376              		.arm
 377              		.fpu softvfp
 378              		.type	spi_lld_stop, %function
 379              	spi_lld_stop:
 380              	.LFB10:
 381              		.loc 1 182 0
 382              		.cfi_startproc
 383              		@ args = 0, pretend = 0, frame = 0
 384              		@ frame_needed = 0, uses_anonymous_args = 0
 385              	.LVL40:
 386              		.loc 1 185 0
 387 0000 4C209FE5 		ldr	r2, .L87
 388              		.loc 1 182 0
 389 0004 10402DE9 		push	{r4, lr}
 390              		.cfi_def_cfa_offset 8
 391              		.cfi_offset 4, -8
 392              		.cfi_offset 14, -4
 393              		.loc 1 185 0
 394 0008 203292E5 		ldr	r3, [r2, #544]
 395              		.loc 1 188 0
 396 000c 0010A0E3 		mov	r1, #0
 397              		.loc 1 185 0
 398 0010 013583E3 		orr	r3, r3, #4194304
 399 0014 203282E5 		str	r3, [r2, #544]
ARM GAS  /var/folders/3j/4xdnk5197cv_b7cw3n33qk7r0000gn/T//cc4fOuw6.s 			page 8


 400              		.loc 1 188 0
 401 0018 0700A0E3 		mov	r0, #7
 402              	.LVL41:
 403 001c FEFFFFEB 		bl	bcm2835_gpio_fnsel
 404              	.LVL42:
 405              		.loc 1 189 0
 406 0020 0010A0E3 		mov	r1, #0
 407 0024 0800A0E3 		mov	r0, #8
 408 0028 FEFFFFEB 		bl	bcm2835_gpio_fnsel
 409              	.LVL43:
 410              		.loc 1 190 0
 411 002c 0010A0E3 		mov	r1, #0
 412 0030 0900A0E3 		mov	r0, #9
 413 0034 FEFFFFEB 		bl	bcm2835_gpio_fnsel
 414              	.LVL44:
 415              		.loc 1 191 0
 416 0038 0010A0E3 		mov	r1, #0
 417 003c 0A00A0E3 		mov	r0, #10
 418 0040 FEFFFFEB 		bl	bcm2835_gpio_fnsel
 419              	.LVL45:
 420              		.loc 1 193 0
 421 0044 1040BDE8 		pop	{r4, lr}
 422              		.cfi_restore 14
 423              		.cfi_restore 4
 424              		.cfi_def_cfa_offset 0
 425              		.loc 1 192 0
 426 0048 0010A0E3 		mov	r1, #0
 427 004c 0B00A0E3 		mov	r0, #11
 428 0050 FEFFFFEA 		b	bcm2835_gpio_fnsel
 429              	.LVL46:
 430              	.L88:
 431              		.align	2
 432              	.L87:
 433 0054 00B00020 		.word	536915968
 434              		.cfi_endproc
 435              	.LFE10:
 436              		.size	spi_lld_stop, .-spi_lld_stop
 437              		.section	.text.spi_lld_select,"ax",%progbits
 438              		.align	2
 439              		.global	spi_lld_select
 440              		.syntax unified
 441              		.arm
 442              		.fpu softvfp
 443              		.type	spi_lld_select, %function
 444              	spi_lld_select:
 445              	.LFB11:
 446              		.loc 1 202 0
 447              		.cfi_startproc
 448              		@ args = 0, pretend = 0, frame = 0
 449              		@ frame_needed = 0, uses_anonymous_args = 0
 450              		@ link register save eliminated.
 451              	.LVL47:
 452              		.loc 1 205 0
 453 0000 043090E5 		ldr	r3, [r0, #4]
 454              		.loc 1 203 0
 455 0004 18109FE5 		ldr	r1, .L90
 456              		.loc 1 205 0
ARM GAS  /var/folders/3j/4xdnk5197cv_b7cw3n33qk7r0000gn/T//cc4fOuw6.s 			page 9


 457 0008 0530D3E5 		ldrb	r3, [r3, #5]	@ zero_extendqisi2
 458              		.loc 1 203 0
 459 000c 002091E5 		ldr	r2, [r1]
 460              	.LVL48:
 461              		.loc 1 205 0
 462 0010 033003E2 		and	r3, r3, #3
 463              		.loc 1 204 0
 464 0014 0320C2E3 		bic	r2, r2, #3
 465              	.LVL49:
 466              		.loc 1 205 0
 467 0018 023083E1 		orr	r3, r3, r2
 468              	.LVL50:
 469              		.loc 1 206 0
 470 001c 003081E5 		str	r3, [r1]
 471              		.loc 1 207 0
 472 0020 1EFF2FE1 		bx	lr
 473              	.L91:
 474              		.align	2
 475              	.L90:
 476 0024 00402020 		.word	538984448
 477              		.cfi_endproc
 478              	.LFE11:
 479              		.size	spi_lld_select, .-spi_lld_select
 480              		.section	.text.spi_lld_unselect,"ax",%progbits
 481              		.align	2
 482              		.global	spi_lld_unselect
 483              		.syntax unified
 484              		.arm
 485              		.fpu softvfp
 486              		.type	spi_lld_unselect, %function
 487              	spi_lld_unselect:
 488              	.LFB12:
 489              		.loc 1 217 0
 490              		.cfi_startproc
 491              		@ args = 0, pretend = 0, frame = 0
 492              		@ frame_needed = 0, uses_anonymous_args = 0
 493              		@ link register save eliminated.
 494              	.LVL51:
 495              		.loc 1 223 0
 496 0000 0C209FE5 		ldr	r2, .L93
 497 0004 003092E5 		ldr	r3, [r2]
 498 0008 0330C3E3 		bic	r3, r3, #3
 499 000c 003082E5 		str	r3, [r2]
 500              		.loc 1 224 0
 501 0010 1EFF2FE1 		bx	lr
 502              	.L94:
 503              		.align	2
 504              	.L93:
 505 0014 00402020 		.word	538984448
 506              		.cfi_endproc
 507              	.LFE12:
 508              		.size	spi_lld_unselect, .-spi_lld_unselect
 509              		.section	.text.spi_lld_ignore,"ax",%progbits
 510              		.align	2
 511              		.global	spi_lld_ignore
 512              		.syntax unified
 513              		.arm
ARM GAS  /var/folders/3j/4xdnk5197cv_b7cw3n33qk7r0000gn/T//cc4fOuw6.s 			page 10


 514              		.fpu softvfp
 515              		.type	spi_lld_ignore, %function
 516              	spi_lld_ignore:
 517              	.LFB13:
 518              		.loc 1 237 0
 519              		.cfi_startproc
 520              		@ args = 0, pretend = 0, frame = 0
 521              		@ frame_needed = 0, uses_anonymous_args = 0
 522              	.LVL52:
 523 0000 04E02DE5 		str	lr, [sp, #-4]!
 524              		.cfi_def_cfa_offset 4
 525              		.cfi_offset 14, -4
 526              	.LBB16:
 527              	.LBB17:
 528              		.loc 1 261 0
 529 0004 00E0A0E3 		mov	lr, #0
 530              		.loc 1 259 0
 531 0008 34309FE5 		ldr	r3, .L97
 532              		.loc 1 267 0
 533 000c 34C09FE5 		ldr	ip, .L97+4
 534              		.loc 1 259 0
 535 0010 002093E5 		ldr	r2, [r3]
 536 0014 302082E3 		orr	r2, r2, #48
 537 0018 002083E5 		str	r2, [r3]
 538              		.loc 1 266 0
 539 001c 002093E5 		ldr	r2, [r3]
 540              		.loc 1 262 0
 541 0020 241080E5 		str	r1, [r0, #36]
 542              		.loc 1 266 0
 543 0024 1A2D82E3 		orr	r2, r2, #1664
 544              		.loc 1 261 0
 545 0028 20E080E5 		str	lr, [r0, #32]
 546              		.loc 1 263 0
 547 002c 1CE080E5 		str	lr, [r0, #28]
 548              		.loc 1 266 0
 549 0030 002083E5 		str	r2, [r3]
 550              		.loc 1 267 0
 551 0034 14329CE5 		ldr	r3, [ip, #532]
 552 0038 013583E3 		orr	r3, r3, #4194304
 553 003c 14328CE5 		str	r3, [ip, #532]
 554              	.LVL53:
 555              	.LBE17:
 556              	.LBE16:
 557              		.loc 1 239 0
 558 0040 04F09DE4 		ldr	pc, [sp], #4
 559              	.L98:
 560              		.align	2
 561              	.L97:
 562 0044 00402020 		.word	538984448
 563 0048 00B00020 		.word	536915968
 564              		.cfi_endproc
 565              	.LFE13:
 566              		.size	spi_lld_ignore, .-spi_lld_ignore
 567              		.section	.text.spi_lld_exchange,"ax",%progbits
 568              		.align	2
 569              		.global	spi_lld_exchange
 570              		.syntax unified
ARM GAS  /var/folders/3j/4xdnk5197cv_b7cw3n33qk7r0000gn/T//cc4fOuw6.s 			page 11


 571              		.arm
 572              		.fpu softvfp
 573              		.type	spi_lld_exchange, %function
 574              	spi_lld_exchange:
 575              	.LFB14:
 576              		.loc 1 257 0
 577              		.cfi_startproc
 578              		@ args = 0, pretend = 0, frame = 0
 579              		@ frame_needed = 0, uses_anonymous_args = 0
 580              	.LVL54:
 581              		.loc 1 259 0
 582 0000 38C09FE5 		ldr	ip, .L101
 583              		.loc 1 257 0
 584 0004 10402DE9 		push	{r4, lr}
 585              		.cfi_def_cfa_offset 8
 586              		.cfi_offset 4, -8
 587              		.cfi_offset 14, -4
 588              		.loc 1 259 0
 589 0008 00E09CE5 		ldr	lr, [ip]
 590              		.loc 1 267 0
 591 000c 30409FE5 		ldr	r4, .L101+4
 592              		.loc 1 259 0
 593 0010 30E08EE3 		orr	lr, lr, #48
 594 0014 00E08CE5 		str	lr, [ip]
 595              		.loc 1 266 0
 596 0018 00E09CE5 		ldr	lr, [ip]
 597              		.loc 1 263 0
 598 001c 1C3080E5 		str	r3, [r0, #28]
 599              		.loc 1 266 0
 600 0020 1AED8EE3 		orr	lr, lr, #1664
 601              		.loc 1 261 0
 602 0024 202080E5 		str	r2, [r0, #32]
 603              		.loc 1 262 0
 604 0028 241080E5 		str	r1, [r0, #36]
 605              		.loc 1 266 0
 606 002c 00E08CE5 		str	lr, [ip]
 607              		.loc 1 267 0
 608 0030 143294E5 		ldr	r3, [r4, #532]
 609              	.LVL55:
 610 0034 013583E3 		orr	r3, r3, #4194304
 611 0038 143284E5 		str	r3, [r4, #532]
 612              		.loc 1 268 0
 613 003c 1080BDE8 		pop	{r4, pc}
 614              	.L102:
 615              		.align	2
 616              	.L101:
 617 0040 00402020 		.word	538984448
 618 0044 00B00020 		.word	536915968
 619              		.cfi_endproc
 620              	.LFE14:
 621              		.size	spi_lld_exchange, .-spi_lld_exchange
 622              		.section	.text.spi_lld_send,"ax",%progbits
 623              		.align	2
 624              		.global	spi_lld_send
 625              		.syntax unified
 626              		.arm
 627              		.fpu softvfp
ARM GAS  /var/folders/3j/4xdnk5197cv_b7cw3n33qk7r0000gn/T//cc4fOuw6.s 			page 12


 628              		.type	spi_lld_send, %function
 629              	spi_lld_send:
 630              	.LFB15:
 631              		.loc 1 283 0
 632              		.cfi_startproc
 633              		@ args = 0, pretend = 0, frame = 0
 634              		@ frame_needed = 0, uses_anonymous_args = 0
 635              	.LVL56:
 636 0000 04E02DE5 		str	lr, [sp, #-4]!
 637              		.cfi_def_cfa_offset 4
 638              		.cfi_offset 14, -4
 639              	.LBB18:
 640              	.LBB19:
 641              		.loc 1 263 0
 642 0004 00E0A0E3 		mov	lr, #0
 643              		.loc 1 259 0
 644 0008 34309FE5 		ldr	r3, .L105
 645 000c 00C093E5 		ldr	ip, [r3]
 646 0010 30C08CE3 		orr	ip, ip, #48
 647 0014 00C083E5 		str	ip, [r3]
 648              		.loc 1 266 0
 649 0018 00C093E5 		ldr	ip, [r3]
 650              		.loc 1 261 0
 651 001c 202080E5 		str	r2, [r0, #32]
 652              		.loc 1 266 0
 653 0020 1ACD8CE3 		orr	ip, ip, #1664
 654              		.loc 1 267 0
 655 0024 1C209FE5 		ldr	r2, .L105+4
 656              	.LVL57:
 657              		.loc 1 262 0
 658 0028 241080E5 		str	r1, [r0, #36]
 659              		.loc 1 263 0
 660 002c 1CE080E5 		str	lr, [r0, #28]
 661              		.loc 1 266 0
 662 0030 00C083E5 		str	ip, [r3]
 663              		.loc 1 267 0
 664 0034 143292E5 		ldr	r3, [r2, #532]
 665 0038 013583E3 		orr	r3, r3, #4194304
 666 003c 143282E5 		str	r3, [r2, #532]
 667              	.LVL58:
 668              	.LBE19:
 669              	.LBE18:
 670              		.loc 1 285 0
 671 0040 04F09DE4 		ldr	pc, [sp], #4
 672              	.L106:
 673              		.align	2
 674              	.L105:
 675 0044 00402020 		.word	538984448
 676 0048 00B00020 		.word	536915968
 677              		.cfi_endproc
 678              	.LFE15:
 679              		.size	spi_lld_send, .-spi_lld_send
 680              		.section	.text.spi_lld_receive,"ax",%progbits
 681              		.align	2
 682              		.global	spi_lld_receive
 683              		.syntax unified
 684              		.arm
ARM GAS  /var/folders/3j/4xdnk5197cv_b7cw3n33qk7r0000gn/T//cc4fOuw6.s 			page 13


 685              		.fpu softvfp
 686              		.type	spi_lld_receive, %function
 687              	spi_lld_receive:
 688              	.LFB16:
 689              		.loc 1 300 0
 690              		.cfi_startproc
 691              		@ args = 0, pretend = 0, frame = 0
 692              		@ frame_needed = 0, uses_anonymous_args = 0
 693              	.LVL59:
 694 0000 04E02DE5 		str	lr, [sp, #-4]!
 695              		.cfi_def_cfa_offset 4
 696              		.cfi_offset 14, -4
 697              	.LBB20:
 698              	.LBB21:
 699              		.loc 1 261 0
 700 0004 00E0A0E3 		mov	lr, #0
 701              		.loc 1 259 0
 702 0008 34309FE5 		ldr	r3, .L109
 703 000c 00C093E5 		ldr	ip, [r3]
 704 0010 30C08CE3 		orr	ip, ip, #48
 705 0014 00C083E5 		str	ip, [r3]
 706              		.loc 1 266 0
 707 0018 00C093E5 		ldr	ip, [r3]
 708              		.loc 1 262 0
 709 001c 241080E5 		str	r1, [r0, #36]
 710              		.loc 1 266 0
 711 0020 1ACD8CE3 		orr	ip, ip, #1664
 712              		.loc 1 267 0
 713 0024 1C109FE5 		ldr	r1, .L109+4
 714              	.LVL60:
 715              		.loc 1 263 0
 716 0028 1C2080E5 		str	r2, [r0, #28]
 717              		.loc 1 261 0
 718 002c 20E080E5 		str	lr, [r0, #32]
 719              		.loc 1 266 0
 720 0030 00C083E5 		str	ip, [r3]
 721              		.loc 1 267 0
 722 0034 143291E5 		ldr	r3, [r1, #532]
 723 0038 013583E3 		orr	r3, r3, #4194304
 724 003c 143281E5 		str	r3, [r1, #532]
 725              	.LVL61:
 726              	.LBE21:
 727              	.LBE20:
 728              		.loc 1 302 0
 729 0040 04F09DE4 		ldr	pc, [sp], #4
 730              	.L110:
 731              		.align	2
 732              	.L109:
 733 0044 00402020 		.word	538984448
 734 0048 00B00020 		.word	536915968
 735              		.cfi_endproc
 736              	.LFE16:
 737              		.size	spi_lld_receive, .-spi_lld_receive
 738              		.section	.text.spi_lld_polled_exchange,"ax",%progbits
 739              		.align	2
 740              		.global	spi_lld_polled_exchange
 741              		.syntax unified
ARM GAS  /var/folders/3j/4xdnk5197cv_b7cw3n33qk7r0000gn/T//cc4fOuw6.s 			page 14


 742              		.arm
 743              		.fpu softvfp
 744              		.type	spi_lld_polled_exchange, %function
 745              	spi_lld_polled_exchange:
 746              	.LFB17:
 747              		.loc 1 316 0
 748              		.cfi_startproc
 749              		@ args = 0, pretend = 0, frame = 0
 750              		@ frame_needed = 0, uses_anonymous_args = 0
 751              		@ link register save eliminated.
 752              	.LVL62:
 753              		.loc 1 320 0
 754 0000 44309FE5 		ldr	r3, .L118
 755              		.loc 1 323 0
 756 0004 0300A0E1 		mov	r0, r3
 757              	.LVL63:
 758              		.loc 1 320 0
 759 0008 002093E5 		ldr	r2, [r3]
 760 000c B02082E3 		orr	r2, r2, #176
 761 0010 002083E5 		str	r2, [r3]
 762              	.L112:
 763              		.loc 1 323 0 discriminator 1
 764 0014 003090E5 		ldr	r3, [r0]
 765 0018 010713E3 		tst	r3, #262144
 766 001c FCFFFF0A 		beq	.L112
 767              		.loc 1 329 0
 768 0020 24209FE5 		ldr	r2, .L118
 769              		.loc 1 326 0
 770 0024 041080E5 		str	r1, [r0, #4]
 771              	.L113:
 772              		.loc 1 329 0 discriminator 1
 773 0028 003092E5 		ldr	r3, [r2]
 774 002c 010813E3 		tst	r3, #65536
 775 0030 FCFFFF0A 		beq	.L113
 776              		.loc 1 332 0
 777 0034 040092E5 		ldr	r0, [r2, #4]
 778              	.LVL64:
 779              		.loc 1 335 0
 780 0038 003092E5 		ldr	r3, [r2]
 781              		.loc 1 338 0
 782 003c 7000FFE6 		uxth	r0, r0
 783              		.loc 1 335 0
 784 0040 8030C3E3 		bic	r3, r3, #128
 785 0044 003082E5 		str	r3, [r2]
 786              		.loc 1 338 0
 787 0048 1EFF2FE1 		bx	lr
 788              	.L119:
 789              		.align	2
 790              	.L118:
 791 004c 00402020 		.word	538984448
 792              		.cfi_endproc
 793              	.LFE17:
 794              		.size	spi_lld_polled_exchange, .-spi_lld_polled_exchange
 795              		.comm	SPI0,40,4
 796              		.text
 797              	.Letext0:
 798              		.file 2 "/usr/local/Cellar/gcc-arm-none-eabi/20180627/lib/gcc/arm-none-eabi/7.3.1/include/stddef.h
ARM GAS  /var/folders/3j/4xdnk5197cv_b7cw3n33qk7r0000gn/T//cc4fOuw6.s 			page 15


 799              		.file 3 "/usr/local/Cellar/gcc-arm-none-eabi/20180627/arm-none-eabi/include/machine/_default_types
 800              		.file 4 "/usr/local/Cellar/gcc-arm-none-eabi/20180627/arm-none-eabi/include/sys/_stdint.h"
 801              		.file 5 "..//os/ports/GCC/ARM/chtypes.h"
 802              		.file 6 "..//os/kernel/include/chlists.h"
 803              		.file 7 "..//os/kernel/include/chthreads.h"
 804              		.file 8 "..//os/ports/GCC/ARM/chcore.h"
 805              		.file 9 "..//os/kernel/include/chvt.h"
 806              		.file 10 "..//os/kernel/include/chschd.h"
 807              		.file 11 "..//os/kernel/include/chmtx.h"
 808              		.file 12 "..//os/kernel/include/chevents.h"
 809              		.file 13 "..//os/kernel/include/chregistry.h"
 810              		.file 14 "..//os/kernel/include/chqueues.h"
 811              		.file 15 "..//os/kernel/include/ch.h"
 812              		.file 16 "..//os/hal/platforms/BCM2835/bcm2835.h"
 813              		.file 17 "..//os/hal/platforms/BCM2835/pal_lld.h"
 814              		.file 18 "..//os/hal/include/i2c.h"
 815              		.file 19 "..//os/hal/platforms/BCM2835/i2c_lld.h"
 816              		.file 20 "..//os/hal/include/serial.h"
 817              		.file 21 "..//os/hal/include/spi.h"
 818              		.file 22 "..//os/hal/platforms/BCM2835/spi_lld.h"
 819              		.file 23 "..//os/hal/platforms/BCM2835/serial_lld.h"