ARM GAS  /var/folders/3j/4xdnk5197cv_b7cw3n33qk7r0000gn/T//ccUI6O0C.s 			page 1


   1              		.cpu arm1176jz-s
   2              		.eabi_attribute 20, 1
   3              		.eabi_attribute 21, 1
   4              		.eabi_attribute 23, 3
   5              		.eabi_attribute 24, 1
   6              		.eabi_attribute 25, 1
   7              		.eabi_attribute 26, 1
   8              		.eabi_attribute 30, 2
   9              		.eabi_attribute 34, 1
  10              		.eabi_attribute 18, 4
  11              		.file	"testevt.c"
  12              		.text
  13              	.Ltext0:
  14              		.cfi_sections	.debug_frame
  15              		.section	.text.evt1_execute,"ax",%progbits
  16              		.align	2
  17              		.syntax unified
  18              		.arm
  19              		.fpu softvfp
  20              		.type	evt1_execute, %function
  21              	evt1_execute:
  22              	.LFB11:
  23              		.file 1 "..//test/testevt.c"
  24              		.loc 1 89 0
  25              		.cfi_startproc
  26              		@ args = 0, pretend = 0, frame = 32
  27              		@ frame_needed = 0, uses_anonymous_args = 0
  28 0000 10402DE9 		push	{r4, lr}
  29              		.cfi_def_cfa_offset 8
  30              		.cfi_offset 4, -8
  31              		.cfi_offset 14, -4
  32              		.loc 1 95 0
  33 0004 B8409FE5 		ldr	r4, .L8
  34              		.loc 1 89 0
  35 0008 20D04DE2 		sub	sp, sp, #32
  36              		.cfi_def_cfa_offset 40
  37              		.loc 1 96 0
  38 000c 0400A0E1 		mov	r0, r4
  39 0010 0D10A0E1 		mov	r1, sp
  40 0014 0120A0E3 		mov	r2, #1
  41              		.loc 1 95 0
  42 0018 004084E5 		str	r4, [r4]
  43              		.loc 1 96 0
  44 001c FEFFFFEB 		bl	chEvtRegisterMask
  45              	.LVL0:
  46              		.loc 1 97 0
  47 0020 0400A0E1 		mov	r0, r4
  48 0024 10108DE2 		add	r1, sp, #16
  49 0028 0220A0E3 		mov	r2, #2
  50 002c FEFFFFEB 		bl	chEvtRegisterMask
  51              	.LVL1:
  52              		.loc 1 98 0
  53 0030 001094E5 		ldr	r1, [r4]
  54 0034 0100A0E3 		mov	r0, #1
  55 0038 041051E0 		subs	r1, r1, r4
  56 003c 0110A013 		movne	r1, #1
  57 0040 FEFFFFEB 		bl	_test_assert
ARM GAS  /var/folders/3j/4xdnk5197cv_b7cw3n33qk7r0000gn/T//ccUI6O0C.s 			page 2


  58              	.LVL2:
  59 0044 000050E3 		cmp	r0, #0
  60 0048 0100000A 		beq	.L7
  61              	.L1:
  62              		.loc 1 109 0
  63 004c 20D08DE2 		add	sp, sp, #32
  64              		.cfi_remember_state
  65              		.cfi_def_cfa_offset 8
  66              		@ sp needed
  67 0050 1080BDE8 		pop	{r4, pc}
  68              	.L7:
  69              		.cfi_restore_state
  70              		.loc 1 99 0
  71 0054 0D10A0E1 		mov	r1, sp
  72 0058 0400A0E1 		mov	r0, r4
  73 005c FEFFFFEB 		bl	chEvtUnregister
  74              	.LVL3:
  75              		.loc 1 100 0
  76 0060 001094E5 		ldr	r1, [r4]
  77 0064 0200A0E3 		mov	r0, #2
  78 0068 041051E0 		subs	r1, r1, r4
  79 006c 0110A013 		movne	r1, #1
  80 0070 FEFFFFEB 		bl	_test_assert
  81              	.LVL4:
  82 0074 000050E3 		cmp	r0, #0
  83 0078 F3FFFF1A 		bne	.L1
  84              		.loc 1 101 0
  85 007c 10108DE2 		add	r1, sp, #16
  86 0080 0400A0E1 		mov	r0, r4
  87 0084 FEFFFFEB 		bl	chEvtUnregister
  88              	.LVL5:
  89              		.loc 1 102 0
  90 0088 001094E5 		ldr	r1, [r4]
  91 008c 0300A0E3 		mov	r0, #3
  92 0090 041041E0 		sub	r1, r1, r4
  93 0094 111F6FE1 		clz	r1, r1
  94 0098 A112A0E1 		lsr	r1, r1, #5
  95 009c FEFFFFEB 		bl	_test_assert
  96              	.LVL6:
  97 00a0 000050E3 		cmp	r0, #0
  98 00a4 E8FFFF1A 		bne	.L1
  99              		.loc 1 107 0
 100 00a8 0710A0E3 		mov	r1, #7
 101 00ac 14009FE5 		ldr	r0, .L8+4
 102 00b0 FEFFFFEB 		bl	chEvtDispatch
 103              	.LVL7:
 104              		.loc 1 108 0
 105 00b4 10109FE5 		ldr	r1, .L8+8
 106 00b8 0400A0E3 		mov	r0, #4
 107 00bc FEFFFFEB 		bl	_test_assert_sequence
 108              	.LVL8:
 109 00c0 E1FFFFEA 		b	.L1
 110              	.L9:
 111              		.align	2
 112              	.L8:
 113 00c4 00000000 		.word	.LANCHOR0
 114 00c8 00000000 		.word	.LANCHOR1
ARM GAS  /var/folders/3j/4xdnk5197cv_b7cw3n33qk7r0000gn/T//ccUI6O0C.s 			page 3


 115 00cc 00000000 		.word	.LC0
 116              		.cfi_endproc
 117              	.LFE11:
 118              		.size	evt1_execute, .-evt1_execute
 119              		.section	.text.h3,"ax",%progbits
 120              		.align	2
 121              		.syntax unified
 122              		.arm
 123              		.fpu softvfp
 124              		.type	h3, %function
 125              	h3:
 126              	.LFB10:
 127              		.loc 1 86 0
 128              		.cfi_startproc
 129              		@ args = 0, pretend = 0, frame = 0
 130              		@ frame_needed = 0, uses_anonymous_args = 0
 131              		@ link register save eliminated.
 132              	.LVL9:
 133              		.loc 1 86 0
 134 0000 4300A0E3 		mov	r0, #67
 135              	.LVL10:
 136 0004 FEFFFFEA 		b	test_emit_token
 137              	.LVL11:
 138              		.cfi_endproc
 139              	.LFE10:
 140              		.size	h3, .-h3
 141              		.section	.text.h2,"ax",%progbits
 142              		.align	2
 143              		.syntax unified
 144              		.arm
 145              		.fpu softvfp
 146              		.type	h2, %function
 147              	h2:
 148              	.LFB9:
 149              		.loc 1 85 0
 150              		.cfi_startproc
 151              		@ args = 0, pretend = 0, frame = 0
 152              		@ frame_needed = 0, uses_anonymous_args = 0
 153              		@ link register save eliminated.
 154              	.LVL12:
 155              		.loc 1 85 0
 156 0000 4200A0E3 		mov	r0, #66
 157              	.LVL13:
 158 0004 FEFFFFEA 		b	test_emit_token
 159              	.LVL14:
 160              		.cfi_endproc
 161              	.LFE9:
 162              		.size	h2, .-h2
 163              		.section	.text.h1,"ax",%progbits
 164              		.align	2
 165              		.syntax unified
 166              		.arm
 167              		.fpu softvfp
 168              		.type	h1, %function
 169              	h1:
 170              	.LFB8:
 171              		.loc 1 84 0
ARM GAS  /var/folders/3j/4xdnk5197cv_b7cw3n33qk7r0000gn/T//ccUI6O0C.s 			page 4


 172              		.cfi_startproc
 173              		@ args = 0, pretend = 0, frame = 0
 174              		@ frame_needed = 0, uses_anonymous_args = 0
 175              		@ link register save eliminated.
 176              	.LVL15:
 177              		.loc 1 84 0
 178 0000 4100A0E3 		mov	r0, #65
 179              	.LVL16:
 180 0004 FEFFFFEA 		b	test_emit_token
 181              	.LVL17:
 182              		.cfi_endproc
 183              	.LFE8:
 184              		.size	h1, .-h1
 185              		.section	.text.evt1_setup,"ax",%progbits
 186              		.align	2
 187              		.syntax unified
 188              		.arm
 189              		.fpu softvfp
 190              		.type	evt1_setup, %function
 191              	evt1_setup:
 192              	.LFB7:
 193              		.loc 1 79 0
 194              		.cfi_startproc
 195              		@ args = 0, pretend = 0, frame = 0
 196              		@ frame_needed = 0, uses_anonymous_args = 0
 197              		@ link register save eliminated.
 198              		.loc 1 81 0
 199 0000 0000E0E3 		mvn	r0, #0
 200 0004 FEFFFFEA 		b	chEvtGetAndClearEvents
 201              	.LVL18:
 202              		.cfi_endproc
 203              	.LFE7:
 204              		.size	evt1_setup, .-evt1_setup
 205              		.section	.text.evt2_setup,"ax",%progbits
 206              		.align	2
 207              		.syntax unified
 208              		.arm
 209              		.fpu softvfp
 210              		.type	evt2_setup, %function
 211              	evt2_setup:
 212              	.LFB21:
 213              		.cfi_startproc
 214              		@ args = 0, pretend = 0, frame = 0
 215              		@ frame_needed = 0, uses_anonymous_args = 0
 216              		@ link register save eliminated.
 217 0000 FEFFFFEA 		b	evt1_setup
 218              		.cfi_endproc
 219              	.LFE21:
 220              		.size	evt2_setup, .-evt2_setup
 221              		.section	.text.evt3_setup,"ax",%progbits
 222              		.align	2
 223              		.syntax unified
 224              		.arm
 225              		.fpu softvfp
 226              		.type	evt3_setup, %function
 227              	evt3_setup:
 228              	.LFB23:
ARM GAS  /var/folders/3j/4xdnk5197cv_b7cw3n33qk7r0000gn/T//ccUI6O0C.s 			page 5


 229              		.cfi_startproc
 230              		@ args = 0, pretend = 0, frame = 0
 231              		@ frame_needed = 0, uses_anonymous_args = 0
 232              		@ link register save eliminated.
 233 0000 FEFFFFEA 		b	evt1_setup
 234              		.cfi_endproc
 235              	.LFE23:
 236              		.size	evt3_setup, .-evt3_setup
 237              		.section	.text.thread2,"ax",%progbits
 238              		.align	2
 239              		.syntax unified
 240              		.arm
 241              		.fpu softvfp
 242              		.type	thread2, %function
 243              	thread2:
 244              	.LFB14:
 245              		.loc 1 144 0
 246              		.cfi_startproc
 247              		@ args = 0, pretend = 0, frame = 0
 248              		@ frame_needed = 0, uses_anonymous_args = 0
 249              	.LVL19:
 250              		.loc 1 144 0
 251 0000 10402DE9 		push	{r4, lr}
 252              		.cfi_def_cfa_offset 8
 253              		.cfi_offset 4, -8
 254              		.cfi_offset 14, -4
 255              		.loc 1 147 0
 256 0004 0010A0E3 		mov	r1, #0
 257 0008 1C009FE5 		ldr	r0, .L18
 258              	.LVL20:
 259 000c FEFFFFEB 		bl	chEvtBroadcastFlags
 260              	.LVL21:
 261              		.loc 1 148 0
 262 0010 3200A0E3 		mov	r0, #50
 263 0014 FEFFFFEB 		bl	chThdSleep
 264              	.LVL22:
 265              		.loc 1 149 0
 266 0018 0010A0E3 		mov	r1, #0
 267 001c 0C009FE5 		ldr	r0, .L18+4
 268 0020 FEFFFFEB 		bl	chEvtBroadcastFlags
 269              	.LVL23:
 270              		.loc 1 151 0
 271 0024 0000A0E3 		mov	r0, #0
 272 0028 1080BDE8 		pop	{r4, pc}
 273              	.L19:
 274              		.align	2
 275              	.L18:
 276 002c 00000000 		.word	.LANCHOR0
 277 0030 00000000 		.word	.LANCHOR2
 278              		.cfi_endproc
 279              	.LFE14:
 280              		.size	thread2, .-thread2
 281              		.section	.text.thread1,"ax",%progbits
 282              		.align	2
 283              		.syntax unified
 284              		.arm
 285              		.fpu softvfp
ARM GAS  /var/folders/3j/4xdnk5197cv_b7cw3n33qk7r0000gn/T//ccUI6O0C.s 			page 6


 286              		.type	thread1, %function
 287              	thread1:
 288              	.LFB13:
 289              		.loc 1 137 0
 290              		.cfi_startproc
 291              		@ args = 0, pretend = 0, frame = 0
 292              		@ frame_needed = 0, uses_anonymous_args = 0
 293              	.LVL24:
 294 0000 10402DE9 		push	{r4, lr}
 295              		.cfi_def_cfa_offset 8
 296              		.cfi_offset 4, -8
 297              		.cfi_offset 14, -4
 298              		.loc 1 137 0
 299 0004 0040A0E1 		mov	r4, r0
 300              		.loc 1 139 0
 301 0008 3200A0E3 		mov	r0, #50
 302              	.LVL25:
 303 000c FEFFFFEB 		bl	chThdSleep
 304              	.LVL26:
 305              		.loc 1 140 0
 306 0010 0400A0E1 		mov	r0, r4
 307 0014 0110A0E3 		mov	r1, #1
 308 0018 FEFFFFEB 		bl	chEvtSignal
 309              	.LVL27:
 310              		.loc 1 142 0
 311 001c 0000A0E3 		mov	r0, #0
 312 0020 1080BDE8 		pop	{r4, pc}
 313              		.cfi_endproc
 314              	.LFE13:
 315              		.size	thread1, .-thread1
 316              		.section	.text.evt2_execute,"ax",%progbits
 317              		.align	2
 318              		.syntax unified
 319              		.arm
 320              		.fpu softvfp
 321              		.type	evt2_execute, %function
 322              	evt2_execute:
 323              	.LFB15:
 324              		.loc 1 153 0
 325              		.cfi_startproc
 326              		@ args = 0, pretend = 0, frame = 32
 327              		@ frame_needed = 0, uses_anonymous_args = 0
 328 0000 F0432DE9 		push	{r4, r5, r6, r7, r8, r9, lr}
 329              		.cfi_def_cfa_offset 28
 330              		.cfi_offset 4, -28
 331              		.cfi_offset 5, -24
 332              		.cfi_offset 6, -20
 333              		.cfi_offset 7, -16
 334              		.cfi_offset 8, -12
 335              		.cfi_offset 9, -8
 336              		.cfi_offset 14, -4
 337              		.loc 1 161 0
 338 0004 0500A0E3 		mov	r0, #5
 339              		.loc 1 153 0
 340 0008 2CD04DE2 		sub	sp, sp, #44
 341              		.cfi_def_cfa_offset 72
 342              		.loc 1 161 0
ARM GAS  /var/folders/3j/4xdnk5197cv_b7cw3n33qk7r0000gn/T//ccUI6O0C.s 			page 7


 343 000c FEFFFFEB 		bl	chEvtAddEvents
 344              	.LVL28:
 345              		.loc 1 162 0
 346 0010 0000E0E3 		mvn	r0, #0
 347 0014 FEFFFFEB 		bl	chEvtWaitOne
 348              	.LVL29:
 349              		.loc 1 163 0
 350 0018 011040E2 		sub	r1, r0, #1
 351 001c 111F6FE1 		clz	r1, r1
 352 0020 0100A0E3 		mov	r0, #1
 353              	.LVL30:
 354 0024 A112A0E1 		lsr	r1, r1, #5
 355 0028 FEFFFFEB 		bl	_test_assert
 356              	.LVL31:
 357 002c 000050E3 		cmp	r0, #0
 358 0030 0100000A 		beq	.L30
 359              	.L22:
 360              		.loc 1 226 0
 361 0034 2CD08DE2 		add	sp, sp, #44
 362              		.cfi_remember_state
 363              		.cfi_def_cfa_offset 28
 364              		@ sp needed
 365 0038 F083BDE8 		pop	{r4, r5, r6, r7, r8, r9, pc}
 366              	.L30:
 367              		.cfi_restore_state
 368              		.loc 1 164 0
 369 003c 0000E0E3 		mvn	r0, #0
 370 0040 FEFFFFEB 		bl	chEvtWaitOne
 371              	.LVL32:
 372              		.loc 1 165 0
 373 0044 041040E2 		sub	r1, r0, #4
 374 0048 111F6FE1 		clz	r1, r1
 375 004c 0200A0E3 		mov	r0, #2
 376              	.LVL33:
 377 0050 A112A0E1 		lsr	r1, r1, #5
 378 0054 FEFFFFEB 		bl	_test_assert
 379              	.LVL34:
 380 0058 000050E3 		cmp	r0, #0
 381 005c F4FFFF1A 		bne	.L22
 382              		.loc 1 166 0
 383 0060 0000E0E3 		mvn	r0, #0
 384 0064 FEFFFFEB 		bl	chEvtGetAndClearEvents
 385              	.LVL35:
 386              		.loc 1 167 0
 387 0068 101F6FE1 		clz	r1, r0
 388 006c 0300A0E3 		mov	r0, #3
 389              	.LVL36:
 390 0070 A112A0E1 		lsr	r1, r1, #5
 391 0074 FEFFFFEB 		bl	_test_assert
 392              	.LVL37:
 393 0078 000050E3 		cmp	r0, #0
 394 007c ECFFFF1A 		bne	.L22
 395              	.LBB4:
 396              	.LBB5:
 397              		.loc 1 174 0
 398 0080 70829FE5 		ldr	r8, .L31
 399              		.loc 1 172 0
ARM GAS  /var/folders/3j/4xdnk5197cv_b7cw3n33qk7r0000gn/T//ccUI6O0C.s 			page 8


 400 0084 FEFFFFEB 		bl	test_wait_tick
 401              	.LVL38:
 402              		.loc 1 174 0
 403 0088 183098E5 		ldr	r3, [r8, #24]
 404 008c 68129FE5 		ldr	r1, .L31+4
 405 0090 082093E5 		ldr	r2, [r3, #8]
 406 0094 007091E5 		ldr	r7, [r1]
 407              		.loc 1 173 0
 408 0098 60629FE5 		ldr	r6, .L31+8
 409              		.loc 1 174 0
 410 009c 012042E2 		sub	r2, r2, #1
 411 00a0 00308DE5 		str	r3, [sp]
 412 00a4 461FA0E3 		mov	r1, #280
 413 00a8 54329FE5 		ldr	r3, .L31+12
 414 00ac 0700A0E1 		mov	r0, r7
 415              		.loc 1 173 0
 416 00b0 0C4096E5 		ldr	r4, [r6, #12]
 417              	.LVL39:
 418              		.loc 1 174 0
 419 00b4 FEFFFFEB 		bl	chThdCreateStatic
 420              	.LVL40:
 421 00b8 48529FE5 		ldr	r5, .L31+16
 422 00bc 000085E5 		str	r0, [r5]
 423              		.loc 1 176 0
 424 00c0 0000E0E3 		mvn	r0, #0
 425 00c4 FEFFFFEB 		bl	chEvtWaitOne
 426              	.LVL41:
 427              		.loc 1 177 0
 428 00c8 372084E2 		add	r2, r4, #55
 429              		.loc 1 176 0
 430 00cc 0090A0E1 		mov	r9, r0
 431              	.LVL42:
 432              		.loc 1 177 0
 433 00d0 321084E2 		add	r1, r4, #50
 434              	.LVL43:
 435 00d4 0400A0E3 		mov	r0, #4
 436              	.LVL44:
 437 00d8 FEFFFFEB 		bl	_test_assert_time_window
 438              	.LVL45:
 439 00dc 000050E3 		cmp	r0, #0
 440 00e0 D3FFFF1A 		bne	.L22
 441              		.loc 1 178 0
 442 00e4 011049E2 		sub	r1, r9, #1
 443 00e8 111F6FE1 		clz	r1, r1
 444 00ec 0500A0E3 		mov	r0, #5
 445 00f0 A112A0E1 		lsr	r1, r1, #5
 446 00f4 FEFFFFEB 		bl	_test_assert
 447              	.LVL46:
 448 00f8 000050E3 		cmp	r0, #0
 449 00fc CCFFFF1A 		bne	.L22
 450              		.loc 1 179 0
 451 0100 0000E0E3 		mvn	r0, #0
 452 0104 FEFFFFEB 		bl	chEvtGetAndClearEvents
 453              	.LVL47:
 454              		.loc 1 180 0
 455 0108 101F6FE1 		clz	r1, r0
 456 010c 0600A0E3 		mov	r0, #6
ARM GAS  /var/folders/3j/4xdnk5197cv_b7cw3n33qk7r0000gn/T//ccUI6O0C.s 			page 9


 457              	.LVL48:
 458 0110 A112A0E1 		lsr	r1, r1, #5
 459 0114 FEFFFFEB 		bl	_test_assert
 460              	.LVL49:
 461 0118 000050E3 		cmp	r0, #0
 462 011c C4FFFF1A 		bne	.L22
 463              		.loc 1 181 0
 464 0120 FEFFFFEB 		bl	test_wait_threads
 465              	.LVL50:
 466              		.loc 1 186 0
 467 0124 0500A0E3 		mov	r0, #5
 468 0128 FEFFFFEB 		bl	chEvtAddEvents
 469              	.LVL51:
 470              		.loc 1 187 0
 471 012c 0000E0E3 		mvn	r0, #0
 472 0130 FEFFFFEB 		bl	chEvtWaitAny
 473              	.LVL52:
 474              		.loc 1 188 0
 475 0134 051040E2 		sub	r1, r0, #5
 476 0138 111F6FE1 		clz	r1, r1
 477 013c 0700A0E3 		mov	r0, #7
 478              	.LVL53:
 479 0140 A112A0E1 		lsr	r1, r1, #5
 480 0144 FEFFFFEB 		bl	_test_assert
 481              	.LVL54:
 482 0148 000050E3 		cmp	r0, #0
 483 014c B8FFFF1A 		bne	.L22
 484              		.loc 1 189 0
 485 0150 0000E0E3 		mvn	r0, #0
 486 0154 FEFFFFEB 		bl	chEvtGetAndClearEvents
 487              	.LVL55:
 488              		.loc 1 190 0
 489 0158 101F6FE1 		clz	r1, r0
 490 015c 0800A0E3 		mov	r0, #8
 491              	.LVL56:
 492 0160 A112A0E1 		lsr	r1, r1, #5
 493 0164 FEFFFFEB 		bl	_test_assert
 494              	.LVL57:
 495 0168 000050E3 		cmp	r0, #0
 496 016c B0FFFF1A 		bne	.L22
 497              		.loc 1 195 0
 498 0170 FEFFFFEB 		bl	test_wait_tick
 499              	.LVL58:
 500              		.loc 1 197 0
 501 0174 180098E5 		ldr	r0, [r8, #24]
 502 0178 84319FE5 		ldr	r3, .L31+12
 503 017c 082090E5 		ldr	r2, [r0, #8]
 504 0180 461FA0E3 		mov	r1, #280
 505 0184 012042E2 		sub	r2, r2, #1
 506 0188 00008DE5 		str	r0, [sp]
 507 018c 0700A0E1 		mov	r0, r7
 508              		.loc 1 196 0
 509 0190 0C4096E5 		ldr	r4, [r6, #12]
 510              	.LVL59:
 511              		.loc 1 197 0
 512 0194 FEFFFFEB 		bl	chThdCreateStatic
 513              	.LVL60:
ARM GAS  /var/folders/3j/4xdnk5197cv_b7cw3n33qk7r0000gn/T//ccUI6O0C.s 			page 10


 514 0198 000085E5 		str	r0, [r5]
 515              		.loc 1 199 0
 516 019c 0000E0E3 		mvn	r0, #0
 517 01a0 FEFFFFEB 		bl	chEvtWaitAny
 518              	.LVL61:
 519              		.loc 1 200 0
 520 01a4 372084E2 		add	r2, r4, #55
 521              		.loc 1 199 0
 522 01a8 0090A0E1 		mov	r9, r0
 523              	.LVL62:
 524              		.loc 1 200 0
 525 01ac 321084E2 		add	r1, r4, #50
 526              	.LVL63:
 527 01b0 0900A0E3 		mov	r0, #9
 528              	.LVL64:
 529 01b4 FEFFFFEB 		bl	_test_assert_time_window
 530              	.LVL65:
 531 01b8 000050E3 		cmp	r0, #0
 532 01bc 9CFFFF1A 		bne	.L22
 533              		.loc 1 201 0
 534 01c0 011049E2 		sub	r1, r9, #1
 535 01c4 111F6FE1 		clz	r1, r1
 536 01c8 0A00A0E3 		mov	r0, #10
 537 01cc A112A0E1 		lsr	r1, r1, #5
 538 01d0 FEFFFFEB 		bl	_test_assert
 539              	.LVL66:
 540 01d4 000050E3 		cmp	r0, #0
 541 01d8 95FFFF1A 		bne	.L22
 542              		.loc 1 202 0
 543 01dc 0000E0E3 		mvn	r0, #0
 544 01e0 FEFFFFEB 		bl	chEvtGetAndClearEvents
 545              	.LVL67:
 546              		.loc 1 203 0
 547 01e4 101F6FE1 		clz	r1, r0
 548 01e8 0B00A0E3 		mov	r0, #11
 549              	.LVL68:
 550 01ec A112A0E1 		lsr	r1, r1, #5
 551 01f0 FEFFFFEB 		bl	_test_assert
 552              	.LVL69:
 553 01f4 000050E3 		cmp	r0, #0
 554 01f8 8DFFFF1A 		bne	.L22
 555              		.loc 1 209 0
 556 01fc 08919FE5 		ldr	r9, .L31+20
 557              		.loc 1 210 0
 558 0200 08419FE5 		ldr	r4, .L31+24
 559              	.LVL70:
 560              		.loc 1 204 0
 561 0204 FEFFFFEB 		bl	test_wait_threads
 562              	.LVL71:
 563              		.loc 1 211 0
 564 0208 0900A0E1 		mov	r0, r9
 565 020c 08108DE2 		add	r1, sp, #8
 566 0210 0120A0E3 		mov	r2, #1
 567              		.loc 1 209 0
 568 0214 009089E5 		str	r9, [r9]
 569              		.loc 1 210 0
 570 0218 004084E5 		str	r4, [r4]
ARM GAS  /var/folders/3j/4xdnk5197cv_b7cw3n33qk7r0000gn/T//ccUI6O0C.s 			page 11


 571              		.loc 1 211 0
 572 021c FEFFFFEB 		bl	chEvtRegisterMask
 573              	.LVL72:
 574              		.loc 1 212 0
 575 0220 18108DE2 		add	r1, sp, #24
 576 0224 0420A0E3 		mov	r2, #4
 577 0228 0400A0E1 		mov	r0, r4
 578 022c FEFFFFEB 		bl	chEvtRegisterMask
 579              	.LVL73:
 580              		.loc 1 213 0
 581 0230 FEFFFFEB 		bl	test_wait_tick
 582              	.LVL74:
 583              		.loc 1 215 0
 584 0234 182098E5 		ldr	r2, [r8, #24]
 585 0238 D4309FE5 		ldr	r3, .L31+28
 586 023c 082092E5 		ldr	r2, [r2, #8]
 587 0240 461FA0E3 		mov	r1, #280
 588 0244 012042E2 		sub	r2, r2, #1
 589 0248 00308DE5 		str	r3, [sp]
 590 024c 0700A0E1 		mov	r0, r7
 591 0250 C0309FE5 		ldr	r3, .L31+32
 592              		.loc 1 214 0
 593 0254 0C6096E5 		ldr	r6, [r6, #12]
 594              	.LVL75:
 595              		.loc 1 215 0
 596 0258 FEFFFFEB 		bl	chThdCreateStatic
 597              	.LVL76:
 598 025c 000085E5 		str	r0, [r5]
 599              		.loc 1 217 0
 600 0260 0500A0E3 		mov	r0, #5
 601 0264 FEFFFFEB 		bl	chEvtWaitAll
 602              	.LVL77:
 603              		.loc 1 218 0
 604 0268 372086E2 		add	r2, r6, #55
 605 026c 321086E2 		add	r1, r6, #50
 606              	.LVL78:
 607 0270 0C00A0E3 		mov	r0, #12
 608 0274 FEFFFFEB 		bl	_test_assert_time_window
 609              	.LVL79:
 610 0278 000050E3 		cmp	r0, #0
 611 027c 6CFFFF1A 		bne	.L22
 612              		.loc 1 219 0
 613 0280 0000E0E3 		mvn	r0, #0
 614 0284 FEFFFFEB 		bl	chEvtGetAndClearEvents
 615              	.LVL80:
 616              		.loc 1 220 0
 617 0288 101F6FE1 		clz	r1, r0
 618 028c 0D00A0E3 		mov	r0, #13
 619              	.LVL81:
 620 0290 A112A0E1 		lsr	r1, r1, #5
 621 0294 FEFFFFEB 		bl	_test_assert
 622              	.LVL82:
 623 0298 000050E3 		cmp	r0, #0
 624 029c 64FFFF1A 		bne	.L22
 625              		.loc 1 221 0
 626 02a0 FEFFFFEB 		bl	test_wait_threads
 627              	.LVL83:
ARM GAS  /var/folders/3j/4xdnk5197cv_b7cw3n33qk7r0000gn/T//ccUI6O0C.s 			page 12


 628              		.loc 1 222 0
 629 02a4 08108DE2 		add	r1, sp, #8
 630 02a8 0900A0E1 		mov	r0, r9
 631 02ac FEFFFFEB 		bl	chEvtUnregister
 632              	.LVL84:
 633              		.loc 1 223 0
 634 02b0 18108DE2 		add	r1, sp, #24
 635 02b4 0400A0E1 		mov	r0, r4
 636 02b8 FEFFFFEB 		bl	chEvtUnregister
 637              	.LVL85:
 638              		.loc 1 224 0
 639 02bc 001099E5 		ldr	r1, [r9]
 640 02c0 0E00A0E3 		mov	r0, #14
 641 02c4 091041E0 		sub	r1, r1, r9
 642 02c8 111F6FE1 		clz	r1, r1
 643 02cc A112A0E1 		lsr	r1, r1, #5
 644 02d0 FEFFFFEB 		bl	_test_assert
 645              	.LVL86:
 646 02d4 000050E3 		cmp	r0, #0
 647 02d8 55FFFF1A 		bne	.L22
 648              		.loc 1 225 0
 649 02dc 001094E5 		ldr	r1, [r4]
 650 02e0 0F00A0E3 		mov	r0, #15
 651 02e4 041041E0 		sub	r1, r1, r4
 652 02e8 111F6FE1 		clz	r1, r1
 653 02ec A112A0E1 		lsr	r1, r1, #5
 654 02f0 FEFFFFEB 		bl	_test_assert
 655              	.LVL87:
 656 02f4 4EFFFFEA 		b	.L22
 657              	.L32:
 658              		.align	2
 659              	.L31:
 660 02f8 00000000 		.word	rlist
 661 02fc 00000000 		.word	wa
 662 0300 00000000 		.word	vtlist
 663 0304 00000000 		.word	thread1
 664 0308 00000000 		.word	threads
 665 030c 00000000 		.word	.LANCHOR0
 666 0310 00000000 		.word	.LANCHOR2
 667 0314 00000000 		.word	.LC1
 668 0318 00000000 		.word	thread2
 669              	.LBE5:
 670              	.LBE4:
 671              		.cfi_endproc
 672              	.LFE15:
 673              		.size	evt2_execute, .-evt2_execute
 674              		.section	.text.evt3_execute,"ax",%progbits
 675              		.align	2
 676              		.syntax unified
 677              		.arm
 678              		.fpu softvfp
 679              		.type	evt3_execute, %function
 680              	evt3_execute:
 681              	.LFB17:
 682              		.loc 1 256 0
 683              		.cfi_startproc
 684              		@ args = 0, pretend = 0, frame = 0
ARM GAS  /var/folders/3j/4xdnk5197cv_b7cw3n33qk7r0000gn/T//ccUI6O0C.s 			page 13


 685              		@ frame_needed = 0, uses_anonymous_args = 0
 686 0000 10402DE9 		push	{r4, lr}
 687              		.cfi_def_cfa_offset 8
 688              		.cfi_offset 4, -8
 689              		.cfi_offset 14, -4
 690              		.loc 1 262 0
 691 0004 0010A0E3 		mov	r1, #0
 692 0008 0000E0E3 		mvn	r0, #0
 693 000c FEFFFFEB 		bl	chEvtWaitOneTimeout
 694              	.LVL88:
 695              		.loc 1 263 0
 696 0010 101F6FE1 		clz	r1, r0
 697 0014 0100A0E3 		mov	r0, #1
 698              	.LVL89:
 699 0018 A112A0E1 		lsr	r1, r1, #5
 700 001c FEFFFFEB 		bl	_test_assert
 701              	.LVL90:
 702 0020 001050E2 		subs	r1, r0, #0
 703 0024 1080BD18 		popne	{r4, pc}
 704              		.loc 1 264 0
 705 0028 0000E0E3 		mvn	r0, #0
 706 002c FEFFFFEB 		bl	chEvtWaitAnyTimeout
 707              	.LVL91:
 708              		.loc 1 265 0
 709 0030 101F6FE1 		clz	r1, r0
 710 0034 0200A0E3 		mov	r0, #2
 711              	.LVL92:
 712 0038 A112A0E1 		lsr	r1, r1, #5
 713 003c FEFFFFEB 		bl	_test_assert
 714              	.LVL93:
 715 0040 001050E2 		subs	r1, r0, #0
 716 0044 1080BD18 		popne	{r4, pc}
 717              		.loc 1 266 0
 718 0048 0000E0E3 		mvn	r0, #0
 719 004c FEFFFFEB 		bl	chEvtWaitAllTimeout
 720              	.LVL94:
 721              		.loc 1 267 0
 722 0050 101F6FE1 		clz	r1, r0
 723 0054 0300A0E3 		mov	r0, #3
 724              	.LVL95:
 725 0058 A112A0E1 		lsr	r1, r1, #5
 726 005c FEFFFFEB 		bl	_test_assert
 727              	.LVL96:
 728 0060 000050E3 		cmp	r0, #0
 729 0064 1080BD18 		popne	{r4, pc}
 730              	.LBB8:
 731              	.LBB9:
 732              		.loc 1 268 0
 733 0068 0A10A0E3 		mov	r1, #10
 734 006c 0000E0E3 		mvn	r0, #0
 735 0070 FEFFFFEB 		bl	chEvtWaitOneTimeout
 736              	.LVL97:
 737              		.loc 1 269 0
 738 0074 101F6FE1 		clz	r1, r0
 739 0078 0400A0E3 		mov	r0, #4
 740              	.LVL98:
 741 007c A112A0E1 		lsr	r1, r1, #5
ARM GAS  /var/folders/3j/4xdnk5197cv_b7cw3n33qk7r0000gn/T//ccUI6O0C.s 			page 14


 742 0080 FEFFFFEB 		bl	_test_assert
 743              	.LVL99:
 744 0084 000050E3 		cmp	r0, #0
 745 0088 1080BD18 		popne	{r4, pc}
 746              		.loc 1 270 0
 747 008c 0A10A0E3 		mov	r1, #10
 748 0090 0000E0E3 		mvn	r0, #0
 749 0094 FEFFFFEB 		bl	chEvtWaitAnyTimeout
 750              	.LVL100:
 751              		.loc 1 271 0
 752 0098 101F6FE1 		clz	r1, r0
 753 009c 0500A0E3 		mov	r0, #5
 754              	.LVL101:
 755 00a0 3110A0E1 		lsr	r1, r1, r0
 756 00a4 FEFFFFEB 		bl	_test_assert
 757              	.LVL102:
 758 00a8 000050E3 		cmp	r0, #0
 759 00ac 1080BD18 		popne	{r4, pc}
 760              		.loc 1 272 0
 761 00b0 0A10A0E3 		mov	r1, #10
 762 00b4 0000E0E3 		mvn	r0, #0
 763 00b8 FEFFFFEB 		bl	chEvtWaitAllTimeout
 764              	.LVL103:
 765              	.LBE9:
 766              	.LBE8:
 767              		.loc 1 274 0
 768 00bc 1040BDE8 		pop	{r4, lr}
 769              		.cfi_restore 14
 770              		.cfi_restore 4
 771              		.cfi_def_cfa_offset 0
 772              	.LBB11:
 773              	.LBB10:
 774              		.loc 1 273 0
 775 00c0 101F6FE1 		clz	r1, r0
 776 00c4 0600A0E3 		mov	r0, #6
 777              	.LVL104:
 778 00c8 A112A0E1 		lsr	r1, r1, #5
 779 00cc FEFFFFEA 		b	_test_assert
 780              	.LVL105:
 781              	.LBE10:
 782              	.LBE11:
 783              		.cfi_endproc
 784              	.LFE17:
 785              		.size	evt3_execute, .-evt3_execute
 786              		.global	patternevt
 787              		.global	testevt3
 788              		.global	testevt2
 789              		.global	testevt1
 790              		.section	.data.es1,"aw",%progbits
 791              		.align	2
 792              		.set	.LANCHOR0,. + 0
 793              		.type	es1, %object
 794              		.size	es1, 4
 795              	es1:
 796 0000 00000000 		.word	es1
 797              		.section	.data.es2,"aw",%progbits
 798              		.align	2
ARM GAS  /var/folders/3j/4xdnk5197cv_b7cw3n33qk7r0000gn/T//ccUI6O0C.s 			page 15


 799              		.set	.LANCHOR2,. + 0
 800              		.type	es2, %object
 801              		.size	es2, 4
 802              	es2:
 803 0000 00000000 		.word	es2
 804              		.section	.rodata.evhndl,"a",%progbits
 805              		.align	2
 806              		.set	.LANCHOR1,. + 0
 807              		.type	evhndl, %object
 808              		.size	evhndl, 12
 809              	evhndl:
 810 0000 00000000 		.word	h1
 811 0004 00000000 		.word	h2
 812 0008 00000000 		.word	h3
 813              		.section	.rodata.evt1_execute.str1.4,"aMS",%progbits,1
 814              		.align	2
 815              	.LC0:
 816 0000 41424300 		.ascii	"ABC\000"
 817              		.section	.rodata.evt2_execute.str1.4,"aMS",%progbits,1
 818              		.align	2
 819              	.LC1:
 820 0000 4100     		.ascii	"A\000"
 821              		.section	.rodata.patternevt,"a",%progbits
 822              		.align	2
 823              		.type	patternevt, %object
 824              		.size	patternevt, 16
 825              	patternevt:
 826 0000 00000000 		.word	testevt1
 827 0004 00000000 		.word	testevt2
 828 0008 00000000 		.word	testevt3
 829 000c 00000000 		.word	0
 830              		.section	.rodata.str1.4,"aMS",%progbits,1
 831              		.align	2
 832              	.LC2:
 833 0000 4576656E 		.ascii	"Events, timeouts\000"
 833      74732C20 
 833      74696D65 
 833      6F757473 
 833      00
 834 0011 000000   		.space	3
 835              	.LC3:
 836 0014 4576656E 		.ascii	"Events, wait and broadcast\000"
 836      74732C20 
 836      77616974 
 836      20616E64 
 836      2062726F 
 837 002f 00       		.space	1
 838              	.LC4:
 839 0030 4576656E 		.ascii	"Events, registration and dispatch\000"
 839      74732C20 
 839      72656769 
 839      73747261 
 839      74696F6E 
 840              		.section	.rodata.testevt1,"a",%progbits
 841              		.align	2
 842              		.type	testevt1, %object
 843              		.size	testevt1, 16
ARM GAS  /var/folders/3j/4xdnk5197cv_b7cw3n33qk7r0000gn/T//ccUI6O0C.s 			page 16


 844              	testevt1:
 845 0000 30000000 		.word	.LC4
 846 0004 00000000 		.word	evt1_setup
 847 0008 00000000 		.word	0
 848 000c 00000000 		.word	evt1_execute
 849              		.section	.rodata.testevt2,"a",%progbits
 850              		.align	2
 851              		.type	testevt2, %object
 852              		.size	testevt2, 16
 853              	testevt2:
 854 0000 14000000 		.word	.LC3
 855 0004 00000000 		.word	evt2_setup
 856 0008 00000000 		.word	0
 857 000c 00000000 		.word	evt2_execute
 858              		.section	.rodata.testevt3,"a",%progbits
 859              		.align	2
 860              		.type	testevt3, %object
 861              		.size	testevt3, 16
 862              	testevt3:
 863 0000 00000000 		.word	.LC2
 864 0004 00000000 		.word	evt3_setup
 865 0008 00000000 		.word	0
 866 000c 00000000 		.word	evt3_execute
 867              		.text
 868              	.Letext0:
 869              		.file 2 "/usr/local/Cellar/gcc-arm-none-eabi/20180627/arm-none-eabi/include/machine/_default_types
 870              		.file 3 "/usr/local/Cellar/gcc-arm-none-eabi/20180627/arm-none-eabi/include/sys/_stdint.h"
 871              		.file 4 "..//os/ports/GCC/ARM/chtypes.h"
 872              		.file 5 "..//os/kernel/include/chlists.h"
 873              		.file 6 "..//os/kernel/include/chthreads.h"
 874              		.file 7 "..//os/ports/GCC/ARM/chcore.h"
 875              		.file 8 "..//os/kernel/include/chvt.h"
 876              		.file 9 "..//os/kernel/include/chschd.h"
 877              		.file 10 "..//os/kernel/include/chmtx.h"
 878              		.file 11 "..//os/kernel/include/chevents.h"
 879              		.file 12 "..//os/kernel/include/chregistry.h"
 880              		.file 13 "..//os/kernel/include/ch.h"
 881              		.file 14 "..//test/test.h"
 882              		.section	.debug_info,"",%progbits
 883              	.Ldebug_info0:
 884 0000 33110000 		.4byte	0x1133
 885 0004 0400     		.2byte	0x4
 886 0006 00000000 		.4byte	.Ldebug_abbrev0
 887 000a 04       		.byte	0x4
 888 000b 01       		.uleb128 0x1
 889 000c 67010000 		.4byte	.LASF153
 890 0010 0C       		.byte	0xc
 891 0011 8D060000 		.4byte	.LASF154
 892 0015 00000000 		.4byte	.LASF155
 893 0019 18000000 		.4byte	.Ldebug_ranges0+0x18
 894 001d 00000000 		.4byte	0
 895 0021 00000000 		.4byte	.Ldebug_line0
 896 0025 02       		.uleb128 0x2
 897 0026 04       		.byte	0x4
 898 0027 05       		.byte	0x5
 899 0028 696E7400 		.ascii	"int\000"
 900 002c 03       		.uleb128 0x3
ARM GAS  /var/folders/3j/4xdnk5197cv_b7cw3n33qk7r0000gn/T//ccUI6O0C.s 			page 17


 901 002d 04       		.byte	0x4
 902 002e 07       		.byte	0x7
 903 002f F4020000 		.4byte	.LASF0
 904 0033 03       		.uleb128 0x3
 905 0034 01       		.byte	0x1
 906 0035 06       		.byte	0x6
 907 0036 0B010000 		.4byte	.LASF1
 908 003a 04       		.uleb128 0x4
 909 003b 6D000000 		.4byte	.LASF4
 910 003f 02       		.byte	0x2
 911 0040 2B       		.byte	0x2b
 912 0041 45000000 		.4byte	0x45
 913 0045 03       		.uleb128 0x3
 914 0046 01       		.byte	0x1
 915 0047 08       		.byte	0x8
 916 0048 45050000 		.4byte	.LASF2
 917 004c 03       		.uleb128 0x3
 918 004d 02       		.byte	0x2
 919 004e 05       		.byte	0x5
 920 004f 8C050000 		.4byte	.LASF3
 921 0053 04       		.uleb128 0x4
 922 0054 69060000 		.4byte	.LASF5
 923 0058 02       		.byte	0x2
 924 0059 39       		.byte	0x39
 925 005a 5E000000 		.4byte	0x5e
 926 005e 03       		.uleb128 0x3
 927 005f 02       		.byte	0x2
 928 0060 07       		.byte	0x7
 929 0061 7A030000 		.4byte	.LASF6
 930 0065 04       		.uleb128 0x4
 931 0066 A0060000 		.4byte	.LASF7
 932 006a 02       		.byte	0x2
 933 006b 4D       		.byte	0x4d
 934 006c 70000000 		.4byte	0x70
 935 0070 03       		.uleb128 0x3
 936 0071 04       		.byte	0x4
 937 0072 05       		.byte	0x5
 938 0073 1A020000 		.4byte	.LASF8
 939 0077 04       		.uleb128 0x4
 940 0078 A2020000 		.4byte	.LASF9
 941 007c 02       		.byte	0x2
 942 007d 4F       		.byte	0x4f
 943 007e 82000000 		.4byte	0x82
 944 0082 03       		.uleb128 0x3
 945 0083 04       		.byte	0x4
 946 0084 07       		.byte	0x7
 947 0085 09030000 		.4byte	.LASF10
 948 0089 03       		.uleb128 0x3
 949 008a 08       		.byte	0x8
 950 008b 05       		.byte	0x5
 951 008c FD000000 		.4byte	.LASF11
 952 0090 03       		.uleb128 0x3
 953 0091 08       		.byte	0x8
 954 0092 07       		.byte	0x7
 955 0093 8A000000 		.4byte	.LASF12
 956 0097 04       		.uleb128 0x4
 957 0098 F8060000 		.4byte	.LASF13
ARM GAS  /var/folders/3j/4xdnk5197cv_b7cw3n33qk7r0000gn/T//ccUI6O0C.s 			page 18


 958 009c 03       		.byte	0x3
 959 009d 18       		.byte	0x18
 960 009e 3A000000 		.4byte	0x3a
 961 00a2 04       		.uleb128 0x4
 962 00a3 70020000 		.4byte	.LASF14
 963 00a7 03       		.byte	0x3
 964 00a8 24       		.byte	0x24
 965 00a9 53000000 		.4byte	0x53
 966 00ad 04       		.uleb128 0x4
 967 00ae 3D050000 		.4byte	.LASF15
 968 00b2 03       		.byte	0x3
 969 00b3 2C       		.byte	0x2c
 970 00b4 65000000 		.4byte	0x65
 971 00b8 04       		.uleb128 0x4
 972 00b9 23060000 		.4byte	.LASF16
 973 00bd 03       		.byte	0x3
 974 00be 30       		.byte	0x30
 975 00bf 77000000 		.4byte	0x77
 976 00c3 04       		.uleb128 0x4
 977 00c4 48010000 		.4byte	.LASF17
 978 00c8 04       		.byte	0x4
 979 00c9 29       		.byte	0x29
 980 00ca AD000000 		.4byte	0xad
 981 00ce 04       		.uleb128 0x4
 982 00cf D8030000 		.4byte	.LASF18
 983 00d3 04       		.byte	0x4
 984 00d4 2A       		.byte	0x2a
 985 00d5 97000000 		.4byte	0x97
 986 00d9 04       		.uleb128 0x4
 987 00da 2F020000 		.4byte	.LASF19
 988 00de 04       		.byte	0x4
 989 00df 2B       		.byte	0x2b
 990 00e0 97000000 		.4byte	0x97
 991 00e4 04       		.uleb128 0x4
 992 00e5 13050000 		.4byte	.LASF20
 993 00e9 04       		.byte	0x4
 994 00ea 2C       		.byte	0x2c
 995 00eb 97000000 		.4byte	0x97
 996 00ef 04       		.uleb128 0x4
 997 00f0 4D060000 		.4byte	.LASF21
 998 00f4 04       		.byte	0x4
 999 00f5 2D       		.byte	0x2d
 1000 00f6 97000000 		.4byte	0x97
 1001 00fa 04       		.uleb128 0x4
 1002 00fb 35050000 		.4byte	.LASF22
 1003 00ff 04       		.byte	0x4
 1004 0100 2E       		.byte	0x2e
 1005 0101 B8000000 		.4byte	0xb8
 1006 0105 04       		.uleb128 0x4
 1007 0106 9F030000 		.4byte	.LASF23
 1008 010a 04       		.byte	0x4
 1009 010b 2F       		.byte	0x2f
 1010 010c AD000000 		.4byte	0xad
 1011 0110 04       		.uleb128 0x4
 1012 0111 D2020000 		.4byte	.LASF24
 1013 0115 04       		.byte	0x4
 1014 0116 30       		.byte	0x30
ARM GAS  /var/folders/3j/4xdnk5197cv_b7cw3n33qk7r0000gn/T//ccUI6O0C.s 			page 19


 1015 0117 AD000000 		.4byte	0xad
 1016 011b 04       		.uleb128 0x4
 1017 011c EC030000 		.4byte	.LASF25
 1018 0120 04       		.byte	0x4
 1019 0121 31       		.byte	0x31
 1020 0122 B8000000 		.4byte	0xb8
 1021 0126 04       		.uleb128 0x4
 1022 0127 CA060000 		.4byte	.LASF26
 1023 012b 04       		.byte	0x4
 1024 012c 32       		.byte	0x32
 1025 012d B8000000 		.4byte	0xb8
 1026 0131 04       		.uleb128 0x4
 1027 0132 83060000 		.4byte	.LASF27
 1028 0136 04       		.byte	0x4
 1029 0137 33       		.byte	0x33
 1030 0138 B8000000 		.4byte	0xb8
 1031 013c 05       		.uleb128 0x5
 1032 013d 31010000 		.4byte	0x131
 1033 0141 04       		.uleb128 0x4
 1034 0142 E0050000 		.4byte	.LASF28
 1035 0146 05       		.byte	0x5
 1036 0147 23       		.byte	0x23
 1037 0148 4C010000 		.4byte	0x14c
 1038 014c 06       		.uleb128 0x6
 1039 014d E0050000 		.4byte	.LASF28
 1040 0151 44       		.byte	0x44
 1041 0152 06       		.byte	0x6
 1042 0153 57       		.byte	0x57
 1043 0154 3D020000 		.4byte	0x23d
 1044 0158 07       		.uleb128 0x7
 1045 0159 C2050000 		.4byte	.LASF29
 1046 015d 06       		.byte	0x6
 1047 015e 58       		.byte	0x58
 1048 015f 5E020000 		.4byte	0x25e
 1049 0163 00       		.byte	0
 1050 0164 07       		.uleb128 0x7
 1051 0165 26050000 		.4byte	.LASF30
 1052 0169 06       		.byte	0x6
 1053 016a 5A       		.byte	0x5a
 1054 016b 5E020000 		.4byte	0x25e
 1055 016f 04       		.byte	0x4
 1056 0170 07       		.uleb128 0x7
 1057 0171 E0000000 		.4byte	.LASF31
 1058 0175 06       		.byte	0x6
 1059 0176 5C       		.byte	0x5c
 1060 0177 FA000000 		.4byte	0xfa
 1061 017b 08       		.byte	0x8
 1062 017c 07       		.uleb128 0x7
 1063 017d 86070000 		.4byte	.LASF32
 1064 0181 06       		.byte	0x6
 1065 0182 5D       		.byte	0x5d
 1066 0183 1E030000 		.4byte	0x31e
 1067 0187 0C       		.byte	0xc
 1068 0188 07       		.uleb128 0x7
 1069 0189 8A020000 		.4byte	.LASF33
 1070 018d 06       		.byte	0x6
 1071 018e 5F       		.byte	0x5f
ARM GAS  /var/folders/3j/4xdnk5197cv_b7cw3n33qk7r0000gn/T//ccUI6O0C.s 			page 20


 1072 018f 5E020000 		.4byte	0x25e
 1073 0193 10       		.byte	0x10
 1074 0194 07       		.uleb128 0x7
 1075 0195 8D040000 		.4byte	.LASF34
 1076 0199 06       		.byte	0x6
 1077 019a 60       		.byte	0x60
 1078 019b 5E020000 		.4byte	0x25e
 1079 019f 14       		.byte	0x14
 1080 01a0 07       		.uleb128 0x7
 1081 01a1 29070000 		.4byte	.LASF35
 1082 01a5 06       		.byte	0x6
 1083 01a6 67       		.byte	0x67
 1084 01a7 73050000 		.4byte	0x573
 1085 01ab 18       		.byte	0x18
 1086 01ac 07       		.uleb128 0x7
 1087 01ad 96050000 		.4byte	.LASF36
 1088 01b1 06       		.byte	0x6
 1089 01b2 72       		.byte	0x72
 1090 01b3 D9000000 		.4byte	0xd9
 1091 01b7 1C       		.byte	0x1c
 1092 01b8 07       		.uleb128 0x7
 1093 01b9 D8050000 		.4byte	.LASF37
 1094 01bd 06       		.byte	0x6
 1095 01be 76       		.byte	0x76
 1096 01bf CE000000 		.4byte	0xce
 1097 01c3 1D       		.byte	0x1d
 1098 01c4 07       		.uleb128 0x7
 1099 01c5 E1060000 		.4byte	.LASF38
 1100 01c9 06       		.byte	0x6
 1101 01ca 7B       		.byte	0x7b
 1102 01cb E4000000 		.4byte	0xe4
 1103 01cf 1E       		.byte	0x1e
 1104 01d0 07       		.uleb128 0x7
 1105 01d1 9E050000 		.4byte	.LASF39
 1106 01d5 06       		.byte	0x6
 1107 01d6 81       		.byte	0x81
 1108 01d7 EF000000 		.4byte	0xef
 1109 01db 1F       		.byte	0x1f
 1110 01dc 07       		.uleb128 0x7
 1111 01dd AA060000 		.4byte	.LASF40
 1112 01e1 06       		.byte	0x6
 1113 01e2 88       		.byte	0x88
 1114 01e3 3C010000 		.4byte	0x13c
 1115 01e7 20       		.byte	0x20
 1116 01e8 08       		.uleb128 0x8
 1117 01e9 705F7500 		.ascii	"p_u\000"
 1118 01ed 06       		.byte	0x6
 1119 01ee AD       		.byte	0xad
 1120 01ef 3E050000 		.4byte	0x53e
 1121 01f3 24       		.byte	0x24
 1122 01f4 07       		.uleb128 0x7
 1123 01f5 8C070000 		.4byte	.LASF41
 1124 01f9 06       		.byte	0x6
 1125 01fa B2       		.byte	0xb2
 1126 01fb 84020000 		.4byte	0x284
 1127 01ff 28       		.byte	0x28
 1128 0200 07       		.uleb128 0x7
ARM GAS  /var/folders/3j/4xdnk5197cv_b7cw3n33qk7r0000gn/T//ccUI6O0C.s 			page 21


 1129 0201 B8060000 		.4byte	.LASF42
 1130 0205 06       		.byte	0x6
 1131 0206 B8       		.byte	0xb8
 1132 0207 64020000 		.4byte	0x264
 1133 020b 2C       		.byte	0x2c
 1134 020c 07       		.uleb128 0x7
 1135 020d 60000000 		.4byte	.LASF43
 1136 0211 06       		.byte	0x6
 1137 0212 BC       		.byte	0xbc
 1138 0213 05010000 		.4byte	0x105
 1139 0217 34       		.byte	0x34
 1140 0218 07       		.uleb128 0x7
 1141 0219 FD050000 		.4byte	.LASF44
 1142 021d 06       		.byte	0x6
 1143 021e C2       		.byte	0xc2
 1144 021f 1B010000 		.4byte	0x11b
 1145 0223 38       		.byte	0x38
 1146 0224 07       		.uleb128 0x7
 1147 0225 82050000 		.4byte	.LASF45
 1148 0229 06       		.byte	0x6
 1149 022a C9       		.byte	0xc9
 1150 022b 85050000 		.4byte	0x585
 1151 022f 3C       		.byte	0x3c
 1152 0230 07       		.uleb128 0x7
 1153 0231 A5030000 		.4byte	.LASF46
 1154 0235 06       		.byte	0x6
 1155 0236 CD       		.byte	0xcd
 1156 0237 FA000000 		.4byte	0xfa
 1157 023b 40       		.byte	0x40
 1158 023c 00       		.byte	0
 1159 023d 09       		.uleb128 0x9
 1160 023e 08       		.byte	0x8
 1161 023f 05       		.byte	0x5
 1162 0240 5A       		.byte	0x5a
 1163 0241 5E020000 		.4byte	0x25e
 1164 0245 07       		.uleb128 0x7
 1165 0246 C2050000 		.4byte	.LASF29
 1166 024a 05       		.byte	0x5
 1167 024b 5B       		.byte	0x5b
 1168 024c 5E020000 		.4byte	0x25e
 1169 0250 00       		.byte	0
 1170 0251 07       		.uleb128 0x7
 1171 0252 26050000 		.4byte	.LASF30
 1172 0256 05       		.byte	0x5
 1173 0257 5D       		.byte	0x5d
 1174 0258 5E020000 		.4byte	0x25e
 1175 025c 04       		.byte	0x4
 1176 025d 00       		.byte	0
 1177 025e 0A       		.uleb128 0xa
 1178 025f 04       		.byte	0x4
 1179 0260 41010000 		.4byte	0x141
 1180 0264 04       		.uleb128 0x4
 1181 0265 B0040000 		.4byte	.LASF47
 1182 0269 05       		.byte	0x5
 1183 026a 5F       		.byte	0x5f
 1184 026b 3D020000 		.4byte	0x23d
 1185 026f 09       		.uleb128 0x9
ARM GAS  /var/folders/3j/4xdnk5197cv_b7cw3n33qk7r0000gn/T//ccUI6O0C.s 			page 22


 1186 0270 04       		.byte	0x4
 1187 0271 05       		.byte	0x5
 1188 0272 64       		.byte	0x64
 1189 0273 84020000 		.4byte	0x284
 1190 0277 07       		.uleb128 0x7
 1191 0278 C2050000 		.4byte	.LASF29
 1192 027c 05       		.byte	0x5
 1193 027d 66       		.byte	0x66
 1194 027e 5E020000 		.4byte	0x25e
 1195 0282 00       		.byte	0
 1196 0283 00       		.byte	0
 1197 0284 04       		.uleb128 0x4
 1198 0285 E0030000 		.4byte	.LASF48
 1199 0289 05       		.byte	0x5
 1200 028a 69       		.byte	0x69
 1201 028b 6F020000 		.4byte	0x26f
 1202 028f 04       		.uleb128 0x4
 1203 0290 FE030000 		.4byte	.LASF49
 1204 0294 07       		.byte	0x7
 1205 0295 9D       		.byte	0x9d
 1206 0296 B8000000 		.4byte	0xb8
 1207 029a 04       		.uleb128 0x4
 1208 029b AD020000 		.4byte	.LASF50
 1209 029f 07       		.byte	0x7
 1210 02a0 A2       		.byte	0xa2
 1211 02a1 A5020000 		.4byte	0x2a5
 1212 02a5 0B       		.uleb128 0xb
 1213 02a6 04       		.byte	0x4
 1214 02a7 0C       		.uleb128 0xc
 1215 02a8 A5020000 		.4byte	0x2a5
 1216 02ac 06       		.uleb128 0x6
 1217 02ad B1060000 		.4byte	.LASF51
 1218 02b1 24       		.byte	0x24
 1219 02b2 07       		.byte	0x7
 1220 02b3 B9       		.byte	0xb9
 1221 02b4 1E030000 		.4byte	0x31e
 1222 02b8 08       		.uleb128 0x8
 1223 02b9 723400   		.ascii	"r4\000"
 1224 02bc 07       		.byte	0x7
 1225 02bd BA       		.byte	0xba
 1226 02be 9A020000 		.4byte	0x29a
 1227 02c2 00       		.byte	0
 1228 02c3 08       		.uleb128 0x8
 1229 02c4 723500   		.ascii	"r5\000"
 1230 02c7 07       		.byte	0x7
 1231 02c8 BB       		.byte	0xbb
 1232 02c9 9A020000 		.4byte	0x29a
 1233 02cd 04       		.byte	0x4
 1234 02ce 08       		.uleb128 0x8
 1235 02cf 723600   		.ascii	"r6\000"
 1236 02d2 07       		.byte	0x7
 1237 02d3 BC       		.byte	0xbc
 1238 02d4 9A020000 		.4byte	0x29a
 1239 02d8 08       		.byte	0x8
 1240 02d9 08       		.uleb128 0x8
 1241 02da 723700   		.ascii	"r7\000"
 1242 02dd 07       		.byte	0x7
ARM GAS  /var/folders/3j/4xdnk5197cv_b7cw3n33qk7r0000gn/T//ccUI6O0C.s 			page 23


 1243 02de BD       		.byte	0xbd
 1244 02df 9A020000 		.4byte	0x29a
 1245 02e3 0C       		.byte	0xc
 1246 02e4 08       		.uleb128 0x8
 1247 02e5 723800   		.ascii	"r8\000"
 1248 02e8 07       		.byte	0x7
 1249 02e9 BE       		.byte	0xbe
 1250 02ea 9A020000 		.4byte	0x29a
 1251 02ee 10       		.byte	0x10
 1252 02ef 08       		.uleb128 0x8
 1253 02f0 723900   		.ascii	"r9\000"
 1254 02f3 07       		.byte	0x7
 1255 02f4 BF       		.byte	0xbf
 1256 02f5 9A020000 		.4byte	0x29a
 1257 02f9 14       		.byte	0x14
 1258 02fa 08       		.uleb128 0x8
 1259 02fb 72313000 		.ascii	"r10\000"
 1260 02ff 07       		.byte	0x7
 1261 0300 C0       		.byte	0xc0
 1262 0301 9A020000 		.4byte	0x29a
 1263 0305 18       		.byte	0x18
 1264 0306 08       		.uleb128 0x8
 1265 0307 72313100 		.ascii	"r11\000"
 1266 030b 07       		.byte	0x7
 1267 030c C1       		.byte	0xc1
 1268 030d 9A020000 		.4byte	0x29a
 1269 0311 1C       		.byte	0x1c
 1270 0312 08       		.uleb128 0x8
 1271 0313 6C7200   		.ascii	"lr\000"
 1272 0316 07       		.byte	0x7
 1273 0317 C2       		.byte	0xc2
 1274 0318 9A020000 		.4byte	0x29a
 1275 031c 20       		.byte	0x20
 1276 031d 00       		.byte	0
 1277 031e 06       		.uleb128 0x6
 1278 031f 72030000 		.4byte	.LASF52
 1279 0323 04       		.byte	0x4
 1280 0324 07       		.byte	0x7
 1281 0325 CA       		.byte	0xca
 1282 0326 37030000 		.4byte	0x337
 1283 032a 08       		.uleb128 0x8
 1284 032b 72313300 		.ascii	"r13\000"
 1285 032f 07       		.byte	0x7
 1286 0330 CB       		.byte	0xcb
 1287 0331 37030000 		.4byte	0x337
 1288 0335 00       		.byte	0
 1289 0336 00       		.byte	0
 1290 0337 0A       		.uleb128 0xa
 1291 0338 04       		.byte	0x4
 1292 0339 AC020000 		.4byte	0x2ac
 1293 033d 04       		.uleb128 0x4
 1294 033e 56030000 		.4byte	.LASF53
 1295 0342 08       		.byte	0x8
 1296 0343 4E       		.byte	0x4e
 1297 0344 48030000 		.4byte	0x348
 1298 0348 0A       		.uleb128 0xa
 1299 0349 04       		.byte	0x4
ARM GAS  /var/folders/3j/4xdnk5197cv_b7cw3n33qk7r0000gn/T//ccUI6O0C.s 			page 24


 1300 034a 4E030000 		.4byte	0x34e
 1301 034e 0D       		.uleb128 0xd
 1302 034f 59030000 		.4byte	0x359
 1303 0353 0E       		.uleb128 0xe
 1304 0354 A5020000 		.4byte	0x2a5
 1305 0358 00       		.byte	0
 1306 0359 04       		.uleb128 0x4
 1307 035a 40060000 		.4byte	.LASF54
 1308 035e 08       		.byte	0x8
 1309 035f 53       		.byte	0x53
 1310 0360 64030000 		.4byte	0x364
 1311 0364 06       		.uleb128 0x6
 1312 0365 40060000 		.4byte	.LASF54
 1313 0369 14       		.byte	0x14
 1314 036a 08       		.byte	0x8
 1315 036b 5A       		.byte	0x5a
 1316 036c AD030000 		.4byte	0x3ad
 1317 0370 07       		.uleb128 0x7
 1318 0371 01030000 		.4byte	.LASF55
 1319 0375 08       		.byte	0x8
 1320 0376 5B       		.byte	0x5b
 1321 0377 AD030000 		.4byte	0x3ad
 1322 037b 00       		.byte	0
 1323 037c 07       		.uleb128 0x7
 1324 037d B6020000 		.4byte	.LASF56
 1325 0381 08       		.byte	0x8
 1326 0382 5D       		.byte	0x5d
 1327 0383 AD030000 		.4byte	0x3ad
 1328 0387 04       		.byte	0x4
 1329 0388 07       		.uleb128 0x7
 1330 0389 2F040000 		.4byte	.LASF57
 1331 038d 08       		.byte	0x8
 1332 038e 5F       		.byte	0x5f
 1333 038f 31010000 		.4byte	0x131
 1334 0393 08       		.byte	0x8
 1335 0394 07       		.uleb128 0x7
 1336 0395 42040000 		.4byte	.LASF58
 1337 0399 08       		.byte	0x8
 1338 039a 60       		.byte	0x60
 1339 039b 3D030000 		.4byte	0x33d
 1340 039f 0C       		.byte	0xc
 1341 03a0 07       		.uleb128 0x7
 1342 03a1 C3060000 		.4byte	.LASF59
 1343 03a5 08       		.byte	0x8
 1344 03a6 62       		.byte	0x62
 1345 03a7 A5020000 		.4byte	0x2a5
 1346 03ab 10       		.byte	0x10
 1347 03ac 00       		.byte	0
 1348 03ad 0A       		.uleb128 0xa
 1349 03ae 04       		.byte	0x4
 1350 03af 59030000 		.4byte	0x359
 1351 03b3 09       		.uleb128 0x9
 1352 03b4 10       		.byte	0x10
 1353 03b5 08       		.byte	0x8
 1354 03b6 6C       		.byte	0x6c
 1355 03b7 EC030000 		.4byte	0x3ec
 1356 03bb 07       		.uleb128 0x7
ARM GAS  /var/folders/3j/4xdnk5197cv_b7cw3n33qk7r0000gn/T//ccUI6O0C.s 			page 25


 1357 03bc 01030000 		.4byte	.LASF55
 1358 03c0 08       		.byte	0x8
 1359 03c1 6D       		.byte	0x6d
 1360 03c2 AD030000 		.4byte	0x3ad
 1361 03c6 00       		.byte	0
 1362 03c7 07       		.uleb128 0x7
 1363 03c8 B6020000 		.4byte	.LASF56
 1364 03cc 08       		.byte	0x8
 1365 03cd 6F       		.byte	0x6f
 1366 03ce AD030000 		.4byte	0x3ad
 1367 03d2 04       		.byte	0x4
 1368 03d3 07       		.uleb128 0x7
 1369 03d4 2F040000 		.4byte	.LASF57
 1370 03d8 08       		.byte	0x8
 1371 03d9 71       		.byte	0x71
 1372 03da 31010000 		.4byte	0x131
 1373 03de 08       		.byte	0x8
 1374 03df 07       		.uleb128 0x7
 1375 03e0 3D070000 		.4byte	.LASF60
 1376 03e4 08       		.byte	0x8
 1377 03e5 72       		.byte	0x72
 1378 03e6 3C010000 		.4byte	0x13c
 1379 03ea 0C       		.byte	0xc
 1380 03eb 00       		.byte	0
 1381 03ec 04       		.uleb128 0x4
 1382 03ed 5B070000 		.4byte	.LASF61
 1383 03f1 08       		.byte	0x8
 1384 03f2 73       		.byte	0x73
 1385 03f3 B3030000 		.4byte	0x3b3
 1386 03f7 0F       		.uleb128 0xf
 1387 03f8 77000000 		.4byte	.LASF69
 1388 03fc 08       		.byte	0x8
 1389 03fd D1       		.byte	0xd1
 1390 03fe EC030000 		.4byte	0x3ec
 1391 0402 09       		.uleb128 0x9
 1392 0403 1C       		.byte	0x1c
 1393 0404 09       		.byte	0x9
 1394 0405 57       		.byte	0x57
 1395 0406 53040000 		.4byte	0x453
 1396 040a 07       		.uleb128 0x7
 1397 040b 38060000 		.4byte	.LASF62
 1398 040f 09       		.byte	0x9
 1399 0410 58       		.byte	0x58
 1400 0411 64020000 		.4byte	0x264
 1401 0415 00       		.byte	0
 1402 0416 07       		.uleb128 0x7
 1403 0417 B4050000 		.4byte	.LASF63
 1404 041b 09       		.byte	0x9
 1405 041c 59       		.byte	0x59
 1406 041d FA000000 		.4byte	0xfa
 1407 0421 08       		.byte	0x8
 1408 0422 07       		.uleb128 0x7
 1409 0423 AA040000 		.4byte	.LASF64
 1410 0427 09       		.byte	0x9
 1411 0428 5B       		.byte	0x5b
 1412 0429 1E030000 		.4byte	0x31e
 1413 042d 0C       		.byte	0xc
ARM GAS  /var/folders/3j/4xdnk5197cv_b7cw3n33qk7r0000gn/T//ccUI6O0C.s 			page 26


 1414 042e 07       		.uleb128 0x7
 1415 042f B0030000 		.4byte	.LASF65
 1416 0433 09       		.byte	0x9
 1417 0434 5E       		.byte	0x5e
 1418 0435 5E020000 		.4byte	0x25e
 1419 0439 10       		.byte	0x10
 1420 043a 07       		.uleb128 0x7
 1421 043b F8040000 		.4byte	.LASF66
 1422 043f 09       		.byte	0x9
 1423 0440 5F       		.byte	0x5f
 1424 0441 5E020000 		.4byte	0x25e
 1425 0445 14       		.byte	0x14
 1426 0446 07       		.uleb128 0x7
 1427 0447 EE040000 		.4byte	.LASF67
 1428 044b 09       		.byte	0x9
 1429 044c 62       		.byte	0x62
 1430 044d 5E020000 		.4byte	0x25e
 1431 0451 18       		.byte	0x18
 1432 0452 00       		.byte	0
 1433 0453 04       		.uleb128 0x4
 1434 0454 E8060000 		.4byte	.LASF68
 1435 0458 09       		.byte	0x9
 1436 0459 64       		.byte	0x64
 1437 045a 02040000 		.4byte	0x402
 1438 045e 0F       		.uleb128 0xf
 1439 045f F2060000 		.4byte	.LASF70
 1440 0463 09       		.byte	0x9
 1441 0464 68       		.byte	0x68
 1442 0465 53040000 		.4byte	0x453
 1443 0469 06       		.uleb128 0x6
 1444 046a F8030000 		.4byte	.LASF71
 1445 046e 10       		.byte	0x10
 1446 046f 0A       		.byte	0xa
 1447 0470 25       		.byte	0x25
 1448 0471 9A040000 		.4byte	0x49a
 1449 0475 07       		.uleb128 0x7
 1450 0476 4F010000 		.4byte	.LASF72
 1451 047a 0A       		.byte	0xa
 1452 047b 26       		.byte	0x26
 1453 047c 64020000 		.4byte	0x264
 1454 0480 00       		.byte	0
 1455 0481 07       		.uleb128 0x7
 1456 0482 62070000 		.4byte	.LASF73
 1457 0486 0A       		.byte	0xa
 1458 0487 28       		.byte	0x28
 1459 0488 5E020000 		.4byte	0x25e
 1460 048c 08       		.byte	0x8
 1461 048d 07       		.uleb128 0x7
 1462 048e 7C060000 		.4byte	.LASF74
 1463 0492 0A       		.byte	0xa
 1464 0493 2A       		.byte	0x2a
 1465 0494 9A040000 		.4byte	0x49a
 1466 0498 0C       		.byte	0xc
 1467 0499 00       		.byte	0
 1468 049a 0A       		.uleb128 0xa
 1469 049b 04       		.byte	0x4
 1470 049c 69040000 		.4byte	0x469
ARM GAS  /var/folders/3j/4xdnk5197cv_b7cw3n33qk7r0000gn/T//ccUI6O0C.s 			page 27


 1471 04a0 04       		.uleb128 0x4
 1472 04a1 F8030000 		.4byte	.LASF71
 1473 04a5 0A       		.byte	0xa
 1474 04a6 2C       		.byte	0x2c
 1475 04a7 69040000 		.4byte	0x469
 1476 04ab 04       		.uleb128 0x4
 1477 04ac 00070000 		.4byte	.LASF75
 1478 04b0 0B       		.byte	0xb
 1479 04b1 25       		.byte	0x25
 1480 04b2 B6040000 		.4byte	0x4b6
 1481 04b6 06       		.uleb128 0x6
 1482 04b7 00070000 		.4byte	.LASF75
 1483 04bb 10       		.byte	0x10
 1484 04bc 0B       		.byte	0xb
 1485 04bd 2A       		.byte	0x2a
 1486 04be F3040000 		.4byte	0x4f3
 1487 04c2 07       		.uleb128 0x7
 1488 04c3 B8030000 		.4byte	.LASF76
 1489 04c7 0B       		.byte	0xb
 1490 04c8 2B       		.byte	0x2b
 1491 04c9 F3040000 		.4byte	0x4f3
 1492 04cd 00       		.byte	0
 1493 04ce 07       		.uleb128 0x7
 1494 04cf 60050000 		.4byte	.LASF77
 1495 04d3 0B       		.byte	0xb
 1496 04d4 2E       		.byte	0x2e
 1497 04d5 5E020000 		.4byte	0x25e
 1498 04d9 04       		.byte	0x4
 1499 04da 07       		.uleb128 0x7
 1500 04db 00050000 		.4byte	.LASF78
 1501 04df 0B       		.byte	0xb
 1502 04e0 30       		.byte	0x30
 1503 04e1 1B010000 		.4byte	0x11b
 1504 04e5 08       		.byte	0x8
 1505 04e6 07       		.uleb128 0x7
 1506 04e7 79050000 		.4byte	.LASF79
 1507 04eb 0B       		.byte	0xb
 1508 04ec 33       		.byte	0x33
 1509 04ed 26010000 		.4byte	0x126
 1510 04f1 0C       		.byte	0xc
 1511 04f2 00       		.byte	0
 1512 04f3 0A       		.uleb128 0xa
 1513 04f4 04       		.byte	0x4
 1514 04f5 AB040000 		.4byte	0x4ab
 1515 04f9 06       		.uleb128 0x6
 1516 04fa DC020000 		.4byte	.LASF80
 1517 04fe 04       		.byte	0x4
 1518 04ff 0B       		.byte	0xb
 1519 0500 3A       		.byte	0x3a
 1520 0501 12050000 		.4byte	0x512
 1521 0505 07       		.uleb128 0x7
 1522 0506 48070000 		.4byte	.LASF81
 1523 050a 0B       		.byte	0xb
 1524 050b 3B       		.byte	0x3b
 1525 050c F3040000 		.4byte	0x4f3
 1526 0510 00       		.byte	0
 1527 0511 00       		.byte	0
ARM GAS  /var/folders/3j/4xdnk5197cv_b7cw3n33qk7r0000gn/T//ccUI6O0C.s 			page 28


 1528 0512 04       		.uleb128 0x4
 1529 0513 DC020000 		.4byte	.LASF80
 1530 0517 0B       		.byte	0xb
 1531 0518 3E       		.byte	0x3e
 1532 0519 F9040000 		.4byte	0x4f9
 1533 051d 04       		.uleb128 0x4
 1534 051e E8020000 		.4byte	.LASF82
 1535 0522 0B       		.byte	0xb
 1536 0523 43       		.byte	0x43
 1537 0524 2D050000 		.4byte	0x52d
 1538 0528 0C       		.uleb128 0xc
 1539 0529 1D050000 		.4byte	0x51d
 1540 052d 0A       		.uleb128 0xa
 1541 052e 04       		.byte	0x4
 1542 052f 33050000 		.4byte	0x533
 1543 0533 0D       		.uleb128 0xd
 1544 0534 3E050000 		.4byte	0x53e
 1545 0538 0E       		.uleb128 0xe
 1546 0539 10010000 		.4byte	0x110
 1547 053d 00       		.byte	0
 1548 053e 10       		.uleb128 0x10
 1549 053f 04       		.byte	0x4
 1550 0540 06       		.byte	0x6
 1551 0541 8F       		.byte	0x8f
 1552 0542 73050000 		.4byte	0x573
 1553 0546 11       		.uleb128 0x11
 1554 0547 66000000 		.4byte	.LASF83
 1555 054b 06       		.byte	0x6
 1556 054c 96       		.byte	0x96
 1557 054d 05010000 		.4byte	0x105
 1558 0551 11       		.uleb128 0x11
 1559 0552 BE000000 		.4byte	.LASF84
 1560 0556 06       		.byte	0x6
 1561 0557 9D       		.byte	0x9d
 1562 0558 05010000 		.4byte	0x105
 1563 055c 11       		.uleb128 0x11
 1564 055d 22070000 		.4byte	.LASF85
 1565 0561 06       		.byte	0x6
 1566 0562 A4       		.byte	0xa4
 1567 0563 A5020000 		.4byte	0x2a5
 1568 0567 11       		.uleb128 0x11
 1569 0568 BB050000 		.4byte	.LASF86
 1570 056c 06       		.byte	0x6
 1571 056d AB       		.byte	0xab
 1572 056e 1B010000 		.4byte	0x11b
 1573 0572 00       		.byte	0
 1574 0573 0A       		.uleb128 0xa
 1575 0574 04       		.byte	0x4
 1576 0575 80050000 		.4byte	0x580
 1577 0579 03       		.uleb128 0x3
 1578 057a 01       		.byte	0x1
 1579 057b 08       		.byte	0x8
 1580 057c 57060000 		.4byte	.LASF87
 1581 0580 0C       		.uleb128 0xc
 1582 0581 79050000 		.4byte	0x579
 1583 0585 0A       		.uleb128 0xa
 1584 0586 04       		.byte	0x4
ARM GAS  /var/folders/3j/4xdnk5197cv_b7cw3n33qk7r0000gn/T//ccUI6O0C.s 			page 29


 1585 0587 A0040000 		.4byte	0x4a0
 1586 058b 09       		.uleb128 0x9
 1587 058c 16       		.byte	0x16
 1588 058d 0C       		.byte	0xc
 1589 058e 25       		.byte	0x25
 1590 058f 6C060000 		.4byte	0x66c
 1591 0593 07       		.uleb128 0x7
 1592 0594 5F030000 		.4byte	.LASF88
 1593 0598 0C       		.byte	0xc
 1594 0599 26       		.byte	0x26
 1595 059a 6C060000 		.4byte	0x66c
 1596 059e 00       		.byte	0
 1597 059f 07       		.uleb128 0x7
 1598 05a0 1B040000 		.4byte	.LASF89
 1599 05a4 0C       		.byte	0xc
 1600 05a5 27       		.byte	0x27
 1601 05a6 97000000 		.4byte	0x97
 1602 05aa 04       		.byte	0x4
 1603 05ab 07       		.uleb128 0x7
 1604 05ac BD040000 		.4byte	.LASF90
 1605 05b0 0C       		.byte	0xc
 1606 05b1 28       		.byte	0x28
 1607 05b2 97000000 		.4byte	0x97
 1608 05b6 05       		.byte	0x5
 1609 05b7 07       		.uleb128 0x7
 1610 05b8 50070000 		.4byte	.LASF91
 1611 05bc 0C       		.byte	0xc
 1612 05bd 29       		.byte	0x29
 1613 05be A2000000 		.4byte	0xa2
 1614 05c2 06       		.byte	0x6
 1615 05c3 07       		.uleb128 0x7
 1616 05c4 1B050000 		.4byte	.LASF92
 1617 05c8 0C       		.byte	0xc
 1618 05c9 2A       		.byte	0x2a
 1619 05ca 97000000 		.4byte	0x97
 1620 05ce 08       		.byte	0x8
 1621 05cf 07       		.uleb128 0x7
 1622 05d0 58040000 		.4byte	.LASF93
 1623 05d4 0C       		.byte	0xc
 1624 05d5 2B       		.byte	0x2b
 1625 05d6 97000000 		.4byte	0x97
 1626 05da 09       		.byte	0x9
 1627 05db 07       		.uleb128 0x7
 1628 05dc B0000000 		.4byte	.LASF94
 1629 05e0 0C       		.byte	0xc
 1630 05e1 2C       		.byte	0x2c
 1631 05e2 97000000 		.4byte	0x97
 1632 05e6 0A       		.byte	0xa
 1633 05e7 07       		.uleb128 0x7
 1634 05e8 2C060000 		.4byte	.LASF95
 1635 05ec 0C       		.byte	0xc
 1636 05ed 2D       		.byte	0x2d
 1637 05ee 97000000 		.4byte	0x97
 1638 05f2 0B       		.byte	0xb
 1639 05f3 07       		.uleb128 0x7
 1640 05f4 D6060000 		.4byte	.LASF96
 1641 05f8 0C       		.byte	0xc
ARM GAS  /var/folders/3j/4xdnk5197cv_b7cw3n33qk7r0000gn/T//ccUI6O0C.s 			page 30


 1642 05f9 2E       		.byte	0x2e
 1643 05fa 97000000 		.4byte	0x97
 1644 05fe 0C       		.byte	0xc
 1645 05ff 07       		.uleb128 0x7
 1646 0600 E7050000 		.4byte	.LASF97
 1647 0604 0C       		.byte	0xc
 1648 0605 2F       		.byte	0x2f
 1649 0606 97000000 		.4byte	0x97
 1650 060a 0D       		.byte	0xd
 1651 060b 07       		.uleb128 0x7
 1652 060c 53000000 		.4byte	.LASF98
 1653 0610 0C       		.byte	0xc
 1654 0611 30       		.byte	0x30
 1655 0612 97000000 		.4byte	0x97
 1656 0616 0E       		.byte	0xe
 1657 0617 07       		.uleb128 0x7
 1658 0618 6F040000 		.4byte	.LASF99
 1659 061c 0C       		.byte	0xc
 1660 061d 31       		.byte	0x31
 1661 061e 97000000 		.4byte	0x97
 1662 0622 0F       		.byte	0xf
 1663 0623 07       		.uleb128 0x7
 1664 0624 17010000 		.4byte	.LASF100
 1665 0628 0C       		.byte	0xc
 1666 0629 32       		.byte	0x32
 1667 062a 97000000 		.4byte	0x97
 1668 062e 10       		.byte	0x10
 1669 062f 07       		.uleb128 0x7
 1670 0630 E7000000 		.4byte	.LASF101
 1671 0634 0C       		.byte	0xc
 1672 0635 34       		.byte	0x34
 1673 0636 97000000 		.4byte	0x97
 1674 063a 11       		.byte	0x11
 1675 063b 07       		.uleb128 0x7
 1676 063c 3B010000 		.4byte	.LASF102
 1677 0640 0C       		.byte	0xc
 1678 0641 35       		.byte	0x35
 1679 0642 97000000 		.4byte	0x97
 1680 0646 12       		.byte	0x12
 1681 0647 07       		.uleb128 0x7
 1682 0648 23040000 		.4byte	.LASF103
 1683 064c 0C       		.byte	0xc
 1684 064d 36       		.byte	0x36
 1685 064e 97000000 		.4byte	0x97
 1686 0652 13       		.byte	0x13
 1687 0653 07       		.uleb128 0x7
 1688 0654 C9050000 		.4byte	.LASF104
 1689 0658 0C       		.byte	0xc
 1690 0659 37       		.byte	0x37
 1691 065a 97000000 		.4byte	0x97
 1692 065e 14       		.byte	0x14
 1693 065f 07       		.uleb128 0x7
 1694 0660 A8050000 		.4byte	.LASF105
 1695 0664 0C       		.byte	0xc
 1696 0665 39       		.byte	0x39
 1697 0666 97000000 		.4byte	0x97
 1698 066a 15       		.byte	0x15
ARM GAS  /var/folders/3j/4xdnk5197cv_b7cw3n33qk7r0000gn/T//ccUI6O0C.s 			page 31


 1699 066b 00       		.byte	0
 1700 066c 12       		.uleb128 0x12
 1701 066d 79050000 		.4byte	0x579
 1702 0671 7C060000 		.4byte	0x67c
 1703 0675 13       		.uleb128 0x13
 1704 0676 2C000000 		.4byte	0x2c
 1705 067a 03       		.byte	0x3
 1706 067b 00       		.byte	0
 1707 067c 04       		.uleb128 0x4
 1708 067d 79020000 		.4byte	.LASF106
 1709 0681 0C       		.byte	0xc
 1710 0682 3A       		.byte	0x3a
 1711 0683 8B050000 		.4byte	0x58b
 1712 0687 0C       		.uleb128 0xc
 1713 0688 7C060000 		.4byte	0x67c
 1714 068c 0F       		.uleb128 0xf
 1715 068d 32030000 		.4byte	.LASF107
 1716 0691 0C       		.byte	0xc
 1717 0692 77       		.byte	0x77
 1718 0693 87060000 		.4byte	0x687
 1719 0697 12       		.uleb128 0x12
 1720 0698 8F020000 		.4byte	0x28f
 1721 069c A7060000 		.4byte	0x6a7
 1722 06a0 13       		.uleb128 0x13
 1723 06a1 2C000000 		.4byte	0x2c
 1724 06a5 26       		.byte	0x26
 1725 06a6 00       		.byte	0
 1726 06a7 0F       		.uleb128 0xf
 1727 06a8 92020000 		.4byte	.LASF108
 1728 06ac 0D       		.byte	0xd
 1729 06ad 82       		.byte	0x82
 1730 06ae 97060000 		.4byte	0x697
 1731 06b2 06       		.uleb128 0x6
 1732 06b3 F4050000 		.4byte	.LASF109
 1733 06b7 10       		.byte	0x10
 1734 06b8 0E       		.byte	0xe
 1735 06b9 3F       		.byte	0x3f
 1736 06ba EF060000 		.4byte	0x6ef
 1737 06be 07       		.uleb128 0x7
 1738 06bf 6D030000 		.4byte	.LASF110
 1739 06c3 0E       		.byte	0xe
 1740 06c4 40       		.byte	0x40
 1741 06c5 73050000 		.4byte	0x573
 1742 06c9 00       		.byte	0
 1743 06ca 07       		.uleb128 0x7
 1744 06cb C5040000 		.4byte	.LASF111
 1745 06cf 0E       		.byte	0xe
 1746 06d0 41       		.byte	0x41
 1747 06d1 F5060000 		.4byte	0x6f5
 1748 06d5 04       		.byte	0x4
 1749 06d6 07       		.uleb128 0x7
 1750 06d7 F4000000 		.4byte	.LASF112
 1751 06db 0E       		.byte	0xe
 1752 06dc 42       		.byte	0x42
 1753 06dd F5060000 		.4byte	0x6f5
 1754 06e1 08       		.byte	0x8
 1755 06e2 07       		.uleb128 0x7
ARM GAS  /var/folders/3j/4xdnk5197cv_b7cw3n33qk7r0000gn/T//ccUI6O0C.s 			page 32


 1756 06e3 2D050000 		.4byte	.LASF113
 1757 06e7 0E       		.byte	0xe
 1758 06e8 43       		.byte	0x43
 1759 06e9 F5060000 		.4byte	0x6f5
 1760 06ed 0C       		.byte	0xc
 1761 06ee 00       		.byte	0
 1762 06ef 0C       		.uleb128 0xc
 1763 06f0 B2060000 		.4byte	0x6b2
 1764 06f4 14       		.uleb128 0x14
 1765 06f5 0A       		.uleb128 0xa
 1766 06f6 04       		.byte	0x4
 1767 06f7 F4060000 		.4byte	0x6f4
 1768 06fb 15       		.uleb128 0x15
 1769 06fc 7805     		.2byte	0x578
 1770 06fe 0E       		.byte	0xe
 1771 06ff 48       		.byte	0x48
 1772 0700 40070000 		.4byte	0x740
 1773 0704 08       		.uleb128 0x8
 1774 0705 543000   		.ascii	"T0\000"
 1775 0708 0E       		.byte	0xe
 1776 0709 49       		.byte	0x49
 1777 070a 40070000 		.4byte	0x740
 1778 070e 00       		.byte	0
 1779 070f 16       		.uleb128 0x16
 1780 0710 543100   		.ascii	"T1\000"
 1781 0713 0E       		.byte	0xe
 1782 0714 4A       		.byte	0x4a
 1783 0715 40070000 		.4byte	0x740
 1784 0719 1801     		.2byte	0x118
 1785 071b 16       		.uleb128 0x16
 1786 071c 543200   		.ascii	"T2\000"
 1787 071f 0E       		.byte	0xe
 1788 0720 4B       		.byte	0x4b
 1789 0721 40070000 		.4byte	0x740
 1790 0725 3002     		.2byte	0x230
 1791 0727 16       		.uleb128 0x16
 1792 0728 543300   		.ascii	"T3\000"
 1793 072b 0E       		.byte	0xe
 1794 072c 4C       		.byte	0x4c
 1795 072d 40070000 		.4byte	0x740
 1796 0731 4803     		.2byte	0x348
 1797 0733 16       		.uleb128 0x16
 1798 0734 543400   		.ascii	"T4\000"
 1799 0737 0E       		.byte	0xe
 1800 0738 4D       		.byte	0x4d
 1801 0739 40070000 		.4byte	0x740
 1802 073d 6004     		.2byte	0x460
 1803 073f 00       		.byte	0
 1804 0740 12       		.uleb128 0x12
 1805 0741 8F020000 		.4byte	0x28f
 1806 0745 50070000 		.4byte	0x750
 1807 0749 13       		.uleb128 0x13
 1808 074a 2C000000 		.4byte	0x2c
 1809 074e 45       		.byte	0x45
 1810 074f 00       		.byte	0
 1811 0750 17       		.uleb128 0x17
 1812 0751 5C060000 		.4byte	.LASF156
ARM GAS  /var/folders/3j/4xdnk5197cv_b7cw3n33qk7r0000gn/T//ccUI6O0C.s 			page 33


 1813 0755 7805     		.2byte	0x578
 1814 0757 0E       		.byte	0xe
 1815 0758 47       		.byte	0x47
 1816 0759 73070000 		.4byte	0x773
 1817 075d 18       		.uleb128 0x18
 1818 075e 776100   		.ascii	"wa\000"
 1819 0761 0E       		.byte	0xe
 1820 0762 4E       		.byte	0x4e
 1821 0763 FB060000 		.4byte	0x6fb
 1822 0767 11       		.uleb128 0x11
 1823 0768 83020000 		.4byte	.LASF114
 1824 076c 0E       		.byte	0xe
 1825 076d 4F       		.byte	0x4f
 1826 076e 73070000 		.4byte	0x773
 1827 0772 00       		.byte	0
 1828 0773 12       		.uleb128 0x12
 1829 0774 97000000 		.4byte	0x97
 1830 0778 84070000 		.4byte	0x784
 1831 077c 19       		.uleb128 0x19
 1832 077d 2C000000 		.4byte	0x2c
 1833 0781 7705     		.2byte	0x577
 1834 0783 00       		.byte	0
 1835 0784 12       		.uleb128 0x12
 1836 0785 5E020000 		.4byte	0x25e
 1837 0789 94070000 		.4byte	0x794
 1838 078d 13       		.uleb128 0x13
 1839 078e 2C000000 		.4byte	0x2c
 1840 0792 04       		.byte	0x4
 1841 0793 00       		.byte	0
 1842 0794 0F       		.uleb128 0xf
 1843 0795 D0030000 		.4byte	.LASF115
 1844 0799 0E       		.byte	0xe
 1845 079a A9       		.byte	0xa9
 1846 079b 84070000 		.4byte	0x784
 1847 079f 0F       		.uleb128 0xf
 1848 07a0 C7000000 		.4byte	.LASF116
 1849 07a4 0E       		.byte	0xe
 1850 07a5 AA       		.byte	0xaa
 1851 07a6 50070000 		.4byte	0x750
 1852 07aa 12       		.uleb128 0x12
 1853 07ab A7020000 		.4byte	0x2a7
 1854 07af B5070000 		.4byte	0x7b5
 1855 07b3 1A       		.uleb128 0x1a
 1856 07b4 00       		.byte	0
 1857 07b5 0C       		.uleb128 0xc
 1858 07b6 AA070000 		.4byte	0x7aa
 1859 07ba 1B       		.uleb128 0x1b
 1860 07bb 776100   		.ascii	"wa\000"
 1861 07be 0E       		.byte	0xe
 1862 07bf AB       		.byte	0xab
 1863 07c0 B5070000 		.4byte	0x7b5
 1864 07c4 0F       		.uleb128 0xf
 1865 07c5 3B030000 		.4byte	.LASF117
 1866 07c9 0E       		.byte	0xe
 1867 07ca AC       		.byte	0xac
 1868 07cb C3000000 		.4byte	0xc3
 1869 07cf 1C       		.uleb128 0x1c
ARM GAS  /var/folders/3j/4xdnk5197cv_b7cw3n33qk7r0000gn/T//ccUI6O0C.s 			page 34


 1870 07d0 65733100 		.ascii	"es1\000"
 1871 07d4 01       		.byte	0x1
 1872 07d5 3F       		.byte	0x3f
 1873 07d6 12050000 		.4byte	0x512
 1874 07da 05       		.uleb128 0x5
 1875 07db 03       		.byte	0x3
 1876 07dc 00000000 		.4byte	es1
 1877 07e0 1C       		.uleb128 0x1c
 1878 07e1 65733200 		.ascii	"es2\000"
 1879 07e5 01       		.byte	0x1
 1880 07e6 40       		.byte	0x40
 1881 07e7 12050000 		.4byte	0x512
 1882 07eb 05       		.uleb128 0x5
 1883 07ec 03       		.byte	0x3
 1884 07ed 00000000 		.4byte	es2
 1885 07f1 12       		.uleb128 0x12
 1886 07f2 28050000 		.4byte	0x528
 1887 07f6 01080000 		.4byte	0x801
 1888 07fa 13       		.uleb128 0x13
 1889 07fb 2C000000 		.4byte	0x2c
 1890 07ff 02       		.byte	0x2
 1891 0800 00       		.byte	0
 1892 0801 0C       		.uleb128 0xc
 1893 0802 F1070000 		.4byte	0x7f1
 1894 0806 1D       		.uleb128 0x1d
 1895 0807 1C060000 		.4byte	.LASF118
 1896 080b 01       		.byte	0x1
 1897 080c 57       		.byte	0x57
 1898 080d 01080000 		.4byte	0x801
 1899 0811 05       		.uleb128 0x5
 1900 0812 03       		.byte	0x3
 1901 0813 00000000 		.4byte	evhndl
 1902 0817 1E       		.uleb128 0x1e
 1903 0818 13060000 		.4byte	.LASF119
 1904 081c 01       		.byte	0x1
 1905 081d 6F       		.byte	0x6f
 1906 081e EF060000 		.4byte	0x6ef
 1907 0822 05       		.uleb128 0x5
 1908 0823 03       		.byte	0x3
 1909 0824 00000000 		.4byte	testevt1
 1910 0828 1E       		.uleb128 0x1e
 1911 0829 51020000 		.4byte	.LASF120
 1912 082d 01       		.byte	0x1
 1913 082e E4       		.byte	0xe4
 1914 082f EF060000 		.4byte	0x6ef
 1915 0833 05       		.uleb128 0x5
 1916 0834 03       		.byte	0x3
 1917 0835 00000000 		.4byte	testevt2
 1918 0839 1F       		.uleb128 0x1f
 1919 083a 67020000 		.4byte	.LASF121
 1920 083e 01       		.byte	0x1
 1921 083f 1401     		.2byte	0x114
 1922 0841 EF060000 		.4byte	0x6ef
 1923 0845 05       		.uleb128 0x5
 1924 0846 03       		.byte	0x3
 1925 0847 00000000 		.4byte	testevt3
 1926 084b 12       		.uleb128 0x12
ARM GAS  /var/folders/3j/4xdnk5197cv_b7cw3n33qk7r0000gn/T//ccUI6O0C.s 			page 35


 1927 084c 66080000 		.4byte	0x866
 1928 0850 5B080000 		.4byte	0x85b
 1929 0854 13       		.uleb128 0x13
 1930 0855 2C000000 		.4byte	0x2c
 1931 0859 03       		.byte	0x3
 1932 085a 00       		.byte	0
 1933 085b 0C       		.uleb128 0xc
 1934 085c 4B080000 		.4byte	0x84b
 1935 0860 0A       		.uleb128 0xa
 1936 0861 04       		.byte	0x4
 1937 0862 EF060000 		.4byte	0x6ef
 1938 0866 0C       		.uleb128 0xc
 1939 0867 60080000 		.4byte	0x860
 1940 086b 1F       		.uleb128 0x1f
 1941 086c 4B030000 		.4byte	.LASF122
 1942 0870 01       		.byte	0x1
 1943 0871 1F01     		.2byte	0x11f
 1944 0873 5B080000 		.4byte	0x85b
 1945 0877 05       		.uleb128 0x5
 1946 0878 03       		.byte	0x3
 1947 0879 00000000 		.4byte	patternevt
 1948 087d 20       		.uleb128 0x20
 1949 087e 6C050000 		.4byte	.LASF123
 1950 0882 01       		.byte	0x1
 1951 0883 0001     		.2byte	0x100
 1952 0885 01       		.byte	0x1
 1953 0886 95080000 		.4byte	0x895
 1954 088a 21       		.uleb128 0x21
 1955 088b 6D00     		.ascii	"m\000"
 1956 088d 01       		.byte	0x1
 1957 088e 0101     		.2byte	0x101
 1958 0890 1B010000 		.4byte	0x11b
 1959 0894 00       		.byte	0
 1960 0895 22       		.uleb128 0x22
 1961 0896 64040000 		.4byte	.LASF128
 1962 089a 01       		.byte	0x1
 1963 089b FB       		.byte	0xfb
 1964 089c 23       		.uleb128 0x23
 1965 089d 9D040000 		.4byte	.LASF124
 1966 08a1 01       		.byte	0x1
 1967 08a2 99       		.byte	0x99
 1968 08a3 01       		.byte	0x1
 1969 08a4 D3080000 		.4byte	0x8d3
 1970 08a8 24       		.uleb128 0x24
 1971 08a9 6D00     		.ascii	"m\000"
 1972 08ab 01       		.byte	0x1
 1973 08ac 9A       		.byte	0x9a
 1974 08ad 1B010000 		.4byte	0x11b
 1975 08b1 24       		.uleb128 0x24
 1976 08b2 656C3100 		.ascii	"el1\000"
 1977 08b6 01       		.byte	0x1
 1978 08b7 9B       		.byte	0x9b
 1979 08b8 AB040000 		.4byte	0x4ab
 1980 08bc 24       		.uleb128 0x24
 1981 08bd 656C3200 		.ascii	"el2\000"
 1982 08c1 01       		.byte	0x1
 1983 08c2 9B       		.byte	0x9b
ARM GAS  /var/folders/3j/4xdnk5197cv_b7cw3n33qk7r0000gn/T//ccUI6O0C.s 			page 36


 1984 08c3 AB040000 		.4byte	0x4ab
 1985 08c7 25       		.uleb128 0x25
 1986 08c8 23020000 		.4byte	.LASF125
 1987 08cc 01       		.byte	0x1
 1988 08cd 9C       		.byte	0x9c
 1989 08ce 31010000 		.4byte	0x131
 1990 08d2 00       		.byte	0
 1991 08d3 26       		.uleb128 0x26
 1992 08d4 74060000 		.4byte	.LASF126
 1993 08d8 01       		.byte	0x1
 1994 08d9 90       		.byte	0x90
 1995 08da 05010000 		.4byte	0x105
 1996 08de 00000000 		.4byte	.LFB14
 1997 08e2 34000000 		.4byte	.LFE14-.LFB14
 1998 08e6 01       		.uleb128 0x1
 1999 08e7 9C       		.byte	0x9c
 2000 08e8 42090000 		.4byte	0x942
 2001 08ec 27       		.uleb128 0x27
 2002 08ed 7000     		.ascii	"p\000"
 2003 08ef 01       		.byte	0x1
 2004 08f0 90       		.byte	0x90
 2005 08f1 A5020000 		.4byte	0x2a5
 2006 08f5 00000000 		.4byte	.LLST3
 2007 08f9 28       		.uleb128 0x28
 2008 08fa 10000000 		.4byte	.LVL21
 2009 08fe 4D100000 		.4byte	0x104d
 2010 0902 15090000 		.4byte	0x915
 2011 0906 29       		.uleb128 0x29
 2012 0907 01       		.uleb128 0x1
 2013 0908 50       		.byte	0x50
 2014 0909 05       		.uleb128 0x5
 2015 090a 03       		.byte	0x3
 2016 090b 00000000 		.4byte	.LANCHOR0
 2017 090f 29       		.uleb128 0x29
 2018 0910 01       		.uleb128 0x1
 2019 0911 51       		.byte	0x51
 2020 0912 01       		.uleb128 0x1
 2021 0913 30       		.byte	0x30
 2022 0914 00       		.byte	0
 2023 0915 28       		.uleb128 0x28
 2024 0916 18000000 		.4byte	.LVL22
 2025 091a 58100000 		.4byte	0x1058
 2026 091e 29090000 		.4byte	0x929
 2027 0922 29       		.uleb128 0x29
 2028 0923 01       		.uleb128 0x1
 2029 0924 50       		.byte	0x50
 2030 0925 02       		.uleb128 0x2
 2031 0926 08       		.byte	0x8
 2032 0927 32       		.byte	0x32
 2033 0928 00       		.byte	0
 2034 0929 2A       		.uleb128 0x2a
 2035 092a 24000000 		.4byte	.LVL23
 2036 092e 4D100000 		.4byte	0x104d
 2037 0932 29       		.uleb128 0x29
 2038 0933 01       		.uleb128 0x1
 2039 0934 50       		.byte	0x50
 2040 0935 05       		.uleb128 0x5
ARM GAS  /var/folders/3j/4xdnk5197cv_b7cw3n33qk7r0000gn/T//ccUI6O0C.s 			page 37


 2041 0936 03       		.byte	0x3
 2042 0937 00000000 		.4byte	.LANCHOR2
 2043 093b 29       		.uleb128 0x29
 2044 093c 01       		.uleb128 0x1
 2045 093d 51       		.byte	0x51
 2046 093e 01       		.uleb128 0x1
 2047 093f 30       		.byte	0x30
 2048 0940 00       		.byte	0
 2049 0941 00       		.byte	0
 2050 0942 26       		.uleb128 0x26
 2051 0943 95040000 		.4byte	.LASF127
 2052 0947 01       		.byte	0x1
 2053 0948 89       		.byte	0x89
 2054 0949 05010000 		.4byte	0x105
 2055 094d 00000000 		.4byte	.LFB13
 2056 0951 24000000 		.4byte	.LFE13-.LFB13
 2057 0955 01       		.uleb128 0x1
 2058 0956 9C       		.byte	0x9c
 2059 0957 92090000 		.4byte	0x992
 2060 095b 27       		.uleb128 0x27
 2061 095c 7000     		.ascii	"p\000"
 2062 095e 01       		.byte	0x1
 2063 095f 89       		.byte	0x89
 2064 0960 A5020000 		.4byte	0x2a5
 2065 0964 21000000 		.4byte	.LLST4
 2066 0968 28       		.uleb128 0x28
 2067 0969 10000000 		.4byte	.LVL26
 2068 096d 58100000 		.4byte	0x1058
 2069 0971 7C090000 		.4byte	0x97c
 2070 0975 29       		.uleb128 0x29
 2071 0976 01       		.uleb128 0x1
 2072 0977 50       		.byte	0x50
 2073 0978 02       		.uleb128 0x2
 2074 0979 08       		.byte	0x8
 2075 097a 32       		.byte	0x32
 2076 097b 00       		.byte	0
 2077 097c 2A       		.uleb128 0x2a
 2078 097d 1C000000 		.4byte	.LVL27
 2079 0981 64100000 		.4byte	0x1064
 2080 0985 29       		.uleb128 0x29
 2081 0986 01       		.uleb128 0x1
 2082 0987 50       		.byte	0x50
 2083 0988 02       		.uleb128 0x2
 2084 0989 74       		.byte	0x74
 2085 098a 00       		.sleb128 0
 2086 098b 29       		.uleb128 0x29
 2087 098c 01       		.uleb128 0x1
 2088 098d 51       		.byte	0x51
 2089 098e 01       		.uleb128 0x1
 2090 098f 31       		.byte	0x31
 2091 0990 00       		.byte	0
 2092 0991 00       		.byte	0
 2093 0992 22       		.uleb128 0x22
 2094 0993 08050000 		.4byte	.LASF129
 2095 0997 01       		.byte	0x1
 2096 0998 84       		.byte	0x84
 2097 0999 2B       		.uleb128 0x2b
ARM GAS  /var/folders/3j/4xdnk5197cv_b7cw3n33qk7r0000gn/T//ccUI6O0C.s 			page 38


 2098 099a 79070000 		.4byte	.LASF130
 2099 099e 01       		.byte	0x1
 2100 099f 59       		.byte	0x59
 2101 09a0 00000000 		.4byte	.LFB11
 2102 09a4 D0000000 		.4byte	.LFE11-.LFB11
 2103 09a8 01       		.uleb128 0x1
 2104 09a9 9C       		.byte	0x9c
 2105 09aa AA0A0000 		.4byte	0xaaa
 2106 09ae 1C       		.uleb128 0x1c
 2107 09af 656C3100 		.ascii	"el1\000"
 2108 09b3 01       		.byte	0x1
 2109 09b4 5A       		.byte	0x5a
 2110 09b5 AB040000 		.4byte	0x4ab
 2111 09b9 02       		.uleb128 0x2
 2112 09ba 91       		.byte	0x91
 2113 09bb 58       		.sleb128 -40
 2114 09bc 1C       		.uleb128 0x1c
 2115 09bd 656C3200 		.ascii	"el2\000"
 2116 09c1 01       		.byte	0x1
 2117 09c2 5A       		.byte	0x5a
 2118 09c3 AB040000 		.4byte	0x4ab
 2119 09c7 02       		.uleb128 0x2
 2120 09c8 91       		.byte	0x91
 2121 09c9 68       		.sleb128 -24
 2122 09ca 28       		.uleb128 0x28
 2123 09cb 20000000 		.4byte	.LVL0
 2124 09cf 6F100000 		.4byte	0x106f
 2125 09d3 E9090000 		.4byte	0x9e9
 2126 09d7 29       		.uleb128 0x29
 2127 09d8 01       		.uleb128 0x1
 2128 09d9 50       		.byte	0x50
 2129 09da 02       		.uleb128 0x2
 2130 09db 74       		.byte	0x74
 2131 09dc 00       		.sleb128 0
 2132 09dd 29       		.uleb128 0x29
 2133 09de 01       		.uleb128 0x1
 2134 09df 51       		.byte	0x51
 2135 09e0 02       		.uleb128 0x2
 2136 09e1 7D       		.byte	0x7d
 2137 09e2 00       		.sleb128 0
 2138 09e3 29       		.uleb128 0x29
 2139 09e4 01       		.uleb128 0x1
 2140 09e5 52       		.byte	0x52
 2141 09e6 01       		.uleb128 0x1
 2142 09e7 31       		.byte	0x31
 2143 09e8 00       		.byte	0
 2144 09e9 28       		.uleb128 0x28
 2145 09ea 30000000 		.4byte	.LVL1
 2146 09ee 6F100000 		.4byte	0x106f
 2147 09f2 080A0000 		.4byte	0xa08
 2148 09f6 29       		.uleb128 0x29
 2149 09f7 01       		.uleb128 0x1
 2150 09f8 50       		.byte	0x50
 2151 09f9 02       		.uleb128 0x2
 2152 09fa 74       		.byte	0x74
 2153 09fb 00       		.sleb128 0
 2154 09fc 29       		.uleb128 0x29
ARM GAS  /var/folders/3j/4xdnk5197cv_b7cw3n33qk7r0000gn/T//ccUI6O0C.s 			page 39


 2155 09fd 01       		.uleb128 0x1
 2156 09fe 51       		.byte	0x51
 2157 09ff 02       		.uleb128 0x2
 2158 0a00 91       		.byte	0x91
 2159 0a01 60       		.sleb128 -32
 2160 0a02 29       		.uleb128 0x29
 2161 0a03 01       		.uleb128 0x1
 2162 0a04 52       		.byte	0x52
 2163 0a05 01       		.uleb128 0x1
 2164 0a06 32       		.byte	0x32
 2165 0a07 00       		.byte	0
 2166 0a08 28       		.uleb128 0x28
 2167 0a09 44000000 		.4byte	.LVL2
 2168 0a0d 7A100000 		.4byte	0x107a
 2169 0a11 1B0A0000 		.4byte	0xa1b
 2170 0a15 29       		.uleb128 0x29
 2171 0a16 01       		.uleb128 0x1
 2172 0a17 50       		.byte	0x50
 2173 0a18 01       		.uleb128 0x1
 2174 0a19 31       		.byte	0x31
 2175 0a1a 00       		.byte	0
 2176 0a1b 28       		.uleb128 0x28
 2177 0a1c 60000000 		.4byte	.LVL3
 2178 0a20 85100000 		.4byte	0x1085
 2179 0a24 350A0000 		.4byte	0xa35
 2180 0a28 29       		.uleb128 0x29
 2181 0a29 01       		.uleb128 0x1
 2182 0a2a 50       		.byte	0x50
 2183 0a2b 02       		.uleb128 0x2
 2184 0a2c 74       		.byte	0x74
 2185 0a2d 00       		.sleb128 0
 2186 0a2e 29       		.uleb128 0x29
 2187 0a2f 01       		.uleb128 0x1
 2188 0a30 51       		.byte	0x51
 2189 0a31 02       		.uleb128 0x2
 2190 0a32 7D       		.byte	0x7d
 2191 0a33 00       		.sleb128 0
 2192 0a34 00       		.byte	0
 2193 0a35 28       		.uleb128 0x28
 2194 0a36 74000000 		.4byte	.LVL4
 2195 0a3a 7A100000 		.4byte	0x107a
 2196 0a3e 480A0000 		.4byte	0xa48
 2197 0a42 29       		.uleb128 0x29
 2198 0a43 01       		.uleb128 0x1
 2199 0a44 50       		.byte	0x50
 2200 0a45 01       		.uleb128 0x1
 2201 0a46 32       		.byte	0x32
 2202 0a47 00       		.byte	0
 2203 0a48 28       		.uleb128 0x28
 2204 0a49 88000000 		.4byte	.LVL5
 2205 0a4d 85100000 		.4byte	0x1085
 2206 0a51 620A0000 		.4byte	0xa62
 2207 0a55 29       		.uleb128 0x29
 2208 0a56 01       		.uleb128 0x1
 2209 0a57 50       		.byte	0x50
 2210 0a58 02       		.uleb128 0x2
 2211 0a59 74       		.byte	0x74
ARM GAS  /var/folders/3j/4xdnk5197cv_b7cw3n33qk7r0000gn/T//ccUI6O0C.s 			page 40


 2212 0a5a 00       		.sleb128 0
 2213 0a5b 29       		.uleb128 0x29
 2214 0a5c 01       		.uleb128 0x1
 2215 0a5d 51       		.byte	0x51
 2216 0a5e 02       		.uleb128 0x2
 2217 0a5f 91       		.byte	0x91
 2218 0a60 60       		.sleb128 -32
 2219 0a61 00       		.byte	0
 2220 0a62 28       		.uleb128 0x28
 2221 0a63 A0000000 		.4byte	.LVL6
 2222 0a67 7A100000 		.4byte	0x107a
 2223 0a6b 750A0000 		.4byte	0xa75
 2224 0a6f 29       		.uleb128 0x29
 2225 0a70 01       		.uleb128 0x1
 2226 0a71 50       		.byte	0x50
 2227 0a72 01       		.uleb128 0x1
 2228 0a73 33       		.byte	0x33
 2229 0a74 00       		.byte	0
 2230 0a75 28       		.uleb128 0x28
 2231 0a76 B4000000 		.4byte	.LVL7
 2232 0a7a 90100000 		.4byte	0x1090
 2233 0a7e 910A0000 		.4byte	0xa91
 2234 0a82 29       		.uleb128 0x29
 2235 0a83 01       		.uleb128 0x1
 2236 0a84 50       		.byte	0x50
 2237 0a85 05       		.uleb128 0x5
 2238 0a86 03       		.byte	0x3
 2239 0a87 00000000 		.4byte	.LANCHOR1
 2240 0a8b 29       		.uleb128 0x29
 2241 0a8c 01       		.uleb128 0x1
 2242 0a8d 51       		.byte	0x51
 2243 0a8e 01       		.uleb128 0x1
 2244 0a8f 37       		.byte	0x37
 2245 0a90 00       		.byte	0
 2246 0a91 2A       		.uleb128 0x2a
 2247 0a92 C0000000 		.4byte	.LVL8
 2248 0a96 9B100000 		.4byte	0x109b
 2249 0a9a 29       		.uleb128 0x29
 2250 0a9b 01       		.uleb128 0x1
 2251 0a9c 50       		.byte	0x50
 2252 0a9d 01       		.uleb128 0x1
 2253 0a9e 34       		.byte	0x34
 2254 0a9f 29       		.uleb128 0x29
 2255 0aa0 01       		.uleb128 0x1
 2256 0aa1 51       		.byte	0x51
 2257 0aa2 05       		.uleb128 0x5
 2258 0aa3 03       		.byte	0x3
 2259 0aa4 00000000 		.4byte	.LC0
 2260 0aa8 00       		.byte	0
 2261 0aa9 00       		.byte	0
 2262 0aaa 2C       		.uleb128 0x2c
 2263 0aab 683300   		.ascii	"h3\000"
 2264 0aae 01       		.byte	0x1
 2265 0aaf 56       		.byte	0x56
 2266 0ab0 00000000 		.4byte	.LFB10
 2267 0ab4 08000000 		.4byte	.LFE10-.LFB10
 2268 0ab8 01       		.uleb128 0x1
ARM GAS  /var/folders/3j/4xdnk5197cv_b7cw3n33qk7r0000gn/T//ccUI6O0C.s 			page 41


 2269 0ab9 9C       		.byte	0x9c
 2270 0aba DD0A0000 		.4byte	0xadd
 2271 0abe 27       		.uleb128 0x27
 2272 0abf 696400   		.ascii	"id\000"
 2273 0ac2 01       		.byte	0x1
 2274 0ac3 56       		.byte	0x56
 2275 0ac4 10010000 		.4byte	0x110
 2276 0ac8 3F000000 		.4byte	.LLST0
 2277 0acc 2D       		.uleb128 0x2d
 2278 0acd 08000000 		.4byte	.LVL11
 2279 0ad1 A6100000 		.4byte	0x10a6
 2280 0ad5 29       		.uleb128 0x29
 2281 0ad6 01       		.uleb128 0x1
 2282 0ad7 50       		.byte	0x50
 2283 0ad8 02       		.uleb128 0x2
 2284 0ad9 08       		.byte	0x8
 2285 0ada 43       		.byte	0x43
 2286 0adb 00       		.byte	0
 2287 0adc 00       		.byte	0
 2288 0add 2C       		.uleb128 0x2c
 2289 0ade 683200   		.ascii	"h2\000"
 2290 0ae1 01       		.byte	0x1
 2291 0ae2 55       		.byte	0x55
 2292 0ae3 00000000 		.4byte	.LFB9
 2293 0ae7 08000000 		.4byte	.LFE9-.LFB9
 2294 0aeb 01       		.uleb128 0x1
 2295 0aec 9C       		.byte	0x9c
 2296 0aed 100B0000 		.4byte	0xb10
 2297 0af1 27       		.uleb128 0x27
 2298 0af2 696400   		.ascii	"id\000"
 2299 0af5 01       		.byte	0x1
 2300 0af6 55       		.byte	0x55
 2301 0af7 10010000 		.4byte	0x110
 2302 0afb 60000000 		.4byte	.LLST1
 2303 0aff 2D       		.uleb128 0x2d
 2304 0b00 08000000 		.4byte	.LVL14
 2305 0b04 A6100000 		.4byte	0x10a6
 2306 0b08 29       		.uleb128 0x29
 2307 0b09 01       		.uleb128 0x1
 2308 0b0a 50       		.byte	0x50
 2309 0b0b 02       		.uleb128 0x2
 2310 0b0c 08       		.byte	0x8
 2311 0b0d 42       		.byte	0x42
 2312 0b0e 00       		.byte	0
 2313 0b0f 00       		.byte	0
 2314 0b10 2C       		.uleb128 0x2c
 2315 0b11 683100   		.ascii	"h1\000"
 2316 0b14 01       		.byte	0x1
 2317 0b15 54       		.byte	0x54
 2318 0b16 00000000 		.4byte	.LFB8
 2319 0b1a 08000000 		.4byte	.LFE8-.LFB8
 2320 0b1e 01       		.uleb128 0x1
 2321 0b1f 9C       		.byte	0x9c
 2322 0b20 430B0000 		.4byte	0xb43
 2323 0b24 27       		.uleb128 0x27
 2324 0b25 696400   		.ascii	"id\000"
 2325 0b28 01       		.byte	0x1
ARM GAS  /var/folders/3j/4xdnk5197cv_b7cw3n33qk7r0000gn/T//ccUI6O0C.s 			page 42


 2326 0b29 54       		.byte	0x54
 2327 0b2a 10010000 		.4byte	0x110
 2328 0b2e 81000000 		.4byte	.LLST2
 2329 0b32 2D       		.uleb128 0x2d
 2330 0b33 08000000 		.4byte	.LVL17
 2331 0b37 A6100000 		.4byte	0x10a6
 2332 0b3b 29       		.uleb128 0x29
 2333 0b3c 01       		.uleb128 0x1
 2334 0b3d 50       		.byte	0x50
 2335 0b3e 02       		.uleb128 0x2
 2336 0b3f 08       		.byte	0x8
 2337 0b40 41       		.byte	0x41
 2338 0b41 00       		.byte	0
 2339 0b42 00       		.byte	0
 2340 0b43 2B       		.uleb128 0x2b
 2341 0b44 37040000 		.4byte	.LASF131
 2342 0b48 01       		.byte	0x1
 2343 0b49 4F       		.byte	0x4f
 2344 0b4a 00000000 		.4byte	.LFB7
 2345 0b4e 08000000 		.4byte	.LFE7-.LFB7
 2346 0b52 01       		.uleb128 0x1
 2347 0b53 9C       		.byte	0x9c
 2348 0b54 690B0000 		.4byte	0xb69
 2349 0b58 2D       		.uleb128 0x2d
 2350 0b59 08000000 		.4byte	.LVL18
 2351 0b5d B1100000 		.4byte	0x10b1
 2352 0b61 29       		.uleb128 0x29
 2353 0b62 01       		.uleb128 0x1
 2354 0b63 50       		.byte	0x50
 2355 0b64 02       		.uleb128 0x2
 2356 0b65 09       		.byte	0x9
 2357 0b66 FF       		.byte	0xff
 2358 0b67 00       		.byte	0
 2359 0b68 00       		.byte	0
 2360 0b69 2E       		.uleb128 0x2e
 2361 0b6a 9C080000 		.4byte	0x89c
 2362 0b6e 00000000 		.4byte	.LFB15
 2363 0b72 1C030000 		.4byte	.LFE15-.LFB15
 2364 0b76 01       		.uleb128 0x1
 2365 0b77 9C       		.byte	0x9c
 2366 0b78 2B0F0000 		.4byte	0xf2b
 2367 0b7c 2F       		.uleb128 0x2f
 2368 0b7d A8080000 		.4byte	0x8a8
 2369 0b81 A2000000 		.4byte	.LLST5
 2370 0b85 30       		.uleb128 0x30
 2371 0b86 B1080000 		.4byte	0x8b1
 2372 0b8a 30       		.uleb128 0x30
 2373 0b8b BC080000 		.4byte	0x8bc
 2374 0b8f 30       		.uleb128 0x30
 2375 0b90 C7080000 		.4byte	0x8c7
 2376 0b94 31       		.uleb128 0x31
 2377 0b95 80000000 		.4byte	.LBB5
 2378 0b99 9C020000 		.4byte	.LBE5-.LBB5
 2379 0b9d A60E0000 		.4byte	0xea6
 2380 0ba1 30       		.uleb128 0x30
 2381 0ba2 7C0B0000 		.4byte	0xb7c
 2382 0ba6 32       		.uleb128 0x32
ARM GAS  /var/folders/3j/4xdnk5197cv_b7cw3n33qk7r0000gn/T//ccUI6O0C.s 			page 43


 2383 0ba7 850B0000 		.4byte	0xb85
 2384 0bab 02       		.uleb128 0x2
 2385 0bac 91       		.byte	0x91
 2386 0bad 40       		.sleb128 -64
 2387 0bae 32       		.uleb128 0x32
 2388 0baf 8A0B0000 		.4byte	0xb8a
 2389 0bb3 02       		.uleb128 0x2
 2390 0bb4 91       		.byte	0x91
 2391 0bb5 50       		.sleb128 -48
 2392 0bb6 2F       		.uleb128 0x2f
 2393 0bb7 8F0B0000 		.4byte	0xb8f
 2394 0bbb CB000000 		.4byte	.LLST6
 2395 0bbf 33       		.uleb128 0x33
 2396 0bc0 88000000 		.4byte	.LVL38
 2397 0bc4 BC100000 		.4byte	0x10bc
 2398 0bc8 28       		.uleb128 0x28
 2399 0bc9 B8000000 		.4byte	.LVL40
 2400 0bcd C7100000 		.4byte	0x10c7
 2401 0bd1 EC0B0000 		.4byte	0xbec
 2402 0bd5 29       		.uleb128 0x29
 2403 0bd6 01       		.uleb128 0x1
 2404 0bd7 50       		.byte	0x50
 2405 0bd8 02       		.uleb128 0x2
 2406 0bd9 77       		.byte	0x77
 2407 0bda 00       		.sleb128 0
 2408 0bdb 29       		.uleb128 0x29
 2409 0bdc 01       		.uleb128 0x1
 2410 0bdd 51       		.byte	0x51
 2411 0bde 03       		.uleb128 0x3
 2412 0bdf 0A       		.byte	0xa
 2413 0be0 1801     		.2byte	0x118
 2414 0be2 29       		.uleb128 0x29
 2415 0be3 01       		.uleb128 0x1
 2416 0be4 53       		.byte	0x53
 2417 0be5 05       		.uleb128 0x5
 2418 0be6 03       		.byte	0x3
 2419 0be7 00000000 		.4byte	thread1
 2420 0beb 00       		.byte	0
 2421 0bec 28       		.uleb128 0x28
 2422 0bed C8000000 		.4byte	.LVL41
 2423 0bf1 D3100000 		.4byte	0x10d3
 2424 0bf5 000C0000 		.4byte	0xc00
 2425 0bf9 29       		.uleb128 0x29
 2426 0bfa 01       		.uleb128 0x1
 2427 0bfb 50       		.byte	0x50
 2428 0bfc 02       		.uleb128 0x2
 2429 0bfd 09       		.byte	0x9
 2430 0bfe FF       		.byte	0xff
 2431 0bff 00       		.byte	0
 2432 0c00 28       		.uleb128 0x28
 2433 0c01 DC000000 		.4byte	.LVL45
 2434 0c05 DE100000 		.4byte	0x10de
 2435 0c09 1F0C0000 		.4byte	0xc1f
 2436 0c0d 29       		.uleb128 0x29
 2437 0c0e 01       		.uleb128 0x1
 2438 0c0f 50       		.byte	0x50
 2439 0c10 01       		.uleb128 0x1
ARM GAS  /var/folders/3j/4xdnk5197cv_b7cw3n33qk7r0000gn/T//ccUI6O0C.s 			page 44


 2440 0c11 34       		.byte	0x34
 2441 0c12 29       		.uleb128 0x29
 2442 0c13 01       		.uleb128 0x1
 2443 0c14 51       		.byte	0x51
 2444 0c15 02       		.uleb128 0x2
 2445 0c16 74       		.byte	0x74
 2446 0c17 32       		.sleb128 50
 2447 0c18 29       		.uleb128 0x29
 2448 0c19 01       		.uleb128 0x1
 2449 0c1a 52       		.byte	0x52
 2450 0c1b 02       		.uleb128 0x2
 2451 0c1c 74       		.byte	0x74
 2452 0c1d 37       		.sleb128 55
 2453 0c1e 00       		.byte	0
 2454 0c1f 28       		.uleb128 0x28
 2455 0c20 F8000000 		.4byte	.LVL46
 2456 0c24 7A100000 		.4byte	0x107a
 2457 0c28 3A0C0000 		.4byte	0xc3a
 2458 0c2c 29       		.uleb128 0x29
 2459 0c2d 01       		.uleb128 0x1
 2460 0c2e 50       		.byte	0x50
 2461 0c2f 01       		.uleb128 0x1
 2462 0c30 35       		.byte	0x35
 2463 0c31 29       		.uleb128 0x29
 2464 0c32 01       		.uleb128 0x1
 2465 0c33 51       		.byte	0x51
 2466 0c34 04       		.uleb128 0x4
 2467 0c35 79       		.byte	0x79
 2468 0c36 00       		.sleb128 0
 2469 0c37 31       		.byte	0x31
 2470 0c38 29       		.byte	0x29
 2471 0c39 00       		.byte	0
 2472 0c3a 28       		.uleb128 0x28
 2473 0c3b 08010000 		.4byte	.LVL47
 2474 0c3f B1100000 		.4byte	0x10b1
 2475 0c43 4E0C0000 		.4byte	0xc4e
 2476 0c47 29       		.uleb128 0x29
 2477 0c48 01       		.uleb128 0x1
 2478 0c49 50       		.byte	0x50
 2479 0c4a 02       		.uleb128 0x2
 2480 0c4b 09       		.byte	0x9
 2481 0c4c FF       		.byte	0xff
 2482 0c4d 00       		.byte	0
 2483 0c4e 28       		.uleb128 0x28
 2484 0c4f 18010000 		.4byte	.LVL49
 2485 0c53 7A100000 		.4byte	0x107a
 2486 0c57 610C0000 		.4byte	0xc61
 2487 0c5b 29       		.uleb128 0x29
 2488 0c5c 01       		.uleb128 0x1
 2489 0c5d 50       		.byte	0x50
 2490 0c5e 01       		.uleb128 0x1
 2491 0c5f 36       		.byte	0x36
 2492 0c60 00       		.byte	0
 2493 0c61 33       		.uleb128 0x33
 2494 0c62 24010000 		.4byte	.LVL50
 2495 0c66 E9100000 		.4byte	0x10e9
 2496 0c6a 28       		.uleb128 0x28
ARM GAS  /var/folders/3j/4xdnk5197cv_b7cw3n33qk7r0000gn/T//ccUI6O0C.s 			page 45


 2497 0c6b 2C010000 		.4byte	.LVL51
 2498 0c6f F4100000 		.4byte	0x10f4
 2499 0c73 7D0C0000 		.4byte	0xc7d
 2500 0c77 29       		.uleb128 0x29
 2501 0c78 01       		.uleb128 0x1
 2502 0c79 50       		.byte	0x50
 2503 0c7a 01       		.uleb128 0x1
 2504 0c7b 35       		.byte	0x35
 2505 0c7c 00       		.byte	0
 2506 0c7d 28       		.uleb128 0x28
 2507 0c7e 34010000 		.4byte	.LVL52
 2508 0c82 FF100000 		.4byte	0x10ff
 2509 0c86 910C0000 		.4byte	0xc91
 2510 0c8a 29       		.uleb128 0x29
 2511 0c8b 01       		.uleb128 0x1
 2512 0c8c 50       		.byte	0x50
 2513 0c8d 02       		.uleb128 0x2
 2514 0c8e 09       		.byte	0x9
 2515 0c8f FF       		.byte	0xff
 2516 0c90 00       		.byte	0
 2517 0c91 28       		.uleb128 0x28
 2518 0c92 48010000 		.4byte	.LVL54
 2519 0c96 7A100000 		.4byte	0x107a
 2520 0c9a A40C0000 		.4byte	0xca4
 2521 0c9e 29       		.uleb128 0x29
 2522 0c9f 01       		.uleb128 0x1
 2523 0ca0 50       		.byte	0x50
 2524 0ca1 01       		.uleb128 0x1
 2525 0ca2 37       		.byte	0x37
 2526 0ca3 00       		.byte	0
 2527 0ca4 28       		.uleb128 0x28
 2528 0ca5 58010000 		.4byte	.LVL55
 2529 0ca9 B1100000 		.4byte	0x10b1
 2530 0cad B80C0000 		.4byte	0xcb8
 2531 0cb1 29       		.uleb128 0x29
 2532 0cb2 01       		.uleb128 0x1
 2533 0cb3 50       		.byte	0x50
 2534 0cb4 02       		.uleb128 0x2
 2535 0cb5 09       		.byte	0x9
 2536 0cb6 FF       		.byte	0xff
 2537 0cb7 00       		.byte	0
 2538 0cb8 28       		.uleb128 0x28
 2539 0cb9 68010000 		.4byte	.LVL57
 2540 0cbd 7A100000 		.4byte	0x107a
 2541 0cc1 CB0C0000 		.4byte	0xccb
 2542 0cc5 29       		.uleb128 0x29
 2543 0cc6 01       		.uleb128 0x1
 2544 0cc7 50       		.byte	0x50
 2545 0cc8 01       		.uleb128 0x1
 2546 0cc9 38       		.byte	0x38
 2547 0cca 00       		.byte	0
 2548 0ccb 33       		.uleb128 0x33
 2549 0ccc 74010000 		.4byte	.LVL58
 2550 0cd0 BC100000 		.4byte	0x10bc
 2551 0cd4 28       		.uleb128 0x28
 2552 0cd5 98010000 		.4byte	.LVL60
 2553 0cd9 C7100000 		.4byte	0x10c7
ARM GAS  /var/folders/3j/4xdnk5197cv_b7cw3n33qk7r0000gn/T//ccUI6O0C.s 			page 46


 2554 0cdd F80C0000 		.4byte	0xcf8
 2555 0ce1 29       		.uleb128 0x29
 2556 0ce2 01       		.uleb128 0x1
 2557 0ce3 50       		.byte	0x50
 2558 0ce4 02       		.uleb128 0x2
 2559 0ce5 77       		.byte	0x77
 2560 0ce6 00       		.sleb128 0
 2561 0ce7 29       		.uleb128 0x29
 2562 0ce8 01       		.uleb128 0x1
 2563 0ce9 51       		.byte	0x51
 2564 0cea 03       		.uleb128 0x3
 2565 0ceb 0A       		.byte	0xa
 2566 0cec 1801     		.2byte	0x118
 2567 0cee 29       		.uleb128 0x29
 2568 0cef 01       		.uleb128 0x1
 2569 0cf0 53       		.byte	0x53
 2570 0cf1 05       		.uleb128 0x5
 2571 0cf2 03       		.byte	0x3
 2572 0cf3 00000000 		.4byte	thread1
 2573 0cf7 00       		.byte	0
 2574 0cf8 28       		.uleb128 0x28
 2575 0cf9 A4010000 		.4byte	.LVL61
 2576 0cfd FF100000 		.4byte	0x10ff
 2577 0d01 0C0D0000 		.4byte	0xd0c
 2578 0d05 29       		.uleb128 0x29
 2579 0d06 01       		.uleb128 0x1
 2580 0d07 50       		.byte	0x50
 2581 0d08 02       		.uleb128 0x2
 2582 0d09 09       		.byte	0x9
 2583 0d0a FF       		.byte	0xff
 2584 0d0b 00       		.byte	0
 2585 0d0c 28       		.uleb128 0x28
 2586 0d0d B8010000 		.4byte	.LVL65
 2587 0d11 DE100000 		.4byte	0x10de
 2588 0d15 2B0D0000 		.4byte	0xd2b
 2589 0d19 29       		.uleb128 0x29
 2590 0d1a 01       		.uleb128 0x1
 2591 0d1b 50       		.byte	0x50
 2592 0d1c 01       		.uleb128 0x1
 2593 0d1d 39       		.byte	0x39
 2594 0d1e 29       		.uleb128 0x29
 2595 0d1f 01       		.uleb128 0x1
 2596 0d20 51       		.byte	0x51
 2597 0d21 02       		.uleb128 0x2
 2598 0d22 74       		.byte	0x74
 2599 0d23 32       		.sleb128 50
 2600 0d24 29       		.uleb128 0x29
 2601 0d25 01       		.uleb128 0x1
 2602 0d26 52       		.byte	0x52
 2603 0d27 02       		.uleb128 0x2
 2604 0d28 74       		.byte	0x74
 2605 0d29 37       		.sleb128 55
 2606 0d2a 00       		.byte	0
 2607 0d2b 28       		.uleb128 0x28
 2608 0d2c D4010000 		.4byte	.LVL66
 2609 0d30 7A100000 		.4byte	0x107a
 2610 0d34 460D0000 		.4byte	0xd46
ARM GAS  /var/folders/3j/4xdnk5197cv_b7cw3n33qk7r0000gn/T//ccUI6O0C.s 			page 47


 2611 0d38 29       		.uleb128 0x29
 2612 0d39 01       		.uleb128 0x1
 2613 0d3a 50       		.byte	0x50
 2614 0d3b 01       		.uleb128 0x1
 2615 0d3c 3A       		.byte	0x3a
 2616 0d3d 29       		.uleb128 0x29
 2617 0d3e 01       		.uleb128 0x1
 2618 0d3f 51       		.byte	0x51
 2619 0d40 04       		.uleb128 0x4
 2620 0d41 79       		.byte	0x79
 2621 0d42 00       		.sleb128 0
 2622 0d43 31       		.byte	0x31
 2623 0d44 29       		.byte	0x29
 2624 0d45 00       		.byte	0
 2625 0d46 28       		.uleb128 0x28
 2626 0d47 E4010000 		.4byte	.LVL67
 2627 0d4b B1100000 		.4byte	0x10b1
 2628 0d4f 5A0D0000 		.4byte	0xd5a
 2629 0d53 29       		.uleb128 0x29
 2630 0d54 01       		.uleb128 0x1
 2631 0d55 50       		.byte	0x50
 2632 0d56 02       		.uleb128 0x2
 2633 0d57 09       		.byte	0x9
 2634 0d58 FF       		.byte	0xff
 2635 0d59 00       		.byte	0
 2636 0d5a 28       		.uleb128 0x28
 2637 0d5b F4010000 		.4byte	.LVL69
 2638 0d5f 7A100000 		.4byte	0x107a
 2639 0d63 6D0D0000 		.4byte	0xd6d
 2640 0d67 29       		.uleb128 0x29
 2641 0d68 01       		.uleb128 0x1
 2642 0d69 50       		.byte	0x50
 2643 0d6a 01       		.uleb128 0x1
 2644 0d6b 3B       		.byte	0x3b
 2645 0d6c 00       		.byte	0
 2646 0d6d 33       		.uleb128 0x33
 2647 0d6e 08020000 		.4byte	.LVL71
 2648 0d72 E9100000 		.4byte	0x10e9
 2649 0d76 28       		.uleb128 0x28
 2650 0d77 20020000 		.4byte	.LVL72
 2651 0d7b 6F100000 		.4byte	0x106f
 2652 0d7f 960D0000 		.4byte	0xd96
 2653 0d83 29       		.uleb128 0x29
 2654 0d84 01       		.uleb128 0x1
 2655 0d85 50       		.byte	0x50
 2656 0d86 02       		.uleb128 0x2
 2657 0d87 79       		.byte	0x79
 2658 0d88 00       		.sleb128 0
 2659 0d89 29       		.uleb128 0x29
 2660 0d8a 01       		.uleb128 0x1
 2661 0d8b 51       		.byte	0x51
 2662 0d8c 03       		.uleb128 0x3
 2663 0d8d 91       		.byte	0x91
 2664 0d8e B87F     		.sleb128 -72
 2665 0d90 29       		.uleb128 0x29
 2666 0d91 01       		.uleb128 0x1
 2667 0d92 52       		.byte	0x52
ARM GAS  /var/folders/3j/4xdnk5197cv_b7cw3n33qk7r0000gn/T//ccUI6O0C.s 			page 48


 2668 0d93 01       		.uleb128 0x1
 2669 0d94 31       		.byte	0x31
 2670 0d95 00       		.byte	0
 2671 0d96 28       		.uleb128 0x28
 2672 0d97 30020000 		.4byte	.LVL73
 2673 0d9b 6F100000 		.4byte	0x106f
 2674 0d9f B50D0000 		.4byte	0xdb5
 2675 0da3 29       		.uleb128 0x29
 2676 0da4 01       		.uleb128 0x1
 2677 0da5 50       		.byte	0x50
 2678 0da6 02       		.uleb128 0x2
 2679 0da7 74       		.byte	0x74
 2680 0da8 00       		.sleb128 0
 2681 0da9 29       		.uleb128 0x29
 2682 0daa 01       		.uleb128 0x1
 2683 0dab 51       		.byte	0x51
 2684 0dac 02       		.uleb128 0x2
 2685 0dad 91       		.byte	0x91
 2686 0dae 48       		.sleb128 -56
 2687 0daf 29       		.uleb128 0x29
 2688 0db0 01       		.uleb128 0x1
 2689 0db1 52       		.byte	0x52
 2690 0db2 01       		.uleb128 0x1
 2691 0db3 34       		.byte	0x34
 2692 0db4 00       		.byte	0
 2693 0db5 33       		.uleb128 0x33
 2694 0db6 34020000 		.4byte	.LVL74
 2695 0dba BC100000 		.4byte	0x10bc
 2696 0dbe 28       		.uleb128 0x28
 2697 0dbf 5C020000 		.4byte	.LVL76
 2698 0dc3 C7100000 		.4byte	0x10c7
 2699 0dc7 EC0D0000 		.4byte	0xdec
 2700 0dcb 29       		.uleb128 0x29
 2701 0dcc 01       		.uleb128 0x1
 2702 0dcd 50       		.byte	0x50
 2703 0dce 02       		.uleb128 0x2
 2704 0dcf 77       		.byte	0x77
 2705 0dd0 00       		.sleb128 0
 2706 0dd1 29       		.uleb128 0x29
 2707 0dd2 01       		.uleb128 0x1
 2708 0dd3 51       		.byte	0x51
 2709 0dd4 03       		.uleb128 0x3
 2710 0dd5 0A       		.byte	0xa
 2711 0dd6 1801     		.2byte	0x118
 2712 0dd8 29       		.uleb128 0x29
 2713 0dd9 01       		.uleb128 0x1
 2714 0dda 53       		.byte	0x53
 2715 0ddb 05       		.uleb128 0x5
 2716 0ddc 03       		.byte	0x3
 2717 0ddd 00000000 		.4byte	thread2
 2718 0de1 29       		.uleb128 0x29
 2719 0de2 02       		.uleb128 0x2
 2720 0de3 7D       		.byte	0x7d
 2721 0de4 00       		.sleb128 0
 2722 0de5 05       		.uleb128 0x5
 2723 0de6 03       		.byte	0x3
 2724 0de7 00000000 		.4byte	.LC1
ARM GAS  /var/folders/3j/4xdnk5197cv_b7cw3n33qk7r0000gn/T//ccUI6O0C.s 			page 49


 2725 0deb 00       		.byte	0
 2726 0dec 28       		.uleb128 0x28
 2727 0ded 68020000 		.4byte	.LVL77
 2728 0df1 0A110000 		.4byte	0x110a
 2729 0df5 FF0D0000 		.4byte	0xdff
 2730 0df9 29       		.uleb128 0x29
 2731 0dfa 01       		.uleb128 0x1
 2732 0dfb 50       		.byte	0x50
 2733 0dfc 01       		.uleb128 0x1
 2734 0dfd 35       		.byte	0x35
 2735 0dfe 00       		.byte	0
 2736 0dff 28       		.uleb128 0x28
 2737 0e00 78020000 		.4byte	.LVL79
 2738 0e04 DE100000 		.4byte	0x10de
 2739 0e08 1E0E0000 		.4byte	0xe1e
 2740 0e0c 29       		.uleb128 0x29
 2741 0e0d 01       		.uleb128 0x1
 2742 0e0e 50       		.byte	0x50
 2743 0e0f 01       		.uleb128 0x1
 2744 0e10 3C       		.byte	0x3c
 2745 0e11 29       		.uleb128 0x29
 2746 0e12 01       		.uleb128 0x1
 2747 0e13 51       		.byte	0x51
 2748 0e14 02       		.uleb128 0x2
 2749 0e15 76       		.byte	0x76
 2750 0e16 32       		.sleb128 50
 2751 0e17 29       		.uleb128 0x29
 2752 0e18 01       		.uleb128 0x1
 2753 0e19 52       		.byte	0x52
 2754 0e1a 02       		.uleb128 0x2
 2755 0e1b 76       		.byte	0x76
 2756 0e1c 37       		.sleb128 55
 2757 0e1d 00       		.byte	0
 2758 0e1e 28       		.uleb128 0x28
 2759 0e1f 88020000 		.4byte	.LVL80
 2760 0e23 B1100000 		.4byte	0x10b1
 2761 0e27 320E0000 		.4byte	0xe32
 2762 0e2b 29       		.uleb128 0x29
 2763 0e2c 01       		.uleb128 0x1
 2764 0e2d 50       		.byte	0x50
 2765 0e2e 02       		.uleb128 0x2
 2766 0e2f 09       		.byte	0x9
 2767 0e30 FF       		.byte	0xff
 2768 0e31 00       		.byte	0
 2769 0e32 28       		.uleb128 0x28
 2770 0e33 98020000 		.4byte	.LVL82
 2771 0e37 7A100000 		.4byte	0x107a
 2772 0e3b 450E0000 		.4byte	0xe45
 2773 0e3f 29       		.uleb128 0x29
 2774 0e40 01       		.uleb128 0x1
 2775 0e41 50       		.byte	0x50
 2776 0e42 01       		.uleb128 0x1
 2777 0e43 3D       		.byte	0x3d
 2778 0e44 00       		.byte	0
 2779 0e45 33       		.uleb128 0x33
 2780 0e46 A4020000 		.4byte	.LVL83
 2781 0e4a E9100000 		.4byte	0x10e9
ARM GAS  /var/folders/3j/4xdnk5197cv_b7cw3n33qk7r0000gn/T//ccUI6O0C.s 			page 50


 2782 0e4e 28       		.uleb128 0x28
 2783 0e4f B0020000 		.4byte	.LVL84
 2784 0e53 85100000 		.4byte	0x1085
 2785 0e57 690E0000 		.4byte	0xe69
 2786 0e5b 29       		.uleb128 0x29
 2787 0e5c 01       		.uleb128 0x1
 2788 0e5d 50       		.byte	0x50
 2789 0e5e 02       		.uleb128 0x2
 2790 0e5f 79       		.byte	0x79
 2791 0e60 00       		.sleb128 0
 2792 0e61 29       		.uleb128 0x29
 2793 0e62 01       		.uleb128 0x1
 2794 0e63 51       		.byte	0x51
 2795 0e64 03       		.uleb128 0x3
 2796 0e65 91       		.byte	0x91
 2797 0e66 B87F     		.sleb128 -72
 2798 0e68 00       		.byte	0
 2799 0e69 28       		.uleb128 0x28
 2800 0e6a BC020000 		.4byte	.LVL85
 2801 0e6e 85100000 		.4byte	0x1085
 2802 0e72 830E0000 		.4byte	0xe83
 2803 0e76 29       		.uleb128 0x29
 2804 0e77 01       		.uleb128 0x1
 2805 0e78 50       		.byte	0x50
 2806 0e79 02       		.uleb128 0x2
 2807 0e7a 74       		.byte	0x74
 2808 0e7b 00       		.sleb128 0
 2809 0e7c 29       		.uleb128 0x29
 2810 0e7d 01       		.uleb128 0x1
 2811 0e7e 51       		.byte	0x51
 2812 0e7f 02       		.uleb128 0x2
 2813 0e80 91       		.byte	0x91
 2814 0e81 48       		.sleb128 -56
 2815 0e82 00       		.byte	0
 2816 0e83 28       		.uleb128 0x28
 2817 0e84 D4020000 		.4byte	.LVL86
 2818 0e88 7A100000 		.4byte	0x107a
 2819 0e8c 960E0000 		.4byte	0xe96
 2820 0e90 29       		.uleb128 0x29
 2821 0e91 01       		.uleb128 0x1
 2822 0e92 50       		.byte	0x50
 2823 0e93 01       		.uleb128 0x1
 2824 0e94 3E       		.byte	0x3e
 2825 0e95 00       		.byte	0
 2826 0e96 2A       		.uleb128 0x2a
 2827 0e97 F4020000 		.4byte	.LVL87
 2828 0e9b 7A100000 		.4byte	0x107a
 2829 0e9f 29       		.uleb128 0x29
 2830 0ea0 01       		.uleb128 0x1
 2831 0ea1 50       		.byte	0x50
 2832 0ea2 01       		.uleb128 0x1
 2833 0ea3 3F       		.byte	0x3f
 2834 0ea4 00       		.byte	0
 2835 0ea5 00       		.byte	0
 2836 0ea6 28       		.uleb128 0x28
 2837 0ea7 10000000 		.4byte	.LVL28
 2838 0eab F4100000 		.4byte	0x10f4
ARM GAS  /var/folders/3j/4xdnk5197cv_b7cw3n33qk7r0000gn/T//ccUI6O0C.s 			page 51


 2839 0eaf B90E0000 		.4byte	0xeb9
 2840 0eb3 29       		.uleb128 0x29
 2841 0eb4 01       		.uleb128 0x1
 2842 0eb5 50       		.byte	0x50
 2843 0eb6 01       		.uleb128 0x1
 2844 0eb7 35       		.byte	0x35
 2845 0eb8 00       		.byte	0
 2846 0eb9 28       		.uleb128 0x28
 2847 0eba 18000000 		.4byte	.LVL29
 2848 0ebe D3100000 		.4byte	0x10d3
 2849 0ec2 CD0E0000 		.4byte	0xecd
 2850 0ec6 29       		.uleb128 0x29
 2851 0ec7 01       		.uleb128 0x1
 2852 0ec8 50       		.byte	0x50
 2853 0ec9 02       		.uleb128 0x2
 2854 0eca 09       		.byte	0x9
 2855 0ecb FF       		.byte	0xff
 2856 0ecc 00       		.byte	0
 2857 0ecd 28       		.uleb128 0x28
 2858 0ece 2C000000 		.4byte	.LVL31
 2859 0ed2 7A100000 		.4byte	0x107a
 2860 0ed6 E00E0000 		.4byte	0xee0
 2861 0eda 29       		.uleb128 0x29
 2862 0edb 01       		.uleb128 0x1
 2863 0edc 50       		.byte	0x50
 2864 0edd 01       		.uleb128 0x1
 2865 0ede 31       		.byte	0x31
 2866 0edf 00       		.byte	0
 2867 0ee0 28       		.uleb128 0x28
 2868 0ee1 44000000 		.4byte	.LVL32
 2869 0ee5 D3100000 		.4byte	0x10d3
 2870 0ee9 F40E0000 		.4byte	0xef4
 2871 0eed 29       		.uleb128 0x29
 2872 0eee 01       		.uleb128 0x1
 2873 0eef 50       		.byte	0x50
 2874 0ef0 02       		.uleb128 0x2
 2875 0ef1 09       		.byte	0x9
 2876 0ef2 FF       		.byte	0xff
 2877 0ef3 00       		.byte	0
 2878 0ef4 28       		.uleb128 0x28
 2879 0ef5 58000000 		.4byte	.LVL34
 2880 0ef9 7A100000 		.4byte	0x107a
 2881 0efd 070F0000 		.4byte	0xf07
 2882 0f01 29       		.uleb128 0x29
 2883 0f02 01       		.uleb128 0x1
 2884 0f03 50       		.byte	0x50
 2885 0f04 01       		.uleb128 0x1
 2886 0f05 32       		.byte	0x32
 2887 0f06 00       		.byte	0
 2888 0f07 28       		.uleb128 0x28
 2889 0f08 68000000 		.4byte	.LVL35
 2890 0f0c B1100000 		.4byte	0x10b1
 2891 0f10 1B0F0000 		.4byte	0xf1b
 2892 0f14 29       		.uleb128 0x29
 2893 0f15 01       		.uleb128 0x1
 2894 0f16 50       		.byte	0x50
 2895 0f17 02       		.uleb128 0x2
ARM GAS  /var/folders/3j/4xdnk5197cv_b7cw3n33qk7r0000gn/T//ccUI6O0C.s 			page 52


 2896 0f18 09       		.byte	0x9
 2897 0f19 FF       		.byte	0xff
 2898 0f1a 00       		.byte	0
 2899 0f1b 2A       		.uleb128 0x2a
 2900 0f1c 78000000 		.4byte	.LVL37
 2901 0f20 7A100000 		.4byte	0x107a
 2902 0f24 29       		.uleb128 0x29
 2903 0f25 01       		.uleb128 0x1
 2904 0f26 50       		.byte	0x50
 2905 0f27 01       		.uleb128 0x1
 2906 0f28 33       		.byte	0x33
 2907 0f29 00       		.byte	0
 2908 0f2a 00       		.byte	0
 2909 0f2b 2E       		.uleb128 0x2e
 2910 0f2c 7D080000 		.4byte	0x87d
 2911 0f30 00000000 		.4byte	.LFB17
 2912 0f34 D0000000 		.4byte	.LFE17-.LFB17
 2913 0f38 01       		.uleb128 0x1
 2914 0f39 9C       		.byte	0x9c
 2915 0f3a 4D100000 		.4byte	0x104d
 2916 0f3e 2F       		.uleb128 0x2f
 2917 0f3f 8A080000 		.4byte	0x88a
 2918 0f43 35010000 		.4byte	.LLST7
 2919 0f47 34       		.uleb128 0x34
 2920 0f48 00000000 		.4byte	.Ldebug_ranges0+0
 2921 0f4c D60F0000 		.4byte	0xfd6
 2922 0f50 30       		.uleb128 0x30
 2923 0f51 3E0F0000 		.4byte	0xf3e
 2924 0f55 28       		.uleb128 0x28
 2925 0f56 74000000 		.4byte	.LVL97
 2926 0f5a 15110000 		.4byte	0x1115
 2927 0f5e 6E0F0000 		.4byte	0xf6e
 2928 0f62 29       		.uleb128 0x29
 2929 0f63 01       		.uleb128 0x1
 2930 0f64 50       		.byte	0x50
 2931 0f65 02       		.uleb128 0x2
 2932 0f66 09       		.byte	0x9
 2933 0f67 FF       		.byte	0xff
 2934 0f68 29       		.uleb128 0x29
 2935 0f69 01       		.uleb128 0x1
 2936 0f6a 51       		.byte	0x51
 2937 0f6b 01       		.uleb128 0x1
 2938 0f6c 3A       		.byte	0x3a
 2939 0f6d 00       		.byte	0
 2940 0f6e 28       		.uleb128 0x28
 2941 0f6f 84000000 		.4byte	.LVL99
 2942 0f73 7A100000 		.4byte	0x107a
 2943 0f77 810F0000 		.4byte	0xf81
 2944 0f7b 29       		.uleb128 0x29
 2945 0f7c 01       		.uleb128 0x1
 2946 0f7d 50       		.byte	0x50
 2947 0f7e 01       		.uleb128 0x1
 2948 0f7f 34       		.byte	0x34
 2949 0f80 00       		.byte	0
 2950 0f81 28       		.uleb128 0x28
 2951 0f82 98000000 		.4byte	.LVL100
 2952 0f86 20110000 		.4byte	0x1120
ARM GAS  /var/folders/3j/4xdnk5197cv_b7cw3n33qk7r0000gn/T//ccUI6O0C.s 			page 53


 2953 0f8a 9A0F0000 		.4byte	0xf9a
 2954 0f8e 29       		.uleb128 0x29
 2955 0f8f 01       		.uleb128 0x1
 2956 0f90 50       		.byte	0x50
 2957 0f91 02       		.uleb128 0x2
 2958 0f92 09       		.byte	0x9
 2959 0f93 FF       		.byte	0xff
 2960 0f94 29       		.uleb128 0x29
 2961 0f95 01       		.uleb128 0x1
 2962 0f96 51       		.byte	0x51
 2963 0f97 01       		.uleb128 0x1
 2964 0f98 3A       		.byte	0x3a
 2965 0f99 00       		.byte	0
 2966 0f9a 28       		.uleb128 0x28
 2967 0f9b A8000000 		.4byte	.LVL102
 2968 0f9f 7A100000 		.4byte	0x107a
 2969 0fa3 AD0F0000 		.4byte	0xfad
 2970 0fa7 29       		.uleb128 0x29
 2971 0fa8 01       		.uleb128 0x1
 2972 0fa9 50       		.byte	0x50
 2973 0faa 01       		.uleb128 0x1
 2974 0fab 35       		.byte	0x35
 2975 0fac 00       		.byte	0
 2976 0fad 28       		.uleb128 0x28
 2977 0fae BC000000 		.4byte	.LVL103
 2978 0fb2 2B110000 		.4byte	0x112b
 2979 0fb6 C60F0000 		.4byte	0xfc6
 2980 0fba 29       		.uleb128 0x29
 2981 0fbb 01       		.uleb128 0x1
 2982 0fbc 50       		.byte	0x50
 2983 0fbd 02       		.uleb128 0x2
 2984 0fbe 09       		.byte	0x9
 2985 0fbf FF       		.byte	0xff
 2986 0fc0 29       		.uleb128 0x29
 2987 0fc1 01       		.uleb128 0x1
 2988 0fc2 51       		.byte	0x51
 2989 0fc3 01       		.uleb128 0x1
 2990 0fc4 3A       		.byte	0x3a
 2991 0fc5 00       		.byte	0
 2992 0fc6 2D       		.uleb128 0x2d
 2993 0fc7 D0000000 		.4byte	.LVL105
 2994 0fcb 7A100000 		.4byte	0x107a
 2995 0fcf 29       		.uleb128 0x29
 2996 0fd0 01       		.uleb128 0x1
 2997 0fd1 50       		.byte	0x50
 2998 0fd2 01       		.uleb128 0x1
 2999 0fd3 36       		.byte	0x36
 3000 0fd4 00       		.byte	0
 3001 0fd5 00       		.byte	0
 3002 0fd6 28       		.uleb128 0x28
 3003 0fd7 10000000 		.4byte	.LVL88
 3004 0fdb 15110000 		.4byte	0x1115
 3005 0fdf EF0F0000 		.4byte	0xfef
 3006 0fe3 29       		.uleb128 0x29
 3007 0fe4 01       		.uleb128 0x1
 3008 0fe5 50       		.byte	0x50
 3009 0fe6 02       		.uleb128 0x2
ARM GAS  /var/folders/3j/4xdnk5197cv_b7cw3n33qk7r0000gn/T//ccUI6O0C.s 			page 54


 3010 0fe7 09       		.byte	0x9
 3011 0fe8 FF       		.byte	0xff
 3012 0fe9 29       		.uleb128 0x29
 3013 0fea 01       		.uleb128 0x1
 3014 0feb 51       		.byte	0x51
 3015 0fec 01       		.uleb128 0x1
 3016 0fed 30       		.byte	0x30
 3017 0fee 00       		.byte	0
 3018 0fef 28       		.uleb128 0x28
 3019 0ff0 20000000 		.4byte	.LVL90
 3020 0ff4 7A100000 		.4byte	0x107a
 3021 0ff8 02100000 		.4byte	0x1002
 3022 0ffc 29       		.uleb128 0x29
 3023 0ffd 01       		.uleb128 0x1
 3024 0ffe 50       		.byte	0x50
 3025 0fff 01       		.uleb128 0x1
 3026 1000 31       		.byte	0x31
 3027 1001 00       		.byte	0
 3028 1002 28       		.uleb128 0x28
 3029 1003 30000000 		.4byte	.LVL91
 3030 1007 20110000 		.4byte	0x1120
 3031 100b 16100000 		.4byte	0x1016
 3032 100f 29       		.uleb128 0x29
 3033 1010 01       		.uleb128 0x1
 3034 1011 50       		.byte	0x50
 3035 1012 02       		.uleb128 0x2
 3036 1013 09       		.byte	0x9
 3037 1014 FF       		.byte	0xff
 3038 1015 00       		.byte	0
 3039 1016 28       		.uleb128 0x28
 3040 1017 40000000 		.4byte	.LVL93
 3041 101b 7A100000 		.4byte	0x107a
 3042 101f 29100000 		.4byte	0x1029
 3043 1023 29       		.uleb128 0x29
 3044 1024 01       		.uleb128 0x1
 3045 1025 50       		.byte	0x50
 3046 1026 01       		.uleb128 0x1
 3047 1027 32       		.byte	0x32
 3048 1028 00       		.byte	0
 3049 1029 28       		.uleb128 0x28
 3050 102a 50000000 		.4byte	.LVL94
 3051 102e 2B110000 		.4byte	0x112b
 3052 1032 3D100000 		.4byte	0x103d
 3053 1036 29       		.uleb128 0x29
 3054 1037 01       		.uleb128 0x1
 3055 1038 50       		.byte	0x50
 3056 1039 02       		.uleb128 0x2
 3057 103a 09       		.byte	0x9
 3058 103b FF       		.byte	0xff
 3059 103c 00       		.byte	0
 3060 103d 2A       		.uleb128 0x2a
 3061 103e 60000000 		.4byte	.LVL96
 3062 1042 7A100000 		.4byte	0x107a
 3063 1046 29       		.uleb128 0x29
 3064 1047 01       		.uleb128 0x1
 3065 1048 50       		.byte	0x50
 3066 1049 01       		.uleb128 0x1
ARM GAS  /var/folders/3j/4xdnk5197cv_b7cw3n33qk7r0000gn/T//ccUI6O0C.s 			page 55


 3067 104a 33       		.byte	0x33
 3068 104b 00       		.byte	0
 3069 104c 00       		.byte	0
 3070 104d 35       		.uleb128 0x35
 3071 104e BE020000 		.4byte	.LASF132
 3072 1052 BE020000 		.4byte	.LASF132
 3073 1056 0B       		.byte	0xb
 3074 1057 B2       		.byte	0xb2
 3075 1058 36       		.uleb128 0x36
 3076 1059 08060000 		.4byte	.LASF133
 3077 105d 08060000 		.4byte	.LASF133
 3078 1061 06       		.byte	0x6
 3079 1062 6901     		.2byte	0x169
 3080 1064 35       		.uleb128 0x35
 3081 1065 7E000000 		.4byte	.LASF134
 3082 1069 7E000000 		.4byte	.LASF134
 3083 106d 0B       		.byte	0xb
 3084 106e B0       		.byte	0xb0
 3085 106f 35       		.uleb128 0x35
 3086 1070 8D030000 		.4byte	.LASF135
 3087 1074 8D030000 		.4byte	.LASF135
 3088 1078 0B       		.byte	0xb
 3089 1079 A8       		.byte	0xa8
 3090 107a 35       		.uleb128 0x35
 3091 107b 30070000 		.4byte	.LASF136
 3092 107f 30070000 		.4byte	.LASF136
 3093 1083 0E       		.byte	0xe
 3094 1084 5C       		.byte	0x5c
 3095 1085 35       		.uleb128 0x35
 3096 1086 C0030000 		.4byte	.LASF137
 3097 108a C0030000 		.4byte	.LASF137
 3098 108e 0B       		.byte	0xb
 3099 108f AB       		.byte	0xab
 3100 1090 35       		.uleb128 0x35
 3101 1091 4A040000 		.4byte	.LASF138
 3102 1095 4A040000 		.4byte	.LASF138
 3103 1099 0B       		.byte	0xb
 3104 109a B4       		.byte	0xb4
 3105 109b 35       		.uleb128 0x35
 3106 109c CB040000 		.4byte	.LASF139
 3107 10a0 CB040000 		.4byte	.LASF139
 3108 10a4 0E       		.byte	0xe
 3109 10a5 5D       		.byte	0x5d
 3110 10a6 35       		.uleb128 0x35
 3111 10a7 57010000 		.4byte	.LASF140
 3112 10ab 57010000 		.4byte	.LASF140
 3113 10af 0E       		.byte	0xe
 3114 10b0 5A       		.byte	0x5a
 3115 10b1 35       		.uleb128 0x35
 3116 10b2 1B030000 		.4byte	.LASF141
 3117 10b6 1B030000 		.4byte	.LASF141
 3118 10ba 0B       		.byte	0xb
 3119 10bb AC       		.byte	0xac
 3120 10bc 35       		.uleb128 0x35
 3121 10bd 6A070000 		.4byte	.LASF142
 3122 10c1 6A070000 		.4byte	.LASF142
 3123 10c5 0E       		.byte	0xe
ARM GAS  /var/folders/3j/4xdnk5197cv_b7cw3n33qk7r0000gn/T//ccUI6O0C.s 			page 56


 3124 10c6 61       		.byte	0x61
 3125 10c7 36       		.uleb128 0x36
 3126 10c8 09040000 		.4byte	.LASF143
 3127 10cc 09040000 		.4byte	.LASF143
 3128 10d0 06       		.byte	0x6
 3129 10d1 6401     		.2byte	0x164
 3130 10d3 35       		.uleb128 0x35
 3131 10d4 53050000 		.4byte	.LASF144
 3132 10d8 53050000 		.4byte	.LASF144
 3133 10dc 0B       		.byte	0xb
 3134 10dd B6       		.byte	0xb6
 3135 10de 35       		.uleb128 0x35
 3136 10df 38020000 		.4byte	.LASF145
 3137 10e3 38020000 		.4byte	.LASF145
 3138 10e7 0E       		.byte	0xe
 3139 10e8 5E       		.byte	0x5e
 3140 10e9 35       		.uleb128 0x35
 3141 10ea 7B040000 		.4byte	.LASF146
 3142 10ee 7B040000 		.4byte	.LASF146
 3143 10f2 0E       		.byte	0xe
 3144 10f3 60       		.byte	0x60
 3145 10f4 35       		.uleb128 0x35
 3146 10f5 A1000000 		.4byte	.LASF147
 3147 10f9 A1000000 		.4byte	.LASF147
 3148 10fd 0B       		.byte	0xb
 3149 10fe AD       		.byte	0xad
 3150 10ff 35       		.uleb128 0x35
 3151 1100 5A020000 		.4byte	.LASF148
 3152 1104 5A020000 		.4byte	.LASF148
 3153 1108 0B       		.byte	0xb
 3154 1109 B7       		.byte	0xb7
 3155 110a 35       		.uleb128 0x35
 3156 110b E1040000 		.4byte	.LASF149
 3157 110f E1040000 		.4byte	.LASF149
 3158 1113 0B       		.byte	0xb
 3159 1114 B8       		.byte	0xb8
 3160 1115 35       		.uleb128 0x35
 3161 1116 0E070000 		.4byte	.LASF150
 3162 111a 0E070000 		.4byte	.LASF150
 3163 111e 0B       		.byte	0xb
 3164 111f BB       		.byte	0xbb
 3165 1120 35       		.uleb128 0x35
 3166 1121 CC000000 		.4byte	.LASF151
 3167 1125 CC000000 		.4byte	.LASF151
 3168 1129 0B       		.byte	0xb
 3169 112a BC       		.byte	0xbc
 3170 112b 35       		.uleb128 0x35
 3171 112c 27010000 		.4byte	.LASF152
 3172 1130 27010000 		.4byte	.LASF152
 3173 1134 0B       		.byte	0xb
 3174 1135 BD       		.byte	0xbd
 3175 1136 00       		.byte	0
 3176              		.section	.debug_abbrev,"",%progbits
 3177              	.Ldebug_abbrev0:
 3178 0000 01       		.uleb128 0x1
 3179 0001 11       		.uleb128 0x11
 3180 0002 01       		.byte	0x1
ARM GAS  /var/folders/3j/4xdnk5197cv_b7cw3n33qk7r0000gn/T//ccUI6O0C.s 			page 57


 3181 0003 25       		.uleb128 0x25
 3182 0004 0E       		.uleb128 0xe
 3183 0005 13       		.uleb128 0x13
 3184 0006 0B       		.uleb128 0xb
 3185 0007 03       		.uleb128 0x3
 3186 0008 0E       		.uleb128 0xe
 3187 0009 1B       		.uleb128 0x1b
 3188 000a 0E       		.uleb128 0xe
 3189 000b 55       		.uleb128 0x55
 3190 000c 17       		.uleb128 0x17
 3191 000d 11       		.uleb128 0x11
 3192 000e 01       		.uleb128 0x1
 3193 000f 10       		.uleb128 0x10
 3194 0010 17       		.uleb128 0x17
 3195 0011 00       		.byte	0
 3196 0012 00       		.byte	0
 3197 0013 02       		.uleb128 0x2
 3198 0014 24       		.uleb128 0x24
 3199 0015 00       		.byte	0
 3200 0016 0B       		.uleb128 0xb
 3201 0017 0B       		.uleb128 0xb
 3202 0018 3E       		.uleb128 0x3e
 3203 0019 0B       		.uleb128 0xb
 3204 001a 03       		.uleb128 0x3
 3205 001b 08       		.uleb128 0x8
 3206 001c 00       		.byte	0
 3207 001d 00       		.byte	0
 3208 001e 03       		.uleb128 0x3
 3209 001f 24       		.uleb128 0x24
 3210 0020 00       		.byte	0
 3211 0021 0B       		.uleb128 0xb
 3212 0022 0B       		.uleb128 0xb
 3213 0023 3E       		.uleb128 0x3e
 3214 0024 0B       		.uleb128 0xb
 3215 0025 03       		.uleb128 0x3
 3216 0026 0E       		.uleb128 0xe
 3217 0027 00       		.byte	0
 3218 0028 00       		.byte	0
 3219 0029 04       		.uleb128 0x4
 3220 002a 16       		.uleb128 0x16
 3221 002b 00       		.byte	0
 3222 002c 03       		.uleb128 0x3
 3223 002d 0E       		.uleb128 0xe
 3224 002e 3A       		.uleb128 0x3a
 3225 002f 0B       		.uleb128 0xb
 3226 0030 3B       		.uleb128 0x3b
 3227 0031 0B       		.uleb128 0xb
 3228 0032 49       		.uleb128 0x49
 3229 0033 13       		.uleb128 0x13
 3230 0034 00       		.byte	0
 3231 0035 00       		.byte	0
 3232 0036 05       		.uleb128 0x5
 3233 0037 35       		.uleb128 0x35
 3234 0038 00       		.byte	0
 3235 0039 49       		.uleb128 0x49
 3236 003a 13       		.uleb128 0x13
 3237 003b 00       		.byte	0
ARM GAS  /var/folders/3j/4xdnk5197cv_b7cw3n33qk7r0000gn/T//ccUI6O0C.s 			page 58


 3238 003c 00       		.byte	0
 3239 003d 06       		.uleb128 0x6
 3240 003e 13       		.uleb128 0x13
 3241 003f 01       		.byte	0x1
 3242 0040 03       		.uleb128 0x3
 3243 0041 0E       		.uleb128 0xe
 3244 0042 0B       		.uleb128 0xb
 3245 0043 0B       		.uleb128 0xb
 3246 0044 3A       		.uleb128 0x3a
 3247 0045 0B       		.uleb128 0xb
 3248 0046 3B       		.uleb128 0x3b
 3249 0047 0B       		.uleb128 0xb
 3250 0048 01       		.uleb128 0x1
 3251 0049 13       		.uleb128 0x13
 3252 004a 00       		.byte	0
 3253 004b 00       		.byte	0
 3254 004c 07       		.uleb128 0x7
 3255 004d 0D       		.uleb128 0xd
 3256 004e 00       		.byte	0
 3257 004f 03       		.uleb128 0x3
 3258 0050 0E       		.uleb128 0xe
 3259 0051 3A       		.uleb128 0x3a
 3260 0052 0B       		.uleb128 0xb
 3261 0053 3B       		.uleb128 0x3b
 3262 0054 0B       		.uleb128 0xb
 3263 0055 49       		.uleb128 0x49
 3264 0056 13       		.uleb128 0x13
 3265 0057 38       		.uleb128 0x38
 3266 0058 0B       		.uleb128 0xb
 3267 0059 00       		.byte	0
 3268 005a 00       		.byte	0
 3269 005b 08       		.uleb128 0x8
 3270 005c 0D       		.uleb128 0xd
 3271 005d 00       		.byte	0
 3272 005e 03       		.uleb128 0x3
 3273 005f 08       		.uleb128 0x8
 3274 0060 3A       		.uleb128 0x3a
 3275 0061 0B       		.uleb128 0xb
 3276 0062 3B       		.uleb128 0x3b
 3277 0063 0B       		.uleb128 0xb
 3278 0064 49       		.uleb128 0x49
 3279 0065 13       		.uleb128 0x13
 3280 0066 38       		.uleb128 0x38
 3281 0067 0B       		.uleb128 0xb
 3282 0068 00       		.byte	0
 3283 0069 00       		.byte	0
 3284 006a 09       		.uleb128 0x9
 3285 006b 13       		.uleb128 0x13
 3286 006c 01       		.byte	0x1
 3287 006d 0B       		.uleb128 0xb
 3288 006e 0B       		.uleb128 0xb
 3289 006f 3A       		.uleb128 0x3a
 3290 0070 0B       		.uleb128 0xb
 3291 0071 3B       		.uleb128 0x3b
 3292 0072 0B       		.uleb128 0xb
 3293 0073 01       		.uleb128 0x1
 3294 0074 13       		.uleb128 0x13
ARM GAS  /var/folders/3j/4xdnk5197cv_b7cw3n33qk7r0000gn/T//ccUI6O0C.s 			page 59


 3295 0075 00       		.byte	0
 3296 0076 00       		.byte	0
 3297 0077 0A       		.uleb128 0xa
 3298 0078 0F       		.uleb128 0xf
 3299 0079 00       		.byte	0
 3300 007a 0B       		.uleb128 0xb
 3301 007b 0B       		.uleb128 0xb
 3302 007c 49       		.uleb128 0x49
 3303 007d 13       		.uleb128 0x13
 3304 007e 00       		.byte	0
 3305 007f 00       		.byte	0
 3306 0080 0B       		.uleb128 0xb
 3307 0081 0F       		.uleb128 0xf
 3308 0082 00       		.byte	0
 3309 0083 0B       		.uleb128 0xb
 3310 0084 0B       		.uleb128 0xb
 3311 0085 00       		.byte	0
 3312 0086 00       		.byte	0
 3313 0087 0C       		.uleb128 0xc
 3314 0088 26       		.uleb128 0x26
 3315 0089 00       		.byte	0
 3316 008a 49       		.uleb128 0x49
 3317 008b 13       		.uleb128 0x13
 3318 008c 00       		.byte	0
 3319 008d 00       		.byte	0
 3320 008e 0D       		.uleb128 0xd
 3321 008f 15       		.uleb128 0x15
 3322 0090 01       		.byte	0x1
 3323 0091 27       		.uleb128 0x27
 3324 0092 19       		.uleb128 0x19
 3325 0093 01       		.uleb128 0x1
 3326 0094 13       		.uleb128 0x13
 3327 0095 00       		.byte	0
 3328 0096 00       		.byte	0
 3329 0097 0E       		.uleb128 0xe
 3330 0098 05       		.uleb128 0x5
 3331 0099 00       		.byte	0
 3332 009a 49       		.uleb128 0x49
 3333 009b 13       		.uleb128 0x13
 3334 009c 00       		.byte	0
 3335 009d 00       		.byte	0
 3336 009e 0F       		.uleb128 0xf
 3337 009f 34       		.uleb128 0x34
 3338 00a0 00       		.byte	0
 3339 00a1 03       		.uleb128 0x3
 3340 00a2 0E       		.uleb128 0xe
 3341 00a3 3A       		.uleb128 0x3a
 3342 00a4 0B       		.uleb128 0xb
 3343 00a5 3B       		.uleb128 0x3b
 3344 00a6 0B       		.uleb128 0xb
 3345 00a7 49       		.uleb128 0x49
 3346 00a8 13       		.uleb128 0x13
 3347 00a9 3F       		.uleb128 0x3f
 3348 00aa 19       		.uleb128 0x19
 3349 00ab 3C       		.uleb128 0x3c
 3350 00ac 19       		.uleb128 0x19
 3351 00ad 00       		.byte	0
ARM GAS  /var/folders/3j/4xdnk5197cv_b7cw3n33qk7r0000gn/T//ccUI6O0C.s 			page 60


 3352 00ae 00       		.byte	0
 3353 00af 10       		.uleb128 0x10
 3354 00b0 17       		.uleb128 0x17
 3355 00b1 01       		.byte	0x1
 3356 00b2 0B       		.uleb128 0xb
 3357 00b3 0B       		.uleb128 0xb
 3358 00b4 3A       		.uleb128 0x3a
 3359 00b5 0B       		.uleb128 0xb
 3360 00b6 3B       		.uleb128 0x3b
 3361 00b7 0B       		.uleb128 0xb
 3362 00b8 01       		.uleb128 0x1
 3363 00b9 13       		.uleb128 0x13
 3364 00ba 00       		.byte	0
 3365 00bb 00       		.byte	0
 3366 00bc 11       		.uleb128 0x11
 3367 00bd 0D       		.uleb128 0xd
 3368 00be 00       		.byte	0
 3369 00bf 03       		.uleb128 0x3
 3370 00c0 0E       		.uleb128 0xe
 3371 00c1 3A       		.uleb128 0x3a
 3372 00c2 0B       		.uleb128 0xb
 3373 00c3 3B       		.uleb128 0x3b
 3374 00c4 0B       		.uleb128 0xb
 3375 00c5 49       		.uleb128 0x49
 3376 00c6 13       		.uleb128 0x13
 3377 00c7 00       		.byte	0
 3378 00c8 00       		.byte	0
 3379 00c9 12       		.uleb128 0x12
 3380 00ca 01       		.uleb128 0x1
 3381 00cb 01       		.byte	0x1
 3382 00cc 49       		.uleb128 0x49
 3383 00cd 13       		.uleb128 0x13
 3384 00ce 01       		.uleb128 0x1
 3385 00cf 13       		.uleb128 0x13
 3386 00d0 00       		.byte	0
 3387 00d1 00       		.byte	0
 3388 00d2 13       		.uleb128 0x13
 3389 00d3 21       		.uleb128 0x21
 3390 00d4 00       		.byte	0
 3391 00d5 49       		.uleb128 0x49
 3392 00d6 13       		.uleb128 0x13
 3393 00d7 2F       		.uleb128 0x2f
 3394 00d8 0B       		.uleb128 0xb
 3395 00d9 00       		.byte	0
 3396 00da 00       		.byte	0
 3397 00db 14       		.uleb128 0x14
 3398 00dc 15       		.uleb128 0x15
 3399 00dd 00       		.byte	0
 3400 00de 27       		.uleb128 0x27
 3401 00df 19       		.uleb128 0x19
 3402 00e0 00       		.byte	0
 3403 00e1 00       		.byte	0
 3404 00e2 15       		.uleb128 0x15
 3405 00e3 13       		.uleb128 0x13
 3406 00e4 01       		.byte	0x1
 3407 00e5 0B       		.uleb128 0xb
 3408 00e6 05       		.uleb128 0x5
ARM GAS  /var/folders/3j/4xdnk5197cv_b7cw3n33qk7r0000gn/T//ccUI6O0C.s 			page 61


 3409 00e7 3A       		.uleb128 0x3a
 3410 00e8 0B       		.uleb128 0xb
 3411 00e9 3B       		.uleb128 0x3b
 3412 00ea 0B       		.uleb128 0xb
 3413 00eb 01       		.uleb128 0x1
 3414 00ec 13       		.uleb128 0x13
 3415 00ed 00       		.byte	0
 3416 00ee 00       		.byte	0
 3417 00ef 16       		.uleb128 0x16
 3418 00f0 0D       		.uleb128 0xd
 3419 00f1 00       		.byte	0
 3420 00f2 03       		.uleb128 0x3
 3421 00f3 08       		.uleb128 0x8
 3422 00f4 3A       		.uleb128 0x3a
 3423 00f5 0B       		.uleb128 0xb
 3424 00f6 3B       		.uleb128 0x3b
 3425 00f7 0B       		.uleb128 0xb
 3426 00f8 49       		.uleb128 0x49
 3427 00f9 13       		.uleb128 0x13
 3428 00fa 38       		.uleb128 0x38
 3429 00fb 05       		.uleb128 0x5
 3430 00fc 00       		.byte	0
 3431 00fd 00       		.byte	0
 3432 00fe 17       		.uleb128 0x17
 3433 00ff 17       		.uleb128 0x17
 3434 0100 01       		.byte	0x1
 3435 0101 03       		.uleb128 0x3
 3436 0102 0E       		.uleb128 0xe
 3437 0103 0B       		.uleb128 0xb
 3438 0104 05       		.uleb128 0x5
 3439 0105 3A       		.uleb128 0x3a
 3440 0106 0B       		.uleb128 0xb
 3441 0107 3B       		.uleb128 0x3b
 3442 0108 0B       		.uleb128 0xb
 3443 0109 01       		.uleb128 0x1
 3444 010a 13       		.uleb128 0x13
 3445 010b 00       		.byte	0
 3446 010c 00       		.byte	0
 3447 010d 18       		.uleb128 0x18
 3448 010e 0D       		.uleb128 0xd
 3449 010f 00       		.byte	0
 3450 0110 03       		.uleb128 0x3
 3451 0111 08       		.uleb128 0x8
 3452 0112 3A       		.uleb128 0x3a
 3453 0113 0B       		.uleb128 0xb
 3454 0114 3B       		.uleb128 0x3b
 3455 0115 0B       		.uleb128 0xb
 3456 0116 49       		.uleb128 0x49
 3457 0117 13       		.uleb128 0x13
 3458 0118 00       		.byte	0
 3459 0119 00       		.byte	0
 3460 011a 19       		.uleb128 0x19
 3461 011b 21       		.uleb128 0x21
 3462 011c 00       		.byte	0
 3463 011d 49       		.uleb128 0x49
 3464 011e 13       		.uleb128 0x13
 3465 011f 2F       		.uleb128 0x2f
ARM GAS  /var/folders/3j/4xdnk5197cv_b7cw3n33qk7r0000gn/T//ccUI6O0C.s 			page 62


 3466 0120 05       		.uleb128 0x5
 3467 0121 00       		.byte	0
 3468 0122 00       		.byte	0
 3469 0123 1A       		.uleb128 0x1a
 3470 0124 21       		.uleb128 0x21
 3471 0125 00       		.byte	0
 3472 0126 00       		.byte	0
 3473 0127 00       		.byte	0
 3474 0128 1B       		.uleb128 0x1b
 3475 0129 34       		.uleb128 0x34
 3476 012a 00       		.byte	0
 3477 012b 03       		.uleb128 0x3
 3478 012c 08       		.uleb128 0x8
 3479 012d 3A       		.uleb128 0x3a
 3480 012e 0B       		.uleb128 0xb
 3481 012f 3B       		.uleb128 0x3b
 3482 0130 0B       		.uleb128 0xb
 3483 0131 49       		.uleb128 0x49
 3484 0132 13       		.uleb128 0x13
 3485 0133 3F       		.uleb128 0x3f
 3486 0134 19       		.uleb128 0x19
 3487 0135 3C       		.uleb128 0x3c
 3488 0136 19       		.uleb128 0x19
 3489 0137 00       		.byte	0
 3490 0138 00       		.byte	0
 3491 0139 1C       		.uleb128 0x1c
 3492 013a 34       		.uleb128 0x34
 3493 013b 00       		.byte	0
 3494 013c 03       		.uleb128 0x3
 3495 013d 08       		.uleb128 0x8
 3496 013e 3A       		.uleb128 0x3a
 3497 013f 0B       		.uleb128 0xb
 3498 0140 3B       		.uleb128 0x3b
 3499 0141 0B       		.uleb128 0xb
 3500 0142 49       		.uleb128 0x49
 3501 0143 13       		.uleb128 0x13
 3502 0144 02       		.uleb128 0x2
 3503 0145 18       		.uleb128 0x18
 3504 0146 00       		.byte	0
 3505 0147 00       		.byte	0
 3506 0148 1D       		.uleb128 0x1d
 3507 0149 34       		.uleb128 0x34
 3508 014a 00       		.byte	0
 3509 014b 03       		.uleb128 0x3
 3510 014c 0E       		.uleb128 0xe
 3511 014d 3A       		.uleb128 0x3a
 3512 014e 0B       		.uleb128 0xb
 3513 014f 3B       		.uleb128 0x3b
 3514 0150 0B       		.uleb128 0xb
 3515 0151 49       		.uleb128 0x49
 3516 0152 13       		.uleb128 0x13
 3517 0153 02       		.uleb128 0x2
 3518 0154 18       		.uleb128 0x18
 3519 0155 00       		.byte	0
 3520 0156 00       		.byte	0
 3521 0157 1E       		.uleb128 0x1e
 3522 0158 34       		.uleb128 0x34
ARM GAS  /var/folders/3j/4xdnk5197cv_b7cw3n33qk7r0000gn/T//ccUI6O0C.s 			page 63


 3523 0159 00       		.byte	0
 3524 015a 03       		.uleb128 0x3
 3525 015b 0E       		.uleb128 0xe
 3526 015c 3A       		.uleb128 0x3a
 3527 015d 0B       		.uleb128 0xb
 3528 015e 3B       		.uleb128 0x3b
 3529 015f 0B       		.uleb128 0xb
 3530 0160 49       		.uleb128 0x49
 3531 0161 13       		.uleb128 0x13
 3532 0162 3F       		.uleb128 0x3f
 3533 0163 19       		.uleb128 0x19
 3534 0164 02       		.uleb128 0x2
 3535 0165 18       		.uleb128 0x18
 3536 0166 00       		.byte	0
 3537 0167 00       		.byte	0
 3538 0168 1F       		.uleb128 0x1f
 3539 0169 34       		.uleb128 0x34
 3540 016a 00       		.byte	0
 3541 016b 03       		.uleb128 0x3
 3542 016c 0E       		.uleb128 0xe
 3543 016d 3A       		.uleb128 0x3a
 3544 016e 0B       		.uleb128 0xb
 3545 016f 3B       		.uleb128 0x3b
 3546 0170 05       		.uleb128 0x5
 3547 0171 49       		.uleb128 0x49
 3548 0172 13       		.uleb128 0x13
 3549 0173 3F       		.uleb128 0x3f
 3550 0174 19       		.uleb128 0x19
 3551 0175 02       		.uleb128 0x2
 3552 0176 18       		.uleb128 0x18
 3553 0177 00       		.byte	0
 3554 0178 00       		.byte	0
 3555 0179 20       		.uleb128 0x20
 3556 017a 2E       		.uleb128 0x2e
 3557 017b 01       		.byte	0x1
 3558 017c 03       		.uleb128 0x3
 3559 017d 0E       		.uleb128 0xe
 3560 017e 3A       		.uleb128 0x3a
 3561 017f 0B       		.uleb128 0xb
 3562 0180 3B       		.uleb128 0x3b
 3563 0181 05       		.uleb128 0x5
 3564 0182 27       		.uleb128 0x27
 3565 0183 19       		.uleb128 0x19
 3566 0184 20       		.uleb128 0x20
 3567 0185 0B       		.uleb128 0xb
 3568 0186 01       		.uleb128 0x1
 3569 0187 13       		.uleb128 0x13
 3570 0188 00       		.byte	0
 3571 0189 00       		.byte	0
 3572 018a 21       		.uleb128 0x21
 3573 018b 34       		.uleb128 0x34
 3574 018c 00       		.byte	0
 3575 018d 03       		.uleb128 0x3
 3576 018e 08       		.uleb128 0x8
 3577 018f 3A       		.uleb128 0x3a
 3578 0190 0B       		.uleb128 0xb
 3579 0191 3B       		.uleb128 0x3b
ARM GAS  /var/folders/3j/4xdnk5197cv_b7cw3n33qk7r0000gn/T//ccUI6O0C.s 			page 64


 3580 0192 05       		.uleb128 0x5
 3581 0193 49       		.uleb128 0x49
 3582 0194 13       		.uleb128 0x13
 3583 0195 00       		.byte	0
 3584 0196 00       		.byte	0
 3585 0197 22       		.uleb128 0x22
 3586 0198 2E       		.uleb128 0x2e
 3587 0199 00       		.byte	0
 3588 019a 03       		.uleb128 0x3
 3589 019b 0E       		.uleb128 0xe
 3590 019c 3A       		.uleb128 0x3a
 3591 019d 0B       		.uleb128 0xb
 3592 019e 3B       		.uleb128 0x3b
 3593 019f 0B       		.uleb128 0xb
 3594 01a0 27       		.uleb128 0x27
 3595 01a1 19       		.uleb128 0x19
 3596 01a2 00       		.byte	0
 3597 01a3 00       		.byte	0
 3598 01a4 23       		.uleb128 0x23
 3599 01a5 2E       		.uleb128 0x2e
 3600 01a6 01       		.byte	0x1
 3601 01a7 03       		.uleb128 0x3
 3602 01a8 0E       		.uleb128 0xe
 3603 01a9 3A       		.uleb128 0x3a
 3604 01aa 0B       		.uleb128 0xb
 3605 01ab 3B       		.uleb128 0x3b
 3606 01ac 0B       		.uleb128 0xb
 3607 01ad 27       		.uleb128 0x27
 3608 01ae 19       		.uleb128 0x19
 3609 01af 20       		.uleb128 0x20
 3610 01b0 0B       		.uleb128 0xb
 3611 01b1 01       		.uleb128 0x1
 3612 01b2 13       		.uleb128 0x13
 3613 01b3 00       		.byte	0
 3614 01b4 00       		.byte	0
 3615 01b5 24       		.uleb128 0x24
 3616 01b6 34       		.uleb128 0x34
 3617 01b7 00       		.byte	0
 3618 01b8 03       		.uleb128 0x3
 3619 01b9 08       		.uleb128 0x8
 3620 01ba 3A       		.uleb128 0x3a
 3621 01bb 0B       		.uleb128 0xb
 3622 01bc 3B       		.uleb128 0x3b
 3623 01bd 0B       		.uleb128 0xb
 3624 01be 49       		.uleb128 0x49
 3625 01bf 13       		.uleb128 0x13
 3626 01c0 00       		.byte	0
 3627 01c1 00       		.byte	0
 3628 01c2 25       		.uleb128 0x25
 3629 01c3 34       		.uleb128 0x34
 3630 01c4 00       		.byte	0
 3631 01c5 03       		.uleb128 0x3
 3632 01c6 0E       		.uleb128 0xe
 3633 01c7 3A       		.uleb128 0x3a
 3634 01c8 0B       		.uleb128 0xb
 3635 01c9 3B       		.uleb128 0x3b
 3636 01ca 0B       		.uleb128 0xb
ARM GAS  /var/folders/3j/4xdnk5197cv_b7cw3n33qk7r0000gn/T//ccUI6O0C.s 			page 65


 3637 01cb 49       		.uleb128 0x49
 3638 01cc 13       		.uleb128 0x13
 3639 01cd 00       		.byte	0
 3640 01ce 00       		.byte	0
 3641 01cf 26       		.uleb128 0x26
 3642 01d0 2E       		.uleb128 0x2e
 3643 01d1 01       		.byte	0x1
 3644 01d2 03       		.uleb128 0x3
 3645 01d3 0E       		.uleb128 0xe
 3646 01d4 3A       		.uleb128 0x3a
 3647 01d5 0B       		.uleb128 0xb
 3648 01d6 3B       		.uleb128 0x3b
 3649 01d7 0B       		.uleb128 0xb
 3650 01d8 27       		.uleb128 0x27
 3651 01d9 19       		.uleb128 0x19
 3652 01da 49       		.uleb128 0x49
 3653 01db 13       		.uleb128 0x13
 3654 01dc 11       		.uleb128 0x11
 3655 01dd 01       		.uleb128 0x1
 3656 01de 12       		.uleb128 0x12
 3657 01df 06       		.uleb128 0x6
 3658 01e0 40       		.uleb128 0x40
 3659 01e1 18       		.uleb128 0x18
 3660 01e2 9742     		.uleb128 0x2117
 3661 01e4 19       		.uleb128 0x19
 3662 01e5 01       		.uleb128 0x1
 3663 01e6 13       		.uleb128 0x13
 3664 01e7 00       		.byte	0
 3665 01e8 00       		.byte	0
 3666 01e9 27       		.uleb128 0x27
 3667 01ea 05       		.uleb128 0x5
 3668 01eb 00       		.byte	0
 3669 01ec 03       		.uleb128 0x3
 3670 01ed 08       		.uleb128 0x8
 3671 01ee 3A       		.uleb128 0x3a
 3672 01ef 0B       		.uleb128 0xb
 3673 01f0 3B       		.uleb128 0x3b
 3674 01f1 0B       		.uleb128 0xb
 3675 01f2 49       		.uleb128 0x49
 3676 01f3 13       		.uleb128 0x13
 3677 01f4 02       		.uleb128 0x2
 3678 01f5 17       		.uleb128 0x17
 3679 01f6 00       		.byte	0
 3680 01f7 00       		.byte	0
 3681 01f8 28       		.uleb128 0x28
 3682 01f9 898201   		.uleb128 0x4109
 3683 01fc 01       		.byte	0x1
 3684 01fd 11       		.uleb128 0x11
 3685 01fe 01       		.uleb128 0x1
 3686 01ff 31       		.uleb128 0x31
 3687 0200 13       		.uleb128 0x13
 3688 0201 01       		.uleb128 0x1
 3689 0202 13       		.uleb128 0x13
 3690 0203 00       		.byte	0
 3691 0204 00       		.byte	0
 3692 0205 29       		.uleb128 0x29
 3693 0206 8A8201   		.uleb128 0x410a
ARM GAS  /var/folders/3j/4xdnk5197cv_b7cw3n33qk7r0000gn/T//ccUI6O0C.s 			page 66


 3694 0209 00       		.byte	0
 3695 020a 02       		.uleb128 0x2
 3696 020b 18       		.uleb128 0x18
 3697 020c 9142     		.uleb128 0x2111
 3698 020e 18       		.uleb128 0x18
 3699 020f 00       		.byte	0
 3700 0210 00       		.byte	0
 3701 0211 2A       		.uleb128 0x2a
 3702 0212 898201   		.uleb128 0x4109
 3703 0215 01       		.byte	0x1
 3704 0216 11       		.uleb128 0x11
 3705 0217 01       		.uleb128 0x1
 3706 0218 31       		.uleb128 0x31
 3707 0219 13       		.uleb128 0x13
 3708 021a 00       		.byte	0
 3709 021b 00       		.byte	0
 3710 021c 2B       		.uleb128 0x2b
 3711 021d 2E       		.uleb128 0x2e
 3712 021e 01       		.byte	0x1
 3713 021f 03       		.uleb128 0x3
 3714 0220 0E       		.uleb128 0xe
 3715 0221 3A       		.uleb128 0x3a
 3716 0222 0B       		.uleb128 0xb
 3717 0223 3B       		.uleb128 0x3b
 3718 0224 0B       		.uleb128 0xb
 3719 0225 27       		.uleb128 0x27
 3720 0226 19       		.uleb128 0x19
 3721 0227 11       		.uleb128 0x11
 3722 0228 01       		.uleb128 0x1
 3723 0229 12       		.uleb128 0x12
 3724 022a 06       		.uleb128 0x6
 3725 022b 40       		.uleb128 0x40
 3726 022c 18       		.uleb128 0x18
 3727 022d 9742     		.uleb128 0x2117
 3728 022f 19       		.uleb128 0x19
 3729 0230 01       		.uleb128 0x1
 3730 0231 13       		.uleb128 0x13
 3731 0232 00       		.byte	0
 3732 0233 00       		.byte	0
 3733 0234 2C       		.uleb128 0x2c
 3734 0235 2E       		.uleb128 0x2e
 3735 0236 01       		.byte	0x1
 3736 0237 03       		.uleb128 0x3
 3737 0238 08       		.uleb128 0x8
 3738 0239 3A       		.uleb128 0x3a
 3739 023a 0B       		.uleb128 0xb
 3740 023b 3B       		.uleb128 0x3b
 3741 023c 0B       		.uleb128 0xb
 3742 023d 27       		.uleb128 0x27
 3743 023e 19       		.uleb128 0x19
 3744 023f 11       		.uleb128 0x11
 3745 0240 01       		.uleb128 0x1
 3746 0241 12       		.uleb128 0x12
 3747 0242 06       		.uleb128 0x6
 3748 0243 40       		.uleb128 0x40
 3749 0244 18       		.uleb128 0x18
 3750 0245 9742     		.uleb128 0x2117
ARM GAS  /var/folders/3j/4xdnk5197cv_b7cw3n33qk7r0000gn/T//ccUI6O0C.s 			page 67


 3751 0247 19       		.uleb128 0x19
 3752 0248 01       		.uleb128 0x1
 3753 0249 13       		.uleb128 0x13
 3754 024a 00       		.byte	0
 3755 024b 00       		.byte	0
 3756 024c 2D       		.uleb128 0x2d
 3757 024d 898201   		.uleb128 0x4109
 3758 0250 01       		.byte	0x1
 3759 0251 11       		.uleb128 0x11
 3760 0252 01       		.uleb128 0x1
 3761 0253 9542     		.uleb128 0x2115
 3762 0255 19       		.uleb128 0x19
 3763 0256 31       		.uleb128 0x31
 3764 0257 13       		.uleb128 0x13
 3765 0258 00       		.byte	0
 3766 0259 00       		.byte	0
 3767 025a 2E       		.uleb128 0x2e
 3768 025b 2E       		.uleb128 0x2e
 3769 025c 01       		.byte	0x1
 3770 025d 31       		.uleb128 0x31
 3771 025e 13       		.uleb128 0x13
 3772 025f 11       		.uleb128 0x11
 3773 0260 01       		.uleb128 0x1
 3774 0261 12       		.uleb128 0x12
 3775 0262 06       		.uleb128 0x6
 3776 0263 40       		.uleb128 0x40
 3777 0264 18       		.uleb128 0x18
 3778 0265 9742     		.uleb128 0x2117
 3779 0267 19       		.uleb128 0x19
 3780 0268 01       		.uleb128 0x1
 3781 0269 13       		.uleb128 0x13
 3782 026a 00       		.byte	0
 3783 026b 00       		.byte	0
 3784 026c 2F       		.uleb128 0x2f
 3785 026d 34       		.uleb128 0x34
 3786 026e 00       		.byte	0
 3787 026f 31       		.uleb128 0x31
 3788 0270 13       		.uleb128 0x13
 3789 0271 02       		.uleb128 0x2
 3790 0272 17       		.uleb128 0x17
 3791 0273 00       		.byte	0
 3792 0274 00       		.byte	0
 3793 0275 30       		.uleb128 0x30
 3794 0276 34       		.uleb128 0x34
 3795 0277 00       		.byte	0
 3796 0278 31       		.uleb128 0x31
 3797 0279 13       		.uleb128 0x13
 3798 027a 00       		.byte	0
 3799 027b 00       		.byte	0
 3800 027c 31       		.uleb128 0x31
 3801 027d 0B       		.uleb128 0xb
 3802 027e 01       		.byte	0x1
 3803 027f 11       		.uleb128 0x11
 3804 0280 01       		.uleb128 0x1
 3805 0281 12       		.uleb128 0x12
 3806 0282 06       		.uleb128 0x6
 3807 0283 01       		.uleb128 0x1
ARM GAS  /var/folders/3j/4xdnk5197cv_b7cw3n33qk7r0000gn/T//ccUI6O0C.s 			page 68


 3808 0284 13       		.uleb128 0x13
 3809 0285 00       		.byte	0
 3810 0286 00       		.byte	0
 3811 0287 32       		.uleb128 0x32
 3812 0288 34       		.uleb128 0x34
 3813 0289 00       		.byte	0
 3814 028a 31       		.uleb128 0x31
 3815 028b 13       		.uleb128 0x13
 3816 028c 02       		.uleb128 0x2
 3817 028d 18       		.uleb128 0x18
 3818 028e 00       		.byte	0
 3819 028f 00       		.byte	0
 3820 0290 33       		.uleb128 0x33
 3821 0291 898201   		.uleb128 0x4109
 3822 0294 00       		.byte	0
 3823 0295 11       		.uleb128 0x11
 3824 0296 01       		.uleb128 0x1
 3825 0297 31       		.uleb128 0x31
 3826 0298 13       		.uleb128 0x13
 3827 0299 00       		.byte	0
 3828 029a 00       		.byte	0
 3829 029b 34       		.uleb128 0x34
 3830 029c 0B       		.uleb128 0xb
 3831 029d 01       		.byte	0x1
 3832 029e 55       		.uleb128 0x55
 3833 029f 17       		.uleb128 0x17
 3834 02a0 01       		.uleb128 0x1
 3835 02a1 13       		.uleb128 0x13
 3836 02a2 00       		.byte	0
 3837 02a3 00       		.byte	0
 3838 02a4 35       		.uleb128 0x35
 3839 02a5 2E       		.uleb128 0x2e
 3840 02a6 00       		.byte	0
 3841 02a7 3F       		.uleb128 0x3f
 3842 02a8 19       		.uleb128 0x19
 3843 02a9 3C       		.uleb128 0x3c
 3844 02aa 19       		.uleb128 0x19
 3845 02ab 6E       		.uleb128 0x6e
 3846 02ac 0E       		.uleb128 0xe
 3847 02ad 03       		.uleb128 0x3
 3848 02ae 0E       		.uleb128 0xe
 3849 02af 3A       		.uleb128 0x3a
 3850 02b0 0B       		.uleb128 0xb
 3851 02b1 3B       		.uleb128 0x3b
 3852 02b2 0B       		.uleb128 0xb
 3853 02b3 00       		.byte	0
 3854 02b4 00       		.byte	0
 3855 02b5 36       		.uleb128 0x36
 3856 02b6 2E       		.uleb128 0x2e
 3857 02b7 00       		.byte	0
 3858 02b8 3F       		.uleb128 0x3f
 3859 02b9 19       		.uleb128 0x19
 3860 02ba 3C       		.uleb128 0x3c
 3861 02bb 19       		.uleb128 0x19
 3862 02bc 6E       		.uleb128 0x6e
 3863 02bd 0E       		.uleb128 0xe
 3864 02be 03       		.uleb128 0x3
ARM GAS  /var/folders/3j/4xdnk5197cv_b7cw3n33qk7r0000gn/T//ccUI6O0C.s 			page 69


 3865 02bf 0E       		.uleb128 0xe
 3866 02c0 3A       		.uleb128 0x3a
 3867 02c1 0B       		.uleb128 0xb
 3868 02c2 3B       		.uleb128 0x3b
 3869 02c3 05       		.uleb128 0x5
 3870 02c4 00       		.byte	0
 3871 02c5 00       		.byte	0
 3872 02c6 00       		.byte	0
 3873              		.section	.debug_loc,"",%progbits
 3874              	.Ldebug_loc0:
 3875              	.LLST3:
 3876 0000 00000000 		.4byte	.LVL19
 3877 0004 0C000000 		.4byte	.LVL20
 3878 0008 0100     		.2byte	0x1
 3879 000a 50       		.byte	0x50
 3880 000b 0C000000 		.4byte	.LVL20
 3881 000f 34000000 		.4byte	.LFE14
 3882 0013 0400     		.2byte	0x4
 3883 0015 F3       		.byte	0xf3
 3884 0016 01       		.uleb128 0x1
 3885 0017 50       		.byte	0x50
 3886 0018 9F       		.byte	0x9f
 3887 0019 00000000 		.4byte	0
 3888 001d 00000000 		.4byte	0
 3889              	.LLST4:
 3890 0021 00000000 		.4byte	.LVL24
 3891 0025 0C000000 		.4byte	.LVL25
 3892 0029 0100     		.2byte	0x1
 3893 002b 50       		.byte	0x50
 3894 002c 0C000000 		.4byte	.LVL25
 3895 0030 24000000 		.4byte	.LFE13
 3896 0034 0100     		.2byte	0x1
 3897 0036 54       		.byte	0x54
 3898 0037 00000000 		.4byte	0
 3899 003b 00000000 		.4byte	0
 3900              	.LLST0:
 3901 003f 00000000 		.4byte	.LVL9
 3902 0043 04000000 		.4byte	.LVL10
 3903 0047 0100     		.2byte	0x1
 3904 0049 50       		.byte	0x50
 3905 004a 04000000 		.4byte	.LVL10
 3906 004e 08000000 		.4byte	.LFE10
 3907 0052 0400     		.2byte	0x4
 3908 0054 F3       		.byte	0xf3
 3909 0055 01       		.uleb128 0x1
 3910 0056 50       		.byte	0x50
 3911 0057 9F       		.byte	0x9f
 3912 0058 00000000 		.4byte	0
 3913 005c 00000000 		.4byte	0
 3914              	.LLST1:
 3915 0060 00000000 		.4byte	.LVL12
 3916 0064 04000000 		.4byte	.LVL13
 3917 0068 0100     		.2byte	0x1
 3918 006a 50       		.byte	0x50
 3919 006b 04000000 		.4byte	.LVL13
 3920 006f 08000000 		.4byte	.LFE9
 3921 0073 0400     		.2byte	0x4
ARM GAS  /var/folders/3j/4xdnk5197cv_b7cw3n33qk7r0000gn/T//ccUI6O0C.s 			page 70


 3922 0075 F3       		.byte	0xf3
 3923 0076 01       		.uleb128 0x1
 3924 0077 50       		.byte	0x50
 3925 0078 9F       		.byte	0x9f
 3926 0079 00000000 		.4byte	0
 3927 007d 00000000 		.4byte	0
 3928              	.LLST2:
 3929 0081 00000000 		.4byte	.LVL15
 3930 0085 04000000 		.4byte	.LVL16
 3931 0089 0100     		.2byte	0x1
 3932 008b 50       		.byte	0x50
 3933 008c 04000000 		.4byte	.LVL16
 3934 0090 08000000 		.4byte	.LFE8
 3935 0094 0400     		.2byte	0x4
 3936 0096 F3       		.byte	0xf3
 3937 0097 01       		.uleb128 0x1
 3938 0098 50       		.byte	0x50
 3939 0099 9F       		.byte	0x9f
 3940 009a 00000000 		.4byte	0
 3941 009e 00000000 		.4byte	0
 3942              	.LLST5:
 3943 00a2 18000000 		.4byte	.LVL29
 3944 00a6 24000000 		.4byte	.LVL30
 3945 00aa 0100     		.2byte	0x1
 3946 00ac 50       		.byte	0x50
 3947 00ad 44000000 		.4byte	.LVL32
 3948 00b1 50000000 		.4byte	.LVL33
 3949 00b5 0100     		.2byte	0x1
 3950 00b7 50       		.byte	0x50
 3951 00b8 68000000 		.4byte	.LVL35
 3952 00bc 70000000 		.4byte	.LVL36
 3953 00c0 0100     		.2byte	0x1
 3954 00c2 50       		.byte	0x50
 3955 00c3 00000000 		.4byte	0
 3956 00c7 00000000 		.4byte	0
 3957              	.LLST6:
 3958 00cb B4000000 		.4byte	.LVL39
 3959 00cf D4000000 		.4byte	.LVL43
 3960 00d3 0300     		.2byte	0x3
 3961 00d5 74       		.byte	0x74
 3962 00d6 32       		.sleb128 50
 3963 00d7 9F       		.byte	0x9f
 3964 00d8 D4000000 		.4byte	.LVL43
 3965 00dc DB000000 		.4byte	.LVL45-1
 3966 00e0 0100     		.2byte	0x1
 3967 00e2 51       		.byte	0x51
 3968 00e3 DB000000 		.4byte	.LVL45-1
 3969 00e7 B0010000 		.4byte	.LVL63
 3970 00eb 0300     		.2byte	0x3
 3971 00ed 74       		.byte	0x74
 3972 00ee 32       		.sleb128 50
 3973 00ef 9F       		.byte	0x9f
 3974 00f0 B0010000 		.4byte	.LVL63
 3975 00f4 B7010000 		.4byte	.LVL65-1
 3976 00f8 0100     		.2byte	0x1
 3977 00fa 51       		.byte	0x51
 3978 00fb B7010000 		.4byte	.LVL65-1
ARM GAS  /var/folders/3j/4xdnk5197cv_b7cw3n33qk7r0000gn/T//ccUI6O0C.s 			page 71


 3979 00ff 04020000 		.4byte	.LVL70
 3980 0103 0300     		.2byte	0x3
 3981 0105 74       		.byte	0x74
 3982 0106 32       		.sleb128 50
 3983 0107 9F       		.byte	0x9f
 3984 0108 58020000 		.4byte	.LVL75
 3985 010c 70020000 		.4byte	.LVL78
 3986 0110 0300     		.2byte	0x3
 3987 0112 76       		.byte	0x76
 3988 0113 32       		.sleb128 50
 3989 0114 9F       		.byte	0x9f
 3990 0115 70020000 		.4byte	.LVL78
 3991 0119 77020000 		.4byte	.LVL79-1
 3992 011d 0100     		.2byte	0x1
 3993 011f 51       		.byte	0x51
 3994 0120 77020000 		.4byte	.LVL79-1
 3995 0124 1C030000 		.4byte	.LFE15
 3996 0128 0300     		.2byte	0x3
 3997 012a 76       		.byte	0x76
 3998 012b 32       		.sleb128 50
 3999 012c 9F       		.byte	0x9f
 4000 012d 00000000 		.4byte	0
 4001 0131 00000000 		.4byte	0
 4002              	.LLST7:
 4003 0135 10000000 		.4byte	.LVL88
 4004 0139 18000000 		.4byte	.LVL89
 4005 013d 0100     		.2byte	0x1
 4006 013f 50       		.byte	0x50
 4007 0140 30000000 		.4byte	.LVL91
 4008 0144 38000000 		.4byte	.LVL92
 4009 0148 0100     		.2byte	0x1
 4010 014a 50       		.byte	0x50
 4011 014b 50000000 		.4byte	.LVL94
 4012 014f 58000000 		.4byte	.LVL95
 4013 0153 0100     		.2byte	0x1
 4014 0155 50       		.byte	0x50
 4015 0156 00000000 		.4byte	0
 4016 015a 00000000 		.4byte	0
 4017              		.section	.debug_aranges,"",%progbits
 4018 0000 5C000000 		.4byte	0x5c
 4019 0004 0200     		.2byte	0x2
 4020 0006 00000000 		.4byte	.Ldebug_info0
 4021 000a 04       		.byte	0x4
 4022 000b 00       		.byte	0
 4023 000c 0000     		.2byte	0
 4024 000e 0000     		.2byte	0
 4025 0010 00000000 		.4byte	.LFB11
 4026 0014 D0000000 		.4byte	.LFE11-.LFB11
 4027 0018 00000000 		.4byte	.LFB10
 4028 001c 08000000 		.4byte	.LFE10-.LFB10
 4029 0020 00000000 		.4byte	.LFB9
 4030 0024 08000000 		.4byte	.LFE9-.LFB9
 4031 0028 00000000 		.4byte	.LFB8
 4032 002c 08000000 		.4byte	.LFE8-.LFB8
 4033 0030 00000000 		.4byte	.LFB7
 4034 0034 08000000 		.4byte	.LFE7-.LFB7
 4035 0038 00000000 		.4byte	.LFB14
ARM GAS  /var/folders/3j/4xdnk5197cv_b7cw3n33qk7r0000gn/T//ccUI6O0C.s 			page 72


 4036 003c 34000000 		.4byte	.LFE14-.LFB14
 4037 0040 00000000 		.4byte	.LFB13
 4038 0044 24000000 		.4byte	.LFE13-.LFB13
 4039 0048 00000000 		.4byte	.LFB15
 4040 004c 1C030000 		.4byte	.LFE15-.LFB15
 4041 0050 00000000 		.4byte	.LFB17
 4042 0054 D0000000 		.4byte	.LFE17-.LFB17
 4043 0058 00000000 		.4byte	0
 4044 005c 00000000 		.4byte	0
 4045              		.section	.debug_ranges,"",%progbits
 4046              	.Ldebug_ranges0:
 4047 0000 68000000 		.4byte	.LBB9
 4048 0004 BC000000 		.4byte	.LBE9
 4049 0008 C0000000 		.4byte	.LBB10
 4050 000c D0000000 		.4byte	.LBE10
 4051 0010 00000000 		.4byte	0
 4052 0014 00000000 		.4byte	0
 4053 0018 00000000 		.4byte	.LFB11
 4054 001c D0000000 		.4byte	.LFE11
 4055 0020 00000000 		.4byte	.LFB10
 4056 0024 08000000 		.4byte	.LFE10
 4057 0028 00000000 		.4byte	.LFB9
 4058 002c 08000000 		.4byte	.LFE9
 4059 0030 00000000 		.4byte	.LFB8
 4060 0034 08000000 		.4byte	.LFE8
 4061 0038 00000000 		.4byte	.LFB7
 4062 003c 08000000 		.4byte	.LFE7
 4063 0040 00000000 		.4byte	.LFB14
 4064 0044 34000000 		.4byte	.LFE14
 4065 0048 00000000 		.4byte	.LFB13
 4066 004c 24000000 		.4byte	.LFE13
 4067 0050 00000000 		.4byte	.LFB15
 4068 0054 1C030000 		.4byte	.LFE15
 4069 0058 00000000 		.4byte	.LFB17
 4070 005c D0000000 		.4byte	.LFE17
 4071 0060 00000000 		.4byte	0
 4072 0064 00000000 		.4byte	0
 4073              		.section	.debug_line,"",%progbits
 4074              	.Ldebug_line0:
 4075 0000 97020000 		.section	.debug_str,"MS",%progbits,1
 4075      02008D01 
 4075      00000201 
 4075      FB0E0D00 
 4075      01010101 
 4076              	.LASF155:
 4077 0000 2F557365 		.ascii	"/Users/kevinmalmsten/development_raspberry_pi/Backu"
 4077      72732F6B 
 4077      6576696E 
 4077      6D616C6D 
 4077      7374656E 
 4078 0033 7053656E 		.ascii	"pSensor_ChibiOS/__Backup_System\000"
 4078      736F725F 
 4078      43686962 
 4078      694F532F 
 4078      5F5F4261 
 4079              	.LASF98:
 4080 0053 63665F6F 		.ascii	"cf_off_older\000"
ARM GAS  /var/folders/3j/4xdnk5197cv_b7cw3n33qk7r0000gn/T//ccUI6O0C.s 			page 73


 4080      66665F6F 
 4080      6C646572 
 4080      00
 4081              	.LASF43:
 4082 0060 705F6D73 		.ascii	"p_msg\000"
 4082      6700
 4083              	.LASF83:
 4084 0066 7264796D 		.ascii	"rdymsg\000"
 4084      736700
 4085              	.LASF4:
 4086 006d 5F5F7569 		.ascii	"__uint8_t\000"
 4086      6E74385F 
 4086      7400
 4087              	.LASF69:
 4088 0077 76746C69 		.ascii	"vtlist\000"
 4088      737400
 4089              	.LASF134:
 4090 007e 63684576 		.ascii	"chEvtSignal\000"
 4090      74536967 
 4090      6E616C00 
 4091              	.LASF12:
 4092 008a 6C6F6E67 		.ascii	"long long unsigned int\000"
 4092      206C6F6E 
 4092      6720756E 
 4092      7369676E 
 4092      65642069 
 4093              	.LASF147:
 4094 00a1 63684576 		.ascii	"chEvtAddEvents\000"
 4094      74416464 
 4094      4576656E 
 4094      747300
 4095              	.LASF94:
 4096 00b0 63685F74 		.ascii	"ch_threadsize\000"
 4096      68726561 
 4096      6473697A 
 4096      6500
 4097              	.LASF84:
 4098 00be 65786974 		.ascii	"exitcode\000"
 4098      636F6465 
 4098      00
 4099              	.LASF116:
 4100 00c7 74657374 		.ascii	"test\000"
 4100      00
 4101              	.LASF151:
 4102 00cc 63684576 		.ascii	"chEvtWaitAnyTimeout\000"
 4102      74576169 
 4102      74416E79 
 4102      54696D65 
 4102      6F757400 
 4103              	.LASF31:
 4104 00e0 705F7072 		.ascii	"p_prio\000"
 4104      696F00
 4105              	.LASF101:
 4106 00e7 63665F6F 		.ascii	"cf_off_state\000"
 4106      66665F73 
 4106      74617465 
 4106      00
ARM GAS  /var/folders/3j/4xdnk5197cv_b7cw3n33qk7r0000gn/T//ccUI6O0C.s 			page 74


 4107              	.LASF112:
 4108 00f4 74656172 		.ascii	"teardown\000"
 4108      646F776E 
 4108      00
 4109              	.LASF11:
 4110 00fd 6C6F6E67 		.ascii	"long long int\000"
 4110      206C6F6E 
 4110      6720696E 
 4110      7400
 4111              	.LASF1:
 4112 010b 7369676E 		.ascii	"signed char\000"
 4112      65642063 
 4112      68617200 
 4113              	.LASF100:
 4114 0117 63665F6F 		.ascii	"cf_off_stklimit\000"
 4114      66665F73 
 4114      746B6C69 
 4114      6D697400 
 4115              	.LASF152:
 4116 0127 63684576 		.ascii	"chEvtWaitAllTimeout\000"
 4116      74576169 
 4116      74416C6C 
 4116      54696D65 
 4116      6F757400 
 4117              	.LASF102:
 4118 013b 63665F6F 		.ascii	"cf_off_flags\000"
 4118      66665F66 
 4118      6C616773 
 4118      00
 4119              	.LASF17:
 4120 0148 626F6F6C 		.ascii	"bool_t\000"
 4120      5F7400
 4121              	.LASF72:
 4122 014f 6D5F7175 		.ascii	"m_queue\000"
 4122      65756500 
 4123              	.LASF140:
 4124 0157 74657374 		.ascii	"test_emit_token\000"
 4124      5F656D69 
 4124      745F746F 
 4124      6B656E00 
 4125              	.LASF153:
 4126 0167 474E5520 		.ascii	"GNU C11 7.3.1 20180622 (release) [ARM/embedded-7-br"
 4126      43313120 
 4126      372E332E 
 4126      31203230 
 4126      31383036 
 4127 019a 616E6368 		.ascii	"anch revision 261907] -mcpu=arm1176jz-s -mno-thumb-"
 4127      20726576 
 4127      6973696F 
 4127      6E203236 
 4127      31393037 
 4128 01cd 696E7465 		.ascii	"interwork -ggdb -O2 -fomit-frame-pointer -ffunction"
 4128      72776F72 
 4128      6B202D67 
 4128      67646220 
 4128      2D4F3220 
 4129 0200 2D736563 		.ascii	"-sections -fdata-sections\000"
ARM GAS  /var/folders/3j/4xdnk5197cv_b7cw3n33qk7r0000gn/T//ccUI6O0C.s 			page 75


 4129      74696F6E 
 4129      73202D66 
 4129      64617461 
 4129      2D736563 
 4130              	.LASF8:
 4131 021a 6C6F6E67 		.ascii	"long int\000"
 4131      20696E74 
 4131      00
 4132              	.LASF125:
 4133 0223 74617267 		.ascii	"target_time\000"
 4133      65745F74 
 4133      696D6500 
 4134              	.LASF19:
 4135 022f 74737461 		.ascii	"tstate_t\000"
 4135      74655F74 
 4135      00
 4136              	.LASF145:
 4137 0238 5F746573 		.ascii	"_test_assert_time_window\000"
 4137      745F6173 
 4137      73657274 
 4137      5F74696D 
 4137      655F7769 
 4138              	.LASF120:
 4139 0251 74657374 		.ascii	"testevt2\000"
 4139      65767432 
 4139      00
 4140              	.LASF148:
 4141 025a 63684576 		.ascii	"chEvtWaitAny\000"
 4141      74576169 
 4141      74416E79 
 4141      00
 4142              	.LASF121:
 4143 0267 74657374 		.ascii	"testevt3\000"
 4143      65767433 
 4143      00
 4144              	.LASF14:
 4145 0270 75696E74 		.ascii	"uint16_t\000"
 4145      31365F74 
 4145      00
 4146              	.LASF106:
 4147 0279 63686465 		.ascii	"chdebug_t\000"
 4147      6275675F 
 4147      7400
 4148              	.LASF114:
 4149 0283 62756666 		.ascii	"buffer\000"
 4149      657200
 4150              	.LASF33:
 4151 028a 705F6E65 		.ascii	"p_newer\000"
 4151      77657200 
 4152              	.LASF108:
 4153 0292 5F69646C 		.ascii	"_idle_thread_wa\000"
 4153      655F7468 
 4153      72656164 
 4153      5F776100 
 4154              	.LASF9:
 4155 02a2 5F5F7569 		.ascii	"__uint32_t\000"
 4155      6E743332 
ARM GAS  /var/folders/3j/4xdnk5197cv_b7cw3n33qk7r0000gn/T//ccUI6O0C.s 			page 76


 4155      5F7400
 4156              	.LASF50:
 4157 02ad 72656761 		.ascii	"regarm_t\000"
 4157      726D5F74 
 4157      00
 4158              	.LASF56:
 4159 02b6 76745F70 		.ascii	"vt_prev\000"
 4159      72657600 
 4160              	.LASF132:
 4161 02be 63684576 		.ascii	"chEvtBroadcastFlags\000"
 4161      7442726F 
 4161      61646361 
 4161      7374466C 
 4161      61677300 
 4162              	.LASF24:
 4163 02d2 6576656E 		.ascii	"eventid_t\000"
 4163      7469645F 
 4163      7400
 4164              	.LASF80:
 4165 02dc 4576656E 		.ascii	"EventSource\000"
 4165      74536F75 
 4165      72636500 
 4166              	.LASF82:
 4167 02e8 65766861 		.ascii	"evhandler_t\000"
 4167      6E646C65 
 4167      725F7400 
 4168              	.LASF0:
 4169 02f4 756E7369 		.ascii	"unsigned int\000"
 4169      676E6564 
 4169      20696E74 
 4169      00
 4170              	.LASF55:
 4171 0301 76745F6E 		.ascii	"vt_next\000"
 4171      65787400 
 4172              	.LASF10:
 4173 0309 6C6F6E67 		.ascii	"long unsigned int\000"
 4173      20756E73 
 4173      69676E65 
 4173      6420696E 
 4173      7400
 4174              	.LASF141:
 4175 031b 63684576 		.ascii	"chEvtGetAndClearEvents\000"
 4175      74476574 
 4175      416E6443 
 4175      6C656172 
 4175      4576656E 
 4176              	.LASF107:
 4177 0332 63685F64 		.ascii	"ch_debug\000"
 4177      65627567 
 4177      00
 4178              	.LASF117:
 4179 033b 74657374 		.ascii	"test_timer_done\000"
 4179      5F74696D 
 4179      65725F64 
 4179      6F6E6500 
 4180              	.LASF122:
 4181 034b 70617474 		.ascii	"patternevt\000"
ARM GAS  /var/folders/3j/4xdnk5197cv_b7cw3n33qk7r0000gn/T//ccUI6O0C.s 			page 77


 4181      65726E65 
 4181      767400
 4182              	.LASF53:
 4183 0356 76746675 		.ascii	"vtfunc_t\000"
 4183      6E635F74 
 4183      00
 4184              	.LASF88:
 4185 035f 63685F69 		.ascii	"ch_identifier\000"
 4185      64656E74 
 4185      69666965 
 4185      7200
 4186              	.LASF110:
 4187 036d 6E616D65 		.ascii	"name\000"
 4187      00
 4188              	.LASF52:
 4189 0372 636F6E74 		.ascii	"context\000"
 4189      65787400 
 4190              	.LASF6:
 4191 037a 73686F72 		.ascii	"short unsigned int\000"
 4191      7420756E 
 4191      7369676E 
 4191      65642069 
 4191      6E7400
 4192              	.LASF135:
 4193 038d 63684576 		.ascii	"chEvtRegisterMask\000"
 4193      74526567 
 4193      69737465 
 4193      724D6173 
 4193      6B00
 4194              	.LASF23:
 4195 039f 6D73675F 		.ascii	"msg_t\000"
 4195      7400
 4196              	.LASF46:
 4197 03a5 705F7265 		.ascii	"p_realprio\000"
 4197      616C7072 
 4197      696F00
 4198              	.LASF65:
 4199 03b0 725F6E65 		.ascii	"r_newer\000"
 4199      77657200 
 4200              	.LASF76:
 4201 03b8 656C5F6E 		.ascii	"el_next\000"
 4201      65787400 
 4202              	.LASF137:
 4203 03c0 63684576 		.ascii	"chEvtUnregister\000"
 4203      74556E72 
 4203      65676973 
 4203      74657200 
 4204              	.LASF115:
 4205 03d0 74687265 		.ascii	"threads\000"
 4205      61647300 
 4206              	.LASF18:
 4207 03d8 746D6F64 		.ascii	"tmode_t\000"
 4207      655F7400 
 4208              	.LASF48:
 4209 03e0 54687265 		.ascii	"ThreadsList\000"
 4209      6164734C 
 4209      69737400 
ARM GAS  /var/folders/3j/4xdnk5197cv_b7cw3n33qk7r0000gn/T//ccUI6O0C.s 			page 78


 4210              	.LASF25:
 4211 03ec 6576656E 		.ascii	"eventmask_t\000"
 4211      746D6173 
 4211      6B5F7400 
 4212              	.LASF71:
 4213 03f8 4D757465 		.ascii	"Mutex\000"
 4213      7800
 4214              	.LASF49:
 4215 03fe 73746B61 		.ascii	"stkalign_t\000"
 4215      6C69676E 
 4215      5F7400
 4216              	.LASF143:
 4217 0409 63685468 		.ascii	"chThdCreateStatic\000"
 4217      64437265 
 4217      61746553 
 4217      74617469 
 4217      6300
 4218              	.LASF89:
 4219 041b 63685F7A 		.ascii	"ch_zero\000"
 4219      65726F00 
 4220              	.LASF103:
 4221 0423 63665F6F 		.ascii	"cf_off_refs\000"
 4221      66665F72 
 4221      65667300 
 4222              	.LASF57:
 4223 042f 76745F74 		.ascii	"vt_time\000"
 4223      696D6500 
 4224              	.LASF131:
 4225 0437 65767431 		.ascii	"evt1_setup\000"
 4225      5F736574 
 4225      757000
 4226              	.LASF58:
 4227 0442 76745F66 		.ascii	"vt_func\000"
 4227      756E6300 
 4228              	.LASF138:
 4229 044a 63684576 		.ascii	"chEvtDispatch\000"
 4229      74446973 
 4229      70617463 
 4229      6800
 4230              	.LASF93:
 4231 0458 63685F74 		.ascii	"ch_timesize\000"
 4231      696D6573 
 4231      697A6500 
 4232              	.LASF128:
 4233 0464 65767433 		.ascii	"evt3_setup\000"
 4233      5F736574 
 4233      757000
 4234              	.LASF99:
 4235 046f 63665F6F 		.ascii	"cf_off_name\000"
 4235      66665F6E 
 4235      616D6500 
 4236              	.LASF146:
 4237 047b 74657374 		.ascii	"test_wait_threads\000"
 4237      5F776169 
 4237      745F7468 
 4237      72656164 
 4237      7300
ARM GAS  /var/folders/3j/4xdnk5197cv_b7cw3n33qk7r0000gn/T//ccUI6O0C.s 			page 79


 4238              	.LASF34:
 4239 048d 705F6F6C 		.ascii	"p_older\000"
 4239      64657200 
 4240              	.LASF127:
 4241 0495 74687265 		.ascii	"thread1\000"
 4241      61643100 
 4242              	.LASF124:
 4243 049d 65767432 		.ascii	"evt2_execute\000"
 4243      5F657865 
 4243      63757465 
 4243      00
 4244              	.LASF64:
 4245 04aa 725F6374 		.ascii	"r_ctx\000"
 4245      7800
 4246              	.LASF47:
 4247 04b0 54687265 		.ascii	"ThreadsQueue\000"
 4247      61647351 
 4247      75657565 
 4247      00
 4248              	.LASF90:
 4249 04bd 63685F73 		.ascii	"ch_size\000"
 4249      697A6500 
 4250              	.LASF111:
 4251 04c5 73657475 		.ascii	"setup\000"
 4251      7000
 4252              	.LASF139:
 4253 04cb 5F746573 		.ascii	"_test_assert_sequence\000"
 4253      745F6173 
 4253      73657274 
 4253      5F736571 
 4253      75656E63 
 4254              	.LASF149:
 4255 04e1 63684576 		.ascii	"chEvtWaitAll\000"
 4255      74576169 
 4255      74416C6C 
 4255      00
 4256              	.LASF67:
 4257 04ee 725F6375 		.ascii	"r_current\000"
 4257      7272656E 
 4257      7400
 4258              	.LASF66:
 4259 04f8 725F6F6C 		.ascii	"r_older\000"
 4259      64657200 
 4260              	.LASF78:
 4261 0500 656C5F6D 		.ascii	"el_mask\000"
 4261      61736B00 
 4262              	.LASF129:
 4263 0508 65767432 		.ascii	"evt2_setup\000"
 4263      5F736574 
 4263      757000
 4264              	.LASF20:
 4265 0513 74726566 		.ascii	"trefs_t\000"
 4265      735F7400 
 4266              	.LASF92:
 4267 051b 63685F70 		.ascii	"ch_ptrsize\000"
 4267      74727369 
 4267      7A6500
ARM GAS  /var/folders/3j/4xdnk5197cv_b7cw3n33qk7r0000gn/T//ccUI6O0C.s 			page 80


 4268              	.LASF30:
 4269 0526 705F7072 		.ascii	"p_prev\000"
 4269      657600
 4270              	.LASF113:
 4271 052d 65786563 		.ascii	"execute\000"
 4271      75746500 
 4272              	.LASF22:
 4273 0535 74707269 		.ascii	"tprio_t\000"
 4273      6F5F7400 
 4274              	.LASF15:
 4275 053d 696E7433 		.ascii	"int32_t\000"
 4275      325F7400 
 4276              	.LASF2:
 4277 0545 756E7369 		.ascii	"unsigned char\000"
 4277      676E6564 
 4277      20636861 
 4277      7200
 4278              	.LASF144:
 4279 0553 63684576 		.ascii	"chEvtWaitOne\000"
 4279      74576169 
 4279      744F6E65 
 4279      00
 4280              	.LASF77:
 4281 0560 656C5F6C 		.ascii	"el_listener\000"
 4281      69737465 
 4281      6E657200 
 4282              	.LASF123:
 4283 056c 65767433 		.ascii	"evt3_execute\000"
 4283      5F657865 
 4283      63757465 
 4283      00
 4284              	.LASF79:
 4285 0579 656C5F66 		.ascii	"el_flags\000"
 4285      6C616773 
 4285      00
 4286              	.LASF45:
 4287 0582 705F6D74 		.ascii	"p_mtxlist\000"
 4287      786C6973 
 4287      7400
 4288              	.LASF3:
 4289 058c 73686F72 		.ascii	"short int\000"
 4289      7420696E 
 4289      7400
 4290              	.LASF36:
 4291 0596 705F7374 		.ascii	"p_state\000"
 4291      61746500 
 4292              	.LASF39:
 4293 059e 705F7072 		.ascii	"p_preempt\000"
 4293      65656D70 
 4293      7400
 4294              	.LASF105:
 4295 05a8 63665F6F 		.ascii	"cf_off_time\000"
 4295      66665F74 
 4295      696D6500 
 4296              	.LASF63:
 4297 05b4 725F7072 		.ascii	"r_prio\000"
 4297      696F00
ARM GAS  /var/folders/3j/4xdnk5197cv_b7cw3n33qk7r0000gn/T//ccUI6O0C.s 			page 81


 4298              	.LASF86:
 4299 05bb 65776D61 		.ascii	"ewmask\000"
 4299      736B00
 4300              	.LASF29:
 4301 05c2 705F6E65 		.ascii	"p_next\000"
 4301      787400
 4302              	.LASF104:
 4303 05c9 63665F6F 		.ascii	"cf_off_preempt\000"
 4303      66665F70 
 4303      7265656D 
 4303      707400
 4304              	.LASF37:
 4305 05d8 705F666C 		.ascii	"p_flags\000"
 4305      61677300 
 4306              	.LASF28:
 4307 05e0 54687265 		.ascii	"Thread\000"
 4307      616400
 4308              	.LASF97:
 4309 05e7 63665F6F 		.ascii	"cf_off_newer\000"
 4309      66665F6E 
 4309      65776572 
 4309      00
 4310              	.LASF109:
 4311 05f4 74657374 		.ascii	"testcase\000"
 4311      63617365 
 4311      00
 4312              	.LASF44:
 4313 05fd 705F6570 		.ascii	"p_epending\000"
 4313      656E6469 
 4313      6E6700
 4314              	.LASF133:
 4315 0608 63685468 		.ascii	"chThdSleep\000"
 4315      64536C65 
 4315      657000
 4316              	.LASF119:
 4317 0613 74657374 		.ascii	"testevt1\000"
 4317      65767431 
 4317      00
 4318              	.LASF118:
 4319 061c 6576686E 		.ascii	"evhndl\000"
 4319      646C00
 4320              	.LASF16:
 4321 0623 75696E74 		.ascii	"uint32_t\000"
 4321      33325F74 
 4321      00
 4322              	.LASF95:
 4323 062c 63665F6F 		.ascii	"cf_off_prio\000"
 4323      66665F70 
 4323      72696F00 
 4324              	.LASF62:
 4325 0638 725F7175 		.ascii	"r_queue\000"
 4325      65756500 
 4326              	.LASF54:
 4327 0640 56697274 		.ascii	"VirtualTimer\000"
 4327      75616C54 
 4327      696D6572 
 4327      00
ARM GAS  /var/folders/3j/4xdnk5197cv_b7cw3n33qk7r0000gn/T//ccUI6O0C.s 			page 82


 4328              	.LASF21:
 4329 064d 74736C69 		.ascii	"tslices_t\000"
 4329      6365735F 
 4329      7400
 4330              	.LASF87:
 4331 0657 63686172 		.ascii	"char\000"
 4331      00
 4332              	.LASF156:
 4333 065c 74657374 		.ascii	"test_buffers\000"
 4333      5F627566 
 4333      66657273 
 4333      00
 4334              	.LASF5:
 4335 0669 5F5F7569 		.ascii	"__uint16_t\000"
 4335      6E743136 
 4335      5F7400
 4336              	.LASF126:
 4337 0674 74687265 		.ascii	"thread2\000"
 4337      61643200 
 4338              	.LASF74:
 4339 067c 6D5F6E65 		.ascii	"m_next\000"
 4339      787400
 4340              	.LASF27:
 4341 0683 73797374 		.ascii	"systime_t\000"
 4341      696D655F 
 4341      7400
 4342              	.LASF154:
 4343 068d 2E2E2F2F 		.ascii	"..//test/testevt.c\000"
 4343      74657374 
 4343      2F746573 
 4343      74657674 
 4343      2E6300
 4344              	.LASF7:
 4345 06a0 5F5F696E 		.ascii	"__int32_t\000"
 4345      7433325F 
 4345      7400
 4346              	.LASF40:
 4347 06aa 705F7469 		.ascii	"p_time\000"
 4347      6D6500
 4348              	.LASF51:
 4349 06b1 696E7463 		.ascii	"intctx\000"
 4349      747800
 4350              	.LASF42:
 4351 06b8 705F6D73 		.ascii	"p_msgqueue\000"
 4351      67717565 
 4351      756500
 4352              	.LASF59:
 4353 06c3 76745F70 		.ascii	"vt_par\000"
 4353      617200
 4354              	.LASF26:
 4355 06ca 666C6167 		.ascii	"flagsmask_t\000"
 4355      736D6173 
 4355      6B5F7400 
 4356              	.LASF96:
 4357 06d6 63665F6F 		.ascii	"cf_off_ctx\000"
 4357      66665F63 
 4357      747800
ARM GAS  /var/folders/3j/4xdnk5197cv_b7cw3n33qk7r0000gn/T//ccUI6O0C.s 			page 83


 4358              	.LASF38:
 4359 06e1 705F7265 		.ascii	"p_refs\000"
 4359      667300
 4360              	.LASF68:
 4361 06e8 52656164 		.ascii	"ReadyList\000"
 4361      794C6973 
 4361      7400
 4362              	.LASF70:
 4363 06f2 726C6973 		.ascii	"rlist\000"
 4363      7400
 4364              	.LASF13:
 4365 06f8 75696E74 		.ascii	"uint8_t\000"
 4365      385F7400 
 4366              	.LASF75:
 4367 0700 4576656E 		.ascii	"EventListener\000"
 4367      744C6973 
 4367      74656E65 
 4367      7200
 4368              	.LASF150:
 4369 070e 63684576 		.ascii	"chEvtWaitOneTimeout\000"
 4369      74576169 
 4369      744F6E65 
 4369      54696D65 
 4369      6F757400 
 4370              	.LASF85:
 4371 0722 77746F62 		.ascii	"wtobjp\000"
 4371      6A7000
 4372              	.LASF35:
 4373 0729 705F6E61 		.ascii	"p_name\000"
 4373      6D6500
 4374              	.LASF136:
 4375 0730 5F746573 		.ascii	"_test_assert\000"
 4375      745F6173 
 4375      73657274 
 4375      00
 4376              	.LASF60:
 4377 073d 76745F73 		.ascii	"vt_systime\000"
 4377      79737469 
 4377      6D6500
 4378              	.LASF81:
 4379 0748 65735F6E 		.ascii	"es_next\000"
 4379      65787400 
 4380              	.LASF91:
 4381 0750 63685F76 		.ascii	"ch_version\000"
 4381      65727369 
 4381      6F6E00
 4382              	.LASF61:
 4383 075b 56544C69 		.ascii	"VTList\000"
 4383      737400
 4384              	.LASF73:
 4385 0762 6D5F6F77 		.ascii	"m_owner\000"
 4385      6E657200 
 4386              	.LASF142:
 4387 076a 74657374 		.ascii	"test_wait_tick\000"
 4387      5F776169 
 4387      745F7469 
 4387      636B00
ARM GAS  /var/folders/3j/4xdnk5197cv_b7cw3n33qk7r0000gn/T//ccUI6O0C.s 			page 84


 4388              	.LASF130:
 4389 0779 65767431 		.ascii	"evt1_execute\000"
 4389      5F657865 
 4389      63757465 
 4389      00
 4390              	.LASF32:
 4391 0786 705F6374 		.ascii	"p_ctx\000"
 4391      7800
 4392              	.LASF41:
 4393 078c 705F7761 		.ascii	"p_waiting\000"
 4393      6974696E 
 4393      6700
 4394              		.ident	"GCC: (GNU Tools for Arm Embedded Processors 7-2018-q2-update) 7.3.1 20180622 (release) [AR
ARM GAS  /var/folders/3j/4xdnk5197cv_b7cw3n33qk7r0000gn/T//ccUI6O0C.s 			page 85


DEFINED SYMBOLS
                            *ABS*:0000000000000000 testevt.c
/var/folders/3j/4xdnk5197cv_b7cw3n33qk7r0000gn/T//ccUI6O0C.s:16     .text.evt1_execute:0000000000000000 $a
/var/folders/3j/4xdnk5197cv_b7cw3n33qk7r0000gn/T//ccUI6O0C.s:21     .text.evt1_execute:0000000000000000 evt1_execute
/var/folders/3j/4xdnk5197cv_b7cw3n33qk7r0000gn/T//ccUI6O0C.s:113    .text.evt1_execute:00000000000000c4 $d
/var/folders/3j/4xdnk5197cv_b7cw3n33qk7r0000gn/T//ccUI6O0C.s:120    .text.h3:0000000000000000 $a
/var/folders/3j/4xdnk5197cv_b7cw3n33qk7r0000gn/T//ccUI6O0C.s:125    .text.h3:0000000000000000 h3
/var/folders/3j/4xdnk5197cv_b7cw3n33qk7r0000gn/T//ccUI6O0C.s:142    .text.h2:0000000000000000 $a
/var/folders/3j/4xdnk5197cv_b7cw3n33qk7r0000gn/T//ccUI6O0C.s:147    .text.h2:0000000000000000 h2
/var/folders/3j/4xdnk5197cv_b7cw3n33qk7r0000gn/T//ccUI6O0C.s:164    .text.h1:0000000000000000 $a
/var/folders/3j/4xdnk5197cv_b7cw3n33qk7r0000gn/T//ccUI6O0C.s:169    .text.h1:0000000000000000 h1
/var/folders/3j/4xdnk5197cv_b7cw3n33qk7r0000gn/T//ccUI6O0C.s:186    .text.evt1_setup:0000000000000000 $a
/var/folders/3j/4xdnk5197cv_b7cw3n33qk7r0000gn/T//ccUI6O0C.s:191    .text.evt1_setup:0000000000000000 evt1_setup
/var/folders/3j/4xdnk5197cv_b7cw3n33qk7r0000gn/T//ccUI6O0C.s:206    .text.evt2_setup:0000000000000000 $a
/var/folders/3j/4xdnk5197cv_b7cw3n33qk7r0000gn/T//ccUI6O0C.s:211    .text.evt2_setup:0000000000000000 evt2_setup
/var/folders/3j/4xdnk5197cv_b7cw3n33qk7r0000gn/T//ccUI6O0C.s:222    .text.evt3_setup:0000000000000000 $a
/var/folders/3j/4xdnk5197cv_b7cw3n33qk7r0000gn/T//ccUI6O0C.s:227    .text.evt3_setup:0000000000000000 evt3_setup
/var/folders/3j/4xdnk5197cv_b7cw3n33qk7r0000gn/T//ccUI6O0C.s:238    .text.thread2:0000000000000000 $a
/var/folders/3j/4xdnk5197cv_b7cw3n33qk7r0000gn/T//ccUI6O0C.s:243    .text.thread2:0000000000000000 thread2
/var/folders/3j/4xdnk5197cv_b7cw3n33qk7r0000gn/T//ccUI6O0C.s:276    .text.thread2:000000000000002c $d
/var/folders/3j/4xdnk5197cv_b7cw3n33qk7r0000gn/T//ccUI6O0C.s:282    .text.thread1:0000000000000000 $a
/var/folders/3j/4xdnk5197cv_b7cw3n33qk7r0000gn/T//ccUI6O0C.s:287    .text.thread1:0000000000000000 thread1
/var/folders/3j/4xdnk5197cv_b7cw3n33qk7r0000gn/T//ccUI6O0C.s:317    .text.evt2_execute:0000000000000000 $a
/var/folders/3j/4xdnk5197cv_b7cw3n33qk7r0000gn/T//ccUI6O0C.s:322    .text.evt2_execute:0000000000000000 evt2_execute
/var/folders/3j/4xdnk5197cv_b7cw3n33qk7r0000gn/T//ccUI6O0C.s:660    .text.evt2_execute:00000000000002f8 $d
/var/folders/3j/4xdnk5197cv_b7cw3n33qk7r0000gn/T//ccUI6O0C.s:675    .text.evt3_execute:0000000000000000 $a
/var/folders/3j/4xdnk5197cv_b7cw3n33qk7r0000gn/T//ccUI6O0C.s:680    .text.evt3_execute:0000000000000000 evt3_execute
/var/folders/3j/4xdnk5197cv_b7cw3n33qk7r0000gn/T//ccUI6O0C.s:825    .rodata.patternevt:0000000000000000 patternevt
/var/folders/3j/4xdnk5197cv_b7cw3n33qk7r0000gn/T//ccUI6O0C.s:862    .rodata.testevt3:0000000000000000 testevt3
/var/folders/3j/4xdnk5197cv_b7cw3n33qk7r0000gn/T//ccUI6O0C.s:853    .rodata.testevt2:0000000000000000 testevt2
/var/folders/3j/4xdnk5197cv_b7cw3n33qk7r0000gn/T//ccUI6O0C.s:844    .rodata.testevt1:0000000000000000 testevt1
/var/folders/3j/4xdnk5197cv_b7cw3n33qk7r0000gn/T//ccUI6O0C.s:791    .data.es1:0000000000000000 $d
/var/folders/3j/4xdnk5197cv_b7cw3n33qk7r0000gn/T//ccUI6O0C.s:795    .data.es1:0000000000000000 es1
/var/folders/3j/4xdnk5197cv_b7cw3n33qk7r0000gn/T//ccUI6O0C.s:798    .data.es2:0000000000000000 $d
/var/folders/3j/4xdnk5197cv_b7cw3n33qk7r0000gn/T//ccUI6O0C.s:802    .data.es2:0000000000000000 es2
/var/folders/3j/4xdnk5197cv_b7cw3n33qk7r0000gn/T//ccUI6O0C.s:805    .rodata.evhndl:0000000000000000 $d
/var/folders/3j/4xdnk5197cv_b7cw3n33qk7r0000gn/T//ccUI6O0C.s:809    .rodata.evhndl:0000000000000000 evhndl
/var/folders/3j/4xdnk5197cv_b7cw3n33qk7r0000gn/T//ccUI6O0C.s:814    .rodata.evt1_execute.str1.4:0000000000000000 $d
/var/folders/3j/4xdnk5197cv_b7cw3n33qk7r0000gn/T//ccUI6O0C.s:818    .rodata.evt2_execute.str1.4:0000000000000000 $d
/var/folders/3j/4xdnk5197cv_b7cw3n33qk7r0000gn/T//ccUI6O0C.s:822    .rodata.patternevt:0000000000000000 $d
/var/folders/3j/4xdnk5197cv_b7cw3n33qk7r0000gn/T//ccUI6O0C.s:831    .rodata.str1.4:0000000000000000 $d
/var/folders/3j/4xdnk5197cv_b7cw3n33qk7r0000gn/T//ccUI6O0C.s:841    .rodata.testevt1:0000000000000000 $d
/var/folders/3j/4xdnk5197cv_b7cw3n33qk7r0000gn/T//ccUI6O0C.s:850    .rodata.testevt2:0000000000000000 $d
/var/folders/3j/4xdnk5197cv_b7cw3n33qk7r0000gn/T//ccUI6O0C.s:859    .rodata.testevt3:0000000000000000 $d

UNDEFINED SYMBOLS
chEvtRegisterMask
_test_assert
chEvtUnregister
chEvtDispatch
_test_assert_sequence
test_emit_token
chEvtGetAndClearEvents
chEvtBroadcastFlags
chThdSleep
chEvtSignal
chEvtAddEvents
ARM GAS  /var/folders/3j/4xdnk5197cv_b7cw3n33qk7r0000gn/T//ccUI6O0C.s 			page 86


chEvtWaitOne
test_wait_tick
chThdCreateStatic
_test_assert_time_window
test_wait_threads
chEvtWaitAny
chEvtWaitAll
rlist
wa
vtlist
threads
chEvtWaitOneTimeout
chEvtWaitAnyTimeout
chEvtWaitAllTimeout
