ARM GAS  /var/folders/3j/4xdnk5197cv_b7cw3n33qk7r0000gn/T//ccuV4VJj.s 			page 1


   1              		.cpu arm1176jz-s
   2              		.eabi_attribute 20, 1
   3              		.eabi_attribute 21, 1
   4              		.eabi_attribute 23, 3
   5              		.eabi_attribute 24, 1
   6              		.eabi_attribute 25, 1
   7              		.eabi_attribute 26, 1
   8              		.eabi_attribute 30, 2
   9              		.eabi_attribute 34, 1
  10              		.eabi_attribute 18, 4
  11              		.file	"testbmk.c"
  12              		.text
  13              	.Ltext0:
  14              		.cfi_sections	.debug_frame
  15              		.section	.text.thread2,"ax",%progbits
  16              		.align	2
  17              		.syntax unified
  18              		.arm
  19              		.fpu softvfp
  20              		.type	thread2, %function
  21              	thread2:
  22              	.LFB11:
  23              		.file 1 "..//test/testbmk.c"
  24              		.loc 1 158 0
  25              		.cfi_startproc
  26              		@ args = 0, pretend = 0, frame = 0
  27              		@ frame_needed = 0, uses_anonymous_args = 0
  28              		@ link register save eliminated.
  29              	.LVL0:
  30              		.loc 1 161 0
  31 0000 1EFF2FE1 		bx	lr
  32              		.cfi_endproc
  33              	.LFE11:
  34              		.size	thread2, .-thread2
  35              		.section	.text.tmo,"ax",%progbits
  36              		.align	2
  37              		.syntax unified
  38              		.arm
  39              		.fpu softvfp
  40              		.type	tmo, %function
  41              	tmo:
  42              	.LFB23:
  43              		.loc 1 504 0
  44              		.cfi_startproc
  45              		@ args = 0, pretend = 0, frame = 0
  46              		@ frame_needed = 0, uses_anonymous_args = 0
  47              		@ link register save eliminated.
  48              	.LVL1:
  49              		.loc 1 504 0
  50 0000 1EFF2FE1 		bx	lr
  51              		.cfi_endproc
  52              	.LFE23:
  53              		.size	tmo, .-tmo
  54              		.section	.text.bmk13_execute,"ax",%progbits
  55              		.align	2
  56              		.syntax unified
  57              		.arm
ARM GAS  /var/folders/3j/4xdnk5197cv_b7cw3n33qk7r0000gn/T//ccuV4VJj.s 			page 2


  58              		.fpu softvfp
  59              		.type	bmk13_execute, %function
  60              	bmk13_execute:
  61              	.LFB29:
  62              		.loc 1 637 0
  63              		.cfi_startproc
  64              		@ args = 0, pretend = 0, frame = 0
  65              		@ frame_needed = 0, uses_anonymous_args = 0
  66 0000 10402DE9 		push	{r4, lr}
  67              		.cfi_def_cfa_offset 8
  68              		.cfi_offset 4, -8
  69              		.cfi_offset 14, -4
  70              		.loc 1 639 0
  71 0004 F0009FE5 		ldr	r0, .L6
  72              		.loc 1 645 0
  73 0008 F0409FE5 		ldr	r4, .L6+4
  74              		.loc 1 639 0
  75 000c FEFFFFEB 		bl	test_print
  76              	.LVL2:
  77              		.loc 1 640 0
  78 0010 160EA0E3 		mov	r0, #352
  79 0014 FEFFFFEB 		bl	test_printn
  80              	.LVL3:
  81              		.loc 1 645 0
  82 0018 0400A0E1 		mov	r0, r4
  83 001c FEFFFFEB 		bl	test_println
  84              	.LVL4:
  85              		.loc 1 646 0
  86 0020 DC009FE5 		ldr	r0, .L6+8
  87 0024 FEFFFFEB 		bl	test_print
  88              	.LVL5:
  89              		.loc 1 647 0
  90 0028 4400A0E3 		mov	r0, #68
  91 002c FEFFFFEB 		bl	test_printn
  92              	.LVL6:
  93              		.loc 1 648 0
  94 0030 0400A0E1 		mov	r0, r4
  95 0034 FEFFFFEB 		bl	test_println
  96              	.LVL7:
  97              		.loc 1 649 0
  98 0038 C8009FE5 		ldr	r0, .L6+12
  99 003c FEFFFFEB 		bl	test_print
 100              	.LVL8:
 101              		.loc 1 650 0
 102 0040 1400A0E3 		mov	r0, #20
 103 0044 FEFFFFEB 		bl	test_printn
 104              	.LVL9:
 105              		.loc 1 651 0
 106 0048 0400A0E1 		mov	r0, r4
 107 004c FEFFFFEB 		bl	test_println
 108              	.LVL10:
 109              		.loc 1 652 0
 110 0050 B4009FE5 		ldr	r0, .L6+16
 111 0054 FEFFFFEB 		bl	test_print
 112              	.LVL11:
 113              		.loc 1 653 0
 114 0058 0C00A0E3 		mov	r0, #12
ARM GAS  /var/folders/3j/4xdnk5197cv_b7cw3n33qk7r0000gn/T//ccuV4VJj.s 			page 3


 115 005c FEFFFFEB 		bl	test_printn
 116              	.LVL12:
 117              		.loc 1 654 0
 118 0060 0400A0E1 		mov	r0, r4
 119 0064 FEFFFFEB 		bl	test_println
 120              	.LVL13:
 121              		.loc 1 656 0
 122 0068 A0009FE5 		ldr	r0, .L6+20
 123 006c FEFFFFEB 		bl	test_print
 124              	.LVL14:
 125              		.loc 1 657 0
 126 0070 0400A0E3 		mov	r0, #4
 127 0074 FEFFFFEB 		bl	test_printn
 128              	.LVL15:
 129              		.loc 1 658 0
 130 0078 0400A0E1 		mov	r0, r4
 131 007c FEFFFFEB 		bl	test_println
 132              	.LVL16:
 133              		.loc 1 659 0
 134 0080 8C009FE5 		ldr	r0, .L6+24
 135 0084 FEFFFFEB 		bl	test_print
 136              	.LVL17:
 137              		.loc 1 660 0
 138 0088 1000A0E3 		mov	r0, #16
 139 008c FEFFFFEB 		bl	test_printn
 140              	.LVL18:
 141              		.loc 1 661 0
 142 0090 0400A0E1 		mov	r0, r4
 143 0094 FEFFFFEB 		bl	test_println
 144              	.LVL19:
 145              		.loc 1 664 0
 146 0098 78009FE5 		ldr	r0, .L6+28
 147 009c FEFFFFEB 		bl	test_print
 148              	.LVL20:
 149              		.loc 1 665 0
 150 00a0 1000A0E3 		mov	r0, #16
 151 00a4 FEFFFFEB 		bl	test_printn
 152              	.LVL21:
 153              		.loc 1 666 0
 154 00a8 0400A0E1 		mov	r0, r4
 155 00ac FEFFFFEB 		bl	test_println
 156              	.LVL22:
 157              		.loc 1 669 0
 158 00b0 64009FE5 		ldr	r0, .L6+32
 159 00b4 FEFFFFEB 		bl	test_print
 160              	.LVL23:
 161              		.loc 1 670 0
 162 00b8 0800A0E3 		mov	r0, #8
 163 00bc FEFFFFEB 		bl	test_printn
 164              	.LVL24:
 165              		.loc 1 671 0
 166 00c0 0400A0E1 		mov	r0, r4
 167 00c4 FEFFFFEB 		bl	test_println
 168              	.LVL25:
 169              		.loc 1 674 0
 170 00c8 50009FE5 		ldr	r0, .L6+36
 171 00cc FEFFFFEB 		bl	test_print
ARM GAS  /var/folders/3j/4xdnk5197cv_b7cw3n33qk7r0000gn/T//ccuV4VJj.s 			page 4


 172              	.LVL26:
 173              		.loc 1 675 0
 174 00d0 2400A0E3 		mov	r0, #36
 175 00d4 FEFFFFEB 		bl	test_printn
 176              	.LVL27:
 177              		.loc 1 676 0
 178 00d8 0400A0E1 		mov	r0, r4
 179 00dc FEFFFFEB 		bl	test_println
 180              	.LVL28:
 181              		.loc 1 679 0
 182 00e0 3C009FE5 		ldr	r0, .L6+40
 183 00e4 FEFFFFEB 		bl	test_print
 184              	.LVL29:
 185              		.loc 1 680 0
 186 00e8 2800A0E3 		mov	r0, #40
 187 00ec FEFFFFEB 		bl	test_printn
 188              	.LVL30:
 189              		.loc 1 681 0
 190 00f0 0400A0E1 		mov	r0, r4
 191              		.loc 1 683 0
 192 00f4 1040BDE8 		pop	{r4, lr}
 193              		.cfi_restore 14
 194              		.cfi_restore 4
 195              		.cfi_def_cfa_offset 0
 196              		.loc 1 681 0
 197 00f8 FEFFFFEA 		b	test_println
 198              	.LVL31:
 199              	.L7:
 200              		.align	2
 201              	.L6:
 202 00fc 00000000 		.word	.LC0
 203 0100 10000000 		.word	.LC1
 204 0104 18000000 		.word	.LC2
 205 0108 28000000 		.word	.LC3
 206 010c 38000000 		.word	.LC4
 207 0110 48000000 		.word	.LC5
 208 0114 58000000 		.word	.LC6
 209 0118 68000000 		.word	.LC7
 210 011c 78000000 		.word	.LC8
 211 0120 88000000 		.word	.LC9
 212 0124 98000000 		.word	.LC10
 213              		.cfi_endproc
 214              	.LFE29:
 215              		.size	bmk13_execute, .-bmk13_execute
 216              		.section	.text.thread1,"ax",%progbits
 217              		.align	2
 218              		.syntax unified
 219              		.arm
 220              		.fpu softvfp
 221              		.type	thread1, %function
 222              	thread1:
 223              	.LFB7:
 224              		.loc 1 68 0
 225              		.cfi_startproc
 226              		@ args = 0, pretend = 0, frame = 0
 227              		@ frame_needed = 0, uses_anonymous_args = 0
 228              	.LVL32:
ARM GAS  /var/folders/3j/4xdnk5197cv_b7cw3n33qk7r0000gn/T//ccuV4VJj.s 			page 5


 229 0000 10402DE9 		push	{r4, lr}
 230              		.cfi_def_cfa_offset 8
 231              		.cfi_offset 4, -8
 232              		.cfi_offset 14, -4
 233              	.LVL33:
 234              	.L9:
 235              		.loc 1 74 0 discriminator 1
 236 0004 FEFFFFEB 		bl	chMsgWait
 237              	.LVL34:
 238              		.loc 1 75 0 discriminator 1
 239 0008 344090E5 		ldr	r4, [r0, #52]
 240              	.LVL35:
 241              		.loc 1 76 0 discriminator 1
 242 000c 0410A0E1 		mov	r1, r4
 243 0010 FEFFFFEB 		bl	chMsgRelease
 244              	.LVL36:
 245              		.loc 1 77 0 discriminator 1
 246 0014 000054E3 		cmp	r4, #0
 247 0018 F9FFFF1A 		bne	.L9
 248              		.loc 1 79 0
 249 001c 0400A0E1 		mov	r0, r4
 250 0020 1080BDE8 		pop	{r4, pc}
 251              		.cfi_endproc
 252              	.LFE7:
 253              		.size	thread1, .-thread1
 254              		.section	.text.bmk6_execute,"ax",%progbits
 255              		.align	2
 256              		.syntax unified
 257              		.arm
 258              		.fpu softvfp
 259              		.type	bmk6_execute, %function
 260              	bmk6_execute:
 261              	.LFB16:
 262              		.loc 1 308 0
 263              		.cfi_startproc
 264              		@ args = 0, pretend = 0, frame = 0
 265              		@ frame_needed = 0, uses_anonymous_args = 0
 266              	.LVL37:
 267 0000 F0432DE9 		push	{r4, r5, r6, r7, r8, r9, lr}
 268              		.cfi_def_cfa_offset 28
 269              		.cfi_offset 4, -28
 270              		.cfi_offset 5, -24
 271              		.cfi_offset 6, -20
 272              		.cfi_offset 7, -16
 273              		.cfi_offset 8, -12
 274              		.cfi_offset 9, -8
 275              		.cfi_offset 14, -4
 276              		.loc 1 310 0
 277 0004 0040A0E3 		mov	r4, #0
 278              		.loc 1 312 0
 279 0008 74309FE5 		ldr	r3, .L17
 280              		.loc 1 311 0
 281 000c 74209FE5 		ldr	r2, .L17+4
 282              		.loc 1 312 0
 283 0010 183093E5 		ldr	r3, [r3, #24]
 284              		.loc 1 308 0
 285 0014 0CD04DE2 		sub	sp, sp, #12
ARM GAS  /var/folders/3j/4xdnk5197cv_b7cw3n33qk7r0000gn/T//ccuV4VJj.s 			page 6


 286              		.cfi_def_cfa_offset 40
 287              		.loc 1 312 0
 288 0018 085093E5 		ldr	r5, [r3, #8]
 289              		.loc 1 311 0
 290 001c 009092E5 		ldr	r9, [r2]
 291              	.LVL38:
 292              		.loc 1 313 0
 293 0020 FEFFFFEB 		bl	test_wait_tick
 294              	.LVL39:
 295              		.loc 1 314 0
 296 0024 FA0FA0E3 		mov	r0, #1000
 297              		.loc 1 316 0
 298 0028 0480A0E1 		mov	r8, r4
 299              		.loc 1 314 0
 300 002c FEFFFFEB 		bl	test_start_timer
 301              	.LVL40:
 302 0030 54709FE5 		ldr	r7, .L17+8
 303              		.loc 1 316 0
 304 0034 54609FE5 		ldr	r6, .L17+12
 305              		.loc 1 312 0
 306 0038 015085E2 		add	r5, r5, #1
 307              	.LVL41:
 308              	.L13:
 309              		.loc 1 316 0 discriminator 1
 310 003c 0630A0E1 		mov	r3, r6
 311 0040 00808DE5 		str	r8, [sp]
 312 0044 0520A0E1 		mov	r2, r5
 313 0048 461FA0E3 		mov	r1, #280
 314 004c 0900A0E1 		mov	r0, r9
 315 0050 FEFFFFEB 		bl	chThdCreateStatic
 316              	.LVL42:
 317              		.loc 1 321 0 discriminator 1
 318 0054 003097E5 		ldr	r3, [r7]
 319              		.loc 1 317 0 discriminator 1
 320 0058 014084E2 		add	r4, r4, #1
 321              	.LVL43:
 322              		.loc 1 321 0 discriminator 1
 323 005c 000053E3 		cmp	r3, #0
 324 0060 F5FFFF0A 		beq	.L13
 325              		.loc 1 322 0
 326 0064 28009FE5 		ldr	r0, .L17+16
 327 0068 FEFFFFEB 		bl	test_print
 328              	.LVL44:
 329              		.loc 1 323 0
 330 006c 0400A0E1 		mov	r0, r4
 331 0070 FEFFFFEB 		bl	test_printn
 332              	.LVL45:
 333              		.loc 1 324 0
 334 0074 1C009FE5 		ldr	r0, .L17+20
 335              		.loc 1 325 0
 336 0078 0CD08DE2 		add	sp, sp, #12
 337              		.cfi_def_cfa_offset 28
 338              		@ sp needed
 339 007c F043BDE8 		pop	{r4, r5, r6, r7, r8, r9, lr}
 340              		.cfi_restore 14
 341              		.cfi_restore 9
 342              		.cfi_restore 8
ARM GAS  /var/folders/3j/4xdnk5197cv_b7cw3n33qk7r0000gn/T//ccuV4VJj.s 			page 7


 343              		.cfi_restore 7
 344              		.cfi_restore 6
 345              		.cfi_restore 5
 346              		.cfi_restore 4
 347              		.cfi_def_cfa_offset 0
 348              	.LVL46:
 349              		.loc 1 324 0
 350 0080 FEFFFFEA 		b	test_println
 351              	.LVL47:
 352              	.L18:
 353              		.align	2
 354              	.L17:
 355 0084 00000000 		.word	rlist
 356 0088 00000000 		.word	wa
 357 008c 00000000 		.word	test_timer_done
 358 0090 00000000 		.word	thread2
 359 0094 00000000 		.word	.LC11
 360 0098 10000000 		.word	.LC12
 361              		.cfi_endproc
 362              	.LFE16:
 363              		.size	bmk6_execute, .-bmk6_execute
 364              		.section	.text.msg_loop_test,"ax",%progbits
 365              		.align	2
 366              		.syntax unified
 367              		.arm
 368              		.fpu softvfp
 369              		.type	msg_loop_test, %function
 370              	msg_loop_test:
 371              	.LFB8:
 372              		.loc 1 84 0
 373              		.cfi_startproc
 374              		@ args = 0, pretend = 0, frame = 0
 375              		@ frame_needed = 0, uses_anonymous_args = 0
 376              	.LVL48:
 377 0000 70402DE9 		push	{r4, r5, r6, lr}
 378              		.cfi_def_cfa_offset 16
 379              		.cfi_offset 4, -16
 380              		.cfi_offset 5, -12
 381              		.cfi_offset 6, -8
 382              		.cfi_offset 14, -4
 383              		.loc 1 84 0
 384 0004 0050A0E1 		mov	r5, r0
 385              		.loc 1 87 0
 386 0008 FEFFFFEB 		bl	test_wait_tick
 387              	.LVL49:
 388              		.loc 1 88 0
 389 000c FA0FA0E3 		mov	r0, #1000
 390 0010 FEFFFFEB 		bl	test_start_timer
 391              	.LVL50:
 392              		.loc 1 86 0
 393 0014 0040A0E3 		mov	r4, #0
 394 0018 2C609FE5 		ldr	r6, .L24
 395              	.LVL51:
 396              	.L20:
 397              		.loc 1 90 0 discriminator 1
 398 001c 0110A0E3 		mov	r1, #1
 399 0020 0500A0E1 		mov	r0, r5
ARM GAS  /var/folders/3j/4xdnk5197cv_b7cw3n33qk7r0000gn/T//ccuV4VJj.s 			page 8


 400 0024 FEFFFFEB 		bl	chMsgSend
 401              	.LVL52:
 402              		.loc 1 95 0 discriminator 1
 403 0028 003096E5 		ldr	r3, [r6]
 404              		.loc 1 91 0 discriminator 1
 405 002c 014084E2 		add	r4, r4, #1
 406              	.LVL53:
 407              		.loc 1 95 0 discriminator 1
 408 0030 000053E3 		cmp	r3, #0
 409 0034 F8FFFF0A 		beq	.L20
 410              		.loc 1 96 0
 411 0038 0500A0E1 		mov	r0, r5
 412 003c 0010A0E3 		mov	r1, #0
 413 0040 FEFFFFEB 		bl	chMsgSend
 414              	.LVL54:
 415              		.loc 1 98 0
 416 0044 0400A0E1 		mov	r0, r4
 417 0048 7080BDE8 		pop	{r4, r5, r6, pc}
 418              	.L25:
 419              		.align	2
 420              	.L24:
 421 004c 00000000 		.word	test_timer_done
 422              		.cfi_endproc
 423              	.LFE8:
 424              		.size	msg_loop_test, .-msg_loop_test
 425              		.section	.text.bmk1_execute,"ax",%progbits
 426              		.align	2
 427              		.syntax unified
 428              		.arm
 429              		.fpu softvfp
 430              		.type	bmk1_execute, %function
 431              	bmk1_execute:
 432              	.LFB9:
 433              		.loc 1 109 0
 434              		.cfi_startproc
 435              		@ args = 0, pretend = 0, frame = 0
 436              		@ frame_needed = 0, uses_anonymous_args = 0
 437              		.loc 1 112 0
 438 0000 0030A0E3 		mov	r3, #0
 439              		.loc 1 109 0
 440 0004 10402DE9 		push	{r4, lr}
 441              		.cfi_def_cfa_offset 8
 442              		.cfi_offset 4, -8
 443              		.cfi_offset 14, -4
 444              		.loc 1 112 0
 445 0008 68209FE5 		ldr	r2, .L28
 446 000c 68109FE5 		ldr	r1, .L28+4
 447 0010 182092E5 		ldr	r2, [r2, #24]
 448              		.loc 1 109 0
 449 0014 08D04DE2 		sub	sp, sp, #8
 450              		.cfi_def_cfa_offset 16
 451              		.loc 1 112 0
 452 0018 082092E5 		ldr	r2, [r2, #8]
 453 001c 000091E5 		ldr	r0, [r1]
 454 0020 012042E2 		sub	r2, r2, #1
 455 0024 461FA0E3 		mov	r1, #280
 456 0028 00308DE5 		str	r3, [sp]
ARM GAS  /var/folders/3j/4xdnk5197cv_b7cw3n33qk7r0000gn/T//ccuV4VJj.s 			page 9


 457 002c 4C309FE5 		ldr	r3, .L28+8
 458 0030 FEFFFFEB 		bl	chThdCreateStatic
 459              	.LVL55:
 460 0034 48309FE5 		ldr	r3, .L28+12
 461 0038 000083E5 		str	r0, [r3]
 462              		.loc 1 113 0
 463 003c FEFFFFEB 		bl	msg_loop_test
 464              	.LVL56:
 465 0040 0040A0E1 		mov	r4, r0
 466              	.LVL57:
 467              		.loc 1 114 0
 468 0044 FEFFFFEB 		bl	test_wait_threads
 469              	.LVL58:
 470              		.loc 1 115 0
 471 0048 38009FE5 		ldr	r0, .L28+16
 472 004c FEFFFFEB 		bl	test_print
 473              	.LVL59:
 474              		.loc 1 116 0
 475 0050 0400A0E1 		mov	r0, r4
 476 0054 FEFFFFEB 		bl	test_printn
 477              	.LVL60:
 478              		.loc 1 117 0
 479 0058 2C009FE5 		ldr	r0, .L28+20
 480 005c FEFFFFEB 		bl	test_print
 481              	.LVL61:
 482              		.loc 1 118 0
 483 0060 8400A0E1 		lsl	r0, r4, #1
 484 0064 FEFFFFEB 		bl	test_printn
 485              	.LVL62:
 486              		.loc 1 119 0
 487 0068 20009FE5 		ldr	r0, .L28+24
 488              		.loc 1 120 0
 489 006c 08D08DE2 		add	sp, sp, #8
 490              		.cfi_def_cfa_offset 8
 491              		@ sp needed
 492 0070 1040BDE8 		pop	{r4, lr}
 493              		.cfi_restore 14
 494              		.cfi_restore 4
 495              		.cfi_def_cfa_offset 0
 496              	.LVL63:
 497              		.loc 1 119 0
 498 0074 FEFFFFEA 		b	test_println
 499              	.LVL64:
 500              	.L29:
 501              		.align	2
 502              	.L28:
 503 0078 00000000 		.word	rlist
 504 007c 00000000 		.word	wa
 505 0080 00000000 		.word	thread1
 506 0084 00000000 		.word	threads
 507 0088 00000000 		.word	.LC11
 508 008c 00000000 		.word	.LC13
 509 0090 0C000000 		.word	.LC14
 510              		.cfi_endproc
 511              	.LFE9:
 512              		.size	bmk1_execute, .-bmk1_execute
 513              		.section	.text.bmk2_execute,"ax",%progbits
ARM GAS  /var/folders/3j/4xdnk5197cv_b7cw3n33qk7r0000gn/T//ccuV4VJj.s 			page 10


 514              		.align	2
 515              		.syntax unified
 516              		.arm
 517              		.fpu softvfp
 518              		.type	bmk2_execute, %function
 519              	bmk2_execute:
 520              	.LFB10:
 521              		.loc 1 138 0
 522              		.cfi_startproc
 523              		@ args = 0, pretend = 0, frame = 0
 524              		@ frame_needed = 0, uses_anonymous_args = 0
 525              		.loc 1 141 0
 526 0000 0030A0E3 		mov	r3, #0
 527              		.loc 1 138 0
 528 0004 10402DE9 		push	{r4, lr}
 529              		.cfi_def_cfa_offset 8
 530              		.cfi_offset 4, -8
 531              		.cfi_offset 14, -4
 532              		.loc 1 141 0
 533 0008 68209FE5 		ldr	r2, .L32
 534 000c 68109FE5 		ldr	r1, .L32+4
 535 0010 182092E5 		ldr	r2, [r2, #24]
 536              		.loc 1 138 0
 537 0014 08D04DE2 		sub	sp, sp, #8
 538              		.cfi_def_cfa_offset 16
 539              		.loc 1 141 0
 540 0018 082092E5 		ldr	r2, [r2, #8]
 541 001c 000091E5 		ldr	r0, [r1]
 542 0020 012082E2 		add	r2, r2, #1
 543 0024 461FA0E3 		mov	r1, #280
 544 0028 00308DE5 		str	r3, [sp]
 545 002c 4C309FE5 		ldr	r3, .L32+8
 546 0030 FEFFFFEB 		bl	chThdCreateStatic
 547              	.LVL65:
 548 0034 48309FE5 		ldr	r3, .L32+12
 549 0038 000083E5 		str	r0, [r3]
 550              		.loc 1 142 0
 551 003c FEFFFFEB 		bl	msg_loop_test
 552              	.LVL66:
 553 0040 0040A0E1 		mov	r4, r0
 554              	.LVL67:
 555              		.loc 1 143 0
 556 0044 FEFFFFEB 		bl	test_wait_threads
 557              	.LVL68:
 558              		.loc 1 144 0
 559 0048 38009FE5 		ldr	r0, .L32+16
 560 004c FEFFFFEB 		bl	test_print
 561              	.LVL69:
 562              		.loc 1 145 0
 563 0050 0400A0E1 		mov	r0, r4
 564 0054 FEFFFFEB 		bl	test_printn
 565              	.LVL70:
 566              		.loc 1 146 0
 567 0058 2C009FE5 		ldr	r0, .L32+20
 568 005c FEFFFFEB 		bl	test_print
 569              	.LVL71:
 570              		.loc 1 147 0
ARM GAS  /var/folders/3j/4xdnk5197cv_b7cw3n33qk7r0000gn/T//ccuV4VJj.s 			page 11


 571 0060 8400A0E1 		lsl	r0, r4, #1
 572 0064 FEFFFFEB 		bl	test_printn
 573              	.LVL72:
 574              		.loc 1 148 0
 575 0068 20009FE5 		ldr	r0, .L32+24
 576              		.loc 1 149 0
 577 006c 08D08DE2 		add	sp, sp, #8
 578              		.cfi_def_cfa_offset 8
 579              		@ sp needed
 580 0070 1040BDE8 		pop	{r4, lr}
 581              		.cfi_restore 14
 582              		.cfi_restore 4
 583              		.cfi_def_cfa_offset 0
 584              	.LVL73:
 585              		.loc 1 148 0
 586 0074 FEFFFFEA 		b	test_println
 587              	.LVL74:
 588              	.L33:
 589              		.align	2
 590              	.L32:
 591 0078 00000000 		.word	rlist
 592 007c 00000000 		.word	wa
 593 0080 00000000 		.word	thread1
 594 0084 00000000 		.word	threads
 595 0088 00000000 		.word	.LC11
 596 008c 00000000 		.word	.LC13
 597 0090 0C000000 		.word	.LC14
 598              		.cfi_endproc
 599              	.LFE10:
 600              		.size	bmk2_execute, .-bmk2_execute
 601              		.section	.text.bmk3_execute,"ax",%progbits
 602              		.align	2
 603              		.syntax unified
 604              		.arm
 605              		.fpu softvfp
 606              		.type	bmk3_execute, %function
 607              	bmk3_execute:
 608              	.LFB12:
 609              		.loc 1 173 0
 610              		.cfi_startproc
 611              		@ args = 0, pretend = 0, frame = 0
 612              		@ frame_needed = 0, uses_anonymous_args = 0
 613 0000 F0412DE9 		push	{r4, r5, r6, r7, r8, lr}
 614              		.cfi_def_cfa_offset 24
 615              		.cfi_offset 4, -24
 616              		.cfi_offset 5, -20
 617              		.cfi_offset 6, -16
 618              		.cfi_offset 7, -12
 619              		.cfi_offset 8, -8
 620              		.cfi_offset 14, -4
 621              		.loc 1 176 0
 622 0004 0050A0E3 		mov	r5, #0
 623 0008 10719FE5 		ldr	r7, .L36
 624 000c 10619FE5 		ldr	r6, .L36+4
 625 0010 183097E5 		ldr	r3, [r7, #24]
 626              		.loc 1 173 0
 627 0014 08D04DE2 		sub	sp, sp, #8
ARM GAS  /var/folders/3j/4xdnk5197cv_b7cw3n33qk7r0000gn/T//ccuV4VJj.s 			page 12


 628              		.cfi_def_cfa_offset 32
 629              		.loc 1 176 0
 630 0018 082093E5 		ldr	r2, [r3, #8]
 631 001c 000096E5 		ldr	r0, [r6]
 632 0020 012082E2 		add	r2, r2, #1
 633 0024 00508DE5 		str	r5, [sp]
 634 0028 F8309FE5 		ldr	r3, .L36+8
 635 002c 461FA0E3 		mov	r1, #280
 636 0030 FEFFFFEB 		bl	chThdCreateStatic
 637              	.LVL75:
 638              		.loc 1 177 0
 639 0034 183097E5 		ldr	r3, [r7, #24]
 640              		.loc 1 176 0
 641 0038 EC409FE5 		ldr	r4, .L36+12
 642              		.loc 1 177 0
 643 003c 082093E5 		ldr	r2, [r3, #8]
 644 0040 E8809FE5 		ldr	r8, .L36+16
 645 0044 043096E5 		ldr	r3, [r6, #4]
 646              		.loc 1 176 0
 647 0048 000084E5 		str	r0, [r4]
 648              		.loc 1 177 0
 649 004c 022042E2 		sub	r2, r2, #2
 650 0050 00508DE5 		str	r5, [sp]
 651 0054 0300A0E1 		mov	r0, r3
 652 0058 461FA0E3 		mov	r1, #280
 653 005c 0830A0E1 		mov	r3, r8
 654 0060 FEFFFFEB 		bl	chThdCreateStatic
 655              	.LVL76:
 656              		.loc 1 178 0
 657 0064 182097E5 		ldr	r2, [r7, #24]
 658 0068 083096E5 		ldr	r3, [r6, #8]
 659 006c 082092E5 		ldr	r2, [r2, #8]
 660 0070 461FA0E3 		mov	r1, #280
 661              		.loc 1 177 0
 662 0074 040084E5 		str	r0, [r4, #4]
 663              		.loc 1 178 0
 664 0078 032042E2 		sub	r2, r2, #3
 665 007c 00508DE5 		str	r5, [sp]
 666 0080 0300A0E1 		mov	r0, r3
 667 0084 0830A0E1 		mov	r3, r8
 668 0088 FEFFFFEB 		bl	chThdCreateStatic
 669              	.LVL77:
 670              		.loc 1 179 0
 671 008c 182097E5 		ldr	r2, [r7, #24]
 672 0090 0C3096E5 		ldr	r3, [r6, #12]
 673 0094 082092E5 		ldr	r2, [r2, #8]
 674 0098 461FA0E3 		mov	r1, #280
 675              		.loc 1 178 0
 676 009c 080084E5 		str	r0, [r4, #8]
 677              		.loc 1 179 0
 678 00a0 042042E2 		sub	r2, r2, #4
 679 00a4 00508DE5 		str	r5, [sp]
 680 00a8 0300A0E1 		mov	r0, r3
 681 00ac 0830A0E1 		mov	r3, r8
 682 00b0 FEFFFFEB 		bl	chThdCreateStatic
 683              	.LVL78:
 684              		.loc 1 180 0
ARM GAS  /var/folders/3j/4xdnk5197cv_b7cw3n33qk7r0000gn/T//ccuV4VJj.s 			page 13


 685 00b4 182097E5 		ldr	r2, [r7, #24]
 686 00b8 103096E5 		ldr	r3, [r6, #16]
 687 00bc 082092E5 		ldr	r2, [r2, #8]
 688 00c0 461FA0E3 		mov	r1, #280
 689 00c4 052042E2 		sub	r2, r2, #5
 690              		.loc 1 179 0
 691 00c8 0C0084E5 		str	r0, [r4, #12]
 692              		.loc 1 180 0
 693 00cc 0300A0E1 		mov	r0, r3
 694 00d0 00508DE5 		str	r5, [sp]
 695 00d4 0830A0E1 		mov	r3, r8
 696 00d8 FEFFFFEB 		bl	chThdCreateStatic
 697              	.LVL79:
 698 00dc 100084E5 		str	r0, [r4, #16]
 699              		.loc 1 181 0
 700 00e0 000094E5 		ldr	r0, [r4]
 701 00e4 FEFFFFEB 		bl	msg_loop_test
 702              	.LVL80:
 703 00e8 0040A0E1 		mov	r4, r0
 704              	.LVL81:
 705              		.loc 1 182 0
 706 00ec FEFFFFEB 		bl	test_wait_threads
 707              	.LVL82:
 708              		.loc 1 183 0
 709 00f0 3C009FE5 		ldr	r0, .L36+20
 710 00f4 FEFFFFEB 		bl	test_print
 711              	.LVL83:
 712              		.loc 1 184 0
 713 00f8 0400A0E1 		mov	r0, r4
 714 00fc FEFFFFEB 		bl	test_printn
 715              	.LVL84:
 716              		.loc 1 185 0
 717 0100 30009FE5 		ldr	r0, .L36+24
 718 0104 FEFFFFEB 		bl	test_print
 719              	.LVL85:
 720              		.loc 1 186 0
 721 0108 8400A0E1 		lsl	r0, r4, #1
 722 010c FEFFFFEB 		bl	test_printn
 723              	.LVL86:
 724              		.loc 1 187 0
 725 0110 24009FE5 		ldr	r0, .L36+28
 726              		.loc 1 188 0
 727 0114 08D08DE2 		add	sp, sp, #8
 728              		.cfi_def_cfa_offset 24
 729              		@ sp needed
 730 0118 F041BDE8 		pop	{r4, r5, r6, r7, r8, lr}
 731              		.cfi_restore 14
 732              		.cfi_restore 8
 733              		.cfi_restore 7
 734              		.cfi_restore 6
 735              		.cfi_restore 5
 736              		.cfi_restore 4
 737              		.cfi_def_cfa_offset 0
 738              	.LVL87:
 739              		.loc 1 187 0
 740 011c FEFFFFEA 		b	test_println
 741              	.LVL88:
ARM GAS  /var/folders/3j/4xdnk5197cv_b7cw3n33qk7r0000gn/T//ccuV4VJj.s 			page 14


 742              	.L37:
 743              		.align	2
 744              	.L36:
 745 0120 00000000 		.word	rlist
 746 0124 00000000 		.word	wa
 747 0128 00000000 		.word	thread1
 748 012c 00000000 		.word	threads
 749 0130 00000000 		.word	thread2
 750 0134 00000000 		.word	.LC11
 751 0138 00000000 		.word	.LC13
 752 013c 0C000000 		.word	.LC14
 753              		.cfi_endproc
 754              	.LFE12:
 755              		.size	bmk3_execute, .-bmk3_execute
 756              		.section	.text.thread4,"ax",%progbits
 757              		.align	2
 758              		.global	thread4
 759              		.syntax unified
 760              		.arm
 761              		.fpu softvfp
 762              		.type	thread4, %function
 763              	thread4:
 764              	.LFB13:
 765              		.loc 1 207 0
 766              		.cfi_startproc
 767              		@ args = 0, pretend = 0, frame = 0
 768              		@ frame_needed = 0, uses_anonymous_args = 0
 769              	.LVL89:
 770              		.loc 1 209 0
 771 0000 28309FE5 		ldr	r3, .L43
 772              		.loc 1 207 0
 773 0004 10402DE9 		push	{r4, lr}
 774              		.cfi_def_cfa_offset 8
 775              		.cfi_offset 4, -8
 776              		.cfi_offset 14, -4
 777              		.loc 1 209 0
 778 0008 184093E5 		ldr	r4, [r3, #24]
 779              	.LVL90:
 780              		.loc 1 212 0
 781              		.syntax divided
 782              	@ 212 "..//test/testbmk.c" 1
 783 000c 9FF021E3 		msr     CPSR_c, #0x9F
 784              	@ 0 "" 2
 785              	.LVL91:
 786              		.arm
 787              		.syntax unified
 788              	.L39:
 789              		.loc 1 214 0 discriminator 1
 790 0010 0200A0E3 		mov	r0, #2
 791 0014 FEFFFFEB 		bl	chSchGoSleepS
 792              	.LVL92:
 793              		.loc 1 216 0 discriminator 1
 794 0018 243094E5 		ldr	r3, [r4, #36]
 795 001c 000053E3 		cmp	r3, #0
 796 0020 FAFFFF0A 		beq	.L39
 797              		.loc 1 217 0
 798              		.syntax divided
ARM GAS  /var/folders/3j/4xdnk5197cv_b7cw3n33qk7r0000gn/T//ccuV4VJj.s 			page 15


 799              	@ 217 "..//test/testbmk.c" 1
 800 0024 1FF021E3 		msr     CPSR_c, #0x1F
 801              	@ 0 "" 2
 802              		.loc 1 219 0
 803              		.arm
 804              		.syntax unified
 805 0028 0000A0E3 		mov	r0, #0
 806 002c 1080BDE8 		pop	{r4, pc}
 807              	.L44:
 808              		.align	2
 809              	.L43:
 810 0030 00000000 		.word	rlist
 811              		.cfi_endproc
 812              	.LFE13:
 813              		.size	thread4, .-thread4
 814              		.section	.text.bmk4_execute,"ax",%progbits
 815              		.align	2
 816              		.syntax unified
 817              		.arm
 818              		.fpu softvfp
 819              		.type	bmk4_execute, %function
 820              	bmk4_execute:
 821              	.LFB14:
 822              		.loc 1 221 0
 823              		.cfi_startproc
 824              		@ args = 0, pretend = 0, frame = 0
 825              		@ frame_needed = 0, uses_anonymous_args = 0
 826 0000 70402DE9 		push	{r4, r5, r6, lr}
 827              		.cfi_def_cfa_offset 16
 828              		.cfi_offset 4, -16
 829              		.cfi_offset 5, -12
 830              		.cfi_offset 6, -8
 831              		.cfi_offset 14, -4
 832              		.loc 1 225 0
 833 0004 0050A0E3 		mov	r5, #0
 834 0008 C0309FE5 		ldr	r3, .L50
 835 000c C0209FE5 		ldr	r2, .L50+4
 836 0010 183093E5 		ldr	r3, [r3, #24]
 837 0014 000092E5 		ldr	r0, [r2]
 838 0018 082093E5 		ldr	r2, [r3, #8]
 839              		.loc 1 221 0
 840 001c 08D04DE2 		sub	sp, sp, #8
 841              		.cfi_def_cfa_offset 24
 842              		.loc 1 225 0
 843 0020 012082E2 		add	r2, r2, #1
 844 0024 461FA0E3 		mov	r1, #280
 845 0028 A8309FE5 		ldr	r3, .L50+8
 846 002c 00508DE5 		str	r5, [sp]
 847 0030 FEFFFFEB 		bl	chThdCreateStatic
 848              	.LVL93:
 849 0034 A0309FE5 		ldr	r3, .L50+12
 850 0038 0040A0E1 		mov	r4, r0
 851 003c 000083E5 		str	r0, [r3]
 852              	.LVL94:
 853              		.loc 1 227 0
 854 0040 FEFFFFEB 		bl	test_wait_tick
 855              	.LVL95:
ARM GAS  /var/folders/3j/4xdnk5197cv_b7cw3n33qk7r0000gn/T//ccuV4VJj.s 			page 16


 856              		.loc 1 228 0
 857 0044 FA0FA0E3 		mov	r0, #1000
 858 0048 FEFFFFEB 		bl	test_start_timer
 859              	.LVL96:
 860 004c 8C609FE5 		ldr	r6, .L50+16
 861              	.LVL97:
 862              	.L46:
 863              		.loc 1 230 0 discriminator 1
 864              		.syntax divided
 865              	@ 230 "..//test/testbmk.c" 1
 866 0050 9FF021E3 		msr     CPSR_c, #0x9F
 867              	@ 0 "" 2
 868              		.loc 1 231 0 discriminator 1
 869              		.arm
 870              		.syntax unified
 871 0054 0010A0E3 		mov	r1, #0
 872 0058 0400A0E1 		mov	r0, r4
 873 005c FEFFFFEB 		bl	chSchWakeupS
 874              	.LVL98:
 875              		.loc 1 232 0 discriminator 1
 876 0060 0400A0E1 		mov	r0, r4
 877 0064 0010A0E3 		mov	r1, #0
 878 0068 FEFFFFEB 		bl	chSchWakeupS
 879              	.LVL99:
 880              		.loc 1 233 0 discriminator 1
 881 006c 0400A0E1 		mov	r0, r4
 882 0070 0010A0E3 		mov	r1, #0
 883 0074 FEFFFFEB 		bl	chSchWakeupS
 884              	.LVL100:
 885              		.loc 1 234 0 discriminator 1
 886 0078 0400A0E1 		mov	r0, r4
 887 007c 0010A0E3 		mov	r1, #0
 888 0080 FEFFFFEB 		bl	chSchWakeupS
 889              	.LVL101:
 890              		.loc 1 235 0 discriminator 1
 891              		.syntax divided
 892              	@ 235 "..//test/testbmk.c" 1
 893 0084 1FF021E3 		msr     CPSR_c, #0x1F
 894              	@ 0 "" 2
 895              		.loc 1 240 0 discriminator 1
 896              		.arm
 897              		.syntax unified
 898 0088 003096E5 		ldr	r3, [r6]
 899              		.loc 1 236 0 discriminator 1
 900 008c 045085E2 		add	r5, r5, #4
 901              	.LVL102:
 902              		.loc 1 240 0 discriminator 1
 903 0090 000053E3 		cmp	r3, #0
 904 0094 EDFFFF0A 		beq	.L46
 905              		.loc 1 241 0
 906              		.syntax divided
 907              	@ 241 "..//test/testbmk.c" 1
 908 0098 9FF021E3 		msr     CPSR_c, #0x9F
 909              	@ 0 "" 2
 910              		.loc 1 242 0
 911              		.arm
 912              		.syntax unified
ARM GAS  /var/folders/3j/4xdnk5197cv_b7cw3n33qk7r0000gn/T//ccuV4VJj.s 			page 17


 913 009c 0010E0E3 		mvn	r1, #0
 914 00a0 0400A0E1 		mov	r0, r4
 915 00a4 FEFFFFEB 		bl	chSchWakeupS
 916              	.LVL103:
 917              		.loc 1 243 0
 918              		.syntax divided
 919              	@ 243 "..//test/testbmk.c" 1
 920 00a8 1FF021E3 		msr     CPSR_c, #0x1F
 921              	@ 0 "" 2
 922              		.loc 1 245 0
 923              		.arm
 924              		.syntax unified
 925 00ac FEFFFFEB 		bl	test_wait_threads
 926              	.LVL104:
 927              		.loc 1 246 0
 928 00b0 2C009FE5 		ldr	r0, .L50+20
 929 00b4 FEFFFFEB 		bl	test_print
 930              	.LVL105:
 931              		.loc 1 247 0
 932 00b8 8500A0E1 		lsl	r0, r5, #1
 933 00bc FEFFFFEB 		bl	test_printn
 934              	.LVL106:
 935              		.loc 1 248 0
 936 00c0 20009FE5 		ldr	r0, .L50+24
 937              		.loc 1 249 0
 938 00c4 08D08DE2 		add	sp, sp, #8
 939              		.cfi_def_cfa_offset 16
 940              		@ sp needed
 941 00c8 7040BDE8 		pop	{r4, r5, r6, lr}
 942              		.cfi_restore 14
 943              		.cfi_restore 6
 944              		.cfi_restore 5
 945              		.cfi_restore 4
 946              		.cfi_def_cfa_offset 0
 947              	.LVL107:
 948              		.loc 1 248 0
 949 00cc FEFFFFEA 		b	test_println
 950              	.LVL108:
 951              	.L51:
 952              		.align	2
 953              	.L50:
 954 00d0 00000000 		.word	rlist
 955 00d4 00000000 		.word	wa
 956 00d8 00000000 		.word	thread4
 957 00dc 00000000 		.word	threads
 958 00e0 00000000 		.word	test_timer_done
 959 00e4 00000000 		.word	.LC11
 960 00e8 0C000000 		.word	.LC14
 961              		.cfi_endproc
 962              	.LFE14:
 963              		.size	bmk4_execute, .-bmk4_execute
 964              		.section	.text.bmk5_execute,"ax",%progbits
 965              		.align	2
 966              		.syntax unified
 967              		.arm
 968              		.fpu softvfp
 969              		.type	bmk5_execute, %function
ARM GAS  /var/folders/3j/4xdnk5197cv_b7cw3n33qk7r0000gn/T//ccuV4VJj.s 			page 18


 970              	bmk5_execute:
 971              	.LFB15:
 972              		.loc 1 269 0
 973              		.cfi_startproc
 974              		@ args = 0, pretend = 0, frame = 0
 975              		@ frame_needed = 0, uses_anonymous_args = 0
 976              	.LVL109:
 977 0000 F0432DE9 		push	{r4, r5, r6, r7, r8, r9, lr}
 978              		.cfi_def_cfa_offset 28
 979              		.cfi_offset 4, -28
 980              		.cfi_offset 5, -24
 981              		.cfi_offset 6, -20
 982              		.cfi_offset 7, -16
 983              		.cfi_offset 8, -12
 984              		.cfi_offset 9, -8
 985              		.cfi_offset 14, -4
 986              		.loc 1 271 0
 987 0004 0040A0E3 		mov	r4, #0
 988              		.loc 1 273 0
 989 0008 78309FE5 		ldr	r3, .L57
 990              		.loc 1 272 0
 991 000c 78209FE5 		ldr	r2, .L57+4
 992              		.loc 1 273 0
 993 0010 183093E5 		ldr	r3, [r3, #24]
 994              		.loc 1 269 0
 995 0014 0CD04DE2 		sub	sp, sp, #12
 996              		.cfi_def_cfa_offset 40
 997              		.loc 1 273 0
 998 0018 085093E5 		ldr	r5, [r3, #8]
 999              		.loc 1 272 0
 1000 001c 009092E5 		ldr	r9, [r2]
 1001              	.LVL110:
 1002              		.loc 1 274 0
 1003 0020 FEFFFFEB 		bl	test_wait_tick
 1004              	.LVL111:
 1005              		.loc 1 275 0
 1006 0024 FA0FA0E3 		mov	r0, #1000
 1007              		.loc 1 277 0
 1008 0028 0480A0E1 		mov	r8, r4
 1009              		.loc 1 275 0
 1010 002c FEFFFFEB 		bl	test_start_timer
 1011              	.LVL112:
 1012 0030 58709FE5 		ldr	r7, .L57+8
 1013              		.loc 1 277 0
 1014 0034 58609FE5 		ldr	r6, .L57+12
 1015              		.loc 1 273 0
 1016 0038 015045E2 		sub	r5, r5, #1
 1017              	.LVL113:
 1018              	.L53:
 1019              		.loc 1 277 0 discriminator 1
 1020 003c 0630A0E1 		mov	r3, r6
 1021 0040 0520A0E1 		mov	r2, r5
 1022 0044 461FA0E3 		mov	r1, #280
 1023 0048 00808DE5 		str	r8, [sp]
 1024 004c 0900A0E1 		mov	r0, r9
 1025 0050 FEFFFFEB 		bl	chThdCreateStatic
 1026              	.LVL114:
ARM GAS  /var/folders/3j/4xdnk5197cv_b7cw3n33qk7r0000gn/T//ccuV4VJj.s 			page 19


 1027 0054 FEFFFFEB 		bl	chThdWait
 1028              	.LVL115:
 1029              		.loc 1 282 0 discriminator 1
 1030 0058 003097E5 		ldr	r3, [r7]
 1031              		.loc 1 278 0 discriminator 1
 1032 005c 014084E2 		add	r4, r4, #1
 1033              	.LVL116:
 1034              		.loc 1 282 0 discriminator 1
 1035 0060 000053E3 		cmp	r3, #0
 1036 0064 F4FFFF0A 		beq	.L53
 1037              		.loc 1 283 0
 1038 0068 28009FE5 		ldr	r0, .L57+16
 1039 006c FEFFFFEB 		bl	test_print
 1040              	.LVL117:
 1041              		.loc 1 284 0
 1042 0070 0400A0E1 		mov	r0, r4
 1043 0074 FEFFFFEB 		bl	test_printn
 1044              	.LVL118:
 1045              		.loc 1 285 0
 1046 0078 1C009FE5 		ldr	r0, .L57+20
 1047              		.loc 1 286 0
 1048 007c 0CD08DE2 		add	sp, sp, #12
 1049              		.cfi_def_cfa_offset 28
 1050              		@ sp needed
 1051 0080 F043BDE8 		pop	{r4, r5, r6, r7, r8, r9, lr}
 1052              		.cfi_restore 14
 1053              		.cfi_restore 9
 1054              		.cfi_restore 8
 1055              		.cfi_restore 7
 1056              		.cfi_restore 6
 1057              		.cfi_restore 5
 1058              		.cfi_restore 4
 1059              		.cfi_def_cfa_offset 0
 1060              	.LVL119:
 1061              		.loc 1 285 0
 1062 0084 FEFFFFEA 		b	test_println
 1063              	.LVL120:
 1064              	.L58:
 1065              		.align	2
 1066              	.L57:
 1067 0088 00000000 		.word	rlist
 1068 008c 00000000 		.word	wa
 1069 0090 00000000 		.word	test_timer_done
 1070 0094 00000000 		.word	thread2
 1071 0098 00000000 		.word	.LC11
 1072 009c 10000000 		.word	.LC12
 1073              		.cfi_endproc
 1074              	.LFE15:
 1075              		.size	bmk5_execute, .-bmk5_execute
 1076              		.section	.text.bmk7_execute,"ax",%progbits
 1077              		.align	2
 1078              		.syntax unified
 1079              		.arm
 1080              		.fpu softvfp
 1081              		.type	bmk7_execute, %function
 1082              	bmk7_execute:
 1083              	.LFB19:
ARM GAS  /var/folders/3j/4xdnk5197cv_b7cw3n33qk7r0000gn/T//ccuV4VJj.s 			page 20


 1084              		.loc 1 358 0
 1085              		.cfi_startproc
 1086              		@ args = 0, pretend = 0, frame = 0
 1087              		@ frame_needed = 0, uses_anonymous_args = 0
 1088 0000 F0402DE9 		push	{r4, r5, r6, r7, lr}
 1089              		.cfi_def_cfa_offset 20
 1090              		.cfi_offset 4, -20
 1091              		.cfi_offset 5, -16
 1092              		.cfi_offset 6, -12
 1093              		.cfi_offset 7, -8
 1094              		.cfi_offset 14, -4
 1095              		.loc 1 361 0
 1096 0004 0040A0E3 		mov	r4, #0
 1097 0008 44719FE5 		ldr	r7, .L64
 1098 000c 44619FE5 		ldr	r6, .L64+4
 1099 0010 183097E5 		ldr	r3, [r7, #24]
 1100              		.loc 1 358 0
 1101 0014 0CD04DE2 		sub	sp, sp, #12
 1102              		.cfi_def_cfa_offset 32
 1103              		.loc 1 361 0
 1104 0018 082093E5 		ldr	r2, [r3, #8]
 1105 001c 000096E5 		ldr	r0, [r6]
 1106 0020 052082E2 		add	r2, r2, #5
 1107 0024 30319FE5 		ldr	r3, .L64+8
 1108 0028 461FA0E3 		mov	r1, #280
 1109 002c 00408DE5 		str	r4, [sp]
 1110 0030 FEFFFFEB 		bl	chThdCreateStatic
 1111              	.LVL121:
 1112              		.loc 1 362 0
 1113 0034 183097E5 		ldr	r3, [r7, #24]
 1114              		.loc 1 361 0
 1115 0038 20519FE5 		ldr	r5, .L64+12
 1116              		.loc 1 362 0
 1117 003c 082093E5 		ldr	r2, [r3, #8]
 1118 0040 043096E5 		ldr	r3, [r6, #4]
 1119              		.loc 1 361 0
 1120 0044 000085E5 		str	r0, [r5]
 1121              		.loc 1 362 0
 1122 0048 042082E2 		add	r2, r2, #4
 1123 004c 0300A0E1 		mov	r0, r3
 1124 0050 461FA0E3 		mov	r1, #280
 1125 0054 00319FE5 		ldr	r3, .L64+8
 1126 0058 00408DE5 		str	r4, [sp]
 1127 005c FEFFFFEB 		bl	chThdCreateStatic
 1128              	.LVL122:
 1129              		.loc 1 363 0
 1130 0060 182097E5 		ldr	r2, [r7, #24]
 1131 0064 083096E5 		ldr	r3, [r6, #8]
 1132 0068 082092E5 		ldr	r2, [r2, #8]
 1133 006c 461FA0E3 		mov	r1, #280
 1134              		.loc 1 362 0
 1135 0070 040085E5 		str	r0, [r5, #4]
 1136              		.loc 1 363 0
 1137 0074 032082E2 		add	r2, r2, #3
 1138 0078 0300A0E1 		mov	r0, r3
 1139 007c 00408DE5 		str	r4, [sp]
 1140 0080 D4309FE5 		ldr	r3, .L64+8
ARM GAS  /var/folders/3j/4xdnk5197cv_b7cw3n33qk7r0000gn/T//ccuV4VJj.s 			page 21


 1141 0084 FEFFFFEB 		bl	chThdCreateStatic
 1142              	.LVL123:
 1143              		.loc 1 364 0
 1144 0088 182097E5 		ldr	r2, [r7, #24]
 1145 008c 0C3096E5 		ldr	r3, [r6, #12]
 1146 0090 082092E5 		ldr	r2, [r2, #8]
 1147 0094 461FA0E3 		mov	r1, #280
 1148              		.loc 1 363 0
 1149 0098 080085E5 		str	r0, [r5, #8]
 1150              		.loc 1 364 0
 1151 009c 022082E2 		add	r2, r2, #2
 1152 00a0 0300A0E1 		mov	r0, r3
 1153 00a4 00408DE5 		str	r4, [sp]
 1154 00a8 AC309FE5 		ldr	r3, .L64+8
 1155 00ac FEFFFFEB 		bl	chThdCreateStatic
 1156              	.LVL124:
 1157              		.loc 1 365 0
 1158 00b0 182097E5 		ldr	r2, [r7, #24]
 1159 00b4 103096E5 		ldr	r3, [r6, #16]
 1160 00b8 082092E5 		ldr	r2, [r2, #8]
 1161 00bc 461FA0E3 		mov	r1, #280
 1162              		.loc 1 364 0
 1163 00c0 0C0085E5 		str	r0, [r5, #12]
 1164              		.loc 1 365 0
 1165 00c4 012082E2 		add	r2, r2, #1
 1166 00c8 0300A0E1 		mov	r0, r3
 1167 00cc 00408DE5 		str	r4, [sp]
 1168 00d0 84309FE5 		ldr	r3, .L64+8
 1169 00d4 FEFFFFEB 		bl	chThdCreateStatic
 1170              	.LVL125:
 1171 00d8 100085E5 		str	r0, [r5, #16]
 1172              	.LVL126:
 1173              		.loc 1 368 0
 1174 00dc FEFFFFEB 		bl	test_wait_tick
 1175              	.LVL127:
 1176              		.loc 1 369 0
 1177 00e0 FA0FA0E3 		mov	r0, #1000
 1178 00e4 FEFFFFEB 		bl	test_start_timer
 1179              	.LVL128:
 1180 00e8 74609FE5 		ldr	r6, .L64+16
 1181              		.loc 1 371 0
 1182 00ec 74509FE5 		ldr	r5, .L64+20
 1183              	.LVL129:
 1184              	.L60:
 1185              		.loc 1 371 0 is_stmt 0 discriminator 1
 1186 00f0 0010A0E3 		mov	r1, #0
 1187 00f4 0500A0E1 		mov	r0, r5
 1188 00f8 FEFFFFEB 		bl	chSemReset
 1189              	.LVL130:
 1190              		.loc 1 376 0 is_stmt 1 discriminator 1
 1191 00fc 003096E5 		ldr	r3, [r6]
 1192              		.loc 1 372 0 discriminator 1
 1193 0100 014084E2 		add	r4, r4, #1
 1194              	.LVL131:
 1195              		.loc 1 376 0 discriminator 1
 1196 0104 000053E3 		cmp	r3, #0
 1197 0108 F8FFFF0A 		beq	.L60
ARM GAS  /var/folders/3j/4xdnk5197cv_b7cw3n33qk7r0000gn/T//ccuV4VJj.s 			page 22


 1198              		.loc 1 377 0
 1199 010c FEFFFFEB 		bl	test_terminate_threads
 1200              	.LVL132:
 1201              		.loc 1 378 0
 1202 0110 0010A0E3 		mov	r1, #0
 1203 0114 4C009FE5 		ldr	r0, .L64+20
 1204 0118 FEFFFFEB 		bl	chSemReset
 1205              	.LVL133:
 1206              		.loc 1 379 0
 1207 011c FEFFFFEB 		bl	test_wait_threads
 1208              	.LVL134:
 1209              		.loc 1 381 0
 1210 0120 44009FE5 		ldr	r0, .L64+24
 1211 0124 FEFFFFEB 		bl	test_print
 1212              	.LVL135:
 1213              		.loc 1 382 0
 1214 0128 0400A0E1 		mov	r0, r4
 1215 012c FEFFFFEB 		bl	test_printn
 1216              	.LVL136:
 1217              		.loc 1 384 0
 1218 0130 844084E0 		add	r4, r4, r4, lsl #1
 1219              	.LVL137:
 1220              		.loc 1 383 0
 1221 0134 34009FE5 		ldr	r0, .L64+28
 1222 0138 FEFFFFEB 		bl	test_print
 1223              	.LVL138:
 1224              		.loc 1 384 0
 1225 013c 8400A0E1 		lsl	r0, r4, #1
 1226 0140 FEFFFFEB 		bl	test_printn
 1227              	.LVL139:
 1228              		.loc 1 385 0
 1229 0144 28009FE5 		ldr	r0, .L64+32
 1230              		.loc 1 386 0
 1231 0148 0CD08DE2 		add	sp, sp, #12
 1232              		.cfi_def_cfa_offset 20
 1233              		@ sp needed
 1234 014c F040BDE8 		pop	{r4, r5, r6, r7, lr}
 1235              		.cfi_restore 14
 1236              		.cfi_restore 7
 1237              		.cfi_restore 6
 1238              		.cfi_restore 5
 1239              		.cfi_restore 4
 1240              		.cfi_def_cfa_offset 0
 1241              		.loc 1 385 0
 1242 0150 FEFFFFEA 		b	test_println
 1243              	.LVL140:
 1244              	.L65:
 1245              		.align	2
 1246              	.L64:
 1247 0154 00000000 		.word	rlist
 1248 0158 00000000 		.word	wa
 1249 015c 00000000 		.word	thread3
 1250 0160 00000000 		.word	threads
 1251 0164 00000000 		.word	test_timer_done
 1252 0168 00000000 		.word	.LANCHOR0
 1253 016c 00000000 		.word	.LC11
 1254 0170 00000000 		.word	.LC15
ARM GAS  /var/folders/3j/4xdnk5197cv_b7cw3n33qk7r0000gn/T//ccuV4VJj.s 			page 23


 1255 0174 0C000000 		.word	.LC14
 1256              		.cfi_endproc
 1257              	.LFE19:
 1258              		.size	bmk7_execute, .-bmk7_execute
 1259              		.section	.text.thread3,"ax",%progbits
 1260              		.align	2
 1261              		.syntax unified
 1262              		.arm
 1263              		.fpu softvfp
 1264              		.type	thread3, %function
 1265              	thread3:
 1266              	.LFB17:
 1267              		.loc 1 345 0
 1268              		.cfi_startproc
 1269              		@ args = 0, pretend = 0, frame = 0
 1270              		@ frame_needed = 0, uses_anonymous_args = 0
 1271              	.LVL141:
 1272 0000 70402DE9 		push	{r4, r5, r6, lr}
 1273              		.cfi_def_cfa_offset 16
 1274              		.cfi_offset 4, -16
 1275              		.cfi_offset 5, -12
 1276              		.cfi_offset 6, -8
 1277              		.cfi_offset 14, -4
 1278              		.loc 1 348 0
 1279 0004 30409FE5 		ldr	r4, .L72
 1280 0008 183094E5 		ldr	r3, [r4, #24]
 1281 000c 1D30D3E5 		ldrb	r3, [r3, #29]	@ zero_extendqisi2
 1282 0010 040013E3 		tst	r3, #4
 1283 0014 0600001A 		bne	.L67
 1284              		.loc 1 349 0
 1285 0018 20509FE5 		ldr	r5, .L72+4
 1286              	.LVL142:
 1287              	.L68:
 1288 001c 0500A0E1 		mov	r0, r5
 1289 0020 FEFFFFEB 		bl	chSemWait
 1290              	.LVL143:
 1291              		.loc 1 348 0
 1292 0024 183094E5 		ldr	r3, [r4, #24]
 1293 0028 1D30D3E5 		ldrb	r3, [r3, #29]	@ zero_extendqisi2
 1294 002c 040013E3 		tst	r3, #4
 1295 0030 F9FFFF0A 		beq	.L68
 1296              	.L67:
 1297              		.loc 1 351 0
 1298 0034 0000A0E3 		mov	r0, #0
 1299 0038 7080BDE8 		pop	{r4, r5, r6, pc}
 1300              	.L73:
 1301              		.align	2
 1302              	.L72:
 1303 003c 00000000 		.word	rlist
 1304 0040 00000000 		.word	.LANCHOR0
 1305              		.cfi_endproc
 1306              	.LFE17:
 1307              		.size	thread3, .-thread3
 1308              		.section	.text.bmk7_setup,"ax",%progbits
 1309              		.align	2
 1310              		.syntax unified
 1311              		.arm
ARM GAS  /var/folders/3j/4xdnk5197cv_b7cw3n33qk7r0000gn/T//ccuV4VJj.s 			page 24


 1312              		.fpu softvfp
 1313              		.type	bmk7_setup, %function
 1314              	bmk7_setup:
 1315              	.LFB18:
 1316              		.loc 1 353 0
 1317              		.cfi_startproc
 1318              		@ args = 0, pretend = 0, frame = 0
 1319              		@ frame_needed = 0, uses_anonymous_args = 0
 1320              		@ link register save eliminated.
 1321              		.loc 1 355 0
 1322 0000 0010A0E3 		mov	r1, #0
 1323 0004 00009FE5 		ldr	r0, .L75
 1324 0008 FEFFFFEA 		b	chSemInit
 1325              	.LVL144:
 1326              	.L76:
 1327              		.align	2
 1328              	.L75:
 1329 000c 00000000 		.word	.LANCHOR0
 1330              		.cfi_endproc
 1331              	.LFE18:
 1332              		.size	bmk7_setup, .-bmk7_setup
 1333              		.section	.text.bmk11_setup,"ax",%progbits
 1334              		.align	2
 1335              		.syntax unified
 1336              		.arm
 1337              		.fpu softvfp
 1338              		.type	bmk11_setup, %function
 1339              	bmk11_setup:
 1340              	.LFB25:
 1341              		.loc 1 546 0
 1342              		.cfi_startproc
 1343              		@ args = 0, pretend = 0, frame = 0
 1344              		@ frame_needed = 0, uses_anonymous_args = 0
 1345              		@ link register save eliminated.
 1346              		.loc 1 548 0
 1347 0000 0110A0E3 		mov	r1, #1
 1348 0004 00009FE5 		ldr	r0, .L78
 1349 0008 FEFFFFEA 		b	chSemInit
 1350              	.LVL145:
 1351              	.L79:
 1352              		.align	2
 1353              	.L78:
 1354 000c 00000000 		.word	.LANCHOR0
 1355              		.cfi_endproc
 1356              	.LFE25:
 1357              		.size	bmk11_setup, .-bmk11_setup
 1358              		.section	.text.bmk8_execute,"ax",%progbits
 1359              		.align	2
 1360              		.syntax unified
 1361              		.arm
 1362              		.fpu softvfp
 1363              		.type	bmk8_execute, %function
 1364              	bmk8_execute:
 1365              	.LFB21:
 1366              		.loc 1 420 0
 1367              		.cfi_startproc
 1368              		@ args = 0, pretend = 0, frame = 8
ARM GAS  /var/folders/3j/4xdnk5197cv_b7cw3n33qk7r0000gn/T//ccuV4VJj.s 			page 25


 1369              		@ frame_needed = 0, uses_anonymous_args = 0
 1370              		.loc 1 423 0
 1371 0000 0030A0E3 		mov	r3, #0
 1372              		.loc 1 420 0
 1373 0004 F0412DE9 		push	{r4, r5, r6, r7, r8, lr}
 1374              		.cfi_def_cfa_offset 24
 1375              		.cfi_offset 4, -24
 1376              		.cfi_offset 5, -20
 1377              		.cfi_offset 6, -16
 1378              		.cfi_offset 7, -12
 1379              		.cfi_offset 8, -8
 1380              		.cfi_offset 14, -4
 1381              		.loc 1 426 0
 1382 0008 0C819FE5 		ldr	r8, .L82
 1383              		.loc 1 420 0
 1384 000c 10D04DE2 		sub	sp, sp, #16
 1385              		.cfi_def_cfa_offset 40
 1386              		.loc 1 423 0
 1387 0010 10408DE2 		add	r4, sp, #16
 1388 0014 043024E5 		str	r3, [r4, #-4]!
 1389              		.loc 1 424 0
 1390 0018 FEFFFFEB 		bl	test_wait_tick
 1391              	.LVL146:
 1392              		.loc 1 426 0
 1393 001c 183098E5 		ldr	r3, [r8, #24]
 1394 0020 F8709FE5 		ldr	r7, .L82+4
 1395 0024 F8609FE5 		ldr	r6, .L82+8
 1396 0028 082093E5 		ldr	r2, [r3, #8]
 1397 002c 000097E5 		ldr	r0, [r7]
 1398 0030 0630A0E1 		mov	r3, r6
 1399 0034 012042E2 		sub	r2, r2, #1
 1400 0038 00408DE5 		str	r4, [sp]
 1401 003c 461FA0E3 		mov	r1, #280
 1402 0040 FEFFFFEB 		bl	chThdCreateStatic
 1403              	.LVL147:
 1404              		.loc 1 427 0
 1405 0044 183098E5 		ldr	r3, [r8, #24]
 1406              		.loc 1 426 0
 1407 0048 D8509FE5 		ldr	r5, .L82+12
 1408              		.loc 1 427 0
 1409 004c 082093E5 		ldr	r2, [r3, #8]
 1410 0050 043097E5 		ldr	r3, [r7, #4]
 1411              		.loc 1 426 0
 1412 0054 000085E5 		str	r0, [r5]
 1413              		.loc 1 427 0
 1414 0058 012042E2 		sub	r2, r2, #1
 1415 005c 00408DE5 		str	r4, [sp]
 1416 0060 0300A0E1 		mov	r0, r3
 1417 0064 461FA0E3 		mov	r1, #280
 1418 0068 0630A0E1 		mov	r3, r6
 1419 006c FEFFFFEB 		bl	chThdCreateStatic
 1420              	.LVL148:
 1421              		.loc 1 428 0
 1422 0070 182098E5 		ldr	r2, [r8, #24]
 1423 0074 083097E5 		ldr	r3, [r7, #8]
 1424 0078 082092E5 		ldr	r2, [r2, #8]
 1425 007c 461FA0E3 		mov	r1, #280
ARM GAS  /var/folders/3j/4xdnk5197cv_b7cw3n33qk7r0000gn/T//ccuV4VJj.s 			page 26


 1426              		.loc 1 427 0
 1427 0080 040085E5 		str	r0, [r5, #4]
 1428              		.loc 1 428 0
 1429 0084 012042E2 		sub	r2, r2, #1
 1430 0088 00408DE5 		str	r4, [sp]
 1431 008c 0300A0E1 		mov	r0, r3
 1432 0090 0630A0E1 		mov	r3, r6
 1433 0094 FEFFFFEB 		bl	chThdCreateStatic
 1434              	.LVL149:
 1435              		.loc 1 429 0
 1436 0098 182098E5 		ldr	r2, [r8, #24]
 1437 009c 0C3097E5 		ldr	r3, [r7, #12]
 1438 00a0 082092E5 		ldr	r2, [r2, #8]
 1439 00a4 461FA0E3 		mov	r1, #280
 1440              		.loc 1 428 0
 1441 00a8 080085E5 		str	r0, [r5, #8]
 1442              		.loc 1 429 0
 1443 00ac 012042E2 		sub	r2, r2, #1
 1444 00b0 00408DE5 		str	r4, [sp]
 1445 00b4 0300A0E1 		mov	r0, r3
 1446 00b8 0630A0E1 		mov	r3, r6
 1447 00bc FEFFFFEB 		bl	chThdCreateStatic
 1448              	.LVL150:
 1449              		.loc 1 430 0
 1450 00c0 182098E5 		ldr	r2, [r8, #24]
 1451 00c4 103097E5 		ldr	r3, [r7, #16]
 1452 00c8 082092E5 		ldr	r2, [r2, #8]
 1453 00cc 461FA0E3 		mov	r1, #280
 1454 00d0 012042E2 		sub	r2, r2, #1
 1455              		.loc 1 429 0
 1456 00d4 0C0085E5 		str	r0, [r5, #12]
 1457              		.loc 1 430 0
 1458 00d8 00408DE5 		str	r4, [sp]
 1459 00dc 0300A0E1 		mov	r0, r3
 1460 00e0 0630A0E1 		mov	r3, r6
 1461 00e4 FEFFFFEB 		bl	chThdCreateStatic
 1462              	.LVL151:
 1463 00e8 100085E5 		str	r0, [r5, #16]
 1464              		.loc 1 432 0
 1465 00ec FA0FA0E3 		mov	r0, #1000
 1466 00f0 FEFFFFEB 		bl	chThdSleep
 1467              	.LVL152:
 1468              		.loc 1 433 0
 1469 00f4 FEFFFFEB 		bl	test_terminate_threads
 1470              	.LVL153:
 1471              		.loc 1 434 0
 1472 00f8 FEFFFFEB 		bl	test_wait_threads
 1473              	.LVL154:
 1474              		.loc 1 436 0
 1475 00fc 28009FE5 		ldr	r0, .L82+16
 1476 0100 FEFFFFEB 		bl	test_print
 1477              	.LVL155:
 1478              		.loc 1 437 0
 1479 0104 0C009DE5 		ldr	r0, [sp, #12]
 1480 0108 FEFFFFEB 		bl	test_printn
 1481              	.LVL156:
 1482              		.loc 1 438 0
ARM GAS  /var/folders/3j/4xdnk5197cv_b7cw3n33qk7r0000gn/T//ccuV4VJj.s 			page 27


 1483 010c 1C009FE5 		ldr	r0, .L82+20
 1484 0110 FEFFFFEB 		bl	test_println
 1485              	.LVL157:
 1486              		.loc 1 439 0
 1487 0114 10D08DE2 		add	sp, sp, #16
 1488              		.cfi_def_cfa_offset 24
 1489              		@ sp needed
 1490 0118 F081BDE8 		pop	{r4, r5, r6, r7, r8, pc}
 1491              	.L83:
 1492              		.align	2
 1493              	.L82:
 1494 011c 00000000 		.word	rlist
 1495 0120 00000000 		.word	wa
 1496 0124 00000000 		.word	thread8
 1497 0128 00000000 		.word	threads
 1498 012c 00000000 		.word	.LC11
 1499 0130 0C000000 		.word	.LC14
 1500              		.cfi_endproc
 1501              	.LFE21:
 1502              		.size	bmk8_execute, .-bmk8_execute
 1503              		.section	.text.thread8,"ax",%progbits
 1504              		.align	2
 1505              		.syntax unified
 1506              		.arm
 1507              		.fpu softvfp
 1508              		.type	thread8, %function
 1509              	thread8:
 1510              	.LFB20:
 1511              		.loc 1 405 0
 1512              		.cfi_startproc
 1513              		@ args = 0, pretend = 0, frame = 0
 1514              		@ frame_needed = 0, uses_anonymous_args = 0
 1515              	.LVL158:
 1516 0000 70402DE9 		push	{r4, r5, r6, lr}
 1517              		.cfi_def_cfa_offset 16
 1518              		.cfi_offset 4, -16
 1519              		.cfi_offset 5, -12
 1520              		.cfi_offset 6, -8
 1521              		.cfi_offset 14, -4
 1522              		.loc 1 405 0
 1523 0004 0040A0E1 		mov	r4, r0
 1524 0008 30509FE5 		ldr	r5, .L89
 1525              	.LVL159:
 1526              	.L85:
 1527              		.loc 1 408 0 discriminator 1
 1528 000c FEFFFFEB 		bl	chThdYield
 1529              	.LVL160:
 1530              		.loc 1 409 0 discriminator 1
 1531 0010 FEFFFFEB 		bl	chThdYield
 1532              	.LVL161:
 1533              		.loc 1 410 0 discriminator 1
 1534 0014 FEFFFFEB 		bl	chThdYield
 1535              	.LVL162:
 1536              		.loc 1 411 0 discriminator 1
 1537 0018 FEFFFFEB 		bl	chThdYield
 1538              	.LVL163:
 1539              		.loc 1 412 0 discriminator 1
ARM GAS  /var/folders/3j/4xdnk5197cv_b7cw3n33qk7r0000gn/T//ccuV4VJj.s 			page 28


 1540 001c 003094E5 		ldr	r3, [r4]
 1541              		.loc 1 416 0 discriminator 1
 1542 0020 182095E5 		ldr	r2, [r5, #24]
 1543              		.loc 1 412 0 discriminator 1
 1544 0024 043083E2 		add	r3, r3, #4
 1545 0028 003084E5 		str	r3, [r4]
 1546              		.loc 1 416 0 discriminator 1
 1547 002c 1D30D2E5 		ldrb	r3, [r2, #29]	@ zero_extendqisi2
 1548 0030 040013E3 		tst	r3, #4
 1549 0034 F4FFFF0A 		beq	.L85
 1550              		.loc 1 418 0
 1551 0038 0000A0E3 		mov	r0, #0
 1552 003c 7080BDE8 		pop	{r4, r5, r6, pc}
 1553              	.L90:
 1554              		.align	2
 1555              	.L89:
 1556 0040 00000000 		.word	rlist
 1557              		.cfi_endproc
 1558              	.LFE20:
 1559              		.size	thread8, .-thread8
 1560              		.section	.text.bmk9_execute,"ax",%progbits
 1561              		.align	2
 1562              		.syntax unified
 1563              		.arm
 1564              		.fpu softvfp
 1565              		.type	bmk9_execute, %function
 1566              	bmk9_execute:
 1567              	.LFB22:
 1568              		.loc 1 458 0
 1569              		.cfi_startproc
 1570              		@ args = 0, pretend = 0, frame = 0
 1571              		@ frame_needed = 0, uses_anonymous_args = 0
 1572 0000 70402DE9 		push	{r4, r5, r6, lr}
 1573              		.cfi_def_cfa_offset 16
 1574              		.cfi_offset 4, -16
 1575              		.cfi_offset 5, -12
 1576              		.cfi_offset 6, -8
 1577              		.cfi_offset 14, -4
 1578              		.loc 1 463 0
 1579 0004 0050A0E3 		mov	r5, #0
 1580              		.loc 1 458 0
 1581 0008 08D04DE2 		sub	sp, sp, #8
 1582              		.cfi_def_cfa_offset 24
 1583              		.loc 1 463 0
 1584 000c 1020A0E3 		mov	r2, #16
 1585 0010 0530A0E1 		mov	r3, r5
 1586 0014 B4109FE5 		ldr	r1, .L96
 1587 0018 B4009FE5 		ldr	r0, .L96+4
 1588 001c 00508DE5 		str	r5, [sp]
 1589 0020 FEFFFFEB 		bl	chIQInit
 1590              	.LVL164:
 1591              		.loc 1 465 0
 1592 0024 FEFFFFEB 		bl	test_wait_tick
 1593              	.LVL165:
 1594              		.loc 1 466 0
 1595 0028 FA0FA0E3 		mov	r0, #1000
 1596 002c FEFFFFEB 		bl	test_start_timer
ARM GAS  /var/folders/3j/4xdnk5197cv_b7cw3n33qk7r0000gn/T//ccuV4VJj.s 			page 29


 1597              	.LVL166:
 1598 0030 A0609FE5 		ldr	r6, .L96+8
 1599              		.loc 1 469 0
 1600 0034 98409FE5 		ldr	r4, .L96+4
 1601              	.LVL167:
 1602              	.L92:
 1603              		.loc 1 468 0 discriminator 1
 1604              		.syntax divided
 1605              	@ 468 "..//test/testbmk.c" 1
 1606 0038 9FF021E3 		msr     CPSR_c, #0x9F
 1607              	@ 0 "" 2
 1608              		.loc 1 469 0 discriminator 1
 1609              		.arm
 1610              		.syntax unified
 1611 003c 0010A0E3 		mov	r1, #0
 1612 0040 0400A0E1 		mov	r0, r4
 1613 0044 FEFFFFEB 		bl	chIQPutI
 1614              	.LVL168:
 1615              		.loc 1 470 0 discriminator 1
 1616 0048 0400A0E1 		mov	r0, r4
 1617 004c 0110A0E3 		mov	r1, #1
 1618 0050 FEFFFFEB 		bl	chIQPutI
 1619              	.LVL169:
 1620              		.loc 1 471 0 discriminator 1
 1621 0054 0400A0E1 		mov	r0, r4
 1622 0058 0210A0E3 		mov	r1, #2
 1623 005c FEFFFFEB 		bl	chIQPutI
 1624              	.LVL170:
 1625              		.loc 1 472 0 discriminator 1
 1626 0060 0400A0E1 		mov	r0, r4
 1627 0064 0310A0E3 		mov	r1, #3
 1628 0068 FEFFFFEB 		bl	chIQPutI
 1629              	.LVL171:
 1630              		.loc 1 473 0 discriminator 1
 1631              		.syntax divided
 1632              	@ 473 "..//test/testbmk.c" 1
 1633 006c 1FF021E3 		msr     CPSR_c, #0x1F
 1634              	@ 0 "" 2
 1635              		.loc 1 474 0 discriminator 1
 1636              		.arm
 1637              		.syntax unified
 1638 0070 0010E0E3 		mvn	r1, #0
 1639 0074 0400A0E1 		mov	r0, r4
 1640 0078 FEFFFFEB 		bl	chIQGetTimeout
 1641              	.LVL172:
 1642              		.loc 1 475 0 discriminator 1
 1643 007c 0010E0E3 		mvn	r1, #0
 1644 0080 0400A0E1 		mov	r0, r4
 1645 0084 FEFFFFEB 		bl	chIQGetTimeout
 1646              	.LVL173:
 1647              		.loc 1 476 0 discriminator 1
 1648 0088 0010E0E3 		mvn	r1, #0
 1649 008c 0400A0E1 		mov	r0, r4
 1650 0090 FEFFFFEB 		bl	chIQGetTimeout
 1651              	.LVL174:
 1652              		.loc 1 477 0 discriminator 1
 1653 0094 0400A0E1 		mov	r0, r4
ARM GAS  /var/folders/3j/4xdnk5197cv_b7cw3n33qk7r0000gn/T//ccuV4VJj.s 			page 30


 1654 0098 0010E0E3 		mvn	r1, #0
 1655 009c FEFFFFEB 		bl	chIQGetTimeout
 1656              	.LVL175:
 1657              		.loc 1 482 0 discriminator 1
 1658 00a0 003096E5 		ldr	r3, [r6]
 1659              		.loc 1 478 0 discriminator 1
 1660 00a4 015085E2 		add	r5, r5, #1
 1661              	.LVL176:
 1662              		.loc 1 482 0 discriminator 1
 1663 00a8 000053E3 		cmp	r3, #0
 1664 00ac E1FFFF0A 		beq	.L92
 1665              		.loc 1 483 0
 1666 00b0 24009FE5 		ldr	r0, .L96+12
 1667 00b4 FEFFFFEB 		bl	test_print
 1668              	.LVL177:
 1669              		.loc 1 484 0
 1670 00b8 0501A0E1 		lsl	r0, r5, #2
 1671 00bc FEFFFFEB 		bl	test_printn
 1672              	.LVL178:
 1673              		.loc 1 485 0
 1674 00c0 18009FE5 		ldr	r0, .L96+16
 1675              		.loc 1 486 0
 1676 00c4 08D08DE2 		add	sp, sp, #8
 1677              		.cfi_def_cfa_offset 16
 1678              		@ sp needed
 1679 00c8 7040BDE8 		pop	{r4, r5, r6, lr}
 1680              		.cfi_restore 14
 1681              		.cfi_restore 6
 1682              		.cfi_restore 5
 1683              		.cfi_restore 4
 1684              		.cfi_def_cfa_offset 0
 1685              	.LVL179:
 1686              		.loc 1 485 0
 1687 00cc FEFFFFEA 		b	test_println
 1688              	.LVL180:
 1689              	.L97:
 1690              		.align	2
 1691              	.L96:
 1692 00d0 00000000 		.word	.LANCHOR1
 1693 00d4 00000000 		.word	.LANCHOR2
 1694 00d8 00000000 		.word	test_timer_done
 1695 00dc 00000000 		.word	.LC11
 1696 00e0 00000000 		.word	.LC16
 1697              		.cfi_endproc
 1698              	.LFE22:
 1699              		.size	bmk9_execute, .-bmk9_execute
 1700              		.section	.text.bmk10_execute,"ax",%progbits
 1701              		.align	2
 1702              		.syntax unified
 1703              		.arm
 1704              		.fpu softvfp
 1705              		.type	bmk10_execute, %function
 1706              	bmk10_execute:
 1707              	.LFB24:
 1708              		.loc 1 506 0
 1709              		.cfi_startproc
 1710              		@ args = 0, pretend = 0, frame = 0
ARM GAS  /var/folders/3j/4xdnk5197cv_b7cw3n33qk7r0000gn/T//ccuV4VJj.s 			page 31


 1711              		@ frame_needed = 0, uses_anonymous_args = 0
 1712              	.LVL181:
 1713 0000 F0412DE9 		push	{r4, r5, r6, r7, r8, lr}
 1714              		.cfi_def_cfa_offset 24
 1715              		.cfi_offset 4, -24
 1716              		.cfi_offset 5, -20
 1717              		.cfi_offset 6, -16
 1718              		.cfi_offset 7, -12
 1719              		.cfi_offset 8, -8
 1720              		.cfi_offset 14, -4
 1721              		.loc 1 510 0
 1722 0004 FEFFFFEB 		bl	test_wait_tick
 1723              	.LVL182:
 1724              		.loc 1 511 0
 1725 0008 FA0FA0E3 		mov	r0, #1000
 1726 000c FEFFFFEB 		bl	test_start_timer
 1727              	.LVL183:
 1728              		.loc 1 508 0
 1729 0010 0040A0E3 		mov	r4, #0
 1730 0014 74809FE5 		ldr	r8, .L103
 1731              		.loc 1 514 0
 1732 0018 74709FE5 		ldr	r7, .L103+4
 1733 001c 74609FE5 		ldr	r6, .L103+8
 1734              		.loc 1 515 0
 1735 0020 74509FE5 		ldr	r5, .L103+12
 1736              	.LVL184:
 1737              	.L99:
 1738              		.loc 1 513 0 discriminator 1
 1739              		.syntax divided
 1740              	@ 513 "..//test/testbmk.c" 1
 1741 0024 9FF021E3 		msr     CPSR_c, #0x9F
 1742              	@ 0 "" 2
 1743              		.loc 1 514 0 discriminator 1
 1744              		.arm
 1745              		.syntax unified
 1746 0028 0030A0E3 		mov	r3, #0
 1747 002c 0720A0E1 		mov	r2, r7
 1748 0030 0600A0E1 		mov	r0, r6
 1749 0034 0110A0E3 		mov	r1, #1
 1750 0038 FEFFFFEB 		bl	chVTSetI
 1751              	.LVL185:
 1752              		.loc 1 515 0 discriminator 1
 1753 003c 0720A0E1 		mov	r2, r7
 1754 0040 0030A0E3 		mov	r3, #0
 1755 0044 54109FE5 		ldr	r1, .L103+16
 1756 0048 0500A0E1 		mov	r0, r5
 1757 004c FEFFFFEB 		bl	chVTSetI
 1758              	.LVL186:
 1759              		.loc 1 516 0 discriminator 1
 1760 0050 0600A0E1 		mov	r0, r6
 1761 0054 FEFFFFEB 		bl	chVTResetI
 1762              	.LVL187:
 1763              		.loc 1 517 0 discriminator 1
 1764 0058 0500A0E1 		mov	r0, r5
 1765 005c FEFFFFEB 		bl	chVTResetI
 1766              	.LVL188:
 1767              		.loc 1 518 0 discriminator 1
ARM GAS  /var/folders/3j/4xdnk5197cv_b7cw3n33qk7r0000gn/T//ccuV4VJj.s 			page 32


 1768              		.syntax divided
 1769              	@ 518 "..//test/testbmk.c" 1
 1770 0060 1FF021E3 		msr     CPSR_c, #0x1F
 1771              	@ 0 "" 2
 1772              		.loc 1 523 0 discriminator 1
 1773              		.arm
 1774              		.syntax unified
 1775 0064 003098E5 		ldr	r3, [r8]
 1776              		.loc 1 519 0 discriminator 1
 1777 0068 014084E2 		add	r4, r4, #1
 1778              	.LVL189:
 1779              		.loc 1 523 0 discriminator 1
 1780 006c 000053E3 		cmp	r3, #0
 1781 0070 EBFFFF0A 		beq	.L99
 1782              		.loc 1 524 0
 1783 0074 28009FE5 		ldr	r0, .L103+20
 1784 0078 FEFFFFEB 		bl	test_print
 1785              	.LVL190:
 1786              		.loc 1 525 0
 1787 007c 8400A0E1 		lsl	r0, r4, #1
 1788 0080 FEFFFFEB 		bl	test_printn
 1789              	.LVL191:
 1790              		.loc 1 527 0
 1791 0084 F041BDE8 		pop	{r4, r5, r6, r7, r8, lr}
 1792              		.cfi_restore 14
 1793              		.cfi_restore 8
 1794              		.cfi_restore 7
 1795              		.cfi_restore 6
 1796              		.cfi_restore 5
 1797              		.cfi_restore 4
 1798              		.cfi_def_cfa_offset 0
 1799              	.LVL192:
 1800              		.loc 1 526 0
 1801 0088 18009FE5 		ldr	r0, .L103+24
 1802 008c FEFFFFEA 		b	test_println
 1803              	.LVL193:
 1804              	.L104:
 1805              		.align	2
 1806              	.L103:
 1807 0090 00000000 		.word	test_timer_done
 1808 0094 00000000 		.word	tmo
 1809 0098 00000000 		.word	.LANCHOR3
 1810 009c 00000000 		.word	.LANCHOR4
 1811 00a0 10270000 		.word	10000
 1812 00a4 00000000 		.word	.LC11
 1813 00a8 00000000 		.word	.LC17
 1814              		.cfi_endproc
 1815              	.LFE24:
 1816              		.size	bmk10_execute, .-bmk10_execute
 1817              		.section	.text.bmk11_execute,"ax",%progbits
 1818              		.align	2
 1819              		.syntax unified
 1820              		.arm
 1821              		.fpu softvfp
 1822              		.type	bmk11_execute, %function
 1823              	bmk11_execute:
 1824              	.LFB26:
ARM GAS  /var/folders/3j/4xdnk5197cv_b7cw3n33qk7r0000gn/T//ccuV4VJj.s 			page 33


 1825              		.loc 1 551 0
 1826              		.cfi_startproc
 1827              		@ args = 0, pretend = 0, frame = 0
 1828              		@ frame_needed = 0, uses_anonymous_args = 0
 1829              	.LVL194:
 1830 0000 70402DE9 		push	{r4, r5, r6, lr}
 1831              		.cfi_def_cfa_offset 16
 1832              		.cfi_offset 4, -16
 1833              		.cfi_offset 5, -12
 1834              		.cfi_offset 6, -8
 1835              		.cfi_offset 14, -4
 1836              		.loc 1 554 0
 1837 0004 FEFFFFEB 		bl	test_wait_tick
 1838              	.LVL195:
 1839              		.loc 1 555 0
 1840 0008 FA0FA0E3 		mov	r0, #1000
 1841 000c FEFFFFEB 		bl	test_start_timer
 1842              	.LVL196:
 1843              		.loc 1 552 0
 1844 0010 0050A0E3 		mov	r5, #0
 1845 0014 6C609FE5 		ldr	r6, .L110
 1846              		.loc 1 557 0
 1847 0018 6C409FE5 		ldr	r4, .L110+4
 1848              	.LVL197:
 1849              	.L106:
 1850              		.loc 1 557 0 is_stmt 0 discriminator 1
 1851 001c 0400A0E1 		mov	r0, r4
 1852 0020 FEFFFFEB 		bl	chSemWait
 1853              	.LVL198:
 1854              		.loc 1 558 0 is_stmt 1 discriminator 1
 1855 0024 0400A0E1 		mov	r0, r4
 1856 0028 FEFFFFEB 		bl	chSemSignal
 1857              	.LVL199:
 1858              		.loc 1 559 0 discriminator 1
 1859 002c 0400A0E1 		mov	r0, r4
 1860 0030 FEFFFFEB 		bl	chSemWait
 1861              	.LVL200:
 1862              		.loc 1 560 0 discriminator 1
 1863 0034 0400A0E1 		mov	r0, r4
 1864 0038 FEFFFFEB 		bl	chSemSignal
 1865              	.LVL201:
 1866              		.loc 1 561 0 discriminator 1
 1867 003c 0400A0E1 		mov	r0, r4
 1868 0040 FEFFFFEB 		bl	chSemWait
 1869              	.LVL202:
 1870              		.loc 1 562 0 discriminator 1
 1871 0044 0400A0E1 		mov	r0, r4
 1872 0048 FEFFFFEB 		bl	chSemSignal
 1873              	.LVL203:
 1874              		.loc 1 563 0 discriminator 1
 1875 004c 0400A0E1 		mov	r0, r4
 1876 0050 FEFFFFEB 		bl	chSemWait
 1877              	.LVL204:
 1878              		.loc 1 564 0 discriminator 1
 1879 0054 0400A0E1 		mov	r0, r4
 1880 0058 FEFFFFEB 		bl	chSemSignal
 1881              	.LVL205:
ARM GAS  /var/folders/3j/4xdnk5197cv_b7cw3n33qk7r0000gn/T//ccuV4VJj.s 			page 34


 1882              		.loc 1 569 0 discriminator 1
 1883 005c 003096E5 		ldr	r3, [r6]
 1884              		.loc 1 565 0 discriminator 1
 1885 0060 015085E2 		add	r5, r5, #1
 1886              	.LVL206:
 1887              		.loc 1 569 0 discriminator 1
 1888 0064 000053E3 		cmp	r3, #0
 1889 0068 EBFFFF0A 		beq	.L106
 1890              		.loc 1 570 0
 1891 006c 1C009FE5 		ldr	r0, .L110+8
 1892 0070 FEFFFFEB 		bl	test_print
 1893              	.LVL207:
 1894              		.loc 1 571 0
 1895 0074 0501A0E1 		lsl	r0, r5, #2
 1896 0078 FEFFFFEB 		bl	test_printn
 1897              	.LVL208:
 1898              		.loc 1 573 0
 1899 007c 7040BDE8 		pop	{r4, r5, r6, lr}
 1900              		.cfi_restore 14
 1901              		.cfi_restore 6
 1902              		.cfi_restore 5
 1903              		.cfi_restore 4
 1904              		.cfi_def_cfa_offset 0
 1905              	.LVL209:
 1906              		.loc 1 572 0
 1907 0080 0C009FE5 		ldr	r0, .L110+12
 1908 0084 FEFFFFEA 		b	test_println
 1909              	.LVL210:
 1910              	.L111:
 1911              		.align	2
 1912              	.L110:
 1913 0088 00000000 		.word	test_timer_done
 1914 008c 00000000 		.word	.LANCHOR0
 1915 0090 00000000 		.word	.LC11
 1916 0094 00000000 		.word	.LC18
 1917              		.cfi_endproc
 1918              	.LFE26:
 1919              		.size	bmk11_execute, .-bmk11_execute
 1920              		.section	.text.bmk12_execute,"ax",%progbits
 1921              		.align	2
 1922              		.syntax unified
 1923              		.arm
 1924              		.fpu softvfp
 1925              		.type	bmk12_execute, %function
 1926              	bmk12_execute:
 1927              	.LFB28:
 1928              		.loc 1 598 0
 1929              		.cfi_startproc
 1930              		@ args = 0, pretend = 0, frame = 0
 1931              		@ frame_needed = 0, uses_anonymous_args = 0
 1932              	.LVL211:
 1933 0000 70402DE9 		push	{r4, r5, r6, lr}
 1934              		.cfi_def_cfa_offset 16
 1935              		.cfi_offset 4, -16
 1936              		.cfi_offset 5, -12
 1937              		.cfi_offset 6, -8
 1938              		.cfi_offset 14, -4
ARM GAS  /var/folders/3j/4xdnk5197cv_b7cw3n33qk7r0000gn/T//ccuV4VJj.s 			page 35


 1939              		.loc 1 601 0
 1940 0004 FEFFFFEB 		bl	test_wait_tick
 1941              	.LVL212:
 1942              		.loc 1 602 0
 1943 0008 FA0FA0E3 		mov	r0, #1000
 1944 000c FEFFFFEB 		bl	test_start_timer
 1945              	.LVL213:
 1946              		.loc 1 599 0
 1947 0010 0050A0E3 		mov	r5, #0
 1948 0014 5C609FE5 		ldr	r6, .L117
 1949              		.loc 1 604 0
 1950 0018 5C409FE5 		ldr	r4, .L117+4
 1951              	.LVL214:
 1952              	.L113:
 1953              		.loc 1 604 0 is_stmt 0 discriminator 1
 1954 001c 0400A0E1 		mov	r0, r4
 1955 0020 FEFFFFEB 		bl	chMtxLock
 1956              	.LVL215:
 1957              		.loc 1 605 0 is_stmt 1 discriminator 1
 1958 0024 FEFFFFEB 		bl	chMtxUnlock
 1959              	.LVL216:
 1960              		.loc 1 606 0 discriminator 1
 1961 0028 0400A0E1 		mov	r0, r4
 1962 002c FEFFFFEB 		bl	chMtxLock
 1963              	.LVL217:
 1964              		.loc 1 607 0 discriminator 1
 1965 0030 FEFFFFEB 		bl	chMtxUnlock
 1966              	.LVL218:
 1967              		.loc 1 608 0 discriminator 1
 1968 0034 0400A0E1 		mov	r0, r4
 1969 0038 FEFFFFEB 		bl	chMtxLock
 1970              	.LVL219:
 1971              		.loc 1 609 0 discriminator 1
 1972 003c FEFFFFEB 		bl	chMtxUnlock
 1973              	.LVL220:
 1974              		.loc 1 610 0 discriminator 1
 1975 0040 0400A0E1 		mov	r0, r4
 1976 0044 FEFFFFEB 		bl	chMtxLock
 1977              	.LVL221:
 1978              		.loc 1 611 0 discriminator 1
 1979 0048 FEFFFFEB 		bl	chMtxUnlock
 1980              	.LVL222:
 1981              		.loc 1 616 0 discriminator 1
 1982 004c 003096E5 		ldr	r3, [r6]
 1983              		.loc 1 612 0 discriminator 1
 1984 0050 015085E2 		add	r5, r5, #1
 1985              	.LVL223:
 1986              		.loc 1 616 0 discriminator 1
 1987 0054 000053E3 		cmp	r3, #0
 1988 0058 EFFFFF0A 		beq	.L113
 1989              		.loc 1 617 0
 1990 005c 1C009FE5 		ldr	r0, .L117+8
 1991 0060 FEFFFFEB 		bl	test_print
 1992              	.LVL224:
 1993              		.loc 1 618 0
 1994 0064 0501A0E1 		lsl	r0, r5, #2
 1995 0068 FEFFFFEB 		bl	test_printn
ARM GAS  /var/folders/3j/4xdnk5197cv_b7cw3n33qk7r0000gn/T//ccuV4VJj.s 			page 36


 1996              	.LVL225:
 1997              		.loc 1 620 0
 1998 006c 7040BDE8 		pop	{r4, r5, r6, lr}
 1999              		.cfi_restore 14
 2000              		.cfi_restore 6
 2001              		.cfi_restore 5
 2002              		.cfi_restore 4
 2003              		.cfi_def_cfa_offset 0
 2004              	.LVL226:
 2005              		.loc 1 619 0
 2006 0070 0C009FE5 		ldr	r0, .L117+12
 2007 0074 FEFFFFEA 		b	test_println
 2008              	.LVL227:
 2009              	.L118:
 2010              		.align	2
 2011              	.L117:
 2012 0078 00000000 		.word	test_timer_done
 2013 007c 00000000 		.word	.LANCHOR5
 2014 0080 00000000 		.word	.LC11
 2015 0084 00000000 		.word	.LC19
 2016              		.cfi_endproc
 2017              	.LFE28:
 2018              		.size	bmk12_execute, .-bmk12_execute
 2019              		.section	.text.bmk12_setup,"ax",%progbits
 2020              		.align	2
 2021              		.syntax unified
 2022              		.arm
 2023              		.fpu softvfp
 2024              		.type	bmk12_setup, %function
 2025              	bmk12_setup:
 2026              	.LFB27:
 2027              		.loc 1 593 0
 2028              		.cfi_startproc
 2029              		@ args = 0, pretend = 0, frame = 0
 2030              		@ frame_needed = 0, uses_anonymous_args = 0
 2031              		@ link register save eliminated.
 2032              		.loc 1 595 0
 2033 0000 00009FE5 		ldr	r0, .L120
 2034 0004 FEFFFFEA 		b	chMtxInit
 2035              	.LVL228:
 2036              	.L121:
 2037              		.align	2
 2038              	.L120:
 2039 0008 00000000 		.word	.LANCHOR5
 2040              		.cfi_endproc
 2041              	.LFE27:
 2042              		.size	bmk12_setup, .-bmk12_setup
 2043              		.global	patternbmk
 2044              		.global	testbmk13
 2045              		.global	testbmk12
 2046              		.global	testbmk11
 2047              		.global	testbmk10
 2048              		.global	testbmk9
 2049              		.global	testbmk8
 2050              		.global	testbmk7
 2051              		.global	testbmk6
 2052              		.global	testbmk5
ARM GAS  /var/folders/3j/4xdnk5197cv_b7cw3n33qk7r0000gn/T//ccuV4VJj.s 			page 37


 2053              		.global	testbmk4
 2054              		.global	testbmk3
 2055              		.global	testbmk2
 2056              		.global	testbmk1
 2057              		.section	.bss.ib.4865,"aw",%nobits
 2058              		.align	2
 2059              		.set	.LANCHOR1,. + 0
 2060              		.type	ib.4865, %object
 2061              		.size	ib.4865, 16
 2062              	ib.4865:
 2063 0000 00000000 		.space	16
 2063      00000000 
 2063      00000000 
 2063      00000000 
 2064              		.section	.bss.iq.4866,"aw",%nobits
 2065              		.align	2
 2066              		.set	.LANCHOR2,. + 0
 2067              		.type	iq.4866, %object
 2068              		.size	iq.4866, 36
 2069              	iq.4866:
 2070 0000 00000000 		.space	36
 2070      00000000 
 2070      00000000 
 2070      00000000 
 2070      00000000 
 2071              		.section	.bss.mtx1,"aw",%nobits
 2072              		.align	2
 2073              		.set	.LANCHOR5,. + 0
 2074              		.type	mtx1, %object
 2075              		.size	mtx1, 16
 2076              	mtx1:
 2077 0000 00000000 		.space	16
 2077      00000000 
 2077      00000000 
 2077      00000000 
 2078              		.section	.bss.sem1,"aw",%nobits
 2079              		.align	2
 2080              		.set	.LANCHOR0,. + 0
 2081              		.type	sem1, %object
 2082              		.size	sem1, 12
 2083              	sem1:
 2084 0000 00000000 		.space	12
 2084      00000000 
 2084      00000000 
 2085              		.section	.bss.vt1.4876,"aw",%nobits
 2086              		.align	2
 2087              		.set	.LANCHOR3,. + 0
 2088              		.type	vt1.4876, %object
 2089              		.size	vt1.4876, 20
 2090              	vt1.4876:
 2091 0000 00000000 		.space	20
 2091      00000000 
 2091      00000000 
 2091      00000000 
 2091      00000000 
 2092              		.section	.bss.vt2.4877,"aw",%nobits
 2093              		.align	2
ARM GAS  /var/folders/3j/4xdnk5197cv_b7cw3n33qk7r0000gn/T//ccuV4VJj.s 			page 38


 2094              		.set	.LANCHOR4,. + 0
 2095              		.type	vt2.4877, %object
 2096              		.size	vt2.4877, 20
 2097              	vt2.4877:
 2098 0000 00000000 		.space	20
 2098      00000000 
 2098      00000000 
 2098      00000000 
 2098      00000000 
 2099              		.section	.rodata.bmk10_execute.str1.4,"aMS",%progbits,1
 2100              		.align	2
 2101              	.LC17:
 2102 0000 2074696D 		.ascii	" timers/S\000"
 2102      6572732F 
 2102      5300
 2103              		.section	.rodata.bmk11_execute.str1.4,"aMS",%progbits,1
 2104              		.align	2
 2105              	.LC18:
 2106 0000 20776169 		.ascii	" wait+signal/S\000"
 2106      742B7369 
 2106      676E616C 
 2106      2F5300
 2107              		.section	.rodata.bmk12_execute.str1.4,"aMS",%progbits,1
 2108              		.align	2
 2109              	.LC19:
 2110 0000 206C6F63 		.ascii	" lock+unlock/S\000"
 2110      6B2B756E 
 2110      6C6F636B 
 2110      2F5300
 2111              		.section	.rodata.bmk13_execute.str1.4,"aMS",%progbits,1
 2112              		.align	2
 2113              	.LC0:
 2114 0000 2D2D2D20 		.ascii	"--- System: \000"
 2114      53797374 
 2114      656D3A20 
 2114      00
 2115 000d 000000   		.space	3
 2116              	.LC1:
 2117 0010 20627974 		.ascii	" bytes\000"
 2117      657300
 2118 0017 00       		.space	1
 2119              	.LC2:
 2120 0018 2D2D2D20 		.ascii	"--- Thread: \000"
 2120      54687265 
 2120      61643A20 
 2120      00
 2121 0025 000000   		.space	3
 2122              	.LC3:
 2123 0028 2D2D2D20 		.ascii	"--- Timer : \000"
 2123      54696D65 
 2123      72203A20 
 2123      00
 2124 0035 000000   		.space	3
 2125              	.LC4:
 2126 0038 2D2D2D20 		.ascii	"--- Semaph: \000"
 2126      53656D61 
 2126      70683A20 
ARM GAS  /var/folders/3j/4xdnk5197cv_b7cw3n33qk7r0000gn/T//ccuV4VJj.s 			page 39


 2126      00
 2127 0045 000000   		.space	3
 2128              	.LC5:
 2129 0048 2D2D2D20 		.ascii	"--- EventS: \000"
 2129      4576656E 
 2129      74533A20 
 2129      00
 2130 0055 000000   		.space	3
 2131              	.LC6:
 2132 0058 2D2D2D20 		.ascii	"--- EventL: \000"
 2132      4576656E 
 2132      744C3A20 
 2132      00
 2133 0065 000000   		.space	3
 2134              	.LC7:
 2135 0068 2D2D2D20 		.ascii	"--- Mutex : \000"
 2135      4D757465 
 2135      78203A20 
 2135      00
 2136 0075 000000   		.space	3
 2137              	.LC8:
 2138 0078 2D2D2D20 		.ascii	"--- CondV.: \000"
 2138      436F6E64 
 2138      562E3A20 
 2138      00
 2139 0085 000000   		.space	3
 2140              	.LC9:
 2141 0088 2D2D2D20 		.ascii	"--- Queue : \000"
 2141      51756575 
 2141      65203A20 
 2141      00
 2142 0095 000000   		.space	3
 2143              	.LC10:
 2144 0098 2D2D2D20 		.ascii	"--- MailB.: \000"
 2144      4D61696C 
 2144      422E3A20 
 2144      00
 2145              		.section	.rodata.bmk1_execute.str1.4,"aMS",%progbits,1
 2146              		.align	2
 2147              	.LC13:
 2148 0000 206D7367 		.ascii	" msgs/S, \000"
 2148      732F532C 
 2148      2000
 2149 000a 0000     		.space	2
 2150              	.LC14:
 2151 000c 20637478 		.ascii	" ctxswc/S\000"
 2151      7377632F 
 2151      5300
 2152              		.section	.rodata.bmk6_execute.str1.4,"aMS",%progbits,1
 2153              		.align	2
 2154              	.LC11:
 2155 0000 2D2D2D20 		.ascii	"--- Score : \000"
 2155      53636F72 
 2155      65203A20 
 2155      00
 2156 000d 000000   		.space	3
 2157              	.LC12:
ARM GAS  /var/folders/3j/4xdnk5197cv_b7cw3n33qk7r0000gn/T//ccuV4VJj.s 			page 40


 2158 0010 20746872 		.ascii	" threads/S\000"
 2158      65616473 
 2158      2F5300
 2159              		.section	.rodata.bmk7_execute.str1.4,"aMS",%progbits,1
 2160              		.align	2
 2161              	.LC15:
 2162 0000 20726573 		.ascii	" reschedules/S, \000"
 2162      63686564 
 2162      756C6573 
 2162      2F532C20 
 2162      00
 2163              		.section	.rodata.bmk9_execute.str1.4,"aMS",%progbits,1
 2164              		.align	2
 2165              	.LC16:
 2166 0000 20627974 		.ascii	" bytes/S\000"
 2166      65732F53 
 2166      00
 2167              		.section	.rodata.patternbmk,"a",%progbits
 2168              		.align	2
 2169              		.type	patternbmk, %object
 2170              		.size	patternbmk, 56
 2171              	patternbmk:
 2172 0000 00000000 		.word	testbmk1
 2173 0004 00000000 		.word	testbmk2
 2174 0008 00000000 		.word	testbmk3
 2175 000c 00000000 		.word	testbmk4
 2176 0010 00000000 		.word	testbmk5
 2177 0014 00000000 		.word	testbmk6
 2178 0018 00000000 		.word	testbmk7
 2179 001c 00000000 		.word	testbmk8
 2180 0020 00000000 		.word	testbmk9
 2181 0024 00000000 		.word	testbmk10
 2182 0028 00000000 		.word	testbmk11
 2183 002c 00000000 		.word	testbmk12
 2184 0030 00000000 		.word	testbmk13
 2185 0034 00000000 		.word	0
 2186              		.section	.rodata.str1.4,"aMS",%progbits,1
 2187              		.align	2
 2188              	.LC20:
 2189 0000 42656E63 		.ascii	"Benchmark, RAM footprint\000"
 2189      686D6172 
 2189      6B2C2052 
 2189      414D2066 
 2189      6F6F7470 
 2190 0019 000000   		.space	3
 2191              	.LC21:
 2192 001c 42656E63 		.ascii	"Benchmark, mutexes lock/unlock\000"
 2192      686D6172 
 2192      6B2C206D 
 2192      75746578 
 2192      6573206C 
 2193 003b 00       		.space	1
 2194              	.LC22:
 2195 003c 42656E63 		.ascii	"Benchmark, semaphores wait/signal\000"
 2195      686D6172 
 2195      6B2C2073 
 2195      656D6170 
ARM GAS  /var/folders/3j/4xdnk5197cv_b7cw3n33qk7r0000gn/T//ccuV4VJj.s 			page 41


 2195      686F7265 
 2196 005e 0000     		.space	2
 2197              	.LC23:
 2198 0060 42656E63 		.ascii	"Benchmark, virtual timers set/reset\000"
 2198      686D6172 
 2198      6B2C2076 
 2198      69727475 
 2198      616C2074 
 2199              	.LC24:
 2200 0084 42656E63 		.ascii	"Benchmark, I/O Queues throughput\000"
 2200      686D6172 
 2200      6B2C2049 
 2200      2F4F2051 
 2200      75657565 
 2201 00a5 000000   		.space	3
 2202              	.LC25:
 2203 00a8 42656E63 		.ascii	"Benchmark, round robin context switching\000"
 2203      686D6172 
 2203      6B2C2072 
 2203      6F756E64 
 2203      20726F62 
 2204 00d1 000000   		.space	3
 2205              	.LC26:
 2206 00d4 42656E63 		.ascii	"Benchmark, mass reschedule, 5 threads\000"
 2206      686D6172 
 2206      6B2C206D 
 2206      61737320 
 2206      72657363 
 2207 00fa 0000     		.space	2
 2208              	.LC27:
 2209 00fc 42656E63 		.ascii	"Benchmark, threads, create only\000"
 2209      686D6172 
 2209      6B2C2074 
 2209      68726561 
 2209      64732C20 
 2210              	.LC28:
 2211 011c 42656E63 		.ascii	"Benchmark, threads, full cycle\000"
 2211      686D6172 
 2211      6B2C2074 
 2211      68726561 
 2211      64732C20 
 2212 013b 00       		.space	1
 2213              	.LC29:
 2214 013c 42656E63 		.ascii	"Benchmark, context switch\000"
 2214      686D6172 
 2214      6B2C2063 
 2214      6F6E7465 
 2214      78742073 
 2215 0156 0000     		.space	2
 2216              	.LC30:
 2217 0158 42656E63 		.ascii	"Benchmark, messages #3\000"
 2217      686D6172 
 2217      6B2C206D 
 2217      65737361 
 2217      67657320 
 2218 016f 00       		.space	1
 2219              	.LC31:
ARM GAS  /var/folders/3j/4xdnk5197cv_b7cw3n33qk7r0000gn/T//ccuV4VJj.s 			page 42


 2220 0170 42656E63 		.ascii	"Benchmark, messages #2\000"
 2220      686D6172 
 2220      6B2C206D 
 2220      65737361 
 2220      67657320 
 2221 0187 00       		.space	1
 2222              	.LC32:
 2223 0188 42656E63 		.ascii	"Benchmark, messages #1\000"
 2223      686D6172 
 2223      6B2C206D 
 2223      65737361 
 2223      67657320 
 2224              		.section	.rodata.testbmk1,"a",%progbits
 2225              		.align	2
 2226              		.type	testbmk1, %object
 2227              		.size	testbmk1, 16
 2228              	testbmk1:
 2229 0000 88010000 		.word	.LC32
 2230 0004 00000000 		.word	0
 2231 0008 00000000 		.word	0
 2232 000c 00000000 		.word	bmk1_execute
 2233              		.section	.rodata.testbmk10,"a",%progbits
 2234              		.align	2
 2235              		.type	testbmk10, %object
 2236              		.size	testbmk10, 16
 2237              	testbmk10:
 2238 0000 60000000 		.word	.LC23
 2239 0004 00000000 		.word	0
 2240 0008 00000000 		.word	0
 2241 000c 00000000 		.word	bmk10_execute
 2242              		.section	.rodata.testbmk11,"a",%progbits
 2243              		.align	2
 2244              		.type	testbmk11, %object
 2245              		.size	testbmk11, 16
 2246              	testbmk11:
 2247 0000 3C000000 		.word	.LC22
 2248 0004 00000000 		.word	bmk11_setup
 2249 0008 00000000 		.word	0
 2250 000c 00000000 		.word	bmk11_execute
 2251              		.section	.rodata.testbmk12,"a",%progbits
 2252              		.align	2
 2253              		.type	testbmk12, %object
 2254              		.size	testbmk12, 16
 2255              	testbmk12:
 2256 0000 1C000000 		.word	.LC21
 2257 0004 00000000 		.word	bmk12_setup
 2258 0008 00000000 		.word	0
 2259 000c 00000000 		.word	bmk12_execute
 2260              		.section	.rodata.testbmk13,"a",%progbits
 2261              		.align	2
 2262              		.type	testbmk13, %object
 2263              		.size	testbmk13, 16
 2264              	testbmk13:
 2265 0000 00000000 		.word	.LC20
 2266 0004 00000000 		.word	0
 2267 0008 00000000 		.word	0
 2268 000c 00000000 		.word	bmk13_execute
ARM GAS  /var/folders/3j/4xdnk5197cv_b7cw3n33qk7r0000gn/T//ccuV4VJj.s 			page 43


 2269              		.section	.rodata.testbmk2,"a",%progbits
 2270              		.align	2
 2271              		.type	testbmk2, %object
 2272              		.size	testbmk2, 16
 2273              	testbmk2:
 2274 0000 70010000 		.word	.LC31
 2275 0004 00000000 		.word	0
 2276 0008 00000000 		.word	0
 2277 000c 00000000 		.word	bmk2_execute
 2278              		.section	.rodata.testbmk3,"a",%progbits
 2279              		.align	2
 2280              		.type	testbmk3, %object
 2281              		.size	testbmk3, 16
 2282              	testbmk3:
 2283 0000 58010000 		.word	.LC30
 2284 0004 00000000 		.word	0
 2285 0008 00000000 		.word	0
 2286 000c 00000000 		.word	bmk3_execute
 2287              		.section	.rodata.testbmk4,"a",%progbits
 2288              		.align	2
 2289              		.type	testbmk4, %object
 2290              		.size	testbmk4, 16
 2291              	testbmk4:
 2292 0000 3C010000 		.word	.LC29
 2293 0004 00000000 		.word	0
 2294 0008 00000000 		.word	0
 2295 000c 00000000 		.word	bmk4_execute
 2296              		.section	.rodata.testbmk5,"a",%progbits
 2297              		.align	2
 2298              		.type	testbmk5, %object
 2299              		.size	testbmk5, 16
 2300              	testbmk5:
 2301 0000 1C010000 		.word	.LC28
 2302 0004 00000000 		.word	0
 2303 0008 00000000 		.word	0
 2304 000c 00000000 		.word	bmk5_execute
 2305              		.section	.rodata.testbmk6,"a",%progbits
 2306              		.align	2
 2307              		.type	testbmk6, %object
 2308              		.size	testbmk6, 16
 2309              	testbmk6:
 2310 0000 FC000000 		.word	.LC27
 2311 0004 00000000 		.word	0
 2312 0008 00000000 		.word	0
 2313 000c 00000000 		.word	bmk6_execute
 2314              		.section	.rodata.testbmk7,"a",%progbits
 2315              		.align	2
 2316              		.type	testbmk7, %object
 2317              		.size	testbmk7, 16
 2318              	testbmk7:
 2319 0000 D4000000 		.word	.LC26
 2320 0004 00000000 		.word	bmk7_setup
 2321 0008 00000000 		.word	0
 2322 000c 00000000 		.word	bmk7_execute
 2323              		.section	.rodata.testbmk8,"a",%progbits
 2324              		.align	2
 2325              		.type	testbmk8, %object
ARM GAS  /var/folders/3j/4xdnk5197cv_b7cw3n33qk7r0000gn/T//ccuV4VJj.s 			page 44


 2326              		.size	testbmk8, 16
 2327              	testbmk8:
 2328 0000 A8000000 		.word	.LC25
 2329 0004 00000000 		.word	0
 2330 0008 00000000 		.word	0
 2331 000c 00000000 		.word	bmk8_execute
 2332              		.section	.rodata.testbmk9,"a",%progbits
 2333              		.align	2
 2334              		.type	testbmk9, %object
 2335              		.size	testbmk9, 16
 2336              	testbmk9:
 2337 0000 84000000 		.word	.LC24
 2338 0004 00000000 		.word	0
 2339 0008 00000000 		.word	0
 2340 000c 00000000 		.word	bmk9_execute
 2341              		.text
 2342              	.Letext0:
 2343              		.file 2 "/usr/local/Cellar/gcc-arm-none-eabi/20180627/lib/gcc/arm-none-eabi/7.3.1/include/stddef.h
 2344              		.file 3 "/usr/local/Cellar/gcc-arm-none-eabi/20180627/arm-none-eabi/include/machine/_default_types
 2345              		.file 4 "/usr/local/Cellar/gcc-arm-none-eabi/20180627/arm-none-eabi/include/sys/_stdint.h"
 2346              		.file 5 "..//os/ports/GCC/ARM/chtypes.h"
 2347              		.file 6 "..//os/kernel/include/chlists.h"
 2348              		.file 7 "..//os/kernel/include/chthreads.h"
 2349              		.file 8 "..//os/ports/GCC/ARM/chcore.h"
 2350              		.file 9 "..//os/kernel/include/chvt.h"
 2351              		.file 10 "..//os/kernel/include/chschd.h"
 2352              		.file 11 "..//os/kernel/include/chsem.h"
 2353              		.file 12 "..//os/kernel/include/chmtx.h"
 2354              		.file 13 "..//os/kernel/include/chregistry.h"
 2355              		.file 14 "..//os/kernel/include/chqueues.h"
 2356              		.file 15 "..//os/kernel/include/ch.h"
 2357              		.file 16 "..//test/test.h"
 2358              		.file 17 "..//os/kernel/include/chmsg.h"