ARM GAS  /var/folders/3j/4xdnk5197cv_b7cw3n33qk7r0000gn/T//ccrHT8cn.s 			page 1


   1              		.cpu arm1176jz-s
   2              		.eabi_attribute 20, 1
   3              		.eabi_attribute 21, 1
   4              		.eabi_attribute 23, 3
   5              		.eabi_attribute 24, 1
   6              		.eabi_attribute 25, 1
   7              		.eabi_attribute 26, 1
   8              		.eabi_attribute 30, 2
   9              		.eabi_attribute 34, 1
  10              		.eabi_attribute 18, 4
  11              		.file	"testmbox.c"
  12              		.text
  13              	.Ltext0:
  14              		.cfi_sections	.debug_frame
  15              		.section	.text.mbox1_execute,"ax",%progbits
  16              		.align	2
  17              		.syntax unified
  18              		.arm
  19              		.fpu softvfp
  20              		.type	mbox1_execute, %function
  21              	mbox1_execute:
  22              	.LFB8:
  23              		.file 1 "..//test/testmbox.c"
  24              		.loc 1 80 0
  25              		.cfi_startproc
  26              		@ args = 0, pretend = 0, frame = 8
  27              		@ frame_needed = 0, uses_anonymous_args = 0
  28 0000 70402DE9 		push	{r4, r5, r6, lr}
  29              		.cfi_def_cfa_offset 16
  30              		.cfi_offset 4, -16
  31              		.cfi_offset 5, -12
  32              		.cfi_offset 6, -8
  33              		.cfi_offset 14, -4
  34              		.loc 1 87 0
  35 0004 8C579FE5 		ldr	r5, .L32
  36              		.loc 1 80 0
  37 0008 08D04DE2 		sub	sp, sp, #8
  38              		.cfi_def_cfa_offset 24
  39              		.loc 1 87 0
  40 000c 241095E5 		ldr	r1, [r5, #36]
  41 0010 0100A0E3 		mov	r0, #1
  42 0014 051041E2 		sub	r1, r1, #5
  43 0018 111F6FE1 		clz	r1, r1
  44 001c A112A0E1 		lsr	r1, r1, #5
  45 0020 FEFFFFEB 		bl	_test_assert
  46              	.LVL0:
  47 0024 000050E3 		cmp	r0, #0
  48 0028 1800001A 		bne	.L1
  49 002c 4240A0E3 		mov	r4, #66
  50              		.loc 1 93 0
  51 0030 0560A0E1 		mov	r6, r5
  52              	.L3:
  53              	.LVL1:
  54 0034 0410A0E1 		mov	r1, r4
  55 0038 0020E0E3 		mvn	r2, #0
  56 003c 0600A0E1 		mov	r0, r6
  57 0040 FEFFFFEB 		bl	chMBPost
ARM GAS  /var/folders/3j/4xdnk5197cv_b7cw3n33qk7r0000gn/T//ccrHT8cn.s 			page 2


  58              	.LVL2:
  59              		.loc 1 94 0
  60 0044 101F6FE1 		clz	r1, r0
  61 0048 0200A0E3 		mov	r0, #2
  62              	.LVL3:
  63 004c A112A0E1 		lsr	r1, r1, #5
  64 0050 FEFFFFEB 		bl	_test_assert
  65              	.LVL4:
  66 0054 000050E3 		cmp	r0, #0
  67 0058 014084E2 		add	r4, r4, #1
  68              	.LVL5:
  69 005c 0B00001A 		bne	.L1
  70              		.loc 1 92 0 discriminator 2
  71 0060 460054E3 		cmp	r4, #70
  72 0064 F2FFFF1A 		bne	.L3
  73              		.loc 1 96 0
  74 0068 0020E0E3 		mvn	r2, #0
  75 006c 4110A0E3 		mov	r1, #65
  76 0070 20079FE5 		ldr	r0, .L32
  77 0074 FEFFFFEB 		bl	chMBPostAhead
  78              	.LVL6:
  79              		.loc 1 97 0
  80 0078 101F6FE1 		clz	r1, r0
  81 007c 0300A0E3 		mov	r0, #3
  82              	.LVL7:
  83 0080 A112A0E1 		lsr	r1, r1, #5
  84 0084 FEFFFFEB 		bl	_test_assert
  85              	.LVL8:
  86 0088 000050E3 		cmp	r0, #0
  87 008c 0100000A 		beq	.L29
  88              	.LVL9:
  89              	.L1:
  90              		.loc 1 224 0
  91 0090 08D08DE2 		add	sp, sp, #8
  92              		.cfi_remember_state
  93              		.cfi_def_cfa_offset 16
  94              		@ sp needed
  95 0094 7080BDE8 		pop	{r4, r5, r6, pc}
  96              	.LVL10:
  97              	.L29:
  98              		.cfi_restore_state
  99              		.loc 1 102 0
 100 0098 5810A0E3 		mov	r1, #88
 101 009c 0120A0E3 		mov	r2, #1
 102 00a0 F0069FE5 		ldr	r0, .L32
 103 00a4 FEFFFFEB 		bl	chMBPost
 104              	.LVL11:
 105              		.loc 1 103 0
 106 00a8 010070E3 		cmn	r0, #1
 107 00ac 0010A013 		movne	r1, #0
 108 00b0 0110A003 		moveq	r1, #1
 109 00b4 0400A0E3 		mov	r0, #4
 110              	.LVL12:
 111 00b8 FEFFFFEB 		bl	_test_assert
 112              	.LVL13:
 113 00bc 000050E3 		cmp	r0, #0
 114 00c0 F2FFFF1A 		bne	.L1
ARM GAS  /var/folders/3j/4xdnk5197cv_b7cw3n33qk7r0000gn/T//ccrHT8cn.s 			page 3


 115              		.loc 1 104 0
 116              		.syntax divided
 117              	@ 104 "..//test/testmbox.c" 1
 118 00c4 9FF021E3 		msr     CPSR_c, #0x9F
 119              	@ 0 "" 2
 120              		.loc 1 105 0
 121              		.arm
 122              		.syntax unified
 123 00c8 5810A0E3 		mov	r1, #88
 124 00cc C4069FE5 		ldr	r0, .L32
 125 00d0 FEFFFFEB 		bl	chMBPostI
 126              	.LVL14:
 127 00d4 0010A0E1 		mov	r1, r0
 128              	.LVL15:
 129              		.loc 1 106 0
 130              		.syntax divided
 131              	@ 106 "..//test/testmbox.c" 1
 132 00d8 1FF021E3 		msr     CPSR_c, #0x1F
 133              	@ 0 "" 2
 134              		.loc 1 107 0
 135              		.arm
 136              		.syntax unified
 137 00dc 010071E3 		cmn	r1, #1
 138 00e0 0010A013 		movne	r1, #0
 139 00e4 0110A003 		moveq	r1, #1
 140 00e8 0500A0E3 		mov	r0, #5
 141              	.LVL16:
 142 00ec FEFFFFEB 		bl	_test_assert
 143              	.LVL17:
 144 00f0 000050E3 		cmp	r0, #0
 145 00f4 E5FFFF1A 		bne	.L1
 146              		.loc 1 108 0
 147 00f8 5810A0E3 		mov	r1, #88
 148 00fc 0120A0E3 		mov	r2, #1
 149 0100 90069FE5 		ldr	r0, .L32
 150 0104 FEFFFFEB 		bl	chMBPostAhead
 151              	.LVL18:
 152              		.loc 1 109 0
 153 0108 010070E3 		cmn	r0, #1
 154 010c 0010A013 		movne	r1, #0
 155 0110 0110A003 		moveq	r1, #1
 156 0114 0600A0E3 		mov	r0, #6
 157              	.LVL19:
 158 0118 FEFFFFEB 		bl	_test_assert
 159              	.LVL20:
 160 011c 000050E3 		cmp	r0, #0
 161 0120 DAFFFF1A 		bne	.L1
 162              		.loc 1 110 0
 163              		.syntax divided
 164              	@ 110 "..//test/testmbox.c" 1
 165 0124 9FF021E3 		msr     CPSR_c, #0x9F
 166              	@ 0 "" 2
 167              		.loc 1 111 0
 168              		.arm
 169              		.syntax unified
 170 0128 5810A0E3 		mov	r1, #88
 171 012c 64069FE5 		ldr	r0, .L32
ARM GAS  /var/folders/3j/4xdnk5197cv_b7cw3n33qk7r0000gn/T//ccrHT8cn.s 			page 4


 172 0130 FEFFFFEB 		bl	chMBPostAheadI
 173              	.LVL21:
 174 0134 0010A0E1 		mov	r1, r0
 175              	.LVL22:
 176              		.loc 1 112 0
 177              		.syntax divided
 178              	@ 112 "..//test/testmbox.c" 1
 179 0138 1FF021E3 		msr     CPSR_c, #0x1F
 180              	@ 0 "" 2
 181              		.loc 1 113 0
 182              		.arm
 183              		.syntax unified
 184 013c 010071E3 		cmn	r1, #1
 185 0140 0010A013 		movne	r1, #0
 186 0144 0110A003 		moveq	r1, #1
 187 0148 0700A0E3 		mov	r0, #7
 188              	.LVL23:
 189 014c FEFFFFEB 		bl	_test_assert
 190              	.LVL24:
 191 0150 000050E3 		cmp	r0, #0
 192 0154 CDFFFF1A 		bne	.L1
 193              		.loc 1 118 0
 194              		.syntax divided
 195              	@ 118 "..//test/testmbox.c" 1
 196 0158 9FF021E3 		msr     CPSR_c, #0x9F
 197              	@ 0 "" 2
 198              		.arm
 199              		.syntax unified
 200 015c 241095E5 		ldr	r1, [r5, #36]
 201 0160 0800A0E3 		mov	r0, #8
 202 0164 111F6FE1 		clz	r1, r1
 203 0168 A112A0E1 		lsr	r1, r1, #5
 204 016c FEFFFFEB 		bl	_test_assert
 205              	.LVL25:
 206 0170 000050E3 		cmp	r0, #0
 207 0174 0100000A 		beq	.L4
 208              	.LVL26:
 209              	.L21:
 210              		.loc 1 223 0 discriminator 2
 211              		.syntax divided
 212              	@ 223 "..//test/testmbox.c" 1
 213 0178 1FF021E3 		msr     CPSR_c, #0x1F
 214              	@ 0 "" 2
 215              		.arm
 216              		.syntax unified
 217 017c C3FFFFEA 		b	.L1
 218              	.LVL27:
 219              	.L4:
 220              		.loc 1 118 0 discriminator 2
 221              		.syntax divided
 222              	@ 118 "..//test/testmbox.c" 1
 223 0180 1FF021E3 		msr     CPSR_c, #0x1F
 224              	@ 0 "" 2
 225              		.loc 1 119 0 discriminator 2
 226              	@ 119 "..//test/testmbox.c" 1
 227 0184 9FF021E3 		msr     CPSR_c, #0x9F
 228              	@ 0 "" 2
ARM GAS  /var/folders/3j/4xdnk5197cv_b7cw3n33qk7r0000gn/T//ccrHT8cn.s 			page 5


 229              		.arm
 230              		.syntax unified
 231 0188 181095E5 		ldr	r1, [r5, #24]
 232 018c 0900A0E3 		mov	r0, #9
 233 0190 051041E2 		sub	r1, r1, #5
 234 0194 111F6FE1 		clz	r1, r1
 235 0198 A112A0E1 		lsr	r1, r1, #5
 236 019c FEFFFFEB 		bl	_test_assert
 237              	.LVL28:
 238 01a0 000050E3 		cmp	r0, #0
 239 01a4 F3FFFF1A 		bne	.L21
 240              		.syntax divided
 241              	@ 119 "..//test/testmbox.c" 1
 242 01a8 1FF021E3 		msr     CPSR_c, #0x1F
 243              	@ 0 "" 2
 244              		.loc 1 120 0 discriminator 2
 245              	@ 120 "..//test/testmbox.c" 1
 246 01ac 9FF021E3 		msr     CPSR_c, #0x9F
 247              	@ 0 "" 2
 248              		.arm
 249              		.syntax unified
 250 01b0 0C1095E5 		ldr	r1, [r5, #12]
 251 01b4 083095E5 		ldr	r3, [r5, #8]
 252 01b8 0A00A0E3 		mov	r0, #10
 253 01bc 031041E0 		sub	r1, r1, r3
 254 01c0 111F6FE1 		clz	r1, r1
 255 01c4 A112A0E1 		lsr	r1, r1, #5
 256 01c8 FEFFFFEB 		bl	_test_assert
 257              	.LVL29:
 258 01cc 000050E3 		cmp	r0, #0
 259 01d0 E8FFFF1A 		bne	.L21
 260              		.syntax divided
 261              	@ 120 "..//test/testmbox.c" 1
 262 01d4 1FF021E3 		msr     CPSR_c, #0x1F
 263              	@ 0 "" 2
 264              	.LVL30:
 265              		.arm
 266              		.syntax unified
 267 01d8 0540A0E3 		mov	r4, #5
 268              		.loc 1 126 0 discriminator 2
 269 01dc B4659FE5 		ldr	r6, .L32
 270 01e0 030000EA 		b	.L8
 271              	.LVL31:
 272              	.L31:
 273              		.loc 1 128 0 discriminator 2
 274 01e4 0400DDE5 		ldrb	r0, [sp, #4]	@ zero_extendqisi2
 275 01e8 FEFFFFEB 		bl	test_emit_token
 276              	.LVL32:
 277              		.loc 1 125 0 discriminator 2
 278 01ec 014054E2 		subs	r4, r4, #1
 279              	.LVL33:
 280 01f0 0A00000A 		beq	.L30
 281              	.LVL34:
 282              	.L8:
 283              		.loc 1 126 0
 284 01f4 0020E0E3 		mvn	r2, #0
 285 01f8 04108DE2 		add	r1, sp, #4
ARM GAS  /var/folders/3j/4xdnk5197cv_b7cw3n33qk7r0000gn/T//ccrHT8cn.s 			page 6


 286 01fc 0600A0E1 		mov	r0, r6
 287 0200 FEFFFFEB 		bl	chMBFetch
 288              	.LVL35:
 289              		.loc 1 127 0
 290 0204 101F6FE1 		clz	r1, r0
 291 0208 0B00A0E3 		mov	r0, #11
 292              	.LVL36:
 293 020c A112A0E1 		lsr	r1, r1, #5
 294 0210 FEFFFFEB 		bl	_test_assert
 295              	.LVL37:
 296 0214 000050E3 		cmp	r0, #0
 297 0218 F1FFFF0A 		beq	.L31
 298 021c 9BFFFFEA 		b	.L1
 299              	.L30:
 300              		.loc 1 130 0
 301 0220 74159FE5 		ldr	r1, .L32+4
 302 0224 0C00A0E3 		mov	r0, #12
 303 0228 FEFFFFEB 		bl	_test_assert_sequence
 304              	.LVL38:
 305 022c 000050E3 		cmp	r0, #0
 306 0230 96FFFF1A 		bne	.L1
 307              		.loc 1 135 0
 308 0234 0020E0E3 		mvn	r2, #0
 309 0238 4710A0E3 		mov	r1, #71
 310 023c 54059FE5 		ldr	r0, .L32
 311 0240 FEFFFFEB 		bl	chMBPost
 312              	.LVL39:
 313              		.loc 1 136 0
 314 0244 101F6FE1 		clz	r1, r0
 315 0248 0D00A0E3 		mov	r0, #13
 316              	.LVL40:
 317 024c A112A0E1 		lsr	r1, r1, #5
 318 0250 FEFFFFEB 		bl	_test_assert
 319              	.LVL41:
 320 0254 000050E3 		cmp	r0, #0
 321 0258 8CFFFF1A 		bne	.L1
 322              		.loc 1 137 0
 323 025c 0020E0E3 		mvn	r2, #0
 324 0260 04108DE2 		add	r1, sp, #4
 325 0264 2C059FE5 		ldr	r0, .L32
 326 0268 FEFFFFEB 		bl	chMBFetch
 327              	.LVL42:
 328              		.loc 1 138 0
 329 026c 101F6FE1 		clz	r1, r0
 330 0270 0E00A0E3 		mov	r0, #14
 331              	.LVL43:
 332 0274 A112A0E1 		lsr	r1, r1, #5
 333 0278 FEFFFFEB 		bl	_test_assert
 334              	.LVL44:
 335 027c 000050E3 		cmp	r0, #0
 336 0280 82FFFF1A 		bne	.L1
 337              		.loc 1 139 0
 338 0284 001095E5 		ldr	r1, [r5]
 339 0288 083095E5 		ldr	r3, [r5, #8]
 340 028c 0F00A0E3 		mov	r0, #15
 341 0290 031041E0 		sub	r1, r1, r3
 342 0294 111F6FE1 		clz	r1, r1
ARM GAS  /var/folders/3j/4xdnk5197cv_b7cw3n33qk7r0000gn/T//ccrHT8cn.s 			page 7


 343 0298 A112A0E1 		lsr	r1, r1, #5
 344 029c FEFFFFEB 		bl	_test_assert
 345              	.LVL45:
 346 02a0 000050E3 		cmp	r0, #0
 347 02a4 79FFFF1A 		bne	.L1
 348              		.loc 1 140 0
 349 02a8 001095E5 		ldr	r1, [r5]
 350 02ac 0C3095E5 		ldr	r3, [r5, #12]
 351 02b0 1000A0E3 		mov	r0, #16
 352 02b4 031041E0 		sub	r1, r1, r3
 353 02b8 111F6FE1 		clz	r1, r1
 354 02bc A112A0E1 		lsr	r1, r1, #5
 355 02c0 FEFFFFEB 		bl	_test_assert
 356              	.LVL46:
 357 02c4 000050E3 		cmp	r0, #0
 358 02c8 70FFFF1A 		bne	.L1
 359              		.loc 1 145 0
 360 02cc 04108DE2 		add	r1, sp, #4
 361 02d0 0120A0E3 		mov	r2, #1
 362 02d4 BC049FE5 		ldr	r0, .L32
 363 02d8 FEFFFFEB 		bl	chMBFetch
 364              	.LVL47:
 365              		.loc 1 146 0
 366 02dc 010070E3 		cmn	r0, #1
 367 02e0 0010A013 		movne	r1, #0
 368 02e4 0110A003 		moveq	r1, #1
 369 02e8 1100A0E3 		mov	r0, #17
 370              	.LVL48:
 371 02ec FEFFFFEB 		bl	_test_assert
 372              	.LVL49:
 373 02f0 000050E3 		cmp	r0, #0
 374 02f4 65FFFF1A 		bne	.L1
 375              		.loc 1 147 0
 376              		.syntax divided
 377              	@ 147 "..//test/testmbox.c" 1
 378 02f8 9FF021E3 		msr     CPSR_c, #0x9F
 379              	@ 0 "" 2
 380              		.loc 1 148 0
 381              		.arm
 382              		.syntax unified
 383 02fc 94049FE5 		ldr	r0, .L32
 384 0300 04108DE2 		add	r1, sp, #4
 385 0304 FEFFFFEB 		bl	chMBFetchI
 386              	.LVL50:
 387 0308 0010A0E1 		mov	r1, r0
 388              	.LVL51:
 389              		.loc 1 149 0
 390              		.syntax divided
 391              	@ 149 "..//test/testmbox.c" 1
 392 030c 1FF021E3 		msr     CPSR_c, #0x1F
 393              	@ 0 "" 2
 394              		.loc 1 150 0
 395              		.arm
 396              		.syntax unified
 397 0310 010071E3 		cmn	r1, #1
 398 0314 0010A013 		movne	r1, #0
 399 0318 0110A003 		moveq	r1, #1
ARM GAS  /var/folders/3j/4xdnk5197cv_b7cw3n33qk7r0000gn/T//ccrHT8cn.s 			page 8


 400 031c 1200A0E3 		mov	r0, #18
 401              	.LVL52:
 402 0320 FEFFFFEB 		bl	_test_assert
 403              	.LVL53:
 404 0324 000050E3 		cmp	r0, #0
 405 0328 58FFFF1A 		bne	.L1
 406              		.loc 1 155 0
 407              		.syntax divided
 408              	@ 155 "..//test/testmbox.c" 1
 409 032c 9FF021E3 		msr     CPSR_c, #0x9F
 410              	@ 0 "" 2
 411              		.arm
 412              		.syntax unified
 413 0330 241095E5 		ldr	r1, [r5, #36]
 414 0334 1300A0E3 		mov	r0, #19
 415 0338 051041E2 		sub	r1, r1, #5
 416 033c 111F6FE1 		clz	r1, r1
 417 0340 A112A0E1 		lsr	r1, r1, #5
 418 0344 FEFFFFEB 		bl	_test_assert
 419              	.LVL54:
 420 0348 000050E3 		cmp	r0, #0
 421 034c 89FFFF1A 		bne	.L21
 422              		.loc 1 155 0 is_stmt 0 discriminator 2
 423              		.syntax divided
 424              	@ 155 "..//test/testmbox.c" 1
 425 0350 1FF021E3 		msr     CPSR_c, #0x1F
 426              	@ 0 "" 2
 427              		.loc 1 156 0 is_stmt 1 discriminator 2
 428              	@ 156 "..//test/testmbox.c" 1
 429 0354 9FF021E3 		msr     CPSR_c, #0x9F
 430              	@ 0 "" 2
 431              		.arm
 432              		.syntax unified
 433 0358 181095E5 		ldr	r1, [r5, #24]
 434 035c 1400A0E3 		mov	r0, #20
 435 0360 111F6FE1 		clz	r1, r1
 436 0364 A112A0E1 		lsr	r1, r1, #5
 437 0368 FEFFFFEB 		bl	_test_assert
 438              	.LVL55:
 439 036c 000050E3 		cmp	r0, #0
 440 0370 80FFFF1A 		bne	.L21
 441              		.syntax divided
 442              	@ 156 "..//test/testmbox.c" 1
 443 0374 1FF021E3 		msr     CPSR_c, #0x1F
 444              	@ 0 "" 2
 445              		.loc 1 157 0 discriminator 2
 446              	@ 157 "..//test/testmbox.c" 1
 447 0378 9FF021E3 		msr     CPSR_c, #0x9F
 448              	@ 0 "" 2
 449              		.arm
 450              		.syntax unified
 451 037c 0C1095E5 		ldr	r1, [r5, #12]
 452 0380 083095E5 		ldr	r3, [r5, #8]
 453 0384 1500A0E3 		mov	r0, #21
 454 0388 031041E0 		sub	r1, r1, r3
 455 038c 111F6FE1 		clz	r1, r1
 456 0390 A112A0E1 		lsr	r1, r1, #5
ARM GAS  /var/folders/3j/4xdnk5197cv_b7cw3n33qk7r0000gn/T//ccrHT8cn.s 			page 9


 457 0394 FEFFFFEB 		bl	_test_assert
 458              	.LVL56:
 459 0398 000050E3 		cmp	r0, #0
 460 039c 75FFFF1A 		bne	.L21
 461              		.syntax divided
 462              	@ 157 "..//test/testmbox.c" 1
 463 03a0 1FF021E3 		msr     CPSR_c, #0x1F
 464              	@ 0 "" 2
 465              		.loc 1 162 0 discriminator 2
 466              	@ 162 "..//test/testmbox.c" 1
 467 03a4 9FF021E3 		msr     CPSR_c, #0x9F
 468              	@ 0 "" 2
 469              		.loc 1 163 0 discriminator 2
 470              		.arm
 471              		.syntax unified
 472 03a8 4110A0E3 		mov	r1, #65
 473 03ac E4039FE5 		ldr	r0, .L32
 474 03b0 FEFFFFEB 		bl	chMBPostI
 475              	.LVL57:
 476              		.loc 1 164 0 discriminator 2
 477 03b4 101F6FE1 		clz	r1, r0
 478 03b8 1600A0E3 		mov	r0, #22
 479              	.LVL58:
 480 03bc A112A0E1 		lsr	r1, r1, #5
 481 03c0 FEFFFFEB 		bl	_test_assert
 482              	.LVL59:
 483 03c4 000050E3 		cmp	r0, #0
 484 03c8 30FFFF1A 		bne	.L1
 485              		.loc 1 165 0
 486 03cc 4210A0E3 		mov	r1, #66
 487 03d0 C0039FE5 		ldr	r0, .L32
 488 03d4 FEFFFFEB 		bl	chMBPostI
 489              	.LVL60:
 490              		.loc 1 166 0
 491 03d8 101F6FE1 		clz	r1, r0
 492 03dc 1700A0E3 		mov	r0, #23
 493              	.LVL61:
 494 03e0 A112A0E1 		lsr	r1, r1, #5
 495 03e4 FEFFFFEB 		bl	_test_assert
 496              	.LVL62:
 497 03e8 000050E3 		cmp	r0, #0
 498 03ec 27FFFF1A 		bne	.L1
 499              		.loc 1 167 0
 500 03f0 4310A0E3 		mov	r1, #67
 501 03f4 9C039FE5 		ldr	r0, .L32
 502 03f8 FEFFFFEB 		bl	chMBPostI
 503              	.LVL63:
 504              		.loc 1 168 0
 505 03fc 101F6FE1 		clz	r1, r0
 506 0400 1800A0E3 		mov	r0, #24
 507              	.LVL64:
 508 0404 A112A0E1 		lsr	r1, r1, #5
 509 0408 FEFFFFEB 		bl	_test_assert
 510              	.LVL65:
 511 040c 000050E3 		cmp	r0, #0
 512 0410 1EFFFF1A 		bne	.L1
 513              		.loc 1 169 0
ARM GAS  /var/folders/3j/4xdnk5197cv_b7cw3n33qk7r0000gn/T//ccrHT8cn.s 			page 10


 514 0414 4410A0E3 		mov	r1, #68
 515 0418 78039FE5 		ldr	r0, .L32
 516 041c FEFFFFEB 		bl	chMBPostI
 517              	.LVL66:
 518              		.loc 1 170 0
 519 0420 101F6FE1 		clz	r1, r0
 520 0424 1900A0E3 		mov	r0, #25
 521              	.LVL67:
 522 0428 A112A0E1 		lsr	r1, r1, #5
 523 042c FEFFFFEB 		bl	_test_assert
 524              	.LVL68:
 525 0430 000050E3 		cmp	r0, #0
 526 0434 15FFFF1A 		bne	.L1
 527              		.loc 1 171 0
 528 0438 4510A0E3 		mov	r1, #69
 529 043c 54039FE5 		ldr	r0, .L32
 530 0440 FEFFFFEB 		bl	chMBPostI
 531              	.LVL69:
 532              		.loc 1 172 0
 533              		.syntax divided
 534              	@ 172 "..//test/testmbox.c" 1
 535 0444 1FF021E3 		msr     CPSR_c, #0x1F
 536              	@ 0 "" 2
 537              		.loc 1 173 0
 538              		.arm
 539              		.syntax unified
 540 0448 101F6FE1 		clz	r1, r0
 541 044c 1A00A0E3 		mov	r0, #26
 542              	.LVL70:
 543 0450 A112A0E1 		lsr	r1, r1, #5
 544 0454 FEFFFFEB 		bl	_test_assert
 545              	.LVL71:
 546 0458 000050E3 		cmp	r0, #0
 547 045c 0BFFFF1A 		bne	.L1
 548              		.loc 1 174 0
 549 0460 0C1095E5 		ldr	r1, [r5, #12]
 550 0464 083095E5 		ldr	r3, [r5, #8]
 551 0468 1B00A0E3 		mov	r0, #27
 552 046c 031041E0 		sub	r1, r1, r3
 553 0470 111F6FE1 		clz	r1, r1
 554 0474 A112A0E1 		lsr	r1, r1, #5
 555 0478 FEFFFFEB 		bl	_test_assert
 556              	.LVL72:
 557 047c 000050E3 		cmp	r0, #0
 558 0480 02FFFF1A 		bne	.L1
 559 0484 0540A0E3 		mov	r4, #5
 560              	.LVL73:
 561              		.loc 1 177 0
 562 0488 08639FE5 		ldr	r6, .L32
 563              	.L12:
 564              	.LVL74:
 565              		.loc 1 176 0
 566              		.syntax divided
 567              	@ 176 "..//test/testmbox.c" 1
 568 048c 9FF021E3 		msr     CPSR_c, #0x9F
 569              	@ 0 "" 2
 570              		.loc 1 177 0
ARM GAS  /var/folders/3j/4xdnk5197cv_b7cw3n33qk7r0000gn/T//ccrHT8cn.s 			page 11


 571              		.arm
 572              		.syntax unified
 573 0490 04108DE2 		add	r1, sp, #4
 574 0494 0600A0E1 		mov	r0, r6
 575 0498 FEFFFFEB 		bl	chMBFetchI
 576              	.LVL75:
 577              		.loc 1 178 0
 578              		.syntax divided
 579              	@ 178 "..//test/testmbox.c" 1
 580 049c 1FF021E3 		msr     CPSR_c, #0x1F
 581              	@ 0 "" 2
 582              		.loc 1 179 0
 583              		.arm
 584              		.syntax unified
 585 04a0 101F6FE1 		clz	r1, r0
 586 04a4 1C00A0E3 		mov	r0, #28
 587              	.LVL76:
 588 04a8 A112A0E1 		lsr	r1, r1, #5
 589 04ac FEFFFFEB 		bl	_test_assert
 590              	.LVL77:
 591 04b0 000050E3 		cmp	r0, #0
 592 04b4 F5FEFF1A 		bne	.L1
 593              		.loc 1 180 0 discriminator 2
 594 04b8 0400DDE5 		ldrb	r0, [sp, #4]	@ zero_extendqisi2
 595 04bc FEFFFFEB 		bl	test_emit_token
 596              	.LVL78:
 597              		.loc 1 175 0 discriminator 2
 598 04c0 014054E2 		subs	r4, r4, #1
 599              	.LVL79:
 600 04c4 F0FFFF1A 		bne	.L12
 601              		.loc 1 182 0
 602 04c8 CC129FE5 		ldr	r1, .L32+4
 603 04cc 1D00A0E3 		mov	r0, #29
 604 04d0 FEFFFFEB 		bl	_test_assert_sequence
 605              	.LVL80:
 606 04d4 000050E3 		cmp	r0, #0
 607 04d8 ECFEFF1A 		bne	.L1
 608              		.loc 1 183 0
 609              		.syntax divided
 610              	@ 183 "..//test/testmbox.c" 1
 611 04dc 9FF021E3 		msr     CPSR_c, #0x9F
 612              	@ 0 "" 2
 613              		.arm
 614              		.syntax unified
 615 04e0 241095E5 		ldr	r1, [r5, #36]
 616 04e4 1E00A0E3 		mov	r0, #30
 617 04e8 051041E2 		sub	r1, r1, #5
 618 04ec 111F6FE1 		clz	r1, r1
 619 04f0 A112A0E1 		lsr	r1, r1, #5
 620 04f4 FEFFFFEB 		bl	_test_assert
 621              	.LVL81:
 622 04f8 000050E3 		cmp	r0, #0
 623 04fc 1DFFFF1A 		bne	.L21
 624              		.loc 1 183 0 is_stmt 0 discriminator 2
 625              		.syntax divided
 626              	@ 183 "..//test/testmbox.c" 1
 627 0500 1FF021E3 		msr     CPSR_c, #0x1F
ARM GAS  /var/folders/3j/4xdnk5197cv_b7cw3n33qk7r0000gn/T//ccrHT8cn.s 			page 12


 628              	@ 0 "" 2
 629              		.loc 1 184 0 is_stmt 1 discriminator 2
 630              	@ 184 "..//test/testmbox.c" 1
 631 0504 9FF021E3 		msr     CPSR_c, #0x9F
 632              	@ 0 "" 2
 633              		.arm
 634              		.syntax unified
 635 0508 181095E5 		ldr	r1, [r5, #24]
 636 050c 1F00A0E3 		mov	r0, #31
 637 0510 111F6FE1 		clz	r1, r1
 638 0514 A112A0E1 		lsr	r1, r1, #5
 639 0518 FEFFFFEB 		bl	_test_assert
 640              	.LVL82:
 641 051c 000050E3 		cmp	r0, #0
 642 0520 14FFFF1A 		bne	.L21
 643              		.syntax divided
 644              	@ 184 "..//test/testmbox.c" 1
 645 0524 1FF021E3 		msr     CPSR_c, #0x1F
 646              	@ 0 "" 2
 647              		.loc 1 185 0 discriminator 2
 648              		.arm
 649              		.syntax unified
 650 0528 0C1095E5 		ldr	r1, [r5, #12]
 651 052c 083095E5 		ldr	r3, [r5, #8]
 652 0530 2000A0E3 		mov	r0, #32
 653 0534 031041E0 		sub	r1, r1, r3
 654 0538 111F6FE1 		clz	r1, r1
 655 053c A112A0E1 		lsr	r1, r1, #5
 656 0540 FEFFFFEB 		bl	_test_assert
 657              	.LVL83:
 658 0544 000050E3 		cmp	r0, #0
 659 0548 D0FEFF1A 		bne	.L1
 660              		.loc 1 187 0
 661              		.syntax divided
 662              	@ 187 "..//test/testmbox.c" 1
 663 054c 9FF021E3 		msr     CPSR_c, #0x9F
 664              	@ 0 "" 2
 665              		.loc 1 188 0
 666              		.arm
 667              		.syntax unified
 668 0550 4510A0E3 		mov	r1, #69
 669 0554 3C029FE5 		ldr	r0, .L32
 670 0558 FEFFFFEB 		bl	chMBPostAheadI
 671              	.LVL84:
 672              		.loc 1 189 0
 673 055c 101F6FE1 		clz	r1, r0
 674 0560 2100A0E3 		mov	r0, #33
 675              	.LVL85:
 676 0564 A112A0E1 		lsr	r1, r1, #5
 677 0568 FEFFFFEB 		bl	_test_assert
 678              	.LVL86:
 679 056c 000050E3 		cmp	r0, #0
 680 0570 C6FEFF1A 		bne	.L1
 681              		.loc 1 190 0
 682 0574 4410A0E3 		mov	r1, #68
 683 0578 18029FE5 		ldr	r0, .L32
 684 057c FEFFFFEB 		bl	chMBPostAheadI
ARM GAS  /var/folders/3j/4xdnk5197cv_b7cw3n33qk7r0000gn/T//ccrHT8cn.s 			page 13


 685              	.LVL87:
 686              		.loc 1 191 0
 687 0580 101F6FE1 		clz	r1, r0
 688 0584 2200A0E3 		mov	r0, #34
 689              	.LVL88:
 690 0588 A112A0E1 		lsr	r1, r1, #5
 691 058c FEFFFFEB 		bl	_test_assert
 692              	.LVL89:
 693 0590 000050E3 		cmp	r0, #0
 694 0594 BDFEFF1A 		bne	.L1
 695              		.loc 1 192 0
 696 0598 4310A0E3 		mov	r1, #67
 697 059c F4019FE5 		ldr	r0, .L32
 698 05a0 FEFFFFEB 		bl	chMBPostAheadI
 699              	.LVL90:
 700              		.loc 1 193 0
 701 05a4 101F6FE1 		clz	r1, r0
 702 05a8 2300A0E3 		mov	r0, #35
 703              	.LVL91:
 704 05ac A112A0E1 		lsr	r1, r1, #5
 705 05b0 FEFFFFEB 		bl	_test_assert
 706              	.LVL92:
 707 05b4 000050E3 		cmp	r0, #0
 708 05b8 B4FEFF1A 		bne	.L1
 709              		.loc 1 194 0
 710 05bc 4210A0E3 		mov	r1, #66
 711 05c0 D0019FE5 		ldr	r0, .L32
 712 05c4 FEFFFFEB 		bl	chMBPostAheadI
 713              	.LVL93:
 714              		.loc 1 195 0
 715 05c8 101F6FE1 		clz	r1, r0
 716 05cc 2400A0E3 		mov	r0, #36
 717              	.LVL94:
 718 05d0 A112A0E1 		lsr	r1, r1, #5
 719 05d4 FEFFFFEB 		bl	_test_assert
 720              	.LVL95:
 721 05d8 000050E3 		cmp	r0, #0
 722 05dc ABFEFF1A 		bne	.L1
 723              		.loc 1 196 0
 724 05e0 4110A0E3 		mov	r1, #65
 725 05e4 AC019FE5 		ldr	r0, .L32
 726 05e8 FEFFFFEB 		bl	chMBPostAheadI
 727              	.LVL96:
 728              		.loc 1 197 0
 729              		.syntax divided
 730              	@ 197 "..//test/testmbox.c" 1
 731 05ec 1FF021E3 		msr     CPSR_c, #0x1F
 732              	@ 0 "" 2
 733              		.loc 1 198 0
 734              		.arm
 735              		.syntax unified
 736 05f0 101F6FE1 		clz	r1, r0
 737 05f4 2500A0E3 		mov	r0, #37
 738              	.LVL97:
 739 05f8 A112A0E1 		lsr	r1, r1, #5
 740 05fc FEFFFFEB 		bl	_test_assert
 741              	.LVL98:
ARM GAS  /var/folders/3j/4xdnk5197cv_b7cw3n33qk7r0000gn/T//ccrHT8cn.s 			page 14


 742 0600 000050E3 		cmp	r0, #0
 743 0604 A1FEFF1A 		bne	.L1
 744              		.loc 1 199 0
 745 0608 0C1095E5 		ldr	r1, [r5, #12]
 746 060c 083095E5 		ldr	r3, [r5, #8]
 747 0610 2600A0E3 		mov	r0, #38
 748 0614 031041E0 		sub	r1, r1, r3
 749 0618 111F6FE1 		clz	r1, r1
 750 061c A112A0E1 		lsr	r1, r1, #5
 751 0620 FEFFFFEB 		bl	_test_assert
 752              	.LVL99:
 753 0624 000050E3 		cmp	r0, #0
 754 0628 98FEFF1A 		bne	.L1
 755 062c 0540A0E3 		mov	r4, #5
 756              	.LVL100:
 757              		.loc 1 202 0
 758 0630 60619FE5 		ldr	r6, .L32
 759              	.L15:
 760              	.LVL101:
 761              		.loc 1 201 0
 762              		.syntax divided
 763              	@ 201 "..//test/testmbox.c" 1
 764 0634 9FF021E3 		msr     CPSR_c, #0x9F
 765              	@ 0 "" 2
 766              		.loc 1 202 0
 767              		.arm
 768              		.syntax unified
 769 0638 04108DE2 		add	r1, sp, #4
 770 063c 0600A0E1 		mov	r0, r6
 771 0640 FEFFFFEB 		bl	chMBFetchI
 772              	.LVL102:
 773              		.loc 1 203 0
 774              		.syntax divided
 775              	@ 203 "..//test/testmbox.c" 1
 776 0644 1FF021E3 		msr     CPSR_c, #0x1F
 777              	@ 0 "" 2
 778              		.loc 1 204 0
 779              		.arm
 780              		.syntax unified
 781 0648 101F6FE1 		clz	r1, r0
 782 064c 2700A0E3 		mov	r0, #39
 783              	.LVL103:
 784 0650 A112A0E1 		lsr	r1, r1, #5
 785 0654 FEFFFFEB 		bl	_test_assert
 786              	.LVL104:
 787 0658 000050E3 		cmp	r0, #0
 788 065c 8BFEFF1A 		bne	.L1
 789              		.loc 1 205 0 discriminator 2
 790 0660 0400DDE5 		ldrb	r0, [sp, #4]	@ zero_extendqisi2
 791 0664 FEFFFFEB 		bl	test_emit_token
 792              	.LVL105:
 793              		.loc 1 200 0 discriminator 2
 794 0668 014054E2 		subs	r4, r4, #1
 795              	.LVL106:
 796 066c F0FFFF1A 		bne	.L15
 797              		.loc 1 207 0
 798 0670 24119FE5 		ldr	r1, .L32+4
ARM GAS  /var/folders/3j/4xdnk5197cv_b7cw3n33qk7r0000gn/T//ccrHT8cn.s 			page 15


 799 0674 2800A0E3 		mov	r0, #40
 800 0678 FEFFFFEB 		bl	_test_assert_sequence
 801              	.LVL107:
 802 067c 000050E3 		cmp	r0, #0
 803 0680 82FEFF1A 		bne	.L1
 804              		.loc 1 208 0
 805              		.syntax divided
 806              	@ 208 "..//test/testmbox.c" 1
 807 0684 9FF021E3 		msr     CPSR_c, #0x9F
 808              	@ 0 "" 2
 809              		.arm
 810              		.syntax unified
 811 0688 241095E5 		ldr	r1, [r5, #36]
 812 068c 2900A0E3 		mov	r0, #41
 813 0690 051041E2 		sub	r1, r1, #5
 814 0694 111F6FE1 		clz	r1, r1
 815 0698 A112A0E1 		lsr	r1, r1, #5
 816 069c FEFFFFEB 		bl	_test_assert
 817              	.LVL108:
 818 06a0 000050E3 		cmp	r0, #0
 819 06a4 B3FEFF1A 		bne	.L21
 820              		.loc 1 208 0 is_stmt 0 discriminator 2
 821              		.syntax divided
 822              	@ 208 "..//test/testmbox.c" 1
 823 06a8 1FF021E3 		msr     CPSR_c, #0x1F
 824              	@ 0 "" 2
 825              		.loc 1 209 0 is_stmt 1 discriminator 2
 826              	@ 209 "..//test/testmbox.c" 1
 827 06ac 9FF021E3 		msr     CPSR_c, #0x9F
 828              	@ 0 "" 2
 829              		.arm
 830              		.syntax unified
 831 06b0 181095E5 		ldr	r1, [r5, #24]
 832 06b4 2A00A0E3 		mov	r0, #42
 833 06b8 111F6FE1 		clz	r1, r1
 834 06bc A112A0E1 		lsr	r1, r1, #5
 835 06c0 FEFFFFEB 		bl	_test_assert
 836              	.LVL109:
 837 06c4 000050E3 		cmp	r0, #0
 838 06c8 AAFEFF1A 		bne	.L21
 839              		.syntax divided
 840              	@ 209 "..//test/testmbox.c" 1
 841 06cc 1FF021E3 		msr     CPSR_c, #0x1F
 842              	@ 0 "" 2
 843              		.loc 1 210 0 discriminator 2
 844              		.arm
 845              		.syntax unified
 846 06d0 0C1095E5 		ldr	r1, [r5, #12]
 847 06d4 083095E5 		ldr	r3, [r5, #8]
 848 06d8 2B00A0E3 		mov	r0, #43
 849 06dc 031041E0 		sub	r1, r1, r3
 850 06e0 111F6FE1 		clz	r1, r1
 851 06e4 A112A0E1 		lsr	r1, r1, #5
 852 06e8 FEFFFFEB 		bl	_test_assert
 853              	.LVL110:
 854 06ec 000050E3 		cmp	r0, #0
 855 06f0 66FEFF1A 		bne	.L1
ARM GAS  /var/folders/3j/4xdnk5197cv_b7cw3n33qk7r0000gn/T//ccrHT8cn.s 			page 16


 856              		.loc 1 215 0
 857 06f4 9C009FE5 		ldr	r0, .L32
 858 06f8 FEFFFFEB 		bl	chMBReset
 859              	.LVL111:
 860              		.loc 1 220 0
 861              		.syntax divided
 862              	@ 220 "..//test/testmbox.c" 1
 863 06fc 9FF021E3 		msr     CPSR_c, #0x9F
 864              	@ 0 "" 2
 865              		.arm
 866              		.syntax unified
 867 0700 241095E5 		ldr	r1, [r5, #36]
 868 0704 2C00A0E3 		mov	r0, #44
 869 0708 051041E2 		sub	r1, r1, #5
 870 070c 111F6FE1 		clz	r1, r1
 871 0710 A112A0E1 		lsr	r1, r1, #5
 872 0714 FEFFFFEB 		bl	_test_assert
 873              	.LVL112:
 874 0718 000050E3 		cmp	r0, #0
 875 071c 95FEFF1A 		bne	.L21
 876              		.loc 1 220 0 is_stmt 0 discriminator 2
 877              		.syntax divided
 878              	@ 220 "..//test/testmbox.c" 1
 879 0720 1FF021E3 		msr     CPSR_c, #0x1F
 880              	@ 0 "" 2
 881              		.loc 1 221 0 is_stmt 1 discriminator 2
 882              	@ 221 "..//test/testmbox.c" 1
 883 0724 9FF021E3 		msr     CPSR_c, #0x9F
 884              	@ 0 "" 2
 885              		.arm
 886              		.syntax unified
 887 0728 181095E5 		ldr	r1, [r5, #24]
 888 072c 2D00A0E3 		mov	r0, #45
 889 0730 111F6FE1 		clz	r1, r1
 890 0734 A112A0E1 		lsr	r1, r1, #5
 891 0738 FEFFFFEB 		bl	_test_assert
 892              	.LVL113:
 893 073c 000050E3 		cmp	r0, #0
 894 0740 8CFEFF1A 		bne	.L21
 895              		.syntax divided
 896              	@ 221 "..//test/testmbox.c" 1
 897 0744 1FF021E3 		msr     CPSR_c, #0x1F
 898              	@ 0 "" 2
 899              		.loc 1 222 0 discriminator 2
 900              	@ 222 "..//test/testmbox.c" 1
 901 0748 9FF021E3 		msr     CPSR_c, #0x9F
 902              	@ 0 "" 2
 903              		.arm
 904              		.syntax unified
 905 074c 001095E5 		ldr	r1, [r5]
 906 0750 083095E5 		ldr	r3, [r5, #8]
 907 0754 2E00A0E3 		mov	r0, #46
 908 0758 031041E0 		sub	r1, r1, r3
 909 075c 111F6FE1 		clz	r1, r1
 910 0760 A112A0E1 		lsr	r1, r1, #5
 911 0764 FEFFFFEB 		bl	_test_assert
 912              	.LVL114:
ARM GAS  /var/folders/3j/4xdnk5197cv_b7cw3n33qk7r0000gn/T//ccrHT8cn.s 			page 17


 913 0768 000050E3 		cmp	r0, #0
 914 076c 81FEFF1A 		bne	.L21
 915              		.syntax divided
 916              	@ 222 "..//test/testmbox.c" 1
 917 0770 1FF021E3 		msr     CPSR_c, #0x1F
 918              	@ 0 "" 2
 919              		.loc 1 223 0 discriminator 2
 920              	@ 223 "..//test/testmbox.c" 1
 921 0774 9FF021E3 		msr     CPSR_c, #0x9F
 922              	@ 0 "" 2
 923              		.arm
 924              		.syntax unified
 925 0778 001095E5 		ldr	r1, [r5]
 926 077c 0C3095E5 		ldr	r3, [r5, #12]
 927 0780 2F00A0E3 		mov	r0, #47
 928 0784 031041E0 		sub	r1, r1, r3
 929 0788 111F6FE1 		clz	r1, r1
 930 078c A112A0E1 		lsr	r1, r1, #5
 931 0790 FEFFFFEB 		bl	_test_assert
 932              	.LVL115:
 933 0794 77FEFFEA 		b	.L21
 934              	.L33:
 935              		.align	2
 936              	.L32:
 937 0798 00000000 		.word	.LANCHOR0
 938 079c 00000000 		.word	.LC0
 939              		.cfi_endproc
 940              	.LFE8:
 941              		.size	mbox1_execute, .-mbox1_execute
 942              		.section	.text.mbox1_setup,"ax",%progbits
 943              		.align	2
 944              		.syntax unified
 945              		.arm
 946              		.fpu softvfp
 947              		.type	mbox1_setup, %function
 948              	mbox1_setup:
 949              	.LFB7:
 950              		.loc 1 75 0
 951              		.cfi_startproc
 952              		@ args = 0, pretend = 0, frame = 0
 953              		@ frame_needed = 0, uses_anonymous_args = 0
 954              		@ link register save eliminated.
 955              		.loc 1 77 0
 956 0000 0520A0E3 		mov	r2, #5
 957 0004 04109FE5 		ldr	r1, .L35
 958 0008 04009FE5 		ldr	r0, .L35+4
 959 000c FEFFFFEA 		b	chMBInit
 960              	.LVL116:
 961              	.L36:
 962              		.align	2
 963              	.L35:
 964 0010 00000000 		.word	test
 965 0014 00000000 		.word	.LANCHOR0
 966              		.cfi_endproc
 967              	.LFE7:
 968              		.size	mbox1_setup, .-mbox1_setup
 969              		.global	patternmbox
ARM GAS  /var/folders/3j/4xdnk5197cv_b7cw3n33qk7r0000gn/T//ccrHT8cn.s 			page 18


 970              		.global	testmbox1
 971              		.section	.data.mb1,"aw",%progbits
 972              		.align	2
 973              		.set	.LANCHOR0,. + 0
 974              		.type	mb1, %object
 975              		.size	mb1, 40
 976              	mb1:
 977 0000 00000000 		.word	test
 978 0004 14000000 		.word	test+20
 979 0008 00000000 		.word	test
 980 000c 00000000 		.word	test
 981 0010 10000000 		.word	mb1+16
 982 0014 10000000 		.word	mb1+16
 983 0018 00000000 		.word	0
 984 001c 1C000000 		.word	mb1+28
 985 0020 1C000000 		.word	mb1+28
 986 0024 05000000 		.word	5
 987              		.section	.rodata.mbox1_execute.str1.4,"aMS",%progbits,1
 988              		.align	2
 989              	.LC0:
 990 0000 41424344 		.ascii	"ABCDE\000"
 990      4500
 991              		.section	.rodata.patternmbox,"a",%progbits
 992              		.align	2
 993              		.type	patternmbox, %object
 994              		.size	patternmbox, 8
 995              	patternmbox:
 996 0000 00000000 		.word	testmbox1
 997 0004 00000000 		.word	0
 998              		.section	.rodata.str1.4,"aMS",%progbits,1
 999              		.align	2
 1000              	.LC1:
 1001 0000 4D61696C 		.ascii	"Mailboxes, queuing and timeouts\000"
 1001      626F7865 
 1001      732C2071 
 1001      75657569 
 1001      6E672061 
 1002              		.section	.rodata.testmbox1,"a",%progbits
 1003              		.align	2
 1004              		.type	testmbox1, %object
 1005              		.size	testmbox1, 16
 1006              	testmbox1:
 1007 0000 00000000 		.word	.LC1
 1008 0004 00000000 		.word	mbox1_setup
 1009 0008 00000000 		.word	0
 1010 000c 00000000 		.word	mbox1_execute
 1011              		.text
 1012              	.Letext0:
 1013              		.file 2 "/usr/local/Cellar/gcc-arm-none-eabi/20180627/arm-none-eabi/include/machine/_default_types
 1014              		.file 3 "/usr/local/Cellar/gcc-arm-none-eabi/20180627/arm-none-eabi/include/sys/_stdint.h"
 1015              		.file 4 "..//os/ports/GCC/ARM/chtypes.h"
 1016              		.file 5 "..//os/kernel/include/chlists.h"
 1017              		.file 6 "..//os/kernel/include/chthreads.h"
 1018              		.file 7 "..//os/ports/GCC/ARM/chcore.h"
 1019              		.file 8 "..//os/kernel/include/chvt.h"
 1020              		.file 9 "..//os/kernel/include/chschd.h"
 1021              		.file 10 "..//os/kernel/include/chsem.h"
ARM GAS  /var/folders/3j/4xdnk5197cv_b7cw3n33qk7r0000gn/T//ccrHT8cn.s 			page 19


 1022              		.file 11 "..//os/kernel/include/chmtx.h"
 1023              		.file 12 "..//os/kernel/include/chmboxes.h"
 1024              		.file 13 "..//os/kernel/include/chregistry.h"
 1025              		.file 14 "..//os/kernel/include/ch.h"
 1026              		.file 15 "..//test/test.h"
 1027              		.section	.debug_info,"",%progbits
 1028              	.Ldebug_info0:
 1029 0000 500F0000 		.4byte	0xf50
 1030 0004 0400     		.2byte	0x4
 1031 0006 00000000 		.4byte	.Ldebug_abbrev0
 1032 000a 04       		.byte	0x4
 1033 000b 01       		.uleb128 0x1
 1034 000c 19010000 		.4byte	.LASF136
 1035 0010 0C       		.byte	0xc
 1036 0011 35060000 		.4byte	.LASF137
 1037 0015 34040000 		.4byte	.LASF138
 1038 0019 00000000 		.4byte	.Ldebug_ranges0+0
 1039 001d 00000000 		.4byte	0
 1040 0021 00000000 		.4byte	.Ldebug_line0
 1041 0025 02       		.uleb128 0x2
 1042 0026 04       		.byte	0x4
 1043 0027 05       		.byte	0x5
 1044 0028 696E7400 		.ascii	"int\000"
 1045 002c 03       		.uleb128 0x3
 1046 002d 04       		.byte	0x4
 1047 002e 07       		.byte	0x7
 1048 002f 43020000 		.4byte	.LASF0
 1049 0033 03       		.uleb128 0x3
 1050 0034 01       		.byte	0x1
 1051 0035 06       		.byte	0x6
 1052 0036 D1000000 		.4byte	.LASF1
 1053 003a 04       		.uleb128 0x4
 1054 003b 23000000 		.4byte	.LASF4
 1055 003f 02       		.byte	0x2
 1056 0040 2B       		.byte	0x2b
 1057 0041 45000000 		.4byte	0x45
 1058 0045 03       		.uleb128 0x3
 1059 0046 01       		.byte	0x1
 1060 0047 08       		.byte	0x8
 1061 0048 1F040000 		.4byte	.LASF2
 1062 004c 03       		.uleb128 0x3
 1063 004d 02       		.byte	0x2
 1064 004e 05       		.byte	0x5
 1065 004f 8B040000 		.4byte	.LASF3
 1066 0053 04       		.uleb128 0x4
 1067 0054 4D050000 		.4byte	.LASF5
 1068 0058 02       		.byte	0x2
 1069 0059 39       		.byte	0x39
 1070 005a 5E000000 		.4byte	0x5e
 1071 005e 03       		.uleb128 0x3
 1072 005f 02       		.byte	0x2
 1073 0060 07       		.byte	0x7
 1074 0061 C3020000 		.4byte	.LASF6
 1075 0065 04       		.uleb128 0x4
 1076 0066 74050000 		.4byte	.LASF7
 1077 006a 02       		.byte	0x2
 1078 006b 4D       		.byte	0x4d
ARM GAS  /var/folders/3j/4xdnk5197cv_b7cw3n33qk7r0000gn/T//ccrHT8cn.s 			page 20


 1079 006c 70000000 		.4byte	0x70
 1080 0070 03       		.uleb128 0x3
 1081 0071 04       		.byte	0x4
 1082 0072 05       		.byte	0x5
 1083 0073 D5010000 		.4byte	.LASF8
 1084 0077 04       		.uleb128 0x4
 1085 0078 21020000 		.4byte	.LASF9
 1086 007c 02       		.byte	0x2
 1087 007d 4F       		.byte	0x4f
 1088 007e 82000000 		.4byte	0x82
 1089 0082 03       		.uleb128 0x3
 1090 0083 04       		.byte	0x4
 1091 0084 07       		.byte	0x7
 1092 0085 62020000 		.4byte	.LASF10
 1093 0089 03       		.uleb128 0x3
 1094 008a 08       		.byte	0x8
 1095 008b 05       		.byte	0x5
 1096 008c C3000000 		.4byte	.LASF11
 1097 0090 03       		.uleb128 0x3
 1098 0091 08       		.byte	0x8
 1099 0092 07       		.byte	0x7
 1100 0093 55000000 		.4byte	.LASF12
 1101 0097 04       		.uleb128 0x4
 1102 0098 ED050000 		.4byte	.LASF13
 1103 009c 03       		.byte	0x3
 1104 009d 18       		.byte	0x18
 1105 009e 3A000000 		.4byte	0x3a
 1106 00a2 04       		.uleb128 0x4
 1107 00a3 E7010000 		.4byte	.LASF14
 1108 00a7 03       		.byte	0x3
 1109 00a8 24       		.byte	0x24
 1110 00a9 53000000 		.4byte	0x53
 1111 00ad 04       		.uleb128 0x4
 1112 00ae 17040000 		.4byte	.LASF15
 1113 00b2 03       		.byte	0x3
 1114 00b3 2C       		.byte	0x2c
 1115 00b4 65000000 		.4byte	0x65
 1116 00b8 04       		.uleb128 0x4
 1117 00b9 07050000 		.4byte	.LASF16
 1118 00bd 03       		.byte	0x3
 1119 00be 30       		.byte	0x30
 1120 00bf 77000000 		.4byte	0x77
 1121 00c3 04       		.uleb128 0x4
 1122 00c4 FA000000 		.4byte	.LASF17
 1123 00c8 04       		.byte	0x4
 1124 00c9 29       		.byte	0x29
 1125 00ca AD000000 		.4byte	0xad
 1126 00ce 04       		.uleb128 0x4
 1127 00cf F7020000 		.4byte	.LASF18
 1128 00d3 04       		.byte	0x4
 1129 00d4 2A       		.byte	0x2a
 1130 00d5 97000000 		.4byte	0x97
 1131 00d9 04       		.uleb128 0x4
 1132 00da DE010000 		.4byte	.LASF19
 1133 00de 04       		.byte	0x4
 1134 00df 2B       		.byte	0x2b
 1135 00e0 97000000 		.4byte	0x97
ARM GAS  /var/folders/3j/4xdnk5197cv_b7cw3n33qk7r0000gn/T//ccrHT8cn.s 			page 21


 1136 00e4 04       		.uleb128 0x4
 1137 00e5 ED030000 		.4byte	.LASF20
 1138 00e9 04       		.byte	0x4
 1139 00ea 2C       		.byte	0x2c
 1140 00eb 97000000 		.4byte	0x97
 1141 00ef 04       		.uleb128 0x4
 1142 00f0 31050000 		.4byte	.LASF21
 1143 00f4 04       		.byte	0x4
 1144 00f5 2D       		.byte	0x2d
 1145 00f6 97000000 		.4byte	0x97
 1146 00fa 04       		.uleb128 0x4
 1147 00fb 0F040000 		.4byte	.LASF22
 1148 00ff 04       		.byte	0x4
 1149 0100 2E       		.byte	0x2e
 1150 0101 B8000000 		.4byte	0xb8
 1151 0105 04       		.uleb128 0x4
 1152 0106 E1020000 		.4byte	.LASF23
 1153 010a 04       		.byte	0x4
 1154 010b 2F       		.byte	0x2f
 1155 010c AD000000 		.4byte	0xad
 1156 0110 04       		.uleb128 0x4
 1157 0111 17030000 		.4byte	.LASF24
 1158 0115 04       		.byte	0x4
 1159 0116 31       		.byte	0x31
 1160 0117 B8000000 		.4byte	0xb8
 1161 011b 04       		.uleb128 0x4
 1162 011c 5F050000 		.4byte	.LASF25
 1163 0120 04       		.byte	0x4
 1164 0121 33       		.byte	0x33
 1165 0122 B8000000 		.4byte	0xb8
 1166 0126 05       		.uleb128 0x5
 1167 0127 1B010000 		.4byte	0x11b
 1168 012b 04       		.uleb128 0x4
 1169 012c 3D020000 		.4byte	.LASF26
 1170 0130 04       		.byte	0x4
 1171 0131 34       		.byte	0x34
 1172 0132 AD000000 		.4byte	0xad
 1173 0136 04       		.uleb128 0x4
 1174 0137 DF040000 		.4byte	.LASF27
 1175 013b 05       		.byte	0x5
 1176 013c 23       		.byte	0x23
 1177 013d 41010000 		.4byte	0x141
 1178 0141 06       		.uleb128 0x6
 1179 0142 DF040000 		.4byte	.LASF27
 1180 0146 44       		.byte	0x44
 1181 0147 06       		.byte	0x6
 1182 0148 57       		.byte	0x57
 1183 0149 32020000 		.4byte	0x232
 1184 014d 07       		.uleb128 0x7
 1185 014e C1040000 		.4byte	.LASF28
 1186 0152 06       		.byte	0x6
 1187 0153 58       		.byte	0x58
 1188 0154 53020000 		.4byte	0x253
 1189 0158 00       		.byte	0
 1190 0159 07       		.uleb128 0x7
 1191 015a 00040000 		.4byte	.LASF29
 1192 015e 06       		.byte	0x6
ARM GAS  /var/folders/3j/4xdnk5197cv_b7cw3n33qk7r0000gn/T//ccrHT8cn.s 			page 22


 1193 015f 5A       		.byte	0x5a
 1194 0160 53020000 		.4byte	0x253
 1195 0164 04       		.byte	0x4
 1196 0165 07       		.uleb128 0x7
 1197 0166 A6000000 		.4byte	.LASF30
 1198 016a 06       		.byte	0x6
 1199 016b 5C       		.byte	0x5c
 1200 016c FA000000 		.4byte	0xfa
 1201 0170 08       		.byte	0x8
 1202 0171 07       		.uleb128 0x7
 1203 0172 49060000 		.4byte	.LASF31
 1204 0176 06       		.byte	0x6
 1205 0177 5D       		.byte	0x5d
 1206 0178 13030000 		.4byte	0x313
 1207 017c 0C       		.byte	0xc
 1208 017d 07       		.uleb128 0x7
 1209 017e 01020000 		.4byte	.LASF32
 1210 0182 06       		.byte	0x6
 1211 0183 5F       		.byte	0x5f
 1212 0184 53020000 		.4byte	0x253
 1213 0188 10       		.byte	0x10
 1214 0189 07       		.uleb128 0x7
 1215 018a 84030000 		.4byte	.LASF33
 1216 018e 06       		.byte	0x6
 1217 018f 60       		.byte	0x60
 1218 0190 53020000 		.4byte	0x253
 1219 0194 14       		.byte	0x14
 1220 0195 07       		.uleb128 0x7
 1221 0196 FC050000 		.4byte	.LASF34
 1222 019a 06       		.byte	0x6
 1223 019b 67       		.byte	0x67
 1224 019c 67050000 		.4byte	0x567
 1225 01a0 18       		.byte	0x18
 1226 01a1 07       		.uleb128 0x7
 1227 01a2 95040000 		.4byte	.LASF35
 1228 01a6 06       		.byte	0x6
 1229 01a7 72       		.byte	0x72
 1230 01a8 D9000000 		.4byte	0xd9
 1231 01ac 1C       		.byte	0x1c
 1232 01ad 07       		.uleb128 0x7
 1233 01ae D7040000 		.4byte	.LASF36
 1234 01b2 06       		.byte	0x6
 1235 01b3 76       		.byte	0x76
 1236 01b4 CE000000 		.4byte	0xce
 1237 01b8 1D       		.byte	0x1d
 1238 01b9 07       		.uleb128 0x7
 1239 01ba D6050000 		.4byte	.LASF37
 1240 01be 06       		.byte	0x6
 1241 01bf 7B       		.byte	0x7b
 1242 01c0 E4000000 		.4byte	0xe4
 1243 01c4 1E       		.byte	0x1e
 1244 01c5 07       		.uleb128 0x7
 1245 01c6 9D040000 		.4byte	.LASF38
 1246 01ca 06       		.byte	0x6
 1247 01cb 81       		.byte	0x81
 1248 01cc EF000000 		.4byte	0xef
 1249 01d0 1F       		.byte	0x1f
ARM GAS  /var/folders/3j/4xdnk5197cv_b7cw3n33qk7r0000gn/T//ccrHT8cn.s 			page 23


 1250 01d1 07       		.uleb128 0x7
 1251 01d2 7E050000 		.4byte	.LASF39
 1252 01d6 06       		.byte	0x6
 1253 01d7 88       		.byte	0x88
 1254 01d8 26010000 		.4byte	0x126
 1255 01dc 20       		.byte	0x20
 1256 01dd 08       		.uleb128 0x8
 1257 01de 705F7500 		.ascii	"p_u\000"
 1258 01e2 06       		.byte	0x6
 1259 01e3 AD       		.byte	0xad
 1260 01e4 32050000 		.4byte	0x532
 1261 01e8 24       		.byte	0x24
 1262 01e9 07       		.uleb128 0x7
 1263 01ea 4F060000 		.4byte	.LASF40
 1264 01ee 06       		.byte	0x6
 1265 01ef B2       		.byte	0xb2
 1266 01f0 79020000 		.4byte	0x279
 1267 01f4 28       		.byte	0x28
 1268 01f5 07       		.uleb128 0x7
 1269 01f6 9A050000 		.4byte	.LASF41
 1270 01fa 06       		.byte	0x6
 1271 01fb B8       		.byte	0xb8
 1272 01fc 59020000 		.4byte	0x259
 1273 0200 2C       		.byte	0x2c
 1274 0201 07       		.uleb128 0x7
 1275 0202 0D000000 		.4byte	.LASF42
 1276 0206 06       		.byte	0x6
 1277 0207 BC       		.byte	0xbc
 1278 0208 05010000 		.4byte	0x105
 1279 020c 34       		.byte	0x34
 1280 020d 07       		.uleb128 0x7
 1281 020e FC040000 		.4byte	.LASF43
 1282 0212 06       		.byte	0x6
 1283 0213 C2       		.byte	0xc2
 1284 0214 10010000 		.4byte	0x110
 1285 0218 38       		.byte	0x38
 1286 0219 07       		.uleb128 0x7
 1287 021a 81040000 		.4byte	.LASF44
 1288 021e 06       		.byte	0x6
 1289 021f C9       		.byte	0xc9
 1290 0220 79050000 		.4byte	0x579
 1291 0224 3C       		.byte	0x3c
 1292 0225 07       		.uleb128 0x7
 1293 0226 69050000 		.4byte	.LASF45
 1294 022a 06       		.byte	0x6
 1295 022b CD       		.byte	0xcd
 1296 022c FA000000 		.4byte	0xfa
 1297 0230 40       		.byte	0x40
 1298 0231 00       		.byte	0
 1299 0232 09       		.uleb128 0x9
 1300 0233 08       		.byte	0x8
 1301 0234 05       		.byte	0x5
 1302 0235 5A       		.byte	0x5a
 1303 0236 53020000 		.4byte	0x253
 1304 023a 07       		.uleb128 0x7
 1305 023b C1040000 		.4byte	.LASF28
 1306 023f 05       		.byte	0x5
ARM GAS  /var/folders/3j/4xdnk5197cv_b7cw3n33qk7r0000gn/T//ccrHT8cn.s 			page 24


 1307 0240 5B       		.byte	0x5b
 1308 0241 53020000 		.4byte	0x253
 1309 0245 00       		.byte	0
 1310 0246 07       		.uleb128 0x7
 1311 0247 00040000 		.4byte	.LASF29
 1312 024b 05       		.byte	0x5
 1313 024c 5D       		.byte	0x5d
 1314 024d 53020000 		.4byte	0x253
 1315 0251 04       		.byte	0x4
 1316 0252 00       		.byte	0
 1317 0253 0A       		.uleb128 0xa
 1318 0254 04       		.byte	0x4
 1319 0255 36010000 		.4byte	0x136
 1320 0259 04       		.uleb128 0x4
 1321 025a 92030000 		.4byte	.LASF46
 1322 025e 05       		.byte	0x5
 1323 025f 5F       		.byte	0x5f
 1324 0260 32020000 		.4byte	0x232
 1325 0264 09       		.uleb128 0x9
 1326 0265 04       		.byte	0x4
 1327 0266 05       		.byte	0x5
 1328 0267 64       		.byte	0x64
 1329 0268 79020000 		.4byte	0x279
 1330 026c 07       		.uleb128 0x7
 1331 026d C1040000 		.4byte	.LASF28
 1332 0271 05       		.byte	0x5
 1333 0272 66       		.byte	0x66
 1334 0273 53020000 		.4byte	0x253
 1335 0277 00       		.byte	0
 1336 0278 00       		.byte	0
 1337 0279 04       		.uleb128 0x4
 1338 027a 0B030000 		.4byte	.LASF47
 1339 027e 05       		.byte	0x5
 1340 027f 69       		.byte	0x69
 1341 0280 64020000 		.4byte	0x264
 1342 0284 04       		.uleb128 0x4
 1343 0285 33030000 		.4byte	.LASF48
 1344 0289 07       		.byte	0x7
 1345 028a 9D       		.byte	0x9d
 1346 028b B8000000 		.4byte	0xb8
 1347 028f 04       		.uleb128 0x4
 1348 0290 2C020000 		.4byte	.LASF49
 1349 0294 07       		.byte	0x7
 1350 0295 A2       		.byte	0xa2
 1351 0296 9A020000 		.4byte	0x29a
 1352 029a 0B       		.uleb128 0xb
 1353 029b 04       		.byte	0x4
 1354 029c 0C       		.uleb128 0xc
 1355 029d 9A020000 		.4byte	0x29a
 1356 02a1 06       		.uleb128 0x6
 1357 02a2 93050000 		.4byte	.LASF50
 1358 02a6 24       		.byte	0x24
 1359 02a7 07       		.byte	0x7
 1360 02a8 B9       		.byte	0xb9
 1361 02a9 13030000 		.4byte	0x313
 1362 02ad 08       		.uleb128 0x8
 1363 02ae 723400   		.ascii	"r4\000"
ARM GAS  /var/folders/3j/4xdnk5197cv_b7cw3n33qk7r0000gn/T//ccrHT8cn.s 			page 25


 1364 02b1 07       		.byte	0x7
 1365 02b2 BA       		.byte	0xba
 1366 02b3 8F020000 		.4byte	0x28f
 1367 02b7 00       		.byte	0
 1368 02b8 08       		.uleb128 0x8
 1369 02b9 723500   		.ascii	"r5\000"
 1370 02bc 07       		.byte	0x7
 1371 02bd BB       		.byte	0xbb
 1372 02be 8F020000 		.4byte	0x28f
 1373 02c2 04       		.byte	0x4
 1374 02c3 08       		.uleb128 0x8
 1375 02c4 723600   		.ascii	"r6\000"
 1376 02c7 07       		.byte	0x7
 1377 02c8 BC       		.byte	0xbc
 1378 02c9 8F020000 		.4byte	0x28f
 1379 02cd 08       		.byte	0x8
 1380 02ce 08       		.uleb128 0x8
 1381 02cf 723700   		.ascii	"r7\000"
 1382 02d2 07       		.byte	0x7
 1383 02d3 BD       		.byte	0xbd
 1384 02d4 8F020000 		.4byte	0x28f
 1385 02d8 0C       		.byte	0xc
 1386 02d9 08       		.uleb128 0x8
 1387 02da 723800   		.ascii	"r8\000"
 1388 02dd 07       		.byte	0x7
 1389 02de BE       		.byte	0xbe
 1390 02df 8F020000 		.4byte	0x28f
 1391 02e3 10       		.byte	0x10
 1392 02e4 08       		.uleb128 0x8
 1393 02e5 723900   		.ascii	"r9\000"
 1394 02e8 07       		.byte	0x7
 1395 02e9 BF       		.byte	0xbf
 1396 02ea 8F020000 		.4byte	0x28f
 1397 02ee 14       		.byte	0x14
 1398 02ef 08       		.uleb128 0x8
 1399 02f0 72313000 		.ascii	"r10\000"
 1400 02f4 07       		.byte	0x7
 1401 02f5 C0       		.byte	0xc0
 1402 02f6 8F020000 		.4byte	0x28f
 1403 02fa 18       		.byte	0x18
 1404 02fb 08       		.uleb128 0x8
 1405 02fc 72313100 		.ascii	"r11\000"
 1406 0300 07       		.byte	0x7
 1407 0301 C1       		.byte	0xc1
 1408 0302 8F020000 		.4byte	0x28f
 1409 0306 1C       		.byte	0x1c
 1410 0307 08       		.uleb128 0x8
 1411 0308 6C7200   		.ascii	"lr\000"
 1412 030b 07       		.byte	0x7
 1413 030c C2       		.byte	0xc2
 1414 030d 8F020000 		.4byte	0x28f
 1415 0311 20       		.byte	0x20
 1416 0312 00       		.byte	0
 1417 0313 06       		.uleb128 0x6
 1418 0314 BB020000 		.4byte	.LASF51
 1419 0318 04       		.byte	0x4
 1420 0319 07       		.byte	0x7
ARM GAS  /var/folders/3j/4xdnk5197cv_b7cw3n33qk7r0000gn/T//ccrHT8cn.s 			page 26


 1421 031a CA       		.byte	0xca
 1422 031b 2C030000 		.4byte	0x32c
 1423 031f 08       		.uleb128 0x8
 1424 0320 72313300 		.ascii	"r13\000"
 1425 0324 07       		.byte	0x7
 1426 0325 CB       		.byte	0xcb
 1427 0326 2C030000 		.4byte	0x32c
 1428 032a 00       		.byte	0
 1429 032b 00       		.byte	0
 1430 032c 0A       		.uleb128 0xa
 1431 032d 04       		.byte	0x4
 1432 032e A1020000 		.4byte	0x2a1
 1433 0332 04       		.uleb128 0x4
 1434 0333 99020000 		.4byte	.LASF52
 1435 0337 08       		.byte	0x8
 1436 0338 4E       		.byte	0x4e
 1437 0339 3D030000 		.4byte	0x33d
 1438 033d 0A       		.uleb128 0xa
 1439 033e 04       		.byte	0x4
 1440 033f 43030000 		.4byte	0x343
 1441 0343 0D       		.uleb128 0xd
 1442 0344 4E030000 		.4byte	0x34e
 1443 0348 0E       		.uleb128 0xe
 1444 0349 9A020000 		.4byte	0x29a
 1445 034d 00       		.byte	0
 1446 034e 04       		.uleb128 0x4
 1447 034f 24050000 		.4byte	.LASF53
 1448 0353 08       		.byte	0x8
 1449 0354 53       		.byte	0x53
 1450 0355 59030000 		.4byte	0x359
 1451 0359 06       		.uleb128 0x6
 1452 035a 24050000 		.4byte	.LASF53
 1453 035e 14       		.byte	0x14
 1454 035f 08       		.byte	0x8
 1455 0360 5A       		.byte	0x5a
 1456 0361 A2030000 		.4byte	0x3a2
 1457 0365 07       		.uleb128 0x7
 1458 0366 50020000 		.4byte	.LASF54
 1459 036a 08       		.byte	0x8
 1460 036b 5B       		.byte	0x5b
 1461 036c A2030000 		.4byte	0x3a2
 1462 0370 00       		.byte	0
 1463 0371 07       		.uleb128 0x7
 1464 0372 35020000 		.4byte	.LASF55
 1465 0376 08       		.byte	0x8
 1466 0377 5D       		.byte	0x5d
 1467 0378 A2030000 		.4byte	0x3a2
 1468 037c 04       		.byte	0x4
 1469 037d 07       		.uleb128 0x7
 1470 037e 52030000 		.4byte	.LASF56
 1471 0382 08       		.byte	0x8
 1472 0383 5F       		.byte	0x5f
 1473 0384 1B010000 		.4byte	0x11b
 1474 0388 08       		.byte	0x8
 1475 0389 07       		.uleb128 0x7
 1476 038a 5A030000 		.4byte	.LASF57
 1477 038e 08       		.byte	0x8
ARM GAS  /var/folders/3j/4xdnk5197cv_b7cw3n33qk7r0000gn/T//ccrHT8cn.s 			page 27


 1478 038f 60       		.byte	0x60
 1479 0390 32030000 		.4byte	0x332
 1480 0394 0C       		.byte	0xc
 1481 0395 07       		.uleb128 0x7
 1482 0396 AF050000 		.4byte	.LASF58
 1483 039a 08       		.byte	0x8
 1484 039b 62       		.byte	0x62
 1485 039c 9A020000 		.4byte	0x29a
 1486 03a0 10       		.byte	0x10
 1487 03a1 00       		.byte	0
 1488 03a2 0A       		.uleb128 0xa
 1489 03a3 04       		.byte	0x4
 1490 03a4 4E030000 		.4byte	0x34e
 1491 03a8 09       		.uleb128 0x9
 1492 03a9 10       		.byte	0x10
 1493 03aa 08       		.byte	0x8
 1494 03ab 6C       		.byte	0x6c
 1495 03ac E1030000 		.4byte	0x3e1
 1496 03b0 07       		.uleb128 0x7
 1497 03b1 50020000 		.4byte	.LASF54
 1498 03b5 08       		.byte	0x8
 1499 03b6 6D       		.byte	0x6d
 1500 03b7 A2030000 		.4byte	0x3a2
 1501 03bb 00       		.byte	0
 1502 03bc 07       		.uleb128 0x7
 1503 03bd 35020000 		.4byte	.LASF55
 1504 03c1 08       		.byte	0x8
 1505 03c2 6F       		.byte	0x6f
 1506 03c3 A2030000 		.4byte	0x3a2
 1507 03c7 04       		.byte	0x4
 1508 03c8 07       		.uleb128 0x7
 1509 03c9 52030000 		.4byte	.LASF56
 1510 03cd 08       		.byte	0x8
 1511 03ce 71       		.byte	0x71
 1512 03cf 1B010000 		.4byte	0x11b
 1513 03d3 08       		.byte	0x8
 1514 03d4 07       		.uleb128 0x7
 1515 03d5 10060000 		.4byte	.LASF59
 1516 03d9 08       		.byte	0x8
 1517 03da 72       		.byte	0x72
 1518 03db 26010000 		.4byte	0x126
 1519 03df 0C       		.byte	0xc
 1520 03e0 00       		.byte	0
 1521 03e1 04       		.uleb128 0x4
 1522 03e2 26060000 		.4byte	.LASF60
 1523 03e6 08       		.byte	0x8
 1524 03e7 73       		.byte	0x73
 1525 03e8 A8030000 		.4byte	0x3a8
 1526 03ec 0F       		.uleb128 0xf
 1527 03ed 37000000 		.4byte	.LASF68
 1528 03f1 08       		.byte	0x8
 1529 03f2 D1       		.byte	0xd1
 1530 03f3 E1030000 		.4byte	0x3e1
 1531 03f7 09       		.uleb128 0x9
 1532 03f8 1C       		.byte	0x1c
 1533 03f9 09       		.byte	0x9
 1534 03fa 57       		.byte	0x57
ARM GAS  /var/folders/3j/4xdnk5197cv_b7cw3n33qk7r0000gn/T//ccrHT8cn.s 			page 28


 1535 03fb 48040000 		.4byte	0x448
 1536 03ff 07       		.uleb128 0x7
 1537 0400 1C050000 		.4byte	.LASF61
 1538 0404 09       		.byte	0x9
 1539 0405 58       		.byte	0x58
 1540 0406 59020000 		.4byte	0x259
 1541 040a 00       		.byte	0
 1542 040b 07       		.uleb128 0x7
 1543 040c B3040000 		.4byte	.LASF62
 1544 0410 09       		.byte	0x9
 1545 0411 59       		.byte	0x59
 1546 0412 FA000000 		.4byte	0xfa
 1547 0416 08       		.byte	0x8
 1548 0417 07       		.uleb128 0x7
 1549 0418 8C030000 		.4byte	.LASF63
 1550 041c 09       		.byte	0x9
 1551 041d 5B       		.byte	0x5b
 1552 041e 13030000 		.4byte	0x313
 1553 0422 0C       		.byte	0xc
 1554 0423 07       		.uleb128 0x7
 1555 0424 E7020000 		.4byte	.LASF64
 1556 0428 09       		.byte	0x9
 1557 0429 5E       		.byte	0x5e
 1558 042a 53020000 		.4byte	0x253
 1559 042e 10       		.byte	0x10
 1560 042f 07       		.uleb128 0x7
 1561 0430 E5030000 		.4byte	.LASF65
 1562 0434 09       		.byte	0x9
 1563 0435 5F       		.byte	0x5f
 1564 0436 53020000 		.4byte	0x253
 1565 043a 14       		.byte	0x14
 1566 043b 07       		.uleb128 0x7
 1567 043c DB030000 		.4byte	.LASF66
 1568 0440 09       		.byte	0x9
 1569 0441 62       		.byte	0x62
 1570 0442 53020000 		.4byte	0x253
 1571 0446 18       		.byte	0x18
 1572 0447 00       		.byte	0
 1573 0448 04       		.uleb128 0x4
 1574 0449 DD050000 		.4byte	.LASF67
 1575 044d 09       		.byte	0x9
 1576 044e 64       		.byte	0x64
 1577 044f F7030000 		.4byte	0x3f7
 1578 0453 0F       		.uleb128 0xf
 1579 0454 E7050000 		.4byte	.LASF69
 1580 0458 09       		.byte	0x9
 1581 0459 68       		.byte	0x68
 1582 045a 48040000 		.4byte	0x448
 1583 045e 06       		.uleb128 0x6
 1584 045f B6050000 		.4byte	.LASF70
 1585 0463 0C       		.byte	0xc
 1586 0464 0A       		.byte	0xa
 1587 0465 25       		.byte	0x25
 1588 0466 83040000 		.4byte	0x483
 1589 046a 07       		.uleb128 0x7
 1590 046b 19020000 		.4byte	.LASF71
 1591 046f 0A       		.byte	0xa
ARM GAS  /var/folders/3j/4xdnk5197cv_b7cw3n33qk7r0000gn/T//ccrHT8cn.s 			page 29


 1592 0470 26       		.byte	0x26
 1593 0471 59020000 		.4byte	0x259
 1594 0475 00       		.byte	0
 1595 0476 07       		.uleb128 0x7
 1596 0477 B0020000 		.4byte	.LASF72
 1597 047b 0A       		.byte	0xa
 1598 047c 28       		.byte	0x28
 1599 047d 2B010000 		.4byte	0x12b
 1600 0481 08       		.byte	0x8
 1601 0482 00       		.byte	0
 1602 0483 04       		.uleb128 0x4
 1603 0484 B6050000 		.4byte	.LASF70
 1604 0488 0A       		.byte	0xa
 1605 0489 29       		.byte	0x29
 1606 048a 5E040000 		.4byte	0x45e
 1607 048e 06       		.uleb128 0x6
 1608 048f 23030000 		.4byte	.LASF73
 1609 0493 10       		.byte	0x10
 1610 0494 0B       		.byte	0xb
 1611 0495 25       		.byte	0x25
 1612 0496 BF040000 		.4byte	0x4bf
 1613 049a 07       		.uleb128 0x7
 1614 049b 01010000 		.4byte	.LASF74
 1615 049f 0B       		.byte	0xb
 1616 04a0 26       		.byte	0x26
 1617 04a1 59020000 		.4byte	0x259
 1618 04a5 00       		.byte	0
 1619 04a6 07       		.uleb128 0x7
 1620 04a7 2D060000 		.4byte	.LASF75
 1621 04ab 0B       		.byte	0xb
 1622 04ac 28       		.byte	0x28
 1623 04ad 53020000 		.4byte	0x253
 1624 04b1 08       		.byte	0x8
 1625 04b2 07       		.uleb128 0x7
 1626 04b3 58050000 		.4byte	.LASF76
 1627 04b7 0B       		.byte	0xb
 1628 04b8 2A       		.byte	0x2a
 1629 04b9 BF040000 		.4byte	0x4bf
 1630 04bd 0C       		.byte	0xc
 1631 04be 00       		.byte	0
 1632 04bf 0A       		.uleb128 0xa
 1633 04c0 04       		.byte	0x4
 1634 04c1 8E040000 		.4byte	0x48e
 1635 04c5 04       		.uleb128 0x4
 1636 04c6 23030000 		.4byte	.LASF73
 1637 04ca 0B       		.byte	0xb
 1638 04cb 2C       		.byte	0x2c
 1639 04cc 8E040000 		.4byte	0x48e
 1640 04d0 09       		.uleb128 0x9
 1641 04d1 28       		.byte	0x28
 1642 04d2 0C       		.byte	0xc
 1643 04d3 2C       		.byte	0x2c
 1644 04d4 21050000 		.4byte	0x521
 1645 04d8 07       		.uleb128 0x7
 1646 04d9 C3030000 		.4byte	.LASF77
 1647 04dd 0C       		.byte	0xc
 1648 04de 2D       		.byte	0x2d
ARM GAS  /var/folders/3j/4xdnk5197cv_b7cw3n33qk7r0000gn/T//ccrHT8cn.s 			page 30


 1649 04df 21050000 		.4byte	0x521
 1650 04e3 00       		.byte	0
 1651 04e4 07       		.uleb128 0x7
 1652 04e5 2D040000 		.4byte	.LASF78
 1653 04e9 0C       		.byte	0xc
 1654 04ea 2F       		.byte	0x2f
 1655 04eb 21050000 		.4byte	0x521
 1656 04ef 04       		.byte	0x4
 1657 04f0 07       		.uleb128 0x7
 1658 04f1 9D000000 		.4byte	.LASF79
 1659 04f5 0C       		.byte	0xc
 1660 04f6 31       		.byte	0x31
 1661 04f7 21050000 		.4byte	0x521
 1662 04fb 08       		.byte	0x8
 1663 04fc 07       		.uleb128 0x7
 1664 04fd 1A000000 		.4byte	.LASF80
 1665 0501 0C       		.byte	0xc
 1666 0502 32       		.byte	0x32
 1667 0503 21050000 		.4byte	0x521
 1668 0507 0C       		.byte	0xc
 1669 0508 07       		.uleb128 0x7
 1670 0509 C0050000 		.4byte	.LASF81
 1671 050d 0C       		.byte	0xc
 1672 050e 33       		.byte	0x33
 1673 050f 83040000 		.4byte	0x483
 1674 0513 10       		.byte	0x10
 1675 0514 07       		.uleb128 0x7
 1676 0515 8D020000 		.4byte	.LASF82
 1677 0519 0C       		.byte	0xc
 1678 051a 35       		.byte	0x35
 1679 051b 83040000 		.4byte	0x483
 1680 051f 1C       		.byte	0x1c
 1681 0520 00       		.byte	0
 1682 0521 0A       		.uleb128 0xa
 1683 0522 04       		.byte	0x4
 1684 0523 05010000 		.4byte	0x105
 1685 0527 04       		.uleb128 0x4
 1686 0528 3E000000 		.4byte	.LASF83
 1687 052c 0C       		.byte	0xc
 1688 052d 37       		.byte	0x37
 1689 052e D0040000 		.4byte	0x4d0
 1690 0532 10       		.uleb128 0x10
 1691 0533 04       		.byte	0x4
 1692 0534 06       		.byte	0x6
 1693 0535 8F       		.byte	0x8f
 1694 0536 67050000 		.4byte	0x567
 1695 053a 11       		.uleb128 0x11
 1696 053b 13000000 		.4byte	.LASF84
 1697 053f 06       		.byte	0x6
 1698 0540 96       		.byte	0x96
 1699 0541 05010000 		.4byte	0x105
 1700 0545 11       		.uleb128 0x11
 1701 0546 86000000 		.4byte	.LASF85
 1702 054a 06       		.byte	0x6
 1703 054b 9D       		.byte	0x9d
 1704 054c 05010000 		.4byte	0x105
 1705 0550 11       		.uleb128 0x11
ARM GAS  /var/folders/3j/4xdnk5197cv_b7cw3n33qk7r0000gn/T//ccrHT8cn.s 			page 31


 1706 0551 F5050000 		.4byte	.LASF86
 1707 0555 06       		.byte	0x6
 1708 0556 A4       		.byte	0xa4
 1709 0557 9A020000 		.4byte	0x29a
 1710 055b 11       		.uleb128 0x11
 1711 055c BA040000 		.4byte	.LASF87
 1712 0560 06       		.byte	0x6
 1713 0561 AB       		.byte	0xab
 1714 0562 10010000 		.4byte	0x110
 1715 0566 00       		.byte	0
 1716 0567 0A       		.uleb128 0xa
 1717 0568 04       		.byte	0x4
 1718 0569 74050000 		.4byte	0x574
 1719 056d 03       		.uleb128 0x3
 1720 056e 01       		.byte	0x1
 1721 056f 08       		.byte	0x8
 1722 0570 3B050000 		.4byte	.LASF88
 1723 0574 0C       		.uleb128 0xc
 1724 0575 6D050000 		.4byte	0x56d
 1725 0579 0A       		.uleb128 0xa
 1726 057a 04       		.byte	0x4
 1727 057b C5040000 		.4byte	0x4c5
 1728 057f 09       		.uleb128 0x9
 1729 0580 16       		.byte	0x16
 1730 0581 0D       		.byte	0xd
 1731 0582 25       		.byte	0x25
 1732 0583 60060000 		.4byte	0x660
 1733 0587 07       		.uleb128 0x7
 1734 0588 A2020000 		.4byte	.LASF89
 1735 058c 0D       		.byte	0xd
 1736 058d 26       		.byte	0x26
 1737 058e 60060000 		.4byte	0x660
 1738 0592 00       		.byte	0
 1739 0593 07       		.uleb128 0x7
 1740 0594 3E030000 		.4byte	.LASF90
 1741 0598 0D       		.byte	0xd
 1742 0599 27       		.byte	0x27
 1743 059a 97000000 		.4byte	0x97
 1744 059e 04       		.byte	0x4
 1745 059f 07       		.uleb128 0x7
 1746 05a0 9F030000 		.4byte	.LASF91
 1747 05a4 0D       		.byte	0xd
 1748 05a5 28       		.byte	0x28
 1749 05a6 97000000 		.4byte	0x97
 1750 05aa 05       		.byte	0x5
 1751 05ab 07       		.uleb128 0x7
 1752 05ac 1B060000 		.4byte	.LASF92
 1753 05b0 0D       		.byte	0xd
 1754 05b1 29       		.byte	0x29
 1755 05b2 A2000000 		.4byte	0xa2
 1756 05b6 06       		.byte	0x6
 1757 05b7 07       		.uleb128 0x7
 1758 05b8 F5030000 		.4byte	.LASF93
 1759 05bc 0D       		.byte	0xd
 1760 05bd 2A       		.byte	0x2a
 1761 05be 97000000 		.4byte	0x97
 1762 05c2 08       		.byte	0x8
ARM GAS  /var/folders/3j/4xdnk5197cv_b7cw3n33qk7r0000gn/T//ccrHT8cn.s 			page 32


 1763 05c3 07       		.uleb128 0x7
 1764 05c4 62030000 		.4byte	.LASF94
 1765 05c8 0D       		.byte	0xd
 1766 05c9 2B       		.byte	0x2b
 1767 05ca 97000000 		.4byte	0x97
 1768 05ce 09       		.byte	0x9
 1769 05cf 07       		.uleb128 0x7
 1770 05d0 78000000 		.4byte	.LASF95
 1771 05d4 0D       		.byte	0xd
 1772 05d5 2C       		.byte	0x2c
 1773 05d6 97000000 		.4byte	0x97
 1774 05da 0A       		.byte	0xa
 1775 05db 07       		.uleb128 0x7
 1776 05dc 10050000 		.4byte	.LASF96
 1777 05e0 0D       		.byte	0xd
 1778 05e1 2D       		.byte	0x2d
 1779 05e2 97000000 		.4byte	0x97
 1780 05e6 0B       		.byte	0xb
 1781 05e7 07       		.uleb128 0x7
 1782 05e8 CB050000 		.4byte	.LASF97
 1783 05ec 0D       		.byte	0xd
 1784 05ed 2E       		.byte	0x2e
 1785 05ee 97000000 		.4byte	0x97
 1786 05f2 0C       		.byte	0xc
 1787 05f3 07       		.uleb128 0x7
 1788 05f4 E6040000 		.4byte	.LASF98
 1789 05f8 0D       		.byte	0xd
 1790 05f9 2F       		.byte	0x2f
 1791 05fa 97000000 		.4byte	0x97
 1792 05fe 0D       		.byte	0xd
 1793 05ff 07       		.uleb128 0x7
 1794 0600 00000000 		.4byte	.LASF99
 1795 0604 0D       		.byte	0xd
 1796 0605 30       		.byte	0x30
 1797 0606 97000000 		.4byte	0x97
 1798 060a 0E       		.byte	0xe
 1799 060b 07       		.uleb128 0x7
 1800 060c 78030000 		.4byte	.LASF100
 1801 0610 0D       		.byte	0xd
 1802 0611 31       		.byte	0x31
 1803 0612 97000000 		.4byte	0x97
 1804 0616 0F       		.byte	0xf
 1805 0617 07       		.uleb128 0x7
 1806 0618 DD000000 		.4byte	.LASF101
 1807 061c 0D       		.byte	0xd
 1808 061d 32       		.byte	0x32
 1809 061e 97000000 		.4byte	0x97
 1810 0622 10       		.byte	0x10
 1811 0623 07       		.uleb128 0x7
 1812 0624 AD000000 		.4byte	.LASF102
 1813 0628 0D       		.byte	0xd
 1814 0629 34       		.byte	0x34
 1815 062a 97000000 		.4byte	0x97
 1816 062e 11       		.byte	0x11
 1817 062f 07       		.uleb128 0x7
 1818 0630 ED000000 		.4byte	.LASF103
 1819 0634 0D       		.byte	0xd
ARM GAS  /var/folders/3j/4xdnk5197cv_b7cw3n33qk7r0000gn/T//ccrHT8cn.s 			page 33


 1820 0635 35       		.byte	0x35
 1821 0636 97000000 		.4byte	0x97
 1822 063a 12       		.byte	0x12
 1823 063b 07       		.uleb128 0x7
 1824 063c 46030000 		.4byte	.LASF104
 1825 0640 0D       		.byte	0xd
 1826 0641 36       		.byte	0x36
 1827 0642 97000000 		.4byte	0x97
 1828 0646 13       		.byte	0x13
 1829 0647 07       		.uleb128 0x7
 1830 0648 C8040000 		.4byte	.LASF105
 1831 064c 0D       		.byte	0xd
 1832 064d 37       		.byte	0x37
 1833 064e 97000000 		.4byte	0x97
 1834 0652 14       		.byte	0x14
 1835 0653 07       		.uleb128 0x7
 1836 0654 A7040000 		.4byte	.LASF106
 1837 0658 0D       		.byte	0xd
 1838 0659 39       		.byte	0x39
 1839 065a 97000000 		.4byte	0x97
 1840 065e 15       		.byte	0x15
 1841 065f 00       		.byte	0
 1842 0660 12       		.uleb128 0x12
 1843 0661 6D050000 		.4byte	0x56d
 1844 0665 70060000 		.4byte	0x670
 1845 0669 13       		.uleb128 0x13
 1846 066a 2C000000 		.4byte	0x2c
 1847 066e 03       		.byte	0x3
 1848 066f 00       		.byte	0
 1849 0670 04       		.uleb128 0x4
 1850 0671 F0010000 		.4byte	.LASF107
 1851 0675 0D       		.byte	0xd
 1852 0676 3A       		.byte	0x3a
 1853 0677 7F050000 		.4byte	0x57f
 1854 067b 0C       		.uleb128 0xc
 1855 067c 70060000 		.4byte	0x670
 1856 0680 0F       		.uleb128 0xf
 1857 0681 74020000 		.4byte	.LASF108
 1858 0685 0D       		.byte	0xd
 1859 0686 77       		.byte	0x77
 1860 0687 7B060000 		.4byte	0x67b
 1861 068b 12       		.uleb128 0x12
 1862 068c 84020000 		.4byte	0x284
 1863 0690 9B060000 		.4byte	0x69b
 1864 0694 13       		.uleb128 0x13
 1865 0695 2C000000 		.4byte	0x2c
 1866 0699 26       		.byte	0x26
 1867 069a 00       		.byte	0
 1868 069b 0F       		.uleb128 0xf
 1869 069c 09020000 		.4byte	.LASF109
 1870 06a0 0E       		.byte	0xe
 1871 06a1 82       		.byte	0x82
 1872 06a2 8B060000 		.4byte	0x68b
 1873 06a6 06       		.uleb128 0x6
 1874 06a7 F3040000 		.4byte	.LASF110
 1875 06ab 10       		.byte	0x10
 1876 06ac 0F       		.byte	0xf
ARM GAS  /var/folders/3j/4xdnk5197cv_b7cw3n33qk7r0000gn/T//ccrHT8cn.s 			page 34


 1877 06ad 3F       		.byte	0x3f
 1878 06ae E3060000 		.4byte	0x6e3
 1879 06b2 07       		.uleb128 0x7
 1880 06b3 B6020000 		.4byte	.LASF111
 1881 06b7 0F       		.byte	0xf
 1882 06b8 40       		.byte	0x40
 1883 06b9 67050000 		.4byte	0x567
 1884 06bd 00       		.byte	0
 1885 06be 07       		.uleb128 0x7
 1886 06bf A7030000 		.4byte	.LASF112
 1887 06c3 0F       		.byte	0xf
 1888 06c4 41       		.byte	0x41
 1889 06c5 E9060000 		.4byte	0x6e9
 1890 06c9 04       		.byte	0x4
 1891 06ca 07       		.uleb128 0x7
 1892 06cb BA000000 		.4byte	.LASF113
 1893 06cf 0F       		.byte	0xf
 1894 06d0 42       		.byte	0x42
 1895 06d1 E9060000 		.4byte	0x6e9
 1896 06d5 08       		.byte	0x8
 1897 06d6 07       		.uleb128 0x7
 1898 06d7 07040000 		.4byte	.LASF114
 1899 06db 0F       		.byte	0xf
 1900 06dc 43       		.byte	0x43
 1901 06dd E9060000 		.4byte	0x6e9
 1902 06e1 0C       		.byte	0xc
 1903 06e2 00       		.byte	0
 1904 06e3 0C       		.uleb128 0xc
 1905 06e4 A6060000 		.4byte	0x6a6
 1906 06e8 14       		.uleb128 0x14
 1907 06e9 0A       		.uleb128 0xa
 1908 06ea 04       		.byte	0x4
 1909 06eb E8060000 		.4byte	0x6e8
 1910 06ef 15       		.uleb128 0x15
 1911 06f0 7805     		.2byte	0x578
 1912 06f2 0F       		.byte	0xf
 1913 06f3 48       		.byte	0x48
 1914 06f4 34070000 		.4byte	0x734
 1915 06f8 08       		.uleb128 0x8
 1916 06f9 543000   		.ascii	"T0\000"
 1917 06fc 0F       		.byte	0xf
 1918 06fd 49       		.byte	0x49
 1919 06fe 34070000 		.4byte	0x734
 1920 0702 00       		.byte	0
 1921 0703 16       		.uleb128 0x16
 1922 0704 543100   		.ascii	"T1\000"
 1923 0707 0F       		.byte	0xf
 1924 0708 4A       		.byte	0x4a
 1925 0709 34070000 		.4byte	0x734
 1926 070d 1801     		.2byte	0x118
 1927 070f 16       		.uleb128 0x16
 1928 0710 543200   		.ascii	"T2\000"
 1929 0713 0F       		.byte	0xf
 1930 0714 4B       		.byte	0x4b
 1931 0715 34070000 		.4byte	0x734
 1932 0719 3002     		.2byte	0x230
 1933 071b 16       		.uleb128 0x16
ARM GAS  /var/folders/3j/4xdnk5197cv_b7cw3n33qk7r0000gn/T//ccrHT8cn.s 			page 35


 1934 071c 543300   		.ascii	"T3\000"
 1935 071f 0F       		.byte	0xf
 1936 0720 4C       		.byte	0x4c
 1937 0721 34070000 		.4byte	0x734
 1938 0725 4803     		.2byte	0x348
 1939 0727 16       		.uleb128 0x16
 1940 0728 543400   		.ascii	"T4\000"
 1941 072b 0F       		.byte	0xf
 1942 072c 4D       		.byte	0x4d
 1943 072d 34070000 		.4byte	0x734
 1944 0731 6004     		.2byte	0x460
 1945 0733 00       		.byte	0
 1946 0734 12       		.uleb128 0x12
 1947 0735 84020000 		.4byte	0x284
 1948 0739 44070000 		.4byte	0x744
 1949 073d 13       		.uleb128 0x13
 1950 073e 2C000000 		.4byte	0x2c
 1951 0742 45       		.byte	0x45
 1952 0743 00       		.byte	0
 1953 0744 17       		.uleb128 0x17
 1954 0745 40050000 		.4byte	.LASF139
 1955 0749 7805     		.2byte	0x578
 1956 074b 0F       		.byte	0xf
 1957 074c 47       		.byte	0x47
 1958 074d 67070000 		.4byte	0x767
 1959 0751 18       		.uleb128 0x18
 1960 0752 776100   		.ascii	"wa\000"
 1961 0755 0F       		.byte	0xf
 1962 0756 4E       		.byte	0x4e
 1963 0757 EF060000 		.4byte	0x6ef
 1964 075b 11       		.uleb128 0x11
 1965 075c FA010000 		.4byte	.LASF115
 1966 0760 0F       		.byte	0xf
 1967 0761 4F       		.byte	0x4f
 1968 0762 67070000 		.4byte	0x767
 1969 0766 00       		.byte	0
 1970 0767 12       		.uleb128 0x12
 1971 0768 97000000 		.4byte	0x97
 1972 076c 78070000 		.4byte	0x778
 1973 0770 19       		.uleb128 0x19
 1974 0771 2C000000 		.4byte	0x2c
 1975 0775 7705     		.2byte	0x577
 1976 0777 00       		.byte	0
 1977 0778 12       		.uleb128 0x12
 1978 0779 53020000 		.4byte	0x253
 1979 077d 88070000 		.4byte	0x788
 1980 0781 13       		.uleb128 0x13
 1981 0782 2C000000 		.4byte	0x2c
 1982 0786 04       		.byte	0x4
 1983 0787 00       		.byte	0
 1984 0788 0F       		.uleb128 0xf
 1985 0789 EF020000 		.4byte	.LASF116
 1986 078d 0F       		.byte	0xf
 1987 078e A9       		.byte	0xa9
 1988 078f 78070000 		.4byte	0x778
 1989 0793 0F       		.uleb128 0xf
 1990 0794 98000000 		.4byte	.LASF117
ARM GAS  /var/folders/3j/4xdnk5197cv_b7cw3n33qk7r0000gn/T//ccrHT8cn.s 			page 36


 1991 0798 0F       		.byte	0xf
 1992 0799 AA       		.byte	0xaa
 1993 079a 44070000 		.4byte	0x744
 1994 079e 12       		.uleb128 0x12
 1995 079f 9C020000 		.4byte	0x29c
 1996 07a3 A9070000 		.4byte	0x7a9
 1997 07a7 1A       		.uleb128 0x1a
 1998 07a8 00       		.byte	0
 1999 07a9 0C       		.uleb128 0xc
 2000 07aa 9E070000 		.4byte	0x79e
 2001 07ae 1B       		.uleb128 0x1b
 2002 07af 776100   		.ascii	"wa\000"
 2003 07b2 0F       		.byte	0xf
 2004 07b3 AB       		.byte	0xab
 2005 07b4 A9070000 		.4byte	0x7a9
 2006 07b8 0F       		.uleb128 0xf
 2007 07b9 7D020000 		.4byte	.LASF118
 2008 07bd 0F       		.byte	0xf
 2009 07be AC       		.byte	0xac
 2010 07bf C3000000 		.4byte	0xc3
 2011 07c3 1C       		.uleb128 0x1c
 2012 07c4 6D623100 		.ascii	"mb1\000"
 2013 07c8 01       		.byte	0x1
 2014 07c9 40       		.byte	0x40
 2015 07ca 27050000 		.4byte	0x527
 2016 07ce 05       		.uleb128 0x5
 2017 07cf 03       		.byte	0x3
 2018 07d0 00000000 		.4byte	mb1
 2019 07d4 1D       		.uleb128 0x1d
 2020 07d5 29030000 		.4byte	.LASF119
 2021 07d9 01       		.byte	0x1
 2022 07da E2       		.byte	0xe2
 2023 07db E3060000 		.4byte	0x6e3
 2024 07df 05       		.uleb128 0x5
 2025 07e0 03       		.byte	0x3
 2026 07e1 00000000 		.4byte	testmbox1
 2027 07e5 12       		.uleb128 0x12
 2028 07e6 00080000 		.4byte	0x800
 2029 07ea F5070000 		.4byte	0x7f5
 2030 07ee 13       		.uleb128 0x13
 2031 07ef 2C000000 		.4byte	0x2c
 2032 07f3 01       		.byte	0x1
 2033 07f4 00       		.byte	0
 2034 07f5 0C       		.uleb128 0xc
 2035 07f6 E5070000 		.4byte	0x7e5
 2036 07fa 0A       		.uleb128 0xa
 2037 07fb 04       		.byte	0x4
 2038 07fc E3060000 		.4byte	0x6e3
 2039 0800 0C       		.uleb128 0xc
 2040 0801 FA070000 		.4byte	0x7fa
 2041 0805 1D       		.uleb128 0x1d
 2042 0806 6C000000 		.4byte	.LASF120
 2043 080a 01       		.byte	0x1
 2044 080b EE       		.byte	0xee
 2045 080c F5070000 		.4byte	0x7f5
 2046 0810 05       		.uleb128 0x5
 2047 0811 03       		.byte	0x3
ARM GAS  /var/folders/3j/4xdnk5197cv_b7cw3n33qk7r0000gn/T//ccrHT8cn.s 			page 37


 2048 0812 00000000 		.4byte	patternmbox
 2049 0816 1E       		.uleb128 0x1e
 2050 0817 CD030000 		.4byte	.LASF123
 2051 081b 01       		.byte	0x1
 2052 081c 50       		.byte	0x50
 2053 081d 00000000 		.4byte	.LFB8
 2054 0821 A0070000 		.4byte	.LFE8-.LFB8
 2055 0825 01       		.uleb128 0x1
 2056 0826 9C       		.byte	0x9c
 2057 0827 AC0E0000 		.4byte	0xeac
 2058 082b 1F       		.uleb128 0x1f
 2059 082c 58020000 		.4byte	.LASF121
 2060 0830 01       		.byte	0x1
 2061 0831 51       		.byte	0x51
 2062 0832 05010000 		.4byte	0x105
 2063 0836 00000000 		.4byte	.LLST0
 2064 083a 20       		.uleb128 0x20
 2065 083b 5D020000 		.4byte	.LASF122
 2066 083f 01       		.byte	0x1
 2067 0840 51       		.byte	0x51
 2068 0841 05010000 		.4byte	0x105
 2069 0845 02       		.uleb128 0x2
 2070 0846 91       		.byte	0x91
 2071 0847 6C       		.sleb128 -20
 2072 0848 21       		.uleb128 0x21
 2073 0849 6900     		.ascii	"i\000"
 2074 084b 01       		.byte	0x1
 2075 084c 52       		.byte	0x52
 2076 084d 2C000000 		.4byte	0x2c
 2077 0851 05010000 		.4byte	.LLST1
 2078 0855 22       		.uleb128 0x22
 2079 0856 24000000 		.4byte	.LVL0
 2080 085a DA0E0000 		.4byte	0xeda
 2081 085e 68080000 		.4byte	0x868
 2082 0862 23       		.uleb128 0x23
 2083 0863 01       		.uleb128 0x1
 2084 0864 50       		.byte	0x50
 2085 0865 01       		.uleb128 0x1
 2086 0866 31       		.byte	0x31
 2087 0867 00       		.byte	0
 2088 0868 22       		.uleb128 0x22
 2089 0869 44000000 		.4byte	.LVL2
 2090 086d E50E0000 		.4byte	0xee5
 2091 0871 88080000 		.4byte	0x888
 2092 0875 23       		.uleb128 0x23
 2093 0876 01       		.uleb128 0x1
 2094 0877 50       		.byte	0x50
 2095 0878 02       		.uleb128 0x2
 2096 0879 75       		.byte	0x75
 2097 087a 00       		.sleb128 0
 2098 087b 23       		.uleb128 0x23
 2099 087c 01       		.uleb128 0x1
 2100 087d 51       		.byte	0x51
 2101 087e 02       		.uleb128 0x2
 2102 087f 74       		.byte	0x74
 2103 0880 00       		.sleb128 0
 2104 0881 23       		.uleb128 0x23
ARM GAS  /var/folders/3j/4xdnk5197cv_b7cw3n33qk7r0000gn/T//ccrHT8cn.s 			page 38


 2105 0882 01       		.uleb128 0x1
 2106 0883 52       		.byte	0x52
 2107 0884 02       		.uleb128 0x2
 2108 0885 09       		.byte	0x9
 2109 0886 FF       		.byte	0xff
 2110 0887 00       		.byte	0
 2111 0888 22       		.uleb128 0x22
 2112 0889 54000000 		.4byte	.LVL4
 2113 088d DA0E0000 		.4byte	0xeda
 2114 0891 9B080000 		.4byte	0x89b
 2115 0895 23       		.uleb128 0x23
 2116 0896 01       		.uleb128 0x1
 2117 0897 50       		.byte	0x50
 2118 0898 01       		.uleb128 0x1
 2119 0899 32       		.byte	0x32
 2120 089a 00       		.byte	0
 2121 089b 22       		.uleb128 0x22
 2122 089c 78000000 		.4byte	.LVL6
 2123 08a0 F00E0000 		.4byte	0xef0
 2124 08a4 BB080000 		.4byte	0x8bb
 2125 08a8 23       		.uleb128 0x23
 2126 08a9 01       		.uleb128 0x1
 2127 08aa 50       		.byte	0x50
 2128 08ab 02       		.uleb128 0x2
 2129 08ac 75       		.byte	0x75
 2130 08ad 00       		.sleb128 0
 2131 08ae 23       		.uleb128 0x23
 2132 08af 01       		.uleb128 0x1
 2133 08b0 51       		.byte	0x51
 2134 08b1 02       		.uleb128 0x2
 2135 08b2 08       		.byte	0x8
 2136 08b3 41       		.byte	0x41
 2137 08b4 23       		.uleb128 0x23
 2138 08b5 01       		.uleb128 0x1
 2139 08b6 52       		.byte	0x52
 2140 08b7 02       		.uleb128 0x2
 2141 08b8 09       		.byte	0x9
 2142 08b9 FF       		.byte	0xff
 2143 08ba 00       		.byte	0
 2144 08bb 22       		.uleb128 0x22
 2145 08bc 88000000 		.4byte	.LVL8
 2146 08c0 DA0E0000 		.4byte	0xeda
 2147 08c4 CE080000 		.4byte	0x8ce
 2148 08c8 23       		.uleb128 0x23
 2149 08c9 01       		.uleb128 0x1
 2150 08ca 50       		.byte	0x50
 2151 08cb 01       		.uleb128 0x1
 2152 08cc 33       		.byte	0x33
 2153 08cd 00       		.byte	0
 2154 08ce 22       		.uleb128 0x22
 2155 08cf A8000000 		.4byte	.LVL11
 2156 08d3 E50E0000 		.4byte	0xee5
 2157 08d7 ED080000 		.4byte	0x8ed
 2158 08db 23       		.uleb128 0x23
 2159 08dc 01       		.uleb128 0x1
 2160 08dd 50       		.byte	0x50
 2161 08de 02       		.uleb128 0x2
ARM GAS  /var/folders/3j/4xdnk5197cv_b7cw3n33qk7r0000gn/T//ccrHT8cn.s 			page 39


 2162 08df 75       		.byte	0x75
 2163 08e0 00       		.sleb128 0
 2164 08e1 23       		.uleb128 0x23
 2165 08e2 01       		.uleb128 0x1
 2166 08e3 51       		.byte	0x51
 2167 08e4 02       		.uleb128 0x2
 2168 08e5 08       		.byte	0x8
 2169 08e6 58       		.byte	0x58
 2170 08e7 23       		.uleb128 0x23
 2171 08e8 01       		.uleb128 0x1
 2172 08e9 52       		.byte	0x52
 2173 08ea 01       		.uleb128 0x1
 2174 08eb 31       		.byte	0x31
 2175 08ec 00       		.byte	0
 2176 08ed 22       		.uleb128 0x22
 2177 08ee BC000000 		.4byte	.LVL13
 2178 08f2 DA0E0000 		.4byte	0xeda
 2179 08f6 00090000 		.4byte	0x900
 2180 08fa 23       		.uleb128 0x23
 2181 08fb 01       		.uleb128 0x1
 2182 08fc 50       		.byte	0x50
 2183 08fd 01       		.uleb128 0x1
 2184 08fe 34       		.byte	0x34
 2185 08ff 00       		.byte	0
 2186 0900 22       		.uleb128 0x22
 2187 0901 D4000000 		.4byte	.LVL14
 2188 0905 FB0E0000 		.4byte	0xefb
 2189 0909 1A090000 		.4byte	0x91a
 2190 090d 23       		.uleb128 0x23
 2191 090e 01       		.uleb128 0x1
 2192 090f 50       		.byte	0x50
 2193 0910 02       		.uleb128 0x2
 2194 0911 75       		.byte	0x75
 2195 0912 00       		.sleb128 0
 2196 0913 23       		.uleb128 0x23
 2197 0914 01       		.uleb128 0x1
 2198 0915 51       		.byte	0x51
 2199 0916 02       		.uleb128 0x2
 2200 0917 08       		.byte	0x8
 2201 0918 58       		.byte	0x58
 2202 0919 00       		.byte	0
 2203 091a 22       		.uleb128 0x22
 2204 091b F0000000 		.4byte	.LVL17
 2205 091f DA0E0000 		.4byte	0xeda
 2206 0923 2D090000 		.4byte	0x92d
 2207 0927 23       		.uleb128 0x23
 2208 0928 01       		.uleb128 0x1
 2209 0929 50       		.byte	0x50
 2210 092a 01       		.uleb128 0x1
 2211 092b 35       		.byte	0x35
 2212 092c 00       		.byte	0
 2213 092d 22       		.uleb128 0x22
 2214 092e 08010000 		.4byte	.LVL18
 2215 0932 F00E0000 		.4byte	0xef0
 2216 0936 4C090000 		.4byte	0x94c
 2217 093a 23       		.uleb128 0x23
 2218 093b 01       		.uleb128 0x1
ARM GAS  /var/folders/3j/4xdnk5197cv_b7cw3n33qk7r0000gn/T//ccrHT8cn.s 			page 40


 2219 093c 50       		.byte	0x50
 2220 093d 02       		.uleb128 0x2
 2221 093e 75       		.byte	0x75
 2222 093f 00       		.sleb128 0
 2223 0940 23       		.uleb128 0x23
 2224 0941 01       		.uleb128 0x1
 2225 0942 51       		.byte	0x51
 2226 0943 02       		.uleb128 0x2
 2227 0944 08       		.byte	0x8
 2228 0945 58       		.byte	0x58
 2229 0946 23       		.uleb128 0x23
 2230 0947 01       		.uleb128 0x1
 2231 0948 52       		.byte	0x52
 2232 0949 01       		.uleb128 0x1
 2233 094a 31       		.byte	0x31
 2234 094b 00       		.byte	0
 2235 094c 22       		.uleb128 0x22
 2236 094d 1C010000 		.4byte	.LVL20
 2237 0951 DA0E0000 		.4byte	0xeda
 2238 0955 5F090000 		.4byte	0x95f
 2239 0959 23       		.uleb128 0x23
 2240 095a 01       		.uleb128 0x1
 2241 095b 50       		.byte	0x50
 2242 095c 01       		.uleb128 0x1
 2243 095d 36       		.byte	0x36
 2244 095e 00       		.byte	0
 2245 095f 22       		.uleb128 0x22
 2246 0960 34010000 		.4byte	.LVL21
 2247 0964 060F0000 		.4byte	0xf06
 2248 0968 79090000 		.4byte	0x979
 2249 096c 23       		.uleb128 0x23
 2250 096d 01       		.uleb128 0x1
 2251 096e 50       		.byte	0x50
 2252 096f 02       		.uleb128 0x2
 2253 0970 75       		.byte	0x75
 2254 0971 00       		.sleb128 0
 2255 0972 23       		.uleb128 0x23
 2256 0973 01       		.uleb128 0x1
 2257 0974 51       		.byte	0x51
 2258 0975 02       		.uleb128 0x2
 2259 0976 08       		.byte	0x8
 2260 0977 58       		.byte	0x58
 2261 0978 00       		.byte	0
 2262 0979 22       		.uleb128 0x22
 2263 097a 50010000 		.4byte	.LVL24
 2264 097e DA0E0000 		.4byte	0xeda
 2265 0982 8C090000 		.4byte	0x98c
 2266 0986 23       		.uleb128 0x23
 2267 0987 01       		.uleb128 0x1
 2268 0988 50       		.byte	0x50
 2269 0989 01       		.uleb128 0x1
 2270 098a 37       		.byte	0x37
 2271 098b 00       		.byte	0
 2272 098c 22       		.uleb128 0x22
 2273 098d 70010000 		.4byte	.LVL25
 2274 0991 DA0E0000 		.4byte	0xeda
 2275 0995 9F090000 		.4byte	0x99f
ARM GAS  /var/folders/3j/4xdnk5197cv_b7cw3n33qk7r0000gn/T//ccrHT8cn.s 			page 41


 2276 0999 23       		.uleb128 0x23
 2277 099a 01       		.uleb128 0x1
 2278 099b 50       		.byte	0x50
 2279 099c 01       		.uleb128 0x1
 2280 099d 38       		.byte	0x38
 2281 099e 00       		.byte	0
 2282 099f 22       		.uleb128 0x22
 2283 09a0 A0010000 		.4byte	.LVL28
 2284 09a4 DA0E0000 		.4byte	0xeda
 2285 09a8 B2090000 		.4byte	0x9b2
 2286 09ac 23       		.uleb128 0x23
 2287 09ad 01       		.uleb128 0x1
 2288 09ae 50       		.byte	0x50
 2289 09af 01       		.uleb128 0x1
 2290 09b0 39       		.byte	0x39
 2291 09b1 00       		.byte	0
 2292 09b2 22       		.uleb128 0x22
 2293 09b3 CC010000 		.4byte	.LVL29
 2294 09b7 DA0E0000 		.4byte	0xeda
 2295 09bb C5090000 		.4byte	0x9c5
 2296 09bf 23       		.uleb128 0x23
 2297 09c0 01       		.uleb128 0x1
 2298 09c1 50       		.byte	0x50
 2299 09c2 01       		.uleb128 0x1
 2300 09c3 3A       		.byte	0x3a
 2301 09c4 00       		.byte	0
 2302 09c5 24       		.uleb128 0x24
 2303 09c6 EC010000 		.4byte	.LVL32
 2304 09ca 110F0000 		.4byte	0xf11
 2305 09ce 22       		.uleb128 0x22
 2306 09cf 04020000 		.4byte	.LVL35
 2307 09d3 1C0F0000 		.4byte	0xf1c
 2308 09d7 EE090000 		.4byte	0x9ee
 2309 09db 23       		.uleb128 0x23
 2310 09dc 01       		.uleb128 0x1
 2311 09dd 50       		.byte	0x50
 2312 09de 02       		.uleb128 0x2
 2313 09df 75       		.byte	0x75
 2314 09e0 00       		.sleb128 0
 2315 09e1 23       		.uleb128 0x23
 2316 09e2 01       		.uleb128 0x1
 2317 09e3 51       		.byte	0x51
 2318 09e4 02       		.uleb128 0x2
 2319 09e5 91       		.byte	0x91
 2320 09e6 64       		.sleb128 -28
 2321 09e7 23       		.uleb128 0x23
 2322 09e8 01       		.uleb128 0x1
 2323 09e9 52       		.byte	0x52
 2324 09ea 02       		.uleb128 0x2
 2325 09eb 09       		.byte	0x9
 2326 09ec FF       		.byte	0xff
 2327 09ed 00       		.byte	0
 2328 09ee 22       		.uleb128 0x22
 2329 09ef 14020000 		.4byte	.LVL37
 2330 09f3 DA0E0000 		.4byte	0xeda
 2331 09f7 010A0000 		.4byte	0xa01
 2332 09fb 23       		.uleb128 0x23
ARM GAS  /var/folders/3j/4xdnk5197cv_b7cw3n33qk7r0000gn/T//ccrHT8cn.s 			page 42


 2333 09fc 01       		.uleb128 0x1
 2334 09fd 50       		.byte	0x50
 2335 09fe 01       		.uleb128 0x1
 2336 09ff 3B       		.byte	0x3b
 2337 0a00 00       		.byte	0
 2338 0a01 22       		.uleb128 0x22
 2339 0a02 2C020000 		.4byte	.LVL38
 2340 0a06 270F0000 		.4byte	0xf27
 2341 0a0a 1D0A0000 		.4byte	0xa1d
 2342 0a0e 23       		.uleb128 0x23
 2343 0a0f 01       		.uleb128 0x1
 2344 0a10 50       		.byte	0x50
 2345 0a11 01       		.uleb128 0x1
 2346 0a12 3C       		.byte	0x3c
 2347 0a13 23       		.uleb128 0x23
 2348 0a14 01       		.uleb128 0x1
 2349 0a15 51       		.byte	0x51
 2350 0a16 05       		.uleb128 0x5
 2351 0a17 03       		.byte	0x3
 2352 0a18 00000000 		.4byte	.LC0
 2353 0a1c 00       		.byte	0
 2354 0a1d 22       		.uleb128 0x22
 2355 0a1e 44020000 		.4byte	.LVL39
 2356 0a22 E50E0000 		.4byte	0xee5
 2357 0a26 3D0A0000 		.4byte	0xa3d
 2358 0a2a 23       		.uleb128 0x23
 2359 0a2b 01       		.uleb128 0x1
 2360 0a2c 50       		.byte	0x50
 2361 0a2d 02       		.uleb128 0x2
 2362 0a2e 75       		.byte	0x75
 2363 0a2f 00       		.sleb128 0
 2364 0a30 23       		.uleb128 0x23
 2365 0a31 01       		.uleb128 0x1
 2366 0a32 51       		.byte	0x51
 2367 0a33 02       		.uleb128 0x2
 2368 0a34 08       		.byte	0x8
 2369 0a35 47       		.byte	0x47
 2370 0a36 23       		.uleb128 0x23
 2371 0a37 01       		.uleb128 0x1
 2372 0a38 52       		.byte	0x52
 2373 0a39 02       		.uleb128 0x2
 2374 0a3a 09       		.byte	0x9
 2375 0a3b FF       		.byte	0xff
 2376 0a3c 00       		.byte	0
 2377 0a3d 22       		.uleb128 0x22
 2378 0a3e 54020000 		.4byte	.LVL41
 2379 0a42 DA0E0000 		.4byte	0xeda
 2380 0a46 500A0000 		.4byte	0xa50
 2381 0a4a 23       		.uleb128 0x23
 2382 0a4b 01       		.uleb128 0x1
 2383 0a4c 50       		.byte	0x50
 2384 0a4d 01       		.uleb128 0x1
 2385 0a4e 3D       		.byte	0x3d
 2386 0a4f 00       		.byte	0
 2387 0a50 22       		.uleb128 0x22
 2388 0a51 6C020000 		.4byte	.LVL42
 2389 0a55 1C0F0000 		.4byte	0xf1c
ARM GAS  /var/folders/3j/4xdnk5197cv_b7cw3n33qk7r0000gn/T//ccrHT8cn.s 			page 43


 2390 0a59 700A0000 		.4byte	0xa70
 2391 0a5d 23       		.uleb128 0x23
 2392 0a5e 01       		.uleb128 0x1
 2393 0a5f 50       		.byte	0x50
 2394 0a60 02       		.uleb128 0x2
 2395 0a61 75       		.byte	0x75
 2396 0a62 00       		.sleb128 0
 2397 0a63 23       		.uleb128 0x23
 2398 0a64 01       		.uleb128 0x1
 2399 0a65 51       		.byte	0x51
 2400 0a66 02       		.uleb128 0x2
 2401 0a67 91       		.byte	0x91
 2402 0a68 64       		.sleb128 -28
 2403 0a69 23       		.uleb128 0x23
 2404 0a6a 01       		.uleb128 0x1
 2405 0a6b 52       		.byte	0x52
 2406 0a6c 02       		.uleb128 0x2
 2407 0a6d 09       		.byte	0x9
 2408 0a6e FF       		.byte	0xff
 2409 0a6f 00       		.byte	0
 2410 0a70 22       		.uleb128 0x22
 2411 0a71 7C020000 		.4byte	.LVL44
 2412 0a75 DA0E0000 		.4byte	0xeda
 2413 0a79 830A0000 		.4byte	0xa83
 2414 0a7d 23       		.uleb128 0x23
 2415 0a7e 01       		.uleb128 0x1
 2416 0a7f 50       		.byte	0x50
 2417 0a80 01       		.uleb128 0x1
 2418 0a81 3E       		.byte	0x3e
 2419 0a82 00       		.byte	0
 2420 0a83 22       		.uleb128 0x22
 2421 0a84 A0020000 		.4byte	.LVL45
 2422 0a88 DA0E0000 		.4byte	0xeda
 2423 0a8c 960A0000 		.4byte	0xa96
 2424 0a90 23       		.uleb128 0x23
 2425 0a91 01       		.uleb128 0x1
 2426 0a92 50       		.byte	0x50
 2427 0a93 01       		.uleb128 0x1
 2428 0a94 3F       		.byte	0x3f
 2429 0a95 00       		.byte	0
 2430 0a96 22       		.uleb128 0x22
 2431 0a97 C4020000 		.4byte	.LVL46
 2432 0a9b DA0E0000 		.4byte	0xeda
 2433 0a9f A90A0000 		.4byte	0xaa9
 2434 0aa3 23       		.uleb128 0x23
 2435 0aa4 01       		.uleb128 0x1
 2436 0aa5 50       		.byte	0x50
 2437 0aa6 01       		.uleb128 0x1
 2438 0aa7 40       		.byte	0x40
 2439 0aa8 00       		.byte	0
 2440 0aa9 22       		.uleb128 0x22
 2441 0aaa DC020000 		.4byte	.LVL47
 2442 0aae 1C0F0000 		.4byte	0xf1c
 2443 0ab2 C80A0000 		.4byte	0xac8
 2444 0ab6 23       		.uleb128 0x23
 2445 0ab7 01       		.uleb128 0x1
 2446 0ab8 50       		.byte	0x50
ARM GAS  /var/folders/3j/4xdnk5197cv_b7cw3n33qk7r0000gn/T//ccrHT8cn.s 			page 44


 2447 0ab9 02       		.uleb128 0x2
 2448 0aba 75       		.byte	0x75
 2449 0abb 00       		.sleb128 0
 2450 0abc 23       		.uleb128 0x23
 2451 0abd 01       		.uleb128 0x1
 2452 0abe 51       		.byte	0x51
 2453 0abf 02       		.uleb128 0x2
 2454 0ac0 91       		.byte	0x91
 2455 0ac1 64       		.sleb128 -28
 2456 0ac2 23       		.uleb128 0x23
 2457 0ac3 01       		.uleb128 0x1
 2458 0ac4 52       		.byte	0x52
 2459 0ac5 01       		.uleb128 0x1
 2460 0ac6 31       		.byte	0x31
 2461 0ac7 00       		.byte	0
 2462 0ac8 22       		.uleb128 0x22
 2463 0ac9 F0020000 		.4byte	.LVL49
 2464 0acd DA0E0000 		.4byte	0xeda
 2465 0ad1 DB0A0000 		.4byte	0xadb
 2466 0ad5 23       		.uleb128 0x23
 2467 0ad6 01       		.uleb128 0x1
 2468 0ad7 50       		.byte	0x50
 2469 0ad8 01       		.uleb128 0x1
 2470 0ad9 41       		.byte	0x41
 2471 0ada 00       		.byte	0
 2472 0adb 22       		.uleb128 0x22
 2473 0adc 08030000 		.4byte	.LVL50
 2474 0ae0 320F0000 		.4byte	0xf32
 2475 0ae4 F50A0000 		.4byte	0xaf5
 2476 0ae8 23       		.uleb128 0x23
 2477 0ae9 01       		.uleb128 0x1
 2478 0aea 50       		.byte	0x50
 2479 0aeb 02       		.uleb128 0x2
 2480 0aec 75       		.byte	0x75
 2481 0aed 00       		.sleb128 0
 2482 0aee 23       		.uleb128 0x23
 2483 0aef 01       		.uleb128 0x1
 2484 0af0 51       		.byte	0x51
 2485 0af1 02       		.uleb128 0x2
 2486 0af2 91       		.byte	0x91
 2487 0af3 64       		.sleb128 -28
 2488 0af4 00       		.byte	0
 2489 0af5 22       		.uleb128 0x22
 2490 0af6 24030000 		.4byte	.LVL53
 2491 0afa DA0E0000 		.4byte	0xeda
 2492 0afe 080B0000 		.4byte	0xb08
 2493 0b02 23       		.uleb128 0x23
 2494 0b03 01       		.uleb128 0x1
 2495 0b04 50       		.byte	0x50
 2496 0b05 01       		.uleb128 0x1
 2497 0b06 42       		.byte	0x42
 2498 0b07 00       		.byte	0
 2499 0b08 22       		.uleb128 0x22
 2500 0b09 48030000 		.4byte	.LVL54
 2501 0b0d DA0E0000 		.4byte	0xeda
 2502 0b11 1B0B0000 		.4byte	0xb1b
 2503 0b15 23       		.uleb128 0x23
ARM GAS  /var/folders/3j/4xdnk5197cv_b7cw3n33qk7r0000gn/T//ccrHT8cn.s 			page 45


 2504 0b16 01       		.uleb128 0x1
 2505 0b17 50       		.byte	0x50
 2506 0b18 01       		.uleb128 0x1
 2507 0b19 43       		.byte	0x43
 2508 0b1a 00       		.byte	0
 2509 0b1b 22       		.uleb128 0x22
 2510 0b1c 6C030000 		.4byte	.LVL55
 2511 0b20 DA0E0000 		.4byte	0xeda
 2512 0b24 2E0B0000 		.4byte	0xb2e
 2513 0b28 23       		.uleb128 0x23
 2514 0b29 01       		.uleb128 0x1
 2515 0b2a 50       		.byte	0x50
 2516 0b2b 01       		.uleb128 0x1
 2517 0b2c 44       		.byte	0x44
 2518 0b2d 00       		.byte	0
 2519 0b2e 22       		.uleb128 0x22
 2520 0b2f 98030000 		.4byte	.LVL56
 2521 0b33 DA0E0000 		.4byte	0xeda
 2522 0b37 410B0000 		.4byte	0xb41
 2523 0b3b 23       		.uleb128 0x23
 2524 0b3c 01       		.uleb128 0x1
 2525 0b3d 50       		.byte	0x50
 2526 0b3e 01       		.uleb128 0x1
 2527 0b3f 45       		.byte	0x45
 2528 0b40 00       		.byte	0
 2529 0b41 22       		.uleb128 0x22
 2530 0b42 B4030000 		.4byte	.LVL57
 2531 0b46 FB0E0000 		.4byte	0xefb
 2532 0b4a 5B0B0000 		.4byte	0xb5b
 2533 0b4e 23       		.uleb128 0x23
 2534 0b4f 01       		.uleb128 0x1
 2535 0b50 50       		.byte	0x50
 2536 0b51 02       		.uleb128 0x2
 2537 0b52 75       		.byte	0x75
 2538 0b53 00       		.sleb128 0
 2539 0b54 23       		.uleb128 0x23
 2540 0b55 01       		.uleb128 0x1
 2541 0b56 51       		.byte	0x51
 2542 0b57 02       		.uleb128 0x2
 2543 0b58 08       		.byte	0x8
 2544 0b59 41       		.byte	0x41
 2545 0b5a 00       		.byte	0
 2546 0b5b 22       		.uleb128 0x22
 2547 0b5c C4030000 		.4byte	.LVL59
 2548 0b60 DA0E0000 		.4byte	0xeda
 2549 0b64 6E0B0000 		.4byte	0xb6e
 2550 0b68 23       		.uleb128 0x23
 2551 0b69 01       		.uleb128 0x1
 2552 0b6a 50       		.byte	0x50
 2553 0b6b 01       		.uleb128 0x1
 2554 0b6c 46       		.byte	0x46
 2555 0b6d 00       		.byte	0
 2556 0b6e 22       		.uleb128 0x22
 2557 0b6f D8030000 		.4byte	.LVL60
 2558 0b73 FB0E0000 		.4byte	0xefb
 2559 0b77 880B0000 		.4byte	0xb88
 2560 0b7b 23       		.uleb128 0x23
ARM GAS  /var/folders/3j/4xdnk5197cv_b7cw3n33qk7r0000gn/T//ccrHT8cn.s 			page 46


 2561 0b7c 01       		.uleb128 0x1
 2562 0b7d 50       		.byte	0x50
 2563 0b7e 02       		.uleb128 0x2
 2564 0b7f 75       		.byte	0x75
 2565 0b80 00       		.sleb128 0
 2566 0b81 23       		.uleb128 0x23
 2567 0b82 01       		.uleb128 0x1
 2568 0b83 51       		.byte	0x51
 2569 0b84 02       		.uleb128 0x2
 2570 0b85 08       		.byte	0x8
 2571 0b86 42       		.byte	0x42
 2572 0b87 00       		.byte	0
 2573 0b88 22       		.uleb128 0x22
 2574 0b89 E8030000 		.4byte	.LVL62
 2575 0b8d DA0E0000 		.4byte	0xeda
 2576 0b91 9B0B0000 		.4byte	0xb9b
 2577 0b95 23       		.uleb128 0x23
 2578 0b96 01       		.uleb128 0x1
 2579 0b97 50       		.byte	0x50
 2580 0b98 01       		.uleb128 0x1
 2581 0b99 47       		.byte	0x47
 2582 0b9a 00       		.byte	0
 2583 0b9b 22       		.uleb128 0x22
 2584 0b9c FC030000 		.4byte	.LVL63
 2585 0ba0 FB0E0000 		.4byte	0xefb
 2586 0ba4 B50B0000 		.4byte	0xbb5
 2587 0ba8 23       		.uleb128 0x23
 2588 0ba9 01       		.uleb128 0x1
 2589 0baa 50       		.byte	0x50
 2590 0bab 02       		.uleb128 0x2
 2591 0bac 75       		.byte	0x75
 2592 0bad 00       		.sleb128 0
 2593 0bae 23       		.uleb128 0x23
 2594 0baf 01       		.uleb128 0x1
 2595 0bb0 51       		.byte	0x51
 2596 0bb1 02       		.uleb128 0x2
 2597 0bb2 08       		.byte	0x8
 2598 0bb3 43       		.byte	0x43
 2599 0bb4 00       		.byte	0
 2600 0bb5 22       		.uleb128 0x22
 2601 0bb6 0C040000 		.4byte	.LVL65
 2602 0bba DA0E0000 		.4byte	0xeda
 2603 0bbe C80B0000 		.4byte	0xbc8
 2604 0bc2 23       		.uleb128 0x23
 2605 0bc3 01       		.uleb128 0x1
 2606 0bc4 50       		.byte	0x50
 2607 0bc5 01       		.uleb128 0x1
 2608 0bc6 48       		.byte	0x48
 2609 0bc7 00       		.byte	0
 2610 0bc8 22       		.uleb128 0x22
 2611 0bc9 20040000 		.4byte	.LVL66
 2612 0bcd FB0E0000 		.4byte	0xefb
 2613 0bd1 E20B0000 		.4byte	0xbe2
 2614 0bd5 23       		.uleb128 0x23
 2615 0bd6 01       		.uleb128 0x1
 2616 0bd7 50       		.byte	0x50
 2617 0bd8 02       		.uleb128 0x2
ARM GAS  /var/folders/3j/4xdnk5197cv_b7cw3n33qk7r0000gn/T//ccrHT8cn.s 			page 47


 2618 0bd9 75       		.byte	0x75
 2619 0bda 00       		.sleb128 0
 2620 0bdb 23       		.uleb128 0x23
 2621 0bdc 01       		.uleb128 0x1
 2622 0bdd 51       		.byte	0x51
 2623 0bde 02       		.uleb128 0x2
 2624 0bdf 08       		.byte	0x8
 2625 0be0 44       		.byte	0x44
 2626 0be1 00       		.byte	0
 2627 0be2 22       		.uleb128 0x22
 2628 0be3 30040000 		.4byte	.LVL68
 2629 0be7 DA0E0000 		.4byte	0xeda
 2630 0beb F50B0000 		.4byte	0xbf5
 2631 0bef 23       		.uleb128 0x23
 2632 0bf0 01       		.uleb128 0x1
 2633 0bf1 50       		.byte	0x50
 2634 0bf2 01       		.uleb128 0x1
 2635 0bf3 49       		.byte	0x49
 2636 0bf4 00       		.byte	0
 2637 0bf5 22       		.uleb128 0x22
 2638 0bf6 44040000 		.4byte	.LVL69
 2639 0bfa FB0E0000 		.4byte	0xefb
 2640 0bfe 0F0C0000 		.4byte	0xc0f
 2641 0c02 23       		.uleb128 0x23
 2642 0c03 01       		.uleb128 0x1
 2643 0c04 50       		.byte	0x50
 2644 0c05 02       		.uleb128 0x2
 2645 0c06 75       		.byte	0x75
 2646 0c07 00       		.sleb128 0
 2647 0c08 23       		.uleb128 0x23
 2648 0c09 01       		.uleb128 0x1
 2649 0c0a 51       		.byte	0x51
 2650 0c0b 02       		.uleb128 0x2
 2651 0c0c 08       		.byte	0x8
 2652 0c0d 45       		.byte	0x45
 2653 0c0e 00       		.byte	0
 2654 0c0f 22       		.uleb128 0x22
 2655 0c10 58040000 		.4byte	.LVL71
 2656 0c14 DA0E0000 		.4byte	0xeda
 2657 0c18 220C0000 		.4byte	0xc22
 2658 0c1c 23       		.uleb128 0x23
 2659 0c1d 01       		.uleb128 0x1
 2660 0c1e 50       		.byte	0x50
 2661 0c1f 01       		.uleb128 0x1
 2662 0c20 4A       		.byte	0x4a
 2663 0c21 00       		.byte	0
 2664 0c22 22       		.uleb128 0x22
 2665 0c23 7C040000 		.4byte	.LVL72
 2666 0c27 DA0E0000 		.4byte	0xeda
 2667 0c2b 350C0000 		.4byte	0xc35
 2668 0c2f 23       		.uleb128 0x23
 2669 0c30 01       		.uleb128 0x1
 2670 0c31 50       		.byte	0x50
 2671 0c32 01       		.uleb128 0x1
 2672 0c33 4B       		.byte	0x4b
 2673 0c34 00       		.byte	0
 2674 0c35 22       		.uleb128 0x22
ARM GAS  /var/folders/3j/4xdnk5197cv_b7cw3n33qk7r0000gn/T//ccrHT8cn.s 			page 48


 2675 0c36 9C040000 		.4byte	.LVL75
 2676 0c3a 320F0000 		.4byte	0xf32
 2677 0c3e 4F0C0000 		.4byte	0xc4f
 2678 0c42 23       		.uleb128 0x23
 2679 0c43 01       		.uleb128 0x1
 2680 0c44 50       		.byte	0x50
 2681 0c45 02       		.uleb128 0x2
 2682 0c46 75       		.byte	0x75
 2683 0c47 00       		.sleb128 0
 2684 0c48 23       		.uleb128 0x23
 2685 0c49 01       		.uleb128 0x1
 2686 0c4a 51       		.byte	0x51
 2687 0c4b 02       		.uleb128 0x2
 2688 0c4c 91       		.byte	0x91
 2689 0c4d 64       		.sleb128 -28
 2690 0c4e 00       		.byte	0
 2691 0c4f 22       		.uleb128 0x22
 2692 0c50 B0040000 		.4byte	.LVL77
 2693 0c54 DA0E0000 		.4byte	0xeda
 2694 0c58 620C0000 		.4byte	0xc62
 2695 0c5c 23       		.uleb128 0x23
 2696 0c5d 01       		.uleb128 0x1
 2697 0c5e 50       		.byte	0x50
 2698 0c5f 01       		.uleb128 0x1
 2699 0c60 4C       		.byte	0x4c
 2700 0c61 00       		.byte	0
 2701 0c62 24       		.uleb128 0x24
 2702 0c63 C0040000 		.4byte	.LVL78
 2703 0c67 110F0000 		.4byte	0xf11
 2704 0c6b 22       		.uleb128 0x22
 2705 0c6c D4040000 		.4byte	.LVL80
 2706 0c70 270F0000 		.4byte	0xf27
 2707 0c74 870C0000 		.4byte	0xc87
 2708 0c78 23       		.uleb128 0x23
 2709 0c79 01       		.uleb128 0x1
 2710 0c7a 50       		.byte	0x50
 2711 0c7b 01       		.uleb128 0x1
 2712 0c7c 4D       		.byte	0x4d
 2713 0c7d 23       		.uleb128 0x23
 2714 0c7e 01       		.uleb128 0x1
 2715 0c7f 51       		.byte	0x51
 2716 0c80 05       		.uleb128 0x5
 2717 0c81 03       		.byte	0x3
 2718 0c82 00000000 		.4byte	.LC0
 2719 0c86 00       		.byte	0
 2720 0c87 22       		.uleb128 0x22
 2721 0c88 F8040000 		.4byte	.LVL81
 2722 0c8c DA0E0000 		.4byte	0xeda
 2723 0c90 9A0C0000 		.4byte	0xc9a
 2724 0c94 23       		.uleb128 0x23
 2725 0c95 01       		.uleb128 0x1
 2726 0c96 50       		.byte	0x50
 2727 0c97 01       		.uleb128 0x1
 2728 0c98 4E       		.byte	0x4e
 2729 0c99 00       		.byte	0
 2730 0c9a 22       		.uleb128 0x22
 2731 0c9b 1C050000 		.4byte	.LVL82
ARM GAS  /var/folders/3j/4xdnk5197cv_b7cw3n33qk7r0000gn/T//ccrHT8cn.s 			page 49


 2732 0c9f DA0E0000 		.4byte	0xeda
 2733 0ca3 AD0C0000 		.4byte	0xcad
 2734 0ca7 23       		.uleb128 0x23
 2735 0ca8 01       		.uleb128 0x1
 2736 0ca9 50       		.byte	0x50
 2737 0caa 01       		.uleb128 0x1
 2738 0cab 4F       		.byte	0x4f
 2739 0cac 00       		.byte	0
 2740 0cad 22       		.uleb128 0x22
 2741 0cae 44050000 		.4byte	.LVL83
 2742 0cb2 DA0E0000 		.4byte	0xeda
 2743 0cb6 C10C0000 		.4byte	0xcc1
 2744 0cba 23       		.uleb128 0x23
 2745 0cbb 01       		.uleb128 0x1
 2746 0cbc 50       		.byte	0x50
 2747 0cbd 02       		.uleb128 0x2
 2748 0cbe 08       		.byte	0x8
 2749 0cbf 20       		.byte	0x20
 2750 0cc0 00       		.byte	0
 2751 0cc1 22       		.uleb128 0x22
 2752 0cc2 5C050000 		.4byte	.LVL84
 2753 0cc6 060F0000 		.4byte	0xf06
 2754 0cca DB0C0000 		.4byte	0xcdb
 2755 0cce 23       		.uleb128 0x23
 2756 0ccf 01       		.uleb128 0x1
 2757 0cd0 50       		.byte	0x50
 2758 0cd1 02       		.uleb128 0x2
 2759 0cd2 75       		.byte	0x75
 2760 0cd3 00       		.sleb128 0
 2761 0cd4 23       		.uleb128 0x23
 2762 0cd5 01       		.uleb128 0x1
 2763 0cd6 51       		.byte	0x51
 2764 0cd7 02       		.uleb128 0x2
 2765 0cd8 08       		.byte	0x8
 2766 0cd9 45       		.byte	0x45
 2767 0cda 00       		.byte	0
 2768 0cdb 22       		.uleb128 0x22
 2769 0cdc 6C050000 		.4byte	.LVL86
 2770 0ce0 DA0E0000 		.4byte	0xeda
 2771 0ce4 EF0C0000 		.4byte	0xcef
 2772 0ce8 23       		.uleb128 0x23
 2773 0ce9 01       		.uleb128 0x1
 2774 0cea 50       		.byte	0x50
 2775 0ceb 02       		.uleb128 0x2
 2776 0cec 08       		.byte	0x8
 2777 0ced 21       		.byte	0x21
 2778 0cee 00       		.byte	0
 2779 0cef 22       		.uleb128 0x22
 2780 0cf0 80050000 		.4byte	.LVL87
 2781 0cf4 060F0000 		.4byte	0xf06
 2782 0cf8 090D0000 		.4byte	0xd09
 2783 0cfc 23       		.uleb128 0x23
 2784 0cfd 01       		.uleb128 0x1
 2785 0cfe 50       		.byte	0x50
 2786 0cff 02       		.uleb128 0x2
 2787 0d00 75       		.byte	0x75
 2788 0d01 00       		.sleb128 0
ARM GAS  /var/folders/3j/4xdnk5197cv_b7cw3n33qk7r0000gn/T//ccrHT8cn.s 			page 50


 2789 0d02 23       		.uleb128 0x23
 2790 0d03 01       		.uleb128 0x1
 2791 0d04 51       		.byte	0x51
 2792 0d05 02       		.uleb128 0x2
 2793 0d06 08       		.byte	0x8
 2794 0d07 44       		.byte	0x44
 2795 0d08 00       		.byte	0
 2796 0d09 22       		.uleb128 0x22
 2797 0d0a 90050000 		.4byte	.LVL89
 2798 0d0e DA0E0000 		.4byte	0xeda
 2799 0d12 1D0D0000 		.4byte	0xd1d
 2800 0d16 23       		.uleb128 0x23
 2801 0d17 01       		.uleb128 0x1
 2802 0d18 50       		.byte	0x50
 2803 0d19 02       		.uleb128 0x2
 2804 0d1a 08       		.byte	0x8
 2805 0d1b 22       		.byte	0x22
 2806 0d1c 00       		.byte	0
 2807 0d1d 22       		.uleb128 0x22
 2808 0d1e A4050000 		.4byte	.LVL90
 2809 0d22 060F0000 		.4byte	0xf06
 2810 0d26 370D0000 		.4byte	0xd37
 2811 0d2a 23       		.uleb128 0x23
 2812 0d2b 01       		.uleb128 0x1
 2813 0d2c 50       		.byte	0x50
 2814 0d2d 02       		.uleb128 0x2
 2815 0d2e 75       		.byte	0x75
 2816 0d2f 00       		.sleb128 0
 2817 0d30 23       		.uleb128 0x23
 2818 0d31 01       		.uleb128 0x1
 2819 0d32 51       		.byte	0x51
 2820 0d33 02       		.uleb128 0x2
 2821 0d34 08       		.byte	0x8
 2822 0d35 43       		.byte	0x43
 2823 0d36 00       		.byte	0
 2824 0d37 22       		.uleb128 0x22
 2825 0d38 B4050000 		.4byte	.LVL92
 2826 0d3c DA0E0000 		.4byte	0xeda
 2827 0d40 4B0D0000 		.4byte	0xd4b
 2828 0d44 23       		.uleb128 0x23
 2829 0d45 01       		.uleb128 0x1
 2830 0d46 50       		.byte	0x50
 2831 0d47 02       		.uleb128 0x2
 2832 0d48 08       		.byte	0x8
 2833 0d49 23       		.byte	0x23
 2834 0d4a 00       		.byte	0
 2835 0d4b 22       		.uleb128 0x22
 2836 0d4c C8050000 		.4byte	.LVL93
 2837 0d50 060F0000 		.4byte	0xf06
 2838 0d54 650D0000 		.4byte	0xd65
 2839 0d58 23       		.uleb128 0x23
 2840 0d59 01       		.uleb128 0x1
 2841 0d5a 50       		.byte	0x50
 2842 0d5b 02       		.uleb128 0x2
 2843 0d5c 75       		.byte	0x75
 2844 0d5d 00       		.sleb128 0
 2845 0d5e 23       		.uleb128 0x23
ARM GAS  /var/folders/3j/4xdnk5197cv_b7cw3n33qk7r0000gn/T//ccrHT8cn.s 			page 51


 2846 0d5f 01       		.uleb128 0x1
 2847 0d60 51       		.byte	0x51
 2848 0d61 02       		.uleb128 0x2
 2849 0d62 08       		.byte	0x8
 2850 0d63 42       		.byte	0x42
 2851 0d64 00       		.byte	0
 2852 0d65 22       		.uleb128 0x22
 2853 0d66 D8050000 		.4byte	.LVL95
 2854 0d6a DA0E0000 		.4byte	0xeda
 2855 0d6e 790D0000 		.4byte	0xd79
 2856 0d72 23       		.uleb128 0x23
 2857 0d73 01       		.uleb128 0x1
 2858 0d74 50       		.byte	0x50
 2859 0d75 02       		.uleb128 0x2
 2860 0d76 08       		.byte	0x8
 2861 0d77 24       		.byte	0x24
 2862 0d78 00       		.byte	0
 2863 0d79 22       		.uleb128 0x22
 2864 0d7a EC050000 		.4byte	.LVL96
 2865 0d7e 060F0000 		.4byte	0xf06
 2866 0d82 930D0000 		.4byte	0xd93
 2867 0d86 23       		.uleb128 0x23
 2868 0d87 01       		.uleb128 0x1
 2869 0d88 50       		.byte	0x50
 2870 0d89 02       		.uleb128 0x2
 2871 0d8a 75       		.byte	0x75
 2872 0d8b 00       		.sleb128 0
 2873 0d8c 23       		.uleb128 0x23
 2874 0d8d 01       		.uleb128 0x1
 2875 0d8e 51       		.byte	0x51
 2876 0d8f 02       		.uleb128 0x2
 2877 0d90 08       		.byte	0x8
 2878 0d91 41       		.byte	0x41
 2879 0d92 00       		.byte	0
 2880 0d93 22       		.uleb128 0x22
 2881 0d94 00060000 		.4byte	.LVL98
 2882 0d98 DA0E0000 		.4byte	0xeda
 2883 0d9c A70D0000 		.4byte	0xda7
 2884 0da0 23       		.uleb128 0x23
 2885 0da1 01       		.uleb128 0x1
 2886 0da2 50       		.byte	0x50
 2887 0da3 02       		.uleb128 0x2
 2888 0da4 08       		.byte	0x8
 2889 0da5 25       		.byte	0x25
 2890 0da6 00       		.byte	0
 2891 0da7 22       		.uleb128 0x22
 2892 0da8 24060000 		.4byte	.LVL99
 2893 0dac DA0E0000 		.4byte	0xeda
 2894 0db0 BB0D0000 		.4byte	0xdbb
 2895 0db4 23       		.uleb128 0x23
 2896 0db5 01       		.uleb128 0x1
 2897 0db6 50       		.byte	0x50
 2898 0db7 02       		.uleb128 0x2
 2899 0db8 08       		.byte	0x8
 2900 0db9 26       		.byte	0x26
 2901 0dba 00       		.byte	0
 2902 0dbb 22       		.uleb128 0x22
ARM GAS  /var/folders/3j/4xdnk5197cv_b7cw3n33qk7r0000gn/T//ccrHT8cn.s 			page 52


 2903 0dbc 44060000 		.4byte	.LVL102
 2904 0dc0 320F0000 		.4byte	0xf32
 2905 0dc4 D50D0000 		.4byte	0xdd5
 2906 0dc8 23       		.uleb128 0x23
 2907 0dc9 01       		.uleb128 0x1
 2908 0dca 50       		.byte	0x50
 2909 0dcb 02       		.uleb128 0x2
 2910 0dcc 75       		.byte	0x75
 2911 0dcd 00       		.sleb128 0
 2912 0dce 23       		.uleb128 0x23
 2913 0dcf 01       		.uleb128 0x1
 2914 0dd0 51       		.byte	0x51
 2915 0dd1 02       		.uleb128 0x2
 2916 0dd2 91       		.byte	0x91
 2917 0dd3 64       		.sleb128 -28
 2918 0dd4 00       		.byte	0
 2919 0dd5 22       		.uleb128 0x22
 2920 0dd6 58060000 		.4byte	.LVL104
 2921 0dda DA0E0000 		.4byte	0xeda
 2922 0dde E90D0000 		.4byte	0xde9
 2923 0de2 23       		.uleb128 0x23
 2924 0de3 01       		.uleb128 0x1
 2925 0de4 50       		.byte	0x50
 2926 0de5 02       		.uleb128 0x2
 2927 0de6 08       		.byte	0x8
 2928 0de7 27       		.byte	0x27
 2929 0de8 00       		.byte	0
 2930 0de9 24       		.uleb128 0x24
 2931 0dea 68060000 		.4byte	.LVL105
 2932 0dee 110F0000 		.4byte	0xf11
 2933 0df2 22       		.uleb128 0x22
 2934 0df3 7C060000 		.4byte	.LVL107
 2935 0df7 270F0000 		.4byte	0xf27
 2936 0dfb 0F0E0000 		.4byte	0xe0f
 2937 0dff 23       		.uleb128 0x23
 2938 0e00 01       		.uleb128 0x1
 2939 0e01 50       		.byte	0x50
 2940 0e02 02       		.uleb128 0x2
 2941 0e03 08       		.byte	0x8
 2942 0e04 28       		.byte	0x28
 2943 0e05 23       		.uleb128 0x23
 2944 0e06 01       		.uleb128 0x1
 2945 0e07 51       		.byte	0x51
 2946 0e08 05       		.uleb128 0x5
 2947 0e09 03       		.byte	0x3
 2948 0e0a 00000000 		.4byte	.LC0
 2949 0e0e 00       		.byte	0
 2950 0e0f 22       		.uleb128 0x22
 2951 0e10 A0060000 		.4byte	.LVL108
 2952 0e14 DA0E0000 		.4byte	0xeda
 2953 0e18 230E0000 		.4byte	0xe23
 2954 0e1c 23       		.uleb128 0x23
 2955 0e1d 01       		.uleb128 0x1
 2956 0e1e 50       		.byte	0x50
 2957 0e1f 02       		.uleb128 0x2
 2958 0e20 08       		.byte	0x8
 2959 0e21 29       		.byte	0x29
ARM GAS  /var/folders/3j/4xdnk5197cv_b7cw3n33qk7r0000gn/T//ccrHT8cn.s 			page 53


 2960 0e22 00       		.byte	0
 2961 0e23 22       		.uleb128 0x22
 2962 0e24 C4060000 		.4byte	.LVL109
 2963 0e28 DA0E0000 		.4byte	0xeda
 2964 0e2c 370E0000 		.4byte	0xe37
 2965 0e30 23       		.uleb128 0x23
 2966 0e31 01       		.uleb128 0x1
 2967 0e32 50       		.byte	0x50
 2968 0e33 02       		.uleb128 0x2
 2969 0e34 08       		.byte	0x8
 2970 0e35 2A       		.byte	0x2a
 2971 0e36 00       		.byte	0
 2972 0e37 22       		.uleb128 0x22
 2973 0e38 EC060000 		.4byte	.LVL110
 2974 0e3c DA0E0000 		.4byte	0xeda
 2975 0e40 4B0E0000 		.4byte	0xe4b
 2976 0e44 23       		.uleb128 0x23
 2977 0e45 01       		.uleb128 0x1
 2978 0e46 50       		.byte	0x50
 2979 0e47 02       		.uleb128 0x2
 2980 0e48 08       		.byte	0x8
 2981 0e49 2B       		.byte	0x2b
 2982 0e4a 00       		.byte	0
 2983 0e4b 22       		.uleb128 0x22
 2984 0e4c FC060000 		.4byte	.LVL111
 2985 0e50 3D0F0000 		.4byte	0xf3d
 2986 0e54 5F0E0000 		.4byte	0xe5f
 2987 0e58 23       		.uleb128 0x23
 2988 0e59 01       		.uleb128 0x1
 2989 0e5a 50       		.byte	0x50
 2990 0e5b 02       		.uleb128 0x2
 2991 0e5c 75       		.byte	0x75
 2992 0e5d 00       		.sleb128 0
 2993 0e5e 00       		.byte	0
 2994 0e5f 22       		.uleb128 0x22
 2995 0e60 18070000 		.4byte	.LVL112
 2996 0e64 DA0E0000 		.4byte	0xeda
 2997 0e68 730E0000 		.4byte	0xe73
 2998 0e6c 23       		.uleb128 0x23
 2999 0e6d 01       		.uleb128 0x1
 3000 0e6e 50       		.byte	0x50
 3001 0e6f 02       		.uleb128 0x2
 3002 0e70 08       		.byte	0x8
 3003 0e71 2C       		.byte	0x2c
 3004 0e72 00       		.byte	0
 3005 0e73 22       		.uleb128 0x22
 3006 0e74 3C070000 		.4byte	.LVL113
 3007 0e78 DA0E0000 		.4byte	0xeda
 3008 0e7c 870E0000 		.4byte	0xe87
 3009 0e80 23       		.uleb128 0x23
 3010 0e81 01       		.uleb128 0x1
 3011 0e82 50       		.byte	0x50
 3012 0e83 02       		.uleb128 0x2
 3013 0e84 08       		.byte	0x8
 3014 0e85 2D       		.byte	0x2d
 3015 0e86 00       		.byte	0
 3016 0e87 22       		.uleb128 0x22
ARM GAS  /var/folders/3j/4xdnk5197cv_b7cw3n33qk7r0000gn/T//ccrHT8cn.s 			page 54


 3017 0e88 68070000 		.4byte	.LVL114
 3018 0e8c DA0E0000 		.4byte	0xeda
 3019 0e90 9B0E0000 		.4byte	0xe9b
 3020 0e94 23       		.uleb128 0x23
 3021 0e95 01       		.uleb128 0x1
 3022 0e96 50       		.byte	0x50
 3023 0e97 02       		.uleb128 0x2
 3024 0e98 08       		.byte	0x8
 3025 0e99 2E       		.byte	0x2e
 3026 0e9a 00       		.byte	0
 3027 0e9b 25       		.uleb128 0x25
 3028 0e9c 94070000 		.4byte	.LVL115
 3029 0ea0 DA0E0000 		.4byte	0xeda
 3030 0ea4 23       		.uleb128 0x23
 3031 0ea5 01       		.uleb128 0x1
 3032 0ea6 50       		.byte	0x50
 3033 0ea7 02       		.uleb128 0x2
 3034 0ea8 08       		.byte	0x8
 3035 0ea9 2F       		.byte	0x2f
 3036 0eaa 00       		.byte	0
 3037 0eab 00       		.byte	0
 3038 0eac 1E       		.uleb128 0x1e
 3039 0ead FF020000 		.4byte	.LASF124
 3040 0eb1 01       		.byte	0x1
 3041 0eb2 4B       		.byte	0x4b
 3042 0eb3 00000000 		.4byte	.LFB7
 3043 0eb7 18000000 		.4byte	.LFE7-.LFB7
 3044 0ebb 01       		.uleb128 0x1
 3045 0ebc 9C       		.byte	0x9c
 3046 0ebd DA0E0000 		.4byte	0xeda
 3047 0ec1 26       		.uleb128 0x26
 3048 0ec2 10000000 		.4byte	.LVL116
 3049 0ec6 480F0000 		.4byte	0xf48
 3050 0eca 23       		.uleb128 0x23
 3051 0ecb 01       		.uleb128 0x1
 3052 0ecc 50       		.byte	0x50
 3053 0ecd 05       		.uleb128 0x5
 3054 0ece 03       		.byte	0x3
 3055 0ecf 00000000 		.4byte	.LANCHOR0
 3056 0ed3 23       		.uleb128 0x23
 3057 0ed4 01       		.uleb128 0x1
 3058 0ed5 52       		.byte	0x52
 3059 0ed6 01       		.uleb128 0x1
 3060 0ed7 35       		.byte	0x35
 3061 0ed8 00       		.byte	0
 3062 0ed9 00       		.byte	0
 3063 0eda 27       		.uleb128 0x27
 3064 0edb 03060000 		.4byte	.LASF125
 3065 0edf 03060000 		.4byte	.LASF125
 3066 0ee3 0F       		.byte	0xf
 3067 0ee4 5C       		.byte	0x5c
 3068 0ee5 27       		.uleb128 0x27
 3069 0ee6 CC010000 		.4byte	.LASF126
 3070 0eea CC010000 		.4byte	.LASF126
 3071 0eee 0C       		.byte	0xc
 3072 0eef 3E       		.byte	0x3e
 3073 0ef0 27       		.uleb128 0x27
ARM GAS  /var/folders/3j/4xdnk5197cv_b7cw3n33qk7r0000gn/T//ccrHT8cn.s 			page 55


 3074 0ef1 85050000 		.4byte	.LASF127
 3075 0ef5 85050000 		.4byte	.LASF127
 3076 0ef9 0C       		.byte	0xc
 3077 0efa 41       		.byte	0x41
 3078 0efb 27       		.uleb128 0x27
 3079 0efc 2D000000 		.4byte	.LASF128
 3080 0f00 2D000000 		.4byte	.LASF128
 3081 0f04 0C       		.byte	0xc
 3082 0f05 40       		.byte	0x40
 3083 0f06 27       		.uleb128 0x27
 3084 0f07 46000000 		.4byte	.LASF129
 3085 0f0b 46000000 		.4byte	.LASF129
 3086 0f0f 0C       		.byte	0xc
 3087 0f10 43       		.byte	0x43
 3088 0f11 27       		.uleb128 0x27
 3089 0f12 09010000 		.4byte	.LASF130
 3090 0f16 09010000 		.4byte	.LASF130
 3091 0f1a 0F       		.byte	0xf
 3092 0f1b 5A       		.byte	0x5a
 3093 0f1c 27       		.uleb128 0x27
 3094 0f1d A5050000 		.4byte	.LASF131
 3095 0f21 A5050000 		.4byte	.LASF131
 3096 0f25 0C       		.byte	0xc
 3097 0f26 44       		.byte	0x44
 3098 0f27 27       		.uleb128 0x27
 3099 0f28 AD030000 		.4byte	.LASF132
 3100 0f2c AD030000 		.4byte	.LASF132
 3101 0f30 0F       		.byte	0xf
 3102 0f31 5D       		.byte	0x5d
 3103 0f32 27       		.uleb128 0x27
 3104 0f33 D6020000 		.4byte	.LASF133
 3105 0f37 D6020000 		.4byte	.LASF133
 3106 0f3b 0C       		.byte	0xc
 3107 0f3c 46       		.byte	0x46
 3108 0f3d 27       		.uleb128 0x27
 3109 0f3e 6E030000 		.4byte	.LASF134
 3110 0f42 6E030000 		.4byte	.LASF134
 3111 0f46 0C       		.byte	0xc
 3112 0f47 3D       		.byte	0x3d
 3113 0f48 27       		.uleb128 0x27
 3114 0f49 8F000000 		.4byte	.LASF135
 3115 0f4d 8F000000 		.4byte	.LASF135
 3116 0f51 0C       		.byte	0xc
 3117 0f52 3C       		.byte	0x3c
 3118 0f53 00       		.byte	0
 3119              		.section	.debug_abbrev,"",%progbits
 3120              	.Ldebug_abbrev0:
 3121 0000 01       		.uleb128 0x1
 3122 0001 11       		.uleb128 0x11
 3123 0002 01       		.byte	0x1
 3124 0003 25       		.uleb128 0x25
 3125 0004 0E       		.uleb128 0xe
 3126 0005 13       		.uleb128 0x13
 3127 0006 0B       		.uleb128 0xb
 3128 0007 03       		.uleb128 0x3
 3129 0008 0E       		.uleb128 0xe
 3130 0009 1B       		.uleb128 0x1b
ARM GAS  /var/folders/3j/4xdnk5197cv_b7cw3n33qk7r0000gn/T//ccrHT8cn.s 			page 56


 3131 000a 0E       		.uleb128 0xe
 3132 000b 55       		.uleb128 0x55
 3133 000c 17       		.uleb128 0x17
 3134 000d 11       		.uleb128 0x11
 3135 000e 01       		.uleb128 0x1
 3136 000f 10       		.uleb128 0x10
 3137 0010 17       		.uleb128 0x17
 3138 0011 00       		.byte	0
 3139 0012 00       		.byte	0
 3140 0013 02       		.uleb128 0x2
 3141 0014 24       		.uleb128 0x24
 3142 0015 00       		.byte	0
 3143 0016 0B       		.uleb128 0xb
 3144 0017 0B       		.uleb128 0xb
 3145 0018 3E       		.uleb128 0x3e
 3146 0019 0B       		.uleb128 0xb
 3147 001a 03       		.uleb128 0x3
 3148 001b 08       		.uleb128 0x8
 3149 001c 00       		.byte	0
 3150 001d 00       		.byte	0
 3151 001e 03       		.uleb128 0x3
 3152 001f 24       		.uleb128 0x24
 3153 0020 00       		.byte	0
 3154 0021 0B       		.uleb128 0xb
 3155 0022 0B       		.uleb128 0xb
 3156 0023 3E       		.uleb128 0x3e
 3157 0024 0B       		.uleb128 0xb
 3158 0025 03       		.uleb128 0x3
 3159 0026 0E       		.uleb128 0xe
 3160 0027 00       		.byte	0
 3161 0028 00       		.byte	0
 3162 0029 04       		.uleb128 0x4
 3163 002a 16       		.uleb128 0x16
 3164 002b 00       		.byte	0
 3165 002c 03       		.uleb128 0x3
 3166 002d 0E       		.uleb128 0xe
 3167 002e 3A       		.uleb128 0x3a
 3168 002f 0B       		.uleb128 0xb
 3169 0030 3B       		.uleb128 0x3b
 3170 0031 0B       		.uleb128 0xb
 3171 0032 49       		.uleb128 0x49
 3172 0033 13       		.uleb128 0x13
 3173 0034 00       		.byte	0
 3174 0035 00       		.byte	0
 3175 0036 05       		.uleb128 0x5
 3176 0037 35       		.uleb128 0x35
 3177 0038 00       		.byte	0
 3178 0039 49       		.uleb128 0x49
 3179 003a 13       		.uleb128 0x13
 3180 003b 00       		.byte	0
 3181 003c 00       		.byte	0
 3182 003d 06       		.uleb128 0x6
 3183 003e 13       		.uleb128 0x13
 3184 003f 01       		.byte	0x1
 3185 0040 03       		.uleb128 0x3
 3186 0041 0E       		.uleb128 0xe
 3187 0042 0B       		.uleb128 0xb
ARM GAS  /var/folders/3j/4xdnk5197cv_b7cw3n33qk7r0000gn/T//ccrHT8cn.s 			page 57


 3188 0043 0B       		.uleb128 0xb
 3189 0044 3A       		.uleb128 0x3a
 3190 0045 0B       		.uleb128 0xb
 3191 0046 3B       		.uleb128 0x3b
 3192 0047 0B       		.uleb128 0xb
 3193 0048 01       		.uleb128 0x1
 3194 0049 13       		.uleb128 0x13
 3195 004a 00       		.byte	0
 3196 004b 00       		.byte	0
 3197 004c 07       		.uleb128 0x7
 3198 004d 0D       		.uleb128 0xd
 3199 004e 00       		.byte	0
 3200 004f 03       		.uleb128 0x3
 3201 0050 0E       		.uleb128 0xe
 3202 0051 3A       		.uleb128 0x3a
 3203 0052 0B       		.uleb128 0xb
 3204 0053 3B       		.uleb128 0x3b
 3205 0054 0B       		.uleb128 0xb
 3206 0055 49       		.uleb128 0x49
 3207 0056 13       		.uleb128 0x13
 3208 0057 38       		.uleb128 0x38
 3209 0058 0B       		.uleb128 0xb
 3210 0059 00       		.byte	0
 3211 005a 00       		.byte	0
 3212 005b 08       		.uleb128 0x8
 3213 005c 0D       		.uleb128 0xd
 3214 005d 00       		.byte	0
 3215 005e 03       		.uleb128 0x3
 3216 005f 08       		.uleb128 0x8
 3217 0060 3A       		.uleb128 0x3a
 3218 0061 0B       		.uleb128 0xb
 3219 0062 3B       		.uleb128 0x3b
 3220 0063 0B       		.uleb128 0xb
 3221 0064 49       		.uleb128 0x49
 3222 0065 13       		.uleb128 0x13
 3223 0066 38       		.uleb128 0x38
 3224 0067 0B       		.uleb128 0xb
 3225 0068 00       		.byte	0
 3226 0069 00       		.byte	0
 3227 006a 09       		.uleb128 0x9
 3228 006b 13       		.uleb128 0x13
 3229 006c 01       		.byte	0x1
 3230 006d 0B       		.uleb128 0xb
 3231 006e 0B       		.uleb128 0xb
 3232 006f 3A       		.uleb128 0x3a
 3233 0070 0B       		.uleb128 0xb
 3234 0071 3B       		.uleb128 0x3b
 3235 0072 0B       		.uleb128 0xb
 3236 0073 01       		.uleb128 0x1
 3237 0074 13       		.uleb128 0x13
 3238 0075 00       		.byte	0
 3239 0076 00       		.byte	0
 3240 0077 0A       		.uleb128 0xa
 3241 0078 0F       		.uleb128 0xf
 3242 0079 00       		.byte	0
 3243 007a 0B       		.uleb128 0xb
 3244 007b 0B       		.uleb128 0xb
ARM GAS  /var/folders/3j/4xdnk5197cv_b7cw3n33qk7r0000gn/T//ccrHT8cn.s 			page 58


 3245 007c 49       		.uleb128 0x49
 3246 007d 13       		.uleb128 0x13
 3247 007e 00       		.byte	0
 3248 007f 00       		.byte	0
 3249 0080 0B       		.uleb128 0xb
 3250 0081 0F       		.uleb128 0xf
 3251 0082 00       		.byte	0
 3252 0083 0B       		.uleb128 0xb
 3253 0084 0B       		.uleb128 0xb
 3254 0085 00       		.byte	0
 3255 0086 00       		.byte	0
 3256 0087 0C       		.uleb128 0xc
 3257 0088 26       		.uleb128 0x26
 3258 0089 00       		.byte	0
 3259 008a 49       		.uleb128 0x49
 3260 008b 13       		.uleb128 0x13
 3261 008c 00       		.byte	0
 3262 008d 00       		.byte	0
 3263 008e 0D       		.uleb128 0xd
 3264 008f 15       		.uleb128 0x15
 3265 0090 01       		.byte	0x1
 3266 0091 27       		.uleb128 0x27
 3267 0092 19       		.uleb128 0x19
 3268 0093 01       		.uleb128 0x1
 3269 0094 13       		.uleb128 0x13
 3270 0095 00       		.byte	0
 3271 0096 00       		.byte	0
 3272 0097 0E       		.uleb128 0xe
 3273 0098 05       		.uleb128 0x5
 3274 0099 00       		.byte	0
 3275 009a 49       		.uleb128 0x49
 3276 009b 13       		.uleb128 0x13
 3277 009c 00       		.byte	0
 3278 009d 00       		.byte	0
 3279 009e 0F       		.uleb128 0xf
 3280 009f 34       		.uleb128 0x34
 3281 00a0 00       		.byte	0
 3282 00a1 03       		.uleb128 0x3
 3283 00a2 0E       		.uleb128 0xe
 3284 00a3 3A       		.uleb128 0x3a
 3285 00a4 0B       		.uleb128 0xb
 3286 00a5 3B       		.uleb128 0x3b
 3287 00a6 0B       		.uleb128 0xb
 3288 00a7 49       		.uleb128 0x49
 3289 00a8 13       		.uleb128 0x13
 3290 00a9 3F       		.uleb128 0x3f
 3291 00aa 19       		.uleb128 0x19
 3292 00ab 3C       		.uleb128 0x3c
 3293 00ac 19       		.uleb128 0x19
 3294 00ad 00       		.byte	0
 3295 00ae 00       		.byte	0
 3296 00af 10       		.uleb128 0x10
 3297 00b0 17       		.uleb128 0x17
 3298 00b1 01       		.byte	0x1
 3299 00b2 0B       		.uleb128 0xb
 3300 00b3 0B       		.uleb128 0xb
 3301 00b4 3A       		.uleb128 0x3a
ARM GAS  /var/folders/3j/4xdnk5197cv_b7cw3n33qk7r0000gn/T//ccrHT8cn.s 			page 59


 3302 00b5 0B       		.uleb128 0xb
 3303 00b6 3B       		.uleb128 0x3b
 3304 00b7 0B       		.uleb128 0xb
 3305 00b8 01       		.uleb128 0x1
 3306 00b9 13       		.uleb128 0x13
 3307 00ba 00       		.byte	0
 3308 00bb 00       		.byte	0
 3309 00bc 11       		.uleb128 0x11
 3310 00bd 0D       		.uleb128 0xd
 3311 00be 00       		.byte	0
 3312 00bf 03       		.uleb128 0x3
 3313 00c0 0E       		.uleb128 0xe
 3314 00c1 3A       		.uleb128 0x3a
 3315 00c2 0B       		.uleb128 0xb
 3316 00c3 3B       		.uleb128 0x3b
 3317 00c4 0B       		.uleb128 0xb
 3318 00c5 49       		.uleb128 0x49
 3319 00c6 13       		.uleb128 0x13
 3320 00c7 00       		.byte	0
 3321 00c8 00       		.byte	0
 3322 00c9 12       		.uleb128 0x12
 3323 00ca 01       		.uleb128 0x1
 3324 00cb 01       		.byte	0x1
 3325 00cc 49       		.uleb128 0x49
 3326 00cd 13       		.uleb128 0x13
 3327 00ce 01       		.uleb128 0x1
 3328 00cf 13       		.uleb128 0x13
 3329 00d0 00       		.byte	0
 3330 00d1 00       		.byte	0
 3331 00d2 13       		.uleb128 0x13
 3332 00d3 21       		.uleb128 0x21
 3333 00d4 00       		.byte	0
 3334 00d5 49       		.uleb128 0x49
 3335 00d6 13       		.uleb128 0x13
 3336 00d7 2F       		.uleb128 0x2f
 3337 00d8 0B       		.uleb128 0xb
 3338 00d9 00       		.byte	0
 3339 00da 00       		.byte	0
 3340 00db 14       		.uleb128 0x14
 3341 00dc 15       		.uleb128 0x15
 3342 00dd 00       		.byte	0
 3343 00de 27       		.uleb128 0x27
 3344 00df 19       		.uleb128 0x19
 3345 00e0 00       		.byte	0
 3346 00e1 00       		.byte	0
 3347 00e2 15       		.uleb128 0x15
 3348 00e3 13       		.uleb128 0x13
 3349 00e4 01       		.byte	0x1
 3350 00e5 0B       		.uleb128 0xb
 3351 00e6 05       		.uleb128 0x5
 3352 00e7 3A       		.uleb128 0x3a
 3353 00e8 0B       		.uleb128 0xb
 3354 00e9 3B       		.uleb128 0x3b
 3355 00ea 0B       		.uleb128 0xb
 3356 00eb 01       		.uleb128 0x1
 3357 00ec 13       		.uleb128 0x13
 3358 00ed 00       		.byte	0
ARM GAS  /var/folders/3j/4xdnk5197cv_b7cw3n33qk7r0000gn/T//ccrHT8cn.s 			page 60


 3359 00ee 00       		.byte	0
 3360 00ef 16       		.uleb128 0x16
 3361 00f0 0D       		.uleb128 0xd
 3362 00f1 00       		.byte	0
 3363 00f2 03       		.uleb128 0x3
 3364 00f3 08       		.uleb128 0x8
 3365 00f4 3A       		.uleb128 0x3a
 3366 00f5 0B       		.uleb128 0xb
 3367 00f6 3B       		.uleb128 0x3b
 3368 00f7 0B       		.uleb128 0xb
 3369 00f8 49       		.uleb128 0x49
 3370 00f9 13       		.uleb128 0x13
 3371 00fa 38       		.uleb128 0x38
 3372 00fb 05       		.uleb128 0x5
 3373 00fc 00       		.byte	0
 3374 00fd 00       		.byte	0
 3375 00fe 17       		.uleb128 0x17
 3376 00ff 17       		.uleb128 0x17
 3377 0100 01       		.byte	0x1
 3378 0101 03       		.uleb128 0x3
 3379 0102 0E       		.uleb128 0xe
 3380 0103 0B       		.uleb128 0xb
 3381 0104 05       		.uleb128 0x5
 3382 0105 3A       		.uleb128 0x3a
 3383 0106 0B       		.uleb128 0xb
 3384 0107 3B       		.uleb128 0x3b
 3385 0108 0B       		.uleb128 0xb
 3386 0109 01       		.uleb128 0x1
 3387 010a 13       		.uleb128 0x13
 3388 010b 00       		.byte	0
 3389 010c 00       		.byte	0
 3390 010d 18       		.uleb128 0x18
 3391 010e 0D       		.uleb128 0xd
 3392 010f 00       		.byte	0
 3393 0110 03       		.uleb128 0x3
 3394 0111 08       		.uleb128 0x8
 3395 0112 3A       		.uleb128 0x3a
 3396 0113 0B       		.uleb128 0xb
 3397 0114 3B       		.uleb128 0x3b
 3398 0115 0B       		.uleb128 0xb
 3399 0116 49       		.uleb128 0x49
 3400 0117 13       		.uleb128 0x13
 3401 0118 00       		.byte	0
 3402 0119 00       		.byte	0
 3403 011a 19       		.uleb128 0x19
 3404 011b 21       		.uleb128 0x21
 3405 011c 00       		.byte	0
 3406 011d 49       		.uleb128 0x49
 3407 011e 13       		.uleb128 0x13
 3408 011f 2F       		.uleb128 0x2f
 3409 0120 05       		.uleb128 0x5
 3410 0121 00       		.byte	0
 3411 0122 00       		.byte	0
 3412 0123 1A       		.uleb128 0x1a
 3413 0124 21       		.uleb128 0x21
 3414 0125 00       		.byte	0
 3415 0126 00       		.byte	0
ARM GAS  /var/folders/3j/4xdnk5197cv_b7cw3n33qk7r0000gn/T//ccrHT8cn.s 			page 61


 3416 0127 00       		.byte	0
 3417 0128 1B       		.uleb128 0x1b
 3418 0129 34       		.uleb128 0x34
 3419 012a 00       		.byte	0
 3420 012b 03       		.uleb128 0x3
 3421 012c 08       		.uleb128 0x8
 3422 012d 3A       		.uleb128 0x3a
 3423 012e 0B       		.uleb128 0xb
 3424 012f 3B       		.uleb128 0x3b
 3425 0130 0B       		.uleb128 0xb
 3426 0131 49       		.uleb128 0x49
 3427 0132 13       		.uleb128 0x13
 3428 0133 3F       		.uleb128 0x3f
 3429 0134 19       		.uleb128 0x19
 3430 0135 3C       		.uleb128 0x3c
 3431 0136 19       		.uleb128 0x19
 3432 0137 00       		.byte	0
 3433 0138 00       		.byte	0
 3434 0139 1C       		.uleb128 0x1c
 3435 013a 34       		.uleb128 0x34
 3436 013b 00       		.byte	0
 3437 013c 03       		.uleb128 0x3
 3438 013d 08       		.uleb128 0x8
 3439 013e 3A       		.uleb128 0x3a
 3440 013f 0B       		.uleb128 0xb
 3441 0140 3B       		.uleb128 0x3b
 3442 0141 0B       		.uleb128 0xb
 3443 0142 49       		.uleb128 0x49
 3444 0143 13       		.uleb128 0x13
 3445 0144 02       		.uleb128 0x2
 3446 0145 18       		.uleb128 0x18
 3447 0146 00       		.byte	0
 3448 0147 00       		.byte	0
 3449 0148 1D       		.uleb128 0x1d
 3450 0149 34       		.uleb128 0x34
 3451 014a 00       		.byte	0
 3452 014b 03       		.uleb128 0x3
 3453 014c 0E       		.uleb128 0xe
 3454 014d 3A       		.uleb128 0x3a
 3455 014e 0B       		.uleb128 0xb
 3456 014f 3B       		.uleb128 0x3b
 3457 0150 0B       		.uleb128 0xb
 3458 0151 49       		.uleb128 0x49
 3459 0152 13       		.uleb128 0x13
 3460 0153 3F       		.uleb128 0x3f
 3461 0154 19       		.uleb128 0x19
 3462 0155 02       		.uleb128 0x2
 3463 0156 18       		.uleb128 0x18
 3464 0157 00       		.byte	0
 3465 0158 00       		.byte	0
 3466 0159 1E       		.uleb128 0x1e
 3467 015a 2E       		.uleb128 0x2e
 3468 015b 01       		.byte	0x1
 3469 015c 03       		.uleb128 0x3
 3470 015d 0E       		.uleb128 0xe
 3471 015e 3A       		.uleb128 0x3a
 3472 015f 0B       		.uleb128 0xb
ARM GAS  /var/folders/3j/4xdnk5197cv_b7cw3n33qk7r0000gn/T//ccrHT8cn.s 			page 62


 3473 0160 3B       		.uleb128 0x3b
 3474 0161 0B       		.uleb128 0xb
 3475 0162 27       		.uleb128 0x27
 3476 0163 19       		.uleb128 0x19
 3477 0164 11       		.uleb128 0x11
 3478 0165 01       		.uleb128 0x1
 3479 0166 12       		.uleb128 0x12
 3480 0167 06       		.uleb128 0x6
 3481 0168 40       		.uleb128 0x40
 3482 0169 18       		.uleb128 0x18
 3483 016a 9742     		.uleb128 0x2117
 3484 016c 19       		.uleb128 0x19
 3485 016d 01       		.uleb128 0x1
 3486 016e 13       		.uleb128 0x13
 3487 016f 00       		.byte	0
 3488 0170 00       		.byte	0
 3489 0171 1F       		.uleb128 0x1f
 3490 0172 34       		.uleb128 0x34
 3491 0173 00       		.byte	0
 3492 0174 03       		.uleb128 0x3
 3493 0175 0E       		.uleb128 0xe
 3494 0176 3A       		.uleb128 0x3a
 3495 0177 0B       		.uleb128 0xb
 3496 0178 3B       		.uleb128 0x3b
 3497 0179 0B       		.uleb128 0xb
 3498 017a 49       		.uleb128 0x49
 3499 017b 13       		.uleb128 0x13
 3500 017c 02       		.uleb128 0x2
 3501 017d 17       		.uleb128 0x17
 3502 017e 00       		.byte	0
 3503 017f 00       		.byte	0
 3504 0180 20       		.uleb128 0x20
 3505 0181 34       		.uleb128 0x34
 3506 0182 00       		.byte	0
 3507 0183 03       		.uleb128 0x3
 3508 0184 0E       		.uleb128 0xe
 3509 0185 3A       		.uleb128 0x3a
 3510 0186 0B       		.uleb128 0xb
 3511 0187 3B       		.uleb128 0x3b
 3512 0188 0B       		.uleb128 0xb
 3513 0189 49       		.uleb128 0x49
 3514 018a 13       		.uleb128 0x13
 3515 018b 02       		.uleb128 0x2
 3516 018c 18       		.uleb128 0x18
 3517 018d 00       		.byte	0
 3518 018e 00       		.byte	0
 3519 018f 21       		.uleb128 0x21
 3520 0190 34       		.uleb128 0x34
 3521 0191 00       		.byte	0
 3522 0192 03       		.uleb128 0x3
 3523 0193 08       		.uleb128 0x8
 3524 0194 3A       		.uleb128 0x3a
 3525 0195 0B       		.uleb128 0xb
 3526 0196 3B       		.uleb128 0x3b
 3527 0197 0B       		.uleb128 0xb
 3528 0198 49       		.uleb128 0x49
 3529 0199 13       		.uleb128 0x13
ARM GAS  /var/folders/3j/4xdnk5197cv_b7cw3n33qk7r0000gn/T//ccrHT8cn.s 			page 63


 3530 019a 02       		.uleb128 0x2
 3531 019b 17       		.uleb128 0x17
 3532 019c 00       		.byte	0
 3533 019d 00       		.byte	0
 3534 019e 22       		.uleb128 0x22
 3535 019f 898201   		.uleb128 0x4109
 3536 01a2 01       		.byte	0x1
 3537 01a3 11       		.uleb128 0x11
 3538 01a4 01       		.uleb128 0x1
 3539 01a5 31       		.uleb128 0x31
 3540 01a6 13       		.uleb128 0x13
 3541 01a7 01       		.uleb128 0x1
 3542 01a8 13       		.uleb128 0x13
 3543 01a9 00       		.byte	0
 3544 01aa 00       		.byte	0
 3545 01ab 23       		.uleb128 0x23
 3546 01ac 8A8201   		.uleb128 0x410a
 3547 01af 00       		.byte	0
 3548 01b0 02       		.uleb128 0x2
 3549 01b1 18       		.uleb128 0x18
 3550 01b2 9142     		.uleb128 0x2111
 3551 01b4 18       		.uleb128 0x18
 3552 01b5 00       		.byte	0
 3553 01b6 00       		.byte	0
 3554 01b7 24       		.uleb128 0x24
 3555 01b8 898201   		.uleb128 0x4109
 3556 01bb 00       		.byte	0
 3557 01bc 11       		.uleb128 0x11
 3558 01bd 01       		.uleb128 0x1
 3559 01be 31       		.uleb128 0x31
 3560 01bf 13       		.uleb128 0x13
 3561 01c0 00       		.byte	0
 3562 01c1 00       		.byte	0
 3563 01c2 25       		.uleb128 0x25
 3564 01c3 898201   		.uleb128 0x4109
 3565 01c6 01       		.byte	0x1
 3566 01c7 11       		.uleb128 0x11
 3567 01c8 01       		.uleb128 0x1
 3568 01c9 31       		.uleb128 0x31
 3569 01ca 13       		.uleb128 0x13
 3570 01cb 00       		.byte	0
 3571 01cc 00       		.byte	0
 3572 01cd 26       		.uleb128 0x26
 3573 01ce 898201   		.uleb128 0x4109
 3574 01d1 01       		.byte	0x1
 3575 01d2 11       		.uleb128 0x11
 3576 01d3 01       		.uleb128 0x1
 3577 01d4 9542     		.uleb128 0x2115
 3578 01d6 19       		.uleb128 0x19
 3579 01d7 31       		.uleb128 0x31
 3580 01d8 13       		.uleb128 0x13
 3581 01d9 00       		.byte	0
 3582 01da 00       		.byte	0
 3583 01db 27       		.uleb128 0x27
 3584 01dc 2E       		.uleb128 0x2e
 3585 01dd 00       		.byte	0
 3586 01de 3F       		.uleb128 0x3f
ARM GAS  /var/folders/3j/4xdnk5197cv_b7cw3n33qk7r0000gn/T//ccrHT8cn.s 			page 64


 3587 01df 19       		.uleb128 0x19
 3588 01e0 3C       		.uleb128 0x3c
 3589 01e1 19       		.uleb128 0x19
 3590 01e2 6E       		.uleb128 0x6e
 3591 01e3 0E       		.uleb128 0xe
 3592 01e4 03       		.uleb128 0x3
 3593 01e5 0E       		.uleb128 0xe
 3594 01e6 3A       		.uleb128 0x3a
 3595 01e7 0B       		.uleb128 0xb
 3596 01e8 3B       		.uleb128 0x3b
 3597 01e9 0B       		.uleb128 0xb
 3598 01ea 00       		.byte	0
 3599 01eb 00       		.byte	0
 3600 01ec 00       		.byte	0
 3601              		.section	.debug_loc,"",%progbits
 3602              	.Ldebug_loc0:
 3603              	.LLST0:
 3604 0000 44000000 		.4byte	.LVL2
 3605 0004 4C000000 		.4byte	.LVL3
 3606 0008 0100     		.2byte	0x1
 3607 000a 50       		.byte	0x50
 3608 000b 78000000 		.4byte	.LVL6
 3609 000f 80000000 		.4byte	.LVL7
 3610 0013 0100     		.2byte	0x1
 3611 0015 50       		.byte	0x50
 3612 0016 A8000000 		.4byte	.LVL11
 3613 001a B8000000 		.4byte	.LVL12
 3614 001e 0100     		.2byte	0x1
 3615 0020 50       		.byte	0x50
 3616 0021 D8000000 		.4byte	.LVL15
 3617 0025 EC000000 		.4byte	.LVL16
 3618 0029 0100     		.2byte	0x1
 3619 002b 50       		.byte	0x50
 3620 002c 08010000 		.4byte	.LVL18
 3621 0030 18010000 		.4byte	.LVL19
 3622 0034 0100     		.2byte	0x1
 3623 0036 50       		.byte	0x50
 3624 0037 38010000 		.4byte	.LVL22
 3625 003b 4C010000 		.4byte	.LVL23
 3626 003f 0100     		.2byte	0x1
 3627 0041 50       		.byte	0x50
 3628 0042 04020000 		.4byte	.LVL35
 3629 0046 0C020000 		.4byte	.LVL36
 3630 004a 0100     		.2byte	0x1
 3631 004c 50       		.byte	0x50
 3632 004d 44020000 		.4byte	.LVL39
 3633 0051 4C020000 		.4byte	.LVL40
 3634 0055 0100     		.2byte	0x1
 3635 0057 50       		.byte	0x50
 3636 0058 6C020000 		.4byte	.LVL42
 3637 005c 74020000 		.4byte	.LVL43
 3638 0060 0100     		.2byte	0x1
 3639 0062 50       		.byte	0x50
 3640 0063 DC020000 		.4byte	.LVL47
 3641 0067 EC020000 		.4byte	.LVL48
 3642 006b 0100     		.2byte	0x1
 3643 006d 50       		.byte	0x50
ARM GAS  /var/folders/3j/4xdnk5197cv_b7cw3n33qk7r0000gn/T//ccrHT8cn.s 			page 65


 3644 006e 0C030000 		.4byte	.LVL51
 3645 0072 20030000 		.4byte	.LVL52
 3646 0076 0100     		.2byte	0x1
 3647 0078 50       		.byte	0x50
 3648 0079 B4030000 		.4byte	.LVL57
 3649 007d BC030000 		.4byte	.LVL58
 3650 0081 0100     		.2byte	0x1
 3651 0083 50       		.byte	0x50
 3652 0084 D8030000 		.4byte	.LVL60
 3653 0088 E0030000 		.4byte	.LVL61
 3654 008c 0100     		.2byte	0x1
 3655 008e 50       		.byte	0x50
 3656 008f FC030000 		.4byte	.LVL63
 3657 0093 04040000 		.4byte	.LVL64
 3658 0097 0100     		.2byte	0x1
 3659 0099 50       		.byte	0x50
 3660 009a 20040000 		.4byte	.LVL66
 3661 009e 28040000 		.4byte	.LVL67
 3662 00a2 0100     		.2byte	0x1
 3663 00a4 50       		.byte	0x50
 3664 00a5 44040000 		.4byte	.LVL69
 3665 00a9 50040000 		.4byte	.LVL70
 3666 00ad 0100     		.2byte	0x1
 3667 00af 50       		.byte	0x50
 3668 00b0 9C040000 		.4byte	.LVL75
 3669 00b4 A8040000 		.4byte	.LVL76
 3670 00b8 0100     		.2byte	0x1
 3671 00ba 50       		.byte	0x50
 3672 00bb 5C050000 		.4byte	.LVL84
 3673 00bf 64050000 		.4byte	.LVL85
 3674 00c3 0100     		.2byte	0x1
 3675 00c5 50       		.byte	0x50
 3676 00c6 80050000 		.4byte	.LVL87
 3677 00ca 88050000 		.4byte	.LVL88
 3678 00ce 0100     		.2byte	0x1
 3679 00d0 50       		.byte	0x50
 3680 00d1 A4050000 		.4byte	.LVL90
 3681 00d5 AC050000 		.4byte	.LVL91
 3682 00d9 0100     		.2byte	0x1
 3683 00db 50       		.byte	0x50
 3684 00dc C8050000 		.4byte	.LVL93
 3685 00e0 D0050000 		.4byte	.LVL94
 3686 00e4 0100     		.2byte	0x1
 3687 00e6 50       		.byte	0x50
 3688 00e7 EC050000 		.4byte	.LVL96
 3689 00eb F8050000 		.4byte	.LVL97
 3690 00ef 0100     		.2byte	0x1
 3691 00f1 50       		.byte	0x50
 3692 00f2 44060000 		.4byte	.LVL102
 3693 00f6 50060000 		.4byte	.LVL103
 3694 00fa 0100     		.2byte	0x1
 3695 00fc 50       		.byte	0x50
 3696 00fd 00000000 		.4byte	0
 3697 0101 00000000 		.4byte	0
 3698              	.LLST1:
 3699 0105 34000000 		.4byte	.LVL1
 3700 0109 54000000 		.4byte	.LVL4
ARM GAS  /var/folders/3j/4xdnk5197cv_b7cw3n33qk7r0000gn/T//ccrHT8cn.s 			page 66


 3701 010d 0400     		.2byte	0x4
 3702 010f 74       		.byte	0x74
 3703 0110 BE7F     		.sleb128 -66
 3704 0112 9F       		.byte	0x9f
 3705 0113 54000000 		.4byte	.LVL4
 3706 0117 5C000000 		.4byte	.LVL5
 3707 011b 0400     		.2byte	0x4
 3708 011d 74       		.byte	0x74
 3709 011e BF7F     		.sleb128 -65
 3710 0120 9F       		.byte	0x9f
 3711 0121 5C000000 		.4byte	.LVL5
 3712 0125 90000000 		.4byte	.LVL9
 3713 0129 0400     		.2byte	0x4
 3714 012b 74       		.byte	0x74
 3715 012c BE7F     		.sleb128 -66
 3716 012e 9F       		.byte	0x9f
 3717 012f 98000000 		.4byte	.LVL10
 3718 0133 78010000 		.4byte	.LVL26
 3719 0137 0400     		.2byte	0x4
 3720 0139 74       		.byte	0x74
 3721 013a BE7F     		.sleb128 -66
 3722 013c 9F       		.byte	0x9f
 3723 013d 80010000 		.4byte	.LVL27
 3724 0141 D8010000 		.4byte	.LVL30
 3725 0145 0400     		.2byte	0x4
 3726 0147 74       		.byte	0x74
 3727 0148 BE7F     		.sleb128 -66
 3728 014a 9F       		.byte	0x9f
 3729 014b D8010000 		.4byte	.LVL30
 3730 014f E4010000 		.4byte	.LVL31
 3731 0153 0200     		.2byte	0x2
 3732 0155 30       		.byte	0x30
 3733 0156 9F       		.byte	0x9f
 3734 0157 E4010000 		.4byte	.LVL31
 3735 015b EC010000 		.4byte	.LVL32
 3736 015f 0500     		.2byte	0x5
 3737 0161 35       		.byte	0x35
 3738 0162 74       		.byte	0x74
 3739 0163 00       		.sleb128 0
 3740 0164 1C       		.byte	0x1c
 3741 0165 9F       		.byte	0x9f
 3742 0166 EC010000 		.4byte	.LVL32
 3743 016a F0010000 		.4byte	.LVL33
 3744 016e 0500     		.2byte	0x5
 3745 0170 36       		.byte	0x36
 3746 0171 74       		.byte	0x74
 3747 0172 00       		.sleb128 0
 3748 0173 1C       		.byte	0x1c
 3749 0174 9F       		.byte	0x9f
 3750 0175 F0010000 		.4byte	.LVL33
 3751 0179 88040000 		.4byte	.LVL73
 3752 017d 0500     		.2byte	0x5
 3753 017f 35       		.byte	0x35
 3754 0180 74       		.byte	0x74
 3755 0181 00       		.sleb128 0
 3756 0182 1C       		.byte	0x1c
 3757 0183 9F       		.byte	0x9f
ARM GAS  /var/folders/3j/4xdnk5197cv_b7cw3n33qk7r0000gn/T//ccrHT8cn.s 			page 67


 3758 0184 8C040000 		.4byte	.LVL74
 3759 0188 C0040000 		.4byte	.LVL78
 3760 018c 0500     		.2byte	0x5
 3761 018e 35       		.byte	0x35
 3762 018f 74       		.byte	0x74
 3763 0190 00       		.sleb128 0
 3764 0191 1C       		.byte	0x1c
 3765 0192 9F       		.byte	0x9f
 3766 0193 C0040000 		.4byte	.LVL78
 3767 0197 C4040000 		.4byte	.LVL79
 3768 019b 0500     		.2byte	0x5
 3769 019d 36       		.byte	0x36
 3770 019e 74       		.byte	0x74
 3771 019f 00       		.sleb128 0
 3772 01a0 1C       		.byte	0x1c
 3773 01a1 9F       		.byte	0x9f
 3774 01a2 C4040000 		.4byte	.LVL79
 3775 01a6 30060000 		.4byte	.LVL100
 3776 01aa 0500     		.2byte	0x5
 3777 01ac 35       		.byte	0x35
 3778 01ad 74       		.byte	0x74
 3779 01ae 00       		.sleb128 0
 3780 01af 1C       		.byte	0x1c
 3781 01b0 9F       		.byte	0x9f
 3782 01b1 34060000 		.4byte	.LVL101
 3783 01b5 68060000 		.4byte	.LVL105
 3784 01b9 0500     		.2byte	0x5
 3785 01bb 35       		.byte	0x35
 3786 01bc 74       		.byte	0x74
 3787 01bd 00       		.sleb128 0
 3788 01be 1C       		.byte	0x1c
 3789 01bf 9F       		.byte	0x9f
 3790 01c0 68060000 		.4byte	.LVL105
 3791 01c4 6C060000 		.4byte	.LVL106
 3792 01c8 0500     		.2byte	0x5
 3793 01ca 36       		.byte	0x36
 3794 01cb 74       		.byte	0x74
 3795 01cc 00       		.sleb128 0
 3796 01cd 1C       		.byte	0x1c
 3797 01ce 9F       		.byte	0x9f
 3798 01cf 6C060000 		.4byte	.LVL106
 3799 01d3 A0070000 		.4byte	.LFE8
 3800 01d7 0500     		.2byte	0x5
 3801 01d9 35       		.byte	0x35
 3802 01da 74       		.byte	0x74
 3803 01db 00       		.sleb128 0
 3804 01dc 1C       		.byte	0x1c
 3805 01dd 9F       		.byte	0x9f
 3806 01de 00000000 		.4byte	0
 3807 01e2 00000000 		.4byte	0
 3808              		.section	.debug_aranges,"",%progbits
 3809 0000 24000000 		.4byte	0x24
 3810 0004 0200     		.2byte	0x2
 3811 0006 00000000 		.4byte	.Ldebug_info0
 3812 000a 04       		.byte	0x4
 3813 000b 00       		.byte	0
 3814 000c 0000     		.2byte	0
ARM GAS  /var/folders/3j/4xdnk5197cv_b7cw3n33qk7r0000gn/T//ccrHT8cn.s 			page 68


 3815 000e 0000     		.2byte	0
 3816 0010 00000000 		.4byte	.LFB8
 3817 0014 A0070000 		.4byte	.LFE8-.LFB8
 3818 0018 00000000 		.4byte	.LFB7
 3819 001c 18000000 		.4byte	.LFE7-.LFB7
 3820 0020 00000000 		.4byte	0
 3821 0024 00000000 		.4byte	0
 3822              		.section	.debug_ranges,"",%progbits
 3823              	.Ldebug_ranges0:
 3824 0000 00000000 		.4byte	.LFB8
 3825 0004 A0070000 		.4byte	.LFE8
 3826 0008 00000000 		.4byte	.LFB7
 3827 000c 18000000 		.4byte	.LFE7
 3828 0010 00000000 		.4byte	0
 3829 0014 00000000 		.4byte	0
 3830              		.section	.debug_line,"",%progbits
 3831              	.Ldebug_line0:
 3832 0000 C1020000 		.section	.debug_str,"MS",%progbits,1
 3832      02009901 
 3832      00000201 
 3832      FB0E0D00 
 3832      01010101 
 3833              	.LASF99:
 3834 0000 63665F6F 		.ascii	"cf_off_older\000"
 3834      66665F6F 
 3834      6C646572 
 3834      00
 3835              	.LASF42:
 3836 000d 705F6D73 		.ascii	"p_msg\000"
 3836      6700
 3837              	.LASF84:
 3838 0013 7264796D 		.ascii	"rdymsg\000"
 3838      736700
 3839              	.LASF80:
 3840 001a 6D625F72 		.ascii	"mb_rdptr\000"
 3840      64707472 
 3840      00
 3841              	.LASF4:
 3842 0023 5F5F7569 		.ascii	"__uint8_t\000"
 3842      6E74385F 
 3842      7400
 3843              	.LASF128:
 3844 002d 63684D42 		.ascii	"chMBPostI\000"
 3844      506F7374 
 3844      4900
 3845              	.LASF68:
 3846 0037 76746C69 		.ascii	"vtlist\000"
 3846      737400
 3847              	.LASF83:
 3848 003e 4D61696C 		.ascii	"Mailbox\000"
 3848      626F7800 
 3849              	.LASF129:
 3850 0046 63684D42 		.ascii	"chMBPostAheadI\000"
 3850      506F7374 
 3850      41686561 
 3850      644900
 3851              	.LASF12:
ARM GAS  /var/folders/3j/4xdnk5197cv_b7cw3n33qk7r0000gn/T//ccrHT8cn.s 			page 69


 3852 0055 6C6F6E67 		.ascii	"long long unsigned int\000"
 3852      206C6F6E 
 3852      6720756E 
 3852      7369676E 
 3852      65642069 
 3853              	.LASF120:
 3854 006c 70617474 		.ascii	"patternmbox\000"
 3854      65726E6D 
 3854      626F7800 
 3855              	.LASF95:
 3856 0078 63685F74 		.ascii	"ch_threadsize\000"
 3856      68726561 
 3856      6473697A 
 3856      6500
 3857              	.LASF85:
 3858 0086 65786974 		.ascii	"exitcode\000"
 3858      636F6465 
 3858      00
 3859              	.LASF135:
 3860 008f 63684D42 		.ascii	"chMBInit\000"
 3860      496E6974 
 3860      00
 3861              	.LASF117:
 3862 0098 74657374 		.ascii	"test\000"
 3862      00
 3863              	.LASF79:
 3864 009d 6D625F77 		.ascii	"mb_wrptr\000"
 3864      72707472 
 3864      00
 3865              	.LASF30:
 3866 00a6 705F7072 		.ascii	"p_prio\000"
 3866      696F00
 3867              	.LASF102:
 3868 00ad 63665F6F 		.ascii	"cf_off_state\000"
 3868      66665F73 
 3868      74617465 
 3868      00
 3869              	.LASF113:
 3870 00ba 74656172 		.ascii	"teardown\000"
 3870      646F776E 
 3870      00
 3871              	.LASF11:
 3872 00c3 6C6F6E67 		.ascii	"long long int\000"
 3872      206C6F6E 
 3872      6720696E 
 3872      7400
 3873              	.LASF1:
 3874 00d1 7369676E 		.ascii	"signed char\000"
 3874      65642063 
 3874      68617200 
 3875              	.LASF101:
 3876 00dd 63665F6F 		.ascii	"cf_off_stklimit\000"
 3876      66665F73 
 3876      746B6C69 
 3876      6D697400 
 3877              	.LASF103:
 3878 00ed 63665F6F 		.ascii	"cf_off_flags\000"
ARM GAS  /var/folders/3j/4xdnk5197cv_b7cw3n33qk7r0000gn/T//ccrHT8cn.s 			page 70


 3878      66665F66 
 3878      6C616773 
 3878      00
 3879              	.LASF17:
 3880 00fa 626F6F6C 		.ascii	"bool_t\000"
 3880      5F7400
 3881              	.LASF74:
 3882 0101 6D5F7175 		.ascii	"m_queue\000"
 3882      65756500 
 3883              	.LASF130:
 3884 0109 74657374 		.ascii	"test_emit_token\000"
 3884      5F656D69 
 3884      745F746F 
 3884      6B656E00 
 3885              	.LASF136:
 3886 0119 474E5520 		.ascii	"GNU C11 7.3.1 20180622 (release) [ARM/embedded-7-br"
 3886      43313120 
 3886      372E332E 
 3886      31203230 
 3886      31383036 
 3887 014c 616E6368 		.ascii	"anch revision 261907] -mcpu=arm1176jz-s -mno-thumb-"
 3887      20726576 
 3887      6973696F 
 3887      6E203236 
 3887      31393037 
 3888 017f 696E7465 		.ascii	"interwork -ggdb -O2 -fomit-frame-pointer -ffunction"
 3888      72776F72 
 3888      6B202D67 
 3888      67646220 
 3888      2D4F3220 
 3889 01b2 2D736563 		.ascii	"-sections -fdata-sections\000"
 3889      74696F6E 
 3889      73202D66 
 3889      64617461 
 3889      2D736563 
 3890              	.LASF126:
 3891 01cc 63684D42 		.ascii	"chMBPost\000"
 3891      506F7374 
 3891      00
 3892              	.LASF8:
 3893 01d5 6C6F6E67 		.ascii	"long int\000"
 3893      20696E74 
 3893      00
 3894              	.LASF19:
 3895 01de 74737461 		.ascii	"tstate_t\000"
 3895      74655F74 
 3895      00
 3896              	.LASF14:
 3897 01e7 75696E74 		.ascii	"uint16_t\000"
 3897      31365F74 
 3897      00
 3898              	.LASF107:
 3899 01f0 63686465 		.ascii	"chdebug_t\000"
 3899      6275675F 
 3899      7400
 3900              	.LASF115:
 3901 01fa 62756666 		.ascii	"buffer\000"
ARM GAS  /var/folders/3j/4xdnk5197cv_b7cw3n33qk7r0000gn/T//ccrHT8cn.s 			page 71


 3901      657200
 3902              	.LASF32:
 3903 0201 705F6E65 		.ascii	"p_newer\000"
 3903      77657200 
 3904              	.LASF109:
 3905 0209 5F69646C 		.ascii	"_idle_thread_wa\000"
 3905      655F7468 
 3905      72656164 
 3905      5F776100 
 3906              	.LASF71:
 3907 0219 735F7175 		.ascii	"s_queue\000"
 3907      65756500 
 3908              	.LASF9:
 3909 0221 5F5F7569 		.ascii	"__uint32_t\000"
 3909      6E743332 
 3909      5F7400
 3910              	.LASF49:
 3911 022c 72656761 		.ascii	"regarm_t\000"
 3911      726D5F74 
 3911      00
 3912              	.LASF55:
 3913 0235 76745F70 		.ascii	"vt_prev\000"
 3913      72657600 
 3914              	.LASF26:
 3915 023d 636E745F 		.ascii	"cnt_t\000"
 3915      7400
 3916              	.LASF0:
 3917 0243 756E7369 		.ascii	"unsigned int\000"
 3917      676E6564 
 3917      20696E74 
 3917      00
 3918              	.LASF54:
 3919 0250 76745F6E 		.ascii	"vt_next\000"
 3919      65787400 
 3920              	.LASF121:
 3921 0258 6D736731 		.ascii	"msg1\000"
 3921      00
 3922              	.LASF122:
 3923 025d 6D736732 		.ascii	"msg2\000"
 3923      00
 3924              	.LASF10:
 3925 0262 6C6F6E67 		.ascii	"long unsigned int\000"
 3925      20756E73 
 3925      69676E65 
 3925      6420696E 
 3925      7400
 3926              	.LASF108:
 3927 0274 63685F64 		.ascii	"ch_debug\000"
 3927      65627567 
 3927      00
 3928              	.LASF118:
 3929 027d 74657374 		.ascii	"test_timer_done\000"
 3929      5F74696D 
 3929      65725F64 
 3929      6F6E6500 
 3930              	.LASF82:
 3931 028d 6D625F65 		.ascii	"mb_emptysem\000"
ARM GAS  /var/folders/3j/4xdnk5197cv_b7cw3n33qk7r0000gn/T//ccrHT8cn.s 			page 72


 3931      6D707479 
 3931      73656D00 
 3932              	.LASF52:
 3933 0299 76746675 		.ascii	"vtfunc_t\000"
 3933      6E635F74 
 3933      00
 3934              	.LASF89:
 3935 02a2 63685F69 		.ascii	"ch_identifier\000"
 3935      64656E74 
 3935      69666965 
 3935      7200
 3936              	.LASF72:
 3937 02b0 735F636E 		.ascii	"s_cnt\000"
 3937      7400
 3938              	.LASF111:
 3939 02b6 6E616D65 		.ascii	"name\000"
 3939      00
 3940              	.LASF51:
 3941 02bb 636F6E74 		.ascii	"context\000"
 3941      65787400 
 3942              	.LASF6:
 3943 02c3 73686F72 		.ascii	"short unsigned int\000"
 3943      7420756E 
 3943      7369676E 
 3943      65642069 
 3943      6E7400
 3944              	.LASF133:
 3945 02d6 63684D42 		.ascii	"chMBFetchI\000"
 3945      46657463 
 3945      684900
 3946              	.LASF23:
 3947 02e1 6D73675F 		.ascii	"msg_t\000"
 3947      7400
 3948              	.LASF64:
 3949 02e7 725F6E65 		.ascii	"r_newer\000"
 3949      77657200 
 3950              	.LASF116:
 3951 02ef 74687265 		.ascii	"threads\000"
 3951      61647300 
 3952              	.LASF18:
 3953 02f7 746D6F64 		.ascii	"tmode_t\000"
 3953      655F7400 
 3954              	.LASF124:
 3955 02ff 6D626F78 		.ascii	"mbox1_setup\000"
 3955      315F7365 
 3955      74757000 
 3956              	.LASF47:
 3957 030b 54687265 		.ascii	"ThreadsList\000"
 3957      6164734C 
 3957      69737400 
 3958              	.LASF24:
 3959 0317 6576656E 		.ascii	"eventmask_t\000"
 3959      746D6173 
 3959      6B5F7400 
 3960              	.LASF73:
 3961 0323 4D757465 		.ascii	"Mutex\000"
 3961      7800
ARM GAS  /var/folders/3j/4xdnk5197cv_b7cw3n33qk7r0000gn/T//ccrHT8cn.s 			page 73


 3962              	.LASF119:
 3963 0329 74657374 		.ascii	"testmbox1\000"
 3963      6D626F78 
 3963      3100
 3964              	.LASF48:
 3965 0333 73746B61 		.ascii	"stkalign_t\000"
 3965      6C69676E 
 3965      5F7400
 3966              	.LASF90:
 3967 033e 63685F7A 		.ascii	"ch_zero\000"
 3967      65726F00 
 3968              	.LASF104:
 3969 0346 63665F6F 		.ascii	"cf_off_refs\000"
 3969      66665F72 
 3969      65667300 
 3970              	.LASF56:
 3971 0352 76745F74 		.ascii	"vt_time\000"
 3971      696D6500 
 3972              	.LASF57:
 3973 035a 76745F66 		.ascii	"vt_func\000"
 3973      756E6300 
 3974              	.LASF94:
 3975 0362 63685F74 		.ascii	"ch_timesize\000"
 3975      696D6573 
 3975      697A6500 
 3976              	.LASF134:
 3977 036e 63684D42 		.ascii	"chMBReset\000"
 3977      52657365 
 3977      7400
 3978              	.LASF100:
 3979 0378 63665F6F 		.ascii	"cf_off_name\000"
 3979      66665F6E 
 3979      616D6500 
 3980              	.LASF33:
 3981 0384 705F6F6C 		.ascii	"p_older\000"
 3981      64657200 
 3982              	.LASF63:
 3983 038c 725F6374 		.ascii	"r_ctx\000"
 3983      7800
 3984              	.LASF46:
 3985 0392 54687265 		.ascii	"ThreadsQueue\000"
 3985      61647351 
 3985      75657565 
 3985      00
 3986              	.LASF91:
 3987 039f 63685F73 		.ascii	"ch_size\000"
 3987      697A6500 
 3988              	.LASF112:
 3989 03a7 73657475 		.ascii	"setup\000"
 3989      7000
 3990              	.LASF132:
 3991 03ad 5F746573 		.ascii	"_test_assert_sequence\000"
 3991      745F6173 
 3991      73657274 
 3991      5F736571 
 3991      75656E63 
 3992              	.LASF77:
ARM GAS  /var/folders/3j/4xdnk5197cv_b7cw3n33qk7r0000gn/T//ccrHT8cn.s 			page 74


 3993 03c3 6D625F62 		.ascii	"mb_buffer\000"
 3993      75666665 
 3993      7200
 3994              	.LASF123:
 3995 03cd 6D626F78 		.ascii	"mbox1_execute\000"
 3995      315F6578 
 3995      65637574 
 3995      6500
 3996              	.LASF66:
 3997 03db 725F6375 		.ascii	"r_current\000"
 3997      7272656E 
 3997      7400
 3998              	.LASF65:
 3999 03e5 725F6F6C 		.ascii	"r_older\000"
 3999      64657200 
 4000              	.LASF20:
 4001 03ed 74726566 		.ascii	"trefs_t\000"
 4001      735F7400 
 4002              	.LASF93:
 4003 03f5 63685F70 		.ascii	"ch_ptrsize\000"
 4003      74727369 
 4003      7A6500
 4004              	.LASF29:
 4005 0400 705F7072 		.ascii	"p_prev\000"
 4005      657600
 4006              	.LASF114:
 4007 0407 65786563 		.ascii	"execute\000"
 4007      75746500 
 4008              	.LASF22:
 4009 040f 74707269 		.ascii	"tprio_t\000"
 4009      6F5F7400 
 4010              	.LASF15:
 4011 0417 696E7433 		.ascii	"int32_t\000"
 4011      325F7400 
 4012              	.LASF2:
 4013 041f 756E7369 		.ascii	"unsigned char\000"
 4013      676E6564 
 4013      20636861 
 4013      7200
 4014              	.LASF78:
 4015 042d 6D625F74 		.ascii	"mb_top\000"
 4015      6F7000
 4016              	.LASF138:
 4017 0434 2F557365 		.ascii	"/Users/kevinmalmsten/development_raspberry_pi/Chibi"
 4017      72732F6B 
 4017      6576696E 
 4017      6D616C6D 
 4017      7374656E 
 4018 0467 4F532D42 		.ascii	"OS-Backup/__Backup_System\000"
 4018      61636B75 
 4018      702F5F5F 
 4018      4261636B 
 4018      75705F53 
 4019              	.LASF44:
 4020 0481 705F6D74 		.ascii	"p_mtxlist\000"
 4020      786C6973 
 4020      7400
ARM GAS  /var/folders/3j/4xdnk5197cv_b7cw3n33qk7r0000gn/T//ccrHT8cn.s 			page 75


 4021              	.LASF3:
 4022 048b 73686F72 		.ascii	"short int\000"
 4022      7420696E 
 4022      7400
 4023              	.LASF35:
 4024 0495 705F7374 		.ascii	"p_state\000"
 4024      61746500 
 4025              	.LASF38:
 4026 049d 705F7072 		.ascii	"p_preempt\000"
 4026      65656D70 
 4026      7400
 4027              	.LASF106:
 4028 04a7 63665F6F 		.ascii	"cf_off_time\000"
 4028      66665F74 
 4028      696D6500 
 4029              	.LASF62:
 4030 04b3 725F7072 		.ascii	"r_prio\000"
 4030      696F00
 4031              	.LASF87:
 4032 04ba 65776D61 		.ascii	"ewmask\000"
 4032      736B00
 4033              	.LASF28:
 4034 04c1 705F6E65 		.ascii	"p_next\000"
 4034      787400
 4035              	.LASF105:
 4036 04c8 63665F6F 		.ascii	"cf_off_preempt\000"
 4036      66665F70 
 4036      7265656D 
 4036      707400
 4037              	.LASF36:
 4038 04d7 705F666C 		.ascii	"p_flags\000"
 4038      61677300 
 4039              	.LASF27:
 4040 04df 54687265 		.ascii	"Thread\000"
 4040      616400
 4041              	.LASF98:
 4042 04e6 63665F6F 		.ascii	"cf_off_newer\000"
 4042      66665F6E 
 4042      65776572 
 4042      00
 4043              	.LASF110:
 4044 04f3 74657374 		.ascii	"testcase\000"
 4044      63617365 
 4044      00
 4045              	.LASF43:
 4046 04fc 705F6570 		.ascii	"p_epending\000"
 4046      656E6469 
 4046      6E6700
 4047              	.LASF16:
 4048 0507 75696E74 		.ascii	"uint32_t\000"
 4048      33325F74 
 4048      00
 4049              	.LASF96:
 4050 0510 63665F6F 		.ascii	"cf_off_prio\000"
 4050      66665F70 
 4050      72696F00 
 4051              	.LASF61:
ARM GAS  /var/folders/3j/4xdnk5197cv_b7cw3n33qk7r0000gn/T//ccrHT8cn.s 			page 76


 4052 051c 725F7175 		.ascii	"r_queue\000"
 4052      65756500 
 4053              	.LASF53:
 4054 0524 56697274 		.ascii	"VirtualTimer\000"
 4054      75616C54 
 4054      696D6572 
 4054      00
 4055              	.LASF21:
 4056 0531 74736C69 		.ascii	"tslices_t\000"
 4056      6365735F 
 4056      7400
 4057              	.LASF88:
 4058 053b 63686172 		.ascii	"char\000"
 4058      00
 4059              	.LASF139:
 4060 0540 74657374 		.ascii	"test_buffers\000"
 4060      5F627566 
 4060      66657273 
 4060      00
 4061              	.LASF5:
 4062 054d 5F5F7569 		.ascii	"__uint16_t\000"
 4062      6E743136 
 4062      5F7400
 4063              	.LASF76:
 4064 0558 6D5F6E65 		.ascii	"m_next\000"
 4064      787400
 4065              	.LASF25:
 4066 055f 73797374 		.ascii	"systime_t\000"
 4066      696D655F 
 4066      7400
 4067              	.LASF45:
 4068 0569 705F7265 		.ascii	"p_realprio\000"
 4068      616C7072 
 4068      696F00
 4069              	.LASF7:
 4070 0574 5F5F696E 		.ascii	"__int32_t\000"
 4070      7433325F 
 4070      7400
 4071              	.LASF39:
 4072 057e 705F7469 		.ascii	"p_time\000"
 4072      6D6500
 4073              	.LASF127:
 4074 0585 63684D42 		.ascii	"chMBPostAhead\000"
 4074      506F7374 
 4074      41686561 
 4074      6400
 4075              	.LASF50:
 4076 0593 696E7463 		.ascii	"intctx\000"
 4076      747800
 4077              	.LASF41:
 4078 059a 705F6D73 		.ascii	"p_msgqueue\000"
 4078      67717565 
 4078      756500
 4079              	.LASF131:
 4080 05a5 63684D42 		.ascii	"chMBFetch\000"
 4080      46657463 
 4080      6800
ARM GAS  /var/folders/3j/4xdnk5197cv_b7cw3n33qk7r0000gn/T//ccrHT8cn.s 			page 77


 4081              	.LASF58:
 4082 05af 76745F70 		.ascii	"vt_par\000"
 4082      617200
 4083              	.LASF70:
 4084 05b6 53656D61 		.ascii	"Semaphore\000"
 4084      70686F72 
 4084      6500
 4085              	.LASF81:
 4086 05c0 6D625F66 		.ascii	"mb_fullsem\000"
 4086      756C6C73 
 4086      656D00
 4087              	.LASF97:
 4088 05cb 63665F6F 		.ascii	"cf_off_ctx\000"
 4088      66665F63 
 4088      747800
 4089              	.LASF37:
 4090 05d6 705F7265 		.ascii	"p_refs\000"
 4090      667300
 4091              	.LASF67:
 4092 05dd 52656164 		.ascii	"ReadyList\000"
 4092      794C6973 
 4092      7400
 4093              	.LASF69:
 4094 05e7 726C6973 		.ascii	"rlist\000"
 4094      7400
 4095              	.LASF13:
 4096 05ed 75696E74 		.ascii	"uint8_t\000"
 4096      385F7400 
 4097              	.LASF86:
 4098 05f5 77746F62 		.ascii	"wtobjp\000"
 4098      6A7000
 4099              	.LASF34:
 4100 05fc 705F6E61 		.ascii	"p_name\000"
 4100      6D6500
 4101              	.LASF125:
 4102 0603 5F746573 		.ascii	"_test_assert\000"
 4102      745F6173 
 4102      73657274 
 4102      00
 4103              	.LASF59:
 4104 0610 76745F73 		.ascii	"vt_systime\000"
 4104      79737469 
 4104      6D6500
 4105              	.LASF92:
 4106 061b 63685F76 		.ascii	"ch_version\000"
 4106      65727369 
 4106      6F6E00
 4107              	.LASF60:
 4108 0626 56544C69 		.ascii	"VTList\000"
 4108      737400
 4109              	.LASF75:
 4110 062d 6D5F6F77 		.ascii	"m_owner\000"
 4110      6E657200 
 4111              	.LASF137:
 4112 0635 2E2E2F2F 		.ascii	"..//test/testmbox.c\000"
 4112      74657374 
 4112      2F746573 
ARM GAS  /var/folders/3j/4xdnk5197cv_b7cw3n33qk7r0000gn/T//ccrHT8cn.s 			page 78


 4112      746D626F 
 4112      782E6300 
 4113              	.LASF31:
 4114 0649 705F6374 		.ascii	"p_ctx\000"
 4114      7800
 4115              	.LASF40:
 4116 064f 705F7761 		.ascii	"p_waiting\000"
 4116      6974696E 
 4116      6700
 4117              		.ident	"GCC: (GNU Tools for Arm Embedded Processors 7-2018-q2-update) 7.3.1 20180622 (release) [AR
ARM GAS  /var/folders/3j/4xdnk5197cv_b7cw3n33qk7r0000gn/T//ccrHT8cn.s 			page 79


DEFINED SYMBOLS
                            *ABS*:0000000000000000 testmbox.c
/var/folders/3j/4xdnk5197cv_b7cw3n33qk7r0000gn/T//ccrHT8cn.s:16     .text.mbox1_execute:0000000000000000 $a
/var/folders/3j/4xdnk5197cv_b7cw3n33qk7r0000gn/T//ccrHT8cn.s:21     .text.mbox1_execute:0000000000000000 mbox1_execute
/var/folders/3j/4xdnk5197cv_b7cw3n33qk7r0000gn/T//ccrHT8cn.s:937    .text.mbox1_execute:0000000000000798 $d
/var/folders/3j/4xdnk5197cv_b7cw3n33qk7r0000gn/T//ccrHT8cn.s:943    .text.mbox1_setup:0000000000000000 $a
/var/folders/3j/4xdnk5197cv_b7cw3n33qk7r0000gn/T//ccrHT8cn.s:948    .text.mbox1_setup:0000000000000000 mbox1_setup
/var/folders/3j/4xdnk5197cv_b7cw3n33qk7r0000gn/T//ccrHT8cn.s:964    .text.mbox1_setup:0000000000000010 $d
/var/folders/3j/4xdnk5197cv_b7cw3n33qk7r0000gn/T//ccrHT8cn.s:995    .rodata.patternmbox:0000000000000000 patternmbox
/var/folders/3j/4xdnk5197cv_b7cw3n33qk7r0000gn/T//ccrHT8cn.s:1006   .rodata.testmbox1:0000000000000000 testmbox1
/var/folders/3j/4xdnk5197cv_b7cw3n33qk7r0000gn/T//ccrHT8cn.s:972    .data.mb1:0000000000000000 $d
/var/folders/3j/4xdnk5197cv_b7cw3n33qk7r0000gn/T//ccrHT8cn.s:976    .data.mb1:0000000000000000 mb1
/var/folders/3j/4xdnk5197cv_b7cw3n33qk7r0000gn/T//ccrHT8cn.s:988    .rodata.mbox1_execute.str1.4:0000000000000000 $d
/var/folders/3j/4xdnk5197cv_b7cw3n33qk7r0000gn/T//ccrHT8cn.s:992    .rodata.patternmbox:0000000000000000 $d
/var/folders/3j/4xdnk5197cv_b7cw3n33qk7r0000gn/T//ccrHT8cn.s:999    .rodata.str1.4:0000000000000000 $d
/var/folders/3j/4xdnk5197cv_b7cw3n33qk7r0000gn/T//ccrHT8cn.s:1003   .rodata.testmbox1:0000000000000000 $d

UNDEFINED SYMBOLS
_test_assert
chMBPost
chMBPostAhead
chMBPostI
chMBPostAheadI
test_emit_token
chMBFetch
_test_assert_sequence
chMBFetchI
chMBReset
chMBInit
test
