ARM GAS  /var/folders/3j/4xdnk5197cv_b7cw3n33qk7r0000gn/T//ccUI6O0C.s 			page 1


   1              		.cpu arm1176jz-s
   2              		.eabi_attribute 20, 1
   3              		.eabi_attribute 21, 1
   4              		.eabi_attribute 23, 3
   5              		.eabi_attribute 24, 1
   6              		.eabi_attribute 25, 1
   7              		.eabi_attribute 26, 1
   8              		.eabi_attribute 30, 2
   9              		.eabi_attribute 34, 1
  10              		.eabi_attribute 18, 4
  11              		.file	"testevt.c"
  12              		.text
  13              	.Ltext0:
  14              		.cfi_sections	.debug_frame
  15              		.section	.text.evt1_execute,"ax",%progbits
  16              		.align	2
  17              		.syntax unified
  18              		.arm
  19              		.fpu softvfp
  20              		.type	evt1_execute, %function
  21              	evt1_execute:
  22              	.LFB11:
  23              		.file 1 "..//test/testevt.c"
  24              		.loc 1 89 0
  25              		.cfi_startproc
  26              		@ args = 0, pretend = 0, frame = 32
  27              		@ frame_needed = 0, uses_anonymous_args = 0
  28 0000 10402DE9 		push	{r4, lr}
  29              		.cfi_def_cfa_offset 8
  30              		.cfi_offset 4, -8
  31              		.cfi_offset 14, -4
  32              		.loc 1 95 0
  33 0004 B8409FE5 		ldr	r4, .L8
  34              		.loc 1 89 0
  35 0008 20D04DE2 		sub	sp, sp, #32
  36              		.cfi_def_cfa_offset 40
  37              		.loc 1 96 0
  38 000c 0400A0E1 		mov	r0, r4
  39 0010 0D10A0E1 		mov	r1, sp
  40 0014 0120A0E3 		mov	r2, #1
  41              		.loc 1 95 0
  42 0018 004084E5 		str	r4, [r4]
  43              		.loc 1 96 0
  44 001c FEFFFFEB 		bl	chEvtRegisterMask
  45              	.LVL0:
  46              		.loc 1 97 0
  47 0020 0400A0E1 		mov	r0, r4
  48 0024 10108DE2 		add	r1, sp, #16
  49 0028 0220A0E3 		mov	r2, #2
  50 002c FEFFFFEB 		bl	chEvtRegisterMask
  51              	.LVL1:
  52              		.loc 1 98 0
  53 0030 001094E5 		ldr	r1, [r4]
  54 0034 0100A0E3 		mov	r0, #1
  55 0038 041051E0 		subs	r1, r1, r4
  56 003c 0110A013 		movne	r1, #1
  57 0040 FEFFFFEB 		bl	_test_assert
ARM GAS  /var/folders/3j/4xdnk5197cv_b7cw3n33qk7r0000gn/T//ccUI6O0C.s 			page 2


  58              	.LVL2:
  59 0044 000050E3 		cmp	r0, #0
  60 0048 0100000A 		beq	.L7
  61              	.L1:
  62              		.loc 1 109 0
  63 004c 20D08DE2 		add	sp, sp, #32
  64              		.cfi_remember_state
  65              		.cfi_def_cfa_offset 8
  66              		@ sp needed
  67 0050 1080BDE8 		pop	{r4, pc}
  68              	.L7:
  69              		.cfi_restore_state
  70              		.loc 1 99 0
  71 0054 0D10A0E1 		mov	r1, sp
  72 0058 0400A0E1 		mov	r0, r4
  73 005c FEFFFFEB 		bl	chEvtUnregister
  74              	.LVL3:
  75              		.loc 1 100 0
  76 0060 001094E5 		ldr	r1, [r4]
  77 0064 0200A0E3 		mov	r0, #2
  78 0068 041051E0 		subs	r1, r1, r4
  79 006c 0110A013 		movne	r1, #1
  80 0070 FEFFFFEB 		bl	_test_assert
  81              	.LVL4:
  82 0074 000050E3 		cmp	r0, #0
  83 0078 F3FFFF1A 		bne	.L1
  84              		.loc 1 101 0
  85 007c 10108DE2 		add	r1, sp, #16
  86 0080 0400A0E1 		mov	r0, r4
  87 0084 FEFFFFEB 		bl	chEvtUnregister
  88              	.LVL5:
  89              		.loc 1 102 0
  90 0088 001094E5 		ldr	r1, [r4]
  91 008c 0300A0E3 		mov	r0, #3
  92 0090 041041E0 		sub	r1, r1, r4
  93 0094 111F6FE1 		clz	r1, r1
  94 0098 A112A0E1 		lsr	r1, r1, #5
  95 009c FEFFFFEB 		bl	_test_assert
  96              	.LVL6:
  97 00a0 000050E3 		cmp	r0, #0
  98 00a4 E8FFFF1A 		bne	.L1
  99              		.loc 1 107 0
 100 00a8 0710A0E3 		mov	r1, #7
 101 00ac 14009FE5 		ldr	r0, .L8+4
 102 00b0 FEFFFFEB 		bl	chEvtDispatch
 103              	.LVL7:
 104              		.loc 1 108 0
 105 00b4 10109FE5 		ldr	r1, .L8+8
 106 00b8 0400A0E3 		mov	r0, #4
 107 00bc FEFFFFEB 		bl	_test_assert_sequence
 108              	.LVL8:
 109 00c0 E1FFFFEA 		b	.L1
 110              	.L9:
 111              		.align	2
 112              	.L8:
 113 00c4 00000000 		.word	.LANCHOR0
 114 00c8 00000000 		.word	.LANCHOR1
ARM GAS  /var/folders/3j/4xdnk5197cv_b7cw3n33qk7r0000gn/T//ccUI6O0C.s 			page 3


 115 00cc 00000000 		.word	.LC0
 116              		.cfi_endproc
 117              	.LFE11:
 118              		.size	evt1_execute, .-evt1_execute
 119              		.section	.text.h3,"ax",%progbits
 120              		.align	2
 121              		.syntax unified
 122              		.arm
 123              		.fpu softvfp
 124              		.type	h3, %function
 125              	h3:
 126              	.LFB10:
 127              		.loc 1 86 0
 128              		.cfi_startproc
 129              		@ args = 0, pretend = 0, frame = 0
 130              		@ frame_needed = 0, uses_anonymous_args = 0
 131              		@ link register save eliminated.
 132              	.LVL9:
 133              		.loc 1 86 0
 134 0000 4300A0E3 		mov	r0, #67
 135              	.LVL10:
 136 0004 FEFFFFEA 		b	test_emit_token
 137              	.LVL11:
 138              		.cfi_endproc
 139              	.LFE10:
 140              		.size	h3, .-h3
 141              		.section	.text.h2,"ax",%progbits
 142              		.align	2
 143              		.syntax unified
 144              		.arm
 145              		.fpu softvfp
 146              		.type	h2, %function
 147              	h2:
 148              	.LFB9:
 149              		.loc 1 85 0
 150              		.cfi_startproc
 151              		@ args = 0, pretend = 0, frame = 0
 152              		@ frame_needed = 0, uses_anonymous_args = 0
 153              		@ link register save eliminated.
 154              	.LVL12:
 155              		.loc 1 85 0
 156 0000 4200A0E3 		mov	r0, #66
 157              	.LVL13:
 158 0004 FEFFFFEA 		b	test_emit_token
 159              	.LVL14:
 160              		.cfi_endproc
 161              	.LFE9:
 162              		.size	h2, .-h2
 163              		.section	.text.h1,"ax",%progbits
 164              		.align	2
 165              		.syntax unified
 166              		.arm
 167              		.fpu softvfp
 168              		.type	h1, %function
 169              	h1:
 170              	.LFB8:
 171              		.loc 1 84 0
ARM GAS  /var/folders/3j/4xdnk5197cv_b7cw3n33qk7r0000gn/T//ccUI6O0C.s 			page 4


 172              		.cfi_startproc
 173              		@ args = 0, pretend = 0, frame = 0
 174              		@ frame_needed = 0, uses_anonymous_args = 0
 175              		@ link register save eliminated.
 176              	.LVL15:
 177              		.loc 1 84 0
 178 0000 4100A0E3 		mov	r0, #65
 179              	.LVL16:
 180 0004 FEFFFFEA 		b	test_emit_token
 181              	.LVL17:
 182              		.cfi_endproc
 183              	.LFE8:
 184              		.size	h1, .-h1
 185              		.section	.text.evt1_setup,"ax",%progbits
 186              		.align	2
 187              		.syntax unified
 188              		.arm
 189              		.fpu softvfp
 190              		.type	evt1_setup, %function
 191              	evt1_setup:
 192              	.LFB7:
 193              		.loc 1 79 0
 194              		.cfi_startproc
 195              		@ args = 0, pretend = 0, frame = 0
 196              		@ frame_needed = 0, uses_anonymous_args = 0
 197              		@ link register save eliminated.
 198              		.loc 1 81 0
 199 0000 0000E0E3 		mvn	r0, #0
 200 0004 FEFFFFEA 		b	chEvtGetAndClearEvents
 201              	.LVL18:
 202              		.cfi_endproc
 203              	.LFE7:
 204              		.size	evt1_setup, .-evt1_setup
 205              		.section	.text.evt2_setup,"ax",%progbits
 206              		.align	2
 207              		.syntax unified
 208              		.arm
 209              		.fpu softvfp
 210              		.type	evt2_setup, %function
 211              	evt2_setup:
 212              	.LFB21:
 213              		.cfi_startproc
 214              		@ args = 0, pretend = 0, frame = 0
 215              		@ frame_needed = 0, uses_anonymous_args = 0
 216              		@ link register save eliminated.
 217 0000 FEFFFFEA 		b	evt1_setup
 218              		.cfi_endproc
 219              	.LFE21:
 220              		.size	evt2_setup, .-evt2_setup
 221              		.section	.text.evt3_setup,"ax",%progbits
 222              		.align	2
 223              		.syntax unified
 224              		.arm
 225              		.fpu softvfp
 226              		.type	evt3_setup, %function
 227              	evt3_setup:
 228              	.LFB23:
ARM GAS  /var/folders/3j/4xdnk5197cv_b7cw3n33qk7r0000gn/T//ccUI6O0C.s 			page 5


 229              		.cfi_startproc
 230              		@ args = 0, pretend = 0, frame = 0
 231              		@ frame_needed = 0, uses_anonymous_args = 0
 232              		@ link register save eliminated.
 233 0000 FEFFFFEA 		b	evt1_setup
 234              		.cfi_endproc
 235              	.LFE23:
 236              		.size	evt3_setup, .-evt3_setup
 237              		.section	.text.thread2,"ax",%progbits
 238              		.align	2
 239              		.syntax unified
 240              		.arm
 241              		.fpu softvfp
 242              		.type	thread2, %function
 243              	thread2:
 244              	.LFB14:
 245              		.loc 1 144 0
 246              		.cfi_startproc
 247              		@ args = 0, pretend = 0, frame = 0
 248              		@ frame_needed = 0, uses_anonymous_args = 0
 249              	.LVL19:
 250              		.loc 1 144 0
 251 0000 10402DE9 		push	{r4, lr}
 252              		.cfi_def_cfa_offset 8
 253              		.cfi_offset 4, -8
 254              		.cfi_offset 14, -4
 255              		.loc 1 147 0
 256 0004 0010A0E3 		mov	r1, #0
 257 0008 1C009FE5 		ldr	r0, .L18
 258              	.LVL20:
 259 000c FEFFFFEB 		bl	chEvtBroadcastFlags
 260              	.LVL21:
 261              		.loc 1 148 0
 262 0010 3200A0E3 		mov	r0, #50
 263 0014 FEFFFFEB 		bl	chThdSleep
 264              	.LVL22:
 265              		.loc 1 149 0
 266 0018 0010A0E3 		mov	r1, #0
 267 001c 0C009FE5 		ldr	r0, .L18+4
 268 0020 FEFFFFEB 		bl	chEvtBroadcastFlags
 269              	.LVL23:
 270              		.loc 1 151 0
 271 0024 0000A0E3 		mov	r0, #0
 272 0028 1080BDE8 		pop	{r4, pc}
 273              	.L19:
 274              		.align	2
 275              	.L18:
 276 002c 00000000 		.word	.LANCHOR0
 277 0030 00000000 		.word	.LANCHOR2
 278              		.cfi_endproc
 279              	.LFE14:
 280              		.size	thread2, .-thread2
 281              		.section	.text.thread1,"ax",%progbits
 282              		.align	2
 283              		.syntax unified
 284              		.arm
 285              		.fpu softvfp
ARM GAS  /var/folders/3j/4xdnk5197cv_b7cw3n33qk7r0000gn/T//ccUI6O0C.s 			page 6


 286              		.type	thread1, %function
 287              	thread1:
 288              	.LFB13:
 289              		.loc 1 137 0
 290              		.cfi_startproc
 291              		@ args = 0, pretend = 0, frame = 0
 292              		@ frame_needed = 0, uses_anonymous_args = 0
 293              	.LVL24:
 294 0000 10402DE9 		push	{r4, lr}
 295              		.cfi_def_cfa_offset 8
 296              		.cfi_offset 4, -8
 297              		.cfi_offset 14, -4
 298              		.loc 1 137 0
 299 0004 0040A0E1 		mov	r4, r0
 300              		.loc 1 139 0
 301 0008 3200A0E3 		mov	r0, #50
 302              	.LVL25:
 303 000c FEFFFFEB 		bl	chThdSleep
 304              	.LVL26:
 305              		.loc 1 140 0
 306 0010 0400A0E1 		mov	r0, r4
 307 0014 0110A0E3 		mov	r1, #1
 308 0018 FEFFFFEB 		bl	chEvtSignal
 309              	.LVL27:
 310              		.loc 1 142 0
 311 001c 0000A0E3 		mov	r0, #0
 312 0020 1080BDE8 		pop	{r4, pc}
 313              		.cfi_endproc
 314              	.LFE13:
 315              		.size	thread1, .-thread1
 316              		.section	.text.evt2_execute,"ax",%progbits
 317              		.align	2
 318              		.syntax unified
 319              		.arm
 320              		.fpu softvfp
 321              		.type	evt2_execute, %function
 322              	evt2_execute:
 323              	.LFB15:
 324              		.loc 1 153 0
 325              		.cfi_startproc
 326              		@ args = 0, pretend = 0, frame = 32
 327              		@ frame_needed = 0, uses_anonymous_args = 0
 328 0000 F0432DE9 		push	{r4, r5, r6, r7, r8, r9, lr}
 329              		.cfi_def_cfa_offset 28
 330              		.cfi_offset 4, -28
 331              		.cfi_offset 5, -24
 332              		.cfi_offset 6, -20
 333              		.cfi_offset 7, -16
 334              		.cfi_offset 8, -12
 335              		.cfi_offset 9, -8
 336              		.cfi_offset 14, -4
 337              		.loc 1 161 0
 338 0004 0500A0E3 		mov	r0, #5
 339              		.loc 1 153 0
 340 0008 2CD04DE2 		sub	sp, sp, #44
 341              		.cfi_def_cfa_offset 72
 342              		.loc 1 161 0
ARM GAS  /var/folders/3j/4xdnk5197cv_b7cw3n33qk7r0000gn/T//ccUI6O0C.s 			page 7


 343 000c FEFFFFEB 		bl	chEvtAddEvents
 344              	.LVL28:
 345              		.loc 1 162 0
 346 0010 0000E0E3 		mvn	r0, #0
 347 0014 FEFFFFEB 		bl	chEvtWaitOne
 348              	.LVL29:
 349              		.loc 1 163 0
 350 0018 011040E2 		sub	r1, r0, #1
 351 001c 111F6FE1 		clz	r1, r1
 352 0020 0100A0E3 		mov	r0, #1
 353              	.LVL30:
 354 0024 A112A0E1 		lsr	r1, r1, #5
 355 0028 FEFFFFEB 		bl	_test_assert
 356              	.LVL31:
 357 002c 000050E3 		cmp	r0, #0
 358 0030 0100000A 		beq	.L30
 359              	.L22:
 360              		.loc 1 226 0
 361 0034 2CD08DE2 		add	sp, sp, #44
 362              		.cfi_remember_state
 363              		.cfi_def_cfa_offset 28
 364              		@ sp needed
 365 0038 F083BDE8 		pop	{r4, r5, r6, r7, r8, r9, pc}
 366              	.L30:
 367              		.cfi_restore_state
 368              		.loc 1 164 0
 369 003c 0000E0E3 		mvn	r0, #0
 370 0040 FEFFFFEB 		bl	chEvtWaitOne
 371              	.LVL32:
 372              		.loc 1 165 0
 373 0044 041040E2 		sub	r1, r0, #4
 374 0048 111F6FE1 		clz	r1, r1
 375 004c 0200A0E3 		mov	r0, #2
 376              	.LVL33:
 377 0050 A112A0E1 		lsr	r1, r1, #5
 378 0054 FEFFFFEB 		bl	_test_assert
 379              	.LVL34:
 380 0058 000050E3 		cmp	r0, #0
 381 005c F4FFFF1A 		bne	.L22
 382              		.loc 1 166 0
 383 0060 0000E0E3 		mvn	r0, #0
 384 0064 FEFFFFEB 		bl	chEvtGetAndClearEvents
 385              	.LVL35:
 386              		.loc 1 167 0
 387 0068 101F6FE1 		clz	r1, r0
 388 006c 0300A0E3 		mov	r0, #3
 389              	.LVL36:
 390 0070 A112A0E1 		lsr	r1, r1, #5
 391 0074 FEFFFFEB 		bl	_test_assert
 392              	.LVL37:
 393 0078 000050E3 		cmp	r0, #0
 394 007c ECFFFF1A 		bne	.L22
 395              	.LBB4:
 396              	.LBB5:
 397              		.loc 1 174 0
 398 0080 70829FE5 		ldr	r8, .L31
 399              		.loc 1 172 0
ARM GAS  /var/folders/3j/4xdnk5197cv_b7cw3n33qk7r0000gn/T//ccUI6O0C.s 			page 8


 400 0084 FEFFFFEB 		bl	test_wait_tick
 401              	.LVL38:
 402              		.loc 1 174 0
 403 0088 183098E5 		ldr	r3, [r8, #24]
 404 008c 68129FE5 		ldr	r1, .L31+4
 405 0090 082093E5 		ldr	r2, [r3, #8]
 406 0094 007091E5 		ldr	r7, [r1]
 407              		.loc 1 173 0
 408 0098 60629FE5 		ldr	r6, .L31+8
 409              		.loc 1 174 0
 410 009c 012042E2 		sub	r2, r2, #1
 411 00a0 00308DE5 		str	r3, [sp]
 412 00a4 461FA0E3 		mov	r1, #280
 413 00a8 54329FE5 		ldr	r3, .L31+12
 414 00ac 0700A0E1 		mov	r0, r7
 415              		.loc 1 173 0
 416 00b0 0C4096E5 		ldr	r4, [r6, #12]
 417              	.LVL39:
 418              		.loc 1 174 0
 419 00b4 FEFFFFEB 		bl	chThdCreateStatic
 420              	.LVL40:
 421 00b8 48529FE5 		ldr	r5, .L31+16
 422 00bc 000085E5 		str	r0, [r5]
 423              		.loc 1 176 0
 424 00c0 0000E0E3 		mvn	r0, #0
 425 00c4 FEFFFFEB 		bl	chEvtWaitOne
 426              	.LVL41:
 427              		.loc 1 177 0
 428 00c8 372084E2 		add	r2, r4, #55
 429              		.loc 1 176 0
 430 00cc 0090A0E1 		mov	r9, r0
 431              	.LVL42:
 432              		.loc 1 177 0
 433 00d0 321084E2 		add	r1, r4, #50
 434              	.LVL43:
 435 00d4 0400A0E3 		mov	r0, #4
 436              	.LVL44:
 437 00d8 FEFFFFEB 		bl	_test_assert_time_window
 438              	.LVL45:
 439 00dc 000050E3 		cmp	r0, #0
 440 00e0 D3FFFF1A 		bne	.L22
 441              		.loc 1 178 0
 442 00e4 011049E2 		sub	r1, r9, #1
 443 00e8 111F6FE1 		clz	r1, r1
 444 00ec 0500A0E3 		mov	r0, #5
 445 00f0 A112A0E1 		lsr	r1, r1, #5
 446 00f4 FEFFFFEB 		bl	_test_assert
 447              	.LVL46:
 448 00f8 000050E3 		cmp	r0, #0
 449 00fc CCFFFF1A 		bne	.L22
 450              		.loc 1 179 0
 451 0100 0000E0E3 		mvn	r0, #0
 452 0104 FEFFFFEB 		bl	chEvtGetAndClearEvents
 453              	.LVL47:
 454              		.loc 1 180 0
 455 0108 101F6FE1 		clz	r1, r0
 456 010c 0600A0E3 		mov	r0, #6
ARM GAS  /var/folders/3j/4xdnk5197cv_b7cw3n33qk7r0000gn/T//ccUI6O0C.s 			page 9


 457              	.LVL48:
 458 0110 A112A0E1 		lsr	r1, r1, #5
 459 0114 FEFFFFEB 		bl	_test_assert
 460              	.LVL49:
 461 0118 000050E3 		cmp	r0, #0
 462 011c C4FFFF1A 		bne	.L22
 463              		.loc 1 181 0
 464 0120 FEFFFFEB 		bl	test_wait_threads
 465              	.LVL50:
 466              		.loc 1 186 0
 467 0124 0500A0E3 		mov	r0, #5
 468 0128 FEFFFFEB 		bl	chEvtAddEvents
 469              	.LVL51:
 470              		.loc 1 187 0
 471 012c 0000E0E3 		mvn	r0, #0
 472 0130 FEFFFFEB 		bl	chEvtWaitAny
 473              	.LVL52:
 474              		.loc 1 188 0
 475 0134 051040E2 		sub	r1, r0, #5
 476 0138 111F6FE1 		clz	r1, r1
 477 013c 0700A0E3 		mov	r0, #7
 478              	.LVL53:
 479 0140 A112A0E1 		lsr	r1, r1, #5
 480 0144 FEFFFFEB 		bl	_test_assert
 481              	.LVL54:
 482 0148 000050E3 		cmp	r0, #0
 483 014c B8FFFF1A 		bne	.L22
 484              		.loc 1 189 0
 485 0150 0000E0E3 		mvn	r0, #0
 486 0154 FEFFFFEB 		bl	chEvtGetAndClearEvents
 487              	.LVL55:
 488              		.loc 1 190 0
 489 0158 101F6FE1 		clz	r1, r0
 490 015c 0800A0E3 		mov	r0, #8
 491              	.LVL56:
 492 0160 A112A0E1 		lsr	r1, r1, #5
 493 0164 FEFFFFEB 		bl	_test_assert
 494              	.LVL57:
 495 0168 000050E3 		cmp	r0, #0
 496 016c B0FFFF1A 		bne	.L22
 497              		.loc 1 195 0
 498 0170 FEFFFFEB 		bl	test_wait_tick
 499              	.LVL58:
 500              		.loc 1 197 0
 501 0174 180098E5 		ldr	r0, [r8, #24]
 502 0178 84319FE5 		ldr	r3, .L31+12
 503 017c 082090E5 		ldr	r2, [r0, #8]
 504 0180 461FA0E3 		mov	r1, #280
 505 0184 012042E2 		sub	r2, r2, #1
 506 0188 00008DE5 		str	r0, [sp]
 507 018c 0700A0E1 		mov	r0, r7
 508              		.loc 1 196 0
 509 0190 0C4096E5 		ldr	r4, [r6, #12]
 510              	.LVL59:
 511              		.loc 1 197 0
 512 0194 FEFFFFEB 		bl	chThdCreateStatic
 513              	.LVL60:
ARM GAS  /var/folders/3j/4xdnk5197cv_b7cw3n33qk7r0000gn/T//ccUI6O0C.s 			page 10


 514 0198 000085E5 		str	r0, [r5]
 515              		.loc 1 199 0
 516 019c 0000E0E3 		mvn	r0, #0
 517 01a0 FEFFFFEB 		bl	chEvtWaitAny
 518              	.LVL61:
 519              		.loc 1 200 0
 520 01a4 372084E2 		add	r2, r4, #55
 521              		.loc 1 199 0
 522 01a8 0090A0E1 		mov	r9, r0
 523              	.LVL62:
 524              		.loc 1 200 0
 525 01ac 321084E2 		add	r1, r4, #50
 526              	.LVL63:
 527 01b0 0900A0E3 		mov	r0, #9
 528              	.LVL64:
 529 01b4 FEFFFFEB 		bl	_test_assert_time_window
 530              	.LVL65:
 531 01b8 000050E3 		cmp	r0, #0
 532 01bc 9CFFFF1A 		bne	.L22
 533              		.loc 1 201 0
 534 01c0 011049E2 		sub	r1, r9, #1
 535 01c4 111F6FE1 		clz	r1, r1
 536 01c8 0A00A0E3 		mov	r0, #10
 537 01cc A112A0E1 		lsr	r1, r1, #5
 538 01d0 FEFFFFEB 		bl	_test_assert
 539              	.LVL66:
 540 01d4 000050E3 		cmp	r0, #0
 541 01d8 95FFFF1A 		bne	.L22
 542              		.loc 1 202 0
 543 01dc 0000E0E3 		mvn	r0, #0
 544 01e0 FEFFFFEB 		bl	chEvtGetAndClearEvents
 545              	.LVL67:
 546              		.loc 1 203 0
 547 01e4 101F6FE1 		clz	r1, r0
 548 01e8 0B00A0E3 		mov	r0, #11
 549              	.LVL68:
 550 01ec A112A0E1 		lsr	r1, r1, #5
 551 01f0 FEFFFFEB 		bl	_test_assert
 552              	.LVL69:
 553 01f4 000050E3 		cmp	r0, #0
 554 01f8 8DFFFF1A 		bne	.L22
 555              		.loc 1 209 0
 556 01fc 08919FE5 		ldr	r9, .L31+20
 557              		.loc 1 210 0
 558 0200 08419FE5 		ldr	r4, .L31+24
 559              	.LVL70:
 560              		.loc 1 204 0
 561 0204 FEFFFFEB 		bl	test_wait_threads
 562              	.LVL71:
 563              		.loc 1 211 0
 564 0208 0900A0E1 		mov	r0, r9
 565 020c 08108DE2 		add	r1, sp, #8
 566 0210 0120A0E3 		mov	r2, #1
 567              		.loc 1 209 0
 568 0214 009089E5 		str	r9, [r9]
 569              		.loc 1 210 0
 570 0218 004084E5 		str	r4, [r4]
ARM GAS  /var/folders/3j/4xdnk5197cv_b7cw3n33qk7r0000gn/T//ccUI6O0C.s 			page 11


 571              		.loc 1 211 0
 572 021c FEFFFFEB 		bl	chEvtRegisterMask
 573              	.LVL72:
 574              		.loc 1 212 0
 575 0220 18108DE2 		add	r1, sp, #24
 576 0224 0420A0E3 		mov	r2, #4
 577 0228 0400A0E1 		mov	r0, r4
 578 022c FEFFFFEB 		bl	chEvtRegisterMask
 579              	.LVL73:
 580              		.loc 1 213 0
 581 0230 FEFFFFEB 		bl	test_wait_tick
 582              	.LVL74:
 583              		.loc 1 215 0
 584 0234 182098E5 		ldr	r2, [r8, #24]
 585 0238 D4309FE5 		ldr	r3, .L31+28
 586 023c 082092E5 		ldr	r2, [r2, #8]
 587 0240 461FA0E3 		mov	r1, #280
 588 0244 012042E2 		sub	r2, r2, #1
 589 0248 00308DE5 		str	r3, [sp]
 590 024c 0700A0E1 		mov	r0, r7
 591 0250 C0309FE5 		ldr	r3, .L31+32
 592              		.loc 1 214 0
 593 0254 0C6096E5 		ldr	r6, [r6, #12]
 594              	.LVL75:
 595              		.loc 1 215 0
 596 0258 FEFFFFEB 		bl	chThdCreateStatic
 597              	.LVL76:
 598 025c 000085E5 		str	r0, [r5]
 599              		.loc 1 217 0
 600 0260 0500A0E3 		mov	r0, #5
 601 0264 FEFFFFEB 		bl	chEvtWaitAll
 602              	.LVL77:
 603              		.loc 1 218 0
 604 0268 372086E2 		add	r2, r6, #55
 605 026c 321086E2 		add	r1, r6, #50
 606              	.LVL78:
 607 0270 0C00A0E3 		mov	r0, #12
 608 0274 FEFFFFEB 		bl	_test_assert_time_window
 609              	.LVL79:
 610 0278 000050E3 		cmp	r0, #0
 611 027c 6CFFFF1A 		bne	.L22
 612              		.loc 1 219 0
 613 0280 0000E0E3 		mvn	r0, #0
 614 0284 FEFFFFEB 		bl	chEvtGetAndClearEvents
 615              	.LVL80:
 616              		.loc 1 220 0
 617 0288 101F6FE1 		clz	r1, r0
 618 028c 0D00A0E3 		mov	r0, #13
 619              	.LVL81:
 620 0290 A112A0E1 		lsr	r1, r1, #5
 621 0294 FEFFFFEB 		bl	_test_assert
 622              	.LVL82:
 623 0298 000050E3 		cmp	r0, #0
 624 029c 64FFFF1A 		bne	.L22
 625              		.loc 1 221 0
 626 02a0 FEFFFFEB 		bl	test_wait_threads
 627              	.LVL83:
ARM GAS  /var/folders/3j/4xdnk5197cv_b7cw3n33qk7r0000gn/T//ccUI6O0C.s 			page 12


 628              		.loc 1 222 0
 629 02a4 08108DE2 		add	r1, sp, #8
 630 02a8 0900A0E1 		mov	r0, r9
 631 02ac FEFFFFEB 		bl	chEvtUnregister
 632              	.LVL84:
 633              		.loc 1 223 0
 634 02b0 18108DE2 		add	r1, sp, #24
 635 02b4 0400A0E1 		mov	r0, r4
 636 02b8 FEFFFFEB 		bl	chEvtUnregister
 637              	.LVL85:
 638              		.loc 1 224 0
 639 02bc 001099E5 		ldr	r1, [r9]
 640 02c0 0E00A0E3 		mov	r0, #14
 641 02c4 091041E0 		sub	r1, r1, r9
 642 02c8 111F6FE1 		clz	r1, r1
 643 02cc A112A0E1 		lsr	r1, r1, #5
 644 02d0 FEFFFFEB 		bl	_test_assert
 645              	.LVL86:
 646 02d4 000050E3 		cmp	r0, #0
 647 02d8 55FFFF1A 		bne	.L22
 648              		.loc 1 225 0
 649 02dc 001094E5 		ldr	r1, [r4]
 650 02e0 0F00A0E3 		mov	r0, #15
 651 02e4 041041E0 		sub	r1, r1, r4
 652 02e8 111F6FE1 		clz	r1, r1
 653 02ec A112A0E1 		lsr	r1, r1, #5
 654 02f0 FEFFFFEB 		bl	_test_assert
 655              	.LVL87:
 656 02f4 4EFFFFEA 		b	.L22
 657              	.L32:
 658              		.align	2
 659              	.L31:
 660 02f8 00000000 		.word	rlist
 661 02fc 00000000 		.word	wa
 662 0300 00000000 		.word	vtlist
 663 0304 00000000 		.word	thread1
 664 0308 00000000 		.word	threads
 665 030c 00000000 		.word	.LANCHOR0
 666 0310 00000000 		.word	.LANCHOR2
 667 0314 00000000 		.word	.LC1
 668 0318 00000000 		.word	thread2
 669              	.LBE5:
 670              	.LBE4:
 671              		.cfi_endproc
 672              	.LFE15:
 673              		.size	evt2_execute, .-evt2_execute
 674              		.section	.text.evt3_execute,"ax",%progbits
 675              		.align	2
 676              		.syntax unified
 677              		.arm
 678              		.fpu softvfp
 679              		.type	evt3_execute, %function
 680              	evt3_execute:
 681              	.LFB17:
 682              		.loc 1 256 0
 683              		.cfi_startproc
 684              		@ args = 0, pretend = 0, frame = 0
ARM GAS  /var/folders/3j/4xdnk5197cv_b7cw3n33qk7r0000gn/T//ccUI6O0C.s 			page 13


 685              		@ frame_needed = 0, uses_anonymous_args = 0
 686 0000 10402DE9 		push	{r4, lr}
 687              		.cfi_def_cfa_offset 8
 688              		.cfi_offset 4, -8
 689              		.cfi_offset 14, -4
 690              		.loc 1 262 0
 691 0004 0010A0E3 		mov	r1, #0
 692 0008 0000E0E3 		mvn	r0, #0
 693 000c FEFFFFEB 		bl	chEvtWaitOneTimeout
 694              	.LVL88:
 695              		.loc 1 263 0
 696 0010 101F6FE1 		clz	r1, r0
 697 0014 0100A0E3 		mov	r0, #1
 698              	.LVL89:
 699 0018 A112A0E1 		lsr	r1, r1, #5
 700 001c FEFFFFEB 		bl	_test_assert
 701              	.LVL90:
 702 0020 001050E2 		subs	r1, r0, #0
 703 0024 1080BD18 		popne	{r4, pc}
 704              		.loc 1 264 0
 705 0028 0000E0E3 		mvn	r0, #0
 706 002c FEFFFFEB 		bl	chEvtWaitAnyTimeout
 707              	.LVL91:
 708              		.loc 1 265 0
 709 0030 101F6FE1 		clz	r1, r0
 710 0034 0200A0E3 		mov	r0, #2
 711              	.LVL92:
 712 0038 A112A0E1 		lsr	r1, r1, #5
 713 003c FEFFFFEB 		bl	_test_assert
 714              	.LVL93:
 715 0040 001050E2 		subs	r1, r0, #0
 716 0044 1080BD18 		popne	{r4, pc}
 717              		.loc 1 266 0
 718 0048 0000E0E3 		mvn	r0, #0
 719 004c FEFFFFEB 		bl	chEvtWaitAllTimeout
 720              	.LVL94:
 721              		.loc 1 267 0
 722 0050 101F6FE1 		clz	r1, r0
 723 0054 0300A0E3 		mov	r0, #3
 724              	.LVL95:
 725 0058 A112A0E1 		lsr	r1, r1, #5
 726 005c FEFFFFEB 		bl	_test_assert
 727              	.LVL96:
 728 0060 000050E3 		cmp	r0, #0
 729 0064 1080BD18 		popne	{r4, pc}
 730              	.LBB8:
 731              	.LBB9:
 732              		.loc 1 268 0
 733 0068 0A10A0E3 		mov	r1, #10
 734 006c 0000E0E3 		mvn	r0, #0
 735 0070 FEFFFFEB 		bl	chEvtWaitOneTimeout
 736              	.LVL97:
 737              		.loc 1 269 0
 738 0074 101F6FE1 		clz	r1, r0
 739 0078 0400A0E3 		mov	r0, #4
 740              	.LVL98:
 741 007c A112A0E1 		lsr	r1, r1, #5
ARM GAS  /var/folders/3j/4xdnk5197cv_b7cw3n33qk7r0000gn/T//ccUI6O0C.s 			page 14


 742 0080 FEFFFFEB 		bl	_test_assert
 743              	.LVL99:
 744 0084 000050E3 		cmp	r0, #0
 745 0088 1080BD18 		popne	{r4, pc}
 746              		.loc 1 270 0
 747 008c 0A10A0E3 		mov	r1, #10
 748 0090 0000E0E3 		mvn	r0, #0
 749 0094 FEFFFFEB 		bl	chEvtWaitAnyTimeout
 750              	.LVL100:
 751              		.loc 1 271 0
 752 0098 101F6FE1 		clz	r1, r0
 753 009c 0500A0E3 		mov	r0, #5
 754              	.LVL101:
 755 00a0 3110A0E1 		lsr	r1, r1, r0
 756 00a4 FEFFFFEB 		bl	_test_assert
 757              	.LVL102:
 758 00a8 000050E3 		cmp	r0, #0
 759 00ac 1080BD18 		popne	{r4, pc}
 760              		.loc 1 272 0
 761 00b0 0A10A0E3 		mov	r1, #10
 762 00b4 0000E0E3 		mvn	r0, #0
 763 00b8 FEFFFFEB 		bl	chEvtWaitAllTimeout
 764              	.LVL103:
 765              	.LBE9:
 766              	.LBE8:
 767              		.loc 1 274 0
 768 00bc 1040BDE8 		pop	{r4, lr}
 769              		.cfi_restore 14
 770              		.cfi_restore 4
 771              		.cfi_def_cfa_offset 0
 772              	.LBB11:
 773              	.LBB10:
 774              		.loc 1 273 0
 775 00c0 101F6FE1 		clz	r1, r0
 776 00c4 0600A0E3 		mov	r0, #6
 777              	.LVL104:
 778 00c8 A112A0E1 		lsr	r1, r1, #5
 779 00cc FEFFFFEA 		b	_test_assert
 780              	.LVL105:
 781              	.LBE10:
 782              	.LBE11:
 783              		.cfi_endproc
 784              	.LFE17:
 785              		.size	evt3_execute, .-evt3_execute
 786              		.global	patternevt
 787              		.global	testevt3
 788              		.global	testevt2
 789              		.global	testevt1
 790              		.section	.data.es1,"aw",%progbits
 791              		.align	2
 792              		.set	.LANCHOR0,. + 0
 793              		.type	es1, %object
 794              		.size	es1, 4
 795              	es1:
 796 0000 00000000 		.word	es1
 797              		.section	.data.es2,"aw",%progbits
 798              		.align	2
ARM GAS  /var/folders/3j/4xdnk5197cv_b7cw3n33qk7r0000gn/T//ccUI6O0C.s 			page 15


 799              		.set	.LANCHOR2,. + 0
 800              		.type	es2, %object
 801              		.size	es2, 4
 802              	es2:
 803 0000 00000000 		.word	es2
 804              		.section	.rodata.evhndl,"a",%progbits
 805              		.align	2
 806              		.set	.LANCHOR1,. + 0
 807              		.type	evhndl, %object
 808              		.size	evhndl, 12
 809              	evhndl:
 810 0000 00000000 		.word	h1
 811 0004 00000000 		.word	h2
 812 0008 00000000 		.word	h3
 813              		.section	.rodata.evt1_execute.str1.4,"aMS",%progbits,1
 814              		.align	2
 815              	.LC0:
 816 0000 41424300 		.ascii	"ABC\000"
 817              		.section	.rodata.evt2_execute.str1.4,"aMS",%progbits,1
 818              		.align	2
 819              	.LC1:
 820 0000 4100     		.ascii	"A\000"
 821              		.section	.rodata.patternevt,"a",%progbits
 822              		.align	2
 823              		.type	patternevt, %object
 824              		.size	patternevt, 16
 825              	patternevt:
 826 0000 00000000 		.word	testevt1
 827 0004 00000000 		.word	testevt2
 828 0008 00000000 		.word	testevt3
 829 000c 00000000 		.word	0
 830              		.section	.rodata.str1.4,"aMS",%progbits,1
 831              		.align	2
 832              	.LC2:
 833 0000 4576656E 		.ascii	"Events, timeouts\000"
 833      74732C20 
 833      74696D65 
 833      6F757473 
 833      00
 834 0011 000000   		.space	3
 835              	.LC3:
 836 0014 4576656E 		.ascii	"Events, wait and broadcast\000"
 836      74732C20 
 836      77616974 
 836      20616E64 
 836      2062726F 
 837 002f 00       		.space	1
 838              	.LC4:
 839 0030 4576656E 		.ascii	"Events, registration and dispatch\000"
 839      74732C20 
 839      72656769 
 839      73747261 
 839      74696F6E 
 840              		.section	.rodata.testevt1,"a",%progbits
 841              		.align	2
 842              		.type	testevt1, %object
 843              		.size	testevt1, 16
ARM GAS  /var/folders/3j/4xdnk5197cv_b7cw3n33qk7r0000gn/T//ccUI6O0C.s 			page 16


 844              	testevt1:
 845 0000 30000000 		.word	.LC4
 846 0004 00000000 		.word	evt1_setup
 847 0008 00000000 		.word	0
 848 000c 00000000 		.word	evt1_execute
 849              		.section	.rodata.testevt2,"a",%progbits
 850              		.align	2
 851              		.type	testevt2, %object
 852              		.size	testevt2, 16
 853              	testevt2:
 854 0000 14000000 		.word	.LC3
 855 0004 00000000 		.word	evt2_setup
 856 0008 00000000 		.word	0
 857 000c 00000000 		.word	evt2_execute
 858              		.section	.rodata.testevt3,"a",%progbits
 859              		.align	2
 860              		.type	testevt3, %object
 861              		.size	testevt3, 16
 862              	testevt3:
 863 0000 00000000 		.word	.LC2
 864 0004 00000000 		.word	evt3_setup
 865 0008 00000000 		.word	0
 866 000c 00000000 		.word	evt3_execute
 867              		.text
 868              	.Letext0:
 869              		.file 2 "/usr/local/Cellar/gcc-arm-none-eabi/20180627/arm-none-eabi/include/machine/_default_types
 870              		.file 3 "/usr/local/Cellar/gcc-arm-none-eabi/20180627/arm-none-eabi/include/sys/_stdint.h"
 871              		.file 4 "..//os/ports/GCC/ARM/chtypes.h"
 872              		.file 5 "..//os/kernel/include/chlists.h"
 873              		.file 6 "..//os/kernel/include/chthreads.h"
 874              		.file 7 "..//os/ports/GCC/ARM/chcore.h"
 875              		.file 8 "..//os/kernel/include/chvt.h"
 876              		.file 9 "..//os/kernel/include/chschd.h"
 877              		.file 10 "..//os/kernel/include/chmtx.h"
 878              		.file 11 "..//os/kernel/include/chevents.h"
 879              		.file 12 "..//os/kernel/include/chregistry.h"
 880              		.file 13 "..//os/kernel/include/ch.h"
 881              		.file 14 "..//test/test.h"