ARM GAS  /var/folders/3j/4xdnk5197cv_b7cw3n33qk7r0000gn/T//ccrHT8cn.s 			page 1


   1              		.cpu arm1176jz-s
   2              		.eabi_attribute 20, 1
   3              		.eabi_attribute 21, 1
   4              		.eabi_attribute 23, 3
   5              		.eabi_attribute 24, 1
   6              		.eabi_attribute 25, 1
   7              		.eabi_attribute 26, 1
   8              		.eabi_attribute 30, 2
   9              		.eabi_attribute 34, 1
  10              		.eabi_attribute 18, 4
  11              		.file	"testmbox.c"
  12              		.text
  13              	.Ltext0:
  14              		.cfi_sections	.debug_frame
  15              		.section	.text.mbox1_execute,"ax",%progbits
  16              		.align	2
  17              		.syntax unified
  18              		.arm
  19              		.fpu softvfp
  20              		.type	mbox1_execute, %function
  21              	mbox1_execute:
  22              	.LFB8:
  23              		.file 1 "..//test/testmbox.c"
  24              		.loc 1 80 0
  25              		.cfi_startproc
  26              		@ args = 0, pretend = 0, frame = 8
  27              		@ frame_needed = 0, uses_anonymous_args = 0
  28 0000 70402DE9 		push	{r4, r5, r6, lr}
  29              		.cfi_def_cfa_offset 16
  30              		.cfi_offset 4, -16
  31              		.cfi_offset 5, -12
  32              		.cfi_offset 6, -8
  33              		.cfi_offset 14, -4
  34              		.loc 1 87 0
  35 0004 8C579FE5 		ldr	r5, .L32
  36              		.loc 1 80 0
  37 0008 08D04DE2 		sub	sp, sp, #8
  38              		.cfi_def_cfa_offset 24
  39              		.loc 1 87 0
  40 000c 241095E5 		ldr	r1, [r5, #36]
  41 0010 0100A0E3 		mov	r0, #1
  42 0014 051041E2 		sub	r1, r1, #5
  43 0018 111F6FE1 		clz	r1, r1
  44 001c A112A0E1 		lsr	r1, r1, #5
  45 0020 FEFFFFEB 		bl	_test_assert
  46              	.LVL0:
  47 0024 000050E3 		cmp	r0, #0
  48 0028 1800001A 		bne	.L1
  49 002c 4240A0E3 		mov	r4, #66
  50              		.loc 1 93 0
  51 0030 0560A0E1 		mov	r6, r5
  52              	.L3:
  53              	.LVL1:
  54 0034 0410A0E1 		mov	r1, r4
  55 0038 0020E0E3 		mvn	r2, #0
  56 003c 0600A0E1 		mov	r0, r6
  57 0040 FEFFFFEB 		bl	chMBPost
ARM GAS  /var/folders/3j/4xdnk5197cv_b7cw3n33qk7r0000gn/T//ccrHT8cn.s 			page 2


  58              	.LVL2:
  59              		.loc 1 94 0
  60 0044 101F6FE1 		clz	r1, r0
  61 0048 0200A0E3 		mov	r0, #2
  62              	.LVL3:
  63 004c A112A0E1 		lsr	r1, r1, #5
  64 0050 FEFFFFEB 		bl	_test_assert
  65              	.LVL4:
  66 0054 000050E3 		cmp	r0, #0
  67 0058 014084E2 		add	r4, r4, #1
  68              	.LVL5:
  69 005c 0B00001A 		bne	.L1
  70              		.loc 1 92 0 discriminator 2
  71 0060 460054E3 		cmp	r4, #70
  72 0064 F2FFFF1A 		bne	.L3
  73              		.loc 1 96 0
  74 0068 0020E0E3 		mvn	r2, #0
  75 006c 4110A0E3 		mov	r1, #65
  76 0070 20079FE5 		ldr	r0, .L32
  77 0074 FEFFFFEB 		bl	chMBPostAhead
  78              	.LVL6:
  79              		.loc 1 97 0
  80 0078 101F6FE1 		clz	r1, r0
  81 007c 0300A0E3 		mov	r0, #3
  82              	.LVL7:
  83 0080 A112A0E1 		lsr	r1, r1, #5
  84 0084 FEFFFFEB 		bl	_test_assert
  85              	.LVL8:
  86 0088 000050E3 		cmp	r0, #0
  87 008c 0100000A 		beq	.L29
  88              	.LVL9:
  89              	.L1:
  90              		.loc 1 224 0
  91 0090 08D08DE2 		add	sp, sp, #8
  92              		.cfi_remember_state
  93              		.cfi_def_cfa_offset 16
  94              		@ sp needed
  95 0094 7080BDE8 		pop	{r4, r5, r6, pc}
  96              	.LVL10:
  97              	.L29:
  98              		.cfi_restore_state
  99              		.loc 1 102 0
 100 0098 5810A0E3 		mov	r1, #88
 101 009c 0120A0E3 		mov	r2, #1
 102 00a0 F0069FE5 		ldr	r0, .L32
 103 00a4 FEFFFFEB 		bl	chMBPost
 104              	.LVL11:
 105              		.loc 1 103 0
 106 00a8 010070E3 		cmn	r0, #1
 107 00ac 0010A013 		movne	r1, #0
 108 00b0 0110A003 		moveq	r1, #1
 109 00b4 0400A0E3 		mov	r0, #4
 110              	.LVL12:
 111 00b8 FEFFFFEB 		bl	_test_assert
 112              	.LVL13:
 113 00bc 000050E3 		cmp	r0, #0
 114 00c0 F2FFFF1A 		bne	.L1
ARM GAS  /var/folders/3j/4xdnk5197cv_b7cw3n33qk7r0000gn/T//ccrHT8cn.s 			page 3


 115              		.loc 1 104 0
 116              		.syntax divided
 117              	@ 104 "..//test/testmbox.c" 1
 118 00c4 9FF021E3 		msr     CPSR_c, #0x9F
 119              	@ 0 "" 2
 120              		.loc 1 105 0
 121              		.arm
 122              		.syntax unified
 123 00c8 5810A0E3 		mov	r1, #88
 124 00cc C4069FE5 		ldr	r0, .L32
 125 00d0 FEFFFFEB 		bl	chMBPostI
 126              	.LVL14:
 127 00d4 0010A0E1 		mov	r1, r0
 128              	.LVL15:
 129              		.loc 1 106 0
 130              		.syntax divided
 131              	@ 106 "..//test/testmbox.c" 1
 132 00d8 1FF021E3 		msr     CPSR_c, #0x1F
 133              	@ 0 "" 2
 134              		.loc 1 107 0
 135              		.arm
 136              		.syntax unified
 137 00dc 010071E3 		cmn	r1, #1
 138 00e0 0010A013 		movne	r1, #0
 139 00e4 0110A003 		moveq	r1, #1
 140 00e8 0500A0E3 		mov	r0, #5
 141              	.LVL16:
 142 00ec FEFFFFEB 		bl	_test_assert
 143              	.LVL17:
 144 00f0 000050E3 		cmp	r0, #0
 145 00f4 E5FFFF1A 		bne	.L1
 146              		.loc 1 108 0
 147 00f8 5810A0E3 		mov	r1, #88
 148 00fc 0120A0E3 		mov	r2, #1
 149 0100 90069FE5 		ldr	r0, .L32
 150 0104 FEFFFFEB 		bl	chMBPostAhead
 151              	.LVL18:
 152              		.loc 1 109 0
 153 0108 010070E3 		cmn	r0, #1
 154 010c 0010A013 		movne	r1, #0
 155 0110 0110A003 		moveq	r1, #1
 156 0114 0600A0E3 		mov	r0, #6
 157              	.LVL19:
 158 0118 FEFFFFEB 		bl	_test_assert
 159              	.LVL20:
 160 011c 000050E3 		cmp	r0, #0
 161 0120 DAFFFF1A 		bne	.L1
 162              		.loc 1 110 0
 163              		.syntax divided
 164              	@ 110 "..//test/testmbox.c" 1
 165 0124 9FF021E3 		msr     CPSR_c, #0x9F
 166              	@ 0 "" 2
 167              		.loc 1 111 0
 168              		.arm
 169              		.syntax unified
 170 0128 5810A0E3 		mov	r1, #88
 171 012c 64069FE5 		ldr	r0, .L32
ARM GAS  /var/folders/3j/4xdnk5197cv_b7cw3n33qk7r0000gn/T//ccrHT8cn.s 			page 4


 172 0130 FEFFFFEB 		bl	chMBPostAheadI
 173              	.LVL21:
 174 0134 0010A0E1 		mov	r1, r0
 175              	.LVL22:
 176              		.loc 1 112 0
 177              		.syntax divided
 178              	@ 112 "..//test/testmbox.c" 1
 179 0138 1FF021E3 		msr     CPSR_c, #0x1F
 180              	@ 0 "" 2
 181              		.loc 1 113 0
 182              		.arm
 183              		.syntax unified
 184 013c 010071E3 		cmn	r1, #1
 185 0140 0010A013 		movne	r1, #0
 186 0144 0110A003 		moveq	r1, #1
 187 0148 0700A0E3 		mov	r0, #7
 188              	.LVL23:
 189 014c FEFFFFEB 		bl	_test_assert
 190              	.LVL24:
 191 0150 000050E3 		cmp	r0, #0
 192 0154 CDFFFF1A 		bne	.L1
 193              		.loc 1 118 0
 194              		.syntax divided
 195              	@ 118 "..//test/testmbox.c" 1
 196 0158 9FF021E3 		msr     CPSR_c, #0x9F
 197              	@ 0 "" 2
 198              		.arm
 199              		.syntax unified
 200 015c 241095E5 		ldr	r1, [r5, #36]
 201 0160 0800A0E3 		mov	r0, #8
 202 0164 111F6FE1 		clz	r1, r1
 203 0168 A112A0E1 		lsr	r1, r1, #5
 204 016c FEFFFFEB 		bl	_test_assert
 205              	.LVL25:
 206 0170 000050E3 		cmp	r0, #0
 207 0174 0100000A 		beq	.L4
 208              	.LVL26:
 209              	.L21:
 210              		.loc 1 223 0 discriminator 2
 211              		.syntax divided
 212              	@ 223 "..//test/testmbox.c" 1
 213 0178 1FF021E3 		msr     CPSR_c, #0x1F
 214              	@ 0 "" 2
 215              		.arm
 216              		.syntax unified
 217 017c C3FFFFEA 		b	.L1
 218              	.LVL27:
 219              	.L4:
 220              		.loc 1 118 0 discriminator 2
 221              		.syntax divided
 222              	@ 118 "..//test/testmbox.c" 1
 223 0180 1FF021E3 		msr     CPSR_c, #0x1F
 224              	@ 0 "" 2
 225              		.loc 1 119 0 discriminator 2
 226              	@ 119 "..//test/testmbox.c" 1
 227 0184 9FF021E3 		msr     CPSR_c, #0x9F
 228              	@ 0 "" 2
ARM GAS  /var/folders/3j/4xdnk5197cv_b7cw3n33qk7r0000gn/T//ccrHT8cn.s 			page 5


 229              		.arm
 230              		.syntax unified
 231 0188 181095E5 		ldr	r1, [r5, #24]
 232 018c 0900A0E3 		mov	r0, #9
 233 0190 051041E2 		sub	r1, r1, #5
 234 0194 111F6FE1 		clz	r1, r1
 235 0198 A112A0E1 		lsr	r1, r1, #5
 236 019c FEFFFFEB 		bl	_test_assert
 237              	.LVL28:
 238 01a0 000050E3 		cmp	r0, #0
 239 01a4 F3FFFF1A 		bne	.L21
 240              		.syntax divided
 241              	@ 119 "..//test/testmbox.c" 1
 242 01a8 1FF021E3 		msr     CPSR_c, #0x1F
 243              	@ 0 "" 2
 244              		.loc 1 120 0 discriminator 2
 245              	@ 120 "..//test/testmbox.c" 1
 246 01ac 9FF021E3 		msr     CPSR_c, #0x9F
 247              	@ 0 "" 2
 248              		.arm
 249              		.syntax unified
 250 01b0 0C1095E5 		ldr	r1, [r5, #12]
 251 01b4 083095E5 		ldr	r3, [r5, #8]
 252 01b8 0A00A0E3 		mov	r0, #10
 253 01bc 031041E0 		sub	r1, r1, r3
 254 01c0 111F6FE1 		clz	r1, r1
 255 01c4 A112A0E1 		lsr	r1, r1, #5
 256 01c8 FEFFFFEB 		bl	_test_assert
 257              	.LVL29:
 258 01cc 000050E3 		cmp	r0, #0
 259 01d0 E8FFFF1A 		bne	.L21
 260              		.syntax divided
 261              	@ 120 "..//test/testmbox.c" 1
 262 01d4 1FF021E3 		msr     CPSR_c, #0x1F
 263              	@ 0 "" 2
 264              	.LVL30:
 265              		.arm
 266              		.syntax unified
 267 01d8 0540A0E3 		mov	r4, #5
 268              		.loc 1 126 0 discriminator 2
 269 01dc B4659FE5 		ldr	r6, .L32
 270 01e0 030000EA 		b	.L8
 271              	.LVL31:
 272              	.L31:
 273              		.loc 1 128 0 discriminator 2
 274 01e4 0400DDE5 		ldrb	r0, [sp, #4]	@ zero_extendqisi2
 275 01e8 FEFFFFEB 		bl	test_emit_token
 276              	.LVL32:
 277              		.loc 1 125 0 discriminator 2
 278 01ec 014054E2 		subs	r4, r4, #1
 279              	.LVL33:
 280 01f0 0A00000A 		beq	.L30
 281              	.LVL34:
 282              	.L8:
 283              		.loc 1 126 0
 284 01f4 0020E0E3 		mvn	r2, #0
 285 01f8 04108DE2 		add	r1, sp, #4
ARM GAS  /var/folders/3j/4xdnk5197cv_b7cw3n33qk7r0000gn/T//ccrHT8cn.s 			page 6


 286 01fc 0600A0E1 		mov	r0, r6
 287 0200 FEFFFFEB 		bl	chMBFetch
 288              	.LVL35:
 289              		.loc 1 127 0
 290 0204 101F6FE1 		clz	r1, r0
 291 0208 0B00A0E3 		mov	r0, #11
 292              	.LVL36:
 293 020c A112A0E1 		lsr	r1, r1, #5
 294 0210 FEFFFFEB 		bl	_test_assert
 295              	.LVL37:
 296 0214 000050E3 		cmp	r0, #0
 297 0218 F1FFFF0A 		beq	.L31
 298 021c 9BFFFFEA 		b	.L1
 299              	.L30:
 300              		.loc 1 130 0
 301 0220 74159FE5 		ldr	r1, .L32+4
 302 0224 0C00A0E3 		mov	r0, #12
 303 0228 FEFFFFEB 		bl	_test_assert_sequence
 304              	.LVL38:
 305 022c 000050E3 		cmp	r0, #0
 306 0230 96FFFF1A 		bne	.L1
 307              		.loc 1 135 0
 308 0234 0020E0E3 		mvn	r2, #0
 309 0238 4710A0E3 		mov	r1, #71
 310 023c 54059FE5 		ldr	r0, .L32
 311 0240 FEFFFFEB 		bl	chMBPost
 312              	.LVL39:
 313              		.loc 1 136 0
 314 0244 101F6FE1 		clz	r1, r0
 315 0248 0D00A0E3 		mov	r0, #13
 316              	.LVL40:
 317 024c A112A0E1 		lsr	r1, r1, #5
 318 0250 FEFFFFEB 		bl	_test_assert
 319              	.LVL41:
 320 0254 000050E3 		cmp	r0, #0
 321 0258 8CFFFF1A 		bne	.L1
 322              		.loc 1 137 0
 323 025c 0020E0E3 		mvn	r2, #0
 324 0260 04108DE2 		add	r1, sp, #4
 325 0264 2C059FE5 		ldr	r0, .L32
 326 0268 FEFFFFEB 		bl	chMBFetch
 327              	.LVL42:
 328              		.loc 1 138 0
 329 026c 101F6FE1 		clz	r1, r0
 330 0270 0E00A0E3 		mov	r0, #14
 331              	.LVL43:
 332 0274 A112A0E1 		lsr	r1, r1, #5
 333 0278 FEFFFFEB 		bl	_test_assert
 334              	.LVL44:
 335 027c 000050E3 		cmp	r0, #0
 336 0280 82FFFF1A 		bne	.L1
 337              		.loc 1 139 0
 338 0284 001095E5 		ldr	r1, [r5]
 339 0288 083095E5 		ldr	r3, [r5, #8]
 340 028c 0F00A0E3 		mov	r0, #15
 341 0290 031041E0 		sub	r1, r1, r3
 342 0294 111F6FE1 		clz	r1, r1
ARM GAS  /var/folders/3j/4xdnk5197cv_b7cw3n33qk7r0000gn/T//ccrHT8cn.s 			page 7


 343 0298 A112A0E1 		lsr	r1, r1, #5
 344 029c FEFFFFEB 		bl	_test_assert
 345              	.LVL45:
 346 02a0 000050E3 		cmp	r0, #0
 347 02a4 79FFFF1A 		bne	.L1
 348              		.loc 1 140 0
 349 02a8 001095E5 		ldr	r1, [r5]
 350 02ac 0C3095E5 		ldr	r3, [r5, #12]
 351 02b0 1000A0E3 		mov	r0, #16
 352 02b4 031041E0 		sub	r1, r1, r3
 353 02b8 111F6FE1 		clz	r1, r1
 354 02bc A112A0E1 		lsr	r1, r1, #5
 355 02c0 FEFFFFEB 		bl	_test_assert
 356              	.LVL46:
 357 02c4 000050E3 		cmp	r0, #0
 358 02c8 70FFFF1A 		bne	.L1
 359              		.loc 1 145 0
 360 02cc 04108DE2 		add	r1, sp, #4
 361 02d0 0120A0E3 		mov	r2, #1
 362 02d4 BC049FE5 		ldr	r0, .L32
 363 02d8 FEFFFFEB 		bl	chMBFetch
 364              	.LVL47:
 365              		.loc 1 146 0
 366 02dc 010070E3 		cmn	r0, #1
 367 02e0 0010A013 		movne	r1, #0
 368 02e4 0110A003 		moveq	r1, #1
 369 02e8 1100A0E3 		mov	r0, #17
 370              	.LVL48:
 371 02ec FEFFFFEB 		bl	_test_assert
 372              	.LVL49:
 373 02f0 000050E3 		cmp	r0, #0
 374 02f4 65FFFF1A 		bne	.L1
 375              		.loc 1 147 0
 376              		.syntax divided
 377              	@ 147 "..//test/testmbox.c" 1
 378 02f8 9FF021E3 		msr     CPSR_c, #0x9F
 379              	@ 0 "" 2
 380              		.loc 1 148 0
 381              		.arm
 382              		.syntax unified
 383 02fc 94049FE5 		ldr	r0, .L32
 384 0300 04108DE2 		add	r1, sp, #4
 385 0304 FEFFFFEB 		bl	chMBFetchI
 386              	.LVL50:
 387 0308 0010A0E1 		mov	r1, r0
 388              	.LVL51:
 389              		.loc 1 149 0
 390              		.syntax divided
 391              	@ 149 "..//test/testmbox.c" 1
 392 030c 1FF021E3 		msr     CPSR_c, #0x1F
 393              	@ 0 "" 2
 394              		.loc 1 150 0
 395              		.arm
 396              		.syntax unified
 397 0310 010071E3 		cmn	r1, #1
 398 0314 0010A013 		movne	r1, #0
 399 0318 0110A003 		moveq	r1, #1
ARM GAS  /var/folders/3j/4xdnk5197cv_b7cw3n33qk7r0000gn/T//ccrHT8cn.s 			page 8


 400 031c 1200A0E3 		mov	r0, #18
 401              	.LVL52:
 402 0320 FEFFFFEB 		bl	_test_assert
 403              	.LVL53:
 404 0324 000050E3 		cmp	r0, #0
 405 0328 58FFFF1A 		bne	.L1
 406              		.loc 1 155 0
 407              		.syntax divided
 408              	@ 155 "..//test/testmbox.c" 1
 409 032c 9FF021E3 		msr     CPSR_c, #0x9F
 410              	@ 0 "" 2
 411              		.arm
 412              		.syntax unified
 413 0330 241095E5 		ldr	r1, [r5, #36]
 414 0334 1300A0E3 		mov	r0, #19
 415 0338 051041E2 		sub	r1, r1, #5
 416 033c 111F6FE1 		clz	r1, r1
 417 0340 A112A0E1 		lsr	r1, r1, #5
 418 0344 FEFFFFEB 		bl	_test_assert
 419              	.LVL54:
 420 0348 000050E3 		cmp	r0, #0
 421 034c 89FFFF1A 		bne	.L21
 422              		.loc 1 155 0 is_stmt 0 discriminator 2
 423              		.syntax divided
 424              	@ 155 "..//test/testmbox.c" 1
 425 0350 1FF021E3 		msr     CPSR_c, #0x1F
 426              	@ 0 "" 2
 427              		.loc 1 156 0 is_stmt 1 discriminator 2
 428              	@ 156 "..//test/testmbox.c" 1
 429 0354 9FF021E3 		msr     CPSR_c, #0x9F
 430              	@ 0 "" 2
 431              		.arm
 432              		.syntax unified
 433 0358 181095E5 		ldr	r1, [r5, #24]
 434 035c 1400A0E3 		mov	r0, #20
 435 0360 111F6FE1 		clz	r1, r1
 436 0364 A112A0E1 		lsr	r1, r1, #5
 437 0368 FEFFFFEB 		bl	_test_assert
 438              	.LVL55:
 439 036c 000050E3 		cmp	r0, #0
 440 0370 80FFFF1A 		bne	.L21
 441              		.syntax divided
 442              	@ 156 "..//test/testmbox.c" 1
 443 0374 1FF021E3 		msr     CPSR_c, #0x1F
 444              	@ 0 "" 2
 445              		.loc 1 157 0 discriminator 2
 446              	@ 157 "..//test/testmbox.c" 1
 447 0378 9FF021E3 		msr     CPSR_c, #0x9F
 448              	@ 0 "" 2
 449              		.arm
 450              		.syntax unified
 451 037c 0C1095E5 		ldr	r1, [r5, #12]
 452 0380 083095E5 		ldr	r3, [r5, #8]
 453 0384 1500A0E3 		mov	r0, #21
 454 0388 031041E0 		sub	r1, r1, r3
 455 038c 111F6FE1 		clz	r1, r1
 456 0390 A112A0E1 		lsr	r1, r1, #5
ARM GAS  /var/folders/3j/4xdnk5197cv_b7cw3n33qk7r0000gn/T//ccrHT8cn.s 			page 9


 457 0394 FEFFFFEB 		bl	_test_assert
 458              	.LVL56:
 459 0398 000050E3 		cmp	r0, #0
 460 039c 75FFFF1A 		bne	.L21
 461              		.syntax divided
 462              	@ 157 "..//test/testmbox.c" 1
 463 03a0 1FF021E3 		msr     CPSR_c, #0x1F
 464              	@ 0 "" 2
 465              		.loc 1 162 0 discriminator 2
 466              	@ 162 "..//test/testmbox.c" 1
 467 03a4 9FF021E3 		msr     CPSR_c, #0x9F
 468              	@ 0 "" 2
 469              		.loc 1 163 0 discriminator 2
 470              		.arm
 471              		.syntax unified
 472 03a8 4110A0E3 		mov	r1, #65
 473 03ac E4039FE5 		ldr	r0, .L32
 474 03b0 FEFFFFEB 		bl	chMBPostI
 475              	.LVL57:
 476              		.loc 1 164 0 discriminator 2
 477 03b4 101F6FE1 		clz	r1, r0
 478 03b8 1600A0E3 		mov	r0, #22
 479              	.LVL58:
 480 03bc A112A0E1 		lsr	r1, r1, #5
 481 03c0 FEFFFFEB 		bl	_test_assert
 482              	.LVL59:
 483 03c4 000050E3 		cmp	r0, #0
 484 03c8 30FFFF1A 		bne	.L1
 485              		.loc 1 165 0
 486 03cc 4210A0E3 		mov	r1, #66
 487 03d0 C0039FE5 		ldr	r0, .L32
 488 03d4 FEFFFFEB 		bl	chMBPostI
 489              	.LVL60:
 490              		.loc 1 166 0
 491 03d8 101F6FE1 		clz	r1, r0
 492 03dc 1700A0E3 		mov	r0, #23
 493              	.LVL61:
 494 03e0 A112A0E1 		lsr	r1, r1, #5
 495 03e4 FEFFFFEB 		bl	_test_assert
 496              	.LVL62:
 497 03e8 000050E3 		cmp	r0, #0
 498 03ec 27FFFF1A 		bne	.L1
 499              		.loc 1 167 0
 500 03f0 4310A0E3 		mov	r1, #67
 501 03f4 9C039FE5 		ldr	r0, .L32
 502 03f8 FEFFFFEB 		bl	chMBPostI
 503              	.LVL63:
 504              		.loc 1 168 0
 505 03fc 101F6FE1 		clz	r1, r0
 506 0400 1800A0E3 		mov	r0, #24
 507              	.LVL64:
 508 0404 A112A0E1 		lsr	r1, r1, #5
 509 0408 FEFFFFEB 		bl	_test_assert
 510              	.LVL65:
 511 040c 000050E3 		cmp	r0, #0
 512 0410 1EFFFF1A 		bne	.L1
 513              		.loc 1 169 0
ARM GAS  /var/folders/3j/4xdnk5197cv_b7cw3n33qk7r0000gn/T//ccrHT8cn.s 			page 10


 514 0414 4410A0E3 		mov	r1, #68
 515 0418 78039FE5 		ldr	r0, .L32
 516 041c FEFFFFEB 		bl	chMBPostI
 517              	.LVL66:
 518              		.loc 1 170 0
 519 0420 101F6FE1 		clz	r1, r0
 520 0424 1900A0E3 		mov	r0, #25
 521              	.LVL67:
 522 0428 A112A0E1 		lsr	r1, r1, #5
 523 042c FEFFFFEB 		bl	_test_assert
 524              	.LVL68:
 525 0430 000050E3 		cmp	r0, #0
 526 0434 15FFFF1A 		bne	.L1
 527              		.loc 1 171 0
 528 0438 4510A0E3 		mov	r1, #69
 529 043c 54039FE5 		ldr	r0, .L32
 530 0440 FEFFFFEB 		bl	chMBPostI
 531              	.LVL69:
 532              		.loc 1 172 0
 533              		.syntax divided
 534              	@ 172 "..//test/testmbox.c" 1
 535 0444 1FF021E3 		msr     CPSR_c, #0x1F
 536              	@ 0 "" 2
 537              		.loc 1 173 0
 538              		.arm
 539              		.syntax unified
 540 0448 101F6FE1 		clz	r1, r0
 541 044c 1A00A0E3 		mov	r0, #26
 542              	.LVL70:
 543 0450 A112A0E1 		lsr	r1, r1, #5
 544 0454 FEFFFFEB 		bl	_test_assert
 545              	.LVL71:
 546 0458 000050E3 		cmp	r0, #0
 547 045c 0BFFFF1A 		bne	.L1
 548              		.loc 1 174 0
 549 0460 0C1095E5 		ldr	r1, [r5, #12]
 550 0464 083095E5 		ldr	r3, [r5, #8]
 551 0468 1B00A0E3 		mov	r0, #27
 552 046c 031041E0 		sub	r1, r1, r3
 553 0470 111F6FE1 		clz	r1, r1
 554 0474 A112A0E1 		lsr	r1, r1, #5
 555 0478 FEFFFFEB 		bl	_test_assert
 556              	.LVL72:
 557 047c 000050E3 		cmp	r0, #0
 558 0480 02FFFF1A 		bne	.L1
 559 0484 0540A0E3 		mov	r4, #5
 560              	.LVL73:
 561              		.loc 1 177 0
 562 0488 08639FE5 		ldr	r6, .L32
 563              	.L12:
 564              	.LVL74:
 565              		.loc 1 176 0
 566              		.syntax divided
 567              	@ 176 "..//test/testmbox.c" 1
 568 048c 9FF021E3 		msr     CPSR_c, #0x9F
 569              	@ 0 "" 2
 570              		.loc 1 177 0
ARM GAS  /var/folders/3j/4xdnk5197cv_b7cw3n33qk7r0000gn/T//ccrHT8cn.s 			page 11


 571              		.arm
 572              		.syntax unified
 573 0490 04108DE2 		add	r1, sp, #4
 574 0494 0600A0E1 		mov	r0, r6
 575 0498 FEFFFFEB 		bl	chMBFetchI
 576              	.LVL75:
 577              		.loc 1 178 0
 578              		.syntax divided
 579              	@ 178 "..//test/testmbox.c" 1
 580 049c 1FF021E3 		msr     CPSR_c, #0x1F
 581              	@ 0 "" 2
 582              		.loc 1 179 0
 583              		.arm
 584              		.syntax unified
 585 04a0 101F6FE1 		clz	r1, r0
 586 04a4 1C00A0E3 		mov	r0, #28
 587              	.LVL76:
 588 04a8 A112A0E1 		lsr	r1, r1, #5
 589 04ac FEFFFFEB 		bl	_test_assert
 590              	.LVL77:
 591 04b0 000050E3 		cmp	r0, #0
 592 04b4 F5FEFF1A 		bne	.L1
 593              		.loc 1 180 0 discriminator 2
 594 04b8 0400DDE5 		ldrb	r0, [sp, #4]	@ zero_extendqisi2
 595 04bc FEFFFFEB 		bl	test_emit_token
 596              	.LVL78:
 597              		.loc 1 175 0 discriminator 2
 598 04c0 014054E2 		subs	r4, r4, #1
 599              	.LVL79:
 600 04c4 F0FFFF1A 		bne	.L12
 601              		.loc 1 182 0
 602 04c8 CC129FE5 		ldr	r1, .L32+4
 603 04cc 1D00A0E3 		mov	r0, #29
 604 04d0 FEFFFFEB 		bl	_test_assert_sequence
 605              	.LVL80:
 606 04d4 000050E3 		cmp	r0, #0
 607 04d8 ECFEFF1A 		bne	.L1
 608              		.loc 1 183 0
 609              		.syntax divided
 610              	@ 183 "..//test/testmbox.c" 1
 611 04dc 9FF021E3 		msr     CPSR_c, #0x9F
 612              	@ 0 "" 2
 613              		.arm
 614              		.syntax unified
 615 04e0 241095E5 		ldr	r1, [r5, #36]
 616 04e4 1E00A0E3 		mov	r0, #30
 617 04e8 051041E2 		sub	r1, r1, #5
 618 04ec 111F6FE1 		clz	r1, r1
 619 04f0 A112A0E1 		lsr	r1, r1, #5
 620 04f4 FEFFFFEB 		bl	_test_assert
 621              	.LVL81:
 622 04f8 000050E3 		cmp	r0, #0
 623 04fc 1DFFFF1A 		bne	.L21
 624              		.loc 1 183 0 is_stmt 0 discriminator 2
 625              		.syntax divided
 626              	@ 183 "..//test/testmbox.c" 1
 627 0500 1FF021E3 		msr     CPSR_c, #0x1F
ARM GAS  /var/folders/3j/4xdnk5197cv_b7cw3n33qk7r0000gn/T//ccrHT8cn.s 			page 12


 628              	@ 0 "" 2
 629              		.loc 1 184 0 is_stmt 1 discriminator 2
 630              	@ 184 "..//test/testmbox.c" 1
 631 0504 9FF021E3 		msr     CPSR_c, #0x9F
 632              	@ 0 "" 2
 633              		.arm
 634              		.syntax unified
 635 0508 181095E5 		ldr	r1, [r5, #24]
 636 050c 1F00A0E3 		mov	r0, #31
 637 0510 111F6FE1 		clz	r1, r1
 638 0514 A112A0E1 		lsr	r1, r1, #5
 639 0518 FEFFFFEB 		bl	_test_assert
 640              	.LVL82:
 641 051c 000050E3 		cmp	r0, #0
 642 0520 14FFFF1A 		bne	.L21
 643              		.syntax divided
 644              	@ 184 "..//test/testmbox.c" 1
 645 0524 1FF021E3 		msr     CPSR_c, #0x1F
 646              	@ 0 "" 2
 647              		.loc 1 185 0 discriminator 2
 648              		.arm
 649              		.syntax unified
 650 0528 0C1095E5 		ldr	r1, [r5, #12]
 651 052c 083095E5 		ldr	r3, [r5, #8]
 652 0530 2000A0E3 		mov	r0, #32
 653 0534 031041E0 		sub	r1, r1, r3
 654 0538 111F6FE1 		clz	r1, r1
 655 053c A112A0E1 		lsr	r1, r1, #5
 656 0540 FEFFFFEB 		bl	_test_assert
 657              	.LVL83:
 658 0544 000050E3 		cmp	r0, #0
 659 0548 D0FEFF1A 		bne	.L1
 660              		.loc 1 187 0
 661              		.syntax divided
 662              	@ 187 "..//test/testmbox.c" 1
 663 054c 9FF021E3 		msr     CPSR_c, #0x9F
 664              	@ 0 "" 2
 665              		.loc 1 188 0
 666              		.arm
 667              		.syntax unified
 668 0550 4510A0E3 		mov	r1, #69
 669 0554 3C029FE5 		ldr	r0, .L32
 670 0558 FEFFFFEB 		bl	chMBPostAheadI
 671              	.LVL84:
 672              		.loc 1 189 0
 673 055c 101F6FE1 		clz	r1, r0
 674 0560 2100A0E3 		mov	r0, #33
 675              	.LVL85:
 676 0564 A112A0E1 		lsr	r1, r1, #5
 677 0568 FEFFFFEB 		bl	_test_assert
 678              	.LVL86:
 679 056c 000050E3 		cmp	r0, #0
 680 0570 C6FEFF1A 		bne	.L1
 681              		.loc 1 190 0
 682 0574 4410A0E3 		mov	r1, #68
 683 0578 18029FE5 		ldr	r0, .L32
 684 057c FEFFFFEB 		bl	chMBPostAheadI
ARM GAS  /var/folders/3j/4xdnk5197cv_b7cw3n33qk7r0000gn/T//ccrHT8cn.s 			page 13


 685              	.LVL87:
 686              		.loc 1 191 0
 687 0580 101F6FE1 		clz	r1, r0
 688 0584 2200A0E3 		mov	r0, #34
 689              	.LVL88:
 690 0588 A112A0E1 		lsr	r1, r1, #5
 691 058c FEFFFFEB 		bl	_test_assert
 692              	.LVL89:
 693 0590 000050E3 		cmp	r0, #0
 694 0594 BDFEFF1A 		bne	.L1
 695              		.loc 1 192 0
 696 0598 4310A0E3 		mov	r1, #67
 697 059c F4019FE5 		ldr	r0, .L32
 698 05a0 FEFFFFEB 		bl	chMBPostAheadI
 699              	.LVL90:
 700              		.loc 1 193 0
 701 05a4 101F6FE1 		clz	r1, r0
 702 05a8 2300A0E3 		mov	r0, #35
 703              	.LVL91:
 704 05ac A112A0E1 		lsr	r1, r1, #5
 705 05b0 FEFFFFEB 		bl	_test_assert
 706              	.LVL92:
 707 05b4 000050E3 		cmp	r0, #0
 708 05b8 B4FEFF1A 		bne	.L1
 709              		.loc 1 194 0
 710 05bc 4210A0E3 		mov	r1, #66
 711 05c0 D0019FE5 		ldr	r0, .L32
 712 05c4 FEFFFFEB 		bl	chMBPostAheadI
 713              	.LVL93:
 714              		.loc 1 195 0
 715 05c8 101F6FE1 		clz	r1, r0
 716 05cc 2400A0E3 		mov	r0, #36
 717              	.LVL94:
 718 05d0 A112A0E1 		lsr	r1, r1, #5
 719 05d4 FEFFFFEB 		bl	_test_assert
 720              	.LVL95:
 721 05d8 000050E3 		cmp	r0, #0
 722 05dc ABFEFF1A 		bne	.L1
 723              		.loc 1 196 0
 724 05e0 4110A0E3 		mov	r1, #65
 725 05e4 AC019FE5 		ldr	r0, .L32
 726 05e8 FEFFFFEB 		bl	chMBPostAheadI
 727              	.LVL96:
 728              		.loc 1 197 0
 729              		.syntax divided
 730              	@ 197 "..//test/testmbox.c" 1
 731 05ec 1FF021E3 		msr     CPSR_c, #0x1F
 732              	@ 0 "" 2
 733              		.loc 1 198 0
 734              		.arm
 735              		.syntax unified
 736 05f0 101F6FE1 		clz	r1, r0
 737 05f4 2500A0E3 		mov	r0, #37
 738              	.LVL97:
 739 05f8 A112A0E1 		lsr	r1, r1, #5
 740 05fc FEFFFFEB 		bl	_test_assert
 741              	.LVL98:
ARM GAS  /var/folders/3j/4xdnk5197cv_b7cw3n33qk7r0000gn/T//ccrHT8cn.s 			page 14


 742 0600 000050E3 		cmp	r0, #0
 743 0604 A1FEFF1A 		bne	.L1
 744              		.loc 1 199 0
 745 0608 0C1095E5 		ldr	r1, [r5, #12]
 746 060c 083095E5 		ldr	r3, [r5, #8]
 747 0610 2600A0E3 		mov	r0, #38
 748 0614 031041E0 		sub	r1, r1, r3
 749 0618 111F6FE1 		clz	r1, r1
 750 061c A112A0E1 		lsr	r1, r1, #5
 751 0620 FEFFFFEB 		bl	_test_assert
 752              	.LVL99:
 753 0624 000050E3 		cmp	r0, #0
 754 0628 98FEFF1A 		bne	.L1
 755 062c 0540A0E3 		mov	r4, #5
 756              	.LVL100:
 757              		.loc 1 202 0
 758 0630 60619FE5 		ldr	r6, .L32
 759              	.L15:
 760              	.LVL101:
 761              		.loc 1 201 0
 762              		.syntax divided
 763              	@ 201 "..//test/testmbox.c" 1
 764 0634 9FF021E3 		msr     CPSR_c, #0x9F
 765              	@ 0 "" 2
 766              		.loc 1 202 0
 767              		.arm
 768              		.syntax unified
 769 0638 04108DE2 		add	r1, sp, #4
 770 063c 0600A0E1 		mov	r0, r6
 771 0640 FEFFFFEB 		bl	chMBFetchI
 772              	.LVL102:
 773              		.loc 1 203 0
 774              		.syntax divided
 775              	@ 203 "..//test/testmbox.c" 1
 776 0644 1FF021E3 		msr     CPSR_c, #0x1F
 777              	@ 0 "" 2
 778              		.loc 1 204 0
 779              		.arm
 780              		.syntax unified
 781 0648 101F6FE1 		clz	r1, r0
 782 064c 2700A0E3 		mov	r0, #39
 783              	.LVL103:
 784 0650 A112A0E1 		lsr	r1, r1, #5
 785 0654 FEFFFFEB 		bl	_test_assert
 786              	.LVL104:
 787 0658 000050E3 		cmp	r0, #0
 788 065c 8BFEFF1A 		bne	.L1
 789              		.loc 1 205 0 discriminator 2
 790 0660 0400DDE5 		ldrb	r0, [sp, #4]	@ zero_extendqisi2
 791 0664 FEFFFFEB 		bl	test_emit_token
 792              	.LVL105:
 793              		.loc 1 200 0 discriminator 2
 794 0668 014054E2 		subs	r4, r4, #1
 795              	.LVL106:
 796 066c F0FFFF1A 		bne	.L15
 797              		.loc 1 207 0
 798 0670 24119FE5 		ldr	r1, .L32+4
ARM GAS  /var/folders/3j/4xdnk5197cv_b7cw3n33qk7r0000gn/T//ccrHT8cn.s 			page 15


 799 0674 2800A0E3 		mov	r0, #40
 800 0678 FEFFFFEB 		bl	_test_assert_sequence
 801              	.LVL107:
 802 067c 000050E3 		cmp	r0, #0
 803 0680 82FEFF1A 		bne	.L1
 804              		.loc 1 208 0
 805              		.syntax divided
 806              	@ 208 "..//test/testmbox.c" 1
 807 0684 9FF021E3 		msr     CPSR_c, #0x9F
 808              	@ 0 "" 2
 809              		.arm
 810              		.syntax unified
 811 0688 241095E5 		ldr	r1, [r5, #36]
 812 068c 2900A0E3 		mov	r0, #41
 813 0690 051041E2 		sub	r1, r1, #5
 814 0694 111F6FE1 		clz	r1, r1
 815 0698 A112A0E1 		lsr	r1, r1, #5
 816 069c FEFFFFEB 		bl	_test_assert
 817              	.LVL108:
 818 06a0 000050E3 		cmp	r0, #0
 819 06a4 B3FEFF1A 		bne	.L21
 820              		.loc 1 208 0 is_stmt 0 discriminator 2
 821              		.syntax divided
 822              	@ 208 "..//test/testmbox.c" 1
 823 06a8 1FF021E3 		msr     CPSR_c, #0x1F
 824              	@ 0 "" 2
 825              		.loc 1 209 0 is_stmt 1 discriminator 2
 826              	@ 209 "..//test/testmbox.c" 1
 827 06ac 9FF021E3 		msr     CPSR_c, #0x9F
 828              	@ 0 "" 2
 829              		.arm
 830              		.syntax unified
 831 06b0 181095E5 		ldr	r1, [r5, #24]
 832 06b4 2A00A0E3 		mov	r0, #42
 833 06b8 111F6FE1 		clz	r1, r1
 834 06bc A112A0E1 		lsr	r1, r1, #5
 835 06c0 FEFFFFEB 		bl	_test_assert
 836              	.LVL109:
 837 06c4 000050E3 		cmp	r0, #0
 838 06c8 AAFEFF1A 		bne	.L21
 839              		.syntax divided
 840              	@ 209 "..//test/testmbox.c" 1
 841 06cc 1FF021E3 		msr     CPSR_c, #0x1F
 842              	@ 0 "" 2
 843              		.loc 1 210 0 discriminator 2
 844              		.arm
 845              		.syntax unified
 846 06d0 0C1095E5 		ldr	r1, [r5, #12]
 847 06d4 083095E5 		ldr	r3, [r5, #8]
 848 06d8 2B00A0E3 		mov	r0, #43
 849 06dc 031041E0 		sub	r1, r1, r3
 850 06e0 111F6FE1 		clz	r1, r1
 851 06e4 A112A0E1 		lsr	r1, r1, #5
 852 06e8 FEFFFFEB 		bl	_test_assert
 853              	.LVL110:
 854 06ec 000050E3 		cmp	r0, #0
 855 06f0 66FEFF1A 		bne	.L1
ARM GAS  /var/folders/3j/4xdnk5197cv_b7cw3n33qk7r0000gn/T//ccrHT8cn.s 			page 16


 856              		.loc 1 215 0
 857 06f4 9C009FE5 		ldr	r0, .L32
 858 06f8 FEFFFFEB 		bl	chMBReset
 859              	.LVL111:
 860              		.loc 1 220 0
 861              		.syntax divided
 862              	@ 220 "..//test/testmbox.c" 1
 863 06fc 9FF021E3 		msr     CPSR_c, #0x9F
 864              	@ 0 "" 2
 865              		.arm
 866              		.syntax unified
 867 0700 241095E5 		ldr	r1, [r5, #36]
 868 0704 2C00A0E3 		mov	r0, #44
 869 0708 051041E2 		sub	r1, r1, #5
 870 070c 111F6FE1 		clz	r1, r1
 871 0710 A112A0E1 		lsr	r1, r1, #5
 872 0714 FEFFFFEB 		bl	_test_assert
 873              	.LVL112:
 874 0718 000050E3 		cmp	r0, #0
 875 071c 95FEFF1A 		bne	.L21
 876              		.loc 1 220 0 is_stmt 0 discriminator 2
 877              		.syntax divided
 878              	@ 220 "..//test/testmbox.c" 1
 879 0720 1FF021E3 		msr     CPSR_c, #0x1F
 880              	@ 0 "" 2
 881              		.loc 1 221 0 is_stmt 1 discriminator 2
 882              	@ 221 "..//test/testmbox.c" 1
 883 0724 9FF021E3 		msr     CPSR_c, #0x9F
 884              	@ 0 "" 2
 885              		.arm
 886              		.syntax unified
 887 0728 181095E5 		ldr	r1, [r5, #24]
 888 072c 2D00A0E3 		mov	r0, #45
 889 0730 111F6FE1 		clz	r1, r1
 890 0734 A112A0E1 		lsr	r1, r1, #5
 891 0738 FEFFFFEB 		bl	_test_assert
 892              	.LVL113:
 893 073c 000050E3 		cmp	r0, #0
 894 0740 8CFEFF1A 		bne	.L21
 895              		.syntax divided
 896              	@ 221 "..//test/testmbox.c" 1
 897 0744 1FF021E3 		msr     CPSR_c, #0x1F
 898              	@ 0 "" 2
 899              		.loc 1 222 0 discriminator 2
 900              	@ 222 "..//test/testmbox.c" 1
 901 0748 9FF021E3 		msr     CPSR_c, #0x9F
 902              	@ 0 "" 2
 903              		.arm
 904              		.syntax unified
 905 074c 001095E5 		ldr	r1, [r5]
 906 0750 083095E5 		ldr	r3, [r5, #8]
 907 0754 2E00A0E3 		mov	r0, #46
 908 0758 031041E0 		sub	r1, r1, r3
 909 075c 111F6FE1 		clz	r1, r1
 910 0760 A112A0E1 		lsr	r1, r1, #5
 911 0764 FEFFFFEB 		bl	_test_assert
 912              	.LVL114:
ARM GAS  /var/folders/3j/4xdnk5197cv_b7cw3n33qk7r0000gn/T//ccrHT8cn.s 			page 17


 913 0768 000050E3 		cmp	r0, #0
 914 076c 81FEFF1A 		bne	.L21
 915              		.syntax divided
 916              	@ 222 "..//test/testmbox.c" 1
 917 0770 1FF021E3 		msr     CPSR_c, #0x1F
 918              	@ 0 "" 2
 919              		.loc 1 223 0 discriminator 2
 920              	@ 223 "..//test/testmbox.c" 1
 921 0774 9FF021E3 		msr     CPSR_c, #0x9F
 922              	@ 0 "" 2
 923              		.arm
 924              		.syntax unified
 925 0778 001095E5 		ldr	r1, [r5]
 926 077c 0C3095E5 		ldr	r3, [r5, #12]
 927 0780 2F00A0E3 		mov	r0, #47
 928 0784 031041E0 		sub	r1, r1, r3
 929 0788 111F6FE1 		clz	r1, r1
 930 078c A112A0E1 		lsr	r1, r1, #5
 931 0790 FEFFFFEB 		bl	_test_assert
 932              	.LVL115:
 933 0794 77FEFFEA 		b	.L21
 934              	.L33:
 935              		.align	2
 936              	.L32:
 937 0798 00000000 		.word	.LANCHOR0
 938 079c 00000000 		.word	.LC0
 939              		.cfi_endproc
 940              	.LFE8:
 941              		.size	mbox1_execute, .-mbox1_execute
 942              		.section	.text.mbox1_setup,"ax",%progbits
 943              		.align	2
 944              		.syntax unified
 945              		.arm
 946              		.fpu softvfp
 947              		.type	mbox1_setup, %function
 948              	mbox1_setup:
 949              	.LFB7:
 950              		.loc 1 75 0
 951              		.cfi_startproc
 952              		@ args = 0, pretend = 0, frame = 0
 953              		@ frame_needed = 0, uses_anonymous_args = 0
 954              		@ link register save eliminated.
 955              		.loc 1 77 0
 956 0000 0520A0E3 		mov	r2, #5
 957 0004 04109FE5 		ldr	r1, .L35
 958 0008 04009FE5 		ldr	r0, .L35+4
 959 000c FEFFFFEA 		b	chMBInit
 960              	.LVL116:
 961              	.L36:
 962              		.align	2
 963              	.L35:
 964 0010 00000000 		.word	test
 965 0014 00000000 		.word	.LANCHOR0
 966              		.cfi_endproc
 967              	.LFE7:
 968              		.size	mbox1_setup, .-mbox1_setup
 969              		.global	patternmbox
ARM GAS  /var/folders/3j/4xdnk5197cv_b7cw3n33qk7r0000gn/T//ccrHT8cn.s 			page 18


 970              		.global	testmbox1
 971              		.section	.data.mb1,"aw",%progbits
 972              		.align	2
 973              		.set	.LANCHOR0,. + 0
 974              		.type	mb1, %object
 975              		.size	mb1, 40
 976              	mb1:
 977 0000 00000000 		.word	test
 978 0004 14000000 		.word	test+20
 979 0008 00000000 		.word	test
 980 000c 00000000 		.word	test
 981 0010 10000000 		.word	mb1+16
 982 0014 10000000 		.word	mb1+16
 983 0018 00000000 		.word	0
 984 001c 1C000000 		.word	mb1+28
 985 0020 1C000000 		.word	mb1+28
 986 0024 05000000 		.word	5
 987              		.section	.rodata.mbox1_execute.str1.4,"aMS",%progbits,1
 988              		.align	2
 989              	.LC0:
 990 0000 41424344 		.ascii	"ABCDE\000"
 990      4500
 991              		.section	.rodata.patternmbox,"a",%progbits
 992              		.align	2
 993              		.type	patternmbox, %object
 994              		.size	patternmbox, 8
 995              	patternmbox:
 996 0000 00000000 		.word	testmbox1
 997 0004 00000000 		.word	0
 998              		.section	.rodata.str1.4,"aMS",%progbits,1
 999              		.align	2
 1000              	.LC1:
 1001 0000 4D61696C 		.ascii	"Mailboxes, queuing and timeouts\000"
 1001      626F7865 
 1001      732C2071 
 1001      75657569 
 1001      6E672061 
 1002              		.section	.rodata.testmbox1,"a",%progbits
 1003              		.align	2
 1004              		.type	testmbox1, %object
 1005              		.size	testmbox1, 16
 1006              	testmbox1:
 1007 0000 00000000 		.word	.LC1
 1008 0004 00000000 		.word	mbox1_setup
 1009 0008 00000000 		.word	0
 1010 000c 00000000 		.word	mbox1_execute
 1011              		.text
 1012              	.Letext0:
 1013              		.file 2 "/usr/local/Cellar/gcc-arm-none-eabi/20180627/arm-none-eabi/include/machine/_default_types
 1014              		.file 3 "/usr/local/Cellar/gcc-arm-none-eabi/20180627/arm-none-eabi/include/sys/_stdint.h"
 1015              		.file 4 "..//os/ports/GCC/ARM/chtypes.h"
 1016              		.file 5 "..//os/kernel/include/chlists.h"
 1017              		.file 6 "..//os/kernel/include/chthreads.h"
 1018              		.file 7 "..//os/ports/GCC/ARM/chcore.h"
 1019              		.file 8 "..//os/kernel/include/chvt.h"
 1020              		.file 9 "..//os/kernel/include/chschd.h"
 1021              		.file 10 "..//os/kernel/include/chsem.h"
ARM GAS  /var/folders/3j/4xdnk5197cv_b7cw3n33qk7r0000gn/T//ccrHT8cn.s 			page 19


 1022              		.file 11 "..//os/kernel/include/chmtx.h"
 1023              		.file 12 "..//os/kernel/include/chmboxes.h"
 1024              		.file 13 "..//os/kernel/include/chregistry.h"
 1025              		.file 14 "..//os/kernel/include/ch.h"
 1026              		.file 15 "..//test/test.h"