ARM GAS  /var/folders/3j/4xdnk5197cv_b7cw3n33qk7r0000gn/T//cc62GWZk.s 			page 1


   1              		.cpu arm1176jz-s
   2              		.eabi_attribute 20, 1
   3              		.eabi_attribute 21, 1
   4              		.eabi_attribute 23, 3
   5              		.eabi_attribute 24, 1
   6              		.eabi_attribute 25, 1
   7              		.eabi_attribute 26, 1
   8              		.eabi_attribute 30, 2
   9              		.eabi_attribute 34, 1
  10              		.eabi_attribute 18, 4
  11              		.file	"testthd.c"
  12              		.text
  13              	.Ltext0:
  14              		.cfi_sections	.debug_frame
  15              		.section	.text.thd1_execute,"ax",%progbits
  16              		.align	2
  17              		.syntax unified
  18              		.arm
  19              		.fpu softvfp
  20              		.type	thd1_execute, %function
  21              	thd1_execute:
  22              	.LFB8:
  23              		.file 1 "..//test/testthd.c"
  24              		.loc 1 70 0
  25              		.cfi_startproc
  26              		@ args = 0, pretend = 0, frame = 0
  27              		@ frame_needed = 0, uses_anonymous_args = 0
  28 0000 F0402DE9 		push	{r4, r5, r6, r7, lr}
  29              		.cfi_def_cfa_offset 20
  30              		.cfi_offset 4, -20
  31              		.cfi_offset 5, -16
  32              		.cfi_offset 6, -12
  33              		.cfi_offset 7, -8
  34              		.cfi_offset 14, -4
  35              		.loc 1 72 0
  36 0004 FC709FE5 		ldr	r7, .L4
  37 0008 FC609FE5 		ldr	r6, .L4+4
  38 000c 183097E5 		ldr	r3, [r7, #24]
  39 0010 F8509FE5 		ldr	r5, .L4+8
  40 0014 082093E5 		ldr	r2, [r3, #8]
  41 0018 F4109FE5 		ldr	r1, .L4+12
  42              		.loc 1 70 0
  43 001c 0CD04DE2 		sub	sp, sp, #12
  44              		.cfi_def_cfa_offset 32
  45              		.loc 1 72 0
  46 0020 0530A0E1 		mov	r3, r5
  47 0024 00108DE5 		str	r1, [sp]
  48 0028 000096E5 		ldr	r0, [r6]
  49 002c 052042E2 		sub	r2, r2, #5
  50 0030 461FA0E3 		mov	r1, #280
  51 0034 FEFFFFEB 		bl	chThdCreateStatic
  52              	.LVL0:
  53              		.loc 1 73 0
  54 0038 183097E5 		ldr	r3, [r7, #24]
  55              		.loc 1 72 0
  56 003c D4409FE5 		ldr	r4, .L4+16
  57              		.loc 1 73 0
ARM GAS  /var/folders/3j/4xdnk5197cv_b7cw3n33qk7r0000gn/T//cc62GWZk.s 			page 2


  58 0040 082093E5 		ldr	r2, [r3, #8]
  59 0044 D0109FE5 		ldr	r1, .L4+20
  60 0048 043096E5 		ldr	r3, [r6, #4]
  61              		.loc 1 72 0
  62 004c 000084E5 		str	r0, [r4]
  63              		.loc 1 73 0
  64 0050 00108DE5 		str	r1, [sp]
  65 0054 042042E2 		sub	r2, r2, #4
  66 0058 0300A0E1 		mov	r0, r3
  67 005c 461FA0E3 		mov	r1, #280
  68 0060 0530A0E1 		mov	r3, r5
  69 0064 FEFFFFEB 		bl	chThdCreateStatic
  70              	.LVL1:
  71              		.loc 1 74 0
  72 0068 182097E5 		ldr	r2, [r7, #24]
  73 006c 083096E5 		ldr	r3, [r6, #8]
  74 0070 082092E5 		ldr	r2, [r2, #8]
  75 0074 A4109FE5 		ldr	r1, .L4+24
  76              		.loc 1 73 0
  77 0078 040084E5 		str	r0, [r4, #4]
  78              		.loc 1 74 0
  79 007c 00108DE5 		str	r1, [sp]
  80 0080 032042E2 		sub	r2, r2, #3
  81 0084 0300A0E1 		mov	r0, r3
  82 0088 461FA0E3 		mov	r1, #280
  83 008c 0530A0E1 		mov	r3, r5
  84 0090 FEFFFFEB 		bl	chThdCreateStatic
  85              	.LVL2:
  86              		.loc 1 75 0
  87 0094 182097E5 		ldr	r2, [r7, #24]
  88 0098 0C3096E5 		ldr	r3, [r6, #12]
  89 009c 082092E5 		ldr	r2, [r2, #8]
  90 00a0 7C109FE5 		ldr	r1, .L4+28
  91              		.loc 1 74 0
  92 00a4 080084E5 		str	r0, [r4, #8]
  93              		.loc 1 75 0
  94 00a8 00108DE5 		str	r1, [sp]
  95 00ac 022042E2 		sub	r2, r2, #2
  96 00b0 0300A0E1 		mov	r0, r3
  97 00b4 461FA0E3 		mov	r1, #280
  98 00b8 0530A0E1 		mov	r3, r5
  99 00bc FEFFFFEB 		bl	chThdCreateStatic
 100              	.LVL3:
 101              		.loc 1 76 0
 102 00c0 182097E5 		ldr	r2, [r7, #24]
 103 00c4 103096E5 		ldr	r3, [r6, #16]
 104 00c8 082092E5 		ldr	r2, [r2, #8]
 105 00cc 54109FE5 		ldr	r1, .L4+32
 106              		.loc 1 75 0
 107 00d0 0C0084E5 		str	r0, [r4, #12]
 108              		.loc 1 76 0
 109 00d4 012042E2 		sub	r2, r2, #1
 110 00d8 00108DE5 		str	r1, [sp]
 111 00dc 0300A0E1 		mov	r0, r3
 112 00e0 461FA0E3 		mov	r1, #280
 113 00e4 0530A0E1 		mov	r3, r5
 114 00e8 FEFFFFEB 		bl	chThdCreateStatic
ARM GAS  /var/folders/3j/4xdnk5197cv_b7cw3n33qk7r0000gn/T//cc62GWZk.s 			page 3


 115              	.LVL4:
 116 00ec 100084E5 		str	r0, [r4, #16]
 117              		.loc 1 77 0
 118 00f0 FEFFFFEB 		bl	test_wait_threads
 119              	.LVL5:
 120              		.loc 1 78 0
 121 00f4 0100A0E3 		mov	r0, #1
 122 00f8 2C109FE5 		ldr	r1, .L4+36
 123              		.loc 1 79 0
 124 00fc 0CD08DE2 		add	sp, sp, #12
 125              		.cfi_def_cfa_offset 20
 126              		@ sp needed
 127 0100 F040BDE8 		pop	{r4, r5, r6, r7, lr}
 128              		.cfi_restore 14
 129              		.cfi_restore 7
 130              		.cfi_restore 6
 131              		.cfi_restore 5
 132              		.cfi_restore 4
 133              		.cfi_def_cfa_offset 0
 134              		.loc 1 78 0
 135 0104 FEFFFFEA 		b	_test_assert_sequence
 136              	.LVL6:
 137              	.L5:
 138              		.align	2
 139              	.L4:
 140 0108 00000000 		.word	rlist
 141 010c 00000000 		.word	wa
 142 0110 00000000 		.word	thread
 143 0114 00000000 		.word	.LC0
 144 0118 00000000 		.word	threads
 145 011c 04000000 		.word	.LC1
 146 0120 08000000 		.word	.LC2
 147 0124 0C000000 		.word	.LC3
 148 0128 10000000 		.word	.LC4
 149 012c 14000000 		.word	.LC5
 150              		.cfi_endproc
 151              	.LFE8:
 152              		.size	thd1_execute, .-thd1_execute
 153              		.section	.text.thread,"ax",%progbits
 154              		.align	2
 155              		.syntax unified
 156              		.arm
 157              		.fpu softvfp
 158              		.type	thread, %function
 159              	thread:
 160              	.LFB7:
 161              		.loc 1 64 0
 162              		.cfi_startproc
 163              		@ args = 0, pretend = 0, frame = 0
 164              		@ frame_needed = 0, uses_anonymous_args = 0
 165              	.LVL7:
 166 0000 10402DE9 		push	{r4, lr}
 167              		.cfi_def_cfa_offset 8
 168              		.cfi_offset 4, -8
 169              		.cfi_offset 14, -4
 170              		.loc 1 66 0
 171 0004 0000D0E5 		ldrb	r0, [r0]	@ zero_extendqisi2
ARM GAS  /var/folders/3j/4xdnk5197cv_b7cw3n33qk7r0000gn/T//cc62GWZk.s 			page 4


 172              	.LVL8:
 173 0008 FEFFFFEB 		bl	test_emit_token
 174              	.LVL9:
 175              		.loc 1 68 0
 176 000c 0000A0E3 		mov	r0, #0
 177 0010 1080BDE8 		pop	{r4, pc}
 178              		.cfi_endproc
 179              	.LFE7:
 180              		.size	thread, .-thread
 181              		.section	.text.thd2_execute,"ax",%progbits
 182              		.align	2
 183              		.syntax unified
 184              		.arm
 185              		.fpu softvfp
 186              		.type	thd2_execute, %function
 187              	thd2_execute:
 188              	.LFB9:
 189              		.loc 1 98 0
 190              		.cfi_startproc
 191              		@ args = 0, pretend = 0, frame = 0
 192              		@ frame_needed = 0, uses_anonymous_args = 0
 193 0000 F0402DE9 		push	{r4, r5, r6, r7, lr}
 194              		.cfi_def_cfa_offset 20
 195              		.cfi_offset 4, -20
 196              		.cfi_offset 5, -16
 197              		.cfi_offset 6, -12
 198              		.cfi_offset 7, -8
 199              		.cfi_offset 14, -4
 200              		.loc 1 100 0
 201 0004 08719FE5 		ldr	r7, .L10
 202 0008 08619FE5 		ldr	r6, .L10+4
 203 000c 183097E5 		ldr	r3, [r7, #24]
 204 0010 04519FE5 		ldr	r5, .L10+8
 205 0014 082093E5 		ldr	r2, [r3, #8]
 206 0018 00119FE5 		ldr	r1, .L10+12
 207              		.loc 1 98 0
 208 001c 0CD04DE2 		sub	sp, sp, #12
 209              		.cfi_def_cfa_offset 32
 210              		.loc 1 100 0
 211 0020 0530A0E1 		mov	r3, r5
 212 0024 00108DE5 		str	r1, [sp]
 213 0028 040096E5 		ldr	r0, [r6, #4]
 214 002c 042042E2 		sub	r2, r2, #4
 215 0030 461FA0E3 		mov	r1, #280
 216 0034 FEFFFFEB 		bl	chThdCreateStatic
 217              	.LVL10:
 218              		.loc 1 101 0
 219 0038 183097E5 		ldr	r3, [r7, #24]
 220              		.loc 1 100 0
 221 003c E0409FE5 		ldr	r4, .L10+16
 222              		.loc 1 101 0
 223 0040 082093E5 		ldr	r2, [r3, #8]
 224 0044 DC109FE5 		ldr	r1, .L10+20
 225 0048 003096E5 		ldr	r3, [r6]
 226              		.loc 1 100 0
 227 004c 040084E5 		str	r0, [r4, #4]
 228              		.loc 1 101 0
ARM GAS  /var/folders/3j/4xdnk5197cv_b7cw3n33qk7r0000gn/T//cc62GWZk.s 			page 5


 229 0050 00108DE5 		str	r1, [sp]
 230 0054 052042E2 		sub	r2, r2, #5
 231 0058 0300A0E1 		mov	r0, r3
 232 005c 461FA0E3 		mov	r1, #280
 233 0060 0530A0E1 		mov	r3, r5
 234 0064 FEFFFFEB 		bl	chThdCreateStatic
 235              	.LVL11:
 236              		.loc 1 102 0
 237 0068 182097E5 		ldr	r2, [r7, #24]
 238 006c 103096E5 		ldr	r3, [r6, #16]
 239 0070 082092E5 		ldr	r2, [r2, #8]
 240 0074 B0109FE5 		ldr	r1, .L10+24
 241              		.loc 1 101 0
 242 0078 000084E5 		str	r0, [r4]
 243              		.loc 1 102 0
 244 007c 00108DE5 		str	r1, [sp]
 245 0080 012042E2 		sub	r2, r2, #1
 246 0084 0300A0E1 		mov	r0, r3
 247 0088 461FA0E3 		mov	r1, #280
 248 008c 0530A0E1 		mov	r3, r5
 249 0090 FEFFFFEB 		bl	chThdCreateStatic
 250              	.LVL12:
 251              		.loc 1 103 0
 252 0094 182097E5 		ldr	r2, [r7, #24]
 253 0098 0C3096E5 		ldr	r3, [r6, #12]
 254 009c 082092E5 		ldr	r2, [r2, #8]
 255 00a0 88109FE5 		ldr	r1, .L10+28
 256              		.loc 1 102 0
 257 00a4 100084E5 		str	r0, [r4, #16]
 258              		.loc 1 103 0
 259 00a8 00108DE5 		str	r1, [sp]
 260 00ac 022042E2 		sub	r2, r2, #2
 261 00b0 0300A0E1 		mov	r0, r3
 262 00b4 461FA0E3 		mov	r1, #280
 263 00b8 0530A0E1 		mov	r3, r5
 264 00bc FEFFFFEB 		bl	chThdCreateStatic
 265              	.LVL13:
 266 00c0 0C0084E5 		str	r0, [r4, #12]
 267              		.loc 1 105 0
 268              		.syntax divided
 269              	@ 105 "..//test/testthd.c" 1
 270 00c4 9FF021E3 		msr     CPSR_c, #0x9F
 271              	@ 0 "" 2
 272              		.loc 1 106 0
 273              		.arm
 274              		.syntax unified
 275 00c8 183097E5 		ldr	r3, [r7, #24]
 276 00cc 60109FE5 		ldr	r1, .L10+32
 277 00d0 082093E5 		ldr	r2, [r3, #8]
 278 00d4 080096E5 		ldr	r0, [r6, #8]
 279 00d8 00108DE5 		str	r1, [sp]
 280 00dc 032042E2 		sub	r2, r2, #3
 281 00e0 0530A0E1 		mov	r3, r5
 282 00e4 461FA0E3 		mov	r1, #280
 283 00e8 FEFFFFEB 		bl	chThdCreateI
 284              	.LVL14:
 285 00ec 080084E5 		str	r0, [r4, #8]
ARM GAS  /var/folders/3j/4xdnk5197cv_b7cw3n33qk7r0000gn/T//cc62GWZk.s 			page 6


 286              		.loc 1 107 0
 287              		.syntax divided
 288              	@ 107 "..//test/testthd.c" 1
 289 00f0 1FF021E3 		msr     CPSR_c, #0x1F
 290              	@ 0 "" 2
 291              		.loc 1 108 0
 292              		.arm
 293              		.syntax unified
 294 00f4 080094E5 		ldr	r0, [r4, #8]
 295 00f8 FEFFFFEB 		bl	chThdResume
 296              	.LVL15:
 297              		.loc 1 109 0
 298 00fc FEFFFFEB 		bl	test_wait_threads
 299              	.LVL16:
 300              		.loc 1 110 0
 301 0100 0100A0E3 		mov	r0, #1
 302 0104 2C109FE5 		ldr	r1, .L10+36
 303              		.loc 1 111 0
 304 0108 0CD08DE2 		add	sp, sp, #12
 305              		.cfi_def_cfa_offset 20
 306              		@ sp needed
 307 010c F040BDE8 		pop	{r4, r5, r6, r7, lr}
 308              		.cfi_restore 14
 309              		.cfi_restore 7
 310              		.cfi_restore 6
 311              		.cfi_restore 5
 312              		.cfi_restore 4
 313              		.cfi_def_cfa_offset 0
 314              		.loc 1 110 0
 315 0110 FEFFFFEA 		b	_test_assert_sequence
 316              	.LVL17:
 317              	.L11:
 318              		.align	2
 319              	.L10:
 320 0114 00000000 		.word	rlist
 321 0118 00000000 		.word	wa
 322 011c 00000000 		.word	thread
 323 0120 04000000 		.word	.LC1
 324 0124 00000000 		.word	threads
 325 0128 00000000 		.word	.LC0
 326 012c 10000000 		.word	.LC4
 327 0130 0C000000 		.word	.LC3
 328 0134 08000000 		.word	.LC2
 329 0138 14000000 		.word	.LC5
 330              		.cfi_endproc
 331              	.LFE9:
 332              		.size	thd2_execute, .-thd2_execute
 333              		.section	.text.thd3_execute,"ax",%progbits
 334              		.align	2
 335              		.syntax unified
 336              		.arm
 337              		.fpu softvfp
 338              		.type	thd3_execute, %function
 339              	thd3_execute:
 340              	.LFB10:
 341              		.loc 1 130 0
 342              		.cfi_startproc
ARM GAS  /var/folders/3j/4xdnk5197cv_b7cw3n33qk7r0000gn/T//cc62GWZk.s 			page 7


 343              		@ args = 0, pretend = 0, frame = 0
 344              		@ frame_needed = 0, uses_anonymous_args = 0
 345 0000 F0412DE9 		push	{r4, r5, r6, r7, r8, lr}
 346              		.cfi_def_cfa_offset 24
 347              		.cfi_offset 4, -24
 348              		.cfi_offset 5, -20
 349              		.cfi_offset 6, -16
 350              		.cfi_offset 7, -12
 351              		.cfi_offset 8, -8
 352              		.cfi_offset 14, -4
 353              		.loc 1 133 0
 354 0004 D0619FE5 		ldr	r6, .L17
 355 0008 183096E5 		ldr	r3, [r6, #24]
 356 000c 084093E5 		ldr	r4, [r3, #8]
 357              	.LVL18:
 358              		.loc 1 134 0
 359 0010 015084E2 		add	r5, r4, #1
 360 0014 0500A0E1 		mov	r0, r5
 361 0018 FEFFFFEB 		bl	chThdSetPriority
 362              	.LVL19:
 363 001c 0070A0E1 		mov	r7, r0
 364              	.LVL20:
 365              		.loc 1 135 0
 366 0020 071044E0 		sub	r1, r4, r7
 367 0024 111F6FE1 		clz	r1, r1
 368 0028 0100A0E3 		mov	r0, #1
 369              	.LVL21:
 370 002c A112A0E1 		lsr	r1, r1, #5
 371 0030 FEFFFFEB 		bl	_test_assert
 372              	.LVL22:
 373 0034 000050E3 		cmp	r0, #0
 374 0038 F081BD18 		popne	{r4, r5, r6, r7, r8, pc}
 375              		.loc 1 137 0
 376 003c 183096E5 		ldr	r3, [r6, #24]
 377 0040 0200A0E3 		mov	r0, #2
 378 0044 081093E5 		ldr	r1, [r3, #8]
 379 0048 051041E0 		sub	r1, r1, r5
 380 004c 111F6FE1 		clz	r1, r1
 381 0050 A112A0E1 		lsr	r1, r1, #5
 382 0054 FEFFFFEB 		bl	_test_assert
 383              	.LVL23:
 384 0058 000050E3 		cmp	r0, #0
 385 005c F081BD18 		popne	{r4, r5, r6, r7, r8, pc}
 386              		.loc 1 139 0
 387 0060 0700A0E1 		mov	r0, r7
 388 0064 FEFFFFEB 		bl	chThdSetPriority
 389              	.LVL24:
 390              		.loc 1 140 0
 391 0068 001045E0 		sub	r1, r5, r0
 392 006c 111F6FE1 		clz	r1, r1
 393 0070 0300A0E3 		mov	r0, #3
 394              	.LVL25:
 395 0074 A112A0E1 		lsr	r1, r1, #5
 396 0078 FEFFFFEB 		bl	_test_assert
 397              	.LVL26:
 398 007c 000050E3 		cmp	r0, #0
 399 0080 F081BD18 		popne	{r4, r5, r6, r7, r8, pc}
ARM GAS  /var/folders/3j/4xdnk5197cv_b7cw3n33qk7r0000gn/T//cc62GWZk.s 			page 8


 400              		.loc 1 142 0
 401 0084 183096E5 		ldr	r3, [r6, #24]
 402 0088 0400A0E3 		mov	r0, #4
 403 008c 081093E5 		ldr	r1, [r3, #8]
 404 0090 041041E0 		sub	r1, r1, r4
 405 0094 111F6FE1 		clz	r1, r1
 406 0098 A112A0E1 		lsr	r1, r1, #5
 407 009c FEFFFFEB 		bl	_test_assert
 408              	.LVL27:
 409 00a0 000050E3 		cmp	r0, #0
 410 00a4 F081BD18 		popne	{r4, r5, r6, r7, r8, pc}
 411              		.loc 1 147 0
 412              		.syntax divided
 413              	@ 147 "..//test/testthd.c" 1
 414 00a8 9FF021E3 		msr     CPSR_c, #0x9F
 415              	@ 0 "" 2
 416              		.loc 1 148 0
 417              		.arm
 418              		.syntax unified
 419 00ac 182096E5 		ldr	r2, [r6, #24]
 420 00b0 083092E5 		ldr	r3, [r2, #8]
 421 00b4 023083E2 		add	r3, r3, #2
 422 00b8 083082E5 		str	r3, [r2, #8]
 423              		.loc 1 149 0
 424              		.syntax divided
 425              	@ 149 "..//test/testthd.c" 1
 426 00bc 1FF021E3 		msr     CPSR_c, #0x1F
 427              	@ 0 "" 2
 428              		.loc 1 150 0
 429              		.arm
 430              		.syntax unified
 431 00c0 183096E5 		ldr	r3, [r6, #24]
 432 00c4 027084E2 		add	r7, r4, #2
 433 00c8 081093E5 		ldr	r1, [r3, #8]
 434 00cc 0500A0E3 		mov	r0, #5
 435 00d0 071041E0 		sub	r1, r1, r7
 436 00d4 111F6FE1 		clz	r1, r1
 437 00d8 A112A0E1 		lsr	r1, r1, #5
 438 00dc FEFFFFEB 		bl	_test_assert
 439              	.LVL28:
 440 00e0 000050E3 		cmp	r0, #0
 441 00e4 F081BD18 		popne	{r4, r5, r6, r7, r8, pc}
 442              		.loc 1 154 0
 443 00e8 0500A0E1 		mov	r0, r5
 444 00ec FEFFFFEB 		bl	chThdSetPriority
 445              	.LVL29:
 446              		.loc 1 155 0
 447 00f0 001044E0 		sub	r1, r4, r0
 448 00f4 111F6FE1 		clz	r1, r1
 449 00f8 0600A0E3 		mov	r0, #6
 450              	.LVL30:
 451 00fc A112A0E1 		lsr	r1, r1, #5
 452 0100 FEFFFFEB 		bl	_test_assert
 453              	.LVL31:
 454 0104 000050E3 		cmp	r0, #0
 455 0108 F081BD18 		popne	{r4, r5, r6, r7, r8, pc}
 456              		.loc 1 157 0
ARM GAS  /var/folders/3j/4xdnk5197cv_b7cw3n33qk7r0000gn/T//cc62GWZk.s 			page 9


 457 010c 183096E5 		ldr	r3, [r6, #24]
 458 0110 0700A0E3 		mov	r0, #7
 459 0114 081093E5 		ldr	r1, [r3, #8]
 460 0118 071041E0 		sub	r1, r1, r7
 461 011c 111F6FE1 		clz	r1, r1
 462 0120 A112A0E1 		lsr	r1, r1, #5
 463 0124 FEFFFFEB 		bl	_test_assert
 464              	.LVL32:
 465 0128 000050E3 		cmp	r0, #0
 466 012c F081BD18 		popne	{r4, r5, r6, r7, r8, pc}
 467              		.loc 1 159 0
 468 0130 183096E5 		ldr	r3, [r6, #24]
 469 0134 0800A0E3 		mov	r0, #8
 470 0138 401093E5 		ldr	r1, [r3, #64]
 471 013c 051041E0 		sub	r1, r1, r5
 472 0140 111F6FE1 		clz	r1, r1
 473 0144 A112A0E1 		lsr	r1, r1, #5
 474 0148 FEFFFFEB 		bl	_test_assert
 475              	.LVL33:
 476 014c 000050E3 		cmp	r0, #0
 477 0150 F081BD18 		popne	{r4, r5, r6, r7, r8, pc}
 478              		.loc 1 163 0
 479 0154 037084E2 		add	r7, r4, #3
 480 0158 0700A0E1 		mov	r0, r7
 481 015c FEFFFFEB 		bl	chThdSetPriority
 482              	.LVL34:
 483              		.loc 1 164 0
 484 0160 001045E0 		sub	r1, r5, r0
 485 0164 111F6FE1 		clz	r1, r1
 486 0168 0900A0E3 		mov	r0, #9
 487              	.LVL35:
 488 016c A112A0E1 		lsr	r1, r1, #5
 489 0170 FEFFFFEB 		bl	_test_assert
 490              	.LVL36:
 491 0174 000050E3 		cmp	r0, #0
 492 0178 F081BD18 		popne	{r4, r5, r6, r7, r8, pc}
 493              		.loc 1 166 0
 494 017c 183096E5 		ldr	r3, [r6, #24]
 495 0180 0A00A0E3 		mov	r0, #10
 496 0184 081093E5 		ldr	r1, [r3, #8]
 497 0188 071041E0 		sub	r1, r1, r7
 498 018c 111F6FE1 		clz	r1, r1
 499 0190 A112A0E1 		lsr	r1, r1, #5
 500 0194 FEFFFFEB 		bl	_test_assert
 501              	.LVL37:
 502 0198 000050E3 		cmp	r0, #0
 503 019c F081BD18 		popne	{r4, r5, r6, r7, r8, pc}
 504              		.loc 1 168 0
 505 01a0 183096E5 		ldr	r3, [r6, #24]
 506 01a4 0B00A0E3 		mov	r0, #11
 507 01a8 401093E5 		ldr	r1, [r3, #64]
 508 01ac 071041E0 		sub	r1, r1, r7
 509 01b0 111F6FE1 		clz	r1, r1
 510 01b4 A112A0E1 		lsr	r1, r1, #5
 511 01b8 FEFFFFEB 		bl	_test_assert
 512              	.LVL38:
 513 01bc 000050E3 		cmp	r0, #0
ARM GAS  /var/folders/3j/4xdnk5197cv_b7cw3n33qk7r0000gn/T//cc62GWZk.s 			page 10


 514 01c0 F081BD18 		popne	{r4, r5, r6, r7, r8, pc}
 515              		.loc 1 171 0
 516              		.syntax divided
 517              	@ 171 "..//test/testthd.c" 1
 518 01c4 9FF021E3 		msr     CPSR_c, #0x9F
 519              	@ 0 "" 2
 520              		.loc 1 172 0
 521              		.arm
 522              		.syntax unified
 523 01c8 183096E5 		ldr	r3, [r6, #24]
 524 01cc 084083E5 		str	r4, [r3, #8]
 525              		.loc 1 173 0
 526 01d0 404083E5 		str	r4, [r3, #64]
 527              		.loc 1 174 0
 528              		.syntax divided
 529              	@ 174 "..//test/testthd.c" 1
 530 01d4 1FF021E3 		msr     CPSR_c, #0x1F
 531              	@ 0 "" 2
 532              		.loc 1 176 0
 533              		.arm
 534              		.syntax unified
 535 01d8 F081BDE8 		pop	{r4, r5, r6, r7, r8, pc}
 536              	.L18:
 537              		.align	2
 538              	.L17:
 539 01dc 00000000 		.word	rlist
 540              		.cfi_endproc
 541              	.LFE10:
 542              		.size	thd3_execute, .-thd3_execute
 543              		.section	.text.thd4_execute,"ax",%progbits
 544              		.align	2
 545              		.syntax unified
 546              		.arm
 547              		.fpu softvfp
 548              		.type	thd4_execute, %function
 549              	thd4_execute:
 550              	.LFB11:
 551              		.loc 1 193 0
 552              		.cfi_startproc
 553              		@ args = 0, pretend = 0, frame = 0
 554              		@ frame_needed = 0, uses_anonymous_args = 0
 555 0000 70402DE9 		push	{r4, r5, r6, lr}
 556              		.cfi_def_cfa_offset 16
 557              		.cfi_offset 4, -16
 558              		.cfi_offset 5, -12
 559              		.cfi_offset 6, -8
 560              		.cfi_offset 14, -4
 561              		.loc 1 199 0
 562 0004 90509FE5 		ldr	r5, .L24
 563              		.loc 1 196 0
 564 0008 FEFFFFEB 		bl	test_wait_tick
 565              	.LVL39:
 566              		.loc 1 199 0
 567 000c 0C4095E5 		ldr	r4, [r5, #12]
 568              	.LVL40:
 569              		.loc 1 200 0
 570 0010 6400A0E3 		mov	r0, #100
ARM GAS  /var/folders/3j/4xdnk5197cv_b7cw3n33qk7r0000gn/T//cc62GWZk.s 			page 11


 571 0014 FEFFFFEB 		bl	chThdSleep
 572              	.LVL41:
 573              		.loc 1 201 0
 574 0018 652084E2 		add	r2, r4, #101
 575 001c 641084E2 		add	r1, r4, #100
 576 0020 0100A0E3 		mov	r0, #1
 577 0024 FEFFFFEB 		bl	_test_assert_time_window
 578              	.LVL42:
 579 0028 000050E3 		cmp	r0, #0
 580 002c 7080BD18 		popne	{r4, r5, r6, pc}
 581              		.loc 1 204 0
 582 0030 0C4095E5 		ldr	r4, [r5, #12]
 583              	.LVL43:
 584              		.loc 1 205 0
 585 0034 6400A0E3 		mov	r0, #100
 586 0038 FEFFFFEB 		bl	chThdSleep
 587              	.LVL44:
 588              		.loc 1 206 0
 589 003c 652084E2 		add	r2, r4, #101
 590 0040 641084E2 		add	r1, r4, #100
 591 0044 0200A0E3 		mov	r0, #2
 592 0048 FEFFFFEB 		bl	_test_assert_time_window
 593              	.LVL45:
 594 004c 000050E3 		cmp	r0, #0
 595 0050 7080BD18 		popne	{r4, r5, r6, pc}
 596              	.LBB4:
 597              	.LBB5:
 598              		.loc 1 209 0
 599 0054 0C4095E5 		ldr	r4, [r5, #12]
 600              	.LVL46:
 601              		.loc 1 210 0
 602 0058 FA0FA0E3 		mov	r0, #1000
 603 005c FEFFFFEB 		bl	chThdSleep
 604              	.LVL47:
 605              		.loc 1 211 0
 606 0060 FA1F84E2 		add	r1, r4, #1000
 607 0064 012081E2 		add	r2, r1, #1
 608 0068 0300A0E3 		mov	r0, #3
 609 006c FEFFFFEB 		bl	_test_assert_time_window
 610              	.LVL48:
 611 0070 000050E3 		cmp	r0, #0
 612 0074 7080BD18 		popne	{r4, r5, r6, pc}
 613              		.loc 1 214 0
 614 0078 0C4095E5 		ldr	r4, [r5, #12]
 615              	.LVL49:
 616 007c 645084E2 		add	r5, r4, #100
 617              	.LVL50:
 618              		.loc 1 215 0
 619 0080 0500A0E1 		mov	r0, r5
 620 0084 FEFFFFEB 		bl	chThdSleepUntil
 621              	.LVL51:
 622              		.loc 1 216 0
 623 0088 0510A0E1 		mov	r1, r5
 624 008c 652084E2 		add	r2, r4, #101
 625 0090 0400A0E3 		mov	r0, #4
 626              	.LBE5:
 627              	.LBE4:
ARM GAS  /var/folders/3j/4xdnk5197cv_b7cw3n33qk7r0000gn/T//cc62GWZk.s 			page 12


 628              		.loc 1 217 0
 629 0094 7040BDE8 		pop	{r4, r5, r6, lr}
 630              		.cfi_restore 14
 631              		.cfi_restore 6
 632              		.cfi_restore 5
 633              		.cfi_restore 4
 634              		.cfi_def_cfa_offset 0
 635              	.LVL52:
 636              	.LBB7:
 637              	.LBB6:
 638              		.loc 1 216 0
 639 0098 FEFFFFEA 		b	_test_assert_time_window
 640              	.LVL53:
 641              	.L25:
 642              		.align	2
 643              	.L24:
 644 009c 00000000 		.word	vtlist
 645              	.LBE6:
 646              	.LBE7:
 647              		.cfi_endproc
 648              	.LFE11:
 649              		.size	thd4_execute, .-thd4_execute
 650              		.global	patternthd
 651              		.global	testthd4
 652              		.global	testthd3
 653              		.global	testthd2
 654              		.global	testthd1
 655              		.section	.rodata.patternthd,"a",%progbits
 656              		.align	2
 657              		.type	patternthd, %object
 658              		.size	patternthd, 20
 659              	patternthd:
 660 0000 00000000 		.word	testthd1
 661 0004 00000000 		.word	testthd2
 662 0008 00000000 		.word	testthd3
 663 000c 00000000 		.word	testthd4
 664 0010 00000000 		.word	0
 665              		.section	.rodata.str1.4,"aMS",%progbits,1
 666              		.align	2
 667              	.LC6:
 668 0000 54687265 		.ascii	"Threads, delays\000"
 668      6164732C 
 668      2064656C 
 668      61797300 
 669              	.LC7:
 670 0010 54687265 		.ascii	"Threads, priority change\000"
 670      6164732C 
 670      20707269 
 670      6F726974 
 670      79206368 
 671 0029 000000   		.space	3
 672              	.LC8:
 673 002c 54687265 		.ascii	"Threads, enqueuing test #2\000"
 673      6164732C 
 673      20656E71 
 673      75657569 
 673      6E672074 
ARM GAS  /var/folders/3j/4xdnk5197cv_b7cw3n33qk7r0000gn/T//cc62GWZk.s 			page 13


 674 0047 00       		.space	1
 675              	.LC9:
 676 0048 54687265 		.ascii	"Threads, enqueuing test #1\000"
 676      6164732C 
 676      20656E71 
 676      75657569 
 676      6E672074 
 677              		.section	.rodata.testthd1,"a",%progbits
 678              		.align	2
 679              		.type	testthd1, %object
 680              		.size	testthd1, 16
 681              	testthd1:
 682 0000 48000000 		.word	.LC9
 683 0004 00000000 		.word	0
 684 0008 00000000 		.word	0
 685 000c 00000000 		.word	thd1_execute
 686              		.section	.rodata.testthd2,"a",%progbits
 687              		.align	2
 688              		.type	testthd2, %object
 689              		.size	testthd2, 16
 690              	testthd2:
 691 0000 2C000000 		.word	.LC8
 692 0004 00000000 		.word	0
 693 0008 00000000 		.word	0
 694 000c 00000000 		.word	thd2_execute
 695              		.section	.rodata.testthd3,"a",%progbits
 696              		.align	2
 697              		.type	testthd3, %object
 698              		.size	testthd3, 16
 699              	testthd3:
 700 0000 10000000 		.word	.LC7
 701 0004 00000000 		.word	0
 702 0008 00000000 		.word	0
 703 000c 00000000 		.word	thd3_execute
 704              		.section	.rodata.testthd4,"a",%progbits
 705              		.align	2
 706              		.type	testthd4, %object
 707              		.size	testthd4, 16
 708              	testthd4:
 709 0000 00000000 		.word	.LC6
 710 0004 00000000 		.word	0
 711 0008 00000000 		.word	0
 712 000c 00000000 		.word	thd4_execute
 713              		.section	.rodata.thd1_execute.str1.4,"aMS",%progbits,1
 714              		.align	2
 715              	.LC0:
 716 0000 4500     		.ascii	"E\000"
 717 0002 0000     		.space	2
 718              	.LC1:
 719 0004 4400     		.ascii	"D\000"
 720 0006 0000     		.space	2
 721              	.LC2:
 722 0008 4300     		.ascii	"C\000"
 723 000a 0000     		.space	2
 724              	.LC3:
 725 000c 4200     		.ascii	"B\000"
 726 000e 0000     		.space	2
ARM GAS  /var/folders/3j/4xdnk5197cv_b7cw3n33qk7r0000gn/T//cc62GWZk.s 			page 14


 727              	.LC4:
 728 0010 4100     		.ascii	"A\000"
 729 0012 0000     		.space	2
 730              	.LC5:
 731 0014 41424344 		.ascii	"ABCDE\000"
 731      4500
 732              		.text
 733              	.Letext0:
 734              		.file 2 "/usr/local/Cellar/gcc-arm-none-eabi/20180627/arm-none-eabi/include/machine/_default_types
 735              		.file 3 "/usr/local/Cellar/gcc-arm-none-eabi/20180627/arm-none-eabi/include/sys/_stdint.h"
 736              		.file 4 "..//os/ports/GCC/ARM/chtypes.h"
 737              		.file 5 "..//os/kernel/include/chlists.h"
 738              		.file 6 "..//os/kernel/include/chthreads.h"
 739              		.file 7 "..//os/ports/GCC/ARM/chcore.h"
 740              		.file 8 "..//os/kernel/include/chvt.h"
 741              		.file 9 "..//os/kernel/include/chschd.h"
 742              		.file 10 "..//os/kernel/include/chmtx.h"
 743              		.file 11 "..//os/kernel/include/chregistry.h"
 744              		.file 12 "..//os/kernel/include/ch.h"
 745              		.file 13 "..//test/test.h"