ARM GAS  /var/folders/3j/4xdnk5197cv_b7cw3n33qk7r0000gn/T//ccpFleut.s 			page 1


   1              		.cpu arm1176jz-s
   2              		.eabi_attribute 20, 1
   3              		.eabi_attribute 21, 1
   4              		.eabi_attribute 23, 3
   5              		.eabi_attribute 24, 1
   6              		.eabi_attribute 25, 1
   7              		.eabi_attribute 26, 1
   8              		.eabi_attribute 30, 2
   9              		.eabi_attribute 34, 1
  10              		.eabi_attribute 18, 4
  11              		.file	"test.c"
  12              		.text
  13              	.Ltext0:
  14              		.cfi_sections	.debug_frame
  15              		.section	.text.tmr,"ax",%progbits
  16              		.align	2
  17              		.syntax unified
  18              		.arm
  19              		.fpu softvfp
  20              		.type	tmr, %function
  21              	tmr:
  22              	.LFB21:
  23              		.file 1 "..//test/test.c"
  24              		.loc 1 265 0
  25              		.cfi_startproc
  26              		@ args = 0, pretend = 0, frame = 0
  27              		@ frame_needed = 0, uses_anonymous_args = 0
  28              		@ link register save eliminated.
  29              	.LVL0:
  30              		.loc 1 268 0
  31 0000 0120A0E3 		mov	r2, #1
  32 0004 04309FE5 		ldr	r3, .L3
  33 0008 002083E5 		str	r2, [r3]
  34              		.loc 1 269 0
  35 000c 1EFF2FE1 		bx	lr
  36              	.L4:
  37              		.align	2
  38              	.L3:
  39 0010 00000000 		.word	test_timer_done
  40              		.cfi_endproc
  41              	.LFE21:
  42              		.size	tmr, .-tmr
  43              		.section	.text.print_line,"ax",%progbits
  44              		.align	2
  45              		.syntax unified
  46              		.arm
  47              		.fpu softvfp
  48              		.type	print_line, %function
  49              	print_line:
  50              	.LFB24:
  51              		.loc 1 304 0
  52              		.cfi_startproc
  53              		@ args = 0, pretend = 0, frame = 0
  54              		@ frame_needed = 0, uses_anonymous_args = 0
  55              	.LVL1:
  56 0000 70402DE9 		push	{r4, r5, r6, lr}
  57              		.cfi_def_cfa_offset 16
ARM GAS  /var/folders/3j/4xdnk5197cv_b7cw3n33qk7r0000gn/T//ccpFleut.s 			page 2


  58              		.cfi_offset 4, -16
  59              		.cfi_offset 5, -12
  60              		.cfi_offset 6, -8
  61              		.cfi_offset 14, -4
  62              		.loc 1 304 0
  63 0004 4C40A0E3 		mov	r4, #76
  64 0008 34509FE5 		ldr	r5, .L9
  65              	.LVL2:
  66              	.L6:
  67              		.loc 1 308 0 discriminator 3
  68 000c 000095E5 		ldr	r0, [r5]
  69 0010 2D10A0E3 		mov	r1, #45
  70 0014 003090E5 		ldr	r3, [r0]
  71 0018 083093E5 		ldr	r3, [r3, #8]
  72 001c 33FF2FE1 		blx	r3
  73              	.LVL3:
  74              		.loc 1 307 0 discriminator 3
  75 0020 014054E2 		subs	r4, r4, #1
  76              	.LVL4:
  77 0024 F8FFFF1A 		bne	.L6
  78              		.loc 1 309 0
  79 0028 000095E5 		ldr	r0, [r5]
  80 002c 0220A0E3 		mov	r2, #2
  81              		.loc 1 310 0
  82 0030 7040BDE8 		pop	{r4, r5, r6, lr}
  83              		.cfi_restore 14
  84              		.cfi_restore 6
  85              		.cfi_restore 5
  86              		.cfi_restore 4
  87              		.cfi_def_cfa_offset 0
  88              	.LVL5:
  89              		.loc 1 309 0
  90 0034 003090E5 		ldr	r3, [r0]
  91 0038 08109FE5 		ldr	r1, .L9+4
  92 003c 003093E5 		ldr	r3, [r3]
  93 0040 13FF2FE1 		bx	r3
  94              	.LVL6:
  95              	.L10:
  96              		.align	2
  97              	.L9:
  98 0044 00000000 		.word	.LANCHOR0
  99 0048 00000000 		.word	.LC0
 100              		.cfi_endproc
 101              	.LFE24:
 102              		.size	print_line, .-print_line
 103              		.section	.text.test_printn,"ax",%progbits
 104              		.align	2
 105              		.global	test_printn
 106              		.syntax unified
 107              		.arm
 108              		.fpu softvfp
 109              		.type	test_printn, %function
 110              	test_printn:
 111              	.LFB7:
 112              		.loc 1 95 0
 113              		.cfi_startproc
 114              		@ args = 0, pretend = 0, frame = 16
ARM GAS  /var/folders/3j/4xdnk5197cv_b7cw3n33qk7r0000gn/T//ccpFleut.s 			page 3


 115              		@ frame_needed = 0, uses_anonymous_args = 0
 116              	.LVL7:
 117              		.loc 1 98 0
 118 0000 000050E3 		cmp	r0, #0
 119 0004 0500001A 		bne	.L21
 120              		.loc 1 99 0
 121 0008 88309FE5 		ldr	r3, .L23
 122 000c 3010A0E3 		mov	r1, #48
 123 0010 000093E5 		ldr	r0, [r3]
 124              	.LVL8:
 125 0014 003090E5 		ldr	r3, [r0]
 126 0018 083093E5 		ldr	r3, [r3, #8]
 127 001c 13FF2FE1 		bx	r3
 128              	.LVL9:
 129              	.L21:
 130              		.loc 1 95 0
 131 0020 F0402DE9 		push	{r4, r5, r6, r7, lr}
 132              		.cfi_def_cfa_offset 20
 133              		.cfi_offset 4, -20
 134              		.cfi_offset 5, -16
 135              		.cfi_offset 6, -12
 136              		.cfi_offset 7, -8
 137              		.cfi_offset 14, -4
 138 0024 14D04DE2 		sub	sp, sp, #20
 139              		.cfi_def_cfa_offset 40
 140              	.LBB50:
 141              	.LBB51:
 142              		.loc 1 101 0
 143 0028 0D50A0E1 		mov	r5, sp
 144              		.loc 1 103 0
 145 002c 68C09FE5 		ldr	ip, .L23+4
 146              		.loc 1 101 0
 147 0030 0540A0E1 		mov	r4, r5
 148 0034 000000EA 		b	.L13
 149              	.LVL10:
 150              	.L17:
 151              		.loc 1 102 0
 152 0038 0240A0E1 		mov	r4, r2
 153              	.LVL11:
 154              	.L13:
 155              		.loc 1 103 0
 156 003c 0420A0E1 		mov	r2, r4
 157              	.LVL12:
 158 0040 906C87E0 		umull	r6, r7, r0, ip
 159 0044 A731A0E1 		lsr	r3, r7, #3
 160              	.LVL13:
 161 0048 031183E0 		add	r1, r3, r3, lsl #2
 162 004c 810040E0 		sub	r0, r0, r1, lsl #1
 163 0050 301080E2 		add	r1, r0, #48
 164 0054 7110EFE6 		uxtb	r1, r1
 165              		.loc 1 102 0
 166 0058 000053E2 		subs	r0, r3, #0
 167              		.loc 1 103 0
 168 005c 0110C2E4 		strb	r1, [r2], #1
 169              	.LVL14:
 170              		.loc 1 102 0
 171 0060 F4FFFF1A 		bne	.L17
ARM GAS  /var/folders/3j/4xdnk5197cv_b7cw3n33qk7r0000gn/T//ccpFleut.s 			page 4


 172              		.loc 1 104 0
 173 0064 050052E1 		cmp	r2, r5
 174 0068 0800009A 		bls	.L11
 175 006c 24609FE5 		ldr	r6, .L23
 176 0070 000000EA 		b	.L15
 177              	.LVL15:
 178              	.L22:
 179 0074 011074E5 		ldrb	r1, [r4, #-1]!	@ zero_extendqisi2
 180              	.LVL16:
 181              	.L15:
 182              		.loc 1 105 0
 183 0078 000096E5 		ldr	r0, [r6]
 184              	.LVL17:
 185 007c 003090E5 		ldr	r3, [r0]
 186 0080 083093E5 		ldr	r3, [r3, #8]
 187 0084 33FF2FE1 		blx	r3
 188              	.LVL18:
 189              		.loc 1 104 0
 190 0088 040055E1 		cmp	r5, r4
 191 008c F8FFFF1A 		bne	.L22
 192              	.LVL19:
 193              	.L11:
 194              	.LBE51:
 195              	.LBE50:
 196              		.loc 1 107 0
 197 0090 14D08DE2 		add	sp, sp, #20
 198              		.cfi_def_cfa_offset 20
 199              		@ sp needed
 200 0094 F080BDE8 		pop	{r4, r5, r6, r7, pc}
 201              	.LVL20:
 202              	.L24:
 203              		.align	2
 204              	.L23:
 205 0098 00000000 		.word	.LANCHOR0
 206 009c CDCCCCCC 		.word	-858993459
 207              		.cfi_endproc
 208              	.LFE7:
 209              		.size	test_printn, .-test_printn
 210              		.section	.text.test_print,"ax",%progbits
 211              		.align	2
 212              		.global	test_print
 213              		.syntax unified
 214              		.arm
 215              		.fpu softvfp
 216              		.type	test_print, %function
 217              	test_print:
 218              	.LFB8:
 219              		.loc 1 114 0
 220              		.cfi_startproc
 221              		@ args = 0, pretend = 0, frame = 0
 222              		@ frame_needed = 0, uses_anonymous_args = 0
 223              	.LVL21:
 224              		.loc 1 116 0
 225 0000 0010D0E5 		ldrb	r1, [r0]	@ zero_extendqisi2
 226 0004 000051E3 		cmp	r1, #0
 227 0008 1EFF2F01 		bxeq	lr
 228              		.loc 1 114 0
ARM GAS  /var/folders/3j/4xdnk5197cv_b7cw3n33qk7r0000gn/T//ccpFleut.s 			page 5


 229 000c 70402DE9 		push	{r4, r5, r6, lr}
 230              		.cfi_def_cfa_offset 16
 231              		.cfi_offset 4, -16
 232              		.cfi_offset 5, -12
 233              		.cfi_offset 6, -8
 234              		.cfi_offset 14, -4
 235 0010 0040A0E1 		mov	r4, r0
 236 0014 1C509FE5 		ldr	r5, .L36
 237              	.LVL22:
 238              	.L27:
 239              		.loc 1 117 0
 240 0018 000095E5 		ldr	r0, [r5]
 241 001c 003090E5 		ldr	r3, [r0]
 242 0020 083093E5 		ldr	r3, [r3, #8]
 243 0024 33FF2FE1 		blx	r3
 244              	.LVL23:
 245              		.loc 1 116 0
 246 0028 0110F4E5 		ldrb	r1, [r4, #1]!	@ zero_extendqisi2
 247              	.LVL24:
 248 002c 000051E3 		cmp	r1, #0
 249 0030 F8FFFF1A 		bne	.L27
 250 0034 7080BDE8 		pop	{r4, r5, r6, pc}
 251              	.L37:
 252              		.align	2
 253              	.L36:
 254 0038 00000000 		.word	.LANCHOR0
 255              		.cfi_endproc
 256              	.LFE8:
 257              		.size	test_print, .-test_print
 258              		.section	.text.test_println,"ax",%progbits
 259              		.align	2
 260              		.global	test_println
 261              		.syntax unified
 262              		.arm
 263              		.fpu softvfp
 264              		.type	test_println, %function
 265              	test_println:
 266              	.LFB9:
 267              		.loc 1 125 0
 268              		.cfi_startproc
 269              		@ args = 0, pretend = 0, frame = 0
 270              		@ frame_needed = 0, uses_anonymous_args = 0
 271              	.LVL25:
 272 0000 70402DE9 		push	{r4, r5, r6, lr}
 273              		.cfi_def_cfa_offset 16
 274              		.cfi_offset 4, -16
 275              		.cfi_offset 5, -12
 276              		.cfi_offset 6, -8
 277              		.cfi_offset 14, -4
 278              	.LBB52:
 279              	.LBB53:
 280              		.loc 1 116 0
 281 0004 0010D0E5 		ldrb	r1, [r0]	@ zero_extendqisi2
 282 0008 000051E3 		cmp	r1, #0
 283 000c 40509F05 		ldreq	r5, .L46
 284 0010 0800000A 		beq	.L39
 285 0014 0040A0E1 		mov	r4, r0
ARM GAS  /var/folders/3j/4xdnk5197cv_b7cw3n33qk7r0000gn/T//ccpFleut.s 			page 6


 286 0018 34509FE5 		ldr	r5, .L46
 287              	.LVL26:
 288              	.L40:
 289              		.loc 1 117 0
 290 001c 000095E5 		ldr	r0, [r5]
 291 0020 003090E5 		ldr	r3, [r0]
 292 0024 083093E5 		ldr	r3, [r3, #8]
 293 0028 33FF2FE1 		blx	r3
 294              	.LVL27:
 295              		.loc 1 116 0
 296 002c 0110F4E5 		ldrb	r1, [r4, #1]!	@ zero_extendqisi2
 297              	.LVL28:
 298 0030 000051E3 		cmp	r1, #0
 299 0034 F8FFFF1A 		bne	.L40
 300              	.LVL29:
 301              	.L39:
 302              	.LBE53:
 303              	.LBE52:
 304              		.loc 1 128 0
 305 0038 000095E5 		ldr	r0, [r5]
 306 003c 0220A0E3 		mov	r2, #2
 307              		.loc 1 129 0
 308 0040 7040BDE8 		pop	{r4, r5, r6, lr}
 309              		.cfi_restore 14
 310              		.cfi_restore 6
 311              		.cfi_restore 5
 312              		.cfi_restore 4
 313              		.cfi_def_cfa_offset 0
 314              		.loc 1 128 0
 315 0044 003090E5 		ldr	r3, [r0]
 316 0048 08109FE5 		ldr	r1, .L46+4
 317 004c 003093E5 		ldr	r3, [r3]
 318 0050 13FF2FE1 		bx	r3
 319              	.LVL30:
 320              	.L47:
 321              		.align	2
 322              	.L46:
 323 0054 00000000 		.word	.LANCHOR0
 324 0058 00000000 		.word	.LC0
 325              		.cfi_endproc
 326              	.LFE9:
 327              		.size	test_println, .-test_println
 328              		.section	.text.test_emit_token,"ax",%progbits
 329              		.align	2
 330              		.global	test_emit_token
 331              		.syntax unified
 332              		.arm
 333              		.fpu softvfp
 334              		.type	test_emit_token, %function
 335              	test_emit_token:
 336              	.LFB12:
 337              		.loc 1 151 0
 338              		.cfi_startproc
 339              		@ args = 0, pretend = 0, frame = 0
 340              		@ frame_needed = 0, uses_anonymous_args = 0
 341              		@ link register save eliminated.
 342              	.LVL31:
ARM GAS  /var/folders/3j/4xdnk5197cv_b7cw3n33qk7r0000gn/T//ccpFleut.s 			page 7


 343              		.loc 1 153 0
 344              		.syntax divided
 345              	@ 153 "..//test/test.c" 1
 346 0000 9FF021E3 		msr     CPSR_c, #0x9F
 347              	@ 0 "" 2
 348              		.loc 1 154 0
 349              		.arm
 350              		.syntax unified
 351 0004 14309FE5 		ldr	r3, .L49
 352 0008 002093E5 		ldr	r2, [r3]
 353 000c 011082E2 		add	r1, r2, #1
 354 0010 0000C2E5 		strb	r0, [r2]
 355 0014 001083E5 		str	r1, [r3]
 356              		.loc 1 155 0
 357              		.syntax divided
 358              	@ 155 "..//test/test.c" 1
 359 0018 1FF021E3 		msr     CPSR_c, #0x1F
 360              	@ 0 "" 2
 361              		.loc 1 156 0
 362              		.arm
 363              		.syntax unified
 364 001c 1EFF2FE1 		bx	lr
 365              	.L50:
 366              		.align	2
 367              	.L49:
 368 0020 00000000 		.word	.LANCHOR1
 369              		.cfi_endproc
 370              	.LFE12:
 371              		.size	test_emit_token, .-test_emit_token
 372              		.section	.text._test_fail,"ax",%progbits
 373              		.align	2
 374              		.global	_test_fail
 375              		.syntax unified
 376              		.arm
 377              		.fpu softvfp
 378              		.type	_test_fail, %function
 379              	_test_fail:
 380              	.LFB13:
 381              		.loc 1 161 0
 382              		.cfi_startproc
 383              		@ args = 0, pretend = 0, frame = 0
 384              		@ frame_needed = 0, uses_anonymous_args = 0
 385              		@ link register save eliminated.
 386              	.LVL32:
 387              		.loc 1 163 0
 388 0000 0130A0E3 		mov	r3, #1
 389              		.loc 1 165 0
 390 0004 18C09FE5 		ldr	ip, .L52
 391              		.loc 1 163 0
 392 0008 18109FE5 		ldr	r1, .L52+4
 393              		.loc 1 164 0
 394 000c 18209FE5 		ldr	r2, .L52+8
 395              		.loc 1 165 0
 396 0010 00008CE5 		str	r0, [ip]
 397              		.loc 1 163 0
 398 0014 003081E5 		str	r3, [r1]
 399              		.loc 1 164 0
ARM GAS  /var/folders/3j/4xdnk5197cv_b7cw3n33qk7r0000gn/T//ccpFleut.s 			page 8


 400 0018 003082E5 		str	r3, [r2]
 401              		.loc 1 167 0
 402 001c 0300A0E1 		mov	r0, r3
 403              	.LVL33:
 404 0020 1EFF2FE1 		bx	lr
 405              	.L53:
 406              		.align	2
 407              	.L52:
 408 0024 00000000 		.word	.LANCHOR4
 409 0028 00000000 		.word	.LANCHOR2
 410 002c 00000000 		.word	.LANCHOR3
 411              		.cfi_endproc
 412              	.LFE13:
 413              		.size	_test_fail, .-_test_fail
 414              		.section	.text._test_assert,"ax",%progbits
 415              		.align	2
 416              		.global	_test_assert
 417              		.syntax unified
 418              		.arm
 419              		.fpu softvfp
 420              		.type	_test_assert, %function
 421              	_test_assert:
 422              	.LFB14:
 423              		.loc 1 169 0
 424              		.cfi_startproc
 425              		@ args = 0, pretend = 0, frame = 0
 426              		@ frame_needed = 0, uses_anonymous_args = 0
 427              		@ link register save eliminated.
 428              	.LVL34:
 429              		.loc 1 171 0
 430 0000 000051E3 		cmp	r1, #0
 431              	.LVL35:
 432              	.LBB54:
 433              	.LBB55:
 434              		.loc 1 163 0
 435 0004 0130A003 		moveq	r3, #1
 436              	.LBE55:
 437              	.LBE54:
 438              		.loc 1 173 0
 439 0008 0030A013 		movne	r3, #0
 440              	.LBB57:
 441              	.LBB56:
 442              		.loc 1 163 0
 443 000c 18C09F05 		ldreq	ip, .L57
 444              		.loc 1 164 0
 445 0010 18109F05 		ldreq	r1, .L57+4
 446              	.LVL36:
 447              		.loc 1 165 0
 448 0014 18209F05 		ldreq	r2, .L57+8
 449              		.loc 1 163 0
 450 0018 00308C05 		streq	r3, [ip]
 451              		.loc 1 165 0
 452 001c 00008205 		streq	r0, [r2]
 453              	.LVL37:
 454              		.loc 1 164 0
 455 0020 00308105 		streq	r3, [r1]
 456              	.LBE56:
ARM GAS  /var/folders/3j/4xdnk5197cv_b7cw3n33qk7r0000gn/T//ccpFleut.s 			page 9


 457              	.LBE57:
 458              		.loc 1 174 0
 459 0024 0300A0E1 		mov	r0, r3
 460              	.LVL38:
 461 0028 1EFF2FE1 		bx	lr
 462              	.L58:
 463              		.align	2
 464              	.L57:
 465 002c 00000000 		.word	.LANCHOR2
 466 0030 00000000 		.word	.LANCHOR3
 467 0034 00000000 		.word	.LANCHOR4
 468              		.cfi_endproc
 469              	.LFE14:
 470              		.size	_test_assert, .-_test_assert
 471              		.section	.text._test_assert_sequence,"ax",%progbits
 472              		.align	2
 473              		.global	_test_assert_sequence
 474              		.syntax unified
 475              		.arm
 476              		.fpu softvfp
 477              		.type	_test_assert_sequence, %function
 478              	_test_assert_sequence:
 479              	.LFB15:
 480              		.loc 1 176 0
 481              		.cfi_startproc
 482              		@ args = 0, pretend = 0, frame = 0
 483              		@ frame_needed = 0, uses_anonymous_args = 0
 484              	.LVL39:
 485 0000 30402DE9 		push	{r4, r5, lr}
 486              		.cfi_def_cfa_offset 12
 487              		.cfi_offset 4, -12
 488              		.cfi_offset 5, -8
 489              		.cfi_offset 14, -4
 490              		.loc 1 178 0
 491 0004 60409FE5 		ldr	r4, .L66
 492              		.loc 1 177 0
 493 0008 60509FE5 		ldr	r5, .L66+4
 494 000c 011041E2 		sub	r1, r1, #1
 495              	.LVL40:
 496              		.loc 1 178 0
 497 0010 00E094E5 		ldr	lr, [r4]
 498              		.loc 1 177 0
 499 0014 0530A0E1 		mov	r3, r5
 500              		.loc 1 178 0
 501 0018 020000EA 		b	.L60
 502              	.LVL41:
 503              	.L62:
 504              		.loc 1 179 0
 505 001c 01C0D3E4 		ldrb	ip, [r3], #1	@ zero_extendqisi2
 506              	.LVL42:
 507 0020 02005CE1 		cmp	ip, r2
 508 0024 0700001A 		bne	.L63
 509              	.LVL43:
 510              	.L60:
 511              		.loc 1 178 0
 512 0028 03005EE1 		cmp	lr, r3
 513 002c 0120F1E5 		ldrb	r2, [r1, #1]!	@ zero_extendqisi2
ARM GAS  /var/folders/3j/4xdnk5197cv_b7cw3n33qk7r0000gn/T//ccpFleut.s 			page 10


 514              	.LVL44:
 515 0030 F9FFFF8A 		bhi	.L62
 516              		.loc 1 182 0
 517 0034 000052E3 		cmp	r2, #0
 518 0038 0200001A 		bne	.L63
 519              	.LBB58:
 520              	.LBB59:
 521              		.loc 1 136 0
 522 003c 005084E5 		str	r5, [r4]
 523              	.LBE59:
 524              	.LBE58:
 525              		.loc 1 186 0
 526 0040 0200A0E1 		mov	r0, r2
 527              	.LVL45:
 528 0044 3080BDE8 		pop	{r4, r5, pc}
 529              	.LVL46:
 530              	.L63:
 531              	.LBB60:
 532              	.LBB61:
 533              		.loc 1 163 0
 534 0048 0120A0E3 		mov	r2, #1
 535 004c 20C09FE5 		ldr	ip, .L66+8
 536              		.loc 1 164 0
 537 0050 20109FE5 		ldr	r1, .L66+12
 538              	.LVL47:
 539              		.loc 1 165 0
 540 0054 20309FE5 		ldr	r3, .L66+16
 541              		.loc 1 163 0
 542 0058 00208CE5 		str	r2, [ip]
 543              		.loc 1 165 0
 544 005c 000083E5 		str	r0, [r3]
 545              	.LVL48:
 546              		.loc 1 164 0
 547 0060 002081E5 		str	r2, [r1]
 548              	.LBE61:
 549              	.LBE60:
 550              		.loc 1 186 0
 551 0064 0200A0E1 		mov	r0, r2
 552              	.LVL49:
 553 0068 3080BDE8 		pop	{r4, r5, pc}
 554              	.L67:
 555              		.align	2
 556              	.L66:
 557 006c 00000000 		.word	.LANCHOR1
 558 0070 00000000 		.word	.LANCHOR5
 559 0074 00000000 		.word	.LANCHOR2
 560 0078 00000000 		.word	.LANCHOR3
 561 007c 00000000 		.word	.LANCHOR4
 562              		.cfi_endproc
 563              	.LFE15:
 564              		.size	_test_assert_sequence, .-_test_assert_sequence
 565              		.section	.text._test_assert_time_window,"ax",%progbits
 566              		.align	2
 567              		.global	_test_assert_time_window
 568              		.syntax unified
 569              		.arm
 570              		.fpu softvfp
ARM GAS  /var/folders/3j/4xdnk5197cv_b7cw3n33qk7r0000gn/T//ccpFleut.s 			page 11


 571              		.type	_test_assert_time_window, %function
 572              	_test_assert_time_window:
 573              	.LFB16:
 574              		.loc 1 188 0
 575              		.cfi_startproc
 576              		@ args = 0, pretend = 0, frame = 0
 577              		@ frame_needed = 0, uses_anonymous_args = 0
 578              	.LVL50:
 579 0000 0130A0E1 		mov	r3, r1
 580 0004 10402DE9 		push	{r4, lr}
 581              		.cfi_def_cfa_offset 8
 582              		.cfi_offset 4, -8
 583              		.cfi_offset 14, -4
 584              		.loc 1 190 0
 585 0008 0210A0E1 		mov	r1, r2
 586              	.LVL51:
 587              		.loc 1 188 0
 588 000c 0040A0E1 		mov	r4, r0
 589              		.loc 1 190 0
 590 0010 0300A0E1 		mov	r0, r3
 591              	.LVL52:
 592 0014 FEFFFFEB 		bl	chTimeIsWithin
 593              	.LVL53:
 594              	.LBB62:
 595              	.LBB63:
 596              		.loc 1 171 0
 597 0018 000050E3 		cmp	r0, #0
 598              	.LVL54:
 599              	.LBB64:
 600              	.LBB65:
 601              		.loc 1 163 0
 602 001c 0100A003 		moveq	r0, #1
 603              	.LVL55:
 604 0020 18109F05 		ldreq	r1, .L72
 605              		.loc 1 164 0
 606 0024 18209F05 		ldreq	r2, .L72+4
 607              		.loc 1 165 0
 608 0028 18309F05 		ldreq	r3, .L72+8
 609              		.loc 1 163 0
 610 002c 00008105 		streq	r0, [r1]
 611              		.loc 1 164 0
 612 0030 00008205 		streq	r0, [r2]
 613              		.loc 1 165 0
 614 0034 00408305 		streq	r4, [r3]
 615              	.LVL56:
 616              	.LBE65:
 617              	.LBE64:
 618              		.loc 1 173 0
 619 0038 0000A013 		movne	r0, #0
 620              	.LVL57:
 621              	.LBE63:
 622              	.LBE62:
 623              		.loc 1 191 0
 624 003c 1080BDE8 		pop	{r4, pc}
 625              	.L73:
 626              		.align	2
 627              	.L72:
ARM GAS  /var/folders/3j/4xdnk5197cv_b7cw3n33qk7r0000gn/T//ccpFleut.s 			page 12


 628 0040 00000000 		.word	.LANCHOR2
 629 0044 00000000 		.word	.LANCHOR3
 630 0048 00000000 		.word	.LANCHOR4
 631              		.cfi_endproc
 632              	.LFE16:
 633              		.size	_test_assert_time_window, .-_test_assert_time_window
 634              		.section	.text.test_terminate_threads,"ax",%progbits
 635              		.align	2
 636              		.global	test_terminate_threads
 637              		.syntax unified
 638              		.arm
 639              		.fpu softvfp
 640              		.type	test_terminate_threads, %function
 641              	test_terminate_threads:
 642              	.LFB17:
 643              		.loc 1 200 0
 644              		.cfi_startproc
 645              		@ args = 0, pretend = 0, frame = 0
 646              		@ frame_needed = 0, uses_anonymous_args = 0
 647              	.LVL58:
 648 0000 70402DE9 		push	{r4, r5, r6, lr}
 649              		.cfi_def_cfa_offset 16
 650              		.cfi_offset 4, -16
 651              		.cfi_offset 5, -12
 652              		.cfi_offset 6, -8
 653              		.cfi_offset 14, -4
 654 0004 1C409FE5 		ldr	r4, .L83
 655 0008 145084E2 		add	r5, r4, #20
 656              	.LVL59:
 657              	.L76:
 658              		.loc 1 204 0
 659 000c 040094E4 		ldr	r0, [r4], #4
 660 0010 000050E3 		cmp	r0, #0
 661 0014 0000000A 		beq	.L75
 662              		.loc 1 205 0
 663 0018 FEFFFFEB 		bl	chThdTerminate
 664              	.LVL60:
 665              	.L75:
 666              		.loc 1 203 0 discriminator 2
 667 001c 050054E1 		cmp	r4, r5
 668 0020 F9FFFF1A 		bne	.L76
 669 0024 7080BDE8 		pop	{r4, r5, r6, pc}
 670              	.L84:
 671              		.align	2
 672              	.L83:
 673 0028 00000000 		.word	threads
 674              		.cfi_endproc
 675              	.LFE17:
 676              		.size	test_terminate_threads, .-test_terminate_threads
 677              		.section	.text.test_wait_threads,"ax",%progbits
 678              		.align	2
 679              		.global	test_wait_threads
 680              		.syntax unified
 681              		.arm
 682              		.fpu softvfp
 683              		.type	test_wait_threads, %function
 684              	test_wait_threads:
ARM GAS  /var/folders/3j/4xdnk5197cv_b7cw3n33qk7r0000gn/T//ccpFleut.s 			page 13


 685              	.LFB18:
 686              		.loc 1 211 0
 687              		.cfi_startproc
 688              		@ args = 0, pretend = 0, frame = 0
 689              		@ frame_needed = 0, uses_anonymous_args = 0
 690              	.LVL61:
 691 0000 70402DE9 		push	{r4, r5, r6, lr}
 692              		.cfi_def_cfa_offset 16
 693              		.cfi_offset 4, -16
 694              		.cfi_offset 5, -12
 695              		.cfi_offset 6, -8
 696              		.cfi_offset 14, -4
 697              		.loc 1 217 0
 698 0004 0060A0E3 		mov	r6, #0
 699 0008 20409FE5 		ldr	r4, .L94
 700 000c 145084E2 		add	r5, r4, #20
 701              	.LVL62:
 702              	.L87:
 703              		.loc 1 215 0
 704 0010 040094E4 		ldr	r0, [r4], #4
 705 0014 000050E3 		cmp	r0, #0
 706 0018 0100000A 		beq	.L86
 707              		.loc 1 216 0
 708 001c FEFFFFEB 		bl	chThdWait
 709              	.LVL63:
 710              		.loc 1 217 0
 711 0020 046004E5 		str	r6, [r4, #-4]
 712              	.L86:
 713              		.loc 1 214 0 discriminator 2
 714 0024 050054E1 		cmp	r4, r5
 715 0028 F8FFFF1A 		bne	.L87
 716 002c 7080BDE8 		pop	{r4, r5, r6, pc}
 717              	.L95:
 718              		.align	2
 719              	.L94:
 720 0030 00000000 		.word	threads
 721              		.cfi_endproc
 722              	.LFE18:
 723              		.size	test_wait_threads, .-test_wait_threads
 724              		.section	.text.test_cpu_pulse,"ax",%progbits
 725              		.align	2
 726              		.global	test_cpu_pulse
 727              		.syntax unified
 728              		.arm
 729              		.fpu softvfp
 730              		.type	test_cpu_pulse, %function
 731              	test_cpu_pulse:
 732              	.LFB19:
 733              		.loc 1 228 0
 734              		.cfi_startproc
 735              		@ args = 0, pretend = 0, frame = 0
 736              		@ frame_needed = 0, uses_anonymous_args = 0
 737              		@ link register save eliminated.
 738              	.LVL64:
 739              		.loc 1 232 0
 740 0000 803260E0 		rsb	r3, r0, r0, lsl #5
 741 0004 032180E0 		add	r2, r0, r3, lsl #2
ARM GAS  /var/folders/3j/4xdnk5197cv_b7cw3n33qk7r0000gn/T//ccpFleut.s 			page 14


 742              		.loc 1 231 0
 743 0008 68109FE5 		ldr	r1, .L103
 744              		.loc 1 232 0
 745 000c 8221A0E1 		lsl	r2, r2, #3
 746 0010 64309FE5 		ldr	r3, .L103+4
 747              		.loc 1 231 0
 748 0014 18C091E5 		ldr	ip, [r1, #24]
 749              		.loc 1 232 0
 750 0018 FA2F42E2 		sub	r2, r2, #1000
 751 001c 922383E0 		umull	r2, r3, r2, r3
 752              		.loc 1 231 0
 753 0020 20009CE5 		ldr	r0, [ip, #32]
 754              	.LVL65:
 755              		.loc 1 232 0
 756 0024 011080E2 		add	r1, r0, #1
 757 0028 231381E0 		add	r1, r1, r3, lsr #6
 758              	.LVL66:
 759 002c 060000EA 		b	.L99
 760              	.LVL67:
 761              	.L102:
 762              		.loc 1 239 0 discriminator 1
 763 0030 020050E1 		cmp	r0, r2
 764 0034 0130A093 		movls	r3, #1
 765 0038 0030A083 		movhi	r3, #0
 766 003c 020051E1 		cmp	r1, r2
 767 0040 0030A093 		movls	r3, #0
 768              		.loc 1 240 0 discriminator 1
 769 0044 000053E3 		cmp	r3, #0
 770 0048 1EFF2F01 		bxeq	lr
 771              	.LVL68:
 772              	.L99:
 773              		.loc 1 239 0
 774 004c 010050E1 		cmp	r0, r1
 775              		.loc 1 234 0
 776 0050 20209CE5 		ldr	r2, [ip, #32]
 777              	.LVL69:
 778              		.loc 1 239 0
 779 0054 F5FFFF3A 		bcc	.L102
 780              		.loc 1 240 0 discriminator 2
 781 0058 020051E1 		cmp	r1, r2
 782 005c 0030A093 		movls	r3, #0
 783 0060 0130A083 		movhi	r3, #1
 784 0064 020050E1 		cmp	r0, r2
 785 0068 01308393 		orrls	r3, r3, #1
 786 006c 000053E3 		cmp	r3, #0
 787 0070 F5FFFF1A 		bne	.L99
 788 0074 1EFF2FE1 		bx	lr
 789              	.L104:
 790              		.align	2
 791              	.L103:
 792 0078 00000000 		.word	rlist
 793 007c D34D6210 		.word	274877907
 794              		.cfi_endproc
 795              	.LFE19:
 796              		.size	test_cpu_pulse, .-test_cpu_pulse
 797              		.section	.text.test_wait_tick,"ax",%progbits
 798              		.align	2
ARM GAS  /var/folders/3j/4xdnk5197cv_b7cw3n33qk7r0000gn/T//ccpFleut.s 			page 15


 799              		.global	test_wait_tick
 800              		.syntax unified
 801              		.arm
 802              		.fpu softvfp
 803              		.type	test_wait_tick, %function
 804              	test_wait_tick:
 805              	.LFB20:
 806              		.loc 1 249 0
 807              		.cfi_startproc
 808              		@ args = 0, pretend = 0, frame = 0
 809              		@ frame_needed = 0, uses_anonymous_args = 0
 810 0000 10402DE9 		push	{r4, lr}
 811              		.cfi_def_cfa_offset 8
 812              		.cfi_offset 4, -8
 813              		.cfi_offset 14, -4
 814              		.loc 1 251 0
 815 0004 0100A0E3 		mov	r0, #1
 816 0008 FEFFFFEB 		bl	chThdSleep
 817              	.LVL70:
 818              		.loc 1 252 0
 819 000c 04309FE5 		ldr	r3, .L107
 820 0010 0C0093E5 		ldr	r0, [r3, #12]
 821              		.loc 1 253 0
 822 0014 1080BDE8 		pop	{r4, pc}
 823              	.L108:
 824              		.align	2
 825              	.L107:
 826 0018 00000000 		.word	vtlist
 827              		.cfi_endproc
 828              	.LFE20:
 829              		.size	test_wait_tick, .-test_wait_tick
 830              		.section	.text.test_start_timer,"ax",%progbits
 831              		.align	2
 832              		.global	test_start_timer
 833              		.syntax unified
 834              		.arm
 835              		.fpu softvfp
 836              		.type	test_start_timer, %function
 837              	test_start_timer:
 838              	.LFB22:
 839              		.loc 1 276 0
 840              		.cfi_startproc
 841              		@ args = 0, pretend = 0, frame = 0
 842              		@ frame_needed = 0, uses_anonymous_args = 0
 843              	.LVL71:
 844              		.loc 1 279 0
 845 0000 00C0A0E3 		mov	ip, #0
 846 0004 40309FE5 		ldr	r3, .L111
 847              	.LVL72:
 848              		.loc 1 276 0
 849 0008 10402DE9 		push	{r4, lr}
 850              		.cfi_def_cfa_offset 8
 851              		.cfi_offset 4, -8
 852              		.cfi_offset 14, -4
 853              		.loc 1 279 0
 854 000c 00C083E5 		str	ip, [r3]
 855              		.loc 1 280 0
ARM GAS  /var/folders/3j/4xdnk5197cv_b7cw3n33qk7r0000gn/T//ccpFleut.s 			page 16


 856              		.syntax divided
 857              	@ 280 "..//test/test.c" 1
 858 0010 9FF021E3 		msr     CPSR_c, #0x9F
 859              	@ 0 "" 2
 860              		.loc 1 278 0
 861              		.arm
 862              		.syntax unified
 863 0014 802260E0 		rsb	r2, r0, r0, lsl #5
 864 0018 022180E0 		add	r2, r0, r2, lsl #2
 865 001c 8221A0E1 		lsl	r2, r2, #3
 866 0020 28309FE5 		ldr	r3, .L111+4
 867 0024 FA2F42E2 		sub	r2, r2, #1000
 868 0028 922383E0 		umull	r2, r3, r2, r3
 869 002c 2313A0E1 		lsr	r1, r3, #6
 870              		.loc 1 280 0
 871 0030 011081E2 		add	r1, r1, #1
 872 0034 0C30A0E1 		mov	r3, ip
 873 0038 14209FE5 		ldr	r2, .L111+8
 874 003c 14009FE5 		ldr	r0, .L111+12
 875              	.LVL73:
 876 0040 FEFFFFEB 		bl	chVTSetI
 877              	.LVL74:
 878              		.syntax divided
 879              	@ 280 "..//test/test.c" 1
 880 0044 1FF021E3 		msr     CPSR_c, #0x1F
 881              	@ 0 "" 2
 882              		.loc 1 281 0
 883              		.arm
 884              		.syntax unified
 885 0048 1080BDE8 		pop	{r4, pc}
 886              	.L112:
 887              		.align	2
 888              	.L111:
 889 004c 00000000 		.word	test_timer_done
 890 0050 D34D6210 		.word	274877907
 891 0054 00000000 		.word	tmr
 892 0058 00000000 		.word	.LANCHOR6
 893              		.cfi_endproc
 894              	.LFE22:
 895              		.size	test_start_timer, .-test_start_timer
 896              		.section	.text.TestThread,"ax",%progbits
 897              		.align	2
 898              		.global	TestThread
 899              		.syntax unified
 900              		.arm
 901              		.fpu softvfp
 902              		.type	TestThread, %function
 903              	TestThread:
 904              	.LFB25:
 905              		.loc 1 318 0
 906              		.cfi_startproc
 907              		@ args = 0, pretend = 0, frame = 16
 908              		@ frame_needed = 0, uses_anonymous_args = 0
 909              	.LVL75:
 910 0000 F04F2DE9 		push	{r4, r5, r6, r7, r8, r9, r10, fp, lr}
 911              		.cfi_def_cfa_offset 36
 912              		.cfi_offset 4, -36
ARM GAS  /var/folders/3j/4xdnk5197cv_b7cw3n33qk7r0000gn/T//ccpFleut.s 			page 17


 913              		.cfi_offset 5, -32
 914              		.cfi_offset 6, -28
 915              		.cfi_offset 7, -24
 916              		.cfi_offset 8, -20
 917              		.cfi_offset 9, -16
 918              		.cfi_offset 10, -12
 919              		.cfi_offset 11, -8
 920              		.cfi_offset 14, -4
 921              		.loc 1 321 0
 922 0004 D4439FE5 		ldr	r4, .L165
 923              		.loc 1 318 0
 924 0008 14D04DE2 		sub	sp, sp, #20
 925              		.cfi_def_cfa_offset 56
 926              		.loc 1 321 0
 927 000c 000084E5 		str	r0, [r4]
 928              		.loc 1 322 0
 929 0010 CC039FE5 		ldr	r0, .L165+4
 930              	.LVL76:
 931 0014 FEFFFFEB 		bl	test_println
 932              	.LVL77:
 933              		.loc 1 323 0
 934 0018 C8039FE5 		ldr	r0, .L165+8
 935 001c FEFFFFEB 		bl	test_println
 936              	.LVL78:
 937              		.loc 1 324 0
 938 0020 C4039FE5 		ldr	r0, .L165+12
 939 0024 FEFFFFEB 		bl	test_println
 940              	.LVL79:
 941              	.LBB100:
 942              	.LBB101:
 943              		.loc 1 116 0
 944 0028 2A10A0E3 		mov	r1, #42
 945              	.LBE101:
 946              	.LBE100:
 947              		.loc 1 324 0
 948 002c BC539FE5 		ldr	r5, .L165+16
 949              	.LVL80:
 950              	.L114:
 951              	.LBB103:
 952              	.LBB102:
 953              		.loc 1 117 0
 954 0030 000094E5 		ldr	r0, [r4]
 955 0034 003090E5 		ldr	r3, [r0]
 956 0038 083093E5 		ldr	r3, [r3, #8]
 957 003c 33FF2FE1 		blx	r3
 958              	.LVL81:
 959              		.loc 1 116 0
 960 0040 0110F5E5 		ldrb	r1, [r5, #1]!	@ zero_extendqisi2
 961              	.LVL82:
 962 0044 000051E3 		cmp	r1, #0
 963 0048 F8FFFF1A 		bne	.L114
 964              	.LVL83:
 965              	.LBE102:
 966              	.LBE103:
 967              		.loc 1 326 0
 968 004c A0039FE5 		ldr	r0, .L165+20
 969 0050 FEFFFFEB 		bl	test_println
ARM GAS  /var/folders/3j/4xdnk5197cv_b7cw3n33qk7r0000gn/T//ccpFleut.s 			page 18


 970              	.LVL84:
 971              	.LBB104:
 972              	.LBB105:
 973              		.loc 1 116 0
 974 0054 2A10A0E3 		mov	r1, #42
 975              	.LBE105:
 976              	.LBE104:
 977              		.loc 1 326 0
 978 0058 98539FE5 		ldr	r5, .L165+24
 979              	.LVL85:
 980              	.L115:
 981              	.LBB107:
 982              	.LBB106:
 983              		.loc 1 117 0
 984 005c 000094E5 		ldr	r0, [r4]
 985 0060 003090E5 		ldr	r3, [r0]
 986 0064 083093E5 		ldr	r3, [r3, #8]
 987 0068 33FF2FE1 		blx	r3
 988              	.LVL86:
 989              		.loc 1 116 0
 990 006c 0110F5E5 		ldrb	r1, [r5, #1]!	@ zero_extendqisi2
 991              	.LVL87:
 992 0070 000051E3 		cmp	r1, #0
 993 0074 F8FFFF1A 		bne	.L115
 994              	.LVL88:
 995              	.LBE106:
 996              	.LBE107:
 997              		.loc 1 328 0
 998 0078 7C039FE5 		ldr	r0, .L165+28
 999 007c FEFFFFEB 		bl	test_println
 1000              	.LVL89:
 1001              	.LBB108:
 1002              	.LBB109:
 1003              		.loc 1 116 0
 1004 0080 2A10A0E3 		mov	r1, #42
 1005              	.LBE109:
 1006              	.LBE108:
 1007              		.loc 1 328 0
 1008 0084 74539FE5 		ldr	r5, .L165+32
 1009              	.LVL90:
 1010              	.L116:
 1011              	.LBB111:
 1012              	.LBB110:
 1013              		.loc 1 117 0
 1014 0088 000094E5 		ldr	r0, [r4]
 1015 008c 003090E5 		ldr	r3, [r0]
 1016 0090 083093E5 		ldr	r3, [r3, #8]
 1017 0094 33FF2FE1 		blx	r3
 1018              	.LVL91:
 1019              		.loc 1 116 0
 1020 0098 0110F5E5 		ldrb	r1, [r5, #1]!	@ zero_extendqisi2
 1021              	.LVL92:
 1022 009c 000051E3 		cmp	r1, #0
 1023 00a0 F8FFFF1A 		bne	.L116
 1024              	.LVL93:
 1025              	.LBE110:
 1026              	.LBE111:
ARM GAS  /var/folders/3j/4xdnk5197cv_b7cw3n33qk7r0000gn/T//ccpFleut.s 			page 19


 1027              		.loc 1 331 0
 1028 00a4 58039FE5 		ldr	r0, .L165+36
 1029 00a8 FEFFFFEB 		bl	test_println
 1030              	.LVL94:
 1031              	.LBB112:
 1032              	.LBB113:
 1033              		.loc 1 116 0
 1034 00ac 2A10A0E3 		mov	r1, #42
 1035              	.LBE113:
 1036              	.LBE112:
 1037              		.loc 1 331 0
 1038 00b0 50539FE5 		ldr	r5, .L165+40
 1039              	.LVL95:
 1040              	.L117:
 1041              	.LBB115:
 1042              	.LBB114:
 1043              		.loc 1 117 0
 1044 00b4 000094E5 		ldr	r0, [r4]
 1045 00b8 003090E5 		ldr	r3, [r0]
 1046 00bc 083093E5 		ldr	r3, [r3, #8]
 1047 00c0 33FF2FE1 		blx	r3
 1048              	.LVL96:
 1049              		.loc 1 116 0
 1050 00c4 0110F5E5 		ldrb	r1, [r5, #1]!	@ zero_extendqisi2
 1051              	.LVL97:
 1052 00c8 000051E3 		cmp	r1, #0
 1053 00cc F8FFFF1A 		bne	.L117
 1054              	.LVL98:
 1055              	.LBE114:
 1056              	.LBE115:
 1057              		.loc 1 334 0
 1058 00d0 34039FE5 		ldr	r0, .L165+44
 1059 00d4 FEFFFFEB 		bl	test_println
 1060              	.LVL99:
 1061              	.LBB116:
 1062              	.LBB117:
 1063              		.loc 1 116 0
 1064 00d8 2A10A0E3 		mov	r1, #42
 1065              	.LBE117:
 1066              	.LBE116:
 1067              		.loc 1 334 0
 1068 00dc 2C539FE5 		ldr	r5, .L165+48
 1069              	.LVL100:
 1070              	.L118:
 1071              	.LBB119:
 1072              	.LBB118:
 1073              		.loc 1 117 0
 1074 00e0 000094E5 		ldr	r0, [r4]
 1075 00e4 003090E5 		ldr	r3, [r0]
 1076 00e8 083093E5 		ldr	r3, [r3, #8]
 1077 00ec 33FF2FE1 		blx	r3
 1078              	.LVL101:
 1079              		.loc 1 116 0
 1080 00f0 0110F5E5 		ldrb	r1, [r5, #1]!	@ zero_extendqisi2
 1081              	.LVL102:
 1082 00f4 000051E3 		cmp	r1, #0
 1083 00f8 F8FFFF1A 		bne	.L118
ARM GAS  /var/folders/3j/4xdnk5197cv_b7cw3n33qk7r0000gn/T//ccpFleut.s 			page 20


 1084              	.LVL103:
 1085              	.LBE118:
 1086              	.LBE119:
 1087              		.loc 1 337 0
 1088 00fc 10039FE5 		ldr	r0, .L165+52
 1089 0100 FEFFFFEB 		bl	test_println
 1090              	.LVL104:
 1091              	.LBB120:
 1092              	.LBB121:
 1093              		.loc 1 116 0
 1094 0104 2A10A0E3 		mov	r1, #42
 1095              	.LBE121:
 1096              	.LBE120:
 1097              		.loc 1 337 0
 1098 0108 08539FE5 		ldr	r5, .L165+56
 1099              	.LVL105:
 1100              	.L119:
 1101              	.LBB123:
 1102              	.LBB122:
 1103              		.loc 1 117 0
 1104 010c 000094E5 		ldr	r0, [r4]
 1105 0110 003090E5 		ldr	r3, [r0]
 1106 0114 083093E5 		ldr	r3, [r3, #8]
 1107 0118 33FF2FE1 		blx	r3
 1108              	.LVL106:
 1109              		.loc 1 116 0
 1110 011c 0110F5E5 		ldrb	r1, [r5, #1]!	@ zero_extendqisi2
 1111              	.LVL107:
 1112 0120 000051E3 		cmp	r1, #0
 1113 0124 F8FFFF1A 		bne	.L119
 1114              	.LVL108:
 1115              	.LBE122:
 1116              	.LBE123:
 1117              		.loc 1 341 0
 1118 0128 EC029FE5 		ldr	r0, .L165+60
 1119 012c FEFFFFEB 		bl	test_println
 1120              	.LVL109:
 1121              	.LBB124:
 1122              	.LBB125:
 1123              		.loc 1 116 0
 1124 0130 2A10A0E3 		mov	r1, #42
 1125              	.LBE125:
 1126              	.LBE124:
 1127              		.loc 1 341 0
 1128 0134 E4529FE5 		ldr	r5, .L165+64
 1129              	.LVL110:
 1130              	.L120:
 1131              	.LBB127:
 1132              	.LBB126:
 1133              		.loc 1 117 0
 1134 0138 000094E5 		ldr	r0, [r4]
 1135 013c 003090E5 		ldr	r3, [r0]
 1136 0140 083093E5 		ldr	r3, [r3, #8]
 1137 0144 33FF2FE1 		blx	r3
 1138              	.LVL111:
 1139              		.loc 1 116 0
 1140 0148 0110F5E5 		ldrb	r1, [r5, #1]!	@ zero_extendqisi2
ARM GAS  /var/folders/3j/4xdnk5197cv_b7cw3n33qk7r0000gn/T//ccpFleut.s 			page 21


 1141              	.LVL112:
 1142 014c 000051E3 		cmp	r1, #0
 1143 0150 F8FFFF1A 		bne	.L120
 1144              	.LBE126:
 1145              	.LBE127:
 1146              		.loc 1 345 0
 1147 0154 C8029FE5 		ldr	r0, .L165+68
 1148 0158 04108DE5 		str	r1, [sp, #4]
 1149              	.LVL113:
 1150 015c FEFFFFEB 		bl	test_println
 1151              	.LVL114:
 1152              		.loc 1 351 0
 1153 0160 7C029FE5 		ldr	r0, .L165+4
 1154 0164 FEFFFFEB 		bl	test_println
 1155              	.LVL115:
 1156              		.loc 1 353 0
 1157 0168 B8329FE5 		ldr	r3, .L165+72
 1158              		.loc 1 354 0
 1159 016c 04109DE5 		ldr	r1, [sp, #4]
 1160              		.loc 1 353 0
 1161 0170 B4729FE5 		ldr	r7, .L165+76
 1162 0174 001083E5 		str	r1, [r3]
 1163              	.LVL116:
 1164 0178 B0329FE5 		ldr	r3, .L165+80
 1165              	.LBB128:
 1166              	.LBB129:
 1167              	.LBB130:
 1168              	.LBB131:
 1169              		.loc 1 136 0
 1170 017c B0829FE5 		ldr	r8, .L165+84
 1171 0180 0C308DE5 		str	r3, [sp, #12]
 1172              	.LBE131:
 1173              	.LBE130:
 1174              	.LBE129:
 1175              	.LBE128:
 1176              		.loc 1 353 0
 1177 0184 AC329FE5 		ldr	r3, .L165+88
 1178              	.LBB140:
 1179              	.LBB136:
 1180              	.LBB134:
 1181              	.LBB132:
 1182              		.loc 1 136 0
 1183 0188 ACB29FE5 		ldr	fp, .L165+92
 1184              	.LBE132:
 1185              	.LBE134:
 1186              		.loc 1 291 0
 1187 018c ACA29FE5 		ldr	r10, .L165+96
 1188              	.LBE136:
 1189              	.LBE140:
 1190              		.loc 1 353 0
 1191 0190 08308DE5 		str	r3, [sp, #8]
 1192              	.LVL117:
 1193              	.L121:
 1194              		.loc 1 356 0
 1195 0194 0090A0E3 		mov	r9, #0
 1196 0198 04309DE5 		ldr	r3, [sp, #4]
 1197              	.LBB141:
ARM GAS  /var/folders/3j/4xdnk5197cv_b7cw3n33qk7r0000gn/T//ccpFleut.s 			page 22


 1198              	.LBB137:
 1199              		.loc 1 293 0
 1200 019c A0629FE5 		ldr	r6, .L165+100
 1201 01a0 013083E2 		add	r3, r3, #1
 1202 01a4 04308DE5 		str	r3, [sp, #4]
 1203              	.LVL118:
 1204 01a8 047047E2 		sub	r7, r7, #4
 1205              	.LVL119:
 1206              	.L136:
 1207              	.LBE137:
 1208              	.LBE141:
 1209              		.loc 1 357 0
 1210 01ac 0430B7E5 		ldr	r3, [r7, #4]!
 1211 01b0 000053E3 		cmp	r3, #0
 1212 01b4 6900000A 		beq	.L164
 1213              	.L134:
 1214              		.loc 1 358 0
 1215 01b8 FEFFFFEB 		bl	print_line
 1216              	.LVL120:
 1217              	.LBB142:
 1218              	.LBB143:
 1219              		.loc 1 116 0
 1220 01bc 2D10A0E3 		mov	r1, #45
 1221              	.LBE143:
 1222              	.LBE142:
 1223              		.loc 1 358 0
 1224 01c0 80529FE5 		ldr	r5, .L165+104
 1225              	.LVL121:
 1226              	.L122:
 1227              	.LBB145:
 1228              	.LBB144:
 1229              		.loc 1 117 0
 1230 01c4 000094E5 		ldr	r0, [r4]
 1231 01c8 003090E5 		ldr	r3, [r0]
 1232 01cc 083093E5 		ldr	r3, [r3, #8]
 1233 01d0 33FF2FE1 		blx	r3
 1234              	.LVL122:
 1235              		.loc 1 116 0
 1236 01d4 0110F5E5 		ldrb	r1, [r5, #1]!	@ zero_extendqisi2
 1237              	.LVL123:
 1238 01d8 000051E3 		cmp	r1, #0
 1239 01dc F8FFFF1A 		bne	.L122
 1240              	.LVL124:
 1241              	.LBE144:
 1242              	.LBE145:
 1243              		.loc 1 360 0
 1244 01e0 04009DE5 		ldr	r0, [sp, #4]
 1245 01e4 FEFFFFEB 		bl	test_printn
 1246              	.LVL125:
 1247              	.LBB146:
 1248              	.LBB147:
 1249              		.loc 1 117 0
 1250 01e8 000094E5 		ldr	r0, [r4]
 1251              	.LVL126:
 1252 01ec 2E10A0E3 		mov	r1, #46
 1253 01f0 003090E5 		ldr	r3, [r0]
 1254              	.LBE147:
ARM GAS  /var/folders/3j/4xdnk5197cv_b7cw3n33qk7r0000gn/T//ccpFleut.s 			page 23


 1255              	.LBE146:
 1256              		.loc 1 362 0
 1257 01f4 019089E2 		add	r9, r9, #1
 1258              	.LVL127:
 1259              	.LBB149:
 1260              	.LBB148:
 1261              		.loc 1 117 0
 1262 01f8 083093E5 		ldr	r3, [r3, #8]
 1263 01fc 33FF2FE1 		blx	r3
 1264              	.LVL128:
 1265              	.LBE148:
 1266              	.LBE149:
 1267              		.loc 1 362 0
 1268 0200 0900A0E1 		mov	r0, r9
 1269 0204 FEFFFFEB 		bl	test_printn
 1270              	.LVL129:
 1271              	.LBB150:
 1272              	.LBB151:
 1273              		.loc 1 116 0
 1274 0208 2010A0E3 		mov	r1, #32
 1275              	.LBE151:
 1276              	.LBE150:
 1277              		.loc 1 362 0
 1278 020c 38529FE5 		ldr	r5, .L165+108
 1279              	.LVL130:
 1280              	.L123:
 1281              	.LBB153:
 1282              	.LBB152:
 1283              		.loc 1 117 0
 1284 0210 000094E5 		ldr	r0, [r4]
 1285 0214 003090E5 		ldr	r3, [r0]
 1286 0218 083093E5 		ldr	r3, [r3, #8]
 1287 021c 33FF2FE1 		blx	r3
 1288              	.LVL131:
 1289              		.loc 1 116 0
 1290 0220 0110F5E5 		ldrb	r1, [r5, #1]!	@ zero_extendqisi2
 1291              	.LVL132:
 1292 0224 000051E3 		cmp	r1, #0
 1293 0228 F8FFFF1A 		bne	.L123
 1294              	.LVL133:
 1295              	.LBE152:
 1296              	.LBE153:
 1297              		.loc 1 364 0
 1298 022c 003097E5 		ldr	r3, [r7]
 1299 0230 005093E5 		ldr	r5, [r3]
 1300              	.LVL134:
 1301              	.LBB154:
 1302              	.LBB155:
 1303              		.loc 1 116 0
 1304 0234 0010D5E5 		ldrb	r1, [r5]	@ zero_extendqisi2
 1305 0238 000051E3 		cmp	r1, #0
 1306 023c 0600000A 		beq	.L124
 1307              	.LVL135:
 1308              	.L125:
 1309              		.loc 1 117 0
 1310 0240 000094E5 		ldr	r0, [r4]
 1311 0244 003090E5 		ldr	r3, [r0]
ARM GAS  /var/folders/3j/4xdnk5197cv_b7cw3n33qk7r0000gn/T//ccpFleut.s 			page 24


 1312 0248 083093E5 		ldr	r3, [r3, #8]
 1313 024c 33FF2FE1 		blx	r3
 1314              	.LVL136:
 1315              		.loc 1 116 0
 1316 0250 0110F5E5 		ldrb	r1, [r5, #1]!	@ zero_extendqisi2
 1317              	.LVL137:
 1318 0254 000051E3 		cmp	r1, #0
 1319 0258 F8FFFF1A 		bne	.L125
 1320              	.LVL138:
 1321              	.L124:
 1322              	.LBE155:
 1323              	.LBE154:
 1324              		.loc 1 365 0
 1325 025c EC019FE5 		ldr	r0, .L165+112
 1326 0260 FEFFFFEB 		bl	test_println
 1327              	.LVL139:
 1328              		.loc 1 367 0
 1329 0264 C800A0E3 		mov	r0, #200
 1330 0268 FEFFFFEB 		bl	chThdSleep
 1331              	.LVL140:
 1332              	.LBB156:
 1333              	.LBB138:
 1334              		.loc 1 291 0
 1335 026c 0030A0E3 		mov	r3, #0
 1336              	.LBE138:
 1337              	.LBE156:
 1338              		.loc 1 369 0
 1339 0270 005097E5 		ldr	r5, [r7]
 1340              	.LVL141:
 1341              	.LBB157:
 1342              	.LBB139:
 1343              	.LBB135:
 1344              	.LBB133:
 1345              		.loc 1 136 0
 1346 0274 00B088E5 		str	fp, [r8]
 1347              	.LBE133:
 1348              	.LBE135:
 1349              		.loc 1 295 0
 1350 0278 042095E5 		ldr	r2, [r5, #4]
 1351              		.loc 1 291 0
 1352 027c 00308AE5 		str	r3, [r10]
 1353              	.LVL142:
 1354              		.loc 1 295 0
 1355 0280 030052E1 		cmp	r2, r3
 1356              		.loc 1 293 0
 1357 0284 003086E5 		str	r3, [r6]
 1358              	.LVL143:
 1359 0288 043086E5 		str	r3, [r6, #4]
 1360              	.LVL144:
 1361 028c 083086E5 		str	r3, [r6, #8]
 1362              	.LVL145:
 1363 0290 0C3086E5 		str	r3, [r6, #12]
 1364              	.LVL146:
 1365 0294 103086E5 		str	r3, [r6, #16]
 1366              	.LVL147:
 1367              		.loc 1 295 0
 1368 0298 0000000A 		beq	.L126
ARM GAS  /var/folders/3j/4xdnk5197cv_b7cw3n33qk7r0000gn/T//ccpFleut.s 			page 25


 1369              		.loc 1 296 0
 1370 029c 32FF2FE1 		blx	r2
 1371              	.LVL148:
 1372              	.L126:
 1373              		.loc 1 297 0
 1374 02a0 0C3095E5 		ldr	r3, [r5, #12]
 1375 02a4 33FF2FE1 		blx	r3
 1376              	.LVL149:
 1377              		.loc 1 298 0
 1378 02a8 083095E5 		ldr	r3, [r5, #8]
 1379 02ac 000053E3 		cmp	r3, #0
 1380 02b0 0000000A 		beq	.L127
 1381              		.loc 1 299 0
 1382 02b4 33FF2FE1 		blx	r3
 1383              	.LVL150:
 1384              	.L127:
 1385              		.loc 1 301 0
 1386 02b8 FEFFFFEB 		bl	test_wait_threads
 1387              	.LVL151:
 1388              	.LBE139:
 1389              	.LBE157:
 1390              		.loc 1 370 0
 1391 02bc 00309AE5 		ldr	r3, [r10]
 1392 02c0 000053E3 		cmp	r3, #0
 1393 02c4 2C00000A 		beq	.L128
 1394              	.LBB158:
 1395              	.LBB159:
 1396              		.loc 1 116 0
 1397 02c8 2D10A0E3 		mov	r1, #45
 1398              	.LBE159:
 1399              	.LBE158:
 1400 02cc 80519FE5 		ldr	r5, .L165+116
 1401              	.L129:
 1402              	.LVL152:
 1403              	.LBB161:
 1404              	.LBB160:
 1405              		.loc 1 117 0
 1406 02d0 000094E5 		ldr	r0, [r4]
 1407 02d4 003090E5 		ldr	r3, [r0]
 1408 02d8 083093E5 		ldr	r3, [r3, #8]
 1409 02dc 33FF2FE1 		blx	r3
 1410              	.LVL153:
 1411              		.loc 1 116 0
 1412 02e0 0110F5E5 		ldrb	r1, [r5, #1]!	@ zero_extendqisi2
 1413              	.LVL154:
 1414 02e4 000051E3 		cmp	r1, #0
 1415 02e8 F8FFFF1A 		bne	.L129
 1416              	.LVL155:
 1417              	.LBE160:
 1418              	.LBE161:
 1419              		.loc 1 372 0
 1420 02ec 64319FE5 		ldr	r3, .L165+120
 1421 02f0 64519FE5 		ldr	r5, .L165+124
 1422 02f4 000093E5 		ldr	r0, [r3]
 1423 02f8 FEFFFFEB 		bl	test_printn
 1424              	.LVL156:
 1425              	.LBB162:
ARM GAS  /var/folders/3j/4xdnk5197cv_b7cw3n33qk7r0000gn/T//ccpFleut.s 			page 26


 1426              	.LBB163:
 1427              		.loc 1 116 0
 1428 02fc 2010A0E3 		mov	r1, #32
 1429              	.LVL157:
 1430              	.L130:
 1431              		.loc 1 117 0
 1432 0300 000094E5 		ldr	r0, [r4]
 1433 0304 003090E5 		ldr	r3, [r0]
 1434 0308 083093E5 		ldr	r3, [r3, #8]
 1435 030c 33FF2FE1 		blx	r3
 1436              	.LVL158:
 1437              		.loc 1 116 0
 1438 0310 0110F5E5 		ldrb	r1, [r5, #1]!	@ zero_extendqisi2
 1439              	.LVL159:
 1440 0314 000051E3 		cmp	r1, #0
 1441 0318 F8FFFF1A 		bne	.L130
 1442              	.LVL160:
 1443              	.LBE163:
 1444              	.LBE162:
 1445              	.LBB164:
 1446              	.LBB165:
 1447              		.loc 1 142 0
 1448 031c 003098E5 		ldr	r3, [r8]
 1449 0320 0B0053E1 		cmp	r3, fp
 1450 0324 0800009A 		bls	.L131
 1451              		.loc 1 140 0
 1452 0328 0C519FE5 		ldr	r5, .L165+92
 1453              	.LVL161:
 1454              	.L132:
 1455              		.loc 1 143 0
 1456 032c 000094E5 		ldr	r0, [r4]
 1457 0330 0110D5E4 		ldrb	r1, [r5], #1	@ zero_extendqisi2
 1458              	.LVL162:
 1459 0334 003090E5 		ldr	r3, [r0]
 1460 0338 083093E5 		ldr	r3, [r3, #8]
 1461 033c 33FF2FE1 		blx	r3
 1462              	.LVL163:
 1463              		.loc 1 142 0
 1464 0340 003098E5 		ldr	r3, [r8]
 1465 0344 030055E1 		cmp	r5, r3
 1466 0348 F7FFFF3A 		bcc	.L132
 1467              	.LVL164:
 1468              	.L131:
 1469              	.LBE165:
 1470              	.LBE164:
 1471              		.loc 1 375 0
 1472 034c 0C019FE5 		ldr	r0, .L165+128
 1473 0350 FEFFFFEB 		bl	test_println
 1474              	.LVL165:
 1475              		.loc 1 357 0
 1476 0354 0430B7E5 		ldr	r3, [r7, #4]!
 1477 0358 000053E3 		cmp	r3, #0
 1478 035c 95FFFF1A 		bne	.L134
 1479              	.L164:
 1480              	.LVL166:
 1481              		.loc 1 355 0
 1482 0360 08709DE5 		ldr	r7, [sp, #8]
ARM GAS  /var/folders/3j/4xdnk5197cv_b7cw3n33qk7r0000gn/T//ccpFleut.s 			page 27


 1483 0364 000057E3 		cmp	r7, #0
 1484 0368 0600000A 		beq	.L135
 1485              		.loc 1 381 0
 1486 036c 0C309DE5 		ldr	r3, [sp, #12]
 1487 0370 042093E4 		ldr	r2, [r3], #4
 1488 0374 F820CDE1 		strd	r2, [sp, #8]
 1489 0378 85FFFFEA 		b	.L121
 1490              	.LVL167:
 1491              	.L128:
 1492              		.loc 1 378 0
 1493 037c E0009FE5 		ldr	r0, .L165+132
 1494 0380 FEFFFFEB 		bl	test_println
 1495              	.LVL168:
 1496 0384 88FFFFEA 		b	.L136
 1497              	.LVL169:
 1498              	.L135:
 1499              		.loc 1 383 0
 1500 0388 FEFFFFEB 		bl	print_line
 1501              	.LVL170:
 1502              		.loc 1 384 0
 1503 038c 50009FE5 		ldr	r0, .L165+4
 1504 0390 FEFFFFEB 		bl	test_println
 1505              	.LVL171:
 1506              	.LBB166:
 1507              	.LBB167:
 1508              		.loc 1 116 0
 1509 0394 4610A0E3 		mov	r1, #70
 1510              	.LBE167:
 1511              	.LBE166:
 1512              		.loc 1 384 0
 1513 0398 C8509FE5 		ldr	r5, .L165+136
 1514              	.LVL172:
 1515              	.L137:
 1516              	.LBB169:
 1517              	.LBB168:
 1518              		.loc 1 117 0
 1519 039c 000094E5 		ldr	r0, [r4]
 1520 03a0 003090E5 		ldr	r3, [r0]
 1521 03a4 083093E5 		ldr	r3, [r3, #8]
 1522 03a8 33FF2FE1 		blx	r3
 1523              	.LVL173:
 1524              		.loc 1 116 0
 1525 03ac 0110F5E5 		ldrb	r1, [r5, #1]!	@ zero_extendqisi2
 1526              	.LVL174:
 1527 03b0 000051E3 		cmp	r1, #0
 1528 03b4 F8FFFF1A 		bne	.L137
 1529              	.LVL175:
 1530              	.LBE168:
 1531              	.LBE169:
 1532              		.loc 1 386 0
 1533 03b8 68309FE5 		ldr	r3, .L165+72
 1534 03bc 003093E5 		ldr	r3, [r3]
 1535 03c0 000053E3 		cmp	r3, #0
 1536              		.loc 1 387 0
 1537 03c4 A0009F15 		ldrne	r0, .L165+140
 1538              		.loc 1 389 0
 1539 03c8 A0009F05 		ldreq	r0, .L165+144
ARM GAS  /var/folders/3j/4xdnk5197cv_b7cw3n33qk7r0000gn/T//ccpFleut.s 			page 28


 1540 03cc FEFFFFEB 		bl	test_println
 1541              	.LVL176:
 1542              		.loc 1 392 0
 1543 03d0 50309FE5 		ldr	r3, .L165+72
 1544 03d4 000093E5 		ldr	r0, [r3]
 1545 03d8 14D08DE2 		add	sp, sp, #20
 1546              		.cfi_def_cfa_offset 36
 1547              		@ sp needed
 1548 03dc F08FBDE8 		pop	{r4, r5, r6, r7, r8, r9, r10, fp, pc}
 1549              	.LVL177:
 1550              	.L166:
 1551              		.align	2
 1552              	.L165:
 1553 03e0 00000000 		.word	.LANCHOR0
 1554 03e4 CC000000 		.word	.LC13
 1555 03e8 D0000000 		.word	.LC14
 1556 03ec EC000000 		.word	.LC15
 1557 03f0 00000000 		.word	.LC1
 1558 03f4 F0000000 		.word	.LC16
 1559 03f8 14000000 		.word	.LC2
 1560 03fc 00010000 		.word	.LC17
 1561 0400 28000000 		.word	.LC3
 1562 0404 18010000 		.word	.LC18
 1563 0408 3C000000 		.word	.LC4
 1564 040c 60010000 		.word	.LC19
 1565 0410 50000000 		.word	.LC5
 1566 0414 68010000 		.word	.LC20
 1567 0418 64000000 		.word	.LC6
 1568 041c 78010000 		.word	.LC21
 1569 0420 78000000 		.word	.LC7
 1570 0424 88010000 		.word	.LC22
 1571 0428 00000000 		.word	.LANCHOR3
 1572 042c 00000000 		.word	patternthd
 1573 0430 08000000 		.word	.LANCHOR7+8
 1574 0434 00000000 		.word	.LANCHOR1
 1575 0438 00000000 		.word	patternsem
 1576 043c 00000000 		.word	.LANCHOR5
 1577 0440 00000000 		.word	.LANCHOR2
 1578 0444 00000000 		.word	threads
 1579 0448 8C000000 		.word	.LC8
 1580 044c 9C000000 		.word	.LC9
 1581 0450 90010000 		.word	.LC23
 1582 0454 A0000000 		.word	.LC10
 1583 0458 00000000 		.word	.LANCHOR4
 1584 045c B8000000 		.word	.LC11
 1585 0460 94010000 		.word	.LC24
 1586 0464 98010000 		.word	.LC25
 1587 0468 BC000000 		.word	.LC12
 1588 046c AC010000 		.word	.LC26
 1589 0470 B4010000 		.word	.LC27
 1590              		.cfi_endproc
 1591              	.LFE25:
 1592              		.size	TestThread, .-TestThread
 1593              		.comm	test_timer_done,4,4
 1594              		.global	wa
 1595              		.comm	threads,20,4
 1596              		.comm	test,1400,4
ARM GAS  /var/folders/3j/4xdnk5197cv_b7cw3n33qk7r0000gn/T//ccpFleut.s 			page 29


 1597              		.section	.bss.chp,"aw",%nobits
 1598              		.align	2
 1599              		.set	.LANCHOR0,. + 0
 1600              		.type	chp, %object
 1601              		.size	chp, 4
 1602              	chp:
 1603 0000 00000000 		.space	4
 1604              		.section	.bss.failpoint,"aw",%nobits
 1605              		.align	2
 1606              		.set	.LANCHOR4,. + 0
 1607              		.type	failpoint, %object
 1608              		.size	failpoint, 4
 1609              	failpoint:
 1610 0000 00000000 		.space	4
 1611              		.section	.bss.global_fail,"aw",%nobits
 1612              		.align	2
 1613              		.set	.LANCHOR3,. + 0
 1614              		.type	global_fail, %object
 1615              		.size	global_fail, 4
 1616              	global_fail:
 1617 0000 00000000 		.space	4
 1618              		.section	.bss.local_fail,"aw",%nobits
 1619              		.align	2
 1620              		.set	.LANCHOR2,. + 0
 1621              		.type	local_fail, %object
 1622              		.size	local_fail, 4
 1623              	local_fail:
 1624 0000 00000000 		.space	4
 1625              		.section	.bss.tokens_buffer,"aw",%nobits
 1626              		.align	2
 1627              		.set	.LANCHOR5,. + 0
 1628              		.type	tokens_buffer, %object
 1629              		.size	tokens_buffer, 16
 1630              	tokens_buffer:
 1631 0000 00000000 		.space	16
 1631      00000000 
 1631      00000000 
 1631      00000000 
 1632              		.section	.bss.tokp,"aw",%nobits
 1633              		.align	2
 1634              		.set	.LANCHOR1,. + 0
 1635              		.type	tokp, %object
 1636              		.size	tokp, 4
 1637              	tokp:
 1638 0000 00000000 		.space	4
 1639              		.section	.bss.vt,"aw",%nobits
 1640              		.align	2
 1641              		.set	.LANCHOR6,. + 0
 1642              		.type	vt, %object
 1643              		.size	vt, 20
 1644              	vt:
 1645 0000 00000000 		.space	20
 1645      00000000 
 1645      00000000 
 1645      00000000 
 1645      00000000 
 1646              		.section	.rodata.TestThread.str1.4,"aMS",%progbits,1
ARM GAS  /var/folders/3j/4xdnk5197cv_b7cw3n33qk7r0000gn/T//ccpFleut.s 			page 30


 1647              		.align	2
 1648              	.LC1:
 1649 0000 2A2A2A20 		.ascii	"*** Kernel:       \000"
 1649      4B65726E 
 1649      656C3A20 
 1649      20202020 
 1649      202000
 1650 0013 00       		.space	1
 1651              	.LC2:
 1652 0014 2A2A2A20 		.ascii	"*** Compiled:     \000"
 1652      436F6D70 
 1652      696C6564 
 1652      3A202020 
 1652      202000
 1653 0027 00       		.space	1
 1654              	.LC3:
 1655 0028 2A2A2A20 		.ascii	"*** Compiler:     \000"
 1655      436F6D70 
 1655      696C6572 
 1655      3A202020 
 1655      202000
 1656 003b 00       		.space	1
 1657              	.LC4:
 1658 003c 2A2A2A20 		.ascii	"*** Architecture: \000"
 1658      41726368 
 1658      69746563 
 1658      74757265 
 1658      3A2000
 1659 004f 00       		.space	1
 1660              	.LC5:
 1661 0050 2A2A2A20 		.ascii	"*** Core Variant: \000"
 1661      436F7265 
 1661      20566172 
 1661      69616E74 
 1661      3A2000
 1662 0063 00       		.space	1
 1663              	.LC6:
 1664 0064 2A2A2A20 		.ascii	"*** Port Info:    \000"
 1664      506F7274 
 1664      20496E66 
 1664      6F3A2020 
 1664      202000
 1665 0077 00       		.space	1
 1666              	.LC7:
 1667 0078 2A2A2A20 		.ascii	"*** Platform:     \000"
 1667      506C6174 
 1667      666F726D 
 1667      3A202020 
 1667      202000
 1668 008b 00       		.space	1
 1669              	.LC8:
 1670 008c 2D2D2D20 		.ascii	"--- Test Case \000"
 1670      54657374 
 1670      20436173 
 1670      652000
 1671 009b 00       		.space	1
 1672              	.LC9:
ARM GAS  /var/folders/3j/4xdnk5197cv_b7cw3n33qk7r0000gn/T//ccpFleut.s 			page 31


 1673 009c 202800   		.ascii	" (\000"
 1674 009f 00       		.space	1
 1675              	.LC10:
 1676 00a0 2D2D2D20 		.ascii	"--- Result: FAILURE (#\000"
 1676      52657375 
 1676      6C743A20 
 1676      4641494C 
 1676      55524520 
 1677 00b7 00       		.space	1
 1678              	.LC11:
 1679 00b8 205B00   		.ascii	" [\000"
 1680 00bb 00       		.space	1
 1681              	.LC12:
 1682 00bc 46696E61 		.ascii	"Final result: \000"
 1682      6C207265 
 1682      73756C74 
 1682      3A2000
 1683 00cb 00       		.space	1
 1684              	.LC13:
 1685 00cc 00       		.ascii	"\000"
 1686 00cd 000000   		.space	3
 1687              	.LC14:
 1688 00d0 2A2A2A20 		.ascii	"*** ChibiOS/RT test suite\000"
 1688      43686962 
 1688      694F532F 
 1688      52542074 
 1688      65737420 
 1689 00ea 0000     		.space	2
 1690              	.LC15:
 1691 00ec 2A2A2A00 		.ascii	"***\000"
 1692              	.LC16:
 1693 00f0 322E352E 		.ascii	"2.5.1unstable\000"
 1693      31756E73 
 1693      7461626C 
 1693      6500
 1694 00fe 0000     		.space	2
 1695              	.LC17:
 1696 0100 4A756C20 		.ascii	"Jul 22 2020 - 10:40:08\000"
 1696      32322032 
 1696      30323020 
 1696      2D203130 
 1696      3A34303A 
 1697 0117 00       		.space	1
 1698              	.LC18:
 1699 0118 47434320 		.ascii	"GCC 7.3.1 20180622 (release) [ARM/embedded-7-branch"
 1699      372E332E 
 1699      31203230 
 1699      31383036 
 1699      32322028 
 1700 014b 20726576 		.ascii	" revision 261907]\000"
 1700      6973696F 
 1700      6E203236 
 1700      31393037 
 1700      5D00
 1701 015d 000000   		.space	3
 1702              	.LC19:
 1703 0160 41524D31 		.ascii	"ARM11\000"
ARM GAS  /var/folders/3j/4xdnk5197cv_b7cw3n33qk7r0000gn/T//ccpFleut.s 			page 32


 1703      3100
 1704 0166 0000     		.space	2
 1705              	.LC20:
 1706 0168 41524D31 		.ascii	"ARM1176JZF-S\000"
 1706      3137364A 
 1706      5A462D53 
 1706      00
 1707 0175 000000   		.space	3
 1708              	.LC21:
 1709 0178 50757265 		.ascii	"Pure ARM mode\000"
 1709      2041524D 
 1709      206D6F64 
 1709      6500
 1710 0186 0000     		.space	2
 1711              	.LC22:
 1712 0188 42434D32 		.ascii	"BCM2835\000"
 1712      38333500 
 1713              	.LC23:
 1714 0190 2900     		.ascii	")\000"
 1715 0192 0000     		.space	2
 1716              	.LC24:
 1717 0194 5D2900   		.ascii	"])\000"
 1718 0197 00       		.space	1
 1719              	.LC25:
 1720 0198 2D2D2D20 		.ascii	"--- Result: SUCCESS\000"
 1720      52657375 
 1720      6C743A20 
 1720      53554343 
 1720      45535300 
 1721              	.LC26:
 1722 01ac 4641494C 		.ascii	"FAILURE\000"
 1722      55524500 
 1723              	.LC27:
 1724 01b4 53554343 		.ascii	"SUCCESS\000"
 1724      45535300 
 1725              		.section	.rodata.patterns,"a",%progbits
 1726              		.align	2
 1727              		.set	.LANCHOR7,. + 0
 1728              		.type	patterns, %object
 1729              		.size	patterns, 48
 1730              	patterns:
 1731 0000 00000000 		.word	patternthd
 1732 0004 00000000 		.word	patternsem
 1733 0008 00000000 		.word	patternmtx
 1734 000c 00000000 		.word	patternmsg
 1735 0010 00000000 		.word	patternmbox
 1736 0014 00000000 		.word	patternevt
 1737 0018 00000000 		.word	patternheap
 1738 001c 00000000 		.word	patternpools
 1739 0020 00000000 		.word	patterndyn
 1740 0024 00000000 		.word	patternqueues
 1741 0028 00000000 		.word	patternbmk
 1742 002c 00000000 		.word	0
 1743              		.section	.rodata.print_line.str1.4,"aMS",%progbits,1
 1744              		.align	2
 1745              	.LC0:
 1746 0000 0D0A00   		.ascii	"\015\012\000"
ARM GAS  /var/folders/3j/4xdnk5197cv_b7cw3n33qk7r0000gn/T//ccpFleut.s 			page 33


 1747              		.section	.rodata.wa,"a",%progbits
 1748              		.align	2
 1749              		.type	wa, %object
 1750              		.size	wa, 20
 1751              	wa:
 1752 0000 00000000 		.word	test
 1753 0004 18010000 		.word	test+280
 1754 0008 30020000 		.word	test+560
 1755 000c 48030000 		.word	test+840
 1756 0010 60040000 		.word	test+1120
 1757              		.text
 1758              	.Letext0:
 1759              		.file 2 "/usr/local/Cellar/gcc-arm-none-eabi/20180627/lib/gcc/arm-none-eabi/7.3.1/include/stddef.h
 1760              		.file 3 "/usr/local/Cellar/gcc-arm-none-eabi/20180627/arm-none-eabi/include/machine/_default_types
 1761              		.file 4 "/usr/local/Cellar/gcc-arm-none-eabi/20180627/arm-none-eabi/include/sys/_stdint.h"
 1762              		.file 5 "..//os/ports/GCC/ARM/chtypes.h"
 1763              		.file 6 "..//os/kernel/include/chlists.h"
 1764              		.file 7 "..//os/kernel/include/chthreads.h"
 1765              		.file 8 "..//os/ports/GCC/ARM/chcore.h"
 1766              		.file 9 "..//os/kernel/include/chvt.h"
 1767              		.file 10 "..//os/kernel/include/chschd.h"
 1768              		.file 11 "..//os/kernel/include/chmtx.h"
 1769              		.file 12 "..//os/kernel/include/chevents.h"
 1770              		.file 13 "..//os/kernel/include/chregistry.h"
 1771              		.file 14 "..//os/kernel/include/chqueues.h"
 1772              		.file 15 "..//os/kernel/include/chstreams.h"
 1773              		.file 16 "..//os/kernel/include/ch.h"
 1774              		.file 17 "..//os/hal/platforms/BCM2835/bcm2835.h"
 1775              		.file 18 "..//os/hal/platforms/BCM2835/pal_lld.h"
 1776              		.file 19 "..//os/hal/include/i2c.h"
 1777              		.file 20 "..//os/hal/platforms/BCM2835/i2c_lld.h"
 1778              		.file 21 "..//os/hal/include/serial.h"
 1779              		.file 22 "..//os/hal/include/spi.h"
 1780              		.file 23 "..//os/hal/platforms/BCM2835/spi_lld.h"
 1781              		.file 24 "..//test/test.h"
 1782              		.file 25 "..//os/hal/platforms/BCM2835/serial_lld.h"
 1783              		.file 26 "..//test/testthd.h"
 1784              		.file 27 "..//test/testsem.h"
 1785              		.file 28 "..//test/testmtx.h"
 1786              		.file 29 "..//test/testmsg.h"
 1787              		.file 30 "..//test/testmbox.h"
 1788              		.file 31 "..//test/testevt.h"
 1789              		.file 32 "..//test/testheap.h"
 1790              		.file 33 "..//test/testpools.h"
 1791              		.file 34 "..//test/testdyn.h"
 1792              		.file 35 "..//test/testqueues.h"
 1793              		.file 36 "..//test/testbmk.h"