ARM GAS  /var/folders/3j/4xdnk5197cv_b7cw3n33qk7r0000gn/T//cc62GWZk.s 			page 1


   1              		.cpu arm1176jz-s
   2              		.eabi_attribute 20, 1
   3              		.eabi_attribute 21, 1
   4              		.eabi_attribute 23, 3
   5              		.eabi_attribute 24, 1
   6              		.eabi_attribute 25, 1
   7              		.eabi_attribute 26, 1
   8              		.eabi_attribute 30, 2
   9              		.eabi_attribute 34, 1
  10              		.eabi_attribute 18, 4
  11              		.file	"testthd.c"
  12              		.text
  13              	.Ltext0:
  14              		.cfi_sections	.debug_frame
  15              		.section	.text.thd1_execute,"ax",%progbits
  16              		.align	2
  17              		.syntax unified
  18              		.arm
  19              		.fpu softvfp
  20              		.type	thd1_execute, %function
  21              	thd1_execute:
  22              	.LFB8:
  23              		.file 1 "..//test/testthd.c"
  24              		.loc 1 70 0
  25              		.cfi_startproc
  26              		@ args = 0, pretend = 0, frame = 0
  27              		@ frame_needed = 0, uses_anonymous_args = 0
  28 0000 F0402DE9 		push	{r4, r5, r6, r7, lr}
  29              		.cfi_def_cfa_offset 20
  30              		.cfi_offset 4, -20
  31              		.cfi_offset 5, -16
  32              		.cfi_offset 6, -12
  33              		.cfi_offset 7, -8
  34              		.cfi_offset 14, -4
  35              		.loc 1 72 0
  36 0004 FC709FE5 		ldr	r7, .L4
  37 0008 FC609FE5 		ldr	r6, .L4+4
  38 000c 183097E5 		ldr	r3, [r7, #24]
  39 0010 F8509FE5 		ldr	r5, .L4+8
  40 0014 082093E5 		ldr	r2, [r3, #8]
  41 0018 F4109FE5 		ldr	r1, .L4+12
  42              		.loc 1 70 0
  43 001c 0CD04DE2 		sub	sp, sp, #12
  44              		.cfi_def_cfa_offset 32
  45              		.loc 1 72 0
  46 0020 0530A0E1 		mov	r3, r5
  47 0024 00108DE5 		str	r1, [sp]
  48 0028 000096E5 		ldr	r0, [r6]
  49 002c 052042E2 		sub	r2, r2, #5
  50 0030 461FA0E3 		mov	r1, #280
  51 0034 FEFFFFEB 		bl	chThdCreateStatic
  52              	.LVL0:
  53              		.loc 1 73 0
  54 0038 183097E5 		ldr	r3, [r7, #24]
  55              		.loc 1 72 0
  56 003c D4409FE5 		ldr	r4, .L4+16
  57              		.loc 1 73 0
ARM GAS  /var/folders/3j/4xdnk5197cv_b7cw3n33qk7r0000gn/T//cc62GWZk.s 			page 2


  58 0040 082093E5 		ldr	r2, [r3, #8]
  59 0044 D0109FE5 		ldr	r1, .L4+20
  60 0048 043096E5 		ldr	r3, [r6, #4]
  61              		.loc 1 72 0
  62 004c 000084E5 		str	r0, [r4]
  63              		.loc 1 73 0
  64 0050 00108DE5 		str	r1, [sp]
  65 0054 042042E2 		sub	r2, r2, #4
  66 0058 0300A0E1 		mov	r0, r3
  67 005c 461FA0E3 		mov	r1, #280
  68 0060 0530A0E1 		mov	r3, r5
  69 0064 FEFFFFEB 		bl	chThdCreateStatic
  70              	.LVL1:
  71              		.loc 1 74 0
  72 0068 182097E5 		ldr	r2, [r7, #24]
  73 006c 083096E5 		ldr	r3, [r6, #8]
  74 0070 082092E5 		ldr	r2, [r2, #8]
  75 0074 A4109FE5 		ldr	r1, .L4+24
  76              		.loc 1 73 0
  77 0078 040084E5 		str	r0, [r4, #4]
  78              		.loc 1 74 0
  79 007c 00108DE5 		str	r1, [sp]
  80 0080 032042E2 		sub	r2, r2, #3
  81 0084 0300A0E1 		mov	r0, r3
  82 0088 461FA0E3 		mov	r1, #280
  83 008c 0530A0E1 		mov	r3, r5
  84 0090 FEFFFFEB 		bl	chThdCreateStatic
  85              	.LVL2:
  86              		.loc 1 75 0
  87 0094 182097E5 		ldr	r2, [r7, #24]
  88 0098 0C3096E5 		ldr	r3, [r6, #12]
  89 009c 082092E5 		ldr	r2, [r2, #8]
  90 00a0 7C109FE5 		ldr	r1, .L4+28
  91              		.loc 1 74 0
  92 00a4 080084E5 		str	r0, [r4, #8]
  93              		.loc 1 75 0
  94 00a8 00108DE5 		str	r1, [sp]
  95 00ac 022042E2 		sub	r2, r2, #2
  96 00b0 0300A0E1 		mov	r0, r3
  97 00b4 461FA0E3 		mov	r1, #280
  98 00b8 0530A0E1 		mov	r3, r5
  99 00bc FEFFFFEB 		bl	chThdCreateStatic
 100              	.LVL3:
 101              		.loc 1 76 0
 102 00c0 182097E5 		ldr	r2, [r7, #24]
 103 00c4 103096E5 		ldr	r3, [r6, #16]
 104 00c8 082092E5 		ldr	r2, [r2, #8]
 105 00cc 54109FE5 		ldr	r1, .L4+32
 106              		.loc 1 75 0
 107 00d0 0C0084E5 		str	r0, [r4, #12]
 108              		.loc 1 76 0
 109 00d4 012042E2 		sub	r2, r2, #1
 110 00d8 00108DE5 		str	r1, [sp]
 111 00dc 0300A0E1 		mov	r0, r3
 112 00e0 461FA0E3 		mov	r1, #280
 113 00e4 0530A0E1 		mov	r3, r5
 114 00e8 FEFFFFEB 		bl	chThdCreateStatic
ARM GAS  /var/folders/3j/4xdnk5197cv_b7cw3n33qk7r0000gn/T//cc62GWZk.s 			page 3


 115              	.LVL4:
 116 00ec 100084E5 		str	r0, [r4, #16]
 117              		.loc 1 77 0
 118 00f0 FEFFFFEB 		bl	test_wait_threads
 119              	.LVL5:
 120              		.loc 1 78 0
 121 00f4 0100A0E3 		mov	r0, #1
 122 00f8 2C109FE5 		ldr	r1, .L4+36
 123              		.loc 1 79 0
 124 00fc 0CD08DE2 		add	sp, sp, #12
 125              		.cfi_def_cfa_offset 20
 126              		@ sp needed
 127 0100 F040BDE8 		pop	{r4, r5, r6, r7, lr}
 128              		.cfi_restore 14
 129              		.cfi_restore 7
 130              		.cfi_restore 6
 131              		.cfi_restore 5
 132              		.cfi_restore 4
 133              		.cfi_def_cfa_offset 0
 134              		.loc 1 78 0
 135 0104 FEFFFFEA 		b	_test_assert_sequence
 136              	.LVL6:
 137              	.L5:
 138              		.align	2
 139              	.L4:
 140 0108 00000000 		.word	rlist
 141 010c 00000000 		.word	wa
 142 0110 00000000 		.word	thread
 143 0114 00000000 		.word	.LC0
 144 0118 00000000 		.word	threads
 145 011c 04000000 		.word	.LC1
 146 0120 08000000 		.word	.LC2
 147 0124 0C000000 		.word	.LC3
 148 0128 10000000 		.word	.LC4
 149 012c 14000000 		.word	.LC5
 150              		.cfi_endproc
 151              	.LFE8:
 152              		.size	thd1_execute, .-thd1_execute
 153              		.section	.text.thread,"ax",%progbits
 154              		.align	2
 155              		.syntax unified
 156              		.arm
 157              		.fpu softvfp
 158              		.type	thread, %function
 159              	thread:
 160              	.LFB7:
 161              		.loc 1 64 0
 162              		.cfi_startproc
 163              		@ args = 0, pretend = 0, frame = 0
 164              		@ frame_needed = 0, uses_anonymous_args = 0
 165              	.LVL7:
 166 0000 10402DE9 		push	{r4, lr}
 167              		.cfi_def_cfa_offset 8
 168              		.cfi_offset 4, -8
 169              		.cfi_offset 14, -4
 170              		.loc 1 66 0
 171 0004 0000D0E5 		ldrb	r0, [r0]	@ zero_extendqisi2
ARM GAS  /var/folders/3j/4xdnk5197cv_b7cw3n33qk7r0000gn/T//cc62GWZk.s 			page 4


 172              	.LVL8:
 173 0008 FEFFFFEB 		bl	test_emit_token
 174              	.LVL9:
 175              		.loc 1 68 0
 176 000c 0000A0E3 		mov	r0, #0
 177 0010 1080BDE8 		pop	{r4, pc}
 178              		.cfi_endproc
 179              	.LFE7:
 180              		.size	thread, .-thread
 181              		.section	.text.thd2_execute,"ax",%progbits
 182              		.align	2
 183              		.syntax unified
 184              		.arm
 185              		.fpu softvfp
 186              		.type	thd2_execute, %function
 187              	thd2_execute:
 188              	.LFB9:
 189              		.loc 1 98 0
 190              		.cfi_startproc
 191              		@ args = 0, pretend = 0, frame = 0
 192              		@ frame_needed = 0, uses_anonymous_args = 0
 193 0000 F0402DE9 		push	{r4, r5, r6, r7, lr}
 194              		.cfi_def_cfa_offset 20
 195              		.cfi_offset 4, -20
 196              		.cfi_offset 5, -16
 197              		.cfi_offset 6, -12
 198              		.cfi_offset 7, -8
 199              		.cfi_offset 14, -4
 200              		.loc 1 100 0
 201 0004 08719FE5 		ldr	r7, .L10
 202 0008 08619FE5 		ldr	r6, .L10+4
 203 000c 183097E5 		ldr	r3, [r7, #24]
 204 0010 04519FE5 		ldr	r5, .L10+8
 205 0014 082093E5 		ldr	r2, [r3, #8]
 206 0018 00119FE5 		ldr	r1, .L10+12
 207              		.loc 1 98 0
 208 001c 0CD04DE2 		sub	sp, sp, #12
 209              		.cfi_def_cfa_offset 32
 210              		.loc 1 100 0
 211 0020 0530A0E1 		mov	r3, r5
 212 0024 00108DE5 		str	r1, [sp]
 213 0028 040096E5 		ldr	r0, [r6, #4]
 214 002c 042042E2 		sub	r2, r2, #4
 215 0030 461FA0E3 		mov	r1, #280
 216 0034 FEFFFFEB 		bl	chThdCreateStatic
 217              	.LVL10:
 218              		.loc 1 101 0
 219 0038 183097E5 		ldr	r3, [r7, #24]
 220              		.loc 1 100 0
 221 003c E0409FE5 		ldr	r4, .L10+16
 222              		.loc 1 101 0
 223 0040 082093E5 		ldr	r2, [r3, #8]
 224 0044 DC109FE5 		ldr	r1, .L10+20
 225 0048 003096E5 		ldr	r3, [r6]
 226              		.loc 1 100 0
 227 004c 040084E5 		str	r0, [r4, #4]
 228              		.loc 1 101 0
ARM GAS  /var/folders/3j/4xdnk5197cv_b7cw3n33qk7r0000gn/T//cc62GWZk.s 			page 5


 229 0050 00108DE5 		str	r1, [sp]
 230 0054 052042E2 		sub	r2, r2, #5
 231 0058 0300A0E1 		mov	r0, r3
 232 005c 461FA0E3 		mov	r1, #280
 233 0060 0530A0E1 		mov	r3, r5
 234 0064 FEFFFFEB 		bl	chThdCreateStatic
 235              	.LVL11:
 236              		.loc 1 102 0
 237 0068 182097E5 		ldr	r2, [r7, #24]
 238 006c 103096E5 		ldr	r3, [r6, #16]
 239 0070 082092E5 		ldr	r2, [r2, #8]
 240 0074 B0109FE5 		ldr	r1, .L10+24
 241              		.loc 1 101 0
 242 0078 000084E5 		str	r0, [r4]
 243              		.loc 1 102 0
 244 007c 00108DE5 		str	r1, [sp]
 245 0080 012042E2 		sub	r2, r2, #1
 246 0084 0300A0E1 		mov	r0, r3
 247 0088 461FA0E3 		mov	r1, #280
 248 008c 0530A0E1 		mov	r3, r5
 249 0090 FEFFFFEB 		bl	chThdCreateStatic
 250              	.LVL12:
 251              		.loc 1 103 0
 252 0094 182097E5 		ldr	r2, [r7, #24]
 253 0098 0C3096E5 		ldr	r3, [r6, #12]
 254 009c 082092E5 		ldr	r2, [r2, #8]
 255 00a0 88109FE5 		ldr	r1, .L10+28
 256              		.loc 1 102 0
 257 00a4 100084E5 		str	r0, [r4, #16]
 258              		.loc 1 103 0
 259 00a8 00108DE5 		str	r1, [sp]
 260 00ac 022042E2 		sub	r2, r2, #2
 261 00b0 0300A0E1 		mov	r0, r3
 262 00b4 461FA0E3 		mov	r1, #280
 263 00b8 0530A0E1 		mov	r3, r5
 264 00bc FEFFFFEB 		bl	chThdCreateStatic
 265              	.LVL13:
 266 00c0 0C0084E5 		str	r0, [r4, #12]
 267              		.loc 1 105 0
 268              		.syntax divided
 269              	@ 105 "..//test/testthd.c" 1
 270 00c4 9FF021E3 		msr     CPSR_c, #0x9F
 271              	@ 0 "" 2
 272              		.loc 1 106 0
 273              		.arm
 274              		.syntax unified
 275 00c8 183097E5 		ldr	r3, [r7, #24]
 276 00cc 60109FE5 		ldr	r1, .L10+32
 277 00d0 082093E5 		ldr	r2, [r3, #8]
 278 00d4 080096E5 		ldr	r0, [r6, #8]
 279 00d8 00108DE5 		str	r1, [sp]
 280 00dc 032042E2 		sub	r2, r2, #3
 281 00e0 0530A0E1 		mov	r3, r5
 282 00e4 461FA0E3 		mov	r1, #280
 283 00e8 FEFFFFEB 		bl	chThdCreateI
 284              	.LVL14:
 285 00ec 080084E5 		str	r0, [r4, #8]
ARM GAS  /var/folders/3j/4xdnk5197cv_b7cw3n33qk7r0000gn/T//cc62GWZk.s 			page 6


 286              		.loc 1 107 0
 287              		.syntax divided
 288              	@ 107 "..//test/testthd.c" 1
 289 00f0 1FF021E3 		msr     CPSR_c, #0x1F
 290              	@ 0 "" 2
 291              		.loc 1 108 0
 292              		.arm
 293              		.syntax unified
 294 00f4 080094E5 		ldr	r0, [r4, #8]
 295 00f8 FEFFFFEB 		bl	chThdResume
 296              	.LVL15:
 297              		.loc 1 109 0
 298 00fc FEFFFFEB 		bl	test_wait_threads
 299              	.LVL16:
 300              		.loc 1 110 0
 301 0100 0100A0E3 		mov	r0, #1
 302 0104 2C109FE5 		ldr	r1, .L10+36
 303              		.loc 1 111 0
 304 0108 0CD08DE2 		add	sp, sp, #12
 305              		.cfi_def_cfa_offset 20
 306              		@ sp needed
 307 010c F040BDE8 		pop	{r4, r5, r6, r7, lr}
 308              		.cfi_restore 14
 309              		.cfi_restore 7
 310              		.cfi_restore 6
 311              		.cfi_restore 5
 312              		.cfi_restore 4
 313              		.cfi_def_cfa_offset 0
 314              		.loc 1 110 0
 315 0110 FEFFFFEA 		b	_test_assert_sequence
 316              	.LVL17:
 317              	.L11:
 318              		.align	2
 319              	.L10:
 320 0114 00000000 		.word	rlist
 321 0118 00000000 		.word	wa
 322 011c 00000000 		.word	thread
 323 0120 04000000 		.word	.LC1
 324 0124 00000000 		.word	threads
 325 0128 00000000 		.word	.LC0
 326 012c 10000000 		.word	.LC4
 327 0130 0C000000 		.word	.LC3
 328 0134 08000000 		.word	.LC2
 329 0138 14000000 		.word	.LC5
 330              		.cfi_endproc
 331              	.LFE9:
 332              		.size	thd2_execute, .-thd2_execute
 333              		.section	.text.thd3_execute,"ax",%progbits
 334              		.align	2
 335              		.syntax unified
 336              		.arm
 337              		.fpu softvfp
 338              		.type	thd3_execute, %function
 339              	thd3_execute:
 340              	.LFB10:
 341              		.loc 1 130 0
 342              		.cfi_startproc
ARM GAS  /var/folders/3j/4xdnk5197cv_b7cw3n33qk7r0000gn/T//cc62GWZk.s 			page 7


 343              		@ args = 0, pretend = 0, frame = 0
 344              		@ frame_needed = 0, uses_anonymous_args = 0
 345 0000 F0412DE9 		push	{r4, r5, r6, r7, r8, lr}
 346              		.cfi_def_cfa_offset 24
 347              		.cfi_offset 4, -24
 348              		.cfi_offset 5, -20
 349              		.cfi_offset 6, -16
 350              		.cfi_offset 7, -12
 351              		.cfi_offset 8, -8
 352              		.cfi_offset 14, -4
 353              		.loc 1 133 0
 354 0004 D0619FE5 		ldr	r6, .L17
 355 0008 183096E5 		ldr	r3, [r6, #24]
 356 000c 084093E5 		ldr	r4, [r3, #8]
 357              	.LVL18:
 358              		.loc 1 134 0
 359 0010 015084E2 		add	r5, r4, #1
 360 0014 0500A0E1 		mov	r0, r5
 361 0018 FEFFFFEB 		bl	chThdSetPriority
 362              	.LVL19:
 363 001c 0070A0E1 		mov	r7, r0
 364              	.LVL20:
 365              		.loc 1 135 0
 366 0020 071044E0 		sub	r1, r4, r7
 367 0024 111F6FE1 		clz	r1, r1
 368 0028 0100A0E3 		mov	r0, #1
 369              	.LVL21:
 370 002c A112A0E1 		lsr	r1, r1, #5
 371 0030 FEFFFFEB 		bl	_test_assert
 372              	.LVL22:
 373 0034 000050E3 		cmp	r0, #0
 374 0038 F081BD18 		popne	{r4, r5, r6, r7, r8, pc}
 375              		.loc 1 137 0
 376 003c 183096E5 		ldr	r3, [r6, #24]
 377 0040 0200A0E3 		mov	r0, #2
 378 0044 081093E5 		ldr	r1, [r3, #8]
 379 0048 051041E0 		sub	r1, r1, r5
 380 004c 111F6FE1 		clz	r1, r1
 381 0050 A112A0E1 		lsr	r1, r1, #5
 382 0054 FEFFFFEB 		bl	_test_assert
 383              	.LVL23:
 384 0058 000050E3 		cmp	r0, #0
 385 005c F081BD18 		popne	{r4, r5, r6, r7, r8, pc}
 386              		.loc 1 139 0
 387 0060 0700A0E1 		mov	r0, r7
 388 0064 FEFFFFEB 		bl	chThdSetPriority
 389              	.LVL24:
 390              		.loc 1 140 0
 391 0068 001045E0 		sub	r1, r5, r0
 392 006c 111F6FE1 		clz	r1, r1
 393 0070 0300A0E3 		mov	r0, #3
 394              	.LVL25:
 395 0074 A112A0E1 		lsr	r1, r1, #5
 396 0078 FEFFFFEB 		bl	_test_assert
 397              	.LVL26:
 398 007c 000050E3 		cmp	r0, #0
 399 0080 F081BD18 		popne	{r4, r5, r6, r7, r8, pc}
ARM GAS  /var/folders/3j/4xdnk5197cv_b7cw3n33qk7r0000gn/T//cc62GWZk.s 			page 8


 400              		.loc 1 142 0
 401 0084 183096E5 		ldr	r3, [r6, #24]
 402 0088 0400A0E3 		mov	r0, #4
 403 008c 081093E5 		ldr	r1, [r3, #8]
 404 0090 041041E0 		sub	r1, r1, r4
 405 0094 111F6FE1 		clz	r1, r1
 406 0098 A112A0E1 		lsr	r1, r1, #5
 407 009c FEFFFFEB 		bl	_test_assert
 408              	.LVL27:
 409 00a0 000050E3 		cmp	r0, #0
 410 00a4 F081BD18 		popne	{r4, r5, r6, r7, r8, pc}
 411              		.loc 1 147 0
 412              		.syntax divided
 413              	@ 147 "..//test/testthd.c" 1
 414 00a8 9FF021E3 		msr     CPSR_c, #0x9F
 415              	@ 0 "" 2
 416              		.loc 1 148 0
 417              		.arm
 418              		.syntax unified
 419 00ac 182096E5 		ldr	r2, [r6, #24]
 420 00b0 083092E5 		ldr	r3, [r2, #8]
 421 00b4 023083E2 		add	r3, r3, #2
 422 00b8 083082E5 		str	r3, [r2, #8]
 423              		.loc 1 149 0
 424              		.syntax divided
 425              	@ 149 "..//test/testthd.c" 1
 426 00bc 1FF021E3 		msr     CPSR_c, #0x1F
 427              	@ 0 "" 2
 428              		.loc 1 150 0
 429              		.arm
 430              		.syntax unified
 431 00c0 183096E5 		ldr	r3, [r6, #24]
 432 00c4 027084E2 		add	r7, r4, #2
 433 00c8 081093E5 		ldr	r1, [r3, #8]
 434 00cc 0500A0E3 		mov	r0, #5
 435 00d0 071041E0 		sub	r1, r1, r7
 436 00d4 111F6FE1 		clz	r1, r1
 437 00d8 A112A0E1 		lsr	r1, r1, #5
 438 00dc FEFFFFEB 		bl	_test_assert
 439              	.LVL28:
 440 00e0 000050E3 		cmp	r0, #0
 441 00e4 F081BD18 		popne	{r4, r5, r6, r7, r8, pc}
 442              		.loc 1 154 0
 443 00e8 0500A0E1 		mov	r0, r5
 444 00ec FEFFFFEB 		bl	chThdSetPriority
 445              	.LVL29:
 446              		.loc 1 155 0
 447 00f0 001044E0 		sub	r1, r4, r0
 448 00f4 111F6FE1 		clz	r1, r1
 449 00f8 0600A0E3 		mov	r0, #6
 450              	.LVL30:
 451 00fc A112A0E1 		lsr	r1, r1, #5
 452 0100 FEFFFFEB 		bl	_test_assert
 453              	.LVL31:
 454 0104 000050E3 		cmp	r0, #0
 455 0108 F081BD18 		popne	{r4, r5, r6, r7, r8, pc}
 456              		.loc 1 157 0
ARM GAS  /var/folders/3j/4xdnk5197cv_b7cw3n33qk7r0000gn/T//cc62GWZk.s 			page 9


 457 010c 183096E5 		ldr	r3, [r6, #24]
 458 0110 0700A0E3 		mov	r0, #7
 459 0114 081093E5 		ldr	r1, [r3, #8]
 460 0118 071041E0 		sub	r1, r1, r7
 461 011c 111F6FE1 		clz	r1, r1
 462 0120 A112A0E1 		lsr	r1, r1, #5
 463 0124 FEFFFFEB 		bl	_test_assert
 464              	.LVL32:
 465 0128 000050E3 		cmp	r0, #0
 466 012c F081BD18 		popne	{r4, r5, r6, r7, r8, pc}
 467              		.loc 1 159 0
 468 0130 183096E5 		ldr	r3, [r6, #24]
 469 0134 0800A0E3 		mov	r0, #8
 470 0138 401093E5 		ldr	r1, [r3, #64]
 471 013c 051041E0 		sub	r1, r1, r5
 472 0140 111F6FE1 		clz	r1, r1
 473 0144 A112A0E1 		lsr	r1, r1, #5
 474 0148 FEFFFFEB 		bl	_test_assert
 475              	.LVL33:
 476 014c 000050E3 		cmp	r0, #0
 477 0150 F081BD18 		popne	{r4, r5, r6, r7, r8, pc}
 478              		.loc 1 163 0
 479 0154 037084E2 		add	r7, r4, #3
 480 0158 0700A0E1 		mov	r0, r7
 481 015c FEFFFFEB 		bl	chThdSetPriority
 482              	.LVL34:
 483              		.loc 1 164 0
 484 0160 001045E0 		sub	r1, r5, r0
 485 0164 111F6FE1 		clz	r1, r1
 486 0168 0900A0E3 		mov	r0, #9
 487              	.LVL35:
 488 016c A112A0E1 		lsr	r1, r1, #5
 489 0170 FEFFFFEB 		bl	_test_assert
 490              	.LVL36:
 491 0174 000050E3 		cmp	r0, #0
 492 0178 F081BD18 		popne	{r4, r5, r6, r7, r8, pc}
 493              		.loc 1 166 0
 494 017c 183096E5 		ldr	r3, [r6, #24]
 495 0180 0A00A0E3 		mov	r0, #10
 496 0184 081093E5 		ldr	r1, [r3, #8]
 497 0188 071041E0 		sub	r1, r1, r7
 498 018c 111F6FE1 		clz	r1, r1
 499 0190 A112A0E1 		lsr	r1, r1, #5
 500 0194 FEFFFFEB 		bl	_test_assert
 501              	.LVL37:
 502 0198 000050E3 		cmp	r0, #0
 503 019c F081BD18 		popne	{r4, r5, r6, r7, r8, pc}
 504              		.loc 1 168 0
 505 01a0 183096E5 		ldr	r3, [r6, #24]
 506 01a4 0B00A0E3 		mov	r0, #11
 507 01a8 401093E5 		ldr	r1, [r3, #64]
 508 01ac 071041E0 		sub	r1, r1, r7
 509 01b0 111F6FE1 		clz	r1, r1
 510 01b4 A112A0E1 		lsr	r1, r1, #5
 511 01b8 FEFFFFEB 		bl	_test_assert
 512              	.LVL38:
 513 01bc 000050E3 		cmp	r0, #0
ARM GAS  /var/folders/3j/4xdnk5197cv_b7cw3n33qk7r0000gn/T//cc62GWZk.s 			page 10


 514 01c0 F081BD18 		popne	{r4, r5, r6, r7, r8, pc}
 515              		.loc 1 171 0
 516              		.syntax divided
 517              	@ 171 "..//test/testthd.c" 1
 518 01c4 9FF021E3 		msr     CPSR_c, #0x9F
 519              	@ 0 "" 2
 520              		.loc 1 172 0
 521              		.arm
 522              		.syntax unified
 523 01c8 183096E5 		ldr	r3, [r6, #24]
 524 01cc 084083E5 		str	r4, [r3, #8]
 525              		.loc 1 173 0
 526 01d0 404083E5 		str	r4, [r3, #64]
 527              		.loc 1 174 0
 528              		.syntax divided
 529              	@ 174 "..//test/testthd.c" 1
 530 01d4 1FF021E3 		msr     CPSR_c, #0x1F
 531              	@ 0 "" 2
 532              		.loc 1 176 0
 533              		.arm
 534              		.syntax unified
 535 01d8 F081BDE8 		pop	{r4, r5, r6, r7, r8, pc}
 536              	.L18:
 537              		.align	2
 538              	.L17:
 539 01dc 00000000 		.word	rlist
 540              		.cfi_endproc
 541              	.LFE10:
 542              		.size	thd3_execute, .-thd3_execute
 543              		.section	.text.thd4_execute,"ax",%progbits
 544              		.align	2
 545              		.syntax unified
 546              		.arm
 547              		.fpu softvfp
 548              		.type	thd4_execute, %function
 549              	thd4_execute:
 550              	.LFB11:
 551              		.loc 1 193 0
 552              		.cfi_startproc
 553              		@ args = 0, pretend = 0, frame = 0
 554              		@ frame_needed = 0, uses_anonymous_args = 0
 555 0000 70402DE9 		push	{r4, r5, r6, lr}
 556              		.cfi_def_cfa_offset 16
 557              		.cfi_offset 4, -16
 558              		.cfi_offset 5, -12
 559              		.cfi_offset 6, -8
 560              		.cfi_offset 14, -4
 561              		.loc 1 199 0
 562 0004 90509FE5 		ldr	r5, .L24
 563              		.loc 1 196 0
 564 0008 FEFFFFEB 		bl	test_wait_tick
 565              	.LVL39:
 566              		.loc 1 199 0
 567 000c 0C4095E5 		ldr	r4, [r5, #12]
 568              	.LVL40:
 569              		.loc 1 200 0
 570 0010 6400A0E3 		mov	r0, #100
ARM GAS  /var/folders/3j/4xdnk5197cv_b7cw3n33qk7r0000gn/T//cc62GWZk.s 			page 11


 571 0014 FEFFFFEB 		bl	chThdSleep
 572              	.LVL41:
 573              		.loc 1 201 0
 574 0018 652084E2 		add	r2, r4, #101
 575 001c 641084E2 		add	r1, r4, #100
 576 0020 0100A0E3 		mov	r0, #1
 577 0024 FEFFFFEB 		bl	_test_assert_time_window
 578              	.LVL42:
 579 0028 000050E3 		cmp	r0, #0
 580 002c 7080BD18 		popne	{r4, r5, r6, pc}
 581              		.loc 1 204 0
 582 0030 0C4095E5 		ldr	r4, [r5, #12]
 583              	.LVL43:
 584              		.loc 1 205 0
 585 0034 6400A0E3 		mov	r0, #100
 586 0038 FEFFFFEB 		bl	chThdSleep
 587              	.LVL44:
 588              		.loc 1 206 0
 589 003c 652084E2 		add	r2, r4, #101
 590 0040 641084E2 		add	r1, r4, #100
 591 0044 0200A0E3 		mov	r0, #2
 592 0048 FEFFFFEB 		bl	_test_assert_time_window
 593              	.LVL45:
 594 004c 000050E3 		cmp	r0, #0
 595 0050 7080BD18 		popne	{r4, r5, r6, pc}
 596              	.LBB4:
 597              	.LBB5:
 598              		.loc 1 209 0
 599 0054 0C4095E5 		ldr	r4, [r5, #12]
 600              	.LVL46:
 601              		.loc 1 210 0
 602 0058 FA0FA0E3 		mov	r0, #1000
 603 005c FEFFFFEB 		bl	chThdSleep
 604              	.LVL47:
 605              		.loc 1 211 0
 606 0060 FA1F84E2 		add	r1, r4, #1000
 607 0064 012081E2 		add	r2, r1, #1
 608 0068 0300A0E3 		mov	r0, #3
 609 006c FEFFFFEB 		bl	_test_assert_time_window
 610              	.LVL48:
 611 0070 000050E3 		cmp	r0, #0
 612 0074 7080BD18 		popne	{r4, r5, r6, pc}
 613              		.loc 1 214 0
 614 0078 0C4095E5 		ldr	r4, [r5, #12]
 615              	.LVL49:
 616 007c 645084E2 		add	r5, r4, #100
 617              	.LVL50:
 618              		.loc 1 215 0
 619 0080 0500A0E1 		mov	r0, r5
 620 0084 FEFFFFEB 		bl	chThdSleepUntil
 621              	.LVL51:
 622              		.loc 1 216 0
 623 0088 0510A0E1 		mov	r1, r5
 624 008c 652084E2 		add	r2, r4, #101
 625 0090 0400A0E3 		mov	r0, #4
 626              	.LBE5:
 627              	.LBE4:
ARM GAS  /var/folders/3j/4xdnk5197cv_b7cw3n33qk7r0000gn/T//cc62GWZk.s 			page 12


 628              		.loc 1 217 0
 629 0094 7040BDE8 		pop	{r4, r5, r6, lr}
 630              		.cfi_restore 14
 631              		.cfi_restore 6
 632              		.cfi_restore 5
 633              		.cfi_restore 4
 634              		.cfi_def_cfa_offset 0
 635              	.LVL52:
 636              	.LBB7:
 637              	.LBB6:
 638              		.loc 1 216 0
 639 0098 FEFFFFEA 		b	_test_assert_time_window
 640              	.LVL53:
 641              	.L25:
 642              		.align	2
 643              	.L24:
 644 009c 00000000 		.word	vtlist
 645              	.LBE6:
 646              	.LBE7:
 647              		.cfi_endproc
 648              	.LFE11:
 649              		.size	thd4_execute, .-thd4_execute
 650              		.global	patternthd
 651              		.global	testthd4
 652              		.global	testthd3
 653              		.global	testthd2
 654              		.global	testthd1
 655              		.section	.rodata.patternthd,"a",%progbits
 656              		.align	2
 657              		.type	patternthd, %object
 658              		.size	patternthd, 20
 659              	patternthd:
 660 0000 00000000 		.word	testthd1
 661 0004 00000000 		.word	testthd2
 662 0008 00000000 		.word	testthd3
 663 000c 00000000 		.word	testthd4
 664 0010 00000000 		.word	0
 665              		.section	.rodata.str1.4,"aMS",%progbits,1
 666              		.align	2
 667              	.LC6:
 668 0000 54687265 		.ascii	"Threads, delays\000"
 668      6164732C 
 668      2064656C 
 668      61797300 
 669              	.LC7:
 670 0010 54687265 		.ascii	"Threads, priority change\000"
 670      6164732C 
 670      20707269 
 670      6F726974 
 670      79206368 
 671 0029 000000   		.space	3
 672              	.LC8:
 673 002c 54687265 		.ascii	"Threads, enqueuing test #2\000"
 673      6164732C 
 673      20656E71 
 673      75657569 
 673      6E672074 
ARM GAS  /var/folders/3j/4xdnk5197cv_b7cw3n33qk7r0000gn/T//cc62GWZk.s 			page 13


 674 0047 00       		.space	1
 675              	.LC9:
 676 0048 54687265 		.ascii	"Threads, enqueuing test #1\000"
 676      6164732C 
 676      20656E71 
 676      75657569 
 676      6E672074 
 677              		.section	.rodata.testthd1,"a",%progbits
 678              		.align	2
 679              		.type	testthd1, %object
 680              		.size	testthd1, 16
 681              	testthd1:
 682 0000 48000000 		.word	.LC9
 683 0004 00000000 		.word	0
 684 0008 00000000 		.word	0
 685 000c 00000000 		.word	thd1_execute
 686              		.section	.rodata.testthd2,"a",%progbits
 687              		.align	2
 688              		.type	testthd2, %object
 689              		.size	testthd2, 16
 690              	testthd2:
 691 0000 2C000000 		.word	.LC8
 692 0004 00000000 		.word	0
 693 0008 00000000 		.word	0
 694 000c 00000000 		.word	thd2_execute
 695              		.section	.rodata.testthd3,"a",%progbits
 696              		.align	2
 697              		.type	testthd3, %object
 698              		.size	testthd3, 16
 699              	testthd3:
 700 0000 10000000 		.word	.LC7
 701 0004 00000000 		.word	0
 702 0008 00000000 		.word	0
 703 000c 00000000 		.word	thd3_execute
 704              		.section	.rodata.testthd4,"a",%progbits
 705              		.align	2
 706              		.type	testthd4, %object
 707              		.size	testthd4, 16
 708              	testthd4:
 709 0000 00000000 		.word	.LC6
 710 0004 00000000 		.word	0
 711 0008 00000000 		.word	0
 712 000c 00000000 		.word	thd4_execute
 713              		.section	.rodata.thd1_execute.str1.4,"aMS",%progbits,1
 714              		.align	2
 715              	.LC0:
 716 0000 4500     		.ascii	"E\000"
 717 0002 0000     		.space	2
 718              	.LC1:
 719 0004 4400     		.ascii	"D\000"
 720 0006 0000     		.space	2
 721              	.LC2:
 722 0008 4300     		.ascii	"C\000"
 723 000a 0000     		.space	2
 724              	.LC3:
 725 000c 4200     		.ascii	"B\000"
 726 000e 0000     		.space	2
ARM GAS  /var/folders/3j/4xdnk5197cv_b7cw3n33qk7r0000gn/T//cc62GWZk.s 			page 14


 727              	.LC4:
 728 0010 4100     		.ascii	"A\000"
 729 0012 0000     		.space	2
 730              	.LC5:
 731 0014 41424344 		.ascii	"ABCDE\000"
 731      4500
 732              		.text
 733              	.Letext0:
 734              		.file 2 "/usr/local/Cellar/gcc-arm-none-eabi/20180627/arm-none-eabi/include/machine/_default_types
 735              		.file 3 "/usr/local/Cellar/gcc-arm-none-eabi/20180627/arm-none-eabi/include/sys/_stdint.h"
 736              		.file 4 "..//os/ports/GCC/ARM/chtypes.h"
 737              		.file 5 "..//os/kernel/include/chlists.h"
 738              		.file 6 "..//os/kernel/include/chthreads.h"
 739              		.file 7 "..//os/ports/GCC/ARM/chcore.h"
 740              		.file 8 "..//os/kernel/include/chvt.h"
 741              		.file 9 "..//os/kernel/include/chschd.h"
 742              		.file 10 "..//os/kernel/include/chmtx.h"
 743              		.file 11 "..//os/kernel/include/chregistry.h"
 744              		.file 12 "..//os/kernel/include/ch.h"
 745              		.file 13 "..//test/test.h"
 746              		.section	.debug_info,"",%progbits
 747              	.Ldebug_info0:
 748 0000 E60C0000 		.4byte	0xce6
 749 0004 0400     		.2byte	0x4
 750 0006 00000000 		.4byte	.Ldebug_abbrev0
 751 000a 04       		.byte	0x4
 752 000b 01       		.uleb128 0x1
 753 000c 23010000 		.4byte	.LASF129
 754 0010 0C       		.byte	0xc
 755 0011 9E040000 		.4byte	.LASF130
 756 0015 13000000 		.4byte	.LASF131
 757 0019 18000000 		.4byte	.Ldebug_ranges0+0x18
 758 001d 00000000 		.4byte	0
 759 0021 00000000 		.4byte	.Ldebug_line0
 760 0025 02       		.uleb128 0x2
 761 0026 04       		.byte	0x4
 762 0027 05       		.byte	0x5
 763 0028 696E7400 		.ascii	"int\000"
 764 002c 03       		.uleb128 0x3
 765 002d 04       		.byte	0x4
 766 002e 07       		.byte	0x7
 767 002f 7A020000 		.4byte	.LASF0
 768 0033 03       		.uleb128 0x3
 769 0034 01       		.byte	0x1
 770 0035 06       		.byte	0x6
 771 0036 DB000000 		.4byte	.LASF1
 772 003a 04       		.uleb128 0x4
 773 003b 6C000000 		.4byte	.LASF4
 774 003f 02       		.byte	0x2
 775 0040 2B       		.byte	0x2b
 776 0041 45000000 		.4byte	0x45
 777 0045 03       		.uleb128 0x3
 778 0046 01       		.byte	0x1
 779 0047 08       		.byte	0x8
 780 0048 81040000 		.4byte	.LASF2
 781 004c 03       		.uleb128 0x3
 782 004d 02       		.byte	0x2
ARM GAS  /var/folders/3j/4xdnk5197cv_b7cw3n33qk7r0000gn/T//cc62GWZk.s 			page 15


 783 004e 05       		.byte	0x5
 784 004f BB040000 		.4byte	.LASF3
 785 0053 04       		.uleb128 0x4
 786 0054 95050000 		.4byte	.LASF5
 787 0058 02       		.byte	0x2
 788 0059 39       		.byte	0x39
 789 005a 5E000000 		.4byte	0x5e
 790 005e 03       		.uleb128 0x3
 791 005f 02       		.byte	0x2
 792 0060 07       		.byte	0x7
 793 0061 DE020000 		.4byte	.LASF6
 794 0065 04       		.uleb128 0x4
 795 0066 C7050000 		.4byte	.LASF7
 796 006a 02       		.byte	0x2
 797 006b 4D       		.byte	0x4d
 798 006c 70000000 		.4byte	0x70
 799 0070 03       		.uleb128 0x3
 800 0071 04       		.byte	0x4
 801 0072 05       		.byte	0x5
 802 0073 E3010000 		.4byte	.LASF8
 803 0077 04       		.uleb128 0x4
 804 0078 51020000 		.4byte	.LASF9
 805 007c 02       		.byte	0x2
 806 007d 4F       		.byte	0x4f
 807 007e 82000000 		.4byte	0x82
 808 0082 03       		.uleb128 0x3
 809 0083 04       		.byte	0x4
 810 0084 07       		.byte	0x7
 811 0085 8F020000 		.4byte	.LASF10
 812 0089 03       		.uleb128 0x3
 813 008a 08       		.byte	0x8
 814 008b 05       		.byte	0x5
 815 008c CD000000 		.4byte	.LASF11
 816 0090 03       		.uleb128 0x3
 817 0091 08       		.byte	0x8
 818 0092 07       		.byte	0x7
 819 0093 7D000000 		.4byte	.LASF12
 820 0097 04       		.uleb128 0x4
 821 0098 13060000 		.4byte	.LASF13
 822 009c 03       		.byte	0x3
 823 009d 18       		.byte	0x18
 824 009e 3A000000 		.4byte	0x3a
 825 00a2 04       		.uleb128 0x4
 826 00a3 0E020000 		.4byte	.LASF14
 827 00a7 03       		.byte	0x3
 828 00a8 24       		.byte	0x24
 829 00a9 53000000 		.4byte	0x53
 830 00ad 04       		.uleb128 0x4
 831 00ae 79040000 		.4byte	.LASF15
 832 00b2 03       		.byte	0x3
 833 00b3 2C       		.byte	0x2c
 834 00b4 65000000 		.4byte	0x65
 835 00b8 04       		.uleb128 0x4
 836 00b9 42050000 		.4byte	.LASF16
 837 00bd 03       		.byte	0x3
 838 00be 30       		.byte	0x30
 839 00bf 77000000 		.4byte	0x77
ARM GAS  /var/folders/3j/4xdnk5197cv_b7cw3n33qk7r0000gn/T//cc62GWZk.s 			page 16


 840 00c3 04       		.uleb128 0x4
 841 00c4 04010000 		.4byte	.LASF17
 842 00c8 04       		.byte	0x4
 843 00c9 29       		.byte	0x29
 844 00ca AD000000 		.4byte	0xad
 845 00ce 04       		.uleb128 0x4
 846 00cf 14030000 		.4byte	.LASF18
 847 00d3 04       		.byte	0x4
 848 00d4 2A       		.byte	0x2a
 849 00d5 97000000 		.4byte	0x97
 850 00d9 04       		.uleb128 0x4
 851 00da EC010000 		.4byte	.LASF19
 852 00de 04       		.byte	0x4
 853 00df 2B       		.byte	0x2b
 854 00e0 97000000 		.4byte	0x97
 855 00e4 04       		.uleb128 0x4
 856 00e5 3B040000 		.4byte	.LASF20
 857 00e9 04       		.byte	0x4
 858 00ea 2C       		.byte	0x2c
 859 00eb 97000000 		.4byte	0x97
 860 00ef 04       		.uleb128 0x4
 861 00f0 6C050000 		.4byte	.LASF21
 862 00f4 04       		.byte	0x4
 863 00f5 2D       		.byte	0x2d
 864 00f6 97000000 		.4byte	0x97
 865 00fa 04       		.uleb128 0x4
 866 00fb 6A040000 		.4byte	.LASF22
 867 00ff 04       		.byte	0x4
 868 0100 2E       		.byte	0x2e
 869 0101 B8000000 		.4byte	0xb8
 870 0105 04       		.uleb128 0x4
 871 0106 FE020000 		.4byte	.LASF23
 872 010a 04       		.byte	0x4
 873 010b 2F       		.byte	0x2f
 874 010c AD000000 		.4byte	0xad
 875 0110 04       		.uleb128 0x4
 876 0111 28030000 		.4byte	.LASF24
 877 0115 04       		.byte	0x4
 878 0116 31       		.byte	0x31
 879 0117 B8000000 		.4byte	0xb8
 880 011b 04       		.uleb128 0x4
 881 011c B2050000 		.4byte	.LASF25
 882 0120 04       		.byte	0x4
 883 0121 33       		.byte	0x33
 884 0122 B8000000 		.4byte	0xb8
 885 0126 05       		.uleb128 0x5
 886 0127 1B010000 		.4byte	0x11b
 887 012b 04       		.uleb128 0x4
 888 012c 0F050000 		.4byte	.LASF26
 889 0130 05       		.byte	0x5
 890 0131 23       		.byte	0x23
 891 0132 36010000 		.4byte	0x136
 892 0136 06       		.uleb128 0x6
 893 0137 0F050000 		.4byte	.LASF26
 894 013b 44       		.byte	0x44
 895 013c 06       		.byte	0x6
 896 013d 57       		.byte	0x57
ARM GAS  /var/folders/3j/4xdnk5197cv_b7cw3n33qk7r0000gn/T//cc62GWZk.s 			page 17


 897 013e 27020000 		.4byte	0x227
 898 0142 07       		.uleb128 0x7
 899 0143 F1040000 		.4byte	.LASF27
 900 0147 06       		.byte	0x6
 901 0148 58       		.byte	0x58
 902 0149 48020000 		.4byte	0x248
 903 014d 00       		.byte	0
 904 014e 07       		.uleb128 0x7
 905 014f 5B040000 		.4byte	.LASF28
 906 0153 06       		.byte	0x6
 907 0154 5A       		.byte	0x5a
 908 0155 48020000 		.4byte	0x248
 909 0159 04       		.byte	0x4
 910 015a 07       		.uleb128 0x7
 911 015b B0000000 		.4byte	.LASF29
 912 015f 06       		.byte	0x6
 913 0160 5C       		.byte	0x5c
 914 0161 FA000000 		.4byte	0xfa
 915 0165 08       		.byte	0x8
 916 0166 07       		.uleb128 0x7
 917 0167 5B060000 		.4byte	.LASF30
 918 016b 06       		.byte	0x6
 919 016c 5D       		.byte	0x5d
 920 016d 08030000 		.4byte	0x308
 921 0171 0C       		.byte	0xc
 922 0172 07       		.uleb128 0x7
 923 0173 28020000 		.4byte	.LASF31
 924 0177 06       		.byte	0x6
 925 0178 5F       		.byte	0x5f
 926 0179 48020000 		.4byte	0x248
 927 017d 10       		.byte	0x10
 928 017e 07       		.uleb128 0x7
 929 017f D5030000 		.4byte	.LASF32
 930 0183 06       		.byte	0x6
 931 0184 60       		.byte	0x60
 932 0185 48020000 		.4byte	0x248
 933 0189 14       		.byte	0x14
 934 018a 07       		.uleb128 0x7
 935 018b 22060000 		.4byte	.LASF33
 936 018f 06       		.byte	0x6
 937 0190 67       		.byte	0x67
 938 0191 CA040000 		.4byte	0x4ca
 939 0195 18       		.byte	0x18
 940 0196 07       		.uleb128 0x7
 941 0197 C5040000 		.4byte	.LASF34
 942 019b 06       		.byte	0x6
 943 019c 72       		.byte	0x72
 944 019d D9000000 		.4byte	0xd9
 945 01a1 1C       		.byte	0x1c
 946 01a2 07       		.uleb128 0x7
 947 01a3 07050000 		.4byte	.LASF35
 948 01a7 06       		.byte	0x6
 949 01a8 76       		.byte	0x76
 950 01a9 CE000000 		.4byte	0xce
 951 01ad 1D       		.byte	0x1d
 952 01ae 07       		.uleb128 0x7
 953 01af FC050000 		.4byte	.LASF36
ARM GAS  /var/folders/3j/4xdnk5197cv_b7cw3n33qk7r0000gn/T//cc62GWZk.s 			page 18


 954 01b3 06       		.byte	0x6
 955 01b4 7B       		.byte	0x7b
 956 01b5 E4000000 		.4byte	0xe4
 957 01b9 1E       		.byte	0x1e
 958 01ba 07       		.uleb128 0x7
 959 01bb CD040000 		.4byte	.LASF37
 960 01bf 06       		.byte	0x6
 961 01c0 81       		.byte	0x81
 962 01c1 EF000000 		.4byte	0xef
 963 01c5 1F       		.byte	0x1f
 964 01c6 07       		.uleb128 0x7
 965 01c7 D1050000 		.4byte	.LASF38
 966 01cb 06       		.byte	0x6
 967 01cc 88       		.byte	0x88
 968 01cd 26010000 		.4byte	0x126
 969 01d1 20       		.byte	0x20
 970 01d2 08       		.uleb128 0x8
 971 01d3 705F7500 		.ascii	"p_u\000"
 972 01d7 06       		.byte	0x6
 973 01d8 AD       		.byte	0xad
 974 01d9 95040000 		.4byte	0x495
 975 01dd 24       		.byte	0x24
 976 01de 07       		.uleb128 0x7
 977 01df 61060000 		.4byte	.LASF39
 978 01e3 06       		.byte	0x6
 979 01e4 B2       		.byte	0xb2
 980 01e5 6E020000 		.4byte	0x26e
 981 01e9 28       		.byte	0x28
 982 01ea 07       		.uleb128 0x7
 983 01eb DF050000 		.4byte	.LASF40
 984 01ef 06       		.byte	0x6
 985 01f0 B8       		.byte	0xb8
 986 01f1 4E020000 		.4byte	0x24e
 987 01f5 2C       		.byte	0x2c
 988 01f6 07       		.uleb128 0x7
 989 01f7 0D000000 		.4byte	.LASF41
 990 01fb 06       		.byte	0x6
 991 01fc BC       		.byte	0xbc
 992 01fd 05010000 		.4byte	0x105
 993 0201 34       		.byte	0x34
 994 0202 07       		.uleb128 0x7
 995 0203 2C050000 		.4byte	.LASF42
 996 0207 06       		.byte	0x6
 997 0208 C2       		.byte	0xc2
 998 0209 10010000 		.4byte	0x110
 999 020d 38       		.byte	0x38
 1000 020e 07       		.uleb128 0x7
 1001 020f B1040000 		.4byte	.LASF43
 1002 0213 06       		.byte	0x6
 1003 0214 C9       		.byte	0xc9
 1004 0215 DC040000 		.4byte	0x4dc
 1005 0219 3C       		.byte	0x3c
 1006 021a 07       		.uleb128 0x7
 1007 021b BC050000 		.4byte	.LASF44
 1008 021f 06       		.byte	0x6
 1009 0220 CD       		.byte	0xcd
 1010 0221 FA000000 		.4byte	0xfa
ARM GAS  /var/folders/3j/4xdnk5197cv_b7cw3n33qk7r0000gn/T//cc62GWZk.s 			page 19


 1011 0225 40       		.byte	0x40
 1012 0226 00       		.byte	0
 1013 0227 09       		.uleb128 0x9
 1014 0228 08       		.byte	0x8
 1015 0229 05       		.byte	0x5
 1016 022a 5A       		.byte	0x5a
 1017 022b 48020000 		.4byte	0x248
 1018 022f 07       		.uleb128 0x7
 1019 0230 F1040000 		.4byte	.LASF27
 1020 0234 05       		.byte	0x5
 1021 0235 5B       		.byte	0x5b
 1022 0236 48020000 		.4byte	0x248
 1023 023a 00       		.byte	0
 1024 023b 07       		.uleb128 0x7
 1025 023c 5B040000 		.4byte	.LASF28
 1026 0240 05       		.byte	0x5
 1027 0241 5D       		.byte	0x5d
 1028 0242 48020000 		.4byte	0x248
 1029 0246 04       		.byte	0x4
 1030 0247 00       		.byte	0
 1031 0248 0A       		.uleb128 0xa
 1032 0249 04       		.byte	0x4
 1033 024a 2B010000 		.4byte	0x12b
 1034 024e 04       		.uleb128 0x4
 1035 024f E3030000 		.4byte	.LASF45
 1036 0253 05       		.byte	0x5
 1037 0254 5F       		.byte	0x5f
 1038 0255 27020000 		.4byte	0x227
 1039 0259 09       		.uleb128 0x9
 1040 025a 04       		.byte	0x4
 1041 025b 05       		.byte	0x5
 1042 025c 64       		.byte	0x64
 1043 025d 6E020000 		.4byte	0x26e
 1044 0261 07       		.uleb128 0x7
 1045 0262 F1040000 		.4byte	.LASF27
 1046 0266 05       		.byte	0x5
 1047 0267 66       		.byte	0x66
 1048 0268 48020000 		.4byte	0x248
 1049 026c 00       		.byte	0
 1050 026d 00       		.byte	0
 1051 026e 04       		.uleb128 0x4
 1052 026f 1C030000 		.4byte	.LASF46
 1053 0273 05       		.byte	0x5
 1054 0274 69       		.byte	0x69
 1055 0275 59020000 		.4byte	0x259
 1056 0279 04       		.uleb128 0x4
 1057 027a 3A030000 		.4byte	.LASF47
 1058 027e 07       		.byte	0x7
 1059 027f 9D       		.byte	0x9d
 1060 0280 B8000000 		.4byte	0xb8
 1061 0284 04       		.uleb128 0x4
 1062 0285 5C020000 		.4byte	.LASF48
 1063 0289 07       		.byte	0x7
 1064 028a A2       		.byte	0xa2
 1065 028b 8F020000 		.4byte	0x28f
 1066 028f 0B       		.uleb128 0xb
 1067 0290 04       		.byte	0x4
ARM GAS  /var/folders/3j/4xdnk5197cv_b7cw3n33qk7r0000gn/T//cc62GWZk.s 			page 20


 1068 0291 0C       		.uleb128 0xc
 1069 0292 8F020000 		.4byte	0x28f
 1070 0296 06       		.uleb128 0x6
 1071 0297 D8050000 		.4byte	.LASF49
 1072 029b 24       		.byte	0x24
 1073 029c 07       		.byte	0x7
 1074 029d B9       		.byte	0xb9
 1075 029e 08030000 		.4byte	0x308
 1076 02a2 08       		.uleb128 0x8
 1077 02a3 723400   		.ascii	"r4\000"
 1078 02a6 07       		.byte	0x7
 1079 02a7 BA       		.byte	0xba
 1080 02a8 84020000 		.4byte	0x284
 1081 02ac 00       		.byte	0
 1082 02ad 08       		.uleb128 0x8
 1083 02ae 723500   		.ascii	"r5\000"
 1084 02b1 07       		.byte	0x7
 1085 02b2 BB       		.byte	0xbb
 1086 02b3 84020000 		.4byte	0x284
 1087 02b7 04       		.byte	0x4
 1088 02b8 08       		.uleb128 0x8
 1089 02b9 723600   		.ascii	"r6\000"
 1090 02bc 07       		.byte	0x7
 1091 02bd BC       		.byte	0xbc
 1092 02be 84020000 		.4byte	0x284
 1093 02c2 08       		.byte	0x8
 1094 02c3 08       		.uleb128 0x8
 1095 02c4 723700   		.ascii	"r7\000"
 1096 02c7 07       		.byte	0x7
 1097 02c8 BD       		.byte	0xbd
 1098 02c9 84020000 		.4byte	0x284
 1099 02cd 0C       		.byte	0xc
 1100 02ce 08       		.uleb128 0x8
 1101 02cf 723800   		.ascii	"r8\000"
 1102 02d2 07       		.byte	0x7
 1103 02d3 BE       		.byte	0xbe
 1104 02d4 84020000 		.4byte	0x284
 1105 02d8 10       		.byte	0x10
 1106 02d9 08       		.uleb128 0x8
 1107 02da 723900   		.ascii	"r9\000"
 1108 02dd 07       		.byte	0x7
 1109 02de BF       		.byte	0xbf
 1110 02df 84020000 		.4byte	0x284
 1111 02e3 14       		.byte	0x14
 1112 02e4 08       		.uleb128 0x8
 1113 02e5 72313000 		.ascii	"r10\000"
 1114 02e9 07       		.byte	0x7
 1115 02ea C0       		.byte	0xc0
 1116 02eb 84020000 		.4byte	0x284
 1117 02ef 18       		.byte	0x18
 1118 02f0 08       		.uleb128 0x8
 1119 02f1 72313100 		.ascii	"r11\000"
 1120 02f5 07       		.byte	0x7
 1121 02f6 C1       		.byte	0xc1
 1122 02f7 84020000 		.4byte	0x284
 1123 02fb 1C       		.byte	0x1c
 1124 02fc 08       		.uleb128 0x8
ARM GAS  /var/folders/3j/4xdnk5197cv_b7cw3n33qk7r0000gn/T//cc62GWZk.s 			page 21


 1125 02fd 6C7200   		.ascii	"lr\000"
 1126 0300 07       		.byte	0x7
 1127 0301 C2       		.byte	0xc2
 1128 0302 84020000 		.4byte	0x284
 1129 0306 20       		.byte	0x20
 1130 0307 00       		.byte	0
 1131 0308 06       		.uleb128 0x6
 1132 0309 D6020000 		.4byte	.LASF50
 1133 030d 04       		.byte	0x4
 1134 030e 07       		.byte	0x7
 1135 030f CA       		.byte	0xca
 1136 0310 21030000 		.4byte	0x321
 1137 0314 08       		.uleb128 0x8
 1138 0315 72313300 		.ascii	"r13\000"
 1139 0319 07       		.byte	0x7
 1140 031a CB       		.byte	0xcb
 1141 031b 21030000 		.4byte	0x321
 1142 031f 00       		.byte	0
 1143 0320 00       		.byte	0
 1144 0321 0A       		.uleb128 0xa
 1145 0322 04       		.byte	0x4
 1146 0323 96020000 		.4byte	0x296
 1147 0327 04       		.uleb128 0x4
 1148 0328 BA020000 		.4byte	.LASF51
 1149 032c 08       		.byte	0x8
 1150 032d 4E       		.byte	0x4e
 1151 032e 32030000 		.4byte	0x332
 1152 0332 0A       		.uleb128 0xa
 1153 0333 04       		.byte	0x4
 1154 0334 38030000 		.4byte	0x338
 1155 0338 0D       		.uleb128 0xd
 1156 0339 43030000 		.4byte	0x343
 1157 033d 0E       		.uleb128 0xe
 1158 033e 8F020000 		.4byte	0x28f
 1159 0342 00       		.byte	0
 1160 0343 04       		.uleb128 0x4
 1161 0344 5F050000 		.4byte	.LASF52
 1162 0348 08       		.byte	0x8
 1163 0349 53       		.byte	0x53
 1164 034a 4E030000 		.4byte	0x34e
 1165 034e 06       		.uleb128 0x6
 1166 034f 5F050000 		.4byte	.LASF52
 1167 0353 14       		.byte	0x14
 1168 0354 08       		.byte	0x8
 1169 0355 5A       		.byte	0x5a
 1170 0356 97030000 		.4byte	0x397
 1171 035a 07       		.uleb128 0x7
 1172 035b 87020000 		.4byte	.LASF53
 1173 035f 08       		.byte	0x8
 1174 0360 5B       		.byte	0x5b
 1175 0361 97030000 		.4byte	0x397
 1176 0365 00       		.byte	0
 1177 0366 07       		.uleb128 0x7
 1178 0367 65020000 		.4byte	.LASF54
 1179 036b 08       		.byte	0x8
 1180 036c 5D       		.byte	0x5d
 1181 036d 97030000 		.4byte	0x397
ARM GAS  /var/folders/3j/4xdnk5197cv_b7cw3n33qk7r0000gn/T//cc62GWZk.s 			page 22


 1182 0371 04       		.byte	0x4
 1183 0372 07       		.uleb128 0x7
 1184 0373 6B030000 		.4byte	.LASF55
 1185 0377 08       		.byte	0x8
 1186 0378 5F       		.byte	0x5f
 1187 0379 1B010000 		.4byte	0x11b
 1188 037d 08       		.byte	0x8
 1189 037e 07       		.uleb128 0x7
 1190 037f 97030000 		.4byte	.LASF56
 1191 0383 08       		.byte	0x8
 1192 0384 60       		.byte	0x60
 1193 0385 27030000 		.4byte	0x327
 1194 0389 0C       		.byte	0xc
 1195 038a 07       		.uleb128 0x7
 1196 038b EA050000 		.4byte	.LASF57
 1197 038f 08       		.byte	0x8
 1198 0390 62       		.byte	0x62
 1199 0391 8F020000 		.4byte	0x28f
 1200 0395 10       		.byte	0x10
 1201 0396 00       		.byte	0
 1202 0397 0A       		.uleb128 0xa
 1203 0398 04       		.byte	0x4
 1204 0399 43030000 		.4byte	0x343
 1205 039d 09       		.uleb128 0x9
 1206 039e 10       		.byte	0x10
 1207 039f 08       		.byte	0x8
 1208 03a0 6C       		.byte	0x6c
 1209 03a1 D6030000 		.4byte	0x3d6
 1210 03a5 07       		.uleb128 0x7
 1211 03a6 87020000 		.4byte	.LASF53
 1212 03aa 08       		.byte	0x8
 1213 03ab 6D       		.byte	0x6d
 1214 03ac 97030000 		.4byte	0x397
 1215 03b0 00       		.byte	0
 1216 03b1 07       		.uleb128 0x7
 1217 03b2 65020000 		.4byte	.LASF54
 1218 03b6 08       		.byte	0x8
 1219 03b7 6F       		.byte	0x6f
 1220 03b8 97030000 		.4byte	0x397
 1221 03bc 04       		.byte	0x4
 1222 03bd 07       		.uleb128 0x7
 1223 03be 6B030000 		.4byte	.LASF55
 1224 03c2 08       		.byte	0x8
 1225 03c3 71       		.byte	0x71
 1226 03c4 1B010000 		.4byte	0x11b
 1227 03c8 08       		.byte	0x8
 1228 03c9 07       		.uleb128 0x7
 1229 03ca 36060000 		.4byte	.LASF58
 1230 03ce 08       		.byte	0x8
 1231 03cf 72       		.byte	0x72
 1232 03d0 26010000 		.4byte	0x126
 1233 03d4 0C       		.byte	0xc
 1234 03d5 00       		.byte	0
 1235 03d6 04       		.uleb128 0x4
 1236 03d7 4C060000 		.4byte	.LASF59
 1237 03db 08       		.byte	0x8
 1238 03dc 73       		.byte	0x73
ARM GAS  /var/folders/3j/4xdnk5197cv_b7cw3n33qk7r0000gn/T//cc62GWZk.s 			page 23


 1239 03dd 9D030000 		.4byte	0x39d
 1240 03e1 0F       		.uleb128 0xf
 1241 03e2 76000000 		.4byte	.LASF67
 1242 03e6 08       		.byte	0x8
 1243 03e7 D1       		.byte	0xd1
 1244 03e8 D6030000 		.4byte	0x3d6
 1245 03ec 09       		.uleb128 0x9
 1246 03ed 1C       		.byte	0x1c
 1247 03ee 09       		.byte	0x9
 1248 03ef 57       		.byte	0x57
 1249 03f0 3D040000 		.4byte	0x43d
 1250 03f4 07       		.uleb128 0x7
 1251 03f5 57050000 		.4byte	.LASF60
 1252 03f9 09       		.byte	0x9
 1253 03fa 58       		.byte	0x58
 1254 03fb 4E020000 		.4byte	0x24e
 1255 03ff 00       		.byte	0
 1256 0400 07       		.uleb128 0x7
 1257 0401 E3040000 		.4byte	.LASF61
 1258 0405 09       		.byte	0x9
 1259 0406 59       		.byte	0x59
 1260 0407 FA000000 		.4byte	0xfa
 1261 040b 08       		.byte	0x8
 1262 040c 07       		.uleb128 0x7
 1263 040d DD030000 		.4byte	.LASF62
 1264 0411 09       		.byte	0x9
 1265 0412 5B       		.byte	0x5b
 1266 0413 08030000 		.4byte	0x308
 1267 0417 0C       		.byte	0xc
 1268 0418 07       		.uleb128 0x7
 1269 0419 04030000 		.4byte	.LASF63
 1270 041d 09       		.byte	0x9
 1271 041e 5E       		.byte	0x5e
 1272 041f 48020000 		.4byte	0x248
 1273 0423 10       		.byte	0x10
 1274 0424 07       		.uleb128 0x7
 1275 0425 23040000 		.4byte	.LASF64
 1276 0429 09       		.byte	0x9
 1277 042a 5F       		.byte	0x5f
 1278 042b 48020000 		.4byte	0x248
 1279 042f 14       		.byte	0x14
 1280 0430 07       		.uleb128 0x7
 1281 0431 19040000 		.4byte	.LASF65
 1282 0435 09       		.byte	0x9
 1283 0436 62       		.byte	0x62
 1284 0437 48020000 		.4byte	0x248
 1285 043b 18       		.byte	0x18
 1286 043c 00       		.byte	0
 1287 043d 04       		.uleb128 0x4
 1288 043e 03060000 		.4byte	.LASF66
 1289 0442 09       		.byte	0x9
 1290 0443 64       		.byte	0x64
 1291 0444 EC030000 		.4byte	0x3ec
 1292 0448 0F       		.uleb128 0xf
 1293 0449 0D060000 		.4byte	.LASF68
 1294 044d 09       		.byte	0x9
 1295 044e 68       		.byte	0x68
ARM GAS  /var/folders/3j/4xdnk5197cv_b7cw3n33qk7r0000gn/T//cc62GWZk.s 			page 24


 1296 044f 3D040000 		.4byte	0x43d
 1297 0453 06       		.uleb128 0x6
 1298 0454 34030000 		.4byte	.LASF69
 1299 0458 10       		.byte	0x10
 1300 0459 0A       		.byte	0xa
 1301 045a 25       		.byte	0x25
 1302 045b 84040000 		.4byte	0x484
 1303 045f 07       		.uleb128 0x7
 1304 0460 0B010000 		.4byte	.LASF70
 1305 0464 0A       		.byte	0xa
 1306 0465 26       		.byte	0x26
 1307 0466 4E020000 		.4byte	0x24e
 1308 046a 00       		.byte	0
 1309 046b 07       		.uleb128 0x7
 1310 046c 53060000 		.4byte	.LASF71
 1311 0470 0A       		.byte	0xa
 1312 0471 28       		.byte	0x28
 1313 0472 48020000 		.4byte	0x248
 1314 0476 08       		.byte	0x8
 1315 0477 07       		.uleb128 0x7
 1316 0478 AB050000 		.4byte	.LASF72
 1317 047c 0A       		.byte	0xa
 1318 047d 2A       		.byte	0x2a
 1319 047e 84040000 		.4byte	0x484
 1320 0482 0C       		.byte	0xc
 1321 0483 00       		.byte	0
 1322 0484 0A       		.uleb128 0xa
 1323 0485 04       		.byte	0x4
 1324 0486 53040000 		.4byte	0x453
 1325 048a 04       		.uleb128 0x4
 1326 048b 34030000 		.4byte	.LASF69
 1327 048f 0A       		.byte	0xa
 1328 0490 2C       		.byte	0x2c
 1329 0491 53040000 		.4byte	0x453
 1330 0495 10       		.uleb128 0x10
 1331 0496 04       		.byte	0x4
 1332 0497 06       		.byte	0x6
 1333 0498 8F       		.byte	0x8f
 1334 0499 CA040000 		.4byte	0x4ca
 1335 049d 11       		.uleb128 0x11
 1336 049e 65000000 		.4byte	.LASF73
 1337 04a2 06       		.byte	0x6
 1338 04a3 96       		.byte	0x96
 1339 04a4 05010000 		.4byte	0x105
 1340 04a8 11       		.uleb128 0x11
 1341 04a9 A2000000 		.4byte	.LASF74
 1342 04ad 06       		.byte	0x6
 1343 04ae 9D       		.byte	0x9d
 1344 04af 05010000 		.4byte	0x105
 1345 04b3 11       		.uleb128 0x11
 1346 04b4 1B060000 		.4byte	.LASF75
 1347 04b8 06       		.byte	0x6
 1348 04b9 A4       		.byte	0xa4
 1349 04ba 8F020000 		.4byte	0x28f
 1350 04be 11       		.uleb128 0x11
 1351 04bf EA040000 		.4byte	.LASF76
 1352 04c3 06       		.byte	0x6
ARM GAS  /var/folders/3j/4xdnk5197cv_b7cw3n33qk7r0000gn/T//cc62GWZk.s 			page 25


 1353 04c4 AB       		.byte	0xab
 1354 04c5 10010000 		.4byte	0x110
 1355 04c9 00       		.byte	0
 1356 04ca 0A       		.uleb128 0xa
 1357 04cb 04       		.byte	0x4
 1358 04cc D7040000 		.4byte	0x4d7
 1359 04d0 03       		.uleb128 0x3
 1360 04d1 01       		.byte	0x1
 1361 04d2 08       		.byte	0x8
 1362 04d3 76050000 		.4byte	.LASF77
 1363 04d7 0C       		.uleb128 0xc
 1364 04d8 D0040000 		.4byte	0x4d0
 1365 04dc 0A       		.uleb128 0xa
 1366 04dd 04       		.byte	0x4
 1367 04de 8A040000 		.4byte	0x48a
 1368 04e2 09       		.uleb128 0x9
 1369 04e3 16       		.byte	0x16
 1370 04e4 0B       		.byte	0xb
 1371 04e5 25       		.byte	0x25
 1372 04e6 C3050000 		.4byte	0x5c3
 1373 04ea 07       		.uleb128 0x7
 1374 04eb C3020000 		.4byte	.LASF78
 1375 04ef 0B       		.byte	0xb
 1376 04f0 26       		.byte	0x26
 1377 04f1 C3050000 		.4byte	0x5c3
 1378 04f5 00       		.byte	0
 1379 04f6 07       		.uleb128 0x7
 1380 04f7 57030000 		.4byte	.LASF79
 1381 04fb 0B       		.byte	0xb
 1382 04fc 27       		.byte	0x27
 1383 04fd 97000000 		.4byte	0x97
 1384 0501 04       		.byte	0x4
 1385 0502 07       		.uleb128 0x7
 1386 0503 F0030000 		.4byte	.LASF80
 1387 0507 0B       		.byte	0xb
 1388 0508 28       		.byte	0x28
 1389 0509 97000000 		.4byte	0x97
 1390 050d 05       		.byte	0x5
 1391 050e 07       		.uleb128 0x7
 1392 050f 41060000 		.4byte	.LASF81
 1393 0513 0B       		.byte	0xb
 1394 0514 29       		.byte	0x29
 1395 0515 A2000000 		.4byte	0xa2
 1396 0519 06       		.byte	0x6
 1397 051a 07       		.uleb128 0x7
 1398 051b 43040000 		.4byte	.LASF82
 1399 051f 0B       		.byte	0xb
 1400 0520 2A       		.byte	0x2a
 1401 0521 97000000 		.4byte	0x97
 1402 0525 08       		.byte	0x8
 1403 0526 07       		.uleb128 0x7
 1404 0527 9F030000 		.4byte	.LASF83
 1405 052b 0B       		.byte	0xb
 1406 052c 2B       		.byte	0x2b
 1407 052d 97000000 		.4byte	0x97
 1408 0531 09       		.byte	0x9
 1409 0532 07       		.uleb128 0x7
ARM GAS  /var/folders/3j/4xdnk5197cv_b7cw3n33qk7r0000gn/T//cc62GWZk.s 			page 26


 1410 0533 94000000 		.4byte	.LASF84
 1411 0537 0B       		.byte	0xb
 1412 0538 2C       		.byte	0x2c
 1413 0539 97000000 		.4byte	0x97
 1414 053d 0A       		.byte	0xa
 1415 053e 07       		.uleb128 0x7
 1416 053f 4B050000 		.4byte	.LASF85
 1417 0543 0B       		.byte	0xb
 1418 0544 2D       		.byte	0x2d
 1419 0545 97000000 		.4byte	0x97
 1420 0549 0B       		.byte	0xb
 1421 054a 07       		.uleb128 0x7
 1422 054b F1050000 		.4byte	.LASF86
 1423 054f 0B       		.byte	0xb
 1424 0550 2E       		.byte	0x2e
 1425 0551 97000000 		.4byte	0x97
 1426 0555 0C       		.byte	0xc
 1427 0556 07       		.uleb128 0x7
 1428 0557 16050000 		.4byte	.LASF87
 1429 055b 0B       		.byte	0xb
 1430 055c 2F       		.byte	0x2f
 1431 055d 97000000 		.4byte	0x97
 1432 0561 0D       		.byte	0xd
 1433 0562 07       		.uleb128 0x7
 1434 0563 00000000 		.4byte	.LASF88
 1435 0567 0B       		.byte	0xb
 1436 0568 30       		.byte	0x30
 1437 0569 97000000 		.4byte	0x97
 1438 056d 0E       		.byte	0xe
 1439 056e 07       		.uleb128 0x7
 1440 056f B7030000 		.4byte	.LASF89
 1441 0573 0B       		.byte	0xb
 1442 0574 31       		.byte	0x31
 1443 0575 97000000 		.4byte	0x97
 1444 0579 0F       		.byte	0xf
 1445 057a 07       		.uleb128 0x7
 1446 057b E7000000 		.4byte	.LASF90
 1447 057f 0B       		.byte	0xb
 1448 0580 32       		.byte	0x32
 1449 0581 97000000 		.4byte	0x97
 1450 0585 10       		.byte	0x10
 1451 0586 07       		.uleb128 0x7
 1452 0587 B7000000 		.4byte	.LASF91
 1453 058b 0B       		.byte	0xb
 1454 058c 34       		.byte	0x34
 1455 058d 97000000 		.4byte	0x97
 1456 0591 11       		.byte	0x11
 1457 0592 07       		.uleb128 0x7
 1458 0593 F7000000 		.4byte	.LASF92
 1459 0597 0B       		.byte	0xb
 1460 0598 35       		.byte	0x35
 1461 0599 97000000 		.4byte	0x97
 1462 059d 12       		.byte	0x12
 1463 059e 07       		.uleb128 0x7
 1464 059f 5F030000 		.4byte	.LASF93
 1465 05a3 0B       		.byte	0xb
 1466 05a4 36       		.byte	0x36
ARM GAS  /var/folders/3j/4xdnk5197cv_b7cw3n33qk7r0000gn/T//cc62GWZk.s 			page 27


 1467 05a5 97000000 		.4byte	0x97
 1468 05a9 13       		.byte	0x13
 1469 05aa 07       		.uleb128 0x7
 1470 05ab F8040000 		.4byte	.LASF94
 1471 05af 0B       		.byte	0xb
 1472 05b0 37       		.byte	0x37
 1473 05b1 97000000 		.4byte	0x97
 1474 05b5 14       		.byte	0x14
 1475 05b6 07       		.uleb128 0x7
 1476 05b7 D7040000 		.4byte	.LASF95
 1477 05bb 0B       		.byte	0xb
 1478 05bc 39       		.byte	0x39
 1479 05bd 97000000 		.4byte	0x97
 1480 05c1 15       		.byte	0x15
 1481 05c2 00       		.byte	0
 1482 05c3 12       		.uleb128 0x12
 1483 05c4 D0040000 		.4byte	0x4d0
 1484 05c8 D3050000 		.4byte	0x5d3
 1485 05cc 13       		.uleb128 0x13
 1486 05cd 2C000000 		.4byte	0x2c
 1487 05d1 03       		.byte	0x3
 1488 05d2 00       		.byte	0
 1489 05d3 04       		.uleb128 0x4
 1490 05d4 17020000 		.4byte	.LASF96
 1491 05d8 0B       		.byte	0xb
 1492 05d9 3A       		.byte	0x3a
 1493 05da E2040000 		.4byte	0x4e2
 1494 05de 0C       		.uleb128 0xc
 1495 05df D3050000 		.4byte	0x5d3
 1496 05e3 0F       		.uleb128 0xf
 1497 05e4 A1020000 		.4byte	.LASF97
 1498 05e8 0B       		.byte	0xb
 1499 05e9 77       		.byte	0x77
 1500 05ea DE050000 		.4byte	0x5de
 1501 05ee 12       		.uleb128 0x12
 1502 05ef 79020000 		.4byte	0x279
 1503 05f3 FE050000 		.4byte	0x5fe
 1504 05f7 13       		.uleb128 0x13
 1505 05f8 2C000000 		.4byte	0x2c
 1506 05fc 26       		.byte	0x26
 1507 05fd 00       		.byte	0
 1508 05fe 0F       		.uleb128 0xf
 1509 05ff 30020000 		.4byte	.LASF98
 1510 0603 0C       		.byte	0xc
 1511 0604 82       		.byte	0x82
 1512 0605 EE050000 		.4byte	0x5ee
 1513 0609 06       		.uleb128 0x6
 1514 060a 23050000 		.4byte	.LASF99
 1515 060e 10       		.byte	0x10
 1516 060f 0D       		.byte	0xd
 1517 0610 3F       		.byte	0x3f
 1518 0611 46060000 		.4byte	0x646
 1519 0615 07       		.uleb128 0x7
 1520 0616 D1020000 		.4byte	.LASF100
 1521 061a 0D       		.byte	0xd
 1522 061b 40       		.byte	0x40
 1523 061c CA040000 		.4byte	0x4ca
ARM GAS  /var/folders/3j/4xdnk5197cv_b7cw3n33qk7r0000gn/T//cc62GWZk.s 			page 28


 1524 0620 00       		.byte	0
 1525 0621 07       		.uleb128 0x7
 1526 0622 F8030000 		.4byte	.LASF101
 1527 0626 0D       		.byte	0xd
 1528 0627 41       		.byte	0x41
 1529 0628 4C060000 		.4byte	0x64c
 1530 062c 04       		.byte	0x4
 1531 062d 07       		.uleb128 0x7
 1532 062e C4000000 		.4byte	.LASF102
 1533 0632 0D       		.byte	0xd
 1534 0633 42       		.byte	0x42
 1535 0634 4C060000 		.4byte	0x64c
 1536 0638 08       		.byte	0x8
 1537 0639 07       		.uleb128 0x7
 1538 063a 62040000 		.4byte	.LASF103
 1539 063e 0D       		.byte	0xd
 1540 063f 43       		.byte	0x43
 1541 0640 4C060000 		.4byte	0x64c
 1542 0644 0C       		.byte	0xc
 1543 0645 00       		.byte	0
 1544 0646 0C       		.uleb128 0xc
 1545 0647 09060000 		.4byte	0x609
 1546 064b 14       		.uleb128 0x14
 1547 064c 0A       		.uleb128 0xa
 1548 064d 04       		.byte	0x4
 1549 064e 4B060000 		.4byte	0x64b
 1550 0652 15       		.uleb128 0x15
 1551 0653 7805     		.2byte	0x578
 1552 0655 0D       		.byte	0xd
 1553 0656 48       		.byte	0x48
 1554 0657 97060000 		.4byte	0x697
 1555 065b 08       		.uleb128 0x8
 1556 065c 543000   		.ascii	"T0\000"
 1557 065f 0D       		.byte	0xd
 1558 0660 49       		.byte	0x49
 1559 0661 97060000 		.4byte	0x697
 1560 0665 00       		.byte	0
 1561 0666 16       		.uleb128 0x16
 1562 0667 543100   		.ascii	"T1\000"
 1563 066a 0D       		.byte	0xd
 1564 066b 4A       		.byte	0x4a
 1565 066c 97060000 		.4byte	0x697
 1566 0670 1801     		.2byte	0x118
 1567 0672 16       		.uleb128 0x16
 1568 0673 543200   		.ascii	"T2\000"
 1569 0676 0D       		.byte	0xd
 1570 0677 4B       		.byte	0x4b
 1571 0678 97060000 		.4byte	0x697
 1572 067c 3002     		.2byte	0x230
 1573 067e 16       		.uleb128 0x16
 1574 067f 543300   		.ascii	"T3\000"
 1575 0682 0D       		.byte	0xd
 1576 0683 4C       		.byte	0x4c
 1577 0684 97060000 		.4byte	0x697
 1578 0688 4803     		.2byte	0x348
 1579 068a 16       		.uleb128 0x16
 1580 068b 543400   		.ascii	"T4\000"
ARM GAS  /var/folders/3j/4xdnk5197cv_b7cw3n33qk7r0000gn/T//cc62GWZk.s 			page 29


 1581 068e 0D       		.byte	0xd
 1582 068f 4D       		.byte	0x4d
 1583 0690 97060000 		.4byte	0x697
 1584 0694 6004     		.2byte	0x460
 1585 0696 00       		.byte	0
 1586 0697 12       		.uleb128 0x12
 1587 0698 79020000 		.4byte	0x279
 1588 069c A7060000 		.4byte	0x6a7
 1589 06a0 13       		.uleb128 0x13
 1590 06a1 2C000000 		.4byte	0x2c
 1591 06a5 45       		.byte	0x45
 1592 06a6 00       		.byte	0
 1593 06a7 17       		.uleb128 0x17
 1594 06a8 7B050000 		.4byte	.LASF132
 1595 06ac 7805     		.2byte	0x578
 1596 06ae 0D       		.byte	0xd
 1597 06af 47       		.byte	0x47
 1598 06b0 CA060000 		.4byte	0x6ca
 1599 06b4 18       		.uleb128 0x18
 1600 06b5 776100   		.ascii	"wa\000"
 1601 06b8 0D       		.byte	0xd
 1602 06b9 4E       		.byte	0x4e
 1603 06ba 52060000 		.4byte	0x652
 1604 06be 11       		.uleb128 0x11
 1605 06bf 21020000 		.4byte	.LASF104
 1606 06c3 0D       		.byte	0xd
 1607 06c4 4F       		.byte	0x4f
 1608 06c5 CA060000 		.4byte	0x6ca
 1609 06c9 00       		.byte	0
 1610 06ca 12       		.uleb128 0x12
 1611 06cb 97000000 		.4byte	0x97
 1612 06cf DB060000 		.4byte	0x6db
 1613 06d3 19       		.uleb128 0x19
 1614 06d4 2C000000 		.4byte	0x2c
 1615 06d8 7705     		.2byte	0x577
 1616 06da 00       		.byte	0
 1617 06db 12       		.uleb128 0x12
 1618 06dc 48020000 		.4byte	0x248
 1619 06e0 EB060000 		.4byte	0x6eb
 1620 06e4 13       		.uleb128 0x13
 1621 06e5 2C000000 		.4byte	0x2c
 1622 06e9 04       		.byte	0x4
 1623 06ea 00       		.byte	0
 1624 06eb 0F       		.uleb128 0xf
 1625 06ec 0C030000 		.4byte	.LASF105
 1626 06f0 0D       		.byte	0xd
 1627 06f1 A9       		.byte	0xa9
 1628 06f2 DB060000 		.4byte	0x6db
 1629 06f6 0F       		.uleb128 0xf
 1630 06f7 AB000000 		.4byte	.LASF106
 1631 06fb 0D       		.byte	0xd
 1632 06fc AA       		.byte	0xaa
 1633 06fd A7060000 		.4byte	0x6a7
 1634 0701 12       		.uleb128 0x12
 1635 0702 91020000 		.4byte	0x291
 1636 0706 0C070000 		.4byte	0x70c
 1637 070a 1A       		.uleb128 0x1a
ARM GAS  /var/folders/3j/4xdnk5197cv_b7cw3n33qk7r0000gn/T//cc62GWZk.s 			page 30


 1638 070b 00       		.byte	0
 1639 070c 0C       		.uleb128 0xc
 1640 070d 01070000 		.4byte	0x701
 1641 0711 1B       		.uleb128 0x1b
 1642 0712 776100   		.ascii	"wa\000"
 1643 0715 0D       		.byte	0xd
 1644 0716 AB       		.byte	0xab
 1645 0717 0C070000 		.4byte	0x70c
 1646 071b 0F       		.uleb128 0xf
 1647 071c AA020000 		.4byte	.LASF107
 1648 0720 0D       		.byte	0xd
 1649 0721 AC       		.byte	0xac
 1650 0722 C3000000 		.4byte	0xc3
 1651 0726 1C       		.uleb128 0x1c
 1652 0727 73030000 		.4byte	.LASF108
 1653 072b 01       		.byte	0x1
 1654 072c 51       		.byte	0x51
 1655 072d 46060000 		.4byte	0x646
 1656 0731 05       		.uleb128 0x5
 1657 0732 03       		.byte	0x3
 1658 0733 00000000 		.4byte	testthd1
 1659 0737 1C       		.uleb128 0x1c
 1660 0738 7C030000 		.4byte	.LASF109
 1661 073c 01       		.byte	0x1
 1662 073d 71       		.byte	0x71
 1663 073e 46060000 		.4byte	0x646
 1664 0742 05       		.uleb128 0x5
 1665 0743 03       		.byte	0x3
 1666 0744 00000000 		.4byte	testthd2
 1667 0748 1C       		.uleb128 0x1c
 1668 0749 85030000 		.4byte	.LASF110
 1669 074d 01       		.byte	0x1
 1670 074e B2       		.byte	0xb2
 1671 074f 46060000 		.4byte	0x646
 1672 0753 05       		.uleb128 0x5
 1673 0754 03       		.byte	0x3
 1674 0755 00000000 		.4byte	testthd3
 1675 0759 1C       		.uleb128 0x1c
 1676 075a 8E030000 		.4byte	.LASF111
 1677 075e 01       		.byte	0x1
 1678 075f DB       		.byte	0xdb
 1679 0760 46060000 		.4byte	0x646
 1680 0764 05       		.uleb128 0x5
 1681 0765 03       		.byte	0x3
 1682 0766 00000000 		.4byte	testthd4
 1683 076a 12       		.uleb128 0x12
 1684 076b 85070000 		.4byte	0x785
 1685 076f 7A070000 		.4byte	0x77a
 1686 0773 13       		.uleb128 0x13
 1687 0774 2C000000 		.4byte	0x2c
 1688 0778 04       		.byte	0x4
 1689 0779 00       		.byte	0
 1690 077a 0C       		.uleb128 0xc
 1691 077b 6A070000 		.4byte	0x76a
 1692 077f 0A       		.uleb128 0xa
 1693 0780 04       		.byte	0x4
 1694 0781 46060000 		.4byte	0x646
ARM GAS  /var/folders/3j/4xdnk5197cv_b7cw3n33qk7r0000gn/T//cc62GWZk.s 			page 31


 1695 0785 0C       		.uleb128 0xc
 1696 0786 7F070000 		.4byte	0x77f
 1697 078a 1C       		.uleb128 0x1c
 1698 078b A0050000 		.4byte	.LASF112
 1699 078f 01       		.byte	0x1
 1700 0790 E5       		.byte	0xe5
 1701 0791 7A070000 		.4byte	0x77a
 1702 0795 05       		.uleb128 0x5
 1703 0796 03       		.byte	0x3
 1704 0797 00000000 		.4byte	patternthd
 1705 079b 1D       		.uleb128 0x1d
 1706 079c 88050000 		.4byte	.LASF133
 1707 07a0 01       		.byte	0x1
 1708 07a1 C1       		.byte	0xc1
 1709 07a2 01       		.byte	0x1
 1710 07a3 B3070000 		.4byte	0x7b3
 1711 07a7 1E       		.uleb128 0x1e
 1712 07a8 14040000 		.4byte	.LASF134
 1713 07ac 01       		.byte	0x1
 1714 07ad C2       		.byte	0xc2
 1715 07ae 1B010000 		.4byte	0x11b
 1716 07b2 00       		.byte	0
 1717 07b3 1F       		.uleb128 0x1f
 1718 07b4 4E040000 		.4byte	.LASF114
 1719 07b8 01       		.byte	0x1
 1720 07b9 82       		.byte	0x82
 1721 07ba 00000000 		.4byte	.LFB10
 1722 07be E0010000 		.4byte	.LFE10-.LFB10
 1723 07c2 01       		.uleb128 0x1
 1724 07c3 9C       		.byte	0x9c
 1725 07c4 0C090000 		.4byte	0x90c
 1726 07c8 20       		.uleb128 0x20
 1727 07c9 60000000 		.4byte	.LASF113
 1728 07cd 01       		.byte	0x1
 1729 07ce 83       		.byte	0x83
 1730 07cf FA000000 		.4byte	0xfa
 1731 07d3 01       		.uleb128 0x1
 1732 07d4 54       		.byte	0x54
 1733 07d5 21       		.uleb128 0x21
 1734 07d6 703100   		.ascii	"p1\000"
 1735 07d9 01       		.byte	0x1
 1736 07da 83       		.byte	0x83
 1737 07db FA000000 		.4byte	0xfa
 1738 07df 00000000 		.4byte	.LLST1
 1739 07e3 22       		.uleb128 0x22
 1740 07e4 1C000000 		.4byte	.LVL19
 1741 07e8 5F0C0000 		.4byte	0xc5f
 1742 07ec F7070000 		.4byte	0x7f7
 1743 07f0 23       		.uleb128 0x23
 1744 07f1 01       		.uleb128 0x1
 1745 07f2 50       		.byte	0x50
 1746 07f3 02       		.uleb128 0x2
 1747 07f4 75       		.byte	0x75
 1748 07f5 00       		.sleb128 0
 1749 07f6 00       		.byte	0
 1750 07f7 22       		.uleb128 0x22
 1751 07f8 34000000 		.4byte	.LVL22
ARM GAS  /var/folders/3j/4xdnk5197cv_b7cw3n33qk7r0000gn/T//cc62GWZk.s 			page 32


 1752 07fc 6B0C0000 		.4byte	0xc6b
 1753 0800 15080000 		.4byte	0x815
 1754 0804 23       		.uleb128 0x23
 1755 0805 01       		.uleb128 0x1
 1756 0806 50       		.byte	0x50
 1757 0807 01       		.uleb128 0x1
 1758 0808 31       		.byte	0x31
 1759 0809 23       		.uleb128 0x23
 1760 080a 01       		.uleb128 0x1
 1761 080b 51       		.byte	0x51
 1762 080c 07       		.uleb128 0x7
 1763 080d 74       		.byte	0x74
 1764 080e 00       		.sleb128 0
 1765 080f 77       		.byte	0x77
 1766 0810 00       		.sleb128 0
 1767 0811 1C       		.byte	0x1c
 1768 0812 30       		.byte	0x30
 1769 0813 29       		.byte	0x29
 1770 0814 00       		.byte	0
 1771 0815 22       		.uleb128 0x22
 1772 0816 58000000 		.4byte	.LVL23
 1773 081a 6B0C0000 		.4byte	0xc6b
 1774 081e 28080000 		.4byte	0x828
 1775 0822 23       		.uleb128 0x23
 1776 0823 01       		.uleb128 0x1
 1777 0824 50       		.byte	0x50
 1778 0825 01       		.uleb128 0x1
 1779 0826 32       		.byte	0x32
 1780 0827 00       		.byte	0
 1781 0828 22       		.uleb128 0x22
 1782 0829 68000000 		.4byte	.LVL24
 1783 082d 5F0C0000 		.4byte	0xc5f
 1784 0831 3C080000 		.4byte	0x83c
 1785 0835 23       		.uleb128 0x23
 1786 0836 01       		.uleb128 0x1
 1787 0837 50       		.byte	0x50
 1788 0838 02       		.uleb128 0x2
 1789 0839 77       		.byte	0x77
 1790 083a 00       		.sleb128 0
 1791 083b 00       		.byte	0
 1792 083c 22       		.uleb128 0x22
 1793 083d 7C000000 		.4byte	.LVL26
 1794 0841 6B0C0000 		.4byte	0xc6b
 1795 0845 4F080000 		.4byte	0x84f
 1796 0849 23       		.uleb128 0x23
 1797 084a 01       		.uleb128 0x1
 1798 084b 50       		.byte	0x50
 1799 084c 01       		.uleb128 0x1
 1800 084d 33       		.byte	0x33
 1801 084e 00       		.byte	0
 1802 084f 22       		.uleb128 0x22
 1803 0850 A0000000 		.4byte	.LVL27
 1804 0854 6B0C0000 		.4byte	0xc6b
 1805 0858 62080000 		.4byte	0x862
 1806 085c 23       		.uleb128 0x23
 1807 085d 01       		.uleb128 0x1
 1808 085e 50       		.byte	0x50
ARM GAS  /var/folders/3j/4xdnk5197cv_b7cw3n33qk7r0000gn/T//cc62GWZk.s 			page 33


 1809 085f 01       		.uleb128 0x1
 1810 0860 34       		.byte	0x34
 1811 0861 00       		.byte	0
 1812 0862 22       		.uleb128 0x22
 1813 0863 E0000000 		.4byte	.LVL28
 1814 0867 6B0C0000 		.4byte	0xc6b
 1815 086b 75080000 		.4byte	0x875
 1816 086f 23       		.uleb128 0x23
 1817 0870 01       		.uleb128 0x1
 1818 0871 50       		.byte	0x50
 1819 0872 01       		.uleb128 0x1
 1820 0873 35       		.byte	0x35
 1821 0874 00       		.byte	0
 1822 0875 22       		.uleb128 0x22
 1823 0876 F0000000 		.4byte	.LVL29
 1824 087a 5F0C0000 		.4byte	0xc5f
 1825 087e 89080000 		.4byte	0x889
 1826 0882 23       		.uleb128 0x23
 1827 0883 01       		.uleb128 0x1
 1828 0884 50       		.byte	0x50
 1829 0885 02       		.uleb128 0x2
 1830 0886 75       		.byte	0x75
 1831 0887 00       		.sleb128 0
 1832 0888 00       		.byte	0
 1833 0889 22       		.uleb128 0x22
 1834 088a 04010000 		.4byte	.LVL31
 1835 088e 6B0C0000 		.4byte	0xc6b
 1836 0892 9C080000 		.4byte	0x89c
 1837 0896 23       		.uleb128 0x23
 1838 0897 01       		.uleb128 0x1
 1839 0898 50       		.byte	0x50
 1840 0899 01       		.uleb128 0x1
 1841 089a 36       		.byte	0x36
 1842 089b 00       		.byte	0
 1843 089c 22       		.uleb128 0x22
 1844 089d 28010000 		.4byte	.LVL32
 1845 08a1 6B0C0000 		.4byte	0xc6b
 1846 08a5 AF080000 		.4byte	0x8af
 1847 08a9 23       		.uleb128 0x23
 1848 08aa 01       		.uleb128 0x1
 1849 08ab 50       		.byte	0x50
 1850 08ac 01       		.uleb128 0x1
 1851 08ad 37       		.byte	0x37
 1852 08ae 00       		.byte	0
 1853 08af 22       		.uleb128 0x22
 1854 08b0 4C010000 		.4byte	.LVL33
 1855 08b4 6B0C0000 		.4byte	0xc6b
 1856 08b8 C2080000 		.4byte	0x8c2
 1857 08bc 23       		.uleb128 0x23
 1858 08bd 01       		.uleb128 0x1
 1859 08be 50       		.byte	0x50
 1860 08bf 01       		.uleb128 0x1
 1861 08c0 38       		.byte	0x38
 1862 08c1 00       		.byte	0
 1863 08c2 22       		.uleb128 0x22
 1864 08c3 60010000 		.4byte	.LVL34
 1865 08c7 5F0C0000 		.4byte	0xc5f
ARM GAS  /var/folders/3j/4xdnk5197cv_b7cw3n33qk7r0000gn/T//cc62GWZk.s 			page 34


 1866 08cb D6080000 		.4byte	0x8d6
 1867 08cf 23       		.uleb128 0x23
 1868 08d0 01       		.uleb128 0x1
 1869 08d1 50       		.byte	0x50
 1870 08d2 02       		.uleb128 0x2
 1871 08d3 77       		.byte	0x77
 1872 08d4 00       		.sleb128 0
 1873 08d5 00       		.byte	0
 1874 08d6 22       		.uleb128 0x22
 1875 08d7 74010000 		.4byte	.LVL36
 1876 08db 6B0C0000 		.4byte	0xc6b
 1877 08df E9080000 		.4byte	0x8e9
 1878 08e3 23       		.uleb128 0x23
 1879 08e4 01       		.uleb128 0x1
 1880 08e5 50       		.byte	0x50
 1881 08e6 01       		.uleb128 0x1
 1882 08e7 39       		.byte	0x39
 1883 08e8 00       		.byte	0
 1884 08e9 22       		.uleb128 0x22
 1885 08ea 98010000 		.4byte	.LVL37
 1886 08ee 6B0C0000 		.4byte	0xc6b
 1887 08f2 FC080000 		.4byte	0x8fc
 1888 08f6 23       		.uleb128 0x23
 1889 08f7 01       		.uleb128 0x1
 1890 08f8 50       		.byte	0x50
 1891 08f9 01       		.uleb128 0x1
 1892 08fa 3A       		.byte	0x3a
 1893 08fb 00       		.byte	0
 1894 08fc 24       		.uleb128 0x24
 1895 08fd BC010000 		.4byte	.LVL38
 1896 0901 6B0C0000 		.4byte	0xc6b
 1897 0905 23       		.uleb128 0x23
 1898 0906 01       		.uleb128 0x1
 1899 0907 50       		.byte	0x50
 1900 0908 01       		.uleb128 0x1
 1901 0909 3B       		.byte	0x3b
 1902 090a 00       		.byte	0
 1903 090b 00       		.byte	0
 1904 090c 1F       		.uleb128 0x1f
 1905 090d F1020000 		.4byte	.LASF115
 1906 0911 01       		.byte	0x1
 1907 0912 62       		.byte	0x62
 1908 0913 00000000 		.4byte	.LFB9
 1909 0917 3C010000 		.4byte	.LFE9-.LFB9
 1910 091b 01       		.uleb128 0x1
 1911 091c 9C       		.byte	0x9c
 1912 091d 280A0000 		.4byte	0xa28
 1913 0921 22       		.uleb128 0x22
 1914 0922 38000000 		.4byte	.LVL10
 1915 0926 760C0000 		.4byte	0xc76
 1916 092a 4D090000 		.4byte	0x94d
 1917 092e 23       		.uleb128 0x23
 1918 092f 01       		.uleb128 0x1
 1919 0930 50       		.byte	0x50
 1920 0931 03       		.uleb128 0x3
 1921 0932 76       		.byte	0x76
 1922 0933 04       		.sleb128 4
ARM GAS  /var/folders/3j/4xdnk5197cv_b7cw3n33qk7r0000gn/T//cc62GWZk.s 			page 35


 1923 0934 06       		.byte	0x6
 1924 0935 23       		.uleb128 0x23
 1925 0936 01       		.uleb128 0x1
 1926 0937 51       		.byte	0x51
 1927 0938 03       		.uleb128 0x3
 1928 0939 0A       		.byte	0xa
 1929 093a 1801     		.2byte	0x118
 1930 093c 23       		.uleb128 0x23
 1931 093d 01       		.uleb128 0x1
 1932 093e 53       		.byte	0x53
 1933 093f 02       		.uleb128 0x2
 1934 0940 75       		.byte	0x75
 1935 0941 00       		.sleb128 0
 1936 0942 23       		.uleb128 0x23
 1937 0943 02       		.uleb128 0x2
 1938 0944 7D       		.byte	0x7d
 1939 0945 00       		.sleb128 0
 1940 0946 05       		.uleb128 0x5
 1941 0947 03       		.byte	0x3
 1942 0948 04000000 		.4byte	.LC1
 1943 094c 00       		.byte	0
 1944 094d 22       		.uleb128 0x22
 1945 094e 68000000 		.4byte	.LVL11
 1946 0952 760C0000 		.4byte	0xc76
 1947 0956 79090000 		.4byte	0x979
 1948 095a 23       		.uleb128 0x23
 1949 095b 01       		.uleb128 0x1
 1950 095c 50       		.byte	0x50
 1951 095d 03       		.uleb128 0x3
 1952 095e 76       		.byte	0x76
 1953 095f 00       		.sleb128 0
 1954 0960 06       		.byte	0x6
 1955 0961 23       		.uleb128 0x23
 1956 0962 01       		.uleb128 0x1
 1957 0963 51       		.byte	0x51
 1958 0964 03       		.uleb128 0x3
 1959 0965 0A       		.byte	0xa
 1960 0966 1801     		.2byte	0x118
 1961 0968 23       		.uleb128 0x23
 1962 0969 01       		.uleb128 0x1
 1963 096a 53       		.byte	0x53
 1964 096b 02       		.uleb128 0x2
 1965 096c 75       		.byte	0x75
 1966 096d 00       		.sleb128 0
 1967 096e 23       		.uleb128 0x23
 1968 096f 02       		.uleb128 0x2
 1969 0970 7D       		.byte	0x7d
 1970 0971 00       		.sleb128 0
 1971 0972 05       		.uleb128 0x5
 1972 0973 03       		.byte	0x3
 1973 0974 00000000 		.4byte	.LC0
 1974 0978 00       		.byte	0
 1975 0979 22       		.uleb128 0x22
 1976 097a 94000000 		.4byte	.LVL12
 1977 097e 760C0000 		.4byte	0xc76
 1978 0982 A5090000 		.4byte	0x9a5
 1979 0986 23       		.uleb128 0x23
ARM GAS  /var/folders/3j/4xdnk5197cv_b7cw3n33qk7r0000gn/T//cc62GWZk.s 			page 36


 1980 0987 01       		.uleb128 0x1
 1981 0988 50       		.byte	0x50
 1982 0989 03       		.uleb128 0x3
 1983 098a 76       		.byte	0x76
 1984 098b 10       		.sleb128 16
 1985 098c 06       		.byte	0x6
 1986 098d 23       		.uleb128 0x23
 1987 098e 01       		.uleb128 0x1
 1988 098f 51       		.byte	0x51
 1989 0990 03       		.uleb128 0x3
 1990 0991 0A       		.byte	0xa
 1991 0992 1801     		.2byte	0x118
 1992 0994 23       		.uleb128 0x23
 1993 0995 01       		.uleb128 0x1
 1994 0996 53       		.byte	0x53
 1995 0997 02       		.uleb128 0x2
 1996 0998 75       		.byte	0x75
 1997 0999 00       		.sleb128 0
 1998 099a 23       		.uleb128 0x23
 1999 099b 02       		.uleb128 0x2
 2000 099c 7D       		.byte	0x7d
 2001 099d 00       		.sleb128 0
 2002 099e 05       		.uleb128 0x5
 2003 099f 03       		.byte	0x3
 2004 09a0 10000000 		.4byte	.LC4
 2005 09a4 00       		.byte	0
 2006 09a5 22       		.uleb128 0x22
 2007 09a6 C0000000 		.4byte	.LVL13
 2008 09aa 760C0000 		.4byte	0xc76
 2009 09ae D1090000 		.4byte	0x9d1
 2010 09b2 23       		.uleb128 0x23
 2011 09b3 01       		.uleb128 0x1
 2012 09b4 50       		.byte	0x50
 2013 09b5 03       		.uleb128 0x3
 2014 09b6 76       		.byte	0x76
 2015 09b7 0C       		.sleb128 12
 2016 09b8 06       		.byte	0x6
 2017 09b9 23       		.uleb128 0x23
 2018 09ba 01       		.uleb128 0x1
 2019 09bb 51       		.byte	0x51
 2020 09bc 03       		.uleb128 0x3
 2021 09bd 0A       		.byte	0xa
 2022 09be 1801     		.2byte	0x118
 2023 09c0 23       		.uleb128 0x23
 2024 09c1 01       		.uleb128 0x1
 2025 09c2 53       		.byte	0x53
 2026 09c3 02       		.uleb128 0x2
 2027 09c4 75       		.byte	0x75
 2028 09c5 00       		.sleb128 0
 2029 09c6 23       		.uleb128 0x23
 2030 09c7 02       		.uleb128 0x2
 2031 09c8 7D       		.byte	0x7d
 2032 09c9 00       		.sleb128 0
 2033 09ca 05       		.uleb128 0x5
 2034 09cb 03       		.byte	0x3
 2035 09cc 0C000000 		.4byte	.LC3
 2036 09d0 00       		.byte	0
ARM GAS  /var/folders/3j/4xdnk5197cv_b7cw3n33qk7r0000gn/T//cc62GWZk.s 			page 37


 2037 09d1 22       		.uleb128 0x22
 2038 09d2 EC000000 		.4byte	.LVL14
 2039 09d6 820C0000 		.4byte	0xc82
 2040 09da FD090000 		.4byte	0x9fd
 2041 09de 23       		.uleb128 0x23
 2042 09df 01       		.uleb128 0x1
 2043 09e0 50       		.byte	0x50
 2044 09e1 03       		.uleb128 0x3
 2045 09e2 76       		.byte	0x76
 2046 09e3 08       		.sleb128 8
 2047 09e4 06       		.byte	0x6
 2048 09e5 23       		.uleb128 0x23
 2049 09e6 01       		.uleb128 0x1
 2050 09e7 51       		.byte	0x51
 2051 09e8 03       		.uleb128 0x3
 2052 09e9 0A       		.byte	0xa
 2053 09ea 1801     		.2byte	0x118
 2054 09ec 23       		.uleb128 0x23
 2055 09ed 01       		.uleb128 0x1
 2056 09ee 53       		.byte	0x53
 2057 09ef 02       		.uleb128 0x2
 2058 09f0 75       		.byte	0x75
 2059 09f1 00       		.sleb128 0
 2060 09f2 23       		.uleb128 0x23
 2061 09f3 02       		.uleb128 0x2
 2062 09f4 7D       		.byte	0x7d
 2063 09f5 00       		.sleb128 0
 2064 09f6 05       		.uleb128 0x5
 2065 09f7 03       		.byte	0x3
 2066 09f8 08000000 		.4byte	.LC2
 2067 09fc 00       		.byte	0
 2068 09fd 25       		.uleb128 0x25
 2069 09fe FC000000 		.4byte	.LVL15
 2070 0a02 8E0C0000 		.4byte	0xc8e
 2071 0a06 25       		.uleb128 0x25
 2072 0a07 00010000 		.4byte	.LVL16
 2073 0a0b 9A0C0000 		.4byte	0xc9a
 2074 0a0f 26       		.uleb128 0x26
 2075 0a10 14010000 		.4byte	.LVL17
 2076 0a14 A50C0000 		.4byte	0xca5
 2077 0a18 23       		.uleb128 0x23
 2078 0a19 01       		.uleb128 0x1
 2079 0a1a 50       		.byte	0x50
 2080 0a1b 01       		.uleb128 0x1
 2081 0a1c 31       		.byte	0x31
 2082 0a1d 23       		.uleb128 0x23
 2083 0a1e 01       		.uleb128 0x1
 2084 0a1f 51       		.byte	0x51
 2085 0a20 05       		.uleb128 0x5
 2086 0a21 03       		.byte	0x3
 2087 0a22 14000000 		.4byte	.LC5
 2088 0a26 00       		.byte	0
 2089 0a27 00       		.byte	0
 2090 0a28 1F       		.uleb128 0x1f
 2091 0a29 6D020000 		.4byte	.LASF116
 2092 0a2d 01       		.byte	0x1
 2093 0a2e 46       		.byte	0x46
ARM GAS  /var/folders/3j/4xdnk5197cv_b7cw3n33qk7r0000gn/T//cc62GWZk.s 			page 38


 2094 0a2f 00000000 		.4byte	.LFB8
 2095 0a33 30010000 		.4byte	.LFE8-.LFB8
 2096 0a37 01       		.uleb128 0x1
 2097 0a38 9C       		.byte	0x9c
 2098 0a39 3B0B0000 		.4byte	0xb3b
 2099 0a3d 22       		.uleb128 0x22
 2100 0a3e 38000000 		.4byte	.LVL0
 2101 0a42 760C0000 		.4byte	0xc76
 2102 0a46 690A0000 		.4byte	0xa69
 2103 0a4a 23       		.uleb128 0x23
 2104 0a4b 01       		.uleb128 0x1
 2105 0a4c 50       		.byte	0x50
 2106 0a4d 03       		.uleb128 0x3
 2107 0a4e 76       		.byte	0x76
 2108 0a4f 00       		.sleb128 0
 2109 0a50 06       		.byte	0x6
 2110 0a51 23       		.uleb128 0x23
 2111 0a52 01       		.uleb128 0x1
 2112 0a53 51       		.byte	0x51
 2113 0a54 03       		.uleb128 0x3
 2114 0a55 0A       		.byte	0xa
 2115 0a56 1801     		.2byte	0x118
 2116 0a58 23       		.uleb128 0x23
 2117 0a59 01       		.uleb128 0x1
 2118 0a5a 53       		.byte	0x53
 2119 0a5b 02       		.uleb128 0x2
 2120 0a5c 75       		.byte	0x75
 2121 0a5d 00       		.sleb128 0
 2122 0a5e 23       		.uleb128 0x23
 2123 0a5f 02       		.uleb128 0x2
 2124 0a60 7D       		.byte	0x7d
 2125 0a61 00       		.sleb128 0
 2126 0a62 05       		.uleb128 0x5
 2127 0a63 03       		.byte	0x3
 2128 0a64 00000000 		.4byte	.LC0
 2129 0a68 00       		.byte	0
 2130 0a69 22       		.uleb128 0x22
 2131 0a6a 68000000 		.4byte	.LVL1
 2132 0a6e 760C0000 		.4byte	0xc76
 2133 0a72 950A0000 		.4byte	0xa95
 2134 0a76 23       		.uleb128 0x23
 2135 0a77 01       		.uleb128 0x1
 2136 0a78 50       		.byte	0x50
 2137 0a79 03       		.uleb128 0x3
 2138 0a7a 76       		.byte	0x76
 2139 0a7b 04       		.sleb128 4
 2140 0a7c 06       		.byte	0x6
 2141 0a7d 23       		.uleb128 0x23
 2142 0a7e 01       		.uleb128 0x1
 2143 0a7f 51       		.byte	0x51
 2144 0a80 03       		.uleb128 0x3
 2145 0a81 0A       		.byte	0xa
 2146 0a82 1801     		.2byte	0x118
 2147 0a84 23       		.uleb128 0x23
 2148 0a85 01       		.uleb128 0x1
 2149 0a86 53       		.byte	0x53
 2150 0a87 02       		.uleb128 0x2
ARM GAS  /var/folders/3j/4xdnk5197cv_b7cw3n33qk7r0000gn/T//cc62GWZk.s 			page 39


 2151 0a88 75       		.byte	0x75
 2152 0a89 00       		.sleb128 0
 2153 0a8a 23       		.uleb128 0x23
 2154 0a8b 02       		.uleb128 0x2
 2155 0a8c 7D       		.byte	0x7d
 2156 0a8d 00       		.sleb128 0
 2157 0a8e 05       		.uleb128 0x5
 2158 0a8f 03       		.byte	0x3
 2159 0a90 04000000 		.4byte	.LC1
 2160 0a94 00       		.byte	0
 2161 0a95 22       		.uleb128 0x22
 2162 0a96 94000000 		.4byte	.LVL2
 2163 0a9a 760C0000 		.4byte	0xc76
 2164 0a9e C10A0000 		.4byte	0xac1
 2165 0aa2 23       		.uleb128 0x23
 2166 0aa3 01       		.uleb128 0x1
 2167 0aa4 50       		.byte	0x50
 2168 0aa5 03       		.uleb128 0x3
 2169 0aa6 76       		.byte	0x76
 2170 0aa7 08       		.sleb128 8
 2171 0aa8 06       		.byte	0x6
 2172 0aa9 23       		.uleb128 0x23
 2173 0aaa 01       		.uleb128 0x1
 2174 0aab 51       		.byte	0x51
 2175 0aac 03       		.uleb128 0x3
 2176 0aad 0A       		.byte	0xa
 2177 0aae 1801     		.2byte	0x118
 2178 0ab0 23       		.uleb128 0x23
 2179 0ab1 01       		.uleb128 0x1
 2180 0ab2 53       		.byte	0x53
 2181 0ab3 02       		.uleb128 0x2
 2182 0ab4 75       		.byte	0x75
 2183 0ab5 00       		.sleb128 0
 2184 0ab6 23       		.uleb128 0x23
 2185 0ab7 02       		.uleb128 0x2
 2186 0ab8 7D       		.byte	0x7d
 2187 0ab9 00       		.sleb128 0
 2188 0aba 05       		.uleb128 0x5
 2189 0abb 03       		.byte	0x3
 2190 0abc 08000000 		.4byte	.LC2
 2191 0ac0 00       		.byte	0
 2192 0ac1 22       		.uleb128 0x22
 2193 0ac2 C0000000 		.4byte	.LVL3
 2194 0ac6 760C0000 		.4byte	0xc76
 2195 0aca ED0A0000 		.4byte	0xaed
 2196 0ace 23       		.uleb128 0x23
 2197 0acf 01       		.uleb128 0x1
 2198 0ad0 50       		.byte	0x50
 2199 0ad1 03       		.uleb128 0x3
 2200 0ad2 76       		.byte	0x76
 2201 0ad3 0C       		.sleb128 12
 2202 0ad4 06       		.byte	0x6
 2203 0ad5 23       		.uleb128 0x23
 2204 0ad6 01       		.uleb128 0x1
 2205 0ad7 51       		.byte	0x51
 2206 0ad8 03       		.uleb128 0x3
 2207 0ad9 0A       		.byte	0xa
ARM GAS  /var/folders/3j/4xdnk5197cv_b7cw3n33qk7r0000gn/T//cc62GWZk.s 			page 40


 2208 0ada 1801     		.2byte	0x118
 2209 0adc 23       		.uleb128 0x23
 2210 0add 01       		.uleb128 0x1
 2211 0ade 53       		.byte	0x53
 2212 0adf 02       		.uleb128 0x2
 2213 0ae0 75       		.byte	0x75
 2214 0ae1 00       		.sleb128 0
 2215 0ae2 23       		.uleb128 0x23
 2216 0ae3 02       		.uleb128 0x2
 2217 0ae4 7D       		.byte	0x7d
 2218 0ae5 00       		.sleb128 0
 2219 0ae6 05       		.uleb128 0x5
 2220 0ae7 03       		.byte	0x3
 2221 0ae8 0C000000 		.4byte	.LC3
 2222 0aec 00       		.byte	0
 2223 0aed 22       		.uleb128 0x22
 2224 0aee EC000000 		.4byte	.LVL4
 2225 0af2 760C0000 		.4byte	0xc76
 2226 0af6 190B0000 		.4byte	0xb19
 2227 0afa 23       		.uleb128 0x23
 2228 0afb 01       		.uleb128 0x1
 2229 0afc 50       		.byte	0x50
 2230 0afd 03       		.uleb128 0x3
 2231 0afe 76       		.byte	0x76
 2232 0aff 10       		.sleb128 16
 2233 0b00 06       		.byte	0x6
 2234 0b01 23       		.uleb128 0x23
 2235 0b02 01       		.uleb128 0x1
 2236 0b03 51       		.byte	0x51
 2237 0b04 03       		.uleb128 0x3
 2238 0b05 0A       		.byte	0xa
 2239 0b06 1801     		.2byte	0x118
 2240 0b08 23       		.uleb128 0x23
 2241 0b09 01       		.uleb128 0x1
 2242 0b0a 53       		.byte	0x53
 2243 0b0b 02       		.uleb128 0x2
 2244 0b0c 75       		.byte	0x75
 2245 0b0d 00       		.sleb128 0
 2246 0b0e 23       		.uleb128 0x23
 2247 0b0f 02       		.uleb128 0x2
 2248 0b10 7D       		.byte	0x7d
 2249 0b11 00       		.sleb128 0
 2250 0b12 05       		.uleb128 0x5
 2251 0b13 03       		.byte	0x3
 2252 0b14 10000000 		.4byte	.LC4
 2253 0b18 00       		.byte	0
 2254 0b19 25       		.uleb128 0x25
 2255 0b1a F4000000 		.4byte	.LVL5
 2256 0b1e 9A0C0000 		.4byte	0xc9a
 2257 0b22 26       		.uleb128 0x26
 2258 0b23 08010000 		.4byte	.LVL6
 2259 0b27 A50C0000 		.4byte	0xca5
 2260 0b2b 23       		.uleb128 0x23
 2261 0b2c 01       		.uleb128 0x1
 2262 0b2d 50       		.byte	0x50
 2263 0b2e 01       		.uleb128 0x1
 2264 0b2f 31       		.byte	0x31
ARM GAS  /var/folders/3j/4xdnk5197cv_b7cw3n33qk7r0000gn/T//cc62GWZk.s 			page 41


 2265 0b30 23       		.uleb128 0x23
 2266 0b31 01       		.uleb128 0x1
 2267 0b32 51       		.byte	0x51
 2268 0b33 05       		.uleb128 0x5
 2269 0b34 03       		.byte	0x3
 2270 0b35 14000000 		.4byte	.LC5
 2271 0b39 00       		.byte	0
 2272 0b3a 00       		.byte	0
 2273 0b3b 27       		.uleb128 0x27
 2274 0b3c 72040000 		.4byte	.LASF135
 2275 0b40 01       		.byte	0x1
 2276 0b41 40       		.byte	0x40
 2277 0b42 05010000 		.4byte	0x105
 2278 0b46 00000000 		.4byte	.LFB7
 2279 0b4a 14000000 		.4byte	.LFE7-.LFB7
 2280 0b4e 01       		.uleb128 0x1
 2281 0b4f 9C       		.byte	0x9c
 2282 0b50 6B0B0000 		.4byte	0xb6b
 2283 0b54 28       		.uleb128 0x28
 2284 0b55 7000     		.ascii	"p\000"
 2285 0b57 01       		.byte	0x1
 2286 0b58 40       		.byte	0x40
 2287 0b59 8F020000 		.4byte	0x28f
 2288 0b5d 3F000000 		.4byte	.LLST0
 2289 0b61 25       		.uleb128 0x25
 2290 0b62 0C000000 		.4byte	.LVL9
 2291 0b66 B00C0000 		.4byte	0xcb0
 2292 0b6a 00       		.byte	0
 2293 0b6b 29       		.uleb128 0x29
 2294 0b6c 9B070000 		.4byte	0x79b
 2295 0b70 00000000 		.4byte	.LFB11
 2296 0b74 A0000000 		.4byte	.LFE11-.LFB11
 2297 0b78 01       		.uleb128 0x1
 2298 0b79 9C       		.byte	0x9c
 2299 0b7a 5F0C0000 		.4byte	0xc5f
 2300 0b7e 2A       		.uleb128 0x2a
 2301 0b7f A7070000 		.4byte	0x7a7
 2302 0b83 60000000 		.4byte	.LLST2
 2303 0b87 2B       		.uleb128 0x2b
 2304 0b88 00000000 		.4byte	.Ldebug_ranges0+0
 2305 0b8c EF0B0000 		.4byte	0xbef
 2306 0b90 2C       		.uleb128 0x2c
 2307 0b91 7E0B0000 		.4byte	0xb7e
 2308 0b95 22       		.uleb128 0x22
 2309 0b96 60000000 		.4byte	.LVL47
 2310 0b9a BB0C0000 		.4byte	0xcbb
 2311 0b9e AA0B0000 		.4byte	0xbaa
 2312 0ba2 23       		.uleb128 0x23
 2313 0ba3 01       		.uleb128 0x1
 2314 0ba4 50       		.byte	0x50
 2315 0ba5 03       		.uleb128 0x3
 2316 0ba6 0A       		.byte	0xa
 2317 0ba7 E803     		.2byte	0x3e8
 2318 0ba9 00       		.byte	0
 2319 0baa 22       		.uleb128 0x22
 2320 0bab 70000000 		.4byte	.LVL48
 2321 0baf C70C0000 		.4byte	0xcc7
ARM GAS  /var/folders/3j/4xdnk5197cv_b7cw3n33qk7r0000gn/T//cc62GWZk.s 			page 42


 2322 0bb3 CB0B0000 		.4byte	0xbcb
 2323 0bb7 23       		.uleb128 0x23
 2324 0bb8 01       		.uleb128 0x1
 2325 0bb9 50       		.byte	0x50
 2326 0bba 01       		.uleb128 0x1
 2327 0bbb 33       		.byte	0x33
 2328 0bbc 23       		.uleb128 0x23
 2329 0bbd 01       		.uleb128 0x1
 2330 0bbe 51       		.byte	0x51
 2331 0bbf 03       		.uleb128 0x3
 2332 0bc0 74       		.byte	0x74
 2333 0bc1 E807     		.sleb128 1000
 2334 0bc3 23       		.uleb128 0x23
 2335 0bc4 01       		.uleb128 0x1
 2336 0bc5 52       		.byte	0x52
 2337 0bc6 03       		.uleb128 0x3
 2338 0bc7 74       		.byte	0x74
 2339 0bc8 E907     		.sleb128 1001
 2340 0bca 00       		.byte	0
 2341 0bcb 22       		.uleb128 0x22
 2342 0bcc 88000000 		.4byte	.LVL51
 2343 0bd0 D20C0000 		.4byte	0xcd2
 2344 0bd4 DF0B0000 		.4byte	0xbdf
 2345 0bd8 23       		.uleb128 0x23
 2346 0bd9 01       		.uleb128 0x1
 2347 0bda 50       		.byte	0x50
 2348 0bdb 02       		.uleb128 0x2
 2349 0bdc 75       		.byte	0x75
 2350 0bdd 00       		.sleb128 0
 2351 0bde 00       		.byte	0
 2352 0bdf 26       		.uleb128 0x26
 2353 0be0 9C000000 		.4byte	.LVL53
 2354 0be4 C70C0000 		.4byte	0xcc7
 2355 0be8 23       		.uleb128 0x23
 2356 0be9 01       		.uleb128 0x1
 2357 0bea 50       		.byte	0x50
 2358 0beb 01       		.uleb128 0x1
 2359 0bec 34       		.byte	0x34
 2360 0bed 00       		.byte	0
 2361 0bee 00       		.byte	0
 2362 0bef 25       		.uleb128 0x25
 2363 0bf0 0C000000 		.4byte	.LVL39
 2364 0bf4 DE0C0000 		.4byte	0xcde
 2365 0bf8 22       		.uleb128 0x22
 2366 0bf9 18000000 		.4byte	.LVL41
 2367 0bfd BB0C0000 		.4byte	0xcbb
 2368 0c01 0C0C0000 		.4byte	0xc0c
 2369 0c05 23       		.uleb128 0x23
 2370 0c06 01       		.uleb128 0x1
 2371 0c07 50       		.byte	0x50
 2372 0c08 02       		.uleb128 0x2
 2373 0c09 08       		.byte	0x8
 2374 0c0a 64       		.byte	0x64
 2375 0c0b 00       		.byte	0
 2376 0c0c 22       		.uleb128 0x22
 2377 0c0d 28000000 		.4byte	.LVL42
 2378 0c11 C70C0000 		.4byte	0xcc7
ARM GAS  /var/folders/3j/4xdnk5197cv_b7cw3n33qk7r0000gn/T//cc62GWZk.s 			page 43


 2379 0c15 2D0C0000 		.4byte	0xc2d
 2380 0c19 23       		.uleb128 0x23
 2381 0c1a 01       		.uleb128 0x1
 2382 0c1b 50       		.byte	0x50
 2383 0c1c 01       		.uleb128 0x1
 2384 0c1d 31       		.byte	0x31
 2385 0c1e 23       		.uleb128 0x23
 2386 0c1f 01       		.uleb128 0x1
 2387 0c20 51       		.byte	0x51
 2388 0c21 03       		.uleb128 0x3
 2389 0c22 74       		.byte	0x74
 2390 0c23 E400     		.sleb128 100
 2391 0c25 23       		.uleb128 0x23
 2392 0c26 01       		.uleb128 0x1
 2393 0c27 52       		.byte	0x52
 2394 0c28 03       		.uleb128 0x3
 2395 0c29 74       		.byte	0x74
 2396 0c2a E500     		.sleb128 101
 2397 0c2c 00       		.byte	0
 2398 0c2d 22       		.uleb128 0x22
 2399 0c2e 3C000000 		.4byte	.LVL44
 2400 0c32 BB0C0000 		.4byte	0xcbb
 2401 0c36 410C0000 		.4byte	0xc41
 2402 0c3a 23       		.uleb128 0x23
 2403 0c3b 01       		.uleb128 0x1
 2404 0c3c 50       		.byte	0x50
 2405 0c3d 02       		.uleb128 0x2
 2406 0c3e 08       		.byte	0x8
 2407 0c3f 64       		.byte	0x64
 2408 0c40 00       		.byte	0
 2409 0c41 24       		.uleb128 0x24
 2410 0c42 4C000000 		.4byte	.LVL45
 2411 0c46 C70C0000 		.4byte	0xcc7
 2412 0c4a 23       		.uleb128 0x23
 2413 0c4b 01       		.uleb128 0x1
 2414 0c4c 50       		.byte	0x50
 2415 0c4d 01       		.uleb128 0x1
 2416 0c4e 32       		.byte	0x32
 2417 0c4f 23       		.uleb128 0x23
 2418 0c50 01       		.uleb128 0x1
 2419 0c51 51       		.byte	0x51
 2420 0c52 03       		.uleb128 0x3
 2421 0c53 74       		.byte	0x74
 2422 0c54 E400     		.sleb128 100
 2423 0c56 23       		.uleb128 0x23
 2424 0c57 01       		.uleb128 0x1
 2425 0c58 52       		.byte	0x52
 2426 0c59 03       		.uleb128 0x3
 2427 0c5a 74       		.byte	0x74
 2428 0c5b E500     		.sleb128 101
 2429 0c5d 00       		.byte	0
 2430 0c5e 00       		.byte	0
 2431 0c5f 2D       		.uleb128 0x2d
 2432 0c60 40020000 		.4byte	.LASF117
 2433 0c64 40020000 		.4byte	.LASF117
 2434 0c68 06       		.byte	0x6
 2435 0c69 6601     		.2byte	0x166
ARM GAS  /var/folders/3j/4xdnk5197cv_b7cw3n33qk7r0000gn/T//cc62GWZk.s 			page 44


 2436 0c6b 2E       		.uleb128 0x2e
 2437 0c6c 29060000 		.4byte	.LASF118
 2438 0c70 29060000 		.4byte	.LASF118
 2439 0c74 0D       		.byte	0xd
 2440 0c75 5C       		.byte	0x5c
 2441 0c76 2D       		.uleb128 0x2d
 2442 0c77 45030000 		.4byte	.LASF119
 2443 0c7b 45030000 		.4byte	.LASF119
 2444 0c7f 06       		.byte	0x6
 2445 0c80 6401     		.2byte	0x164
 2446 0c82 2D       		.uleb128 0x2d
 2447 0c83 D6010000 		.4byte	.LASF120
 2448 0c87 D6010000 		.4byte	.LASF120
 2449 0c8b 06       		.byte	0x6
 2450 0c8c 6201     		.2byte	0x162
 2451 0c8e 2D       		.uleb128 0x2d
 2452 0c8f AB030000 		.4byte	.LASF121
 2453 0c93 AB030000 		.4byte	.LASF121
 2454 0c97 06       		.byte	0x6
 2455 0c98 6701     		.2byte	0x167
 2456 0c9a 2E       		.uleb128 0x2e
 2457 0c9b C3030000 		.4byte	.LASF122
 2458 0c9f C3030000 		.4byte	.LASF122
 2459 0ca3 0D       		.byte	0xd
 2460 0ca4 60       		.byte	0x60
 2461 0ca5 2E       		.uleb128 0x2e
 2462 0ca6 FE030000 		.4byte	.LASF123
 2463 0caa FE030000 		.4byte	.LASF123
 2464 0cae 0D       		.byte	0xd
 2465 0caf 5D       		.byte	0x5d
 2466 0cb0 2E       		.uleb128 0x2e
 2467 0cb1 13010000 		.4byte	.LASF124
 2468 0cb5 13010000 		.4byte	.LASF124
 2469 0cb9 0D       		.byte	0xd
 2470 0cba 5A       		.byte	0x5a
 2471 0cbb 2D       		.uleb128 0x2d
 2472 0cbc 37050000 		.4byte	.LASF125
 2473 0cc0 37050000 		.4byte	.LASF125
 2474 0cc4 06       		.byte	0x6
 2475 0cc5 6901     		.2byte	0x169
 2476 0cc7 2E       		.uleb128 0x2e
 2477 0cc8 F5010000 		.4byte	.LASF126
 2478 0ccc F5010000 		.4byte	.LASF126
 2479 0cd0 0D       		.byte	0xd
 2480 0cd1 5E       		.byte	0x5e
 2481 0cd2 2D       		.uleb128 0x2d
 2482 0cd3 2B040000 		.4byte	.LASF127
 2483 0cd7 2B040000 		.4byte	.LASF127
 2484 0cdb 06       		.byte	0x6
 2485 0cdc 6A01     		.2byte	0x16a
 2486 0cde 2E       		.uleb128 0x2e
 2487 0cdf 8F040000 		.4byte	.LASF128
 2488 0ce3 8F040000 		.4byte	.LASF128
 2489 0ce7 0D       		.byte	0xd
 2490 0ce8 61       		.byte	0x61
 2491 0ce9 00       		.byte	0
 2492              		.section	.debug_abbrev,"",%progbits
ARM GAS  /var/folders/3j/4xdnk5197cv_b7cw3n33qk7r0000gn/T//cc62GWZk.s 			page 45


 2493              	.Ldebug_abbrev0:
 2494 0000 01       		.uleb128 0x1
 2495 0001 11       		.uleb128 0x11
 2496 0002 01       		.byte	0x1
 2497 0003 25       		.uleb128 0x25
 2498 0004 0E       		.uleb128 0xe
 2499 0005 13       		.uleb128 0x13
 2500 0006 0B       		.uleb128 0xb
 2501 0007 03       		.uleb128 0x3
 2502 0008 0E       		.uleb128 0xe
 2503 0009 1B       		.uleb128 0x1b
 2504 000a 0E       		.uleb128 0xe
 2505 000b 55       		.uleb128 0x55
 2506 000c 17       		.uleb128 0x17
 2507 000d 11       		.uleb128 0x11
 2508 000e 01       		.uleb128 0x1
 2509 000f 10       		.uleb128 0x10
 2510 0010 17       		.uleb128 0x17
 2511 0011 00       		.byte	0
 2512 0012 00       		.byte	0
 2513 0013 02       		.uleb128 0x2
 2514 0014 24       		.uleb128 0x24
 2515 0015 00       		.byte	0
 2516 0016 0B       		.uleb128 0xb
 2517 0017 0B       		.uleb128 0xb
 2518 0018 3E       		.uleb128 0x3e
 2519 0019 0B       		.uleb128 0xb
 2520 001a 03       		.uleb128 0x3
 2521 001b 08       		.uleb128 0x8
 2522 001c 00       		.byte	0
 2523 001d 00       		.byte	0
 2524 001e 03       		.uleb128 0x3
 2525 001f 24       		.uleb128 0x24
 2526 0020 00       		.byte	0
 2527 0021 0B       		.uleb128 0xb
 2528 0022 0B       		.uleb128 0xb
 2529 0023 3E       		.uleb128 0x3e
 2530 0024 0B       		.uleb128 0xb
 2531 0025 03       		.uleb128 0x3
 2532 0026 0E       		.uleb128 0xe
 2533 0027 00       		.byte	0
 2534 0028 00       		.byte	0
 2535 0029 04       		.uleb128 0x4
 2536 002a 16       		.uleb128 0x16
 2537 002b 00       		.byte	0
 2538 002c 03       		.uleb128 0x3
 2539 002d 0E       		.uleb128 0xe
 2540 002e 3A       		.uleb128 0x3a
 2541 002f 0B       		.uleb128 0xb
 2542 0030 3B       		.uleb128 0x3b
 2543 0031 0B       		.uleb128 0xb
 2544 0032 49       		.uleb128 0x49
 2545 0033 13       		.uleb128 0x13
 2546 0034 00       		.byte	0
 2547 0035 00       		.byte	0
 2548 0036 05       		.uleb128 0x5
 2549 0037 35       		.uleb128 0x35
ARM GAS  /var/folders/3j/4xdnk5197cv_b7cw3n33qk7r0000gn/T//cc62GWZk.s 			page 46


 2550 0038 00       		.byte	0
 2551 0039 49       		.uleb128 0x49
 2552 003a 13       		.uleb128 0x13
 2553 003b 00       		.byte	0
 2554 003c 00       		.byte	0
 2555 003d 06       		.uleb128 0x6
 2556 003e 13       		.uleb128 0x13
 2557 003f 01       		.byte	0x1
 2558 0040 03       		.uleb128 0x3
 2559 0041 0E       		.uleb128 0xe
 2560 0042 0B       		.uleb128 0xb
 2561 0043 0B       		.uleb128 0xb
 2562 0044 3A       		.uleb128 0x3a
 2563 0045 0B       		.uleb128 0xb
 2564 0046 3B       		.uleb128 0x3b
 2565 0047 0B       		.uleb128 0xb
 2566 0048 01       		.uleb128 0x1
 2567 0049 13       		.uleb128 0x13
 2568 004a 00       		.byte	0
 2569 004b 00       		.byte	0
 2570 004c 07       		.uleb128 0x7
 2571 004d 0D       		.uleb128 0xd
 2572 004e 00       		.byte	0
 2573 004f 03       		.uleb128 0x3
 2574 0050 0E       		.uleb128 0xe
 2575 0051 3A       		.uleb128 0x3a
 2576 0052 0B       		.uleb128 0xb
 2577 0053 3B       		.uleb128 0x3b
 2578 0054 0B       		.uleb128 0xb
 2579 0055 49       		.uleb128 0x49
 2580 0056 13       		.uleb128 0x13
 2581 0057 38       		.uleb128 0x38
 2582 0058 0B       		.uleb128 0xb
 2583 0059 00       		.byte	0
 2584 005a 00       		.byte	0
 2585 005b 08       		.uleb128 0x8
 2586 005c 0D       		.uleb128 0xd
 2587 005d 00       		.byte	0
 2588 005e 03       		.uleb128 0x3
 2589 005f 08       		.uleb128 0x8
 2590 0060 3A       		.uleb128 0x3a
 2591 0061 0B       		.uleb128 0xb
 2592 0062 3B       		.uleb128 0x3b
 2593 0063 0B       		.uleb128 0xb
 2594 0064 49       		.uleb128 0x49
 2595 0065 13       		.uleb128 0x13
 2596 0066 38       		.uleb128 0x38
 2597 0067 0B       		.uleb128 0xb
 2598 0068 00       		.byte	0
 2599 0069 00       		.byte	0
 2600 006a 09       		.uleb128 0x9
 2601 006b 13       		.uleb128 0x13
 2602 006c 01       		.byte	0x1
 2603 006d 0B       		.uleb128 0xb
 2604 006e 0B       		.uleb128 0xb
 2605 006f 3A       		.uleb128 0x3a
 2606 0070 0B       		.uleb128 0xb
ARM GAS  /var/folders/3j/4xdnk5197cv_b7cw3n33qk7r0000gn/T//cc62GWZk.s 			page 47


 2607 0071 3B       		.uleb128 0x3b
 2608 0072 0B       		.uleb128 0xb
 2609 0073 01       		.uleb128 0x1
 2610 0074 13       		.uleb128 0x13
 2611 0075 00       		.byte	0
 2612 0076 00       		.byte	0
 2613 0077 0A       		.uleb128 0xa
 2614 0078 0F       		.uleb128 0xf
 2615 0079 00       		.byte	0
 2616 007a 0B       		.uleb128 0xb
 2617 007b 0B       		.uleb128 0xb
 2618 007c 49       		.uleb128 0x49
 2619 007d 13       		.uleb128 0x13
 2620 007e 00       		.byte	0
 2621 007f 00       		.byte	0
 2622 0080 0B       		.uleb128 0xb
 2623 0081 0F       		.uleb128 0xf
 2624 0082 00       		.byte	0
 2625 0083 0B       		.uleb128 0xb
 2626 0084 0B       		.uleb128 0xb
 2627 0085 00       		.byte	0
 2628 0086 00       		.byte	0
 2629 0087 0C       		.uleb128 0xc
 2630 0088 26       		.uleb128 0x26
 2631 0089 00       		.byte	0
 2632 008a 49       		.uleb128 0x49
 2633 008b 13       		.uleb128 0x13
 2634 008c 00       		.byte	0
 2635 008d 00       		.byte	0
 2636 008e 0D       		.uleb128 0xd
 2637 008f 15       		.uleb128 0x15
 2638 0090 01       		.byte	0x1
 2639 0091 27       		.uleb128 0x27
 2640 0092 19       		.uleb128 0x19
 2641 0093 01       		.uleb128 0x1
 2642 0094 13       		.uleb128 0x13
 2643 0095 00       		.byte	0
 2644 0096 00       		.byte	0
 2645 0097 0E       		.uleb128 0xe
 2646 0098 05       		.uleb128 0x5
 2647 0099 00       		.byte	0
 2648 009a 49       		.uleb128 0x49
 2649 009b 13       		.uleb128 0x13
 2650 009c 00       		.byte	0
 2651 009d 00       		.byte	0
 2652 009e 0F       		.uleb128 0xf
 2653 009f 34       		.uleb128 0x34
 2654 00a0 00       		.byte	0
 2655 00a1 03       		.uleb128 0x3
 2656 00a2 0E       		.uleb128 0xe
 2657 00a3 3A       		.uleb128 0x3a
 2658 00a4 0B       		.uleb128 0xb
 2659 00a5 3B       		.uleb128 0x3b
 2660 00a6 0B       		.uleb128 0xb
 2661 00a7 49       		.uleb128 0x49
 2662 00a8 13       		.uleb128 0x13
 2663 00a9 3F       		.uleb128 0x3f
ARM GAS  /var/folders/3j/4xdnk5197cv_b7cw3n33qk7r0000gn/T//cc62GWZk.s 			page 48


 2664 00aa 19       		.uleb128 0x19
 2665 00ab 3C       		.uleb128 0x3c
 2666 00ac 19       		.uleb128 0x19
 2667 00ad 00       		.byte	0
 2668 00ae 00       		.byte	0
 2669 00af 10       		.uleb128 0x10
 2670 00b0 17       		.uleb128 0x17
 2671 00b1 01       		.byte	0x1
 2672 00b2 0B       		.uleb128 0xb
 2673 00b3 0B       		.uleb128 0xb
 2674 00b4 3A       		.uleb128 0x3a
 2675 00b5 0B       		.uleb128 0xb
 2676 00b6 3B       		.uleb128 0x3b
 2677 00b7 0B       		.uleb128 0xb
 2678 00b8 01       		.uleb128 0x1
 2679 00b9 13       		.uleb128 0x13
 2680 00ba 00       		.byte	0
 2681 00bb 00       		.byte	0
 2682 00bc 11       		.uleb128 0x11
 2683 00bd 0D       		.uleb128 0xd
 2684 00be 00       		.byte	0
 2685 00bf 03       		.uleb128 0x3
 2686 00c0 0E       		.uleb128 0xe
 2687 00c1 3A       		.uleb128 0x3a
 2688 00c2 0B       		.uleb128 0xb
 2689 00c3 3B       		.uleb128 0x3b
 2690 00c4 0B       		.uleb128 0xb
 2691 00c5 49       		.uleb128 0x49
 2692 00c6 13       		.uleb128 0x13
 2693 00c7 00       		.byte	0
 2694 00c8 00       		.byte	0
 2695 00c9 12       		.uleb128 0x12
 2696 00ca 01       		.uleb128 0x1
 2697 00cb 01       		.byte	0x1
 2698 00cc 49       		.uleb128 0x49
 2699 00cd 13       		.uleb128 0x13
 2700 00ce 01       		.uleb128 0x1
 2701 00cf 13       		.uleb128 0x13
 2702 00d0 00       		.byte	0
 2703 00d1 00       		.byte	0
 2704 00d2 13       		.uleb128 0x13
 2705 00d3 21       		.uleb128 0x21
 2706 00d4 00       		.byte	0
 2707 00d5 49       		.uleb128 0x49
 2708 00d6 13       		.uleb128 0x13
 2709 00d7 2F       		.uleb128 0x2f
 2710 00d8 0B       		.uleb128 0xb
 2711 00d9 00       		.byte	0
 2712 00da 00       		.byte	0
 2713 00db 14       		.uleb128 0x14
 2714 00dc 15       		.uleb128 0x15
 2715 00dd 00       		.byte	0
 2716 00de 27       		.uleb128 0x27
 2717 00df 19       		.uleb128 0x19
 2718 00e0 00       		.byte	0
 2719 00e1 00       		.byte	0
 2720 00e2 15       		.uleb128 0x15
ARM GAS  /var/folders/3j/4xdnk5197cv_b7cw3n33qk7r0000gn/T//cc62GWZk.s 			page 49


 2721 00e3 13       		.uleb128 0x13
 2722 00e4 01       		.byte	0x1
 2723 00e5 0B       		.uleb128 0xb
 2724 00e6 05       		.uleb128 0x5
 2725 00e7 3A       		.uleb128 0x3a
 2726 00e8 0B       		.uleb128 0xb
 2727 00e9 3B       		.uleb128 0x3b
 2728 00ea 0B       		.uleb128 0xb
 2729 00eb 01       		.uleb128 0x1
 2730 00ec 13       		.uleb128 0x13
 2731 00ed 00       		.byte	0
 2732 00ee 00       		.byte	0
 2733 00ef 16       		.uleb128 0x16
 2734 00f0 0D       		.uleb128 0xd
 2735 00f1 00       		.byte	0
 2736 00f2 03       		.uleb128 0x3
 2737 00f3 08       		.uleb128 0x8
 2738 00f4 3A       		.uleb128 0x3a
 2739 00f5 0B       		.uleb128 0xb
 2740 00f6 3B       		.uleb128 0x3b
 2741 00f7 0B       		.uleb128 0xb
 2742 00f8 49       		.uleb128 0x49
 2743 00f9 13       		.uleb128 0x13
 2744 00fa 38       		.uleb128 0x38
 2745 00fb 05       		.uleb128 0x5
 2746 00fc 00       		.byte	0
 2747 00fd 00       		.byte	0
 2748 00fe 17       		.uleb128 0x17
 2749 00ff 17       		.uleb128 0x17
 2750 0100 01       		.byte	0x1
 2751 0101 03       		.uleb128 0x3
 2752 0102 0E       		.uleb128 0xe
 2753 0103 0B       		.uleb128 0xb
 2754 0104 05       		.uleb128 0x5
 2755 0105 3A       		.uleb128 0x3a
 2756 0106 0B       		.uleb128 0xb
 2757 0107 3B       		.uleb128 0x3b
 2758 0108 0B       		.uleb128 0xb
 2759 0109 01       		.uleb128 0x1
 2760 010a 13       		.uleb128 0x13
 2761 010b 00       		.byte	0
 2762 010c 00       		.byte	0
 2763 010d 18       		.uleb128 0x18
 2764 010e 0D       		.uleb128 0xd
 2765 010f 00       		.byte	0
 2766 0110 03       		.uleb128 0x3
 2767 0111 08       		.uleb128 0x8
 2768 0112 3A       		.uleb128 0x3a
 2769 0113 0B       		.uleb128 0xb
 2770 0114 3B       		.uleb128 0x3b
 2771 0115 0B       		.uleb128 0xb
 2772 0116 49       		.uleb128 0x49
 2773 0117 13       		.uleb128 0x13
 2774 0118 00       		.byte	0
 2775 0119 00       		.byte	0
 2776 011a 19       		.uleb128 0x19
 2777 011b 21       		.uleb128 0x21
ARM GAS  /var/folders/3j/4xdnk5197cv_b7cw3n33qk7r0000gn/T//cc62GWZk.s 			page 50


 2778 011c 00       		.byte	0
 2779 011d 49       		.uleb128 0x49
 2780 011e 13       		.uleb128 0x13
 2781 011f 2F       		.uleb128 0x2f
 2782 0120 05       		.uleb128 0x5
 2783 0121 00       		.byte	0
 2784 0122 00       		.byte	0
 2785 0123 1A       		.uleb128 0x1a
 2786 0124 21       		.uleb128 0x21
 2787 0125 00       		.byte	0
 2788 0126 00       		.byte	0
 2789 0127 00       		.byte	0
 2790 0128 1B       		.uleb128 0x1b
 2791 0129 34       		.uleb128 0x34
 2792 012a 00       		.byte	0
 2793 012b 03       		.uleb128 0x3
 2794 012c 08       		.uleb128 0x8
 2795 012d 3A       		.uleb128 0x3a
 2796 012e 0B       		.uleb128 0xb
 2797 012f 3B       		.uleb128 0x3b
 2798 0130 0B       		.uleb128 0xb
 2799 0131 49       		.uleb128 0x49
 2800 0132 13       		.uleb128 0x13
 2801 0133 3F       		.uleb128 0x3f
 2802 0134 19       		.uleb128 0x19
 2803 0135 3C       		.uleb128 0x3c
 2804 0136 19       		.uleb128 0x19
 2805 0137 00       		.byte	0
 2806 0138 00       		.byte	0
 2807 0139 1C       		.uleb128 0x1c
 2808 013a 34       		.uleb128 0x34
 2809 013b 00       		.byte	0
 2810 013c 03       		.uleb128 0x3
 2811 013d 0E       		.uleb128 0xe
 2812 013e 3A       		.uleb128 0x3a
 2813 013f 0B       		.uleb128 0xb
 2814 0140 3B       		.uleb128 0x3b
 2815 0141 0B       		.uleb128 0xb
 2816 0142 49       		.uleb128 0x49
 2817 0143 13       		.uleb128 0x13
 2818 0144 3F       		.uleb128 0x3f
 2819 0145 19       		.uleb128 0x19
 2820 0146 02       		.uleb128 0x2
 2821 0147 18       		.uleb128 0x18
 2822 0148 00       		.byte	0
 2823 0149 00       		.byte	0
 2824 014a 1D       		.uleb128 0x1d
 2825 014b 2E       		.uleb128 0x2e
 2826 014c 01       		.byte	0x1
 2827 014d 03       		.uleb128 0x3
 2828 014e 0E       		.uleb128 0xe
 2829 014f 3A       		.uleb128 0x3a
 2830 0150 0B       		.uleb128 0xb
 2831 0151 3B       		.uleb128 0x3b
 2832 0152 0B       		.uleb128 0xb
 2833 0153 27       		.uleb128 0x27
 2834 0154 19       		.uleb128 0x19
ARM GAS  /var/folders/3j/4xdnk5197cv_b7cw3n33qk7r0000gn/T//cc62GWZk.s 			page 51


 2835 0155 20       		.uleb128 0x20
 2836 0156 0B       		.uleb128 0xb
 2837 0157 01       		.uleb128 0x1
 2838 0158 13       		.uleb128 0x13
 2839 0159 00       		.byte	0
 2840 015a 00       		.byte	0
 2841 015b 1E       		.uleb128 0x1e
 2842 015c 34       		.uleb128 0x34
 2843 015d 00       		.byte	0
 2844 015e 03       		.uleb128 0x3
 2845 015f 0E       		.uleb128 0xe
 2846 0160 3A       		.uleb128 0x3a
 2847 0161 0B       		.uleb128 0xb
 2848 0162 3B       		.uleb128 0x3b
 2849 0163 0B       		.uleb128 0xb
 2850 0164 49       		.uleb128 0x49
 2851 0165 13       		.uleb128 0x13
 2852 0166 00       		.byte	0
 2853 0167 00       		.byte	0
 2854 0168 1F       		.uleb128 0x1f
 2855 0169 2E       		.uleb128 0x2e
 2856 016a 01       		.byte	0x1
 2857 016b 03       		.uleb128 0x3
 2858 016c 0E       		.uleb128 0xe
 2859 016d 3A       		.uleb128 0x3a
 2860 016e 0B       		.uleb128 0xb
 2861 016f 3B       		.uleb128 0x3b
 2862 0170 0B       		.uleb128 0xb
 2863 0171 27       		.uleb128 0x27
 2864 0172 19       		.uleb128 0x19
 2865 0173 11       		.uleb128 0x11
 2866 0174 01       		.uleb128 0x1
 2867 0175 12       		.uleb128 0x12
 2868 0176 06       		.uleb128 0x6
 2869 0177 40       		.uleb128 0x40
 2870 0178 18       		.uleb128 0x18
 2871 0179 9742     		.uleb128 0x2117
 2872 017b 19       		.uleb128 0x19
 2873 017c 01       		.uleb128 0x1
 2874 017d 13       		.uleb128 0x13
 2875 017e 00       		.byte	0
 2876 017f 00       		.byte	0
 2877 0180 20       		.uleb128 0x20
 2878 0181 34       		.uleb128 0x34
 2879 0182 00       		.byte	0
 2880 0183 03       		.uleb128 0x3
 2881 0184 0E       		.uleb128 0xe
 2882 0185 3A       		.uleb128 0x3a
 2883 0186 0B       		.uleb128 0xb
 2884 0187 3B       		.uleb128 0x3b
 2885 0188 0B       		.uleb128 0xb
 2886 0189 49       		.uleb128 0x49
 2887 018a 13       		.uleb128 0x13
 2888 018b 02       		.uleb128 0x2
 2889 018c 18       		.uleb128 0x18
 2890 018d 00       		.byte	0
 2891 018e 00       		.byte	0
ARM GAS  /var/folders/3j/4xdnk5197cv_b7cw3n33qk7r0000gn/T//cc62GWZk.s 			page 52


 2892 018f 21       		.uleb128 0x21
 2893 0190 34       		.uleb128 0x34
 2894 0191 00       		.byte	0
 2895 0192 03       		.uleb128 0x3
 2896 0193 08       		.uleb128 0x8
 2897 0194 3A       		.uleb128 0x3a
 2898 0195 0B       		.uleb128 0xb
 2899 0196 3B       		.uleb128 0x3b
 2900 0197 0B       		.uleb128 0xb
 2901 0198 49       		.uleb128 0x49
 2902 0199 13       		.uleb128 0x13
 2903 019a 02       		.uleb128 0x2
 2904 019b 17       		.uleb128 0x17
 2905 019c 00       		.byte	0
 2906 019d 00       		.byte	0
 2907 019e 22       		.uleb128 0x22
 2908 019f 898201   		.uleb128 0x4109
 2909 01a2 01       		.byte	0x1
 2910 01a3 11       		.uleb128 0x11
 2911 01a4 01       		.uleb128 0x1
 2912 01a5 31       		.uleb128 0x31
 2913 01a6 13       		.uleb128 0x13
 2914 01a7 01       		.uleb128 0x1
 2915 01a8 13       		.uleb128 0x13
 2916 01a9 00       		.byte	0
 2917 01aa 00       		.byte	0
 2918 01ab 23       		.uleb128 0x23
 2919 01ac 8A8201   		.uleb128 0x410a
 2920 01af 00       		.byte	0
 2921 01b0 02       		.uleb128 0x2
 2922 01b1 18       		.uleb128 0x18
 2923 01b2 9142     		.uleb128 0x2111
 2924 01b4 18       		.uleb128 0x18
 2925 01b5 00       		.byte	0
 2926 01b6 00       		.byte	0
 2927 01b7 24       		.uleb128 0x24
 2928 01b8 898201   		.uleb128 0x4109
 2929 01bb 01       		.byte	0x1
 2930 01bc 11       		.uleb128 0x11
 2931 01bd 01       		.uleb128 0x1
 2932 01be 31       		.uleb128 0x31
 2933 01bf 13       		.uleb128 0x13
 2934 01c0 00       		.byte	0
 2935 01c1 00       		.byte	0
 2936 01c2 25       		.uleb128 0x25
 2937 01c3 898201   		.uleb128 0x4109
 2938 01c6 00       		.byte	0
 2939 01c7 11       		.uleb128 0x11
 2940 01c8 01       		.uleb128 0x1
 2941 01c9 31       		.uleb128 0x31
 2942 01ca 13       		.uleb128 0x13
 2943 01cb 00       		.byte	0
 2944 01cc 00       		.byte	0
 2945 01cd 26       		.uleb128 0x26
 2946 01ce 898201   		.uleb128 0x4109
 2947 01d1 01       		.byte	0x1
 2948 01d2 11       		.uleb128 0x11
ARM GAS  /var/folders/3j/4xdnk5197cv_b7cw3n33qk7r0000gn/T//cc62GWZk.s 			page 53


 2949 01d3 01       		.uleb128 0x1
 2950 01d4 9542     		.uleb128 0x2115
 2951 01d6 19       		.uleb128 0x19
 2952 01d7 31       		.uleb128 0x31
 2953 01d8 13       		.uleb128 0x13
 2954 01d9 00       		.byte	0
 2955 01da 00       		.byte	0
 2956 01db 27       		.uleb128 0x27
 2957 01dc 2E       		.uleb128 0x2e
 2958 01dd 01       		.byte	0x1
 2959 01de 03       		.uleb128 0x3
 2960 01df 0E       		.uleb128 0xe
 2961 01e0 3A       		.uleb128 0x3a
 2962 01e1 0B       		.uleb128 0xb
 2963 01e2 3B       		.uleb128 0x3b
 2964 01e3 0B       		.uleb128 0xb
 2965 01e4 27       		.uleb128 0x27
 2966 01e5 19       		.uleb128 0x19
 2967 01e6 49       		.uleb128 0x49
 2968 01e7 13       		.uleb128 0x13
 2969 01e8 11       		.uleb128 0x11
 2970 01e9 01       		.uleb128 0x1
 2971 01ea 12       		.uleb128 0x12
 2972 01eb 06       		.uleb128 0x6
 2973 01ec 40       		.uleb128 0x40
 2974 01ed 18       		.uleb128 0x18
 2975 01ee 9742     		.uleb128 0x2117
 2976 01f0 19       		.uleb128 0x19
 2977 01f1 01       		.uleb128 0x1
 2978 01f2 13       		.uleb128 0x13
 2979 01f3 00       		.byte	0
 2980 01f4 00       		.byte	0
 2981 01f5 28       		.uleb128 0x28
 2982 01f6 05       		.uleb128 0x5
 2983 01f7 00       		.byte	0
 2984 01f8 03       		.uleb128 0x3
 2985 01f9 08       		.uleb128 0x8
 2986 01fa 3A       		.uleb128 0x3a
 2987 01fb 0B       		.uleb128 0xb
 2988 01fc 3B       		.uleb128 0x3b
 2989 01fd 0B       		.uleb128 0xb
 2990 01fe 49       		.uleb128 0x49
 2991 01ff 13       		.uleb128 0x13
 2992 0200 02       		.uleb128 0x2
 2993 0201 17       		.uleb128 0x17
 2994 0202 00       		.byte	0
 2995 0203 00       		.byte	0
 2996 0204 29       		.uleb128 0x29
 2997 0205 2E       		.uleb128 0x2e
 2998 0206 01       		.byte	0x1
 2999 0207 31       		.uleb128 0x31
 3000 0208 13       		.uleb128 0x13
 3001 0209 11       		.uleb128 0x11
 3002 020a 01       		.uleb128 0x1
 3003 020b 12       		.uleb128 0x12
 3004 020c 06       		.uleb128 0x6
 3005 020d 40       		.uleb128 0x40
ARM GAS  /var/folders/3j/4xdnk5197cv_b7cw3n33qk7r0000gn/T//cc62GWZk.s 			page 54


 3006 020e 18       		.uleb128 0x18
 3007 020f 9742     		.uleb128 0x2117
 3008 0211 19       		.uleb128 0x19
 3009 0212 01       		.uleb128 0x1
 3010 0213 13       		.uleb128 0x13
 3011 0214 00       		.byte	0
 3012 0215 00       		.byte	0
 3013 0216 2A       		.uleb128 0x2a
 3014 0217 34       		.uleb128 0x34
 3015 0218 00       		.byte	0
 3016 0219 31       		.uleb128 0x31
 3017 021a 13       		.uleb128 0x13
 3018 021b 02       		.uleb128 0x2
 3019 021c 17       		.uleb128 0x17
 3020 021d 00       		.byte	0
 3021 021e 00       		.byte	0
 3022 021f 2B       		.uleb128 0x2b
 3023 0220 0B       		.uleb128 0xb
 3024 0221 01       		.byte	0x1
 3025 0222 55       		.uleb128 0x55
 3026 0223 17       		.uleb128 0x17
 3027 0224 01       		.uleb128 0x1
 3028 0225 13       		.uleb128 0x13
 3029 0226 00       		.byte	0
 3030 0227 00       		.byte	0
 3031 0228 2C       		.uleb128 0x2c
 3032 0229 34       		.uleb128 0x34
 3033 022a 00       		.byte	0
 3034 022b 31       		.uleb128 0x31
 3035 022c 13       		.uleb128 0x13
 3036 022d 00       		.byte	0
 3037 022e 00       		.byte	0
 3038 022f 2D       		.uleb128 0x2d
 3039 0230 2E       		.uleb128 0x2e
 3040 0231 00       		.byte	0
 3041 0232 3F       		.uleb128 0x3f
 3042 0233 19       		.uleb128 0x19
 3043 0234 3C       		.uleb128 0x3c
 3044 0235 19       		.uleb128 0x19
 3045 0236 6E       		.uleb128 0x6e
 3046 0237 0E       		.uleb128 0xe
 3047 0238 03       		.uleb128 0x3
 3048 0239 0E       		.uleb128 0xe
 3049 023a 3A       		.uleb128 0x3a
 3050 023b 0B       		.uleb128 0xb
 3051 023c 3B       		.uleb128 0x3b
 3052 023d 05       		.uleb128 0x5
 3053 023e 00       		.byte	0
 3054 023f 00       		.byte	0
 3055 0240 2E       		.uleb128 0x2e
 3056 0241 2E       		.uleb128 0x2e
 3057 0242 00       		.byte	0
 3058 0243 3F       		.uleb128 0x3f
 3059 0244 19       		.uleb128 0x19
 3060 0245 3C       		.uleb128 0x3c
 3061 0246 19       		.uleb128 0x19
 3062 0247 6E       		.uleb128 0x6e
ARM GAS  /var/folders/3j/4xdnk5197cv_b7cw3n33qk7r0000gn/T//cc62GWZk.s 			page 55


 3063 0248 0E       		.uleb128 0xe
 3064 0249 03       		.uleb128 0x3
 3065 024a 0E       		.uleb128 0xe
 3066 024b 3A       		.uleb128 0x3a
 3067 024c 0B       		.uleb128 0xb
 3068 024d 3B       		.uleb128 0x3b
 3069 024e 0B       		.uleb128 0xb
 3070 024f 00       		.byte	0
 3071 0250 00       		.byte	0
 3072 0251 00       		.byte	0
 3073              		.section	.debug_loc,"",%progbits
 3074              	.Ldebug_loc0:
 3075              	.LLST1:
 3076 0000 20000000 		.4byte	.LVL20
 3077 0004 2C000000 		.4byte	.LVL21
 3078 0008 0100     		.2byte	0x1
 3079 000a 50       		.byte	0x50
 3080 000b 2C000000 		.4byte	.LVL21
 3081 000f 68000000 		.4byte	.LVL24
 3082 0013 0100     		.2byte	0x1
 3083 0015 57       		.byte	0x57
 3084 0016 68000000 		.4byte	.LVL24
 3085 001a 74000000 		.4byte	.LVL25
 3086 001e 0100     		.2byte	0x1
 3087 0020 50       		.byte	0x50
 3088 0021 F0000000 		.4byte	.LVL29
 3089 0025 FC000000 		.4byte	.LVL30
 3090 0029 0100     		.2byte	0x1
 3091 002b 50       		.byte	0x50
 3092 002c 60010000 		.4byte	.LVL34
 3093 0030 6C010000 		.4byte	.LVL35
 3094 0034 0100     		.2byte	0x1
 3095 0036 50       		.byte	0x50
 3096 0037 00000000 		.4byte	0
 3097 003b 00000000 		.4byte	0
 3098              	.LLST0:
 3099 003f 00000000 		.4byte	.LVL7
 3100 0043 08000000 		.4byte	.LVL8
 3101 0047 0100     		.2byte	0x1
 3102 0049 50       		.byte	0x50
 3103 004a 08000000 		.4byte	.LVL8
 3104 004e 14000000 		.4byte	.LFE7
 3105 0052 0400     		.2byte	0x4
 3106 0054 F3       		.byte	0xf3
 3107 0055 01       		.uleb128 0x1
 3108 0056 50       		.byte	0x50
 3109 0057 9F       		.byte	0x9f
 3110 0058 00000000 		.4byte	0
 3111 005c 00000000 		.4byte	0
 3112              	.LLST2:
 3113 0060 10000000 		.4byte	.LVL40
 3114 0064 58000000 		.4byte	.LVL46
 3115 0068 0100     		.2byte	0x1
 3116 006a 54       		.byte	0x54
 3117 006b 00000000 		.4byte	0
 3118 006f 00000000 		.4byte	0
 3119              		.section	.debug_aranges,"",%progbits
ARM GAS  /var/folders/3j/4xdnk5197cv_b7cw3n33qk7r0000gn/T//cc62GWZk.s 			page 56


 3120 0000 3C000000 		.4byte	0x3c
 3121 0004 0200     		.2byte	0x2
 3122 0006 00000000 		.4byte	.Ldebug_info0
 3123 000a 04       		.byte	0x4
 3124 000b 00       		.byte	0
 3125 000c 0000     		.2byte	0
 3126 000e 0000     		.2byte	0
 3127 0010 00000000 		.4byte	.LFB8
 3128 0014 30010000 		.4byte	.LFE8-.LFB8
 3129 0018 00000000 		.4byte	.LFB7
 3130 001c 14000000 		.4byte	.LFE7-.LFB7
 3131 0020 00000000 		.4byte	.LFB9
 3132 0024 3C010000 		.4byte	.LFE9-.LFB9
 3133 0028 00000000 		.4byte	.LFB10
 3134 002c E0010000 		.4byte	.LFE10-.LFB10
 3135 0030 00000000 		.4byte	.LFB11
 3136 0034 A0000000 		.4byte	.LFE11-.LFB11
 3137 0038 00000000 		.4byte	0
 3138 003c 00000000 		.4byte	0
 3139              		.section	.debug_ranges,"",%progbits
 3140              	.Ldebug_ranges0:
 3141 0000 54000000 		.4byte	.LBB5
 3142 0004 94000000 		.4byte	.LBE5
 3143 0008 98000000 		.4byte	.LBB6
 3144 000c A0000000 		.4byte	.LBE6
 3145 0010 00000000 		.4byte	0
 3146 0014 00000000 		.4byte	0
 3147 0018 00000000 		.4byte	.LFB8
 3148 001c 30010000 		.4byte	.LFE8
 3149 0020 00000000 		.4byte	.LFB7
 3150 0024 14000000 		.4byte	.LFE7
 3151 0028 00000000 		.4byte	.LFB9
 3152 002c 3C010000 		.4byte	.LFE9
 3153 0030 00000000 		.4byte	.LFB10
 3154 0034 E0010000 		.4byte	.LFE10
 3155 0038 00000000 		.4byte	.LFB11
 3156 003c A0000000 		.4byte	.LFE11
 3157 0040 00000000 		.4byte	0
 3158 0044 00000000 		.4byte	0
 3159              		.section	.debug_line,"",%progbits
 3160              	.Ldebug_line0:
 3161 0000 31020000 		.section	.debug_str,"MS",%progbits,1
 3161      02007F01 
 3161      00000201 
 3161      FB0E0D00 
 3161      01010101 
 3162              	.LASF88:
 3163 0000 63665F6F 		.ascii	"cf_off_older\000"
 3163      66665F6F 
 3163      6C646572 
 3163      00
 3164              	.LASF41:
 3165 000d 705F6D73 		.ascii	"p_msg\000"
 3165      6700
 3166              	.LASF131:
 3167 0013 2F557365 		.ascii	"/Users/kevinmalmsten/development_raspberry_pi/Chibi"
 3167      72732F6B 
ARM GAS  /var/folders/3j/4xdnk5197cv_b7cw3n33qk7r0000gn/T//cc62GWZk.s 			page 57


 3167      6576696E 
 3167      6D616C6D 
 3167      7374656E 
 3168 0046 4F532D42 		.ascii	"OS-Backup/__Backup_System\000"
 3168      61636B75 
 3168      702F5F5F 
 3168      4261636B 
 3168      75705F53 
 3169              	.LASF113:
 3170 0060 7072696F 		.ascii	"prio\000"
 3170      00
 3171              	.LASF73:
 3172 0065 7264796D 		.ascii	"rdymsg\000"
 3172      736700
 3173              	.LASF4:
 3174 006c 5F5F7569 		.ascii	"__uint8_t\000"
 3174      6E74385F 
 3174      7400
 3175              	.LASF67:
 3176 0076 76746C69 		.ascii	"vtlist\000"
 3176      737400
 3177              	.LASF12:
 3178 007d 6C6F6E67 		.ascii	"long long unsigned int\000"
 3178      206C6F6E 
 3178      6720756E 
 3178      7369676E 
 3178      65642069 
 3179              	.LASF84:
 3180 0094 63685F74 		.ascii	"ch_threadsize\000"
 3180      68726561 
 3180      6473697A 
 3180      6500
 3181              	.LASF74:
 3182 00a2 65786974 		.ascii	"exitcode\000"
 3182      636F6465 
 3182      00
 3183              	.LASF106:
 3184 00ab 74657374 		.ascii	"test\000"
 3184      00
 3185              	.LASF29:
 3186 00b0 705F7072 		.ascii	"p_prio\000"
 3186      696F00
 3187              	.LASF91:
 3188 00b7 63665F6F 		.ascii	"cf_off_state\000"
 3188      66665F73 
 3188      74617465 
 3188      00
 3189              	.LASF102:
 3190 00c4 74656172 		.ascii	"teardown\000"
 3190      646F776E 
 3190      00
 3191              	.LASF11:
 3192 00cd 6C6F6E67 		.ascii	"long long int\000"
 3192      206C6F6E 
 3192      6720696E 
 3192      7400
 3193              	.LASF1:
ARM GAS  /var/folders/3j/4xdnk5197cv_b7cw3n33qk7r0000gn/T//cc62GWZk.s 			page 58


 3194 00db 7369676E 		.ascii	"signed char\000"
 3194      65642063 
 3194      68617200 
 3195              	.LASF90:
 3196 00e7 63665F6F 		.ascii	"cf_off_stklimit\000"
 3196      66665F73 
 3196      746B6C69 
 3196      6D697400 
 3197              	.LASF92:
 3198 00f7 63665F6F 		.ascii	"cf_off_flags\000"
 3198      66665F66 
 3198      6C616773 
 3198      00
 3199              	.LASF17:
 3200 0104 626F6F6C 		.ascii	"bool_t\000"
 3200      5F7400
 3201              	.LASF70:
 3202 010b 6D5F7175 		.ascii	"m_queue\000"
 3202      65756500 
 3203              	.LASF124:
 3204 0113 74657374 		.ascii	"test_emit_token\000"
 3204      5F656D69 
 3204      745F746F 
 3204      6B656E00 
 3205              	.LASF129:
 3206 0123 474E5520 		.ascii	"GNU C11 7.3.1 20180622 (release) [ARM/embedded-7-br"
 3206      43313120 
 3206      372E332E 
 3206      31203230 
 3206      31383036 
 3207 0156 616E6368 		.ascii	"anch revision 261907] -mcpu=arm1176jz-s -mno-thumb-"
 3207      20726576 
 3207      6973696F 
 3207      6E203236 
 3207      31393037 
 3208 0189 696E7465 		.ascii	"interwork -ggdb -O2 -fomit-frame-pointer -ffunction"
 3208      72776F72 
 3208      6B202D67 
 3208      67646220 
 3208      2D4F3220 
 3209 01bc 2D736563 		.ascii	"-sections -fdata-sections\000"
 3209      74696F6E 
 3209      73202D66 
 3209      64617461 
 3209      2D736563 
 3210              	.LASF120:
 3211 01d6 63685468 		.ascii	"chThdCreateI\000"
 3211      64437265 
 3211      61746549 
 3211      00
 3212              	.LASF8:
 3213 01e3 6C6F6E67 		.ascii	"long int\000"
 3213      20696E74 
 3213      00
 3214              	.LASF19:
 3215 01ec 74737461 		.ascii	"tstate_t\000"
 3215      74655F74 
ARM GAS  /var/folders/3j/4xdnk5197cv_b7cw3n33qk7r0000gn/T//cc62GWZk.s 			page 59


 3215      00
 3216              	.LASF126:
 3217 01f5 5F746573 		.ascii	"_test_assert_time_window\000"
 3217      745F6173 
 3217      73657274 
 3217      5F74696D 
 3217      655F7769 
 3218              	.LASF14:
 3219 020e 75696E74 		.ascii	"uint16_t\000"
 3219      31365F74 
 3219      00
 3220              	.LASF96:
 3221 0217 63686465 		.ascii	"chdebug_t\000"
 3221      6275675F 
 3221      7400
 3222              	.LASF104:
 3223 0221 62756666 		.ascii	"buffer\000"
 3223      657200
 3224              	.LASF31:
 3225 0228 705F6E65 		.ascii	"p_newer\000"
 3225      77657200 
 3226              	.LASF98:
 3227 0230 5F69646C 		.ascii	"_idle_thread_wa\000"
 3227      655F7468 
 3227      72656164 
 3227      5F776100 
 3228              	.LASF117:
 3229 0240 63685468 		.ascii	"chThdSetPriority\000"
 3229      64536574 
 3229      5072696F 
 3229      72697479 
 3229      00
 3230              	.LASF9:
 3231 0251 5F5F7569 		.ascii	"__uint32_t\000"
 3231      6E743332 
 3231      5F7400
 3232              	.LASF48:
 3233 025c 72656761 		.ascii	"regarm_t\000"
 3233      726D5F74 
 3233      00
 3234              	.LASF54:
 3235 0265 76745F70 		.ascii	"vt_prev\000"
 3235      72657600 
 3236              	.LASF116:
 3237 026d 74686431 		.ascii	"thd1_execute\000"
 3237      5F657865 
 3237      63757465 
 3237      00
 3238              	.LASF0:
 3239 027a 756E7369 		.ascii	"unsigned int\000"
 3239      676E6564 
 3239      20696E74 
 3239      00
 3240              	.LASF53:
 3241 0287 76745F6E 		.ascii	"vt_next\000"
 3241      65787400 
 3242              	.LASF10:
ARM GAS  /var/folders/3j/4xdnk5197cv_b7cw3n33qk7r0000gn/T//cc62GWZk.s 			page 60


 3243 028f 6C6F6E67 		.ascii	"long unsigned int\000"
 3243      20756E73 
 3243      69676E65 
 3243      6420696E 
 3243      7400
 3244              	.LASF97:
 3245 02a1 63685F64 		.ascii	"ch_debug\000"
 3245      65627567 
 3245      00
 3246              	.LASF107:
 3247 02aa 74657374 		.ascii	"test_timer_done\000"
 3247      5F74696D 
 3247      65725F64 
 3247      6F6E6500 
 3248              	.LASF51:
 3249 02ba 76746675 		.ascii	"vtfunc_t\000"
 3249      6E635F74 
 3249      00
 3250              	.LASF78:
 3251 02c3 63685F69 		.ascii	"ch_identifier\000"
 3251      64656E74 
 3251      69666965 
 3251      7200
 3252              	.LASF100:
 3253 02d1 6E616D65 		.ascii	"name\000"
 3253      00
 3254              	.LASF50:
 3255 02d6 636F6E74 		.ascii	"context\000"
 3255      65787400 
 3256              	.LASF6:
 3257 02de 73686F72 		.ascii	"short unsigned int\000"
 3257      7420756E 
 3257      7369676E 
 3257      65642069 
 3257      6E7400
 3258              	.LASF115:
 3259 02f1 74686432 		.ascii	"thd2_execute\000"
 3259      5F657865 
 3259      63757465 
 3259      00
 3260              	.LASF23:
 3261 02fe 6D73675F 		.ascii	"msg_t\000"
 3261      7400
 3262              	.LASF63:
 3263 0304 725F6E65 		.ascii	"r_newer\000"
 3263      77657200 
 3264              	.LASF105:
 3265 030c 74687265 		.ascii	"threads\000"
 3265      61647300 
 3266              	.LASF18:
 3267 0314 746D6F64 		.ascii	"tmode_t\000"
 3267      655F7400 
 3268              	.LASF46:
 3269 031c 54687265 		.ascii	"ThreadsList\000"
 3269      6164734C 
 3269      69737400 
 3270              	.LASF24:
ARM GAS  /var/folders/3j/4xdnk5197cv_b7cw3n33qk7r0000gn/T//cc62GWZk.s 			page 61


 3271 0328 6576656E 		.ascii	"eventmask_t\000"
 3271      746D6173 
 3271      6B5F7400 
 3272              	.LASF69:
 3273 0334 4D757465 		.ascii	"Mutex\000"
 3273      7800
 3274              	.LASF47:
 3275 033a 73746B61 		.ascii	"stkalign_t\000"
 3275      6C69676E 
 3275      5F7400
 3276              	.LASF119:
 3277 0345 63685468 		.ascii	"chThdCreateStatic\000"
 3277      64437265 
 3277      61746553 
 3277      74617469 
 3277      6300
 3278              	.LASF79:
 3279 0357 63685F7A 		.ascii	"ch_zero\000"
 3279      65726F00 
 3280              	.LASF93:
 3281 035f 63665F6F 		.ascii	"cf_off_refs\000"
 3281      66665F72 
 3281      65667300 
 3282              	.LASF55:
 3283 036b 76745F74 		.ascii	"vt_time\000"
 3283      696D6500 
 3284              	.LASF108:
 3285 0373 74657374 		.ascii	"testthd1\000"
 3285      74686431 
 3285      00
 3286              	.LASF109:
 3287 037c 74657374 		.ascii	"testthd2\000"
 3287      74686432 
 3287      00
 3288              	.LASF110:
 3289 0385 74657374 		.ascii	"testthd3\000"
 3289      74686433 
 3289      00
 3290              	.LASF111:
 3291 038e 74657374 		.ascii	"testthd4\000"
 3291      74686434 
 3291      00
 3292              	.LASF56:
 3293 0397 76745F66 		.ascii	"vt_func\000"
 3293      756E6300 
 3294              	.LASF83:
 3295 039f 63685F74 		.ascii	"ch_timesize\000"
 3295      696D6573 
 3295      697A6500 
 3296              	.LASF121:
 3297 03ab 63685468 		.ascii	"chThdResume\000"
 3297      64526573 
 3297      756D6500 
 3298              	.LASF89:
 3299 03b7 63665F6F 		.ascii	"cf_off_name\000"
 3299      66665F6E 
 3299      616D6500 
ARM GAS  /var/folders/3j/4xdnk5197cv_b7cw3n33qk7r0000gn/T//cc62GWZk.s 			page 62


 3300              	.LASF122:
 3301 03c3 74657374 		.ascii	"test_wait_threads\000"
 3301      5F776169 
 3301      745F7468 
 3301      72656164 
 3301      7300
 3302              	.LASF32:
 3303 03d5 705F6F6C 		.ascii	"p_older\000"
 3303      64657200 
 3304              	.LASF62:
 3305 03dd 725F6374 		.ascii	"r_ctx\000"
 3305      7800
 3306              	.LASF45:
 3307 03e3 54687265 		.ascii	"ThreadsQueue\000"
 3307      61647351 
 3307      75657565 
 3307      00
 3308              	.LASF80:
 3309 03f0 63685F73 		.ascii	"ch_size\000"
 3309      697A6500 
 3310              	.LASF101:
 3311 03f8 73657475 		.ascii	"setup\000"
 3311      7000
 3312              	.LASF123:
 3313 03fe 5F746573 		.ascii	"_test_assert_sequence\000"
 3313      745F6173 
 3313      73657274 
 3313      5F736571 
 3313      75656E63 
 3314              	.LASF134:
 3315 0414 74696D65 		.ascii	"time\000"
 3315      00
 3316              	.LASF65:
 3317 0419 725F6375 		.ascii	"r_current\000"
 3317      7272656E 
 3317      7400
 3318              	.LASF64:
 3319 0423 725F6F6C 		.ascii	"r_older\000"
 3319      64657200 
 3320              	.LASF127:
 3321 042b 63685468 		.ascii	"chThdSleepUntil\000"
 3321      64536C65 
 3321      6570556E 
 3321      74696C00 
 3322              	.LASF20:
 3323 043b 74726566 		.ascii	"trefs_t\000"
 3323      735F7400 
 3324              	.LASF82:
 3325 0443 63685F70 		.ascii	"ch_ptrsize\000"
 3325      74727369 
 3325      7A6500
 3326              	.LASF114:
 3327 044e 74686433 		.ascii	"thd3_execute\000"
 3327      5F657865 
 3327      63757465 
 3327      00
 3328              	.LASF28:
ARM GAS  /var/folders/3j/4xdnk5197cv_b7cw3n33qk7r0000gn/T//cc62GWZk.s 			page 63


 3329 045b 705F7072 		.ascii	"p_prev\000"
 3329      657600
 3330              	.LASF103:
 3331 0462 65786563 		.ascii	"execute\000"
 3331      75746500 
 3332              	.LASF22:
 3333 046a 74707269 		.ascii	"tprio_t\000"
 3333      6F5F7400 
 3334              	.LASF135:
 3335 0472 74687265 		.ascii	"thread\000"
 3335      616400
 3336              	.LASF15:
 3337 0479 696E7433 		.ascii	"int32_t\000"
 3337      325F7400 
 3338              	.LASF2:
 3339 0481 756E7369 		.ascii	"unsigned char\000"
 3339      676E6564 
 3339      20636861 
 3339      7200
 3340              	.LASF128:
 3341 048f 74657374 		.ascii	"test_wait_tick\000"
 3341      5F776169 
 3341      745F7469 
 3341      636B00
 3342              	.LASF130:
 3343 049e 2E2E2F2F 		.ascii	"..//test/testthd.c\000"
 3343      74657374 
 3343      2F746573 
 3343      74746864 
 3343      2E6300
 3344              	.LASF43:
 3345 04b1 705F6D74 		.ascii	"p_mtxlist\000"
 3345      786C6973 
 3345      7400
 3346              	.LASF3:
 3347 04bb 73686F72 		.ascii	"short int\000"
 3347      7420696E 
 3347      7400
 3348              	.LASF34:
 3349 04c5 705F7374 		.ascii	"p_state\000"
 3349      61746500 
 3350              	.LASF37:
 3351 04cd 705F7072 		.ascii	"p_preempt\000"
 3351      65656D70 
 3351      7400
 3352              	.LASF95:
 3353 04d7 63665F6F 		.ascii	"cf_off_time\000"
 3353      66665F74 
 3353      696D6500 
 3354              	.LASF61:
 3355 04e3 725F7072 		.ascii	"r_prio\000"
 3355      696F00
 3356              	.LASF76:
 3357 04ea 65776D61 		.ascii	"ewmask\000"
 3357      736B00
 3358              	.LASF27:
 3359 04f1 705F6E65 		.ascii	"p_next\000"
ARM GAS  /var/folders/3j/4xdnk5197cv_b7cw3n33qk7r0000gn/T//cc62GWZk.s 			page 64


 3359      787400
 3360              	.LASF94:
 3361 04f8 63665F6F 		.ascii	"cf_off_preempt\000"
 3361      66665F70 
 3361      7265656D 
 3361      707400
 3362              	.LASF35:
 3363 0507 705F666C 		.ascii	"p_flags\000"
 3363      61677300 
 3364              	.LASF26:
 3365 050f 54687265 		.ascii	"Thread\000"
 3365      616400
 3366              	.LASF87:
 3367 0516 63665F6F 		.ascii	"cf_off_newer\000"
 3367      66665F6E 
 3367      65776572 
 3367      00
 3368              	.LASF99:
 3369 0523 74657374 		.ascii	"testcase\000"
 3369      63617365 
 3369      00
 3370              	.LASF42:
 3371 052c 705F6570 		.ascii	"p_epending\000"
 3371      656E6469 
 3371      6E6700
 3372              	.LASF125:
 3373 0537 63685468 		.ascii	"chThdSleep\000"
 3373      64536C65 
 3373      657000
 3374              	.LASF16:
 3375 0542 75696E74 		.ascii	"uint32_t\000"
 3375      33325F74 
 3375      00
 3376              	.LASF85:
 3377 054b 63665F6F 		.ascii	"cf_off_prio\000"
 3377      66665F70 
 3377      72696F00 
 3378              	.LASF60:
 3379 0557 725F7175 		.ascii	"r_queue\000"
 3379      65756500 
 3380              	.LASF52:
 3381 055f 56697274 		.ascii	"VirtualTimer\000"
 3381      75616C54 
 3381      696D6572 
 3381      00
 3382              	.LASF21:
 3383 056c 74736C69 		.ascii	"tslices_t\000"
 3383      6365735F 
 3383      7400
 3384              	.LASF77:
 3385 0576 63686172 		.ascii	"char\000"
 3385      00
 3386              	.LASF132:
 3387 057b 74657374 		.ascii	"test_buffers\000"
 3387      5F627566 
 3387      66657273 
 3387      00
ARM GAS  /var/folders/3j/4xdnk5197cv_b7cw3n33qk7r0000gn/T//cc62GWZk.s 			page 65


 3388              	.LASF133:
 3389 0588 74686434 		.ascii	"thd4_execute\000"
 3389      5F657865 
 3389      63757465 
 3389      00
 3390              	.LASF5:
 3391 0595 5F5F7569 		.ascii	"__uint16_t\000"
 3391      6E743136 
 3391      5F7400
 3392              	.LASF112:
 3393 05a0 70617474 		.ascii	"patternthd\000"
 3393      65726E74 
 3393      686400
 3394              	.LASF72:
 3395 05ab 6D5F6E65 		.ascii	"m_next\000"
 3395      787400
 3396              	.LASF25:
 3397 05b2 73797374 		.ascii	"systime_t\000"
 3397      696D655F 
 3397      7400
 3398              	.LASF44:
 3399 05bc 705F7265 		.ascii	"p_realprio\000"
 3399      616C7072 
 3399      696F00
 3400              	.LASF7:
 3401 05c7 5F5F696E 		.ascii	"__int32_t\000"
 3401      7433325F 
 3401      7400
 3402              	.LASF38:
 3403 05d1 705F7469 		.ascii	"p_time\000"
 3403      6D6500
 3404              	.LASF49:
 3405 05d8 696E7463 		.ascii	"intctx\000"
 3405      747800
 3406              	.LASF40:
 3407 05df 705F6D73 		.ascii	"p_msgqueue\000"
 3407      67717565 
 3407      756500
 3408              	.LASF57:
 3409 05ea 76745F70 		.ascii	"vt_par\000"
 3409      617200
 3410              	.LASF86:
 3411 05f1 63665F6F 		.ascii	"cf_off_ctx\000"
 3411      66665F63 
 3411      747800
 3412              	.LASF36:
 3413 05fc 705F7265 		.ascii	"p_refs\000"
 3413      667300
 3414              	.LASF66:
 3415 0603 52656164 		.ascii	"ReadyList\000"
 3415      794C6973 
 3415      7400
 3416              	.LASF68:
 3417 060d 726C6973 		.ascii	"rlist\000"
 3417      7400
 3418              	.LASF13:
 3419 0613 75696E74 		.ascii	"uint8_t\000"
ARM GAS  /var/folders/3j/4xdnk5197cv_b7cw3n33qk7r0000gn/T//cc62GWZk.s 			page 66


 3419      385F7400 
 3420              	.LASF75:
 3421 061b 77746F62 		.ascii	"wtobjp\000"
 3421      6A7000
 3422              	.LASF33:
 3423 0622 705F6E61 		.ascii	"p_name\000"
 3423      6D6500
 3424              	.LASF118:
 3425 0629 5F746573 		.ascii	"_test_assert\000"
 3425      745F6173 
 3425      73657274 
 3425      00
 3426              	.LASF58:
 3427 0636 76745F73 		.ascii	"vt_systime\000"
 3427      79737469 
 3427      6D6500
 3428              	.LASF81:
 3429 0641 63685F76 		.ascii	"ch_version\000"
 3429      65727369 
 3429      6F6E00
 3430              	.LASF59:
 3431 064c 56544C69 		.ascii	"VTList\000"
 3431      737400
 3432              	.LASF71:
 3433 0653 6D5F6F77 		.ascii	"m_owner\000"
 3433      6E657200 
 3434              	.LASF30:
 3435 065b 705F6374 		.ascii	"p_ctx\000"
 3435      7800
 3436              	.LASF39:
 3437 0661 705F7761 		.ascii	"p_waiting\000"
 3437      6974696E 
 3437      6700
 3438              		.ident	"GCC: (GNU Tools for Arm Embedded Processors 7-2018-q2-update) 7.3.1 20180622 (release) [AR
ARM GAS  /var/folders/3j/4xdnk5197cv_b7cw3n33qk7r0000gn/T//cc62GWZk.s 			page 67


DEFINED SYMBOLS
                            *ABS*:0000000000000000 testthd.c
/var/folders/3j/4xdnk5197cv_b7cw3n33qk7r0000gn/T//cc62GWZk.s:16     .text.thd1_execute:0000000000000000 $a
/var/folders/3j/4xdnk5197cv_b7cw3n33qk7r0000gn/T//cc62GWZk.s:21     .text.thd1_execute:0000000000000000 thd1_execute
/var/folders/3j/4xdnk5197cv_b7cw3n33qk7r0000gn/T//cc62GWZk.s:140    .text.thd1_execute:0000000000000108 $d
/var/folders/3j/4xdnk5197cv_b7cw3n33qk7r0000gn/T//cc62GWZk.s:159    .text.thread:0000000000000000 thread
/var/folders/3j/4xdnk5197cv_b7cw3n33qk7r0000gn/T//cc62GWZk.s:154    .text.thread:0000000000000000 $a
/var/folders/3j/4xdnk5197cv_b7cw3n33qk7r0000gn/T//cc62GWZk.s:182    .text.thd2_execute:0000000000000000 $a
/var/folders/3j/4xdnk5197cv_b7cw3n33qk7r0000gn/T//cc62GWZk.s:187    .text.thd2_execute:0000000000000000 thd2_execute
/var/folders/3j/4xdnk5197cv_b7cw3n33qk7r0000gn/T//cc62GWZk.s:320    .text.thd2_execute:0000000000000114 $d
/var/folders/3j/4xdnk5197cv_b7cw3n33qk7r0000gn/T//cc62GWZk.s:334    .text.thd3_execute:0000000000000000 $a
/var/folders/3j/4xdnk5197cv_b7cw3n33qk7r0000gn/T//cc62GWZk.s:339    .text.thd3_execute:0000000000000000 thd3_execute
/var/folders/3j/4xdnk5197cv_b7cw3n33qk7r0000gn/T//cc62GWZk.s:539    .text.thd3_execute:00000000000001dc $d
/var/folders/3j/4xdnk5197cv_b7cw3n33qk7r0000gn/T//cc62GWZk.s:544    .text.thd4_execute:0000000000000000 $a
/var/folders/3j/4xdnk5197cv_b7cw3n33qk7r0000gn/T//cc62GWZk.s:549    .text.thd4_execute:0000000000000000 thd4_execute
/var/folders/3j/4xdnk5197cv_b7cw3n33qk7r0000gn/T//cc62GWZk.s:644    .text.thd4_execute:000000000000009c $d
/var/folders/3j/4xdnk5197cv_b7cw3n33qk7r0000gn/T//cc62GWZk.s:659    .rodata.patternthd:0000000000000000 patternthd
/var/folders/3j/4xdnk5197cv_b7cw3n33qk7r0000gn/T//cc62GWZk.s:708    .rodata.testthd4:0000000000000000 testthd4
/var/folders/3j/4xdnk5197cv_b7cw3n33qk7r0000gn/T//cc62GWZk.s:699    .rodata.testthd3:0000000000000000 testthd3
/var/folders/3j/4xdnk5197cv_b7cw3n33qk7r0000gn/T//cc62GWZk.s:690    .rodata.testthd2:0000000000000000 testthd2
/var/folders/3j/4xdnk5197cv_b7cw3n33qk7r0000gn/T//cc62GWZk.s:681    .rodata.testthd1:0000000000000000 testthd1
/var/folders/3j/4xdnk5197cv_b7cw3n33qk7r0000gn/T//cc62GWZk.s:656    .rodata.patternthd:0000000000000000 $d
/var/folders/3j/4xdnk5197cv_b7cw3n33qk7r0000gn/T//cc62GWZk.s:666    .rodata.str1.4:0000000000000000 $d
/var/folders/3j/4xdnk5197cv_b7cw3n33qk7r0000gn/T//cc62GWZk.s:678    .rodata.testthd1:0000000000000000 $d
/var/folders/3j/4xdnk5197cv_b7cw3n33qk7r0000gn/T//cc62GWZk.s:687    .rodata.testthd2:0000000000000000 $d
/var/folders/3j/4xdnk5197cv_b7cw3n33qk7r0000gn/T//cc62GWZk.s:696    .rodata.testthd3:0000000000000000 $d
/var/folders/3j/4xdnk5197cv_b7cw3n33qk7r0000gn/T//cc62GWZk.s:705    .rodata.testthd4:0000000000000000 $d
/var/folders/3j/4xdnk5197cv_b7cw3n33qk7r0000gn/T//cc62GWZk.s:714    .rodata.thd1_execute.str1.4:0000000000000000 $d

UNDEFINED SYMBOLS
chThdCreateStatic
test_wait_threads
_test_assert_sequence
rlist
wa
threads
test_emit_token
chThdCreateI
chThdResume
chThdSetPriority
_test_assert
test_wait_tick
chThdSleep
_test_assert_time_window
chThdSleepUntil
vtlist
