ARM GAS  /var/folders/3j/4xdnk5197cv_b7cw3n33qk7r0000gn/T//ccPcLZD6.s 			page 1


   1              		.cpu arm1176jz-s
   2              		.eabi_attribute 20, 1
   3              		.eabi_attribute 21, 1
   4              		.eabi_attribute 23, 3
   5              		.eabi_attribute 24, 1
   6              		.eabi_attribute 25, 1
   7              		.eabi_attribute 26, 1
   8              		.eabi_attribute 30, 2
   9              		.eabi_attribute 34, 1
  10              		.eabi_attribute 18, 4
  11              		.file	"tm.c"
  12              		.text
  13              	.Ltext0:
  14              		.cfi_sections	.debug_frame
  15              		.section	.text.tm_start,"ax",%progbits
  16              		.align	2
  17              		.syntax unified
  18              		.arm
  19              		.fpu softvfp
  20              		.type	tm_start, %function
  21              	tm_start:
  22              	.LFB7:
  23              		.file 1 "..//os/hal/src/tm.c"
  24              		.loc 1 62 0
  25              		.cfi_startproc
  26              		@ args = 0, pretend = 0, frame = 0
  27              		@ frame_needed = 0, uses_anonymous_args = 0
  28              		@ link register save eliminated.
  29              	.LVL0:
  30              		.loc 1 64 0
  31 0000 08309FE5 		ldr	r3, .L3
  32 0004 043093E5 		ldr	r3, [r3, #4]
  33 0008 083080E5 		str	r3, [r0, #8]
  34              		.loc 1 65 0
  35 000c 1EFF2FE1 		bx	lr
  36              	.L4:
  37              		.align	2
  38              	.L3:
  39 0010 00300020 		.word	536883200
  40              		.cfi_endproc
  41              	.LFE7:
  42              		.size	tm_start, .-tm_start
  43              		.section	.text.tm_stop,"ax",%progbits
  44              		.align	2
  45              		.syntax unified
  46              		.arm
  47              		.fpu softvfp
  48              		.type	tm_stop, %function
  49              	tm_stop:
  50              	.LFB8:
  51              		.loc 1 74 0
  52              		.cfi_startproc
  53              		@ args = 0, pretend = 0, frame = 0
  54              		@ frame_needed = 0, uses_anonymous_args = 0
  55              		@ link register save eliminated.
  56              	.LVL1:
  57              		.loc 1 76 0
ARM GAS  /var/folders/3j/4xdnk5197cv_b7cw3n33qk7r0000gn/T//ccPcLZD6.s 			page 2


  58 0000 3C309FE5 		ldr	r3, .L9
  59              		.loc 1 77 0
  60 0004 3C109FE5 		ldr	r1, .L9+4
  61 0008 082090E5 		ldr	r2, [r0, #8]
  62              		.loc 1 76 0
  63 000c 043093E5 		ldr	r3, [r3, #4]
  64              	.LVL2:
  65              		.loc 1 77 0
  66 0010 001091E5 		ldr	r1, [r1]
  67 0014 023043E0 		sub	r3, r3, r2
  68              	.LVL3:
  69              		.loc 1 78 0
  70 0018 0C2090E5 		ldr	r2, [r0, #12]
  71              		.loc 1 77 0
  72 001c 013043E0 		sub	r3, r3, r1
  73              		.loc 1 78 0
  74 0020 020053E1 		cmp	r3, r2
  75              		.loc 1 77 0
  76 0024 083080E5 		str	r3, [r0, #8]
  77              		.loc 1 78 0
  78 0028 0300008A 		bhi	.L8
  79              		.loc 1 80 0
  80 002c 102090E5 		ldr	r2, [r0, #16]
  81 0030 020053E1 		cmp	r3, r2
  82              		.loc 1 81 0
  83 0034 10308035 		strcc	r3, [r0, #16]
  84              		.loc 1 82 0
  85 0038 1EFF2FE1 		bx	lr
  86              	.L8:
  87              		.loc 1 79 0
  88 003c 0C3080E5 		str	r3, [r0, #12]
  89 0040 1EFF2FE1 		bx	lr
  90              	.L10:
  91              		.align	2
  92              	.L9:
  93 0044 00300020 		.word	536883200
  94 0048 00000000 		.word	.LANCHOR0
  95              		.cfi_endproc
  96              	.LFE8:
  97              		.size	tm_stop, .-tm_stop
  98              		.section	.text.tmInit,"ax",%progbits
  99              		.align	2
 100              		.global	tmInit
 101              		.syntax unified
 102              		.arm
 103              		.fpu softvfp
 104              		.type	tmInit, %function
 105              	tmInit:
 106              	.LFB9:
 107              		.loc 1 97 0
 108              		.cfi_startproc
 109              		@ args = 0, pretend = 0, frame = 24
 110              		@ frame_needed = 0, uses_anonymous_args = 0
 111              		.loc 1 103 0
 112 0000 0030A0E3 		mov	r3, #0
 113              	.LBB8:
 114              	.LBB9:
ARM GAS  /var/folders/3j/4xdnk5197cv_b7cw3n33qk7r0000gn/T//ccPcLZD6.s 			page 3


 115              		.loc 1 123 0
 116 0004 0010E0E3 		mvn	r1, #0
 117              	.LBE9:
 118              	.LBE8:
 119              		.loc 1 97 0
 120 0008 10402DE9 		push	{r4, lr}
 121              		.cfi_def_cfa_offset 8
 122              		.cfi_offset 4, -8
 123              		.cfi_offset 14, -4
 124              		.loc 1 103 0
 125 000c 40409FE5 		ldr	r4, .L13
 126              		.loc 1 97 0
 127 0010 18D04DE2 		sub	sp, sp, #24
 128              		.cfi_def_cfa_offset 32
 129              	.LBB14:
 130              	.LBB15:
 131              		.loc 1 64 0
 132 0014 3C209FE5 		ldr	r2, .L13+4
 133              	.LBE15:
 134              	.LBE14:
 135              	.LBB18:
 136              	.LBB10:
 137              		.loc 1 121 0
 138 0018 0C308DE5 		str	r3, [sp, #12]
 139              		.loc 1 122 0
 140 001c 10308DE5 		str	r3, [sp, #16]
 141              	.LBE10:
 142              	.LBE18:
 143              		.loc 1 103 0
 144 0020 003084E5 		str	r3, [r4]
 145              	.LVL4:
 146              	.LBB19:
 147              	.LBB11:
 148              		.loc 1 123 0
 149 0024 14108DE5 		str	r1, [sp, #20]
 150              	.LVL5:
 151              	.LBE11:
 152              	.LBE19:
 153              	.LBB20:
 154              	.LBB16:
 155              		.loc 1 64 0
 156 0028 041092E5 		ldr	r1, [r2, #4]
 157              	.LBE16:
 158              	.LBE20:
 159              	.LBB21:
 160              	.LBB12:
 161              		.loc 1 120 0
 162 002c 28309FE5 		ldr	r3, .L13+8
 163              		.loc 1 119 0
 164 0030 28209FE5 		ldr	r2, .L13+12
 165              	.LBE12:
 166              	.LBE21:
 167              		.loc 1 106 0
 168 0034 04008DE2 		add	r0, sp, #4
 169              	.LVL6:
 170              	.LBB22:
 171              	.LBB13:
ARM GAS  /var/folders/3j/4xdnk5197cv_b7cw3n33qk7r0000gn/T//ccPcLZD6.s 			page 4


 172              		.loc 1 120 0
 173 0038 F420CDE1 		strd	r2, [sp, #4]
 174              	.LBE13:
 175              	.LBE22:
 176              	.LBB23:
 177              	.LBB17:
 178              		.loc 1 64 0
 179 003c 0C108DE5 		str	r1, [sp, #12]
 180              	.LVL7:
 181              	.LBE17:
 182              	.LBE23:
 183              		.loc 1 106 0
 184 0040 FEFFFFEB 		bl	tm_stop
 185              	.LVL8:
 186              		.loc 1 107 0
 187 0044 0C309DE5 		ldr	r3, [sp, #12]
 188 0048 003084E5 		str	r3, [r4]
 189              		.loc 1 108 0
 190 004c 18D08DE2 		add	sp, sp, #24
 191              		.cfi_def_cfa_offset 8
 192              		@ sp needed
 193 0050 1080BDE8 		pop	{r4, pc}
 194              	.L14:
 195              		.align	2
 196              	.L13:
 197 0054 00000000 		.word	.LANCHOR0
 198 0058 00300020 		.word	536883200
 199 005c 00000000 		.word	tm_stop
 200 0060 00000000 		.word	tm_start
 201              		.cfi_endproc
 202              	.LFE9:
 203              		.size	tmInit, .-tmInit
 204              		.section	.text.tmObjectInit,"ax",%progbits
 205              		.align	2
 206              		.global	tmObjectInit
 207              		.syntax unified
 208              		.arm
 209              		.fpu softvfp
 210              		.type	tmObjectInit, %function
 211              	tmObjectInit:
 212              	.LFB10:
 213              		.loc 1 117 0
 214              		.cfi_startproc
 215              		@ args = 0, pretend = 0, frame = 0
 216              		@ frame_needed = 0, uses_anonymous_args = 0
 217              		@ link register save eliminated.
 218              	.LVL9:
 219              		.loc 1 121 0
 220 0000 0030A0E3 		mov	r3, #0
 221              		.loc 1 123 0
 222 0004 0020E0E3 		mvn	r2, #0
 223              		.loc 1 119 0
 224 0008 18C09FE5 		ldr	ip, .L16
 225              		.loc 1 120 0
 226 000c 18109FE5 		ldr	r1, .L16+4
 227              		.loc 1 119 0
 228 0010 00C080E5 		str	ip, [r0]
ARM GAS  /var/folders/3j/4xdnk5197cv_b7cw3n33qk7r0000gn/T//ccPcLZD6.s 			page 5


 229              		.loc 1 120 0
 230 0014 041080E5 		str	r1, [r0, #4]
 231              		.loc 1 123 0
 232 0018 102080E5 		str	r2, [r0, #16]
 233              		.loc 1 121 0
 234 001c 083080E5 		str	r3, [r0, #8]
 235              		.loc 1 122 0
 236 0020 0C3080E5 		str	r3, [r0, #12]
 237              		.loc 1 124 0
 238 0024 1EFF2FE1 		bx	lr
 239              	.L17:
 240              		.align	2
 241              	.L16:
 242 0028 00000000 		.word	tm_start
 243 002c 00000000 		.word	tm_stop
 244              		.cfi_endproc
 245              	.LFE10:
 246              		.size	tmObjectInit, .-tmObjectInit
 247              		.section	.bss.measurement_offset,"aw",%nobits
 248              		.align	2
 249              		.set	.LANCHOR0,. + 0
 250              		.type	measurement_offset, %object
 251              		.size	measurement_offset, 4
 252              	measurement_offset:
 253 0000 00000000 		.space	4
 254              		.text
 255              	.Letext0:
 256              		.file 2 "/usr/local/Cellar/gcc-arm-none-eabi/20180627/lib/gcc/arm-none-eabi/7.3.1/include/stddef.h
 257              		.file 3 "/usr/local/Cellar/gcc-arm-none-eabi/20180627/arm-none-eabi/include/machine/_default_types
 258              		.file 4 "/usr/local/Cellar/gcc-arm-none-eabi/20180627/arm-none-eabi/include/sys/_stdint.h"
 259              		.file 5 "..//os/ports/GCC/ARM/chtypes.h"
 260              		.file 6 "..//os/kernel/include/chlists.h"
 261              		.file 7 "..//os/kernel/include/chthreads.h"
 262              		.file 8 "..//os/ports/GCC/ARM/chcore.h"
 263              		.file 9 "..//os/kernel/include/chvt.h"
 264              		.file 10 "..//os/kernel/include/chschd.h"
 265              		.file 11 "..//os/kernel/include/chmtx.h"
 266              		.file 12 "..//os/kernel/include/chevents.h"
 267              		.file 13 "..//os/kernel/include/chregistry.h"
 268              		.file 14 "..//os/kernel/include/chqueues.h"
 269              		.file 15 "..//os/kernel/include/ch.h"
 270              		.file 16 "..//os/hal/platforms/BCM2835/bcm2835.h"
 271              		.file 17 "..//os/hal/platforms/BCM2835/hal_lld.h"
 272              		.file 18 "..//os/hal/include/tm.h"
 273              		.file 19 "..//os/hal/platforms/BCM2835/pal_lld.h"
 274              		.file 20 "..//os/hal/include/i2c.h"
 275              		.file 21 "..//os/hal/platforms/BCM2835/i2c_lld.h"
 276              		.file 22 "..//os/hal/include/serial.h"
 277              		.file 23 "..//os/hal/include/spi.h"
 278              		.file 24 "..//os/hal/platforms/BCM2835/spi_lld.h"
 279              		.file 25 "..//os/hal/platforms/BCM2835/serial_lld.h"
 280              		.section	.debug_info,"",%progbits
 281              	.Ldebug_info0:
 282 0000 A20E0000 		.4byte	0xea2
 283 0004 0400     		.2byte	0x4
 284 0006 00000000 		.4byte	.Ldebug_abbrev0
 285 000a 04       		.byte	0x4
ARM GAS  /var/folders/3j/4xdnk5197cv_b7cw3n33qk7r0000gn/T//ccPcLZD6.s 			page 6


 286 000b 01       		.uleb128 0x1
 287 000c 33010000 		.4byte	.LASF208
 288 0010 0C       		.byte	0xc
 289 0011 1B030000 		.4byte	.LASF209
 290 0015 EE050000 		.4byte	.LASF210
 291 0019 50000000 		.4byte	.Ldebug_ranges0+0x50
 292 001d 00000000 		.4byte	0
 293 0021 00000000 		.4byte	.Ldebug_line0
 294 0025 02       		.uleb128 0x2
 295 0026 04       		.byte	0x4
 296 0027 05       		.byte	0x5
 297 0028 696E7400 		.ascii	"int\000"
 298 002c 03       		.uleb128 0x3
 299 002d 13000000 		.4byte	.LASF2
 300 0031 02       		.byte	0x2
 301 0032 D8       		.byte	0xd8
 302 0033 37000000 		.4byte	0x37
 303 0037 04       		.uleb128 0x4
 304 0038 04       		.byte	0x4
 305 0039 07       		.byte	0x7
 306 003a 06030000 		.4byte	.LASF0
 307 003e 05       		.uleb128 0x5
 308 003f 37000000 		.4byte	0x37
 309 0043 04       		.uleb128 0x4
 310 0044 01       		.byte	0x1
 311 0045 06       		.byte	0x6
 312 0046 EC000000 		.4byte	.LASF1
 313 004a 03       		.uleb128 0x3
 314 004b 33000000 		.4byte	.LASF3
 315 004f 03       		.byte	0x3
 316 0050 2B       		.byte	0x2b
 317 0051 55000000 		.4byte	0x55
 318 0055 04       		.uleb128 0x4
 319 0056 01       		.byte	0x1
 320 0057 08       		.byte	0x8
 321 0058 D4050000 		.4byte	.LASF4
 322 005c 04       		.uleb128 0x4
 323 005d 02       		.byte	0x2
 324 005e 05       		.byte	0x5
 325 005f 4E060000 		.4byte	.LASF5
 326 0063 03       		.uleb128 0x3
 327 0064 54070000 		.4byte	.LASF6
 328 0068 03       		.byte	0x3
 329 0069 39       		.byte	0x39
 330 006a 6E000000 		.4byte	0x6e
 331 006e 04       		.uleb128 0x4
 332 006f 02       		.byte	0x2
 333 0070 07       		.byte	0x7
 334 0071 BE030000 		.4byte	.LASF7
 335 0075 03       		.uleb128 0x3
 336 0076 93070000 		.4byte	.LASF8
 337 007a 03       		.byte	0x3
 338 007b 4D       		.byte	0x4d
 339 007c 80000000 		.4byte	0x80
 340 0080 04       		.uleb128 0x4
 341 0081 04       		.byte	0x4
 342 0082 05       		.byte	0x5
ARM GAS  /var/folders/3j/4xdnk5197cv_b7cw3n33qk7r0000gn/T//ccPcLZD6.s 			page 7


 343 0083 01020000 		.4byte	.LASF9
 344 0087 03       		.uleb128 0x3
 345 0088 BE020000 		.4byte	.LASF10
 346 008c 03       		.byte	0x3
 347 008d 4F       		.byte	0x4f
 348 008e 92000000 		.4byte	0x92
 349 0092 04       		.uleb128 0x4
 350 0093 04       		.byte	0x4
 351 0094 07       		.byte	0x7
 352 0095 4D030000 		.4byte	.LASF11
 353 0099 04       		.uleb128 0x4
 354 009a 08       		.byte	0x8
 355 009b 05       		.byte	0x5
 356 009c DE000000 		.4byte	.LASF12
 357 00a0 04       		.uleb128 0x4
 358 00a1 08       		.byte	0x8
 359 00a2 07       		.byte	0x7
 360 00a3 72000000 		.4byte	.LASF13
 361 00a7 03       		.uleb128 0x3
 362 00a8 56080000 		.4byte	.LASF14
 363 00ac 04       		.byte	0x4
 364 00ad 18       		.byte	0x18
 365 00ae 4A000000 		.4byte	0x4a
 366 00b2 06       		.uleb128 0x6
 367 00b3 A7000000 		.4byte	0xa7
 368 00b7 03       		.uleb128 0x3
 369 00b8 33020000 		.4byte	.LASF15
 370 00bc 04       		.byte	0x4
 371 00bd 24       		.byte	0x24
 372 00be 63000000 		.4byte	0x63
 373 00c2 03       		.uleb128 0x3
 374 00c3 CC050000 		.4byte	.LASF16
 375 00c7 04       		.byte	0x4
 376 00c8 2C       		.byte	0x2c
 377 00c9 75000000 		.4byte	0x75
 378 00cd 03       		.uleb128 0x3
 379 00ce F5060000 		.4byte	.LASF17
 380 00d2 04       		.byte	0x4
 381 00d3 30       		.byte	0x30
 382 00d4 87000000 		.4byte	0x87
 383 00d8 05       		.uleb128 0x5
 384 00d9 CD000000 		.4byte	0xcd
 385 00dd 03       		.uleb128 0x3
 386 00de 05040000 		.4byte	.LASF18
 387 00e2 05       		.byte	0x5
 388 00e3 2A       		.byte	0x2a
 389 00e4 A7000000 		.4byte	0xa7
 390 00e8 03       		.uleb128 0x3
 391 00e9 0A020000 		.4byte	.LASF19
 392 00ed 05       		.byte	0x5
 393 00ee 2B       		.byte	0x2b
 394 00ef A7000000 		.4byte	0xa7
 395 00f3 03       		.uleb128 0x3
 396 00f4 76050000 		.4byte	.LASF20
 397 00f8 05       		.byte	0x5
 398 00f9 2C       		.byte	0x2c
 399 00fa A7000000 		.4byte	0xa7
ARM GAS  /var/folders/3j/4xdnk5197cv_b7cw3n33qk7r0000gn/T//ccPcLZD6.s 			page 8


 400 00fe 03       		.uleb128 0x3
 401 00ff 2C070000 		.4byte	.LASF21
 402 0103 05       		.byte	0x5
 403 0104 2D       		.byte	0x2d
 404 0105 A7000000 		.4byte	0xa7
 405 0109 03       		.uleb128 0x3
 406 010a AB050000 		.4byte	.LASF22
 407 010e 05       		.byte	0x5
 408 010f 2E       		.byte	0x2e
 409 0110 CD000000 		.4byte	0xcd
 410 0114 03       		.uleb128 0x3
 411 0115 E3030000 		.4byte	.LASF23
 412 0119 05       		.byte	0x5
 413 011a 2F       		.byte	0x2f
 414 011b C2000000 		.4byte	0xc2
 415 011f 03       		.uleb128 0x3
 416 0120 26040000 		.4byte	.LASF24
 417 0124 05       		.byte	0x5
 418 0125 31       		.byte	0x31
 419 0126 CD000000 		.4byte	0xcd
 420 012a 03       		.uleb128 0x3
 421 012b FE070000 		.4byte	.LASF25
 422 012f 05       		.byte	0x5
 423 0130 32       		.byte	0x32
 424 0131 CD000000 		.4byte	0xcd
 425 0135 03       		.uleb128 0x3
 426 0136 7E070000 		.4byte	.LASF26
 427 013a 05       		.byte	0x5
 428 013b 33       		.byte	0x33
 429 013c CD000000 		.4byte	0xcd
 430 0140 05       		.uleb128 0x5
 431 0141 35010000 		.4byte	0x135
 432 0145 03       		.uleb128 0x3
 433 0146 B3060000 		.4byte	.LASF27
 434 014a 06       		.byte	0x6
 435 014b 23       		.byte	0x23
 436 014c 50010000 		.4byte	0x150
 437 0150 07       		.uleb128 0x7
 438 0151 B3060000 		.4byte	.LASF27
 439 0155 44       		.byte	0x44
 440 0156 07       		.byte	0x7
 441 0157 57       		.byte	0x57
 442 0158 41020000 		.4byte	0x241
 443 015c 08       		.uleb128 0x8
 444 015d 8D060000 		.4byte	.LASF28
 445 0161 07       		.byte	0x7
 446 0162 58       		.byte	0x58
 447 0163 62020000 		.4byte	0x262
 448 0167 00       		.byte	0
 449 0168 08       		.uleb128 0x8
 450 0169 9E050000 		.4byte	.LASF29
 451 016d 07       		.byte	0x7
 452 016e 5A       		.byte	0x5a
 453 016f 62020000 		.4byte	0x262
 454 0173 04       		.byte	0x4
 455 0174 08       		.uleb128 0x8
 456 0175 B3000000 		.4byte	.LASF30
ARM GAS  /var/folders/3j/4xdnk5197cv_b7cw3n33qk7r0000gn/T//ccPcLZD6.s 			page 9


 457 0179 07       		.byte	0x7
 458 017a 5C       		.byte	0x5c
 459 017b 09010000 		.4byte	0x109
 460 017f 08       		.byte	0x8
 461 0180 08       		.uleb128 0x8
 462 0181 FA080000 		.4byte	.LASF31
 463 0185 07       		.byte	0x7
 464 0186 5D       		.byte	0x5d
 465 0187 1D030000 		.4byte	0x31d
 466 018b 0C       		.byte	0xc
 467 018c 08       		.uleb128 0x8
 468 018d 65020000 		.4byte	.LASF32
 469 0191 07       		.byte	0x7
 470 0192 5F       		.byte	0x5f
 471 0193 62020000 		.4byte	0x262
 472 0197 10       		.byte	0x10
 473 0198 08       		.uleb128 0x8
 474 0199 EC040000 		.4byte	.LASF33
 475 019d 07       		.byte	0x7
 476 019e 60       		.byte	0x60
 477 019f 62020000 		.4byte	0x262
 478 01a3 14       		.byte	0x14
 479 01a4 08       		.uleb128 0x8
 480 01a5 79080000 		.4byte	.LASF34
 481 01a9 07       		.byte	0x7
 482 01aa 67       		.byte	0x67
 483 01ab 51050000 		.4byte	0x551
 484 01af 18       		.byte	0x18
 485 01b0 08       		.uleb128 0x8
 486 01b1 58060000 		.4byte	.LASF35
 487 01b5 07       		.byte	0x7
 488 01b6 72       		.byte	0x72
 489 01b7 E8000000 		.4byte	0xe8
 490 01bb 1C       		.byte	0x1c
 491 01bc 08       		.uleb128 0x8
 492 01bd AB060000 		.4byte	.LASF36
 493 01c1 07       		.byte	0x7
 494 01c2 76       		.byte	0x76
 495 01c3 DD000000 		.4byte	0xdd
 496 01c7 1D       		.byte	0x1d
 497 01c8 08       		.uleb128 0x8
 498 01c9 2F080000 		.4byte	.LASF37
 499 01cd 07       		.byte	0x7
 500 01ce 7B       		.byte	0x7b
 501 01cf F3000000 		.4byte	0xf3
 502 01d3 1E       		.byte	0x1e
 503 01d4 08       		.uleb128 0x8
 504 01d5 60060000 		.4byte	.LASF38
 505 01d9 07       		.byte	0x7
 506 01da 81       		.byte	0x81
 507 01db FE000000 		.4byte	0xfe
 508 01df 1F       		.byte	0x1f
 509 01e0 08       		.uleb128 0x8
 510 01e1 B1070000 		.4byte	.LASF39
 511 01e5 07       		.byte	0x7
 512 01e6 88       		.byte	0x88
 513 01e7 40010000 		.4byte	0x140
ARM GAS  /var/folders/3j/4xdnk5197cv_b7cw3n33qk7r0000gn/T//ccPcLZD6.s 			page 10


 514 01eb 20       		.byte	0x20
 515 01ec 09       		.uleb128 0x9
 516 01ed 705F7500 		.ascii	"p_u\000"
 517 01f1 07       		.byte	0x7
 518 01f2 AD       		.byte	0xad
 519 01f3 1C050000 		.4byte	0x51c
 520 01f7 24       		.byte	0x24
 521 01f8 08       		.uleb128 0x8
 522 01f9 00090000 		.4byte	.LASF40
 523 01fd 07       		.byte	0x7
 524 01fe B2       		.byte	0xb2
 525 01ff 88020000 		.4byte	0x288
 526 0203 28       		.byte	0x28
 527 0204 08       		.uleb128 0x8
 528 0205 CE070000 		.4byte	.LASF41
 529 0209 07       		.byte	0x7
 530 020a B8       		.byte	0xb8
 531 020b 68020000 		.4byte	0x268
 532 020f 2C       		.byte	0x2c
 533 0210 08       		.uleb128 0x8
 534 0211 0D000000 		.4byte	.LASF42
 535 0215 07       		.byte	0x7
 536 0216 BC       		.byte	0xbc
 537 0217 14010000 		.4byte	0x114
 538 021b 34       		.byte	0x34
 539 021c 08       		.uleb128 0x8
 540 021d E0060000 		.4byte	.LASF43
 541 0221 07       		.byte	0x7
 542 0222 C2       		.byte	0xc2
 543 0223 1F010000 		.4byte	0x11f
 544 0227 38       		.byte	0x38
 545 0228 08       		.uleb128 0x8
 546 0229 44060000 		.4byte	.LASF44
 547 022d 07       		.byte	0x7
 548 022e C9       		.byte	0xc9
 549 022f 63050000 		.4byte	0x563
 550 0233 3C       		.byte	0x3c
 551 0234 08       		.uleb128 0x8
 552 0235 88070000 		.4byte	.LASF45
 553 0239 07       		.byte	0x7
 554 023a CD       		.byte	0xcd
 555 023b 09010000 		.4byte	0x109
 556 023f 40       		.byte	0x40
 557 0240 00       		.byte	0
 558 0241 0A       		.uleb128 0xa
 559 0242 08       		.byte	0x8
 560 0243 06       		.byte	0x6
 561 0244 5A       		.byte	0x5a
 562 0245 62020000 		.4byte	0x262
 563 0249 08       		.uleb128 0x8
 564 024a 8D060000 		.4byte	.LASF28
 565 024e 06       		.byte	0x6
 566 024f 5B       		.byte	0x5b
 567 0250 62020000 		.4byte	0x262
 568 0254 00       		.byte	0
 569 0255 08       		.uleb128 0x8
 570 0256 9E050000 		.4byte	.LASF29
ARM GAS  /var/folders/3j/4xdnk5197cv_b7cw3n33qk7r0000gn/T//ccPcLZD6.s 			page 11


 571 025a 06       		.byte	0x6
 572 025b 5D       		.byte	0x5d
 573 025c 62020000 		.4byte	0x262
 574 0260 04       		.byte	0x4
 575 0261 00       		.byte	0
 576 0262 0B       		.uleb128 0xb
 577 0263 04       		.byte	0x4
 578 0264 45010000 		.4byte	0x145
 579 0268 03       		.uleb128 0x3
 580 0269 0A050000 		.4byte	.LASF46
 581 026d 06       		.byte	0x6
 582 026e 5F       		.byte	0x5f
 583 026f 41020000 		.4byte	0x241
 584 0273 0A       		.uleb128 0xa
 585 0274 04       		.byte	0x4
 586 0275 06       		.byte	0x6
 587 0276 64       		.byte	0x64
 588 0277 88020000 		.4byte	0x288
 589 027b 08       		.uleb128 0x8
 590 027c 8D060000 		.4byte	.LASF28
 591 0280 06       		.byte	0x6
 592 0281 66       		.byte	0x66
 593 0282 62020000 		.4byte	0x262
 594 0286 00       		.byte	0
 595 0287 00       		.byte	0
 596 0288 03       		.uleb128 0x3
 597 0289 1A040000 		.4byte	.LASF47
 598 028d 06       		.byte	0x6
 599 028e 69       		.byte	0x69
 600 028f 73020000 		.4byte	0x273
 601 0293 03       		.uleb128 0x3
 602 0294 5E040000 		.4byte	.LASF48
 603 0298 08       		.byte	0x8
 604 0299 9D       		.byte	0x9d
 605 029a CD000000 		.4byte	0xcd
 606 029e 03       		.uleb128 0x3
 607 029f C9020000 		.4byte	.LASF49
 608 02a3 08       		.byte	0x8
 609 02a4 A2       		.byte	0xa2
 610 02a5 A9020000 		.4byte	0x2a9
 611 02a9 0C       		.uleb128 0xc
 612 02aa 04       		.byte	0x4
 613 02ab 07       		.uleb128 0x7
 614 02ac C7070000 		.4byte	.LASF50
 615 02b0 24       		.byte	0x24
 616 02b1 08       		.byte	0x8
 617 02b2 B9       		.byte	0xb9
 618 02b3 1D030000 		.4byte	0x31d
 619 02b7 09       		.uleb128 0x9
 620 02b8 723400   		.ascii	"r4\000"
 621 02bb 08       		.byte	0x8
 622 02bc BA       		.byte	0xba
 623 02bd 9E020000 		.4byte	0x29e
 624 02c1 00       		.byte	0
 625 02c2 09       		.uleb128 0x9
 626 02c3 723500   		.ascii	"r5\000"
 627 02c6 08       		.byte	0x8
ARM GAS  /var/folders/3j/4xdnk5197cv_b7cw3n33qk7r0000gn/T//ccPcLZD6.s 			page 12


 628 02c7 BB       		.byte	0xbb
 629 02c8 9E020000 		.4byte	0x29e
 630 02cc 04       		.byte	0x4
 631 02cd 09       		.uleb128 0x9
 632 02ce 723600   		.ascii	"r6\000"
 633 02d1 08       		.byte	0x8
 634 02d2 BC       		.byte	0xbc
 635 02d3 9E020000 		.4byte	0x29e
 636 02d7 08       		.byte	0x8
 637 02d8 09       		.uleb128 0x9
 638 02d9 723700   		.ascii	"r7\000"
 639 02dc 08       		.byte	0x8
 640 02dd BD       		.byte	0xbd
 641 02de 9E020000 		.4byte	0x29e
 642 02e2 0C       		.byte	0xc
 643 02e3 09       		.uleb128 0x9
 644 02e4 723800   		.ascii	"r8\000"
 645 02e7 08       		.byte	0x8
 646 02e8 BE       		.byte	0xbe
 647 02e9 9E020000 		.4byte	0x29e
 648 02ed 10       		.byte	0x10
 649 02ee 09       		.uleb128 0x9
 650 02ef 723900   		.ascii	"r9\000"
 651 02f2 08       		.byte	0x8
 652 02f3 BF       		.byte	0xbf
 653 02f4 9E020000 		.4byte	0x29e
 654 02f8 14       		.byte	0x14
 655 02f9 09       		.uleb128 0x9
 656 02fa 72313000 		.ascii	"r10\000"
 657 02fe 08       		.byte	0x8
 658 02ff C0       		.byte	0xc0
 659 0300 9E020000 		.4byte	0x29e
 660 0304 18       		.byte	0x18
 661 0305 09       		.uleb128 0x9
 662 0306 72313100 		.ascii	"r11\000"
 663 030a 08       		.byte	0x8
 664 030b C1       		.byte	0xc1
 665 030c 9E020000 		.4byte	0x29e
 666 0310 1C       		.byte	0x1c
 667 0311 09       		.uleb128 0x9
 668 0312 6C7200   		.ascii	"lr\000"
 669 0315 08       		.byte	0x8
 670 0316 C2       		.byte	0xc2
 671 0317 9E020000 		.4byte	0x29e
 672 031b 20       		.byte	0x20
 673 031c 00       		.byte	0
 674 031d 07       		.uleb128 0x7
 675 031e B6030000 		.4byte	.LASF51
 676 0322 04       		.byte	0x4
 677 0323 08       		.byte	0x8
 678 0324 CA       		.byte	0xca
 679 0325 36030000 		.4byte	0x336
 680 0329 09       		.uleb128 0x9
 681 032a 72313300 		.ascii	"r13\000"
 682 032e 08       		.byte	0x8
 683 032f CB       		.byte	0xcb
 684 0330 36030000 		.4byte	0x336
ARM GAS  /var/folders/3j/4xdnk5197cv_b7cw3n33qk7r0000gn/T//ccPcLZD6.s 			page 13


 685 0334 00       		.byte	0
 686 0335 00       		.byte	0
 687 0336 0B       		.uleb128 0xb
 688 0337 04       		.byte	0x4
 689 0338 AB020000 		.4byte	0x2ab
 690 033c 03       		.uleb128 0x3
 691 033d 74030000 		.4byte	.LASF52
 692 0341 09       		.byte	0x9
 693 0342 4E       		.byte	0x4e
 694 0343 47030000 		.4byte	0x347
 695 0347 0B       		.uleb128 0xb
 696 0348 04       		.byte	0x4
 697 0349 4D030000 		.4byte	0x34d
 698 034d 0D       		.uleb128 0xd
 699 034e 58030000 		.4byte	0x358
 700 0352 0E       		.uleb128 0xe
 701 0353 A9020000 		.4byte	0x2a9
 702 0357 00       		.byte	0
 703 0358 03       		.uleb128 0x3
 704 0359 12070000 		.4byte	.LASF53
 705 035d 09       		.byte	0x9
 706 035e 53       		.byte	0x53
 707 035f 63030000 		.4byte	0x363
 708 0363 07       		.uleb128 0x7
 709 0364 12070000 		.4byte	.LASF53
 710 0368 14       		.byte	0x14
 711 0369 09       		.byte	0x9
 712 036a 5A       		.byte	0x5a
 713 036b AC030000 		.4byte	0x3ac
 714 036f 08       		.uleb128 0x8
 715 0370 13030000 		.4byte	.LASF54
 716 0374 09       		.byte	0x9
 717 0375 5B       		.byte	0x5b
 718 0376 AC030000 		.4byte	0x3ac
 719 037a 00       		.byte	0
 720 037b 08       		.uleb128 0x8
 721 037c D2020000 		.4byte	.LASF55
 722 0380 09       		.byte	0x9
 723 0381 5D       		.byte	0x5d
 724 0382 AC030000 		.4byte	0x3ac
 725 0386 04       		.byte	0x4
 726 0387 08       		.uleb128 0x8
 727 0388 88040000 		.4byte	.LASF56
 728 038c 09       		.byte	0x9
 729 038d 5F       		.byte	0x5f
 730 038e 35010000 		.4byte	0x135
 731 0392 08       		.byte	0x8
 732 0393 08       		.uleb128 0x8
 733 0394 C3040000 		.4byte	.LASF57
 734 0398 09       		.byte	0x9
 735 0399 60       		.byte	0x60
 736 039a 3C030000 		.4byte	0x33c
 737 039e 0C       		.byte	0xc
 738 039f 08       		.uleb128 0x8
 739 03a0 F7070000 		.4byte	.LASF58
 740 03a4 09       		.byte	0x9
 741 03a5 62       		.byte	0x62
ARM GAS  /var/folders/3j/4xdnk5197cv_b7cw3n33qk7r0000gn/T//ccPcLZD6.s 			page 14


 742 03a6 A9020000 		.4byte	0x2a9
 743 03aa 10       		.byte	0x10
 744 03ab 00       		.byte	0
 745 03ac 0B       		.uleb128 0xb
 746 03ad 04       		.byte	0x4
 747 03ae 58030000 		.4byte	0x358
 748 03b2 0A       		.uleb128 0xa
 749 03b3 10       		.byte	0x10
 750 03b4 09       		.byte	0x9
 751 03b5 6C       		.byte	0x6c
 752 03b6 EB030000 		.4byte	0x3eb
 753 03ba 08       		.uleb128 0x8
 754 03bb 13030000 		.4byte	.LASF54
 755 03bf 09       		.byte	0x9
 756 03c0 6D       		.byte	0x6d
 757 03c1 AC030000 		.4byte	0x3ac
 758 03c5 00       		.byte	0
 759 03c6 08       		.uleb128 0x8
 760 03c7 D2020000 		.4byte	.LASF55
 761 03cb 09       		.byte	0x9
 762 03cc 6F       		.byte	0x6f
 763 03cd AC030000 		.4byte	0x3ac
 764 03d1 04       		.byte	0x4
 765 03d2 08       		.uleb128 0x8
 766 03d3 88040000 		.4byte	.LASF56
 767 03d7 09       		.byte	0x9
 768 03d8 71       		.byte	0x71
 769 03d9 35010000 		.4byte	0x135
 770 03dd 08       		.byte	0x8
 771 03de 08       		.uleb128 0x8
 772 03df 80080000 		.4byte	.LASF59
 773 03e3 09       		.byte	0x9
 774 03e4 72       		.byte	0x72
 775 03e5 40010000 		.4byte	0x140
 776 03e9 0C       		.byte	0xc
 777 03ea 00       		.byte	0
 778 03eb 03       		.uleb128 0x3
 779 03ec B9080000 		.4byte	.LASF60
 780 03f0 09       		.byte	0x9
 781 03f1 73       		.byte	0x73
 782 03f2 B2030000 		.4byte	0x3b2
 783 03f6 0F       		.uleb128 0xf
 784 03f7 48000000 		.4byte	.LASF68
 785 03fb 09       		.byte	0x9
 786 03fc D1       		.byte	0xd1
 787 03fd EB030000 		.4byte	0x3eb
 788 0401 0A       		.uleb128 0xa
 789 0402 1C       		.byte	0x1c
 790 0403 0A       		.byte	0xa
 791 0404 57       		.byte	0x57
 792 0405 52040000 		.4byte	0x452
 793 0409 08       		.uleb128 0x8
 794 040a 0A070000 		.4byte	.LASF61
 795 040e 0A       		.byte	0xa
 796 040f 58       		.byte	0x58
 797 0410 68020000 		.4byte	0x268
 798 0414 00       		.byte	0
ARM GAS  /var/folders/3j/4xdnk5197cv_b7cw3n33qk7r0000gn/T//ccPcLZD6.s 			page 15


 799 0415 08       		.uleb128 0x8
 800 0416 76060000 		.4byte	.LASF62
 801 041a 0A       		.byte	0xa
 802 041b 59       		.byte	0x59
 803 041c 09010000 		.4byte	0x109
 804 0420 08       		.byte	0x8
 805 0421 08       		.uleb128 0x8
 806 0422 04050000 		.4byte	.LASF63
 807 0426 0A       		.byte	0xa
 808 0427 5B       		.byte	0x5b
 809 0428 1D030000 		.4byte	0x31d
 810 042c 0C       		.byte	0xc
 811 042d 08       		.uleb128 0x8
 812 042e EE030000 		.4byte	.LASF64
 813 0432 0A       		.byte	0xa
 814 0433 5E       		.byte	0x5e
 815 0434 62020000 		.4byte	0x262
 816 0438 10       		.byte	0x10
 817 0439 08       		.uleb128 0x8
 818 043a 37050000 		.4byte	.LASF65
 819 043e 0A       		.byte	0xa
 820 043f 5F       		.byte	0x5f
 821 0440 62020000 		.4byte	0x262
 822 0444 14       		.byte	0x14
 823 0445 08       		.uleb128 0x8
 824 0446 2D050000 		.4byte	.LASF66
 825 044a 0A       		.byte	0xa
 826 044b 62       		.byte	0x62
 827 044c 62020000 		.4byte	0x262
 828 0450 18       		.byte	0x18
 829 0451 00       		.byte	0
 830 0452 03       		.uleb128 0x3
 831 0453 3D080000 		.4byte	.LASF67
 832 0457 0A       		.byte	0xa
 833 0458 64       		.byte	0x64
 834 0459 01040000 		.4byte	0x401
 835 045d 0F       		.uleb128 0xf
 836 045e 50080000 		.4byte	.LASF69
 837 0462 0A       		.byte	0xa
 838 0463 68       		.byte	0x68
 839 0464 52040000 		.4byte	0x452
 840 0468 07       		.uleb128 0x7
 841 0469 3D040000 		.4byte	.LASF70
 842 046d 10       		.byte	0x10
 843 046e 0B       		.byte	0xb
 844 046f 25       		.byte	0x25
 845 0470 99040000 		.4byte	0x499
 846 0474 08       		.uleb128 0x8
 847 0475 26010000 		.4byte	.LASF71
 848 0479 0B       		.byte	0xb
 849 047a 26       		.byte	0x26
 850 047b 68020000 		.4byte	0x268
 851 047f 00       		.byte	0
 852 0480 08       		.uleb128 0x8
 853 0481 D6080000 		.4byte	.LASF72
 854 0485 0B       		.byte	0xb
 855 0486 28       		.byte	0x28
ARM GAS  /var/folders/3j/4xdnk5197cv_b7cw3n33qk7r0000gn/T//ccPcLZD6.s 			page 16


 856 0487 62020000 		.4byte	0x262
 857 048b 08       		.byte	0x8
 858 048c 08       		.uleb128 0x8
 859 048d 77070000 		.4byte	.LASF73
 860 0491 0B       		.byte	0xb
 861 0492 2A       		.byte	0x2a
 862 0493 99040000 		.4byte	0x499
 863 0497 0C       		.byte	0xc
 864 0498 00       		.byte	0
 865 0499 0B       		.uleb128 0xb
 866 049a 04       		.byte	0x4
 867 049b 68040000 		.4byte	0x468
 868 049f 03       		.uleb128 0x3
 869 04a0 3D040000 		.4byte	.LASF70
 870 04a4 0B       		.byte	0xb
 871 04a5 2C       		.byte	0x2c
 872 04a6 68040000 		.4byte	0x468
 873 04aa 03       		.uleb128 0x3
 874 04ab 64080000 		.4byte	.LASF74
 875 04af 0C       		.byte	0xc
 876 04b0 25       		.byte	0x25
 877 04b1 B5040000 		.4byte	0x4b5
 878 04b5 07       		.uleb128 0x7
 879 04b6 64080000 		.4byte	.LASF74
 880 04ba 10       		.byte	0x10
 881 04bb 0C       		.byte	0xc
 882 04bc 2A       		.byte	0x2a
 883 04bd F2040000 		.4byte	0x4f2
 884 04c1 08       		.uleb128 0x8
 885 04c2 F6030000 		.4byte	.LASF75
 886 04c6 0C       		.byte	0xc
 887 04c7 2B       		.byte	0x2b
 888 04c8 F2040000 		.4byte	0x4f2
 889 04cc 00       		.byte	0
 890 04cd 08       		.uleb128 0x8
 891 04ce E2050000 		.4byte	.LASF76
 892 04d2 0C       		.byte	0xc
 893 04d3 2E       		.byte	0x2e
 894 04d4 62020000 		.4byte	0x262
 895 04d8 04       		.byte	0x4
 896 04d9 08       		.uleb128 0x8
 897 04da 3F050000 		.4byte	.LASF77
 898 04de 0C       		.byte	0xc
 899 04df 30       		.byte	0x30
 900 04e0 1F010000 		.4byte	0x11f
 901 04e4 08       		.byte	0x8
 902 04e5 08       		.uleb128 0x8
 903 04e6 3B060000 		.4byte	.LASF78
 904 04ea 0C       		.byte	0xc
 905 04eb 33       		.byte	0x33
 906 04ec 2A010000 		.4byte	0x12a
 907 04f0 0C       		.byte	0xc
 908 04f1 00       		.byte	0
 909 04f2 0B       		.uleb128 0xb
 910 04f3 04       		.byte	0x4
 911 04f4 AA040000 		.4byte	0x4aa
 912 04f8 07       		.uleb128 0x7
ARM GAS  /var/folders/3j/4xdnk5197cv_b7cw3n33qk7r0000gn/T//ccPcLZD6.s 			page 17


 913 04f9 FA020000 		.4byte	.LASF79
 914 04fd 04       		.byte	0x4
 915 04fe 0C       		.byte	0xc
 916 04ff 3A       		.byte	0x3a
 917 0500 11050000 		.4byte	0x511
 918 0504 08       		.uleb128 0x8
 919 0505 8B080000 		.4byte	.LASF80
 920 0509 0C       		.byte	0xc
 921 050a 3B       		.byte	0x3b
 922 050b F2040000 		.4byte	0x4f2
 923 050f 00       		.byte	0
 924 0510 00       		.byte	0
 925 0511 03       		.uleb128 0x3
 926 0512 FA020000 		.4byte	.LASF79
 927 0516 0C       		.byte	0xc
 928 0517 3E       		.byte	0x3e
 929 0518 F8040000 		.4byte	0x4f8
 930 051c 10       		.uleb128 0x10
 931 051d 04       		.byte	0x4
 932 051e 07       		.byte	0x7
 933 051f 8F       		.byte	0x8f
 934 0520 51050000 		.4byte	0x551
 935 0524 11       		.uleb128 0x11
 936 0525 1A000000 		.4byte	.LASF81
 937 0529 07       		.byte	0x7
 938 052a 96       		.byte	0x96
 939 052b 14010000 		.4byte	0x114
 940 052f 11       		.uleb128 0x11
 941 0530 97000000 		.4byte	.LASF82
 942 0534 07       		.byte	0x7
 943 0535 9D       		.byte	0x9d
 944 0536 14010000 		.4byte	0x114
 945 053a 11       		.uleb128 0x11
 946 053b 72080000 		.4byte	.LASF83
 947 053f 07       		.byte	0x7
 948 0540 A4       		.byte	0xa4
 949 0541 A9020000 		.4byte	0x2a9
 950 0545 11       		.uleb128 0x11
 951 0546 86060000 		.4byte	.LASF84
 952 054a 07       		.byte	0x7
 953 054b AB       		.byte	0xab
 954 054c 1F010000 		.4byte	0x11f
 955 0550 00       		.byte	0
 956 0551 0B       		.uleb128 0xb
 957 0552 04       		.byte	0x4
 958 0553 5E050000 		.4byte	0x55e
 959 0557 04       		.uleb128 0x4
 960 0558 01       		.byte	0x1
 961 0559 08       		.byte	0x8
 962 055a 3B070000 		.4byte	.LASF85
 963 055e 06       		.uleb128 0x6
 964 055f 57050000 		.4byte	0x557
 965 0563 0B       		.uleb128 0xb
 966 0564 04       		.byte	0x4
 967 0565 9F040000 		.4byte	0x49f
 968 0569 0B       		.uleb128 0xb
 969 056a 04       		.byte	0x4
ARM GAS  /var/folders/3j/4xdnk5197cv_b7cw3n33qk7r0000gn/T//ccPcLZD6.s 			page 18


 970 056b 6F050000 		.4byte	0x56f
 971 056f 12       		.uleb128 0x12
 972 0570 14010000 		.4byte	0x114
 973 0574 7E050000 		.4byte	0x57e
 974 0578 0E       		.uleb128 0xe
 975 0579 A9020000 		.4byte	0x2a9
 976 057d 00       		.byte	0
 977 057e 0A       		.uleb128 0xa
 978 057f 16       		.byte	0x16
 979 0580 0D       		.byte	0xd
 980 0581 25       		.byte	0x25
 981 0582 5F060000 		.4byte	0x65f
 982 0586 08       		.uleb128 0x8
 983 0587 7D030000 		.4byte	.LASF86
 984 058b 0D       		.byte	0xd
 985 058c 26       		.byte	0x26
 986 058d 5F060000 		.4byte	0x65f
 987 0591 00       		.byte	0
 988 0592 08       		.uleb128 0x8
 989 0593 69040000 		.4byte	.LASF87
 990 0597 0D       		.byte	0xd
 991 0598 27       		.byte	0x27
 992 0599 A7000000 		.4byte	0xa7
 993 059d 04       		.byte	0x4
 994 059e 08       		.uleb128 0x8
 995 059f 17050000 		.4byte	.LASF88
 996 05a3 0D       		.byte	0xd
 997 05a4 28       		.byte	0x28
 998 05a5 A7000000 		.4byte	0xa7
 999 05a9 05       		.byte	0x5
 1000 05aa 08       		.uleb128 0x8
 1001 05ab 9D080000 		.4byte	.LASF89
 1002 05af 0D       		.byte	0xd
 1003 05b0 29       		.byte	0x29
 1004 05b1 B7000000 		.4byte	0xb7
 1005 05b5 06       		.byte	0x6
 1006 05b6 08       		.uleb128 0x8
 1007 05b7 89050000 		.4byte	.LASF90
 1008 05bb 0D       		.byte	0xd
 1009 05bc 2A       		.byte	0x2a
 1010 05bd A7000000 		.4byte	0xa7
 1011 05c1 08       		.byte	0x8
 1012 05c2 08       		.uleb128 0x8
 1013 05c3 CB040000 		.4byte	.LASF91
 1014 05c7 0D       		.byte	0xd
 1015 05c8 2B       		.byte	0x2b
 1016 05c9 A7000000 		.4byte	0xa7
 1017 05cd 09       		.byte	0x9
 1018 05ce 08       		.uleb128 0x8
 1019 05cf 89000000 		.4byte	.LASF92
 1020 05d3 0D       		.byte	0xd
 1021 05d4 2C       		.byte	0x2c
 1022 05d5 A7000000 		.4byte	0xa7
 1023 05d9 0A       		.byte	0xa
 1024 05da 08       		.uleb128 0x8
 1025 05db FE060000 		.4byte	.LASF93
 1026 05df 0D       		.byte	0xd
ARM GAS  /var/folders/3j/4xdnk5197cv_b7cw3n33qk7r0000gn/T//ccPcLZD6.s 			page 19


 1027 05e0 2D       		.byte	0x2d
 1028 05e1 A7000000 		.4byte	0xa7
 1029 05e5 0B       		.byte	0xb
 1030 05e6 08       		.uleb128 0x8
 1031 05e7 24080000 		.4byte	.LASF94
 1032 05eb 0D       		.byte	0xd
 1033 05ec 2E       		.byte	0x2e
 1034 05ed A7000000 		.4byte	0xa7
 1035 05f1 0C       		.byte	0xc
 1036 05f2 08       		.uleb128 0x8
 1037 05f3 C8060000 		.4byte	.LASF95
 1038 05f7 0D       		.byte	0xd
 1039 05f8 2F       		.byte	0x2f
 1040 05f9 A7000000 		.4byte	0xa7
 1041 05fd 0D       		.byte	0xd
 1042 05fe 08       		.uleb128 0x8
 1043 05ff 00000000 		.4byte	.LASF96
 1044 0603 0D       		.byte	0xd
 1045 0604 30       		.byte	0x30
 1046 0605 A7000000 		.4byte	0xa7
 1047 0609 0E       		.byte	0xe
 1048 060a 08       		.uleb128 0x8
 1049 060b E0040000 		.4byte	.LASF97
 1050 060f 0D       		.byte	0xd
 1051 0610 31       		.byte	0x31
 1052 0611 A7000000 		.4byte	0xa7
 1053 0615 0F       		.byte	0xf
 1054 0616 08       		.uleb128 0x8
 1055 0617 F8000000 		.4byte	.LASF98
 1056 061b 0D       		.byte	0xd
 1057 061c 32       		.byte	0x32
 1058 061d A7000000 		.4byte	0xa7
 1059 0621 10       		.byte	0x10
 1060 0622 08       		.uleb128 0x8
 1061 0623 BA000000 		.4byte	.LASF99
 1062 0627 0D       		.byte	0xd
 1063 0628 34       		.byte	0x34
 1064 0629 A7000000 		.4byte	0xa7
 1065 062d 11       		.byte	0x11
 1066 062e 08       		.uleb128 0x8
 1067 062f 11010000 		.4byte	.LASF100
 1068 0633 0D       		.byte	0xd
 1069 0634 35       		.byte	0x35
 1070 0635 A7000000 		.4byte	0xa7
 1071 0639 12       		.byte	0x12
 1072 063a 08       		.uleb128 0x8
 1073 063b 71040000 		.4byte	.LASF101
 1074 063f 0D       		.byte	0xd
 1075 0640 36       		.byte	0x36
 1076 0641 A7000000 		.4byte	0xa7
 1077 0645 13       		.byte	0x13
 1078 0646 08       		.uleb128 0x8
 1079 0647 9C060000 		.4byte	.LASF102
 1080 064b 0D       		.byte	0xd
 1081 064c 37       		.byte	0x37
 1082 064d A7000000 		.4byte	0xa7
 1083 0651 14       		.byte	0x14
ARM GAS  /var/folders/3j/4xdnk5197cv_b7cw3n33qk7r0000gn/T//ccPcLZD6.s 			page 20


 1084 0652 08       		.uleb128 0x8
 1085 0653 6A060000 		.4byte	.LASF103
 1086 0657 0D       		.byte	0xd
 1087 0658 39       		.byte	0x39
 1088 0659 A7000000 		.4byte	0xa7
 1089 065d 15       		.byte	0x15
 1090 065e 00       		.byte	0
 1091 065f 13       		.uleb128 0x13
 1092 0660 57050000 		.4byte	0x557
 1093 0664 6F060000 		.4byte	0x66f
 1094 0668 14       		.uleb128 0x14
 1095 0669 37000000 		.4byte	0x37
 1096 066d 03       		.byte	0x3
 1097 066e 00       		.byte	0
 1098 066f 03       		.uleb128 0x3
 1099 0670 41020000 		.4byte	.LASF104
 1100 0674 0D       		.byte	0xd
 1101 0675 3A       		.byte	0x3a
 1102 0676 7E050000 		.4byte	0x57e
 1103 067a 06       		.uleb128 0x6
 1104 067b 6F060000 		.4byte	0x66f
 1105 067f 0F       		.uleb128 0xf
 1106 0680 5F030000 		.4byte	.LASF105
 1107 0684 0D       		.byte	0xd
 1108 0685 77       		.byte	0x77
 1109 0686 7A060000 		.4byte	0x67a
 1110 068a 03       		.uleb128 0x3
 1111 068b 51040000 		.4byte	.LASF106
 1112 068f 0E       		.byte	0xe
 1113 0690 30       		.byte	0x30
 1114 0691 95060000 		.4byte	0x695
 1115 0695 07       		.uleb128 0x7
 1116 0696 51040000 		.4byte	.LASF106
 1117 069a 24       		.byte	0x24
 1118 069b 0E       		.byte	0xe
 1119 069c 3E       		.byte	0x3e
 1120 069d 02070000 		.4byte	0x702
 1121 06a1 08       		.uleb128 0x8
 1122 06a2 D4000000 		.4byte	.LASF107
 1123 06a6 0E       		.byte	0xe
 1124 06a7 3F       		.byte	0x3f
 1125 06a8 68020000 		.4byte	0x268
 1126 06ac 00       		.byte	0
 1127 06ad 08       		.uleb128 0x8
 1128 06ae B9040000 		.4byte	.LASF108
 1129 06b2 0E       		.byte	0xe
 1130 06b3 40       		.byte	0x40
 1131 06b4 2C000000 		.4byte	0x2c
 1132 06b8 08       		.byte	0x8
 1133 06b9 08       		.uleb128 0x8
 1134 06ba 2A020000 		.4byte	.LASF109
 1135 06be 0E       		.byte	0xe
 1136 06bf 41       		.byte	0x41
 1137 06c0 24070000 		.4byte	0x724
 1138 06c4 0C       		.byte	0xc
 1139 06c5 08       		.uleb128 0x8
 1140 06c6 6C000000 		.4byte	.LASF110
ARM GAS  /var/folders/3j/4xdnk5197cv_b7cw3n33qk7r0000gn/T//ccPcLZD6.s 			page 21


 1141 06ca 0E       		.byte	0xe
 1142 06cb 42       		.byte	0x42
 1143 06cc 24070000 		.4byte	0x724
 1144 06d0 10       		.byte	0x10
 1145 06d1 08       		.uleb128 0x8
 1146 06d2 FC040000 		.4byte	.LASF111
 1147 06d6 0E       		.byte	0xe
 1148 06d7 44       		.byte	0x44
 1149 06d8 24070000 		.4byte	0x724
 1150 06dc 14       		.byte	0x14
 1151 06dd 08       		.uleb128 0x8
 1152 06de B3050000 		.4byte	.LASF112
 1153 06e2 0E       		.byte	0xe
 1154 06e3 45       		.byte	0x45
 1155 06e4 24070000 		.4byte	0x724
 1156 06e8 18       		.byte	0x18
 1157 06e9 08       		.uleb128 0x8
 1158 06ea 47080000 		.4byte	.LASF113
 1159 06ee 0E       		.byte	0xe
 1160 06ef 46       		.byte	0x46
 1161 06f0 02070000 		.4byte	0x702
 1162 06f4 1C       		.byte	0x1c
 1163 06f5 08       		.uleb128 0x8
 1164 06f6 C0080000 		.4byte	.LASF114
 1165 06fa 0E       		.byte	0xe
 1166 06fb 47       		.byte	0x47
 1167 06fc A9020000 		.4byte	0x2a9
 1168 0700 20       		.byte	0x20
 1169 0701 00       		.byte	0
 1170 0702 03       		.uleb128 0x3
 1171 0703 94050000 		.4byte	.LASF115
 1172 0707 0E       		.byte	0xe
 1173 0708 33       		.byte	0x33
 1174 0709 0D070000 		.4byte	0x70d
 1175 070d 0B       		.uleb128 0xb
 1176 070e 04       		.byte	0x4
 1177 070f 13070000 		.4byte	0x713
 1178 0713 0D       		.uleb128 0xd
 1179 0714 1E070000 		.4byte	0x71e
 1180 0718 0E       		.uleb128 0xe
 1181 0719 1E070000 		.4byte	0x71e
 1182 071d 00       		.byte	0
 1183 071e 0B       		.uleb128 0xb
 1184 071f 04       		.byte	0x4
 1185 0720 8A060000 		.4byte	0x68a
 1186 0724 0B       		.uleb128 0xb
 1187 0725 04       		.byte	0x4
 1188 0726 A7000000 		.4byte	0xa7
 1189 072a 03       		.uleb128 0x3
 1190 072b 32040000 		.4byte	.LASF116
 1191 072f 0E       		.byte	0xe
 1192 0730 7B       		.byte	0x7b
 1193 0731 8A060000 		.4byte	0x68a
 1194 0735 03       		.uleb128 0x3
 1195 0736 27000000 		.4byte	.LASF117
 1196 073a 0E       		.byte	0xe
 1197 073b EE       		.byte	0xee
ARM GAS  /var/folders/3j/4xdnk5197cv_b7cw3n33qk7r0000gn/T//ccPcLZD6.s 			page 22


 1198 073c 8A060000 		.4byte	0x68a
 1199 0740 12       		.uleb128 0x12
 1200 0741 2C000000 		.4byte	0x2c
 1201 0745 59070000 		.4byte	0x759
 1202 0749 0E       		.uleb128 0xe
 1203 074a A9020000 		.4byte	0x2a9
 1204 074e 0E       		.uleb128 0xe
 1205 074f 59070000 		.4byte	0x759
 1206 0753 0E       		.uleb128 0xe
 1207 0754 2C000000 		.4byte	0x2c
 1208 0758 00       		.byte	0
 1209 0759 0B       		.uleb128 0xb
 1210 075a 04       		.byte	0x4
 1211 075b B2000000 		.4byte	0xb2
 1212 075f 0B       		.uleb128 0xb
 1213 0760 04       		.byte	0x4
 1214 0761 40070000 		.4byte	0x740
 1215 0765 12       		.uleb128 0x12
 1216 0766 2C000000 		.4byte	0x2c
 1217 076a 7E070000 		.4byte	0x77e
 1218 076e 0E       		.uleb128 0xe
 1219 076f A9020000 		.4byte	0x2a9
 1220 0773 0E       		.uleb128 0xe
 1221 0774 24070000 		.4byte	0x724
 1222 0778 0E       		.uleb128 0xe
 1223 0779 2C000000 		.4byte	0x2c
 1224 077d 00       		.byte	0
 1225 077e 0B       		.uleb128 0xb
 1226 077f 04       		.byte	0x4
 1227 0780 65070000 		.4byte	0x765
 1228 0784 12       		.uleb128 0x12
 1229 0785 14010000 		.4byte	0x114
 1230 0789 98070000 		.4byte	0x798
 1231 078d 0E       		.uleb128 0xe
 1232 078e A9020000 		.4byte	0x2a9
 1233 0792 0E       		.uleb128 0xe
 1234 0793 A7000000 		.4byte	0xa7
 1235 0797 00       		.byte	0
 1236 0798 0B       		.uleb128 0xb
 1237 0799 04       		.byte	0x4
 1238 079a 84070000 		.4byte	0x784
 1239 079e 13       		.uleb128 0x13
 1240 079f 93020000 		.4byte	0x293
 1241 07a3 AE070000 		.4byte	0x7ae
 1242 07a7 14       		.uleb128 0x14
 1243 07a8 37000000 		.4byte	0x37
 1244 07ac 26       		.byte	0x26
 1245 07ad 00       		.byte	0
 1246 07ae 0F       		.uleb128 0xf
 1247 07af 6D020000 		.4byte	.LASF118
 1248 07b3 0F       		.byte	0xf
 1249 07b4 82       		.byte	0x82
 1250 07b5 9E070000 		.4byte	0x79e
 1251 07b9 07       		.uleb128 0x7
 1252 07ba 4F000000 		.4byte	.LASF119
 1253 07be 20       		.byte	0x20
 1254 07bf 10       		.byte	0x10
ARM GAS  /var/folders/3j/4xdnk5197cv_b7cw3n33qk7r0000gn/T//ccPcLZD6.s 			page 23


 1255 07c0 FD       		.byte	0xfd
 1256 07c1 2C080000 		.4byte	0x82c
 1257 07c5 08       		.uleb128 0x8
 1258 07c6 B6020000 		.4byte	.LASF120
 1259 07ca 10       		.byte	0x10
 1260 07cb FE       		.byte	0xfe
 1261 07cc 3E000000 		.4byte	0x3e
 1262 07d0 00       		.byte	0
 1263 07d1 08       		.uleb128 0x8
 1264 07d2 36080000 		.4byte	.LASF121
 1265 07d6 10       		.byte	0x10
 1266 07d7 FF       		.byte	0xff
 1267 07d8 3E000000 		.4byte	0x3e
 1268 07dc 04       		.byte	0x4
 1269 07dd 15       		.uleb128 0x15
 1270 07de AE080000 		.4byte	.LASF122
 1271 07e2 10       		.byte	0x10
 1272 07e3 0001     		.2byte	0x100
 1273 07e5 3E000000 		.4byte	0x3e
 1274 07e9 08       		.byte	0x8
 1275 07ea 15       		.uleb128 0x15
 1276 07eb DA020000 		.4byte	.LASF123
 1277 07ef 10       		.byte	0x10
 1278 07f0 0101     		.2byte	0x101
 1279 07f2 3E000000 		.4byte	0x3e
 1280 07f6 0C       		.byte	0xc
 1281 07f7 15       		.uleb128 0x15
 1282 07f8 AA000000 		.4byte	.LASF124
 1283 07fc 10       		.byte	0x10
 1284 07fd 0201     		.2byte	0x102
 1285 07ff 3E000000 		.4byte	0x3e
 1286 0803 10       		.byte	0x10
 1287 0804 15       		.uleb128 0x15
 1288 0805 99040000 		.4byte	.LASF125
 1289 0809 10       		.byte	0x10
 1290 080a 0301     		.2byte	0x103
 1291 080c 3E000000 		.4byte	0x3e
 1292 0810 14       		.byte	0x14
 1293 0811 15       		.uleb128 0x15
 1294 0812 1A020000 		.4byte	.LASF126
 1295 0816 10       		.byte	0x10
 1296 0817 0401     		.2byte	0x104
 1297 0819 3E000000 		.4byte	0x3e
 1298 081d 18       		.byte	0x18
 1299 081e 15       		.uleb128 0x15
 1300 081f 12090000 		.4byte	.LASF127
 1301 0823 10       		.byte	0x10
 1302 0824 0501     		.2byte	0x105
 1303 0826 3E000000 		.4byte	0x3e
 1304 082a 1C       		.byte	0x1c
 1305 082b 00       		.byte	0
 1306 082c 16       		.uleb128 0x16
 1307 082d 4F000000 		.4byte	.LASF119
 1308 0831 10       		.byte	0x10
 1309 0832 0801     		.2byte	0x108
 1310 0834 B9070000 		.4byte	0x7b9
 1311 0838 03       		.uleb128 0x3
ARM GAS  /var/folders/3j/4xdnk5197cv_b7cw3n33qk7r0000gn/T//ccPcLZD6.s 			page 24


 1312 0839 5B000000 		.4byte	.LASF128
 1313 083d 11       		.byte	0x11
 1314 083e 45       		.byte	0x45
 1315 083f CD000000 		.4byte	0xcd
 1316 0843 12       		.uleb128 0x12
 1317 0844 14010000 		.4byte	0x114
 1318 0848 5C080000 		.4byte	0x85c
 1319 084c 0E       		.uleb128 0xe
 1320 084d A9020000 		.4byte	0x2a9
 1321 0851 0E       		.uleb128 0xe
 1322 0852 A7000000 		.4byte	0xa7
 1323 0856 0E       		.uleb128 0xe
 1324 0857 35010000 		.4byte	0x135
 1325 085b 00       		.byte	0
 1326 085c 0B       		.uleb128 0xb
 1327 085d 04       		.byte	0x4
 1328 085e 43080000 		.4byte	0x843
 1329 0862 12       		.uleb128 0x12
 1330 0863 14010000 		.4byte	0x114
 1331 0867 76080000 		.4byte	0x876
 1332 086b 0E       		.uleb128 0xe
 1333 086c A9020000 		.4byte	0x2a9
 1334 0870 0E       		.uleb128 0xe
 1335 0871 35010000 		.4byte	0x135
 1336 0875 00       		.byte	0
 1337 0876 0B       		.uleb128 0xb
 1338 0877 04       		.byte	0x4
 1339 0878 62080000 		.4byte	0x862
 1340 087c 12       		.uleb128 0x12
 1341 087d 2C000000 		.4byte	0x2c
 1342 0881 9A080000 		.4byte	0x89a
 1343 0885 0E       		.uleb128 0xe
 1344 0886 A9020000 		.4byte	0x2a9
 1345 088a 0E       		.uleb128 0xe
 1346 088b 59070000 		.4byte	0x759
 1347 088f 0E       		.uleb128 0xe
 1348 0890 2C000000 		.4byte	0x2c
 1349 0894 0E       		.uleb128 0xe
 1350 0895 35010000 		.4byte	0x135
 1351 0899 00       		.byte	0
 1352 089a 0B       		.uleb128 0xb
 1353 089b 04       		.byte	0x4
 1354 089c 7C080000 		.4byte	0x87c
 1355 08a0 12       		.uleb128 0x12
 1356 08a1 2C000000 		.4byte	0x2c
 1357 08a5 BE080000 		.4byte	0x8be
 1358 08a9 0E       		.uleb128 0xe
 1359 08aa A9020000 		.4byte	0x2a9
 1360 08ae 0E       		.uleb128 0xe
 1361 08af 24070000 		.4byte	0x724
 1362 08b3 0E       		.uleb128 0xe
 1363 08b4 2C000000 		.4byte	0x2c
 1364 08b8 0E       		.uleb128 0xe
 1365 08b9 35010000 		.4byte	0x135
 1366 08bd 00       		.byte	0
 1367 08be 0B       		.uleb128 0xb
 1368 08bf 04       		.byte	0x4
ARM GAS  /var/folders/3j/4xdnk5197cv_b7cw3n33qk7r0000gn/T//ccPcLZD6.s 			page 25


 1369 08c0 A0080000 		.4byte	0x8a0
 1370 08c4 03       		.uleb128 0x3
 1371 08c5 8B030000 		.4byte	.LASF129
 1372 08c9 12       		.byte	0x12
 1373 08ca 3E       		.byte	0x3e
 1374 08cb CF080000 		.4byte	0x8cf
 1375 08cf 07       		.uleb128 0x7
 1376 08d0 8B030000 		.4byte	.LASF129
 1377 08d4 14       		.byte	0x14
 1378 08d5 12       		.byte	0x12
 1379 08d6 43       		.byte	0x43
 1380 08d7 18090000 		.4byte	0x918
 1381 08db 08       		.uleb128 0x8
 1382 08dc A8080000 		.4byte	.LASF130
 1383 08e0 12       		.byte	0x12
 1384 08e1 44       		.byte	0x44
 1385 08e2 29090000 		.4byte	0x929
 1386 08e6 00       		.byte	0
 1387 08e7 08       		.uleb128 0x8
 1388 08e8 C7080000 		.4byte	.LASF131
 1389 08ec 12       		.byte	0x12
 1390 08ed 45       		.byte	0x45
 1391 08ee 29090000 		.4byte	0x929
 1392 08f2 04       		.byte	0x4
 1393 08f3 08       		.uleb128 0x8
 1394 08f4 E9030000 		.4byte	.LASF132
 1395 08f8 12       		.byte	0x12
 1396 08f9 46       		.byte	0x46
 1397 08fa 38080000 		.4byte	0x838
 1398 08fe 08       		.byte	0x8
 1399 08ff 08       		.uleb128 0x8
 1400 0900 27050000 		.4byte	.LASF133
 1401 0904 12       		.byte	0x12
 1402 0905 47       		.byte	0x47
 1403 0906 38080000 		.4byte	0x838
 1404 090a 0C       		.byte	0xc
 1405 090b 08       		.uleb128 0x8
 1406 090c 67070000 		.4byte	.LASF134
 1407 0910 12       		.byte	0x12
 1408 0911 48       		.byte	0x48
 1409 0912 38080000 		.4byte	0x838
 1410 0916 10       		.byte	0x10
 1411 0917 00       		.byte	0
 1412 0918 0D       		.uleb128 0xd
 1413 0919 23090000 		.4byte	0x923
 1414 091d 0E       		.uleb128 0xe
 1415 091e 23090000 		.4byte	0x923
 1416 0922 00       		.byte	0
 1417 0923 0B       		.uleb128 0xb
 1418 0924 04       		.byte	0x4
 1419 0925 C4080000 		.4byte	0x8c4
 1420 0929 0B       		.uleb128 0xb
 1421 092a 04       		.byte	0x4
 1422 092b 18090000 		.4byte	0x918
 1423 092f 0A       		.uleb128 0xa
 1424 0930 18       		.byte	0x18
 1425 0931 13       		.byte	0x13
ARM GAS  /var/folders/3j/4xdnk5197cv_b7cw3n33qk7r0000gn/T//ccPcLZD6.s 			page 26


 1426 0932 2A       		.byte	0x2a
 1427 0933 80090000 		.4byte	0x980
 1428 0937 08       		.uleb128 0x8
 1429 0938 5E080000 		.4byte	.LASF135
 1430 093c 13       		.byte	0x13
 1431 093d 2F       		.byte	0x2f
 1432 093e CD000000 		.4byte	0xcd
 1433 0942 00       		.byte	0
 1434 0943 08       		.uleb128 0x8
 1435 0944 4E050000 		.4byte	.LASF136
 1436 0948 13       		.byte	0x13
 1437 0949 31       		.byte	0x31
 1438 094a 80090000 		.4byte	0x980
 1439 094e 04       		.byte	0x4
 1440 094f 08       		.uleb128 0x8
 1441 0950 DD030000 		.4byte	.LASF137
 1442 0954 13       		.byte	0x13
 1443 0955 32       		.byte	0x32
 1444 0956 80090000 		.4byte	0x980
 1445 095a 08       		.byte	0x8
 1446 095b 08       		.uleb128 0x8
 1447 095c 7D040000 		.4byte	.LASF138
 1448 0960 13       		.byte	0x13
 1449 0961 33       		.byte	0x33
 1450 0962 80090000 		.4byte	0x980
 1451 0966 0C       		.byte	0xc
 1452 0967 08       		.uleb128 0x8
 1453 0968 54050000 		.4byte	.LASF139
 1454 096c 13       		.byte	0x13
 1455 096d 34       		.byte	0x34
 1456 096e 80090000 		.4byte	0x980
 1457 0972 10       		.byte	0x10
 1458 0973 08       		.uleb128 0x8
 1459 0974 7D060000 		.4byte	.LASF140
 1460 0978 13       		.byte	0x13
 1461 0979 35       		.byte	0x35
 1462 097a 37000000 		.4byte	0x37
 1463 097e 14       		.byte	0x14
 1464 097f 00       		.byte	0
 1465 0980 0B       		.uleb128 0xb
 1466 0981 04       		.byte	0x4
 1467 0982 D8000000 		.4byte	0xd8
 1468 0986 03       		.uleb128 0x3
 1469 0987 D1030000 		.4byte	.LASF141
 1470 098b 13       		.byte	0x13
 1471 098c 37       		.byte	0x37
 1472 098d 2F090000 		.4byte	0x92f
 1473 0991 17       		.uleb128 0x17
 1474 0992 00       		.byte	0
 1475 0993 13       		.byte	0x13
 1476 0994 43       		.byte	0x43
 1477 0995 03       		.uleb128 0x3
 1478 0996 CC080000 		.4byte	.LASF142
 1479 099a 13       		.byte	0x13
 1480 099b 45       		.byte	0x45
 1481 099c 91090000 		.4byte	0x991
 1482 09a0 06       		.uleb128 0x6
ARM GAS  /var/folders/3j/4xdnk5197cv_b7cw3n33qk7r0000gn/T//ccPcLZD6.s 			page 27


 1483 09a1 95090000 		.4byte	0x995
 1484 09a5 0F       		.uleb128 0xf
 1485 09a6 1F050000 		.4byte	.LASF143
 1486 09aa 13       		.byte	0x13
 1487 09ab 6D       		.byte	0x6d
 1488 09ac 86090000 		.4byte	0x986
 1489 09b0 0F       		.uleb128 0xf
 1490 09b1 94060000 		.4byte	.LASF144
 1491 09b5 13       		.byte	0x13
 1492 09b6 6E       		.byte	0x6e
 1493 09b7 86090000 		.4byte	0x986
 1494 09bb 0F       		.uleb128 0xf
 1495 09bc E7080000 		.4byte	.LASF145
 1496 09c0 13       		.byte	0x13
 1497 09c1 75       		.byte	0x75
 1498 09c2 A0090000 		.4byte	0x9a0
 1499 09c6 18       		.uleb128 0x18
 1500 09c7 07       		.byte	0x7
 1501 09c8 01       		.byte	0x1
 1502 09c9 55000000 		.4byte	0x55
 1503 09cd 14       		.byte	0x14
 1504 09ce 54       		.byte	0x54
 1505 09cf F8090000 		.4byte	0x9f8
 1506 09d3 19       		.uleb128 0x19
 1507 09d4 E6010000 		.4byte	.LASF146
 1508 09d8 00       		.byte	0
 1509 09d9 19       		.uleb128 0x19
 1510 09da 90040000 		.4byte	.LASF147
 1511 09de 01       		.byte	0x1
 1512 09df 19       		.uleb128 0x19
 1513 09e0 9D070000 		.4byte	.LASF148
 1514 09e4 02       		.byte	0x2
 1515 09e5 19       		.uleb128 0x19
 1516 09e6 4B020000 		.4byte	.LASF149
 1517 09ea 03       		.byte	0x3
 1518 09eb 19       		.uleb128 0x19
 1519 09ec 43040000 		.4byte	.LASF150
 1520 09f0 04       		.byte	0x4
 1521 09f1 19       		.uleb128 0x19
 1522 09f2 D5060000 		.4byte	.LASF151
 1523 09f6 05       		.byte	0x5
 1524 09f7 00       		.byte	0
 1525 09f8 03       		.uleb128 0x3
 1526 09f9 7E050000 		.4byte	.LASF152
 1527 09fd 14       		.byte	0x14
 1528 09fe 5B       		.byte	0x5b
 1529 09ff C6090000 		.4byte	0x9c6
 1530 0a03 03       		.uleb128 0x3
 1531 0a04 A7070000 		.4byte	.LASF153
 1532 0a08 15       		.byte	0x15
 1533 0a09 38       		.byte	0x38
 1534 0a0a 0E0A0000 		.4byte	0xa0e
 1535 0a0e 07       		.uleb128 0x7
 1536 0a0f A7070000 		.4byte	.LASF153
 1537 0a13 40       		.byte	0x40
 1538 0a14 15       		.byte	0x15
 1539 0a15 62       		.byte	0x62
ARM GAS  /var/folders/3j/4xdnk5197cv_b7cw3n33qk7r0000gn/T//ccPcLZD6.s 			page 28


 1540 0a16 B70A0000 		.4byte	0xab7
 1541 0a1a 08       		.uleb128 0x8
 1542 0a1b FB010000 		.4byte	.LASF154
 1543 0a1f 15       		.byte	0x15
 1544 0a20 64       		.byte	0x64
 1545 0a21 F8090000 		.4byte	0x9f8
 1546 0a25 00       		.byte	0
 1547 0a26 08       		.uleb128 0x8
 1548 0a27 4D070000 		.4byte	.LASF155
 1549 0a2b 15       		.byte	0x15
 1550 0a2c 66       		.byte	0x66
 1551 0a2d F20A0000 		.4byte	0xaf2
 1552 0a31 04       		.byte	0x4
 1553 0a32 08       		.uleb128 0x8
 1554 0a33 3F030000 		.4byte	.LASF156
 1555 0a37 15       		.byte	0x15
 1556 0a38 68       		.byte	0x68
 1557 0a39 B70A0000 		.4byte	0xab7
 1558 0a3d 08       		.byte	0x8
 1559 0a3e 08       		.uleb128 0x8
 1560 0a3f CD000000 		.4byte	.LASF157
 1561 0a43 15       		.byte	0x15
 1562 0a44 6A       		.byte	0x6a
 1563 0a45 F80A0000 		.4byte	0xaf8
 1564 0a49 0C       		.byte	0xc
 1565 0a4a 08       		.uleb128 0x8
 1566 0a4b C6050000 		.4byte	.LASF158
 1567 0a4f 15       		.byte	0x15
 1568 0a50 6D       		.byte	0x6d
 1569 0a51 9F040000 		.4byte	0x49f
 1570 0a55 10       		.byte	0x10
 1571 0a56 08       		.uleb128 0x8
 1572 0a57 13020000 		.4byte	.LASF159
 1573 0a5b 15       		.byte	0x15
 1574 0a5c 77       		.byte	0x77
 1575 0a5d 62020000 		.4byte	0x262
 1576 0a61 20       		.byte	0x20
 1577 0a62 08       		.uleb128 0x8
 1578 0a63 2E010000 		.4byte	.LASF160
 1579 0a67 15       		.byte	0x15
 1580 0a68 7B       		.byte	0x7b
 1581 0a69 C20A0000 		.4byte	0xac2
 1582 0a6d 24       		.byte	0x24
 1583 0a6e 08       		.uleb128 0x8
 1584 0a6f A5050000 		.4byte	.LASF161
 1585 0a73 15       		.byte	0x15
 1586 0a74 7F       		.byte	0x7f
 1587 0a75 59070000 		.4byte	0x759
 1588 0a79 28       		.byte	0x28
 1589 0a7a 08       		.uleb128 0x8
 1590 0a7b 0A090000 		.4byte	.LASF162
 1591 0a7f 15       		.byte	0x15
 1592 0a80 83       		.byte	0x83
 1593 0a81 2C000000 		.4byte	0x2c
 1594 0a85 2C       		.byte	0x2c
 1595 0a86 08       		.uleb128 0x8
 1596 0a87 1E080000 		.4byte	.LASF163
ARM GAS  /var/folders/3j/4xdnk5197cv_b7cw3n33qk7r0000gn/T//ccPcLZD6.s 			page 29


 1597 0a8b 15       		.byte	0x15
 1598 0a8c 87       		.byte	0x87
 1599 0a8d 2C000000 		.4byte	0x2c
 1600 0a91 30       		.byte	0x30
 1601 0a92 08       		.uleb128 0x8
 1602 0a93 66000000 		.4byte	.LASF164
 1603 0a97 15       		.byte	0x15
 1604 0a98 8B       		.byte	0x8b
 1605 0a99 24070000 		.4byte	0x724
 1606 0a9d 34       		.byte	0x34
 1607 0a9e 08       		.uleb128 0x8
 1608 0a9f F4040000 		.4byte	.LASF165
 1609 0aa3 15       		.byte	0x15
 1610 0aa4 8F       		.byte	0x8f
 1611 0aa5 2C000000 		.4byte	0x2c
 1612 0aa9 38       		.byte	0x38
 1613 0aaa 08       		.uleb128 0x8
 1614 0aab 24020000 		.4byte	.LASF166
 1615 0aaf 15       		.byte	0x15
 1616 0ab0 93       		.byte	0x93
 1617 0ab1 2C000000 		.4byte	0x2c
 1618 0ab5 3C       		.byte	0x3c
 1619 0ab6 00       		.byte	0
 1620 0ab7 03       		.uleb128 0x3
 1621 0ab8 BB050000 		.4byte	.LASF167
 1622 0abc 15       		.byte	0x15
 1623 0abd 42       		.byte	0x42
 1624 0abe CD000000 		.4byte	0xcd
 1625 0ac2 03       		.uleb128 0x3
 1626 0ac3 F1010000 		.4byte	.LASF168
 1627 0ac7 15       		.byte	0x15
 1628 0ac8 48       		.byte	0x48
 1629 0ac9 B7000000 		.4byte	0xb7
 1630 0acd 0A       		.uleb128 0xa
 1631 0ace 04       		.byte	0x4
 1632 0acf 15       		.byte	0x15
 1633 0ad0 57       		.byte	0x57
 1634 0ad1 E20A0000 		.4byte	0xae2
 1635 0ad5 08       		.uleb128 0x8
 1636 0ad6 D7040000 		.4byte	.LASF169
 1637 0ada 15       		.byte	0x15
 1638 0adb 59       		.byte	0x59
 1639 0adc CD000000 		.4byte	0xcd
 1640 0ae0 00       		.byte	0
 1641 0ae1 00       		.byte	0
 1642 0ae2 03       		.uleb128 0x3
 1643 0ae3 0A080000 		.4byte	.LASF170
 1644 0ae7 15       		.byte	0x15
 1645 0ae8 5B       		.byte	0x5b
 1646 0ae9 CD0A0000 		.4byte	0xacd
 1647 0aed 06       		.uleb128 0x6
 1648 0aee E20A0000 		.4byte	0xae2
 1649 0af2 0B       		.uleb128 0xb
 1650 0af3 04       		.byte	0x4
 1651 0af4 ED0A0000 		.4byte	0xaed
 1652 0af8 0B       		.uleb128 0xb
 1653 0af9 04       		.byte	0x4
ARM GAS  /var/folders/3j/4xdnk5197cv_b7cw3n33qk7r0000gn/T//ccPcLZD6.s 			page 30


 1654 0afa 2C080000 		.4byte	0x82c
 1655 0afe 0F       		.uleb128 0xf
 1656 0aff F5020000 		.4byte	.LASF171
 1657 0b03 15       		.byte	0x15
 1658 0b04 A6       		.byte	0xa6
 1659 0b05 030A0000 		.4byte	0xa03
 1660 0b09 18       		.uleb128 0x18
 1661 0b0a 07       		.byte	0x7
 1662 0b0b 01       		.byte	0x1
 1663 0b0c 55000000 		.4byte	0x55
 1664 0b10 16       		.byte	0x16
 1665 0b11 5D       		.byte	0x5d
 1666 0b12 290B0000 		.4byte	0xb29
 1667 0b16 19       		.uleb128 0x19
 1668 0b17 EB060000 		.4byte	.LASF172
 1669 0b1b 00       		.byte	0
 1670 0b1c 19       		.uleb128 0x19
 1671 0b1d 1E010000 		.4byte	.LASF173
 1672 0b21 01       		.byte	0x1
 1673 0b22 19       		.uleb128 0x19
 1674 0b23 D9070000 		.4byte	.LASF174
 1675 0b27 02       		.byte	0x2
 1676 0b28 00       		.byte	0
 1677 0b29 03       		.uleb128 0x3
 1678 0b2a 14080000 		.4byte	.LASF175
 1679 0b2e 16       		.byte	0x16
 1680 0b2f 61       		.byte	0x61
 1681 0b30 090B0000 		.4byte	0xb09
 1682 0b34 03       		.uleb128 0x3
 1683 0b35 1F070000 		.4byte	.LASF176
 1684 0b39 16       		.byte	0x16
 1685 0b3a 66       		.byte	0x66
 1686 0b3b 3F0B0000 		.4byte	0xb3f
 1687 0b3f 07       		.uleb128 0x7
 1688 0b40 1F070000 		.4byte	.LASF176
 1689 0b44 74       		.byte	0x74
 1690 0b45 16       		.byte	0x16
 1691 0b46 80       		.byte	0x80
 1692 0b47 9E0B0000 		.4byte	0xb9e
 1693 0b4b 09       		.uleb128 0x9
 1694 0b4c 766D7400 		.ascii	"vmt\000"
 1695 0b50 16       		.byte	0x16
 1696 0b51 82       		.byte	0x82
 1697 0b52 1B0C0000 		.4byte	0xc1b
 1698 0b56 00       		.byte	0
 1699 0b57 08       		.uleb128 0x8
 1700 0b58 B0030000 		.4byte	.LASF177
 1701 0b5c 16       		.byte	0x16
 1702 0b5d 83       		.byte	0x83
 1703 0b5e 11050000 		.4byte	0x511
 1704 0b62 04       		.byte	0x4
 1705 0b63 08       		.uleb128 0x8
 1706 0b64 FB010000 		.4byte	.LASF154
 1707 0b68 16       		.byte	0x16
 1708 0b69 83       		.byte	0x83
 1709 0b6a 290B0000 		.4byte	0xb29
 1710 0b6e 08       		.byte	0x8
ARM GAS  /var/folders/3j/4xdnk5197cv_b7cw3n33qk7r0000gn/T//ccPcLZD6.s 			page 31


 1711 0b6f 08       		.uleb128 0x8
 1712 0b70 46030000 		.4byte	.LASF178
 1713 0b74 16       		.byte	0x16
 1714 0b75 83       		.byte	0x83
 1715 0b76 2A070000 		.4byte	0x72a
 1716 0b7a 0C       		.byte	0xc
 1717 0b7b 08       		.uleb128 0x8
 1718 0b7c 47050000 		.4byte	.LASF179
 1719 0b80 16       		.byte	0x16
 1720 0b81 83       		.byte	0x83
 1721 0b82 35070000 		.4byte	0x735
 1722 0b86 30       		.byte	0x30
 1723 0b87 09       		.uleb128 0x9
 1724 0b88 696200   		.ascii	"ib\000"
 1725 0b8b 16       		.byte	0x16
 1726 0b8c 83       		.byte	0x83
 1727 0b8d 210C0000 		.4byte	0xc21
 1728 0b91 54       		.byte	0x54
 1729 0b92 09       		.uleb128 0x9
 1730 0b93 6F6200   		.ascii	"ob\000"
 1731 0b96 16       		.byte	0x16
 1732 0b97 83       		.byte	0x83
 1733 0b98 210C0000 		.4byte	0xc21
 1734 0b9c 64       		.byte	0x64
 1735 0b9d 00       		.byte	0
 1736 0b9e 1A       		.uleb128 0x1a
 1737 0b9f 53443100 		.ascii	"SD1\000"
 1738 0ba3 19       		.byte	0x19
 1739 0ba4 62       		.byte	0x62
 1740 0ba5 340B0000 		.4byte	0xb34
 1741 0ba9 07       		.uleb128 0x7
 1742 0baa 2F030000 		.4byte	.LASF180
 1743 0bae 20       		.byte	0x20
 1744 0baf 16       		.byte	0x16
 1745 0bb0 75       		.byte	0x75
 1746 0bb1 160C0000 		.4byte	0xc16
 1747 0bb5 08       		.uleb128 0x8
 1748 0bb6 21000000 		.4byte	.LASF181
 1749 0bba 16       		.byte	0x16
 1750 0bbb 76       		.byte	0x76
 1751 0bbc 5F070000 		.4byte	0x75f
 1752 0bc0 00       		.byte	0
 1753 0bc1 08       		.uleb128 0x8
 1754 0bc2 36070000 		.4byte	.LASF182
 1755 0bc6 16       		.byte	0x16
 1756 0bc7 76       		.byte	0x76
 1757 0bc8 7E070000 		.4byte	0x77e
 1758 0bcc 04       		.byte	0x4
 1759 0bcd 09       		.uleb128 0x9
 1760 0bce 70757400 		.ascii	"put\000"
 1761 0bd2 16       		.byte	0x16
 1762 0bd3 76       		.byte	0x76
 1763 0bd4 98070000 		.4byte	0x798
 1764 0bd8 08       		.byte	0x8
 1765 0bd9 09       		.uleb128 0x9
 1766 0bda 67657400 		.ascii	"get\000"
 1767 0bde 16       		.byte	0x16
ARM GAS  /var/folders/3j/4xdnk5197cv_b7cw3n33qk7r0000gn/T//ccPcLZD6.s 			page 32


 1768 0bdf 76       		.byte	0x76
 1769 0be0 69050000 		.4byte	0x569
 1770 0be4 0C       		.byte	0xc
 1771 0be5 08       		.uleb128 0x8
 1772 0be6 83040000 		.4byte	.LASF183
 1773 0bea 16       		.byte	0x16
 1774 0beb 76       		.byte	0x76
 1775 0bec 5C080000 		.4byte	0x85c
 1776 0bf0 10       		.byte	0x10
 1777 0bf1 08       		.uleb128 0x8
 1778 0bf2 6F030000 		.4byte	.LASF184
 1779 0bf6 16       		.byte	0x16
 1780 0bf7 76       		.byte	0x76
 1781 0bf8 76080000 		.4byte	0x876
 1782 0bfc 14       		.byte	0x14
 1783 0bfd 08       		.uleb128 0x8
 1784 0bfe FE030000 		.4byte	.LASF185
 1785 0c02 16       		.byte	0x16
 1786 0c03 76       		.byte	0x76
 1787 0c04 9A080000 		.4byte	0x89a
 1788 0c08 18       		.byte	0x18
 1789 0c09 08       		.uleb128 0x8
 1790 0c0a C7000000 		.4byte	.LASF186
 1791 0c0e 16       		.byte	0x16
 1792 0c0f 76       		.byte	0x76
 1793 0c10 BE080000 		.4byte	0x8be
 1794 0c14 1C       		.byte	0x1c
 1795 0c15 00       		.byte	0
 1796 0c16 06       		.uleb128 0x6
 1797 0c17 A90B0000 		.4byte	0xba9
 1798 0c1b 0B       		.uleb128 0xb
 1799 0c1c 04       		.byte	0x4
 1800 0c1d 160C0000 		.4byte	0xc16
 1801 0c21 13       		.uleb128 0x13
 1802 0c22 A7000000 		.4byte	0xa7
 1803 0c26 310C0000 		.4byte	0xc31
 1804 0c2a 14       		.uleb128 0x14
 1805 0c2b 37000000 		.4byte	0x37
 1806 0c2f 0F       		.byte	0xf
 1807 0c30 00       		.byte	0
 1808 0c31 18       		.uleb128 0x18
 1809 0c32 07       		.byte	0x7
 1810 0c33 01       		.byte	0x1
 1811 0c34 55000000 		.4byte	0x55
 1812 0c38 17       		.byte	0x17
 1813 0c39 4E       		.byte	0x4e
 1814 0c3a 5D0C0000 		.4byte	0xc5d
 1815 0c3e 19       		.uleb128 0x19
 1816 0c3f EC070000 		.4byte	.LASF187
 1817 0c43 00       		.byte	0
 1818 0c44 19       		.uleb128 0x19
 1819 0c45 08010000 		.4byte	.LASF188
 1820 0c49 01       		.byte	0x1
 1821 0c4a 19       		.uleb128 0x19
 1822 0c4b E2070000 		.4byte	.LASF189
 1823 0c4f 02       		.byte	0x2
 1824 0c50 19       		.uleb128 0x19
ARM GAS  /var/folders/3j/4xdnk5197cv_b7cw3n33qk7r0000gn/T//ccPcLZD6.s 			page 33


 1825 0c51 3D000000 		.4byte	.LASF190
 1826 0c55 03       		.byte	0x3
 1827 0c56 19       		.uleb128 0x19
 1828 0c57 40070000 		.4byte	.LASF191
 1829 0c5b 04       		.byte	0x4
 1830 0c5c 00       		.byte	0
 1831 0c5d 03       		.uleb128 0x3
 1832 0c5e 6C070000 		.4byte	.LASF192
 1833 0c62 17       		.byte	0x17
 1834 0c63 54       		.byte	0x54
 1835 0c64 310C0000 		.4byte	0xc31
 1836 0c68 03       		.uleb128 0x3
 1837 0c69 A0000000 		.4byte	.LASF193
 1838 0c6d 18       		.byte	0x18
 1839 0c6e 35       		.byte	0x35
 1840 0c6f 730C0000 		.4byte	0xc73
 1841 0c73 07       		.uleb128 0x7
 1842 0c74 A0000000 		.4byte	.LASF193
 1843 0c78 28       		.byte	0x28
 1844 0c79 18       		.byte	0x18
 1845 0c7a 7C       		.byte	0x7c
 1846 0c7b D40C0000 		.4byte	0xcd4
 1847 0c7f 08       		.uleb128 0x8
 1848 0c80 FB010000 		.4byte	.LASF154
 1849 0c84 18       		.byte	0x18
 1850 0c85 80       		.byte	0x80
 1851 0c86 5D0C0000 		.4byte	0xc5d
 1852 0c8a 00       		.byte	0
 1853 0c8b 08       		.uleb128 0x8
 1854 0c8c 4D070000 		.4byte	.LASF155
 1855 0c90 18       		.byte	0x18
 1856 0c91 84       		.byte	0x84
 1857 0c92 7B0D0000 		.4byte	0xd7b
 1858 0c96 04       		.byte	0x4
 1859 0c97 08       		.uleb128 0x8
 1860 0c98 13020000 		.4byte	.LASF159
 1861 0c9c 18       		.byte	0x18
 1862 0c9d 89       		.byte	0x89
 1863 0c9e 62020000 		.4byte	0x262
 1864 0ca2 08       		.byte	0x8
 1865 0ca3 08       		.uleb128 0x8
 1866 0ca4 C6050000 		.4byte	.LASF158
 1867 0ca8 18       		.byte	0x18
 1868 0ca9 90       		.byte	0x90
 1869 0caa 9F040000 		.4byte	0x49f
 1870 0cae 0C       		.byte	0xc
 1871 0caf 08       		.uleb128 0x8
 1872 0cb0 66000000 		.4byte	.LASF164
 1873 0cb4 18       		.byte	0x18
 1874 0cb5 98       		.byte	0x98
 1875 0cb6 A9020000 		.4byte	0x2a9
 1876 0cba 1C       		.byte	0x1c
 1877 0cbb 08       		.uleb128 0x8
 1878 0cbc A5050000 		.4byte	.LASF161
 1879 0cc0 18       		.byte	0x18
 1880 0cc1 9D       		.byte	0x9d
 1881 0cc2 810D0000 		.4byte	0xd81
ARM GAS  /var/folders/3j/4xdnk5197cv_b7cw3n33qk7r0000gn/T//ccPcLZD6.s 			page 34


 1882 0cc6 20       		.byte	0x20
 1883 0cc7 08       		.uleb128 0x8
 1884 0cc8 84020000 		.4byte	.LASF194
 1885 0ccc 18       		.byte	0x18
 1886 0ccd A2       		.byte	0xa2
 1887 0cce 2C000000 		.4byte	0x2c
 1888 0cd2 24       		.byte	0x24
 1889 0cd3 00       		.byte	0
 1890 0cd4 03       		.uleb128 0x3
 1891 0cd5 E7020000 		.4byte	.LASF195
 1892 0cd9 18       		.byte	0x18
 1893 0cda 3D       		.byte	0x3d
 1894 0cdb DF0C0000 		.4byte	0xcdf
 1895 0cdf 0B       		.uleb128 0xb
 1896 0ce0 04       		.byte	0x4
 1897 0ce1 E50C0000 		.4byte	0xce5
 1898 0ce5 0D       		.uleb128 0xd
 1899 0ce6 F00C0000 		.4byte	0xcf0
 1900 0cea 0E       		.uleb128 0xe
 1901 0ceb F00C0000 		.4byte	0xcf0
 1902 0cef 00       		.byte	0
 1903 0cf0 0B       		.uleb128 0xb
 1904 0cf1 04       		.byte	0x4
 1905 0cf2 680C0000 		.4byte	0xc68
 1906 0cf6 0A       		.uleb128 0xa
 1907 0cf7 10       		.byte	0x10
 1908 0cf8 18       		.byte	0x18
 1909 0cf9 44       		.byte	0x44
 1910 0cfa 6B0D0000 		.4byte	0xd6b
 1911 0cfe 08       		.uleb128 0x8
 1912 0cff 7D020000 		.4byte	.LASF196
 1913 0d03 18       		.byte	0x18
 1914 0d04 48       		.byte	0x48
 1915 0d05 D40C0000 		.4byte	0xcd4
 1916 0d09 00       		.byte	0
 1917 0d0a 08       		.uleb128 0x8
 1918 0d0b 5D050000 		.4byte	.LASF197
 1919 0d0f 18       		.byte	0x18
 1920 0d10 4F       		.byte	0x4f
 1921 0d11 A7000000 		.4byte	0xa7
 1922 0d15 04       		.byte	0x4
 1923 0d16 08       		.uleb128 0x8
 1924 0d17 6A050000 		.4byte	.LASF198
 1925 0d1b 18       		.byte	0x18
 1926 0d1c 52       		.byte	0x52
 1927 0d1d A7000000 		.4byte	0xa7
 1928 0d21 05       		.byte	0x5
 1929 0d22 08       		.uleb128 0x8
 1930 0d23 9B030000 		.4byte	.LASF199
 1931 0d27 18       		.byte	0x18
 1932 0d28 58       		.byte	0x58
 1933 0d29 A7000000 		.4byte	0xa7
 1934 0d2d 06       		.byte	0x6
 1935 0d2e 08       		.uleb128 0x8
 1936 0d2f 8A020000 		.4byte	.LASF200
 1937 0d33 18       		.byte	0x18
 1938 0d34 5E       		.byte	0x5e
ARM GAS  /var/folders/3j/4xdnk5197cv_b7cw3n33qk7r0000gn/T//ccPcLZD6.s 			page 35


 1939 0d35 A7000000 		.4byte	0xa7
 1940 0d39 07       		.byte	0x7
 1941 0d3a 08       		.uleb128 0x8
 1942 0d3b A0020000 		.4byte	.LASF201
 1943 0d3f 18       		.byte	0x18
 1944 0d40 64       		.byte	0x64
 1945 0d41 A7000000 		.4byte	0xa7
 1946 0d45 08       		.byte	0x8
 1947 0d46 08       		.uleb128 0x8
 1948 0d47 B8070000 		.4byte	.LASF202
 1949 0d4b 18       		.byte	0x18
 1950 0d4c 6A       		.byte	0x6a
 1951 0d4d A7000000 		.4byte	0xa7
 1952 0d51 09       		.byte	0x9
 1953 0d52 08       		.uleb128 0x8
 1954 0d53 59020000 		.4byte	.LASF203
 1955 0d57 18       		.byte	0x18
 1956 0d58 70       		.byte	0x70
 1957 0d59 A7000000 		.4byte	0xa7
 1958 0d5d 0A       		.byte	0xa
 1959 0d5e 08       		.uleb128 0x8
 1960 0d5f BA060000 		.4byte	.LASF204
 1961 0d63 18       		.byte	0x18
 1962 0d64 73       		.byte	0x73
 1963 0d65 CD000000 		.4byte	0xcd
 1964 0d69 0C       		.byte	0xc
 1965 0d6a 00       		.byte	0
 1966 0d6b 03       		.uleb128 0x3
 1967 0d6c 93080000 		.4byte	.LASF205
 1968 0d70 18       		.byte	0x18
 1969 0d71 75       		.byte	0x75
 1970 0d72 F60C0000 		.4byte	0xcf6
 1971 0d76 06       		.uleb128 0x6
 1972 0d77 6B0D0000 		.4byte	0xd6b
 1973 0d7b 0B       		.uleb128 0xb
 1974 0d7c 04       		.byte	0x4
 1975 0d7d 760D0000 		.4byte	0xd76
 1976 0d81 0B       		.uleb128 0xb
 1977 0d82 04       		.byte	0x4
 1978 0d83 870D0000 		.4byte	0xd87
 1979 0d87 1B       		.uleb128 0x1b
 1980 0d88 0F       		.uleb128 0xf
 1981 0d89 3C020000 		.4byte	.LASF206
 1982 0d8d 18       		.byte	0x18
 1983 0d8e B6       		.byte	0xb6
 1984 0d8f 680C0000 		.4byte	0xc68
 1985 0d93 1C       		.uleb128 0x1c
 1986 0d94 A6040000 		.4byte	.LASF207
 1987 0d98 01       		.byte	0x1
 1988 0d99 31       		.byte	0x31
 1989 0d9a 38080000 		.4byte	0x838
 1990 0d9e 05       		.uleb128 0x5
 1991 0d9f 03       		.byte	0x3
 1992 0da0 00000000 		.4byte	measurement_offset
 1993 0da4 1D       		.uleb128 0x1d
 1994 0da5 0D040000 		.4byte	.LASF211
 1995 0da9 01       		.byte	0x1
ARM GAS  /var/folders/3j/4xdnk5197cv_b7cw3n33qk7r0000gn/T//ccPcLZD6.s 			page 36


 1996 0daa 75       		.byte	0x75
 1997 0dab 01       		.byte	0x1
 1998 0dac BC0D0000 		.4byte	0xdbc
 1999 0db0 1E       		.uleb128 0x1e
 2000 0db1 746D7000 		.ascii	"tmp\000"
 2001 0db5 01       		.byte	0x1
 2002 0db6 75       		.byte	0x75
 2003 0db7 23090000 		.4byte	0x923
 2004 0dbb 00       		.byte	0
 2005 0dbc 1F       		.uleb128 0x1f
 2006 0dbd 68030000 		.4byte	.LASF212
 2007 0dc1 01       		.byte	0x1
 2008 0dc2 61       		.byte	0x61
 2009 0dc3 00000000 		.4byte	.LFB9
 2010 0dc7 64000000 		.4byte	.LFE9-.LFB9
 2011 0dcb 01       		.uleb128 0x1
 2012 0dcc 9C       		.byte	0x9c
 2013 0dcd 290E0000 		.4byte	0xe29
 2014 0dd1 20       		.uleb128 0x20
 2015 0dd2 746D00   		.ascii	"tm\000"
 2016 0dd5 01       		.byte	0x1
 2017 0dd6 62       		.byte	0x62
 2018 0dd7 C4080000 		.4byte	0x8c4
 2019 0ddb 02       		.uleb128 0x2
 2020 0ddc 91       		.byte	0x91
 2021 0ddd 64       		.sleb128 -28
 2022 0dde 21       		.uleb128 0x21
 2023 0ddf A40D0000 		.4byte	0xda4
 2024 0de3 04000000 		.4byte	.LBB8
 2025 0de7 00000000 		.4byte	.Ldebug_ranges0+0
 2026 0deb 01       		.byte	0x1
 2027 0dec 68       		.byte	0x68
 2028 0ded FB0D0000 		.4byte	0xdfb
 2029 0df1 22       		.uleb128 0x22
 2030 0df2 B00D0000 		.4byte	0xdb0
 2031 0df6 00000000 		.4byte	.LLST1
 2032 0dfa 00       		.byte	0
 2033 0dfb 21       		.uleb128 0x21
 2034 0dfc 5B0E0000 		.4byte	0xe5b
 2035 0e00 14000000 		.4byte	.LBB14
 2036 0e04 30000000 		.4byte	.Ldebug_ranges0+0x30
 2037 0e08 01       		.byte	0x1
 2038 0e09 69       		.byte	0x69
 2039 0e0a 180E0000 		.4byte	0xe18
 2040 0e0e 22       		.uleb128 0x22
 2041 0e0f 670E0000 		.4byte	0xe67
 2042 0e13 15000000 		.4byte	.LLST2
 2043 0e17 00       		.byte	0
 2044 0e18 23       		.uleb128 0x23
 2045 0e19 44000000 		.4byte	.LVL8
 2046 0e1d 290E0000 		.4byte	0xe29
 2047 0e21 24       		.uleb128 0x24
 2048 0e22 01       		.uleb128 0x1
 2049 0e23 50       		.byte	0x50
 2050 0e24 02       		.uleb128 0x2
 2051 0e25 70       		.byte	0x70
 2052 0e26 00       		.sleb128 0
ARM GAS  /var/folders/3j/4xdnk5197cv_b7cw3n33qk7r0000gn/T//ccPcLZD6.s 			page 37


 2053 0e27 00       		.byte	0
 2054 0e28 00       		.byte	0
 2055 0e29 25       		.uleb128 0x25
 2056 0e2a 5F070000 		.4byte	.LASF213
 2057 0e2e 01       		.byte	0x1
 2058 0e2f 4A       		.byte	0x4a
 2059 0e30 00000000 		.4byte	.LFB8
 2060 0e34 4C000000 		.4byte	.LFE8-.LFB8
 2061 0e38 01       		.uleb128 0x1
 2062 0e39 9C       		.byte	0x9c
 2063 0e3a 5B0E0000 		.4byte	0xe5b
 2064 0e3e 26       		.uleb128 0x26
 2065 0e3f 746D7000 		.ascii	"tmp\000"
 2066 0e43 01       		.byte	0x1
 2067 0e44 4A       		.byte	0x4a
 2068 0e45 23090000 		.4byte	0x923
 2069 0e49 01       		.uleb128 0x1
 2070 0e4a 50       		.byte	0x50
 2071 0e4b 27       		.uleb128 0x27
 2072 0e4c 6E6F7700 		.ascii	"now\000"
 2073 0e50 01       		.byte	0x1
 2074 0e51 4C       		.byte	0x4c
 2075 0e52 38080000 		.4byte	0x838
 2076 0e56 35000000 		.4byte	.LLST0
 2077 0e5a 00       		.byte	0
 2078 0e5b 28       		.uleb128 0x28
 2079 0e5c DE080000 		.4byte	.LASF214
 2080 0e60 01       		.byte	0x1
 2081 0e61 3E       		.byte	0x3e
 2082 0e62 01       		.byte	0x1
 2083 0e63 730E0000 		.4byte	0xe73
 2084 0e67 1E       		.uleb128 0x1e
 2085 0e68 746D7000 		.ascii	"tmp\000"
 2086 0e6c 01       		.byte	0x1
 2087 0e6d 3E       		.byte	0x3e
 2088 0e6e 23090000 		.4byte	0x923
 2089 0e72 00       		.byte	0
 2090 0e73 29       		.uleb128 0x29
 2091 0e74 5B0E0000 		.4byte	0xe5b
 2092 0e78 00000000 		.4byte	.LFB7
 2093 0e7c 14000000 		.4byte	.LFE7-.LFB7
 2094 0e80 01       		.uleb128 0x1
 2095 0e81 9C       		.byte	0x9c
 2096 0e82 8E0E0000 		.4byte	0xe8e
 2097 0e86 2A       		.uleb128 0x2a
 2098 0e87 670E0000 		.4byte	0xe67
 2099 0e8b 01       		.uleb128 0x1
 2100 0e8c 50       		.byte	0x50
 2101 0e8d 00       		.byte	0
 2102 0e8e 2B       		.uleb128 0x2b
 2103 0e8f A40D0000 		.4byte	0xda4
 2104 0e93 00000000 		.4byte	.LFB10
 2105 0e97 30000000 		.4byte	.LFE10-.LFB10
 2106 0e9b 01       		.uleb128 0x1
 2107 0e9c 9C       		.byte	0x9c
 2108 0e9d 2A       		.uleb128 0x2a
 2109 0e9e B00D0000 		.4byte	0xdb0
ARM GAS  /var/folders/3j/4xdnk5197cv_b7cw3n33qk7r0000gn/T//ccPcLZD6.s 			page 38


 2110 0ea2 01       		.uleb128 0x1
 2111 0ea3 50       		.byte	0x50
 2112 0ea4 00       		.byte	0
 2113 0ea5 00       		.byte	0
 2114              		.section	.debug_abbrev,"",%progbits
 2115              	.Ldebug_abbrev0:
 2116 0000 01       		.uleb128 0x1
 2117 0001 11       		.uleb128 0x11
 2118 0002 01       		.byte	0x1
 2119 0003 25       		.uleb128 0x25
 2120 0004 0E       		.uleb128 0xe
 2121 0005 13       		.uleb128 0x13
 2122 0006 0B       		.uleb128 0xb
 2123 0007 03       		.uleb128 0x3
 2124 0008 0E       		.uleb128 0xe
 2125 0009 1B       		.uleb128 0x1b
 2126 000a 0E       		.uleb128 0xe
 2127 000b 55       		.uleb128 0x55
 2128 000c 17       		.uleb128 0x17
 2129 000d 11       		.uleb128 0x11
 2130 000e 01       		.uleb128 0x1
 2131 000f 10       		.uleb128 0x10
 2132 0010 17       		.uleb128 0x17
 2133 0011 00       		.byte	0
 2134 0012 00       		.byte	0
 2135 0013 02       		.uleb128 0x2
 2136 0014 24       		.uleb128 0x24
 2137 0015 00       		.byte	0
 2138 0016 0B       		.uleb128 0xb
 2139 0017 0B       		.uleb128 0xb
 2140 0018 3E       		.uleb128 0x3e
 2141 0019 0B       		.uleb128 0xb
 2142 001a 03       		.uleb128 0x3
 2143 001b 08       		.uleb128 0x8
 2144 001c 00       		.byte	0
 2145 001d 00       		.byte	0
 2146 001e 03       		.uleb128 0x3
 2147 001f 16       		.uleb128 0x16
 2148 0020 00       		.byte	0
 2149 0021 03       		.uleb128 0x3
 2150 0022 0E       		.uleb128 0xe
 2151 0023 3A       		.uleb128 0x3a
 2152 0024 0B       		.uleb128 0xb
 2153 0025 3B       		.uleb128 0x3b
 2154 0026 0B       		.uleb128 0xb
 2155 0027 49       		.uleb128 0x49
 2156 0028 13       		.uleb128 0x13
 2157 0029 00       		.byte	0
 2158 002a 00       		.byte	0
 2159 002b 04       		.uleb128 0x4
 2160 002c 24       		.uleb128 0x24
 2161 002d 00       		.byte	0
 2162 002e 0B       		.uleb128 0xb
 2163 002f 0B       		.uleb128 0xb
 2164 0030 3E       		.uleb128 0x3e
 2165 0031 0B       		.uleb128 0xb
 2166 0032 03       		.uleb128 0x3
ARM GAS  /var/folders/3j/4xdnk5197cv_b7cw3n33qk7r0000gn/T//ccPcLZD6.s 			page 39


 2167 0033 0E       		.uleb128 0xe
 2168 0034 00       		.byte	0
 2169 0035 00       		.byte	0
 2170 0036 05       		.uleb128 0x5
 2171 0037 35       		.uleb128 0x35
 2172 0038 00       		.byte	0
 2173 0039 49       		.uleb128 0x49
 2174 003a 13       		.uleb128 0x13
 2175 003b 00       		.byte	0
 2176 003c 00       		.byte	0
 2177 003d 06       		.uleb128 0x6
 2178 003e 26       		.uleb128 0x26
 2179 003f 00       		.byte	0
 2180 0040 49       		.uleb128 0x49
 2181 0041 13       		.uleb128 0x13
 2182 0042 00       		.byte	0
 2183 0043 00       		.byte	0
 2184 0044 07       		.uleb128 0x7
 2185 0045 13       		.uleb128 0x13
 2186 0046 01       		.byte	0x1
 2187 0047 03       		.uleb128 0x3
 2188 0048 0E       		.uleb128 0xe
 2189 0049 0B       		.uleb128 0xb
 2190 004a 0B       		.uleb128 0xb
 2191 004b 3A       		.uleb128 0x3a
 2192 004c 0B       		.uleb128 0xb
 2193 004d 3B       		.uleb128 0x3b
 2194 004e 0B       		.uleb128 0xb
 2195 004f 01       		.uleb128 0x1
 2196 0050 13       		.uleb128 0x13
 2197 0051 00       		.byte	0
 2198 0052 00       		.byte	0
 2199 0053 08       		.uleb128 0x8
 2200 0054 0D       		.uleb128 0xd
 2201 0055 00       		.byte	0
 2202 0056 03       		.uleb128 0x3
 2203 0057 0E       		.uleb128 0xe
 2204 0058 3A       		.uleb128 0x3a
 2205 0059 0B       		.uleb128 0xb
 2206 005a 3B       		.uleb128 0x3b
 2207 005b 0B       		.uleb128 0xb
 2208 005c 49       		.uleb128 0x49
 2209 005d 13       		.uleb128 0x13
 2210 005e 38       		.uleb128 0x38
 2211 005f 0B       		.uleb128 0xb
 2212 0060 00       		.byte	0
 2213 0061 00       		.byte	0
 2214 0062 09       		.uleb128 0x9
 2215 0063 0D       		.uleb128 0xd
 2216 0064 00       		.byte	0
 2217 0065 03       		.uleb128 0x3
 2218 0066 08       		.uleb128 0x8
 2219 0067 3A       		.uleb128 0x3a
 2220 0068 0B       		.uleb128 0xb
 2221 0069 3B       		.uleb128 0x3b
 2222 006a 0B       		.uleb128 0xb
 2223 006b 49       		.uleb128 0x49
ARM GAS  /var/folders/3j/4xdnk5197cv_b7cw3n33qk7r0000gn/T//ccPcLZD6.s 			page 40


 2224 006c 13       		.uleb128 0x13
 2225 006d 38       		.uleb128 0x38
 2226 006e 0B       		.uleb128 0xb
 2227 006f 00       		.byte	0
 2228 0070 00       		.byte	0
 2229 0071 0A       		.uleb128 0xa
 2230 0072 13       		.uleb128 0x13
 2231 0073 01       		.byte	0x1
 2232 0074 0B       		.uleb128 0xb
 2233 0075 0B       		.uleb128 0xb
 2234 0076 3A       		.uleb128 0x3a
 2235 0077 0B       		.uleb128 0xb
 2236 0078 3B       		.uleb128 0x3b
 2237 0079 0B       		.uleb128 0xb
 2238 007a 01       		.uleb128 0x1
 2239 007b 13       		.uleb128 0x13
 2240 007c 00       		.byte	0
 2241 007d 00       		.byte	0
 2242 007e 0B       		.uleb128 0xb
 2243 007f 0F       		.uleb128 0xf
 2244 0080 00       		.byte	0
 2245 0081 0B       		.uleb128 0xb
 2246 0082 0B       		.uleb128 0xb
 2247 0083 49       		.uleb128 0x49
 2248 0084 13       		.uleb128 0x13
 2249 0085 00       		.byte	0
 2250 0086 00       		.byte	0
 2251 0087 0C       		.uleb128 0xc
 2252 0088 0F       		.uleb128 0xf
 2253 0089 00       		.byte	0
 2254 008a 0B       		.uleb128 0xb
 2255 008b 0B       		.uleb128 0xb
 2256 008c 00       		.byte	0
 2257 008d 00       		.byte	0
 2258 008e 0D       		.uleb128 0xd
 2259 008f 15       		.uleb128 0x15
 2260 0090 01       		.byte	0x1
 2261 0091 27       		.uleb128 0x27
 2262 0092 19       		.uleb128 0x19
 2263 0093 01       		.uleb128 0x1
 2264 0094 13       		.uleb128 0x13
 2265 0095 00       		.byte	0
 2266 0096 00       		.byte	0
 2267 0097 0E       		.uleb128 0xe
 2268 0098 05       		.uleb128 0x5
 2269 0099 00       		.byte	0
 2270 009a 49       		.uleb128 0x49
 2271 009b 13       		.uleb128 0x13
 2272 009c 00       		.byte	0
 2273 009d 00       		.byte	0
 2274 009e 0F       		.uleb128 0xf
 2275 009f 34       		.uleb128 0x34
 2276 00a0 00       		.byte	0
 2277 00a1 03       		.uleb128 0x3
 2278 00a2 0E       		.uleb128 0xe
 2279 00a3 3A       		.uleb128 0x3a
 2280 00a4 0B       		.uleb128 0xb
ARM GAS  /var/folders/3j/4xdnk5197cv_b7cw3n33qk7r0000gn/T//ccPcLZD6.s 			page 41


 2281 00a5 3B       		.uleb128 0x3b
 2282 00a6 0B       		.uleb128 0xb
 2283 00a7 49       		.uleb128 0x49
 2284 00a8 13       		.uleb128 0x13
 2285 00a9 3F       		.uleb128 0x3f
 2286 00aa 19       		.uleb128 0x19
 2287 00ab 3C       		.uleb128 0x3c
 2288 00ac 19       		.uleb128 0x19
 2289 00ad 00       		.byte	0
 2290 00ae 00       		.byte	0
 2291 00af 10       		.uleb128 0x10
 2292 00b0 17       		.uleb128 0x17
 2293 00b1 01       		.byte	0x1
 2294 00b2 0B       		.uleb128 0xb
 2295 00b3 0B       		.uleb128 0xb
 2296 00b4 3A       		.uleb128 0x3a
 2297 00b5 0B       		.uleb128 0xb
 2298 00b6 3B       		.uleb128 0x3b
 2299 00b7 0B       		.uleb128 0xb
 2300 00b8 01       		.uleb128 0x1
 2301 00b9 13       		.uleb128 0x13
 2302 00ba 00       		.byte	0
 2303 00bb 00       		.byte	0
 2304 00bc 11       		.uleb128 0x11
 2305 00bd 0D       		.uleb128 0xd
 2306 00be 00       		.byte	0
 2307 00bf 03       		.uleb128 0x3
 2308 00c0 0E       		.uleb128 0xe
 2309 00c1 3A       		.uleb128 0x3a
 2310 00c2 0B       		.uleb128 0xb
 2311 00c3 3B       		.uleb128 0x3b
 2312 00c4 0B       		.uleb128 0xb
 2313 00c5 49       		.uleb128 0x49
 2314 00c6 13       		.uleb128 0x13
 2315 00c7 00       		.byte	0
 2316 00c8 00       		.byte	0
 2317 00c9 12       		.uleb128 0x12
 2318 00ca 15       		.uleb128 0x15
 2319 00cb 01       		.byte	0x1
 2320 00cc 27       		.uleb128 0x27
 2321 00cd 19       		.uleb128 0x19
 2322 00ce 49       		.uleb128 0x49
 2323 00cf 13       		.uleb128 0x13
 2324 00d0 01       		.uleb128 0x1
 2325 00d1 13       		.uleb128 0x13
 2326 00d2 00       		.byte	0
 2327 00d3 00       		.byte	0
 2328 00d4 13       		.uleb128 0x13
 2329 00d5 01       		.uleb128 0x1
 2330 00d6 01       		.byte	0x1
 2331 00d7 49       		.uleb128 0x49
 2332 00d8 13       		.uleb128 0x13
 2333 00d9 01       		.uleb128 0x1
 2334 00da 13       		.uleb128 0x13
 2335 00db 00       		.byte	0
 2336 00dc 00       		.byte	0
 2337 00dd 14       		.uleb128 0x14
ARM GAS  /var/folders/3j/4xdnk5197cv_b7cw3n33qk7r0000gn/T//ccPcLZD6.s 			page 42


 2338 00de 21       		.uleb128 0x21
 2339 00df 00       		.byte	0
 2340 00e0 49       		.uleb128 0x49
 2341 00e1 13       		.uleb128 0x13
 2342 00e2 2F       		.uleb128 0x2f
 2343 00e3 0B       		.uleb128 0xb
 2344 00e4 00       		.byte	0
 2345 00e5 00       		.byte	0
 2346 00e6 15       		.uleb128 0x15
 2347 00e7 0D       		.uleb128 0xd
 2348 00e8 00       		.byte	0
 2349 00e9 03       		.uleb128 0x3
 2350 00ea 0E       		.uleb128 0xe
 2351 00eb 3A       		.uleb128 0x3a
 2352 00ec 0B       		.uleb128 0xb
 2353 00ed 3B       		.uleb128 0x3b
 2354 00ee 05       		.uleb128 0x5
 2355 00ef 49       		.uleb128 0x49
 2356 00f0 13       		.uleb128 0x13
 2357 00f1 38       		.uleb128 0x38
 2358 00f2 0B       		.uleb128 0xb
 2359 00f3 00       		.byte	0
 2360 00f4 00       		.byte	0
 2361 00f5 16       		.uleb128 0x16
 2362 00f6 16       		.uleb128 0x16
 2363 00f7 00       		.byte	0
 2364 00f8 03       		.uleb128 0x3
 2365 00f9 0E       		.uleb128 0xe
 2366 00fa 3A       		.uleb128 0x3a
 2367 00fb 0B       		.uleb128 0xb
 2368 00fc 3B       		.uleb128 0x3b
 2369 00fd 05       		.uleb128 0x5
 2370 00fe 49       		.uleb128 0x49
 2371 00ff 13       		.uleb128 0x13
 2372 0100 00       		.byte	0
 2373 0101 00       		.byte	0
 2374 0102 17       		.uleb128 0x17
 2375 0103 13       		.uleb128 0x13
 2376 0104 00       		.byte	0
 2377 0105 0B       		.uleb128 0xb
 2378 0106 0B       		.uleb128 0xb
 2379 0107 3A       		.uleb128 0x3a
 2380 0108 0B       		.uleb128 0xb
 2381 0109 3B       		.uleb128 0x3b
 2382 010a 0B       		.uleb128 0xb
 2383 010b 00       		.byte	0
 2384 010c 00       		.byte	0
 2385 010d 18       		.uleb128 0x18
 2386 010e 04       		.uleb128 0x4
 2387 010f 01       		.byte	0x1
 2388 0110 3E       		.uleb128 0x3e
 2389 0111 0B       		.uleb128 0xb
 2390 0112 0B       		.uleb128 0xb
 2391 0113 0B       		.uleb128 0xb
 2392 0114 49       		.uleb128 0x49
 2393 0115 13       		.uleb128 0x13
 2394 0116 3A       		.uleb128 0x3a
ARM GAS  /var/folders/3j/4xdnk5197cv_b7cw3n33qk7r0000gn/T//ccPcLZD6.s 			page 43


 2395 0117 0B       		.uleb128 0xb
 2396 0118 3B       		.uleb128 0x3b
 2397 0119 0B       		.uleb128 0xb
 2398 011a 01       		.uleb128 0x1
 2399 011b 13       		.uleb128 0x13
 2400 011c 00       		.byte	0
 2401 011d 00       		.byte	0
 2402 011e 19       		.uleb128 0x19
 2403 011f 28       		.uleb128 0x28
 2404 0120 00       		.byte	0
 2405 0121 03       		.uleb128 0x3
 2406 0122 0E       		.uleb128 0xe
 2407 0123 1C       		.uleb128 0x1c
 2408 0124 0B       		.uleb128 0xb
 2409 0125 00       		.byte	0
 2410 0126 00       		.byte	0
 2411 0127 1A       		.uleb128 0x1a
 2412 0128 34       		.uleb128 0x34
 2413 0129 00       		.byte	0
 2414 012a 03       		.uleb128 0x3
 2415 012b 08       		.uleb128 0x8
 2416 012c 3A       		.uleb128 0x3a
 2417 012d 0B       		.uleb128 0xb
 2418 012e 3B       		.uleb128 0x3b
 2419 012f 0B       		.uleb128 0xb
 2420 0130 49       		.uleb128 0x49
 2421 0131 13       		.uleb128 0x13
 2422 0132 3F       		.uleb128 0x3f
 2423 0133 19       		.uleb128 0x19
 2424 0134 3C       		.uleb128 0x3c
 2425 0135 19       		.uleb128 0x19
 2426 0136 00       		.byte	0
 2427 0137 00       		.byte	0
 2428 0138 1B       		.uleb128 0x1b
 2429 0139 26       		.uleb128 0x26
 2430 013a 00       		.byte	0
 2431 013b 00       		.byte	0
 2432 013c 00       		.byte	0
 2433 013d 1C       		.uleb128 0x1c
 2434 013e 34       		.uleb128 0x34
 2435 013f 00       		.byte	0
 2436 0140 03       		.uleb128 0x3
 2437 0141 0E       		.uleb128 0xe
 2438 0142 3A       		.uleb128 0x3a
 2439 0143 0B       		.uleb128 0xb
 2440 0144 3B       		.uleb128 0x3b
 2441 0145 0B       		.uleb128 0xb
 2442 0146 49       		.uleb128 0x49
 2443 0147 13       		.uleb128 0x13
 2444 0148 02       		.uleb128 0x2
 2445 0149 18       		.uleb128 0x18
 2446 014a 00       		.byte	0
 2447 014b 00       		.byte	0
 2448 014c 1D       		.uleb128 0x1d
 2449 014d 2E       		.uleb128 0x2e
 2450 014e 01       		.byte	0x1
 2451 014f 3F       		.uleb128 0x3f
ARM GAS  /var/folders/3j/4xdnk5197cv_b7cw3n33qk7r0000gn/T//ccPcLZD6.s 			page 44


 2452 0150 19       		.uleb128 0x19
 2453 0151 03       		.uleb128 0x3
 2454 0152 0E       		.uleb128 0xe
 2455 0153 3A       		.uleb128 0x3a
 2456 0154 0B       		.uleb128 0xb
 2457 0155 3B       		.uleb128 0x3b
 2458 0156 0B       		.uleb128 0xb
 2459 0157 27       		.uleb128 0x27
 2460 0158 19       		.uleb128 0x19
 2461 0159 20       		.uleb128 0x20
 2462 015a 0B       		.uleb128 0xb
 2463 015b 01       		.uleb128 0x1
 2464 015c 13       		.uleb128 0x13
 2465 015d 00       		.byte	0
 2466 015e 00       		.byte	0
 2467 015f 1E       		.uleb128 0x1e
 2468 0160 05       		.uleb128 0x5
 2469 0161 00       		.byte	0
 2470 0162 03       		.uleb128 0x3
 2471 0163 08       		.uleb128 0x8
 2472 0164 3A       		.uleb128 0x3a
 2473 0165 0B       		.uleb128 0xb
 2474 0166 3B       		.uleb128 0x3b
 2475 0167 0B       		.uleb128 0xb
 2476 0168 49       		.uleb128 0x49
 2477 0169 13       		.uleb128 0x13
 2478 016a 00       		.byte	0
 2479 016b 00       		.byte	0
 2480 016c 1F       		.uleb128 0x1f
 2481 016d 2E       		.uleb128 0x2e
 2482 016e 01       		.byte	0x1
 2483 016f 3F       		.uleb128 0x3f
 2484 0170 19       		.uleb128 0x19
 2485 0171 03       		.uleb128 0x3
 2486 0172 0E       		.uleb128 0xe
 2487 0173 3A       		.uleb128 0x3a
 2488 0174 0B       		.uleb128 0xb
 2489 0175 3B       		.uleb128 0x3b
 2490 0176 0B       		.uleb128 0xb
 2491 0177 27       		.uleb128 0x27
 2492 0178 19       		.uleb128 0x19
 2493 0179 11       		.uleb128 0x11
 2494 017a 01       		.uleb128 0x1
 2495 017b 12       		.uleb128 0x12
 2496 017c 06       		.uleb128 0x6
 2497 017d 40       		.uleb128 0x40
 2498 017e 18       		.uleb128 0x18
 2499 017f 9742     		.uleb128 0x2117
 2500 0181 19       		.uleb128 0x19
 2501 0182 01       		.uleb128 0x1
 2502 0183 13       		.uleb128 0x13
 2503 0184 00       		.byte	0
 2504 0185 00       		.byte	0
 2505 0186 20       		.uleb128 0x20
 2506 0187 34       		.uleb128 0x34
 2507 0188 00       		.byte	0
 2508 0189 03       		.uleb128 0x3
ARM GAS  /var/folders/3j/4xdnk5197cv_b7cw3n33qk7r0000gn/T//ccPcLZD6.s 			page 45


 2509 018a 08       		.uleb128 0x8
 2510 018b 3A       		.uleb128 0x3a
 2511 018c 0B       		.uleb128 0xb
 2512 018d 3B       		.uleb128 0x3b
 2513 018e 0B       		.uleb128 0xb
 2514 018f 49       		.uleb128 0x49
 2515 0190 13       		.uleb128 0x13
 2516 0191 02       		.uleb128 0x2
 2517 0192 18       		.uleb128 0x18
 2518 0193 00       		.byte	0
 2519 0194 00       		.byte	0
 2520 0195 21       		.uleb128 0x21
 2521 0196 1D       		.uleb128 0x1d
 2522 0197 01       		.byte	0x1
 2523 0198 31       		.uleb128 0x31
 2524 0199 13       		.uleb128 0x13
 2525 019a 52       		.uleb128 0x52
 2526 019b 01       		.uleb128 0x1
 2527 019c 55       		.uleb128 0x55
 2528 019d 17       		.uleb128 0x17
 2529 019e 58       		.uleb128 0x58
 2530 019f 0B       		.uleb128 0xb
 2531 01a0 59       		.uleb128 0x59
 2532 01a1 0B       		.uleb128 0xb
 2533 01a2 01       		.uleb128 0x1
 2534 01a3 13       		.uleb128 0x13
 2535 01a4 00       		.byte	0
 2536 01a5 00       		.byte	0
 2537 01a6 22       		.uleb128 0x22
 2538 01a7 05       		.uleb128 0x5
 2539 01a8 00       		.byte	0
 2540 01a9 31       		.uleb128 0x31
 2541 01aa 13       		.uleb128 0x13
 2542 01ab 02       		.uleb128 0x2
 2543 01ac 17       		.uleb128 0x17
 2544 01ad 00       		.byte	0
 2545 01ae 00       		.byte	0
 2546 01af 23       		.uleb128 0x23
 2547 01b0 898201   		.uleb128 0x4109
 2548 01b3 01       		.byte	0x1
 2549 01b4 11       		.uleb128 0x11
 2550 01b5 01       		.uleb128 0x1
 2551 01b6 31       		.uleb128 0x31
 2552 01b7 13       		.uleb128 0x13
 2553 01b8 00       		.byte	0
 2554 01b9 00       		.byte	0
 2555 01ba 24       		.uleb128 0x24
 2556 01bb 8A8201   		.uleb128 0x410a
 2557 01be 00       		.byte	0
 2558 01bf 02       		.uleb128 0x2
 2559 01c0 18       		.uleb128 0x18
 2560 01c1 9142     		.uleb128 0x2111
 2561 01c3 18       		.uleb128 0x18
 2562 01c4 00       		.byte	0
 2563 01c5 00       		.byte	0
 2564 01c6 25       		.uleb128 0x25
 2565 01c7 2E       		.uleb128 0x2e
ARM GAS  /var/folders/3j/4xdnk5197cv_b7cw3n33qk7r0000gn/T//ccPcLZD6.s 			page 46


 2566 01c8 01       		.byte	0x1
 2567 01c9 03       		.uleb128 0x3
 2568 01ca 0E       		.uleb128 0xe
 2569 01cb 3A       		.uleb128 0x3a
 2570 01cc 0B       		.uleb128 0xb
 2571 01cd 3B       		.uleb128 0x3b
 2572 01ce 0B       		.uleb128 0xb
 2573 01cf 27       		.uleb128 0x27
 2574 01d0 19       		.uleb128 0x19
 2575 01d1 11       		.uleb128 0x11
 2576 01d2 01       		.uleb128 0x1
 2577 01d3 12       		.uleb128 0x12
 2578 01d4 06       		.uleb128 0x6
 2579 01d5 40       		.uleb128 0x40
 2580 01d6 18       		.uleb128 0x18
 2581 01d7 9742     		.uleb128 0x2117
 2582 01d9 19       		.uleb128 0x19
 2583 01da 01       		.uleb128 0x1
 2584 01db 13       		.uleb128 0x13
 2585 01dc 00       		.byte	0
 2586 01dd 00       		.byte	0
 2587 01de 26       		.uleb128 0x26
 2588 01df 05       		.uleb128 0x5
 2589 01e0 00       		.byte	0
 2590 01e1 03       		.uleb128 0x3
 2591 01e2 08       		.uleb128 0x8
 2592 01e3 3A       		.uleb128 0x3a
 2593 01e4 0B       		.uleb128 0xb
 2594 01e5 3B       		.uleb128 0x3b
 2595 01e6 0B       		.uleb128 0xb
 2596 01e7 49       		.uleb128 0x49
 2597 01e8 13       		.uleb128 0x13
 2598 01e9 02       		.uleb128 0x2
 2599 01ea 18       		.uleb128 0x18
 2600 01eb 00       		.byte	0
 2601 01ec 00       		.byte	0
 2602 01ed 27       		.uleb128 0x27
 2603 01ee 34       		.uleb128 0x34
 2604 01ef 00       		.byte	0
 2605 01f0 03       		.uleb128 0x3
 2606 01f1 08       		.uleb128 0x8
 2607 01f2 3A       		.uleb128 0x3a
 2608 01f3 0B       		.uleb128 0xb
 2609 01f4 3B       		.uleb128 0x3b
 2610 01f5 0B       		.uleb128 0xb
 2611 01f6 49       		.uleb128 0x49
 2612 01f7 13       		.uleb128 0x13
 2613 01f8 02       		.uleb128 0x2
 2614 01f9 17       		.uleb128 0x17
 2615 01fa 00       		.byte	0
 2616 01fb 00       		.byte	0
 2617 01fc 28       		.uleb128 0x28
 2618 01fd 2E       		.uleb128 0x2e
 2619 01fe 01       		.byte	0x1
 2620 01ff 03       		.uleb128 0x3
 2621 0200 0E       		.uleb128 0xe
 2622 0201 3A       		.uleb128 0x3a
ARM GAS  /var/folders/3j/4xdnk5197cv_b7cw3n33qk7r0000gn/T//ccPcLZD6.s 			page 47


 2623 0202 0B       		.uleb128 0xb
 2624 0203 3B       		.uleb128 0x3b
 2625 0204 0B       		.uleb128 0xb
 2626 0205 27       		.uleb128 0x27
 2627 0206 19       		.uleb128 0x19
 2628 0207 20       		.uleb128 0x20
 2629 0208 0B       		.uleb128 0xb
 2630 0209 01       		.uleb128 0x1
 2631 020a 13       		.uleb128 0x13
 2632 020b 00       		.byte	0
 2633 020c 00       		.byte	0
 2634 020d 29       		.uleb128 0x29
 2635 020e 2E       		.uleb128 0x2e
 2636 020f 01       		.byte	0x1
 2637 0210 31       		.uleb128 0x31
 2638 0211 13       		.uleb128 0x13
 2639 0212 11       		.uleb128 0x11
 2640 0213 01       		.uleb128 0x1
 2641 0214 12       		.uleb128 0x12
 2642 0215 06       		.uleb128 0x6
 2643 0216 40       		.uleb128 0x40
 2644 0217 18       		.uleb128 0x18
 2645 0218 9742     		.uleb128 0x2117
 2646 021a 19       		.uleb128 0x19
 2647 021b 01       		.uleb128 0x1
 2648 021c 13       		.uleb128 0x13
 2649 021d 00       		.byte	0
 2650 021e 00       		.byte	0
 2651 021f 2A       		.uleb128 0x2a
 2652 0220 05       		.uleb128 0x5
 2653 0221 00       		.byte	0
 2654 0222 31       		.uleb128 0x31
 2655 0223 13       		.uleb128 0x13
 2656 0224 02       		.uleb128 0x2
 2657 0225 18       		.uleb128 0x18
 2658 0226 00       		.byte	0
 2659 0227 00       		.byte	0
 2660 0228 2B       		.uleb128 0x2b
 2661 0229 2E       		.uleb128 0x2e
 2662 022a 01       		.byte	0x1
 2663 022b 31       		.uleb128 0x31
 2664 022c 13       		.uleb128 0x13
 2665 022d 11       		.uleb128 0x11
 2666 022e 01       		.uleb128 0x1
 2667 022f 12       		.uleb128 0x12
 2668 0230 06       		.uleb128 0x6
 2669 0231 40       		.uleb128 0x40
 2670 0232 18       		.uleb128 0x18
 2671 0233 9742     		.uleb128 0x2117
 2672 0235 19       		.uleb128 0x19
 2673 0236 00       		.byte	0
 2674 0237 00       		.byte	0
 2675 0238 00       		.byte	0
 2676              		.section	.debug_loc,"",%progbits
 2677              	.Ldebug_loc0:
 2678              	.LLST1:
 2679 0000 24000000 		.4byte	.LVL4
ARM GAS  /var/folders/3j/4xdnk5197cv_b7cw3n33qk7r0000gn/T//ccPcLZD6.s 			page 48


 2680 0004 28000000 		.4byte	.LVL5
 2681 0008 0300     		.2byte	0x3
 2682 000a 91       		.byte	0x91
 2683 000b 5C       		.sleb128 -36
 2684 000c 9F       		.byte	0x9f
 2685 000d 00000000 		.4byte	0
 2686 0011 00000000 		.4byte	0
 2687              	.LLST2:
 2688 0015 28000000 		.4byte	.LVL5
 2689 0019 38000000 		.4byte	.LVL6
 2690 001d 0300     		.2byte	0x3
 2691 001f 91       		.byte	0x91
 2692 0020 5C       		.sleb128 -36
 2693 0021 9F       		.byte	0x9f
 2694 0022 38000000 		.4byte	.LVL6
 2695 0026 40000000 		.4byte	.LVL7
 2696 002a 0100     		.2byte	0x1
 2697 002c 50       		.byte	0x50
 2698 002d 00000000 		.4byte	0
 2699 0031 00000000 		.4byte	0
 2700              	.LLST0:
 2701 0035 10000000 		.4byte	.LVL2
 2702 0039 18000000 		.4byte	.LVL3
 2703 003d 0100     		.2byte	0x1
 2704 003f 53       		.byte	0x53
 2705 0040 00000000 		.4byte	0
 2706 0044 00000000 		.4byte	0
 2707              		.section	.debug_aranges,"",%progbits
 2708 0000 34000000 		.4byte	0x34
 2709 0004 0200     		.2byte	0x2
 2710 0006 00000000 		.4byte	.Ldebug_info0
 2711 000a 04       		.byte	0x4
 2712 000b 00       		.byte	0
 2713 000c 0000     		.2byte	0
 2714 000e 0000     		.2byte	0
 2715 0010 00000000 		.4byte	.LFB7
 2716 0014 14000000 		.4byte	.LFE7-.LFB7
 2717 0018 00000000 		.4byte	.LFB8
 2718 001c 4C000000 		.4byte	.LFE8-.LFB8
 2719 0020 00000000 		.4byte	.LFB9
 2720 0024 64000000 		.4byte	.LFE9-.LFB9
 2721 0028 00000000 		.4byte	.LFB10
 2722 002c 30000000 		.4byte	.LFE10-.LFB10
 2723 0030 00000000 		.4byte	0
 2724 0034 00000000 		.4byte	0
 2725              		.section	.debug_ranges,"",%progbits
 2726              	.Ldebug_ranges0:
 2727 0000 04000000 		.4byte	.LBB8
 2728 0004 08000000 		.4byte	.LBE8
 2729 0008 18000000 		.4byte	.LBB18
 2730 000c 20000000 		.4byte	.LBE18
 2731 0010 24000000 		.4byte	.LBB19
 2732 0014 28000000 		.4byte	.LBE19
 2733 0018 2C000000 		.4byte	.LBB21
 2734 001c 34000000 		.4byte	.LBE21
 2735 0020 38000000 		.4byte	.LBB22
 2736 0024 3C000000 		.4byte	.LBE22
ARM GAS  /var/folders/3j/4xdnk5197cv_b7cw3n33qk7r0000gn/T//ccPcLZD6.s 			page 49


 2737 0028 00000000 		.4byte	0
 2738 002c 00000000 		.4byte	0
 2739 0030 14000000 		.4byte	.LBB14
 2740 0034 18000000 		.4byte	.LBE14
 2741 0038 28000000 		.4byte	.LBB20
 2742 003c 2C000000 		.4byte	.LBE20
 2743 0040 3C000000 		.4byte	.LBB23
 2744 0044 40000000 		.4byte	.LBE23
 2745 0048 00000000 		.4byte	0
 2746 004c 00000000 		.4byte	0
 2747 0050 00000000 		.4byte	.LFB7
 2748 0054 14000000 		.4byte	.LFE7
 2749 0058 00000000 		.4byte	.LFB8
 2750 005c 4C000000 		.4byte	.LFE8
 2751 0060 00000000 		.4byte	.LFB9
 2752 0064 64000000 		.4byte	.LFE9
 2753 0068 00000000 		.4byte	.LFB10
 2754 006c 30000000 		.4byte	.LFE10
 2755 0070 00000000 		.4byte	0
 2756 0074 00000000 		.4byte	0
 2757              		.section	.debug_line,"",%progbits
 2758              	.Ldebug_line0:
 2759 0000 21030000 		.section	.debug_str,"MS",%progbits,1
 2759      02009602 
 2759      00000201 
 2759      FB0E0D00 
 2759      01010101 
 2760              	.LASF96:
 2761 0000 63665F6F 		.ascii	"cf_off_older\000"
 2761      66665F6F 
 2761      6C646572 
 2761      00
 2762              	.LASF42:
 2763 000d 705F6D73 		.ascii	"p_msg\000"
 2763      6700
 2764              	.LASF2:
 2765 0013 73697A65 		.ascii	"size_t\000"
 2765      5F7400
 2766              	.LASF81:
 2767 001a 7264796D 		.ascii	"rdymsg\000"
 2767      736700
 2768              	.LASF181:
 2769 0021 77726974 		.ascii	"write\000"
 2769      6500
 2770              	.LASF117:
 2771 0027 4F757470 		.ascii	"OutputQueue\000"
 2771      75745175 
 2771      65756500 
 2772              	.LASF3:
 2773 0033 5F5F7569 		.ascii	"__uint8_t\000"
 2773      6E74385F 
 2773      7400
 2774              	.LASF190:
 2775 003d 5350495F 		.ascii	"SPI_ACTIVE\000"
 2775      41435449 
 2775      564500
 2776              	.LASF68:
ARM GAS  /var/folders/3j/4xdnk5197cv_b7cw3n33qk7r0000gn/T//ccPcLZD6.s 			page 50


 2777 0048 76746C69 		.ascii	"vtlist\000"
 2777      737400
 2778              	.LASF119:
 2779 004f 62736364 		.ascii	"bscdevice_t\000"
 2779      65766963 
 2779      655F7400 
 2780              	.LASF128:
 2781 005b 68616C72 		.ascii	"halrtcnt_t\000"
 2781      74636E74 
 2781      5F7400
 2782              	.LASF164:
 2783 0066 72786275 		.ascii	"rxbuf\000"
 2783      6600
 2784              	.LASF110:
 2785 006c 715F746F 		.ascii	"q_top\000"
 2785      7000
 2786              	.LASF13:
 2787 0072 6C6F6E67 		.ascii	"long long unsigned int\000"
 2787      206C6F6E 
 2787      6720756E 
 2787      7369676E 
 2787      65642069 
 2788              	.LASF92:
 2789 0089 63685F74 		.ascii	"ch_threadsize\000"
 2789      68726561 
 2789      6473697A 
 2789      6500
 2790              	.LASF82:
 2791 0097 65786974 		.ascii	"exitcode\000"
 2791      636F6465 
 2791      00
 2792              	.LASF193:
 2793 00a0 53504944 		.ascii	"SPIDriver\000"
 2793      72697665 
 2793      7200
 2794              	.LASF124:
 2795 00aa 64617461 		.ascii	"dataFifo\000"
 2795      4669666F 
 2795      00
 2796              	.LASF30:
 2797 00b3 705F7072 		.ascii	"p_prio\000"
 2797      696F00
 2798              	.LASF99:
 2799 00ba 63665F6F 		.ascii	"cf_off_state\000"
 2799      66665F73 
 2799      74617465 
 2799      00
 2800              	.LASF186:
 2801 00c7 72656164 		.ascii	"readt\000"
 2801      7400
 2802              	.LASF157:
 2803 00cd 64657669 		.ascii	"device\000"
 2803      636500
 2804              	.LASF107:
 2805 00d4 715F7761 		.ascii	"q_waiting\000"
 2805      6974696E 
 2805      6700
ARM GAS  /var/folders/3j/4xdnk5197cv_b7cw3n33qk7r0000gn/T//ccPcLZD6.s 			page 51


 2806              	.LASF12:
 2807 00de 6C6F6E67 		.ascii	"long long int\000"
 2807      206C6F6E 
 2807      6720696E 
 2807      7400
 2808              	.LASF1:
 2809 00ec 7369676E 		.ascii	"signed char\000"
 2809      65642063 
 2809      68617200 
 2810              	.LASF98:
 2811 00f8 63665F6F 		.ascii	"cf_off_stklimit\000"
 2811      66665F73 
 2811      746B6C69 
 2811      6D697400 
 2812              	.LASF188:
 2813 0108 5350495F 		.ascii	"SPI_STOP\000"
 2813      53544F50 
 2813      00
 2814              	.LASF100:
 2815 0111 63665F6F 		.ascii	"cf_off_flags\000"
 2815      66665F66 
 2815      6C616773 
 2815      00
 2816              	.LASF173:
 2817 011e 53445F53 		.ascii	"SD_STOP\000"
 2817      544F5000 
 2818              	.LASF71:
 2819 0126 6D5F7175 		.ascii	"m_queue\000"
 2819      65756500 
 2820              	.LASF160:
 2821 012e 61646472 		.ascii	"addr\000"
 2821      00
 2822              	.LASF208:
 2823 0133 474E5520 		.ascii	"GNU C11 7.3.1 20180622 (release) [ARM/embedded-7-br"
 2823      43313120 
 2823      372E332E 
 2823      31203230 
 2823      31383036 
 2824 0166 616E6368 		.ascii	"anch revision 261907] -mcpu=arm1176jz-s -mno-thumb-"
 2824      20726576 
 2824      6973696F 
 2824      6E203236 
 2824      31393037 
 2825 0199 696E7465 		.ascii	"interwork -ggdb -O2 -fomit-frame-pointer -ffunction"
 2825      72776F72 
 2825      6B202D67 
 2825      67646220 
 2825      2D4F3220 
 2826 01cc 2D736563 		.ascii	"-sections -fdata-sections\000"
 2826      74696F6E 
 2826      73202D66 
 2826      64617461 
 2826      2D736563 
 2827              	.LASF146:
 2828 01e6 4932435F 		.ascii	"I2C_UNINIT\000"
 2828      554E494E 
 2828      495400
ARM GAS  /var/folders/3j/4xdnk5197cv_b7cw3n33qk7r0000gn/T//ccPcLZD6.s 			page 52


 2829              	.LASF168:
 2830 01f1 69326361 		.ascii	"i2caddr_t\000"
 2830      6464725F 
 2830      7400
 2831              	.LASF154:
 2832 01fb 73746174 		.ascii	"state\000"
 2832      6500
 2833              	.LASF9:
 2834 0201 6C6F6E67 		.ascii	"long int\000"
 2834      20696E74 
 2834      00
 2835              	.LASF19:
 2836 020a 74737461 		.ascii	"tstate_t\000"
 2836      74655F74 
 2836      00
 2837              	.LASF159:
 2838 0213 74687265 		.ascii	"thread\000"
 2838      616400
 2839              	.LASF126:
 2840 021a 64617461 		.ascii	"dataDelay\000"
 2840      44656C61 
 2840      7900
 2841              	.LASF166:
 2842 0224 72786964 		.ascii	"rxidx\000"
 2842      7800
 2843              	.LASF109:
 2844 022a 715F6275 		.ascii	"q_buffer\000"
 2844      66666572 
 2844      00
 2845              	.LASF15:
 2846 0233 75696E74 		.ascii	"uint16_t\000"
 2846      31365F74 
 2846      00
 2847              	.LASF206:
 2848 023c 53504930 		.ascii	"SPI0\000"
 2848      00
 2849              	.LASF104:
 2850 0241 63686465 		.ascii	"chdebug_t\000"
 2850      6275675F 
 2850      7400
 2851              	.LASF149:
 2852 024b 4932435F 		.ascii	"I2C_ACTIVE_TX\000"
 2852      41435449 
 2852      56455F54 
 2852      5800
 2853              	.LASF203:
 2854 0259 636C6F63 		.ascii	"clock_phase\000"
 2854      6B5F7068 
 2854      61736500 
 2855              	.LASF32:
 2856 0265 705F6E65 		.ascii	"p_newer\000"
 2856      77657200 
 2857              	.LASF118:
 2858 026d 5F69646C 		.ascii	"_idle_thread_wa\000"
 2858      655F7468 
 2858      72656164 
 2858      5F776100 
ARM GAS  /var/folders/3j/4xdnk5197cv_b7cw3n33qk7r0000gn/T//ccPcLZD6.s 			page 53


 2859              	.LASF196:
 2860 027d 656E645F 		.ascii	"end_cb\000"
 2860      636200
 2861              	.LASF194:
 2862 0284 7478636E 		.ascii	"txcnt\000"
 2862      7400
 2863              	.LASF200:
 2864 028a 63686970 		.ascii	"chip_select_polarity0\000"
 2864      5F73656C 
 2864      6563745F 
 2864      706F6C61 
 2864      72697479 
 2865              	.LASF201:
 2866 02a0 63686970 		.ascii	"chip_select_polarity1\000"
 2866      5F73656C 
 2866      6563745F 
 2866      706F6C61 
 2866      72697479 
 2867              	.LASF120:
 2868 02b6 636F6E74 		.ascii	"control\000"
 2868      726F6C00 
 2869              	.LASF10:
 2870 02be 5F5F7569 		.ascii	"__uint32_t\000"
 2870      6E743332 
 2870      5F7400
 2871              	.LASF49:
 2872 02c9 72656761 		.ascii	"regarm_t\000"
 2872      726D5F74 
 2872      00
 2873              	.LASF55:
 2874 02d2 76745F70 		.ascii	"vt_prev\000"
 2874      72657600 
 2875              	.LASF123:
 2876 02da 736C6176 		.ascii	"slaveAddress\000"
 2876      65416464 
 2876      72657373 
 2876      00
 2877              	.LASF195:
 2878 02e7 73706963 		.ascii	"spicallback_t\000"
 2878      616C6C62 
 2878      61636B5F 
 2878      7400
 2879              	.LASF171:
 2880 02f5 49324330 		.ascii	"I2C0\000"
 2880      00
 2881              	.LASF79:
 2882 02fa 4576656E 		.ascii	"EventSource\000"
 2882      74536F75 
 2882      72636500 
 2883              	.LASF0:
 2884 0306 756E7369 		.ascii	"unsigned int\000"
 2884      676E6564 
 2884      20696E74 
 2884      00
 2885              	.LASF54:
 2886 0313 76745F6E 		.ascii	"vt_next\000"
 2886      65787400 
ARM GAS  /var/folders/3j/4xdnk5197cv_b7cw3n33qk7r0000gn/T//ccPcLZD6.s 			page 54


 2887              	.LASF209:
 2888 031b 2E2E2F2F 		.ascii	"..//os/hal/src/tm.c\000"
 2888      6F732F68 
 2888      616C2F73 
 2888      72632F74 
 2888      6D2E6300 
 2889              	.LASF180:
 2890 032f 53657269 		.ascii	"SerialDriverVMT\000"
 2890      616C4472 
 2890      69766572 
 2890      564D5400 
 2891              	.LASF156:
 2892 033f 6572726F 		.ascii	"errors\000"
 2892      727300
 2893              	.LASF178:
 2894 0346 69717565 		.ascii	"iqueue\000"
 2894      756500
 2895              	.LASF11:
 2896 034d 6C6F6E67 		.ascii	"long unsigned int\000"
 2896      20756E73 
 2896      69676E65 
 2896      6420696E 
 2896      7400
 2897              	.LASF105:
 2898 035f 63685F64 		.ascii	"ch_debug\000"
 2898      65627567 
 2898      00
 2899              	.LASF212:
 2900 0368 746D496E 		.ascii	"tmInit\000"
 2900      697400
 2901              	.LASF184:
 2902 036f 67657474 		.ascii	"gett\000"
 2902      00
 2903              	.LASF52:
 2904 0374 76746675 		.ascii	"vtfunc_t\000"
 2904      6E635F74 
 2904      00
 2905              	.LASF86:
 2906 037d 63685F69 		.ascii	"ch_identifier\000"
 2906      64656E74 
 2906      69666965 
 2906      7200
 2907              	.LASF129:
 2908 038b 54696D65 		.ascii	"TimeMeasurement\000"
 2908      4D656173 
 2908      7572656D 
 2908      656E7400 
 2909              	.LASF199:
 2910 039b 63686970 		.ascii	"chip_select_polarity\000"
 2910      5F73656C 
 2910      6563745F 
 2910      706F6C61 
 2910      72697479 
 2911              	.LASF177:
 2912 03b0 6576656E 		.ascii	"event\000"
 2912      7400
 2913              	.LASF51:
ARM GAS  /var/folders/3j/4xdnk5197cv_b7cw3n33qk7r0000gn/T//ccPcLZD6.s 			page 55


 2914 03b6 636F6E74 		.ascii	"context\000"
 2914      65787400 
 2915              	.LASF7:
 2916 03be 73686F72 		.ascii	"short unsigned int\000"
 2916      7420756E 
 2916      7369676E 
 2916      65642069 
 2916      6E7400
 2917              	.LASF141:
 2918 03d1 6770696F 		.ascii	"gpio_port_t\000"
 2918      5F706F72 
 2918      745F7400 
 2919              	.LASF137:
 2920 03dd 6770636C 		.ascii	"gpclr\000"
 2920      7200
 2921              	.LASF23:
 2922 03e3 6D73675F 		.ascii	"msg_t\000"
 2922      7400
 2923              	.LASF132:
 2924 03e9 6C617374 		.ascii	"last\000"
 2924      00
 2925              	.LASF64:
 2926 03ee 725F6E65 		.ascii	"r_newer\000"
 2926      77657200 
 2927              	.LASF75:
 2928 03f6 656C5F6E 		.ascii	"el_next\000"
 2928      65787400 
 2929              	.LASF185:
 2930 03fe 77726974 		.ascii	"writet\000"
 2930      657400
 2931              	.LASF18:
 2932 0405 746D6F64 		.ascii	"tmode_t\000"
 2932      655F7400 
 2933              	.LASF211:
 2934 040d 746D4F62 		.ascii	"tmObjectInit\000"
 2934      6A656374 
 2934      496E6974 
 2934      00
 2935              	.LASF47:
 2936 041a 54687265 		.ascii	"ThreadsList\000"
 2936      6164734C 
 2936      69737400 
 2937              	.LASF24:
 2938 0426 6576656E 		.ascii	"eventmask_t\000"
 2938      746D6173 
 2938      6B5F7400 
 2939              	.LASF116:
 2940 0432 496E7075 		.ascii	"InputQueue\000"
 2940      74517565 
 2940      756500
 2941              	.LASF70:
 2942 043d 4D757465 		.ascii	"Mutex\000"
 2942      7800
 2943              	.LASF150:
 2944 0443 4932435F 		.ascii	"I2C_ACTIVE_RX\000"
 2944      41435449 
 2944      56455F52 
ARM GAS  /var/folders/3j/4xdnk5197cv_b7cw3n33qk7r0000gn/T//ccPcLZD6.s 			page 56


 2944      5800
 2945              	.LASF106:
 2946 0451 47656E65 		.ascii	"GenericQueue\000"
 2946      72696351 
 2946      75657565 
 2946      00
 2947              	.LASF48:
 2948 045e 73746B61 		.ascii	"stkalign_t\000"
 2948      6C69676E 
 2948      5F7400
 2949              	.LASF87:
 2950 0469 63685F7A 		.ascii	"ch_zero\000"
 2950      65726F00 
 2951              	.LASF101:
 2952 0471 63665F6F 		.ascii	"cf_off_refs\000"
 2952      66665F72 
 2952      65667300 
 2953              	.LASF138:
 2954 047d 67706C65 		.ascii	"gplev\000"
 2954      7600
 2955              	.LASF183:
 2956 0483 70757474 		.ascii	"putt\000"
 2956      00
 2957              	.LASF56:
 2958 0488 76745F74 		.ascii	"vt_time\000"
 2958      696D6500 
 2959              	.LASF147:
 2960 0490 4932435F 		.ascii	"I2C_STOP\000"
 2960      53544F50 
 2960      00
 2961              	.LASF125:
 2962 0499 636C6F63 		.ascii	"clockDivider\000"
 2962      6B446976 
 2962      69646572 
 2962      00
 2963              	.LASF207:
 2964 04a6 6D656173 		.ascii	"measurement_offset\000"
 2964      7572656D 
 2964      656E745F 
 2964      6F666673 
 2964      657400
 2965              	.LASF108:
 2966 04b9 715F636F 		.ascii	"q_counter\000"
 2966      756E7465 
 2966      7200
 2967              	.LASF57:
 2968 04c3 76745F66 		.ascii	"vt_func\000"
 2968      756E6300 
 2969              	.LASF91:
 2970 04cb 63685F74 		.ascii	"ch_timesize\000"
 2970      696D6573 
 2970      697A6500 
 2971              	.LASF169:
 2972 04d7 69635F73 		.ascii	"ic_speed\000"
 2972      70656564 
 2972      00
 2973              	.LASF97:
ARM GAS  /var/folders/3j/4xdnk5197cv_b7cw3n33qk7r0000gn/T//ccPcLZD6.s 			page 57


 2974 04e0 63665F6F 		.ascii	"cf_off_name\000"
 2974      66665F6E 
 2974      616D6500 
 2975              	.LASF33:
 2976 04ec 705F6F6C 		.ascii	"p_older\000"
 2976      64657200 
 2977              	.LASF165:
 2978 04f4 72786279 		.ascii	"rxbytes\000"
 2978      74657300 
 2979              	.LASF111:
 2980 04fc 715F7772 		.ascii	"q_wrptr\000"
 2980      70747200 
 2981              	.LASF63:
 2982 0504 725F6374 		.ascii	"r_ctx\000"
 2982      7800
 2983              	.LASF46:
 2984 050a 54687265 		.ascii	"ThreadsQueue\000"
 2984      61647351 
 2984      75657565 
 2984      00
 2985              	.LASF88:
 2986 0517 63685F73 		.ascii	"ch_size\000"
 2986      697A6500 
 2987              	.LASF143:
 2988 051f 494F504F 		.ascii	"IOPORT0\000"
 2988      52543000 
 2989              	.LASF133:
 2990 0527 776F7273 		.ascii	"worst\000"
 2990      7400
 2991              	.LASF66:
 2992 052d 725F6375 		.ascii	"r_current\000"
 2992      7272656E 
 2992      7400
 2993              	.LASF65:
 2994 0537 725F6F6C 		.ascii	"r_older\000"
 2994      64657200 
 2995              	.LASF77:
 2996 053f 656C5F6D 		.ascii	"el_mask\000"
 2996      61736B00 
 2997              	.LASF179:
 2998 0547 6F717565 		.ascii	"oqueue\000"
 2998      756500
 2999              	.LASF136:
 3000 054e 67707365 		.ascii	"gpset\000"
 3000      7400
 3001              	.LASF139:
 3002 0554 67707075 		.ascii	"gppudclk\000"
 3002      64636C6B 
 3002      00
 3003              	.LASF197:
 3004 055d 6C6F7373 		.ascii	"lossiEnabled\000"
 3004      69456E61 
 3004      626C6564 
 3004      00
 3005              	.LASF198:
 3006 056a 63686970 		.ascii	"chip_select\000"
 3006      5F73656C 
ARM GAS  /var/folders/3j/4xdnk5197cv_b7cw3n33qk7r0000gn/T//ccPcLZD6.s 			page 58


 3006      65637400 
 3007              	.LASF20:
 3008 0576 74726566 		.ascii	"trefs_t\000"
 3008      735F7400 
 3009              	.LASF152:
 3010 057e 69326373 		.ascii	"i2cstate_t\000"
 3010      74617465 
 3010      5F7400
 3011              	.LASF90:
 3012 0589 63685F70 		.ascii	"ch_ptrsize\000"
 3012      74727369 
 3012      7A6500
 3013              	.LASF115:
 3014 0594 716E6F74 		.ascii	"qnotify_t\000"
 3014      6966795F 
 3014      7400
 3015              	.LASF29:
 3016 059e 705F7072 		.ascii	"p_prev\000"
 3016      657600
 3017              	.LASF161:
 3018 05a5 74786275 		.ascii	"txbuf\000"
 3018      6600
 3019              	.LASF22:
 3020 05ab 74707269 		.ascii	"tprio_t\000"
 3020      6F5F7400 
 3021              	.LASF112:
 3022 05b3 715F7264 		.ascii	"q_rdptr\000"
 3022      70747200 
 3023              	.LASF167:
 3024 05bb 69326366 		.ascii	"i2cflags_t\000"
 3024      6C616773 
 3024      5F7400
 3025              	.LASF158:
 3026 05c6 6D757465 		.ascii	"mutex\000"
 3026      7800
 3027              	.LASF16:
 3028 05cc 696E7433 		.ascii	"int32_t\000"
 3028      325F7400 
 3029              	.LASF4:
 3030 05d4 756E7369 		.ascii	"unsigned char\000"
 3030      676E6564 
 3030      20636861 
 3030      7200
 3031              	.LASF76:
 3032 05e2 656C5F6C 		.ascii	"el_listener\000"
 3032      69737465 
 3032      6E657200 
 3033              	.LASF210:
 3034 05ee 2F557365 		.ascii	"/Users/kevinmalmsten/development_raspberry_pi/Chibi"
 3034      72732F6B 
 3034      6576696E 
 3034      6D616C6D 
 3034      7374656E 
 3035 0621 4F532D42 		.ascii	"OS-Backup/__Backup_System\000"
 3035      61636B75 
 3035      702F5F5F 
 3035      4261636B 
ARM GAS  /var/folders/3j/4xdnk5197cv_b7cw3n33qk7r0000gn/T//ccPcLZD6.s 			page 59


 3035      75705F53 
 3036              	.LASF78:
 3037 063b 656C5F66 		.ascii	"el_flags\000"
 3037      6C616773 
 3037      00
 3038              	.LASF44:
 3039 0644 705F6D74 		.ascii	"p_mtxlist\000"
 3039      786C6973 
 3039      7400
 3040              	.LASF5:
 3041 064e 73686F72 		.ascii	"short int\000"
 3041      7420696E 
 3041      7400
 3042              	.LASF35:
 3043 0658 705F7374 		.ascii	"p_state\000"
 3043      61746500 
 3044              	.LASF38:
 3045 0660 705F7072 		.ascii	"p_preempt\000"
 3045      65656D70 
 3045      7400
 3046              	.LASF103:
 3047 066a 63665F6F 		.ascii	"cf_off_time\000"
 3047      66665F74 
 3047      696D6500 
 3048              	.LASF62:
 3049 0676 725F7072 		.ascii	"r_prio\000"
 3049      696F00
 3050              	.LASF140:
 3051 067d 70696E5F 		.ascii	"pin_base\000"
 3051      62617365 
 3051      00
 3052              	.LASF84:
 3053 0686 65776D61 		.ascii	"ewmask\000"
 3053      736B00
 3054              	.LASF28:
 3055 068d 705F6E65 		.ascii	"p_next\000"
 3055      787400
 3056              	.LASF144:
 3057 0694 494F504F 		.ascii	"IOPORT1\000"
 3057      52543100 
 3058              	.LASF102:
 3059 069c 63665F6F 		.ascii	"cf_off_preempt\000"
 3059      66665F70 
 3059      7265656D 
 3059      707400
 3060              	.LASF36:
 3061 06ab 705F666C 		.ascii	"p_flags\000"
 3061      61677300 
 3062              	.LASF27:
 3063 06b3 54687265 		.ascii	"Thread\000"
 3063      616400
 3064              	.LASF204:
 3065 06ba 636C6F63 		.ascii	"clock_divider\000"
 3065      6B5F6469 
 3065      76696465 
 3065      7200
 3066              	.LASF95:
ARM GAS  /var/folders/3j/4xdnk5197cv_b7cw3n33qk7r0000gn/T//ccPcLZD6.s 			page 60


 3067 06c8 63665F6F 		.ascii	"cf_off_newer\000"
 3067      66665F6E 
 3067      65776572 
 3067      00
 3068              	.LASF151:
 3069 06d5 4932435F 		.ascii	"I2C_LOCKED\000"
 3069      4C4F434B 
 3069      454400
 3070              	.LASF43:
 3071 06e0 705F6570 		.ascii	"p_epending\000"
 3071      656E6469 
 3071      6E6700
 3072              	.LASF172:
 3073 06eb 53445F55 		.ascii	"SD_UNINIT\000"
 3073      4E494E49 
 3073      5400
 3074              	.LASF17:
 3075 06f5 75696E74 		.ascii	"uint32_t\000"
 3075      33325F74 
 3075      00
 3076              	.LASF93:
 3077 06fe 63665F6F 		.ascii	"cf_off_prio\000"
 3077      66665F70 
 3077      72696F00 
 3078              	.LASF61:
 3079 070a 725F7175 		.ascii	"r_queue\000"
 3079      65756500 
 3080              	.LASF53:
 3081 0712 56697274 		.ascii	"VirtualTimer\000"
 3081      75616C54 
 3081      696D6572 
 3081      00
 3082              	.LASF176:
 3083 071f 53657269 		.ascii	"SerialDriver\000"
 3083      616C4472 
 3083      69766572 
 3083      00
 3084              	.LASF21:
 3085 072c 74736C69 		.ascii	"tslices_t\000"
 3085      6365735F 
 3085      7400
 3086              	.LASF182:
 3087 0736 72656164 		.ascii	"read\000"
 3087      00
 3088              	.LASF85:
 3089 073b 63686172 		.ascii	"char\000"
 3089      00
 3090              	.LASF191:
 3091 0740 5350495F 		.ascii	"SPI_COMPLETE\000"
 3091      434F4D50 
 3091      4C455445 
 3091      00
 3092              	.LASF155:
 3093 074d 636F6E66 		.ascii	"config\000"
 3093      696700
 3094              	.LASF6:
 3095 0754 5F5F7569 		.ascii	"__uint16_t\000"
ARM GAS  /var/folders/3j/4xdnk5197cv_b7cw3n33qk7r0000gn/T//ccPcLZD6.s 			page 61


 3095      6E743136 
 3095      5F7400
 3096              	.LASF213:
 3097 075f 746D5F73 		.ascii	"tm_stop\000"
 3097      746F7000 
 3098              	.LASF134:
 3099 0767 62657374 		.ascii	"best\000"
 3099      00
 3100              	.LASF192:
 3101 076c 73706973 		.ascii	"spistate_t\000"
 3101      74617465 
 3101      5F7400
 3102              	.LASF73:
 3103 0777 6D5F6E65 		.ascii	"m_next\000"
 3103      787400
 3104              	.LASF26:
 3105 077e 73797374 		.ascii	"systime_t\000"
 3105      696D655F 
 3105      7400
 3106              	.LASF45:
 3107 0788 705F7265 		.ascii	"p_realprio\000"
 3107      616C7072 
 3107      696F00
 3108              	.LASF8:
 3109 0793 5F5F696E 		.ascii	"__int32_t\000"
 3109      7433325F 
 3109      7400
 3110              	.LASF148:
 3111 079d 4932435F 		.ascii	"I2C_READY\000"
 3111      52454144 
 3111      5900
 3112              	.LASF153:
 3113 07a7 49324344 		.ascii	"I2CDriver\000"
 3113      72697665 
 3113      7200
 3114              	.LASF39:
 3115 07b1 705F7469 		.ascii	"p_time\000"
 3115      6D6500
 3116              	.LASF202:
 3117 07b8 636C6F63 		.ascii	"clock_polarity\000"
 3117      6B5F706F 
 3117      6C617269 
 3117      747900
 3118              	.LASF50:
 3119 07c7 696E7463 		.ascii	"intctx\000"
 3119      747800
 3120              	.LASF41:
 3121 07ce 705F6D73 		.ascii	"p_msgqueue\000"
 3121      67717565 
 3121      756500
 3122              	.LASF174:
 3123 07d9 53445F52 		.ascii	"SD_READY\000"
 3123      45414459 
 3123      00
 3124              	.LASF189:
 3125 07e2 5350495F 		.ascii	"SPI_READY\000"
 3125      52454144 
ARM GAS  /var/folders/3j/4xdnk5197cv_b7cw3n33qk7r0000gn/T//ccPcLZD6.s 			page 62


 3125      5900
 3126              	.LASF187:
 3127 07ec 5350495F 		.ascii	"SPI_UNINIT\000"
 3127      554E494E 
 3127      495400
 3128              	.LASF58:
 3129 07f7 76745F70 		.ascii	"vt_par\000"
 3129      617200
 3130              	.LASF25:
 3131 07fe 666C6167 		.ascii	"flagsmask_t\000"
 3131      736D6173 
 3131      6B5F7400 
 3132              	.LASF170:
 3133 080a 49324343 		.ascii	"I2CConfig\000"
 3133      6F6E6669 
 3133      6700
 3134              	.LASF175:
 3135 0814 73647374 		.ascii	"sdstate_t\000"
 3135      6174655F 
 3135      7400
 3136              	.LASF163:
 3137 081e 74786964 		.ascii	"txidx\000"
 3137      7800
 3138              	.LASF94:
 3139 0824 63665F6F 		.ascii	"cf_off_ctx\000"
 3139      66665F63 
 3139      747800
 3140              	.LASF37:
 3141 082f 705F7265 		.ascii	"p_refs\000"
 3141      667300
 3142              	.LASF121:
 3143 0836 73746174 		.ascii	"status\000"
 3143      757300
 3144              	.LASF67:
 3145 083d 52656164 		.ascii	"ReadyList\000"
 3145      794C6973 
 3145      7400
 3146              	.LASF113:
 3147 0847 715F6E6F 		.ascii	"q_notify\000"
 3147      74696679 
 3147      00
 3148              	.LASF69:
 3149 0850 726C6973 		.ascii	"rlist\000"
 3149      7400
 3150              	.LASF14:
 3151 0856 75696E74 		.ascii	"uint8_t\000"
 3151      385F7400 
 3152              	.LASF135:
 3153 085e 6C617463 		.ascii	"latch\000"
 3153      6800
 3154              	.LASF74:
 3155 0864 4576656E 		.ascii	"EventListener\000"
 3155      744C6973 
 3155      74656E65 
 3155      7200
 3156              	.LASF83:
 3157 0872 77746F62 		.ascii	"wtobjp\000"
ARM GAS  /var/folders/3j/4xdnk5197cv_b7cw3n33qk7r0000gn/T//ccPcLZD6.s 			page 63


 3157      6A7000
 3158              	.LASF34:
 3159 0879 705F6E61 		.ascii	"p_name\000"
 3159      6D6500
 3160              	.LASF59:
 3161 0880 76745F73 		.ascii	"vt_systime\000"
 3161      79737469 
 3161      6D6500
 3162              	.LASF80:
 3163 088b 65735F6E 		.ascii	"es_next\000"
 3163      65787400 
 3164              	.LASF205:
 3165 0893 53504943 		.ascii	"SPIConfig\000"
 3165      6F6E6669 
 3165      6700
 3166              	.LASF89:
 3167 089d 63685F76 		.ascii	"ch_version\000"
 3167      65727369 
 3167      6F6E00
 3168              	.LASF130:
 3169 08a8 73746172 		.ascii	"start\000"
 3169      7400
 3170              	.LASF122:
 3171 08ae 64617461 		.ascii	"dataLength\000"
 3171      4C656E67 
 3171      746800
 3172              	.LASF60:
 3173 08b9 56544C69 		.ascii	"VTList\000"
 3173      737400
 3174              	.LASF114:
 3175 08c0 715F6C69 		.ascii	"q_link\000"
 3175      6E6B00
 3176              	.LASF131:
 3177 08c7 73746F70 		.ascii	"stop\000"
 3177      00
 3178              	.LASF142:
 3179 08cc 50414C43 		.ascii	"PALConfig\000"
 3179      6F6E6669 
 3179      6700
 3180              	.LASF72:
 3181 08d6 6D5F6F77 		.ascii	"m_owner\000"
 3181      6E657200 
 3182              	.LASF214:
 3183 08de 746D5F73 		.ascii	"tm_start\000"
 3183      74617274 
 3183      00
 3184              	.LASF145:
 3185 08e7 70616C5F 		.ascii	"pal_default_config\000"
 3185      64656661 
 3185      756C745F 
 3185      636F6E66 
 3185      696700
 3186              	.LASF31:
 3187 08fa 705F6374 		.ascii	"p_ctx\000"
 3187      7800
 3188              	.LASF40:
 3189 0900 705F7761 		.ascii	"p_waiting\000"
ARM GAS  /var/folders/3j/4xdnk5197cv_b7cw3n33qk7r0000gn/T//ccPcLZD6.s 			page 64


 3189      6974696E 
 3189      6700
 3190              	.LASF162:
 3191 090a 74786279 		.ascii	"txbytes\000"
 3191      74657300 
 3192              	.LASF127:
 3193 0912 636C6F63 		.ascii	"clockStretchTimeout\000"
 3193      6B537472 
 3193      65746368 
 3193      54696D65 
 3193      6F757400 
 3194              		.ident	"GCC: (GNU Tools for Arm Embedded Processors 7-2018-q2-update) 7.3.1 20180622 (release) [AR
ARM GAS  /var/folders/3j/4xdnk5197cv_b7cw3n33qk7r0000gn/T//ccPcLZD6.s 			page 65


DEFINED SYMBOLS
                            *ABS*:0000000000000000 tm.c
/var/folders/3j/4xdnk5197cv_b7cw3n33qk7r0000gn/T//ccPcLZD6.s:16     .text.tm_start:0000000000000000 $a
/var/folders/3j/4xdnk5197cv_b7cw3n33qk7r0000gn/T//ccPcLZD6.s:21     .text.tm_start:0000000000000000 tm_start
/var/folders/3j/4xdnk5197cv_b7cw3n33qk7r0000gn/T//ccPcLZD6.s:39     .text.tm_start:0000000000000010 $d
/var/folders/3j/4xdnk5197cv_b7cw3n33qk7r0000gn/T//ccPcLZD6.s:44     .text.tm_stop:0000000000000000 $a
/var/folders/3j/4xdnk5197cv_b7cw3n33qk7r0000gn/T//ccPcLZD6.s:49     .text.tm_stop:0000000000000000 tm_stop
/var/folders/3j/4xdnk5197cv_b7cw3n33qk7r0000gn/T//ccPcLZD6.s:93     .text.tm_stop:0000000000000044 $d
/var/folders/3j/4xdnk5197cv_b7cw3n33qk7r0000gn/T//ccPcLZD6.s:99     .text.tmInit:0000000000000000 $a
/var/folders/3j/4xdnk5197cv_b7cw3n33qk7r0000gn/T//ccPcLZD6.s:105    .text.tmInit:0000000000000000 tmInit
/var/folders/3j/4xdnk5197cv_b7cw3n33qk7r0000gn/T//ccPcLZD6.s:197    .text.tmInit:0000000000000054 $d
/var/folders/3j/4xdnk5197cv_b7cw3n33qk7r0000gn/T//ccPcLZD6.s:205    .text.tmObjectInit:0000000000000000 $a
/var/folders/3j/4xdnk5197cv_b7cw3n33qk7r0000gn/T//ccPcLZD6.s:211    .text.tmObjectInit:0000000000000000 tmObjectInit
/var/folders/3j/4xdnk5197cv_b7cw3n33qk7r0000gn/T//ccPcLZD6.s:242    .text.tmObjectInit:0000000000000028 $d
/var/folders/3j/4xdnk5197cv_b7cw3n33qk7r0000gn/T//ccPcLZD6.s:248    .bss.measurement_offset:0000000000000000 $d
/var/folders/3j/4xdnk5197cv_b7cw3n33qk7r0000gn/T//ccPcLZD6.s:252    .bss.measurement_offset:0000000000000000 measurement_offset

NO UNDEFINED SYMBOLS
