ARM GAS  /var/folders/3j/4xdnk5197cv_b7cw3n33qk7r0000gn/T//ccZ3z8uE.s 			page 1


   1              		.cpu arm1176jz-s
   2              		.eabi_attribute 20, 1
   3              		.eabi_attribute 21, 1
   4              		.eabi_attribute 23, 3
   5              		.eabi_attribute 24, 1
   6              		.eabi_attribute 25, 1
   7              		.eabi_attribute 26, 1
   8              		.eabi_attribute 30, 2
   9              		.eabi_attribute 34, 1
  10              		.eabi_attribute 18, 4
  11              		.file	"tm.c"
  12              		.text
  13              	.Ltext0:
  14              		.cfi_sections	.debug_frame
  15              		.section	.text.tm_start,"ax",%progbits
  16              		.align	2
  17              		.syntax unified
  18              		.arm
  19              		.fpu softvfp
  20              		.type	tm_start, %function
  21              	tm_start:
  22              	.LFB7:
  23              		.file 1 "..//os/hal/src/tm.c"
  24              		.loc 1 62 0
  25              		.cfi_startproc
  26              		@ args = 0, pretend = 0, frame = 0
  27              		@ frame_needed = 0, uses_anonymous_args = 0
  28              		@ link register save eliminated.
  29              	.LVL0:
  30              		.loc 1 64 0
  31 0000 08309FE5 		ldr	r3, .L3
  32 0004 043093E5 		ldr	r3, [r3, #4]
  33 0008 083080E5 		str	r3, [r0, #8]
  34              		.loc 1 65 0
  35 000c 1EFF2FE1 		bx	lr
  36              	.L4:
  37              		.align	2
  38              	.L3:
  39 0010 00300020 		.word	536883200
  40              		.cfi_endproc
  41              	.LFE7:
  42              		.size	tm_start, .-tm_start
  43              		.section	.text.tm_stop,"ax",%progbits
  44              		.align	2
  45              		.syntax unified
  46              		.arm
  47              		.fpu softvfp
  48              		.type	tm_stop, %function
  49              	tm_stop:
  50              	.LFB8:
  51              		.loc 1 74 0
  52              		.cfi_startproc
  53              		@ args = 0, pretend = 0, frame = 0
  54              		@ frame_needed = 0, uses_anonymous_args = 0
  55              		@ link register save eliminated.
  56              	.LVL1:
  57              		.loc 1 76 0
ARM GAS  /var/folders/3j/4xdnk5197cv_b7cw3n33qk7r0000gn/T//ccZ3z8uE.s 			page 2


  58 0000 3C309FE5 		ldr	r3, .L9
  59              		.loc 1 77 0
  60 0004 3C109FE5 		ldr	r1, .L9+4
  61 0008 082090E5 		ldr	r2, [r0, #8]
  62              		.loc 1 76 0
  63 000c 043093E5 		ldr	r3, [r3, #4]
  64              	.LVL2:
  65              		.loc 1 77 0
  66 0010 001091E5 		ldr	r1, [r1]
  67 0014 023043E0 		sub	r3, r3, r2
  68              	.LVL3:
  69              		.loc 1 78 0
  70 0018 0C2090E5 		ldr	r2, [r0, #12]
  71              		.loc 1 77 0
  72 001c 013043E0 		sub	r3, r3, r1
  73              		.loc 1 78 0
  74 0020 020053E1 		cmp	r3, r2
  75              		.loc 1 77 0
  76 0024 083080E5 		str	r3, [r0, #8]
  77              		.loc 1 78 0
  78 0028 0300008A 		bhi	.L8
  79              		.loc 1 80 0
  80 002c 102090E5 		ldr	r2, [r0, #16]
  81 0030 020053E1 		cmp	r3, r2
  82              		.loc 1 81 0
  83 0034 10308035 		strcc	r3, [r0, #16]
  84              		.loc 1 82 0
  85 0038 1EFF2FE1 		bx	lr
  86              	.L8:
  87              		.loc 1 79 0
  88 003c 0C3080E5 		str	r3, [r0, #12]
  89 0040 1EFF2FE1 		bx	lr
  90              	.L10:
  91              		.align	2
  92              	.L9:
  93 0044 00300020 		.word	536883200
  94 0048 00000000 		.word	.LANCHOR0
  95              		.cfi_endproc
  96              	.LFE8:
  97              		.size	tm_stop, .-tm_stop
  98              		.section	.text.tmInit,"ax",%progbits
  99              		.align	2
 100              		.global	tmInit
 101              		.syntax unified
 102              		.arm
 103              		.fpu softvfp
 104              		.type	tmInit, %function
 105              	tmInit:
 106              	.LFB9:
 107              		.loc 1 97 0
 108              		.cfi_startproc
 109              		@ args = 0, pretend = 0, frame = 24
 110              		@ frame_needed = 0, uses_anonymous_args = 0
 111              		.loc 1 103 0
 112 0000 0030A0E3 		mov	r3, #0
 113              	.LBB8:
 114              	.LBB9:
ARM GAS  /var/folders/3j/4xdnk5197cv_b7cw3n33qk7r0000gn/T//ccZ3z8uE.s 			page 3


 115              		.loc 1 123 0
 116 0004 0010E0E3 		mvn	r1, #0
 117              	.LBE9:
 118              	.LBE8:
 119              		.loc 1 97 0
 120 0008 10402DE9 		push	{r4, lr}
 121              		.cfi_def_cfa_offset 8
 122              		.cfi_offset 4, -8
 123              		.cfi_offset 14, -4
 124              		.loc 1 103 0
 125 000c 40409FE5 		ldr	r4, .L13
 126              		.loc 1 97 0
 127 0010 18D04DE2 		sub	sp, sp, #24
 128              		.cfi_def_cfa_offset 32
 129              	.LBB14:
 130              	.LBB15:
 131              		.loc 1 64 0
 132 0014 3C209FE5 		ldr	r2, .L13+4
 133              	.LBE15:
 134              	.LBE14:
 135              	.LBB18:
 136              	.LBB10:
 137              		.loc 1 121 0
 138 0018 0C308DE5 		str	r3, [sp, #12]
 139              		.loc 1 122 0
 140 001c 10308DE5 		str	r3, [sp, #16]
 141              	.LBE10:
 142              	.LBE18:
 143              		.loc 1 103 0
 144 0020 003084E5 		str	r3, [r4]
 145              	.LVL4:
 146              	.LBB19:
 147              	.LBB11:
 148              		.loc 1 123 0
 149 0024 14108DE5 		str	r1, [sp, #20]
 150              	.LVL5:
 151              	.LBE11:
 152              	.LBE19:
 153              	.LBB20:
 154              	.LBB16:
 155              		.loc 1 64 0
 156 0028 041092E5 		ldr	r1, [r2, #4]
 157              	.LBE16:
 158              	.LBE20:
 159              	.LBB21:
 160              	.LBB12:
 161              		.loc 1 120 0
 162 002c 28309FE5 		ldr	r3, .L13+8
 163              		.loc 1 119 0
 164 0030 28209FE5 		ldr	r2, .L13+12
 165              	.LBE12:
 166              	.LBE21:
 167              		.loc 1 106 0
 168 0034 04008DE2 		add	r0, sp, #4
 169              	.LVL6:
 170              	.LBB22:
 171              	.LBB13:
ARM GAS  /var/folders/3j/4xdnk5197cv_b7cw3n33qk7r0000gn/T//ccZ3z8uE.s 			page 4


 172              		.loc 1 120 0
 173 0038 F420CDE1 		strd	r2, [sp, #4]
 174              	.LBE13:
 175              	.LBE22:
 176              	.LBB23:
 177              	.LBB17:
 178              		.loc 1 64 0
 179 003c 0C108DE5 		str	r1, [sp, #12]
 180              	.LVL7:
 181              	.LBE17:
 182              	.LBE23:
 183              		.loc 1 106 0
 184 0040 FEFFFFEB 		bl	tm_stop
 185              	.LVL8:
 186              		.loc 1 107 0
 187 0044 0C309DE5 		ldr	r3, [sp, #12]
 188 0048 003084E5 		str	r3, [r4]
 189              		.loc 1 108 0
 190 004c 18D08DE2 		add	sp, sp, #24
 191              		.cfi_def_cfa_offset 8
 192              		@ sp needed
 193 0050 1080BDE8 		pop	{r4, pc}
 194              	.L14:
 195              		.align	2
 196              	.L13:
 197 0054 00000000 		.word	.LANCHOR0
 198 0058 00300020 		.word	536883200
 199 005c 00000000 		.word	tm_stop
 200 0060 00000000 		.word	tm_start
 201              		.cfi_endproc
 202              	.LFE9:
 203              		.size	tmInit, .-tmInit
 204              		.section	.text.tmObjectInit,"ax",%progbits
 205              		.align	2
 206              		.global	tmObjectInit
 207              		.syntax unified
 208              		.arm
 209              		.fpu softvfp
 210              		.type	tmObjectInit, %function
 211              	tmObjectInit:
 212              	.LFB10:
 213              		.loc 1 117 0
 214              		.cfi_startproc
 215              		@ args = 0, pretend = 0, frame = 0
 216              		@ frame_needed = 0, uses_anonymous_args = 0
 217              		@ link register save eliminated.
 218              	.LVL9:
 219              		.loc 1 121 0
 220 0000 0030A0E3 		mov	r3, #0
 221              		.loc 1 123 0
 222 0004 0020E0E3 		mvn	r2, #0
 223              		.loc 1 119 0
 224 0008 18C09FE5 		ldr	ip, .L16
 225              		.loc 1 120 0
 226 000c 18109FE5 		ldr	r1, .L16+4
 227              		.loc 1 119 0
 228 0010 00C080E5 		str	ip, [r0]
ARM GAS  /var/folders/3j/4xdnk5197cv_b7cw3n33qk7r0000gn/T//ccZ3z8uE.s 			page 5


 229              		.loc 1 120 0
 230 0014 041080E5 		str	r1, [r0, #4]
 231              		.loc 1 123 0
 232 0018 102080E5 		str	r2, [r0, #16]
 233              		.loc 1 121 0
 234 001c 083080E5 		str	r3, [r0, #8]
 235              		.loc 1 122 0
 236 0020 0C3080E5 		str	r3, [r0, #12]
 237              		.loc 1 124 0
 238 0024 1EFF2FE1 		bx	lr
 239              	.L17:
 240              		.align	2
 241              	.L16:
 242 0028 00000000 		.word	tm_start
 243 002c 00000000 		.word	tm_stop
 244              		.cfi_endproc
 245              	.LFE10:
 246              		.size	tmObjectInit, .-tmObjectInit
 247              		.section	.bss.measurement_offset,"aw",%nobits
 248              		.align	2
 249              		.set	.LANCHOR0,. + 0
 250              		.type	measurement_offset, %object
 251              		.size	measurement_offset, 4
 252              	measurement_offset:
 253 0000 00000000 		.space	4
 254              		.text
 255              	.Letext0:
 256              		.file 2 "/usr/local/Cellar/gcc-arm-none-eabi/20180627/lib/gcc/arm-none-eabi/7.3.1/include/stddef.h
 257              		.file 3 "/usr/local/Cellar/gcc-arm-none-eabi/20180627/arm-none-eabi/include/machine/_default_types
 258              		.file 4 "/usr/local/Cellar/gcc-arm-none-eabi/20180627/arm-none-eabi/include/sys/_stdint.h"
 259              		.file 5 "..//os/ports/GCC/ARM/chtypes.h"
 260              		.file 6 "..//os/kernel/include/chlists.h"
 261              		.file 7 "..//os/kernel/include/chthreads.h"
 262              		.file 8 "..//os/ports/GCC/ARM/chcore.h"
 263              		.file 9 "..//os/kernel/include/chvt.h"
 264              		.file 10 "..//os/kernel/include/chschd.h"
 265              		.file 11 "..//os/kernel/include/chmtx.h"
 266              		.file 12 "..//os/kernel/include/chevents.h"
 267              		.file 13 "..//os/kernel/include/chregistry.h"
 268              		.file 14 "..//os/kernel/include/chqueues.h"
 269              		.file 15 "..//os/kernel/include/ch.h"
 270              		.file 16 "..//os/hal/platforms/BCM2835/bcm2835.h"
 271              		.file 17 "..//os/hal/platforms/BCM2835/hal_lld.h"
 272              		.file 18 "..//os/hal/include/tm.h"
 273              		.file 19 "..//os/hal/platforms/BCM2835/pal_lld.h"
 274              		.file 20 "..//os/hal/include/i2c.h"
 275              		.file 21 "..//os/hal/platforms/BCM2835/i2c_lld.h"
 276              		.file 22 "..//os/hal/include/serial.h"
 277              		.file 23 "..//os/hal/include/spi.h"
 278              		.file 24 "..//os/hal/platforms/BCM2835/spi_lld.h"
 279              		.file 25 "..//os/hal/platforms/BCM2835/serial_lld.h"