ARM GAS  /var/folders/3j/4xdnk5197cv_b7cw3n33qk7r0000gn/T//ccLoT9Qc.s 			page 1


   1              		.cpu arm1176jz-s
   2              		.eabi_attribute 20, 1
   3              		.eabi_attribute 21, 1
   4              		.eabi_attribute 23, 3
   5              		.eabi_attribute 24, 1
   6              		.eabi_attribute 25, 1
   7              		.eabi_attribute 26, 1
   8              		.eabi_attribute 30, 2
   9              		.eabi_attribute 34, 1
  10              		.eabi_attribute 18, 4
  11              		.file	"vl53l0x_api_core.c"
  12              		.text
  13              	.Ltext0:
  14              		.cfi_sections	.debug_frame
  15              		.section	.text.VL53L0X_encode_timeout.part.0,"ax",%progbits
  16              		.align	2
  17              		.syntax unified
  18              		.arm
  19              		.fpu softvfp
  20              		.type	VL53L0X_encode_timeout.part.0, %function
  21              	VL53L0X_encode_timeout.part.0:
  22              	.LFB28:
  23              		.file 1 "..//VL53L0X_Api/core/src/vl53l0x_api_core.c"
  24              		.loc 1 499 0
  25              		.cfi_startproc
  26              		@ args = 0, pretend = 0, frame = 0
  27              		@ frame_needed = 0, uses_anonymous_args = 0
  28              		@ link register save eliminated.
  29              	.LVL0:
  30              		.loc 1 510 0
  31 0000 010040E2 		sub	r0, r0, #1
  32              	.LVL1:
  33              		.loc 1 512 0
  34 0004 FF30D0E3 		bics	r3, r0, #255
  35 0008 0800000A 		beq	.L2
  36              		.loc 1 507 0
  37 000c 0030A0E3 		mov	r3, #0
  38              	.LVL2:
  39              	.L3:
  40              		.loc 1 513 0
  41 0010 A000A0E1 		lsr	r0, r0, #1
  42              	.LVL3:
  43              		.loc 1 512 0
  44 0014 FF20C0E3 		bic	r2, r0, #255
  45              		.loc 1 514 0
  46 0018 013083E2 		add	r3, r3, #1
  47              	.LVL4:
  48              		.loc 1 512 0
  49 001c 000052E3 		cmp	r2, #0
  50              		.loc 1 514 0
  51 0020 7330FFE6 		uxth	r3, r3
  52              	.LVL5:
  53              		.loc 1 512 0
  54 0024 F9FFFF1A 		bne	.L3
  55 0028 0334A0E1 		lsl	r3, r3, #8
  56              	.LVL6:
  57 002c 7330FFE6 		uxth	r3, r3
ARM GAS  /var/folders/3j/4xdnk5197cv_b7cw3n33qk7r0000gn/T//ccLoT9Qc.s 			page 2


  58              	.L2:
  59              	.LVL7:
  60              		.loc 1 517 0
  61 0030 000083E0 		add	r0, r3, r0
  62              	.LVL8:
  63              		.loc 1 523 0
  64 0034 7000FFE6 		uxth	r0, r0
  65 0038 1EFF2FE1 		bx	lr
  66              		.cfi_endproc
  67              	.LFE28:
  68              		.size	VL53L0X_encode_timeout.part.0, .-VL53L0X_encode_timeout.part.0
  69              		.global	__aeabi_uidiv
  70              		.section	.text.set_sequence_step_timeout.part.1,"ax",%progbits
  71              		.align	2
  72              		.syntax unified
  73              		.arm
  74              		.fpu softvfp
  75              		.type	set_sequence_step_timeout.part.1, %function
  76              	set_sequence_step_timeout.part.1:
  77              	.LFB29:
  78              		.loc 1 687 0
  79              		.cfi_startproc
  80              		@ args = 0, pretend = 0, frame = 16
  81              		@ frame_needed = 0, uses_anonymous_args = 0
  82              	.LVL9:
  83 0000 F04D2DE9 		push	{r4, r5, r6, r7, r8, r10, fp, lr}
  84              		.cfi_def_cfa_offset 32
  85              		.cfi_offset 4, -32
  86              		.cfi_offset 5, -28
  87              		.cfi_offset 6, -24
  88              		.cfi_offset 7, -20
  89              		.cfi_offset 8, -16
  90              		.cfi_offset 10, -12
  91              		.cfi_offset 11, -8
  92              		.cfi_offset 14, -4
  93              		.loc 1 732 0
  94 0004 030051E3 		cmp	r1, #3
  95              		.loc 1 687 0
  96 0008 10D04DE2 		sub	sp, sp, #16
  97              		.cfi_def_cfa_offset 48
  98              		.loc 1 687 0
  99 000c 0270A0E1 		mov	r7, r2
 100 0010 0080A0E1 		mov	r8, r0
 101              		.loc 1 732 0
 102 0014 3B00000A 		beq	.L18
 103              		.loc 1 762 0
 104 0018 040051E3 		cmp	r1, #4
 105 001c 6100001A 		bne	.L14
 106              		.loc 1 770 0
 107 0020 08108DE2 		add	r1, sp, #8
 108              	.LVL10:
 109 0024 FEFFFFEB 		bl	VL53L0X_GetSequenceStepEnables
 110              	.LVL11:
 111              		.loc 1 773 0
 112 0028 0B60DDE5 		ldrb	r6, [sp, #11]	@ zero_extendqisi2
 113              		.loc 1 776 0
 114 002c 05508DE2 		add	r5, sp, #5
ARM GAS  /var/folders/3j/4xdnk5197cv_b7cw3n33qk7r0000gn/T//ccLoT9Qc.s 			page 3


 115              		.loc 1 773 0
 116 0030 000056E3 		cmp	r6, #0
 117 0034 1400000A 		beq	.L11
 118              		.loc 1 776 0
 119 0038 0520A0E1 		mov	r2, r5
 120 003c 0010A0E3 		mov	r1, #0
 121 0040 0800A0E1 		mov	r0, r8
 122 0044 FEFFFFEB 		bl	VL53L0X_GetVcselPulsePeriod
 123              	.LVL12:
 124              		.loc 1 782 0
 125 0048 004050E2 		subs	r4, r0, #0
 126 004c 0200000A 		beq	.L19
 127              	.LVL13:
 128              	.L10:
 129              		.loc 1 829 0
 130 0050 0400A0E1 		mov	r0, r4
 131 0054 10D08DE2 		add	sp, sp, #16
 132              		.cfi_remember_state
 133              		.cfi_def_cfa_offset 32
 134              		@ sp needed
 135 0058 F08DBDE8 		pop	{r4, r5, r6, r7, r8, r10, fp, pc}
 136              	.LVL14:
 137              	.L19:
 138              		.cfi_restore_state
 139              		.loc 1 783 0
 140 005c 06208DE2 		add	r2, sp, #6
 141 0060 5110A0E3 		mov	r1, #81
 142 0064 0800A0E1 		mov	r0, r8
 143              	.LVL15:
 144 0068 FEFFFFEB 		bl	VL53L0X_RdWord
 145              	.LVL16:
 146              		.loc 1 786 0
 147 006c B630DDE1 		ldrh	r3, [sp, #6]
 148              		.loc 1 794 0
 149 0070 004050E2 		subs	r4, r0, #0
 150              	.LBB108:
 151              	.LBB109:
 152              		.loc 1 533 0
 153 0074 7360EFE6 		uxtb	r6, r3
 154              		.loc 1 534 0
 155 0078 2334A0E1 		lsr	r3, r3, #8
 156 007c 1663A0E1 		lsl	r6, r6, r3
 157              		.loc 1 533 0
 158 0080 016086E2 		add	r6, r6, #1
 159              	.LBE109:
 160              	.LBE108:
 161              		.loc 1 785 0
 162 0084 7660FFE6 		uxth	r6, r6
 163              	.LVL17:
 164              		.loc 1 794 0
 165 0088 F0FFFF1A 		bne	.L10
 166              	.LVL18:
 167              	.L11:
 168              		.loc 1 796 0
 169 008c 0520A0E1 		mov	r2, r5
 170 0090 0110A0E3 		mov	r1, #1
 171 0094 0800A0E1 		mov	r0, r8
ARM GAS  /var/folders/3j/4xdnk5197cv_b7cw3n33qk7r0000gn/T//ccLoT9Qc.s 			page 4


 172 0098 FEFFFFEB 		bl	VL53L0X_GetVcselPulsePeriod
 173              	.LVL19:
 174              		.loc 1 800 0
 175 009c 004050E2 		subs	r4, r0, #0
 176 00a0 EAFFFF1A 		bne	.L10
 177              	.LVL20:
 178              	.LBB110:
 179              	.LBB111:
 180              	.LBB112:
 181              	.LBB113:
 182              		.loc 1 493 0
 183 00a4 0530DDE5 		ldrb	r3, [sp, #5]	@ zero_extendqisi2
 184              	.LBE113:
 185              	.LBE112:
 186              		.loc 1 554 0
 187 00a8 00019FE5 		ldr	r0, .L22
 188              	.LVL21:
 189              	.LBB115:
 190              	.LBB114:
 191              		.loc 1 492 0
 192 00ac 834263E0 		rsb	r4, r3, r3, lsl #5
 193 00b0 843283E0 		add	r3, r3, r4, lsl #5
 194 00b4 033263E0 		rsb	r3, r3, r3, lsl #4
 195 00b8 0344A0E1 		lsl	r4, r3, #8
 196              	.LBE114:
 197              	.LBE115:
 198              		.loc 1 550 0
 199 00bc 7D4F84E2 		add	r4, r4, #500
 200              	.LVL22:
 201              		.loc 1 554 0
 202 00c0 944085E0 		umull	r4, r5, r4, r0
 203              		.loc 1 553 0
 204 00c4 873267E0 		rsb	r3, r7, r7, lsl #5
 205 00c8 033187E0 		add	r3, r7, r3, lsl #2
 206              		.loc 1 554 0
 207 00cc A503A0E1 		lsr	r0, r5, #7
 208              		.loc 1 552 0
 209 00d0 2513A0E1 		lsr	r1, r5, #6
 210 00d4 830180E0 		add	r0, r0, r3, lsl #3
 211 00d8 FEFFFFEB 		bl	__aeabi_uidiv
 212              	.LVL23:
 213              	.LBE111:
 214              	.LBE110:
 215              	.LBB116:
 216              	.LBB117:
 217              		.loc 1 509 0
 218 00dc 060090E0 		adds	r0, r0, r6
 219              	.LVL24:
 220              		.loc 1 505 0
 221 00e0 0020A001 		moveq	r2, r0
 222              		.loc 1 509 0
 223 00e4 2C00001A 		bne	.L20
 224              	.LVL25:
 225              	.L12:
 226              	.LBE117:
 227              	.LBE116:
 228              		.loc 1 813 0
ARM GAS  /var/folders/3j/4xdnk5197cv_b7cw3n33qk7r0000gn/T//ccLoT9Qc.s 			page 5


 229 00e8 7110A0E3 		mov	r1, #113
 230 00ec 0800A0E1 		mov	r0, r8
 231 00f0 FEFFFFEB 		bl	VL53L0X_WrWord
 232              	.LVL26:
 233              		.loc 1 817 0
 234 00f4 004050E2 		subs	r4, r0, #0
 235              		.loc 1 829 0
 236 00f8 0400A0E1 		mov	r0, r4
 237              	.LVL27:
 238              		.loc 1 818 0
 239 00fc DC708805 		streq	r7, [r8, #220]
 240              	.LVL28:
 241              		.loc 1 829 0
 242 0100 10D08DE2 		add	sp, sp, #16
 243              		.cfi_remember_state
 244              		.cfi_def_cfa_offset 32
 245              		@ sp needed
 246 0104 F08DBDE8 		pop	{r4, r5, r6, r7, r8, r10, fp, pc}
 247              	.LVL29:
 248              	.L18:
 249              		.cfi_restore_state
 250              		.loc 1 735 0
 251 0108 05208DE2 		add	r2, sp, #5
 252              	.LVL30:
 253 010c 0010A0E3 		mov	r1, #0
 254              	.LVL31:
 255 0110 FEFFFFEB 		bl	VL53L0X_GetVcselPulsePeriod
 256              	.LVL32:
 257              	.LBB119:
 258              	.LBB120:
 259              	.LBB121:
 260              	.LBB122:
 261              		.loc 1 493 0
 262 0114 0530DDE5 		ldrb	r3, [sp, #5]	@ zero_extendqisi2
 263              	.LBE122:
 264              	.LBE121:
 265              	.LBE120:
 266              	.LBE119:
 267              		.loc 1 735 0
 268 0118 0040A0E1 		mov	r4, r0
 269              	.LVL33:
 270              	.LBB128:
 271              	.LBB127:
 272              	.LBB125:
 273              	.LBB123:
 274              		.loc 1 492 0
 275 011c 832263E0 		rsb	r2, r3, r3, lsl #5
 276 0120 823283E0 		add	r3, r3, r2, lsl #5
 277 0124 033263E0 		rsb	r3, r3, r3, lsl #4
 278              	.LBE123:
 279              	.LBE125:
 280              		.loc 1 554 0
 281 0128 80009FE5 		ldr	r0, .L22
 282              	.LBB126:
 283              	.LBB124:
 284              		.loc 1 492 0
 285 012c 0324A0E1 		lsl	r2, r3, #8
ARM GAS  /var/folders/3j/4xdnk5197cv_b7cw3n33qk7r0000gn/T//ccLoT9Qc.s 			page 6


 286              	.LBE124:
 287              	.LBE126:
 288              		.loc 1 550 0
 289 0130 7D2F82E2 		add	r2, r2, #500
 290              	.LVL34:
 291              		.loc 1 554 0
 292 0134 92A08BE0 		umull	r10, fp, r2, r0
 293              		.loc 1 553 0
 294 0138 872267E0 		rsb	r2, r7, r7, lsl #5
 295              	.LVL35:
 296 013c 022187E0 		add	r2, r7, r2, lsl #2
 297              		.loc 1 554 0
 298 0140 AB03A0E1 		lsr	r0, fp, #7
 299              		.loc 1 552 0
 300 0144 2B13A0E1 		lsr	r1, fp, #6
 301 0148 820180E0 		add	r0, r0, r2, lsl #3
 302 014c FEFFFFEB 		bl	__aeabi_uidiv
 303              	.LVL36:
 304 0150 7000FFE6 		uxth	r0, r0
 305              	.LVL37:
 306              	.LBE127:
 307              	.LBE128:
 308              	.LBB129:
 309              	.LBB130:
 310              		.loc 1 509 0
 311 0154 000050E3 		cmp	r0, #0
 312 0158 0D00001A 		bne	.L21
 313              	.LVL38:
 314              	.L9:
 315              	.LBE130:
 316              	.LBE129:
 317              		.loc 1 750 0
 318 015c 000054E3 		cmp	r4, #0
 319              		.loc 1 742 0
 320 0160 B600CDE1 		strh	r0, [sp, #6]	@ movhi
 321              		.loc 1 745 0
 322 0164 B80DC8E1 		strh	r0, [r8, #216]	@ movhi
 323              		.loc 1 750 0
 324 0168 B8FFFF1A 		bne	.L10
 325              		.loc 1 751 0
 326 016c 0020A0E1 		mov	r2, r0
 327 0170 5110A0E3 		mov	r1, #81
 328 0174 0800A0E1 		mov	r0, r8
 329 0178 FEFFFFEB 		bl	VL53L0X_WrWord
 330              	.LVL39:
 331              		.loc 1 756 0
 332 017c 004050E2 		subs	r4, r0, #0
 333 0180 B2FFFF1A 		bne	.L10
 334              		.loc 1 829 0
 335 0184 0400A0E1 		mov	r0, r4
 336              	.LVL40:
 337              		.loc 1 757 0
 338 0188 E47088E5 		str	r7, [r8, #228]
 339              	.LVL41:
 340              		.loc 1 829 0
 341 018c 10D08DE2 		add	sp, sp, #16
 342              		.cfi_remember_state
ARM GAS  /var/folders/3j/4xdnk5197cv_b7cw3n33qk7r0000gn/T//ccLoT9Qc.s 			page 7


 343              		.cfi_def_cfa_offset 32
 344              		@ sp needed
 345 0190 F08DBDE8 		pop	{r4, r5, r6, r7, r8, r10, fp, pc}
 346              	.LVL42:
 347              	.L21:
 348              		.cfi_restore_state
 349              	.LBB132:
 350              	.LBB131:
 351 0194 FEFFFFEB 		bl	VL53L0X_encode_timeout.part.0
 352              	.LVL43:
 353 0198 EFFFFFEA 		b	.L9
 354              	.LVL44:
 355              	.L20:
 356              	.LBE131:
 357              	.LBE132:
 358              	.LBB133:
 359              	.LBB118:
 360 019c FEFFFFEB 		bl	VL53L0X_encode_timeout.part.0
 361              	.LVL45:
 362 01a0 0020A0E1 		mov	r2, r0
 363 01a4 CFFFFFEA 		b	.L12
 364              	.LVL46:
 365              	.L14:
 366              	.LBE118:
 367              	.LBE133:
 368              		.loc 1 825 0
 369 01a8 0340E0E3 		mvn	r4, #3
 370 01ac A7FFFFEA 		b	.L10
 371              	.L23:
 372              		.align	2
 373              	.L22:
 374 01b0 D34D6210 		.word	274877907
 375              		.cfi_endproc
 376              	.LFE29:
 377              		.size	set_sequence_step_timeout.part.1, .-set_sequence_step_timeout.part.1
 378              		.section	.text.VL53L0X_reverse_bytes,"ax",%progbits
 379              		.align	2
 380              		.global	VL53L0X_reverse_bytes
 381              		.syntax unified
 382              		.arm
 383              		.fpu softvfp
 384              		.type	VL53L0X_reverse_bytes, %function
 385              	VL53L0X_reverse_bytes:
 386              	.LFB3:
 387              		.loc 1 45 0
 388              		.cfi_startproc
 389              		@ args = 0, pretend = 0, frame = 0
 390              		@ frame_needed = 0, uses_anonymous_args = 0
 391              		@ link register save eliminated.
 392              	.LVL47:
 393              		.loc 1 52 0
 394 0000 A1C0B0E1 		lsrs	ip, r1, #1
 395              	.LVL48:
 396 0004 0800000A 		beq	.L25
 397 0008 013040E2 		sub	r3, r0, #1
 398 000c 0CC083E0 		add	ip, r3, ip
 399              	.LVL49:
ARM GAS  /var/folders/3j/4xdnk5197cv_b7cw3n33qk7r0000gn/T//ccLoT9Qc.s 			page 8


 400 0010 010080E0 		add	r0, r0, r1
 401              	.LVL50:
 402              	.L26:
 403              		.loc 1 54 0 discriminator 3
 404 0014 0120F3E5 		ldrb	r2, [r3, #1]!	@ zero_extendqisi2
 405              	.LVL51:
 406              		.loc 1 55 0 discriminator 3
 407 0018 011070E5 		ldrb	r1, [r0, #-1]!	@ zero_extendqisi2
 408              	.LVL52:
 409              		.loc 1 52 0 discriminator 3
 410 001c 0C0053E1 		cmp	r3, ip
 411              		.loc 1 55 0 discriminator 3
 412 0020 0010C3E5 		strb	r1, [r3]
 413              		.loc 1 56 0 discriminator 3
 414 0024 0020C0E5 		strb	r2, [r0]
 415              	.LVL53:
 416              		.loc 1 52 0 discriminator 3
 417 0028 F9FFFF1A 		bne	.L26
 418              	.LVL54:
 419              	.L25:
 420              		.loc 1 59 0
 421 002c 0000A0E3 		mov	r0, #0
 422 0030 1EFF2FE1 		bx	lr
 423              		.cfi_endproc
 424              	.LFE3:
 425              		.size	VL53L0X_reverse_bytes, .-VL53L0X_reverse_bytes
 426              		.section	.text.VL53L0X_measurement_poll_for_completion,"ax",%progbits
 427              		.align	2
 428              		.global	VL53L0X_measurement_poll_for_completion
 429              		.syntax unified
 430              		.arm
 431              		.fpu softvfp
 432              		.type	VL53L0X_measurement_poll_for_completion, %function
 433              	VL53L0X_measurement_poll_for_completion:
 434              	.LFB4:
 435              		.loc 1 62 0
 436              		.cfi_startproc
 437              		@ args = 0, pretend = 0, frame = 8
 438              		@ frame_needed = 0, uses_anonymous_args = 0
 439              	.LVL55:
 440              		.loc 1 64 0
 441 0000 0030A0E3 		mov	r3, #0
 442              		.loc 1 62 0
 443 0004 70402DE9 		push	{r4, r5, r6, lr}
 444              		.cfi_def_cfa_offset 16
 445              		.cfi_offset 4, -16
 446              		.cfi_offset 5, -12
 447              		.cfi_offset 6, -8
 448              		.cfi_offset 14, -4
 449 0008 08D04DE2 		sub	sp, sp, #8
 450              		.cfi_def_cfa_offset 24
 451              		.loc 1 64 0
 452 000c 08608DE2 		add	r6, sp, #8
 453              		.loc 1 62 0
 454 0010 0050A0E1 		mov	r5, r0
 455              		.loc 1 64 0
 456 0014 7D4EA0E3 		mov	r4, #2000
ARM GAS  /var/folders/3j/4xdnk5197cv_b7cw3n33qk7r0000gn/T//ccLoT9Qc.s 			page 9


 457 0018 013066E5 		strb	r3, [r6, #-1]!
 458              	.LVL56:
 459 001c 060000EA 		b	.L33
 460              	.LVL57:
 461              	.L39:
 462              		.loc 1 76 0
 463 0020 0730DDE5 		ldrb	r3, [sp, #7]	@ zero_extendqisi2
 464 0024 010053E3 		cmp	r3, #1
 465 0028 0800000A 		beq	.L32
 466              		.loc 1 80 0
 467 002c 014054E2 		subs	r4, r4, #1
 468              	.LVL58:
 469 0030 0800000A 		beq	.L34
 470              		.loc 1 85 0
 471 0034 0500A0E1 		mov	r0, r5
 472 0038 FEFFFFEB 		bl	VL53L0X_PollingDelay
 473              	.LVL59:
 474              	.L33:
 475              		.loc 1 72 0
 476 003c 0610A0E1 		mov	r1, r6
 477 0040 0500A0E1 		mov	r0, r5
 478 0044 FEFFFFEB 		bl	VL53L0X_GetMeasurementDataReady
 479              	.LVL60:
 480              		.loc 1 73 0
 481 0048 000050E3 		cmp	r0, #0
 482              	.LVL61:
 483 004c F3FFFF0A 		beq	.L39
 484              	.LVL62:
 485              	.L32:
 486              		.loc 1 91 0
 487 0050 08D08DE2 		add	sp, sp, #8
 488              		.cfi_remember_state
 489              		.cfi_def_cfa_offset 16
 490              		@ sp needed
 491 0054 7080BDE8 		pop	{r4, r5, r6, pc}
 492              	.LVL63:
 493              	.L34:
 494              		.cfi_restore_state
 495              		.loc 1 81 0
 496 0058 0600E0E3 		mvn	r0, #6
 497 005c FBFFFFEA 		b	.L32
 498              		.cfi_endproc
 499              	.LFE4:
 500              		.size	VL53L0X_measurement_poll_for_completion, .-VL53L0X_measurement_poll_for_completion
 501              		.section	.text.VL53L0X_decode_vcsel_period,"ax",%progbits
 502              		.align	2
 503              		.global	VL53L0X_decode_vcsel_period
 504              		.syntax unified
 505              		.arm
 506              		.fpu softvfp
 507              		.type	VL53L0X_decode_vcsel_period, %function
 508              	VL53L0X_decode_vcsel_period:
 509              	.LFB5:
 510              		.loc 1 95 0
 511              		.cfi_startproc
 512              		@ args = 0, pretend = 0, frame = 0
 513              		@ frame_needed = 0, uses_anonymous_args = 0
ARM GAS  /var/folders/3j/4xdnk5197cv_b7cw3n33qk7r0000gn/T//ccLoT9Qc.s 			page 10


 514              		@ link register save eliminated.
 515              	.LVL64:
 516              		.loc 1 103 0
 517 0000 010080E2 		add	r0, r0, #1
 518              	.LVL65:
 519 0004 8000A0E1 		lsl	r0, r0, #1
 520              		.loc 1 106 0
 521 0008 FE0000E2 		and	r0, r0, #254
 522 000c 1EFF2FE1 		bx	lr
 523              		.cfi_endproc
 524              	.LFE5:
 525              		.size	VL53L0X_decode_vcsel_period, .-VL53L0X_decode_vcsel_period
 526              		.section	.text.VL53L0X_encode_vcsel_period,"ax",%progbits
 527              		.align	2
 528              		.global	VL53L0X_encode_vcsel_period
 529              		.syntax unified
 530              		.arm
 531              		.fpu softvfp
 532              		.type	VL53L0X_encode_vcsel_period, %function
 533              	VL53L0X_encode_vcsel_period:
 534              	.LFB6:
 535              		.loc 1 109 0
 536              		.cfi_startproc
 537              		@ args = 0, pretend = 0, frame = 0
 538              		@ frame_needed = 0, uses_anonymous_args = 0
 539              		@ link register save eliminated.
 540              	.LVL66:
 541              		.loc 1 117 0
 542 0000 A000A0E1 		lsr	r0, r0, #1
 543              	.LVL67:
 544 0004 010040E2 		sub	r0, r0, #1
 545              		.loc 1 120 0
 546 0008 7000EFE6 		uxtb	r0, r0
 547 000c 1EFF2FE1 		bx	lr
 548              		.cfi_endproc
 549              	.LFE6:
 550              		.size	VL53L0X_encode_vcsel_period, .-VL53L0X_encode_vcsel_period
 551              		.section	.text.VL53L0X_isqrt,"ax",%progbits
 552              		.align	2
 553              		.global	VL53L0X_isqrt
 554              		.syntax unified
 555              		.arm
 556              		.fpu softvfp
 557              		.type	VL53L0X_isqrt, %function
 558              	VL53L0X_isqrt:
 559              	.LFB7:
 560              		.loc 1 124 0
 561              		.cfi_startproc
 562              		@ args = 0, pretend = 0, frame = 0
 563              		@ frame_needed = 0, uses_anonymous_args = 0
 564              		@ link register save eliminated.
 565              	.LVL68:
 566              		.loc 1 137 0
 567 0000 070170E3 		cmn	r0, #-1073741823
 568              		.loc 1 132 0
 569 0004 0131A0E3 		mov	r3, #1073741824
 570              		.loc 1 137 0
ARM GAS  /var/folders/3j/4xdnk5197cv_b7cw3n33qk7r0000gn/T//ccLoT9Qc.s 			page 11


 571 0008 0400008A 		bhi	.L43
 572              	.LVL69:
 573              	.L44:
 574              		.loc 1 138 0
 575 000c 2331A0E1 		lsr	r3, r3, #2
 576              	.LVL70:
 577              		.loc 1 137 0
 578 0010 030050E1 		cmp	r0, r3
 579 0014 FCFFFF3A 		bcc	.L44
 580              		.loc 1 141 0
 581 0018 000053E3 		cmp	r3, #0
 582 001c 0900000A 		beq	.L52
 583              	.LVL71:
 584              	.L43:
 585              		.loc 1 132 0
 586 0020 0020A0E3 		mov	r2, #0
 587              	.LVL72:
 588              	.L47:
 589              		.loc 1 142 0
 590 0024 031082E0 		add	r1, r2, r3
 591 0028 000051E1 		cmp	r1, r0
 592 002c A220A0E1 		lsr	r2, r2, #1
 593              	.LVL73:
 594              		.loc 1 143 0
 595 0030 01004090 		subls	r0, r0, r1
 596              	.LVL74:
 597              		.loc 1 144 0
 598 0034 03208290 		addls	r2, r2, r3
 599              	.LVL75:
 600              		.loc 1 141 0
 601 0038 2331B0E1 		lsrs	r3, r3, #2
 602              	.LVL76:
 603 003c F8FFFF1A 		bne	.L47
 604              		.loc 1 152 0
 605 0040 0200A0E1 		mov	r0, r2
 606              	.LVL77:
 607 0044 1EFF2FE1 		bx	lr
 608              	.LVL78:
 609              	.L52:
 610              		.loc 1 131 0
 611 0048 0320A0E1 		mov	r2, r3
 612              		.loc 1 152 0
 613 004c 0200A0E1 		mov	r0, r2
 614              	.LVL79:
 615 0050 1EFF2FE1 		bx	lr
 616              		.cfi_endproc
 617              	.LFE7:
 618              		.size	VL53L0X_isqrt, .-VL53L0X_isqrt
 619              		.section	.text.VL53L0X_quadrature_sum,"ax",%progbits
 620              		.align	2
 621              		.global	VL53L0X_quadrature_sum
 622              		.syntax unified
 623              		.arm
 624              		.fpu softvfp
 625              		.type	VL53L0X_quadrature_sum, %function
 626              	VL53L0X_quadrature_sum:
 627              	.LFB8:
ARM GAS  /var/folders/3j/4xdnk5197cv_b7cw3n33qk7r0000gn/T//ccLoT9Qc.s 			page 12


 628              		.loc 1 156 0
 629              		.cfi_startproc
 630              		@ args = 0, pretend = 0, frame = 0
 631              		@ frame_needed = 0, uses_anonymous_args = 0
 632              		@ link register save eliminated.
 633              	.LVL80:
 634              		.loc 1 169 0
 635 0000 5C309FE5 		ldr	r3, .L65
 636 0004 030051E1 		cmp	r1, r3
 637 0008 03005091 		cmpls	r0, r3
 638 000c 1200008A 		bhi	.L61
 639              		.loc 1 172 0
 640 0010 910101E0 		mul	r1, r1, r1
 641              	.LVL81:
 642 0014 901021E0 		mla	r1, r0, r0, r1
 643              	.LVL82:
 644              	.LBB134:
 645              	.LBB135:
 646              		.loc 1 137 0
 647 0018 070171E3 		cmn	r1, #-1073741823
 648              		.loc 1 132 0
 649 001c 0131A0E3 		mov	r3, #1073741824
 650              		.loc 1 137 0
 651 0020 0400008A 		bhi	.L55
 652              	.LVL83:
 653              	.L56:
 654              		.loc 1 138 0
 655 0024 2331A0E1 		lsr	r3, r3, #2
 656              	.LVL84:
 657              		.loc 1 137 0
 658 0028 030051E1 		cmp	r1, r3
 659 002c FCFFFF3A 		bcc	.L56
 660              		.loc 1 141 0
 661 0030 000053E3 		cmp	r3, #0
 662 0034 0800000A 		beq	.L61
 663              	.LVL85:
 664              	.L55:
 665              		.loc 1 132 0
 666 0038 0000A0E3 		mov	r0, #0
 667              	.LVL86:
 668              	.L58:
 669              		.loc 1 142 0
 670 003c 032080E0 		add	r2, r0, r3
 671 0040 010052E1 		cmp	r2, r1
 672 0044 A000A0E1 		lsr	r0, r0, #1
 673              	.LVL87:
 674              		.loc 1 143 0
 675 0048 02104190 		subls	r1, r1, r2
 676              	.LVL88:
 677              		.loc 1 144 0
 678 004c 03008090 		addls	r0, r0, r3
 679              	.LVL89:
 680              		.loc 1 141 0
 681 0050 2331B0E1 		lsrs	r3, r3, #2
 682              	.LVL90:
 683 0054 F8FFFF1A 		bne	.L58
 684 0058 1EFF2FE1 		bx	lr
ARM GAS  /var/folders/3j/4xdnk5197cv_b7cw3n33qk7r0000gn/T//ccLoT9Qc.s 			page 13


 685              	.LVL91:
 686              	.L61:
 687              		.loc 1 131 0
 688 005c 0300A0E1 		mov	r0, r3
 689              	.LVL92:
 690              	.LBE135:
 691              	.LBE134:
 692              		.loc 1 175 0
 693 0060 1EFF2FE1 		bx	lr
 694              	.L66:
 695              		.align	2
 696              	.L65:
 697 0064 FFFF0000 		.word	65535
 698              		.cfi_endproc
 699              	.LFE8:
 700              		.size	VL53L0X_quadrature_sum, .-VL53L0X_quadrature_sum
 701              		.section	.text.VL53L0X_device_read_strobe,"ax",%progbits
 702              		.align	2
 703              		.global	VL53L0X_device_read_strobe
 704              		.syntax unified
 705              		.arm
 706              		.fpu softvfp
 707              		.type	VL53L0X_device_read_strobe, %function
 708              	VL53L0X_device_read_strobe:
 709              	.LFB9:
 710              		.loc 1 179 0
 711              		.cfi_startproc
 712              		@ args = 0, pretend = 0, frame = 8
 713              		@ frame_needed = 0, uses_anonymous_args = 0
 714              	.LVL93:
 715 0000 70402DE9 		push	{r4, r5, r6, lr}
 716              		.cfi_def_cfa_offset 16
 717              		.cfi_offset 4, -16
 718              		.cfi_offset 5, -12
 719              		.cfi_offset 6, -8
 720              		.cfi_offset 14, -4
 721              		.loc 1 185 0
 722 0004 0020A0E3 		mov	r2, #0
 723              		.loc 1 179 0
 724 0008 08D04DE2 		sub	sp, sp, #8
 725              		.cfi_def_cfa_offset 24
 726              		.loc 1 185 0
 727 000c 8310A0E3 		mov	r1, #131
 728              		.loc 1 179 0
 729 0010 0060A0E1 		mov	r6, r0
 730              		.loc 1 185 0
 731 0014 FEFFFFEB 		bl	VL53L0X_WrByte
 732              	.LVL94:
 733              		.loc 1 189 0
 734 0018 005050E2 		subs	r5, r0, #0
 735 001c 0C00001A 		bne	.L68
 736 0020 7D4EA0E3 		mov	r4, #2000
 737 0024 010000EA 		b	.L69
 738              	.LVL95:
 739              	.L73:
 740              		.loc 1 197 0
 741 0028 014054E2 		subs	r4, r4, #1
ARM GAS  /var/folders/3j/4xdnk5197cv_b7cw3n33qk7r0000gn/T//ccLoT9Qc.s 			page 14


 742              	.LVL96:
 743 002c 1000000A 		beq	.L72
 744              	.LVL97:
 745              	.L69:
 746              		.loc 1 192 0
 747 0030 07208DE2 		add	r2, sp, #7
 748 0034 8310A0E3 		mov	r1, #131
 749 0038 0600A0E1 		mov	r0, r6
 750              	.LVL98:
 751 003c FEFFFFEB 		bl	VL53L0X_RdByte
 752              	.LVL99:
 753              		.loc 1 193 0
 754 0040 0730DDE5 		ldrb	r3, [sp, #7]	@ zero_extendqisi2
 755              		.loc 1 192 0
 756 0044 0050A0E1 		mov	r5, r0
 757              	.LVL100:
 758              		.loc 1 193 0
 759 0048 033080E1 		orr	r3, r0, r3
 760 004c FF0013E3 		tst	r3, #255
 761 0050 F4FFFF0A 		beq	.L73
 762              	.LVL101:
 763              	.L68:
 764              		.loc 1 204 0
 765 0054 0600A0E1 		mov	r0, r6
 766 0058 0120A0E3 		mov	r2, #1
 767 005c 8310A0E3 		mov	r1, #131
 768 0060 FEFFFFEB 		bl	VL53L0X_WrByte
 769              	.LVL102:
 770 0064 000085E1 		orr	r0, r5, r0
 771              	.LVL103:
 772              		.loc 1 209 0
 773 0068 7000AFE6 		sxtb	r0, r0
 774 006c 08D08DE2 		add	sp, sp, #8
 775              		.cfi_remember_state
 776              		.cfi_def_cfa_offset 16
 777              		@ sp needed
 778 0070 7080BDE8 		pop	{r4, r5, r6, pc}
 779              	.LVL104:
 780              	.L72:
 781              		.cfi_restore_state
 782              		.loc 1 200 0
 783 0074 0650E0E3 		mvn	r5, #6
 784 0078 F5FFFFEA 		b	.L68
 785              		.cfi_endproc
 786              	.LFE9:
 787              		.size	VL53L0X_device_read_strobe, .-VL53L0X_device_read_strobe
 788              		.section	.text.VL53L0X_get_info_from_device,"ax",%progbits
 789              		.align	2
 790              		.global	VL53L0X_get_info_from_device
 791              		.syntax unified
 792              		.arm
 793              		.fpu softvfp
 794              		.type	VL53L0X_get_info_from_device, %function
 795              	VL53L0X_get_info_from_device:
 796              	.LFB10:
 797              		.loc 1 212 0
 798              		.cfi_startproc
ARM GAS  /var/folders/3j/4xdnk5197cv_b7cw3n33qk7r0000gn/T//ccLoT9Qc.s 			page 15


 799              		@ args = 0, pretend = 0, frame = 64
 800              		@ frame_needed = 0, uses_anonymous_args = 0
 801              	.LVL105:
 802 0000 F04F2DE9 		push	{r4, r5, r6, r7, r8, r9, r10, fp, lr}
 803              		.cfi_def_cfa_offset 36
 804              		.cfi_offset 4, -36
 805              		.cfi_offset 5, -32
 806              		.cfi_offset 6, -28
 807              		.cfi_offset 7, -24
 808              		.cfi_offset 8, -20
 809              		.cfi_offset 9, -16
 810              		.cfi_offset 10, -12
 811              		.cfi_offset 11, -8
 812              		.cfi_offset 14, -4
 813              		.loc 1 221 0
 814 0004 0090A0E3 		mov	r9, #0
 815              		.loc 1 238 0
 816 0008 F070D0E5 		ldrb	r7, [r0, #240]	@ zero_extendqisi2
 817              		.loc 1 212 0
 818 000c 44D04DE2 		sub	sp, sp, #68
 819              		.cfi_def_cfa_offset 104
 820              		.loc 1 243 0
 821 0010 070057E3 		cmp	r7, #7
 822              		.loc 1 221 0
 823 0014 1C908DE5 		str	r9, [sp, #28]
 824              		.loc 1 222 0
 825 0018 20908DE5 		str	r9, [sp, #32]
 826              	.LVL106:
 827              		.loc 1 214 0
 828 001c 0940A001 		moveq	r4, r9
 829              		.loc 1 243 0
 830 0020 0200001A 		bne	.L104
 831              	.LVL107:
 832              	.L75:
 833              		.loc 1 475 0
 834 0024 0400A0E1 		mov	r0, r4
 835 0028 44D08DE2 		add	sp, sp, #68
 836              		.cfi_remember_state
 837              		.cfi_def_cfa_offset 36
 838              		@ sp needed
 839 002c F08FBDE8 		pop	{r4, r5, r6, r7, r8, r9, r10, fp, pc}
 840              	.LVL108:
 841              	.L104:
 842              		.cfi_restore_state
 843 0030 0160A0E1 		mov	r6, r1
 844              		.loc 1 245 0
 845 0034 0120A0E3 		mov	r2, #1
 846 0038 8010A0E3 		mov	r1, #128
 847              	.LVL109:
 848 003c 0050A0E1 		mov	r5, r0
 849 0040 FEFFFFEB 		bl	VL53L0X_WrByte
 850              	.LVL110:
 851              		.loc 1 246 0
 852 0044 0120A0E3 		mov	r2, #1
 853              		.loc 1 245 0
 854 0048 0080A0E1 		mov	r8, r0
 855              	.LVL111:
ARM GAS  /var/folders/3j/4xdnk5197cv_b7cw3n33qk7r0000gn/T//ccLoT9Qc.s 			page 16


 856              		.loc 1 246 0
 857 004c FF10A0E3 		mov	r1, #255
 858 0050 0500A0E1 		mov	r0, r5
 859 0054 FEFFFFEB 		bl	VL53L0X_WrByte
 860              	.LVL112:
 861              		.loc 1 247 0
 862 0058 0920A0E1 		mov	r2, r9
 863              		.loc 1 246 0
 864 005c 008088E1 		orr	r8, r8, r0
 865              	.LVL113:
 866              		.loc 1 247 0
 867 0060 0910A0E1 		mov	r1, r9
 868 0064 0500A0E1 		mov	r0, r5
 869 0068 FEFFFFEB 		bl	VL53L0X_WrByte
 870              	.LVL114:
 871              		.loc 1 246 0
 872 006c 7880AFE6 		sxtb	r8, r8
 873              	.LVL115:
 874              		.loc 1 249 0
 875 0070 0620A0E3 		mov	r2, #6
 876              		.loc 1 247 0
 877 0074 008088E1 		orr	r8, r8, r0
 878              	.LVL116:
 879              		.loc 1 249 0
 880 0078 FF10A0E3 		mov	r1, #255
 881 007c 0500A0E1 		mov	r0, r5
 882 0080 FEFFFFEB 		bl	VL53L0X_WrByte
 883              	.LVL117:
 884              		.loc 1 247 0
 885 0084 7880AFE6 		sxtb	r8, r8
 886              	.LVL118:
 887              		.loc 1 249 0
 888 0088 008088E1 		orr	r8, r8, r0
 889              	.LVL119:
 890              		.loc 1 250 0
 891 008c 15208DE2 		add	r2, sp, #21
 892 0090 8310A0E3 		mov	r1, #131
 893 0094 0500A0E1 		mov	r0, r5
 894 0098 FEFFFFEB 		bl	VL53L0X_RdByte
 895              	.LVL120:
 896              		.loc 1 251 0
 897 009c 1520DDE5 		ldrb	r2, [sp, #21]	@ zero_extendqisi2
 898              		.loc 1 249 0
 899 00a0 7880AFE6 		sxtb	r8, r8
 900              	.LVL121:
 901              		.loc 1 250 0
 902 00a4 008088E1 		orr	r8, r8, r0
 903              	.LVL122:
 904              		.loc 1 251 0
 905 00a8 042082E3 		orr	r2, r2, #4
 906 00ac 8310A0E3 		mov	r1, #131
 907 00b0 0500A0E1 		mov	r0, r5
 908 00b4 FEFFFFEB 		bl	VL53L0X_WrByte
 909              	.LVL123:
 910              		.loc 1 250 0
 911 00b8 7880AFE6 		sxtb	r8, r8
 912              	.LVL124:
ARM GAS  /var/folders/3j/4xdnk5197cv_b7cw3n33qk7r0000gn/T//ccLoT9Qc.s 			page 17


 913              		.loc 1 252 0
 914 00bc 0720A0E3 		mov	r2, #7
 915              		.loc 1 251 0
 916 00c0 008088E1 		orr	r8, r8, r0
 917              	.LVL125:
 918              		.loc 1 252 0
 919 00c4 FF10A0E3 		mov	r1, #255
 920 00c8 0500A0E1 		mov	r0, r5
 921 00cc FEFFFFEB 		bl	VL53L0X_WrByte
 922              	.LVL126:
 923              		.loc 1 251 0
 924 00d0 7880AFE6 		sxtb	r8, r8
 925              	.LVL127:
 926              		.loc 1 253 0
 927 00d4 0120A0E3 		mov	r2, #1
 928 00d8 8110A0E3 		mov	r1, #129
 929              		.loc 1 252 0
 930 00dc 008088E1 		orr	r8, r8, r0
 931              	.LVL128:
 932              		.loc 1 253 0
 933 00e0 0500A0E1 		mov	r0, r5
 934 00e4 FEFFFFEB 		bl	VL53L0X_WrByte
 935              	.LVL129:
 936              		.loc 1 252 0
 937 00e8 7880AFE6 		sxtb	r8, r8
 938              	.LVL130:
 939              		.loc 1 253 0
 940 00ec 008088E1 		orr	r8, r8, r0
 941              	.LVL131:
 942              		.loc 1 255 0
 943 00f0 0500A0E1 		mov	r0, r5
 944 00f4 FEFFFFEB 		bl	VL53L0X_PollingDelay
 945              	.LVL132:
 946              		.loc 1 253 0
 947 00f8 7880AFE6 		sxtb	r8, r8
 948              	.LVL133:
 949              		.loc 1 255 0
 950 00fc 008088E1 		orr	r8, r8, r0
 951              	.LVL134:
 952              		.loc 1 257 0
 953 0100 0120A0E3 		mov	r2, #1
 954 0104 8010A0E3 		mov	r1, #128
 955 0108 0500A0E1 		mov	r0, r5
 956 010c FEFFFFEB 		bl	VL53L0X_WrByte
 957              	.LVL135:
 958              		.loc 1 255 0
 959 0110 7880AFE6 		sxtb	r8, r8
 960              	.LVL136:
 961              		.loc 1 259 0
 962 0114 01B016E2 		ands	fp, r6, #1
 963              		.loc 1 257 0
 964 0118 000088E1 		orr	r0, r8, r0
 965 011c 7040AFE6 		sxtb	r4, r0
 966              	.LVL137:
 967              		.loc 1 220 0
 968 0120 0CB08D05 		streq	fp, [sp, #12]
 969              		.loc 1 219 0
ARM GAS  /var/folders/3j/4xdnk5197cv_b7cw3n33qk7r0000gn/T//ccLoT9Qc.s 			page 18


 970 0124 08B08D05 		streq	fp, [sp, #8]
 971              		.loc 1 259 0
 972 0128 0400000A 		beq	.L76
 973              		.loc 1 259 0 is_stmt 0 discriminator 1
 974 012c 010017E3 		tst	r7, #1
 975              		.loc 1 220 0 is_stmt 1 discriminator 1
 976 0130 0930A011 		movne	r3, r9
 977 0134 0C308D15 		strne	r3, [sp, #12]
 978              		.loc 1 219 0 discriminator 1
 979 0138 08308D15 		strne	r3, [sp, #8]
 980              		.loc 1 259 0 discriminator 1
 981 013c 8401000A 		beq	.L105
 982              	.LVL138:
 983              	.L76:
 984              		.loc 1 291 0
 985 0140 023016E2 		ands	r3, r6, #2
 986 0144 04308DE5 		str	r3, [sp, #4]
 987 0148 0100000A 		beq	.L77
 988              		.loc 1 291 0 is_stmt 0 discriminator 1
 989 014c 028017E2 		ands	r8, r7, #2
 990 0150 DB00000A 		beq	.L106
 991              	.L77:
 992              		.loc 1 356 0 is_stmt 1
 993 0154 049016E2 		ands	r9, r6, #4
 994              		.loc 1 227 0
 995 0158 09A0A001 		moveq	r10, r9
 996              		.loc 1 226 0
 997 015c 0980A001 		moveq	r8, r9
 998              		.loc 1 356 0
 999 0160 0300000A 		beq	.L78
 1000              		.loc 1 356 0 is_stmt 0 discriminator 1
 1001 0164 040017E3 		tst	r7, #4
 1002              		.loc 1 227 0 is_stmt 1 discriminator 1
 1003 0168 00A0A013 		movne	r10, #0
 1004              		.loc 1 226 0 discriminator 1
 1005 016c 0A80A011 		movne	r8, r10
 1006              		.loc 1 356 0 discriminator 1
 1007 0170 6800000A 		beq	.L107
 1008              	.LVL139:
 1009              	.L78:
 1010              		.loc 1 396 0
 1011 0174 0020A0E3 		mov	r2, #0
 1012 0178 8110A0E3 		mov	r1, #129
 1013 017c 0500A0E1 		mov	r0, r5
 1014 0180 FEFFFFEB 		bl	VL53L0X_WrByte
 1015              	.LVL140:
 1016              		.loc 1 397 0
 1017 0184 0620A0E3 		mov	r2, #6
 1018              		.loc 1 396 0
 1019 0188 004084E1 		orr	r4, r4, r0
 1020              	.LVL141:
 1021              		.loc 1 397 0
 1022 018c FF10A0E3 		mov	r1, #255
 1023 0190 0500A0E1 		mov	r0, r5
 1024 0194 FEFFFFEB 		bl	VL53L0X_WrByte
 1025              	.LVL142:
 1026              		.loc 1 396 0
ARM GAS  /var/folders/3j/4xdnk5197cv_b7cw3n33qk7r0000gn/T//ccLoT9Qc.s 			page 19


 1027 0198 7440AFE6 		sxtb	r4, r4
 1028              	.LVL143:
 1029              		.loc 1 398 0
 1030 019c 15208DE2 		add	r2, sp, #21
 1031              		.loc 1 397 0
 1032 01a0 004084E1 		orr	r4, r4, r0
 1033              	.LVL144:
 1034              		.loc 1 398 0
 1035 01a4 8310A0E3 		mov	r1, #131
 1036 01a8 0500A0E1 		mov	r0, r5
 1037 01ac FEFFFFEB 		bl	VL53L0X_RdByte
 1038              	.LVL145:
 1039              		.loc 1 399 0
 1040 01b0 1520DDE5 		ldrb	r2, [sp, #21]	@ zero_extendqisi2
 1041              		.loc 1 397 0
 1042 01b4 7440AFE6 		sxtb	r4, r4
 1043              	.LVL146:
 1044              		.loc 1 398 0
 1045 01b8 004084E1 		orr	r4, r4, r0
 1046              	.LVL147:
 1047              		.loc 1 399 0
 1048 01bc FB2002E2 		and	r2, r2, #251
 1049 01c0 8310A0E3 		mov	r1, #131
 1050 01c4 0500A0E1 		mov	r0, r5
 1051 01c8 FEFFFFEB 		bl	VL53L0X_WrByte
 1052              	.LVL148:
 1053              		.loc 1 398 0
 1054 01cc 7440AFE6 		sxtb	r4, r4
 1055              	.LVL149:
 1056              		.loc 1 400 0
 1057 01d0 0120A0E3 		mov	r2, #1
 1058              		.loc 1 399 0
 1059 01d4 004084E1 		orr	r4, r4, r0
 1060              	.LVL150:
 1061              		.loc 1 400 0
 1062 01d8 FF10A0E3 		mov	r1, #255
 1063 01dc 0500A0E1 		mov	r0, r5
 1064 01e0 FEFFFFEB 		bl	VL53L0X_WrByte
 1065              	.LVL151:
 1066              		.loc 1 399 0
 1067 01e4 7440AFE6 		sxtb	r4, r4
 1068              	.LVL152:
 1069              		.loc 1 401 0
 1070 01e8 0120A0E3 		mov	r2, #1
 1071              		.loc 1 400 0
 1072 01ec 004084E1 		orr	r4, r4, r0
 1073              	.LVL153:
 1074              		.loc 1 401 0
 1075 01f0 0010A0E3 		mov	r1, #0
 1076 01f4 0500A0E1 		mov	r0, r5
 1077 01f8 FEFFFFEB 		bl	VL53L0X_WrByte
 1078              	.LVL154:
 1079              		.loc 1 400 0
 1080 01fc 7440AFE6 		sxtb	r4, r4
 1081              	.LVL155:
 1082              		.loc 1 403 0
 1083 0200 0020A0E3 		mov	r2, #0
ARM GAS  /var/folders/3j/4xdnk5197cv_b7cw3n33qk7r0000gn/T//ccLoT9Qc.s 			page 20


 1084              		.loc 1 401 0
 1085 0204 004084E1 		orr	r4, r4, r0
 1086              	.LVL156:
 1087              		.loc 1 403 0
 1088 0208 FF10A0E3 		mov	r1, #255
 1089 020c 0500A0E1 		mov	r0, r5
 1090 0210 FEFFFFEB 		bl	VL53L0X_WrByte
 1091              	.LVL157:
 1092              		.loc 1 401 0
 1093 0214 7440AFE6 		sxtb	r4, r4
 1094              	.LVL158:
 1095              		.loc 1 403 0
 1096 0218 004084E1 		orr	r4, r4, r0
 1097              	.LVL159:
 1098              		.loc 1 404 0
 1099 021c 0020A0E3 		mov	r2, #0
 1100 0220 8010A0E3 		mov	r1, #128
 1101 0224 0500A0E1 		mov	r0, r5
 1102 0228 FEFFFFEB 		bl	VL53L0X_WrByte
 1103              	.LVL160:
 1104              		.loc 1 403 0
 1105 022c 7440AFE6 		sxtb	r4, r4
 1106              	.LVL161:
 1107              		.loc 1 404 0
 1108 0230 004084E1 		orr	r4, r4, r0
 1109              	.LVL162:
 1110 0234 7440AFE6 		sxtb	r4, r4
 1111              	.LVL163:
 1112              		.loc 1 407 0
 1113 0238 000054E3 		cmp	r4, #0
 1114 023c 78FFFF1A 		bne	.L75
 1115              		.loc 1 410 0
 1116 0240 00005BE3 		cmp	fp, #0
 1117 0244 0D00000A 		beq	.L79
 1118              		.loc 1 410 0 is_stmt 0 discriminator 1
 1119 0248 010017E3 		tst	r7, #1
 1120 024c 0B00001A 		bne	.L79
 1121              		.loc 1 412 0 is_stmt 1
 1122 0250 08209DE5 		ldr	r2, [sp, #8]
 1123 0254 4A3F85E2 		add	r3, r5, #296
 1124 0258 1321C5E5 		strb	r2, [r5, #275]
 1125              		.loc 1 415 0
 1126 025c 0C209DE5 		ldr	r2, [sp, #12]
 1127 0260 023083E2 		add	r3, r3, #2
 1128 0264 1421C5E5 		strb	r2, [r5, #276]
 1129              	.LVL164:
 1130 0268 130E85E2 		add	r0, r5, #304
 1131 026c 23208DE2 		add	r2, sp, #35
 1132              	.LVL165:
 1133              	.L80:
 1134              		.loc 1 419 0 discriminator 3
 1135 0270 0110F2E5 		ldrb	r1, [r2, #1]!	@ zero_extendqisi2
 1136              	.LVL166:
 1137 0274 0110C3E4 		strb	r1, [r3], #1
 1138              	.LVL167:
 1139              		.loc 1 418 0 discriminator 3
 1140 0278 030050E1 		cmp	r0, r3
ARM GAS  /var/folders/3j/4xdnk5197cv_b7cw3n33qk7r0000gn/T//ccLoT9Qc.s 			page 21


 1141 027c FBFFFF1A 		bne	.L80
 1142              	.LVL168:
 1143              	.L79:
 1144              		.loc 1 424 0
 1145 0280 04309DE5 		ldr	r3, [sp, #4]
 1146 0284 000053E3 		cmp	r3, #0
 1147 0288 0100000A 		beq	.L81
 1148              		.loc 1 424 0 is_stmt 0 discriminator 1
 1149 028c 020017E3 		tst	r7, #2
 1150 0290 1800000A 		beq	.L108
 1151              	.L81:
 1152              		.loc 1 438 0 is_stmt 1
 1153 0294 000059E3 		cmp	r9, #0
 1154 0298 1100000A 		beq	.L82
 1155              		.loc 1 438 0 is_stmt 0 discriminator 1
 1156 029c 040017E3 		tst	r7, #4
 1157 02a0 0F00001A 		bne	.L82
 1158              		.loc 1 440 0 is_stmt 1
 1159 02a4 1C209DE5 		ldr	r2, [sp, #28]
 1160              		.loc 1 443 0
 1161 02a8 20309DE5 		ldr	r3, [sp, #32]
 1162              		.loc 1 446 0
 1163 02ac 8AA4A0E1 		lsl	r10, r10, #9
 1164              	.LVL169:
 1165              		.loc 1 455 0
 1166 02b0 000058E3 		cmp	r8, #0
 1167              		.loc 1 450 0
 1168 02b4 20A185E5 		str	r10, [r5, #288]
 1169              		.loc 1 440 0
 1170 02b8 182185E5 		str	r2, [r5, #280]
 1171              		.loc 1 443 0
 1172 02bc 1C3185E5 		str	r3, [r5, #284]
 1173              	.LVL170:
 1174              		.loc 1 455 0
 1175 02c0 0600000A 		beq	.L83
 1176              	.LVL171:
 1177              		.loc 1 456 0
 1178 02c4 198C48E2 		sub	r8, r8, #6400
 1179              	.LVL172:
 1180              		.loc 1 460 0
 1181 02c8 883268E0 		rsb	r3, r8, r8, lsl #5
 1182 02cc 038188E0 		add	r8, r8, r3, lsl #2
 1183              	.LVL173:
 1184 02d0 8881A0E1 		lsl	r8, r8, #3
 1185 02d4 2882A0E1 		lsr	r8, r8, #4
 1186              		.loc 1 461 0
 1187 02d8 008068E2 		rsb	r8, r8, #0
 1188 02dc 7880BFE6 		sxth	r8, r8
 1189              	.L83:
 1190              		.loc 1 464 0
 1191 02e0 0C8085E5 		str	r8, [r5, #12]
 1192              	.L82:
 1193              		.loc 1 475 0
 1194 02e4 0400A0E1 		mov	r0, r4
 1195              		.loc 1 468 0
 1196 02e8 066087E1 		orr	r6, r7, r6
 1197              		.loc 1 469 0
ARM GAS  /var/folders/3j/4xdnk5197cv_b7cw3n33qk7r0000gn/T//ccLoT9Qc.s 			page 22


 1198 02ec F060C5E5 		strb	r6, [r5, #240]
 1199              		.loc 1 475 0
 1200 02f0 44D08DE2 		add	sp, sp, #68
 1201              		.cfi_remember_state
 1202              		.cfi_def_cfa_offset 36
 1203              		@ sp needed
 1204 02f4 F08FBDE8 		pop	{r4, r5, r6, r7, r8, r9, r10, fp, pc}
 1205              	.LVL174:
 1206              	.L108:
 1207              		.cfi_restore_state
 1208              		.loc 1 426 0
 1209 02f8 1620DDE5 		ldrb	r2, [sp, #22]	@ zero_extendqisi2
 1210              		.loc 1 429 0
 1211 02fc 1730DDE5 		ldrb	r3, [sp, #23]	@ zero_extendqisi2
 1212              		.loc 1 426 0
 1213 0300 F120C5E5 		strb	r2, [r5, #241]
 1214              		.loc 1 429 0
 1215 0304 F230C5E5 		strb	r3, [r5, #242]
 1216              	.LVL175:
 1217              		.loc 1 434 0
 1218 0308 2C108DE2 		add	r1, sp, #44
 1219 030c F30085E2 		add	r0, r5, #243
 1220              	.LVL176:
 1221 0310 FEFFFFEB 		bl	strcpy
 1222              	.LVL177:
 1223 0314 DEFFFFEA 		b	.L81
 1224              	.LVL178:
 1225              	.L107:
 1226              		.loc 1 359 0
 1227 0318 7B20A0E3 		mov	r2, #123
 1228 031c 9410A0E3 		mov	r1, #148
 1229 0320 0500A0E1 		mov	r0, r5
 1230 0324 FEFFFFEB 		bl	VL53L0X_WrByte
 1231              	.LVL179:
 1232 0328 0080A0E1 		mov	r8, r0
 1233              	.LVL180:
 1234              		.loc 1 360 0
 1235 032c 0500A0E1 		mov	r0, r5
 1236 0330 FEFFFFEB 		bl	VL53L0X_device_read_strobe
 1237              	.LVL181:
 1238 0334 000088E1 		orr	r0, r8, r0
 1239 0338 004084E1 		orr	r4, r4, r0
 1240              	.LVL182:
 1241              		.loc 1 361 0
 1242 033c 1C208DE2 		add	r2, sp, #28
 1243 0340 9010A0E3 		mov	r1, #144
 1244 0344 0500A0E1 		mov	r0, r5
 1245 0348 FEFFFFEB 		bl	VL53L0X_RdDWord
 1246              	.LVL183:
 1247              		.loc 1 360 0
 1248 034c 7440AFE6 		sxtb	r4, r4
 1249              	.LVL184:
 1250              		.loc 1 363 0
 1251 0350 7C20A0E3 		mov	r2, #124
 1252 0354 9410A0E3 		mov	r1, #148
 1253              		.loc 1 361 0
 1254 0358 004084E1 		orr	r4, r4, r0
ARM GAS  /var/folders/3j/4xdnk5197cv_b7cw3n33qk7r0000gn/T//ccLoT9Qc.s 			page 23


 1255              	.LVL185:
 1256              		.loc 1 363 0
 1257 035c 0500A0E1 		mov	r0, r5
 1258 0360 FEFFFFEB 		bl	VL53L0X_WrByte
 1259              	.LVL186:
 1260              		.loc 1 361 0
 1261 0364 7440AFE6 		sxtb	r4, r4
 1262              	.LVL187:
 1263              		.loc 1 363 0
 1264 0368 004084E1 		orr	r4, r4, r0
 1265              	.LVL188:
 1266              		.loc 1 364 0
 1267 036c 0500A0E1 		mov	r0, r5
 1268 0370 FEFFFFEB 		bl	VL53L0X_device_read_strobe
 1269              	.LVL189:
 1270              		.loc 1 363 0
 1271 0374 7440AFE6 		sxtb	r4, r4
 1272              	.LVL190:
 1273              		.loc 1 365 0
 1274 0378 20208DE2 		add	r2, sp, #32
 1275              		.loc 1 364 0
 1276 037c 004084E1 		orr	r4, r4, r0
 1277              	.LVL191:
 1278              		.loc 1 365 0
 1279 0380 9010A0E3 		mov	r1, #144
 1280 0384 0500A0E1 		mov	r0, r5
 1281 0388 FEFFFFEB 		bl	VL53L0X_RdDWord
 1282              	.LVL192:
 1283              		.loc 1 364 0
 1284 038c 7440AFE6 		sxtb	r4, r4
 1285              	.LVL193:
 1286              		.loc 1 367 0
 1287 0390 7320A0E3 		mov	r2, #115
 1288 0394 9410A0E3 		mov	r1, #148
 1289              		.loc 1 365 0
 1290 0398 004084E1 		orr	r4, r4, r0
 1291              	.LVL194:
 1292              		.loc 1 367 0
 1293 039c 0500A0E1 		mov	r0, r5
 1294 03a0 FEFFFFEB 		bl	VL53L0X_WrByte
 1295              	.LVL195:
 1296              		.loc 1 365 0
 1297 03a4 7440AFE6 		sxtb	r4, r4
 1298              	.LVL196:
 1299              		.loc 1 367 0
 1300 03a8 004084E1 		orr	r4, r4, r0
 1301              	.LVL197:
 1302              		.loc 1 368 0
 1303 03ac 0500A0E1 		mov	r0, r5
 1304 03b0 FEFFFFEB 		bl	VL53L0X_device_read_strobe
 1305              	.LVL198:
 1306              		.loc 1 367 0
 1307 03b4 7440AFE6 		sxtb	r4, r4
 1308              	.LVL199:
 1309              		.loc 1 368 0
 1310 03b8 004084E1 		orr	r4, r4, r0
 1311              	.LVL200:
ARM GAS  /var/folders/3j/4xdnk5197cv_b7cw3n33qk7r0000gn/T//ccLoT9Qc.s 			page 24


 1312              		.loc 1 369 0
 1313 03bc 18208DE2 		add	r2, sp, #24
 1314 03c0 9010A0E3 		mov	r1, #144
 1315 03c4 0500A0E1 		mov	r0, r5
 1316 03c8 FEFFFFEB 		bl	VL53L0X_RdDWord
 1317              	.LVL201:
 1318              		.loc 1 368 0
 1319 03cc 7440AFE6 		sxtb	r4, r4
 1320              	.LVL202:
 1321              		.loc 1 374 0
 1322 03d0 7420A0E3 		mov	r2, #116
 1323 03d4 9410A0E3 		mov	r1, #148
 1324              		.loc 1 369 0
 1325 03d8 004084E1 		orr	r4, r4, r0
 1326              	.LVL203:
 1327              		.loc 1 374 0
 1328 03dc 0500A0E1 		mov	r0, r5
 1329              		.loc 1 372 0
 1330 03e0 18A09DE5 		ldr	r10, [sp, #24]
 1331              		.loc 1 374 0
 1332 03e4 FEFFFFEB 		bl	VL53L0X_WrByte
 1333              	.LVL204:
 1334              		.loc 1 369 0
 1335 03e8 7440AFE6 		sxtb	r4, r4
 1336              	.LVL205:
 1337              		.loc 1 374 0
 1338 03ec 004084E1 		orr	r4, r4, r0
 1339              	.LVL206:
 1340              		.loc 1 375 0
 1341 03f0 0500A0E1 		mov	r0, r5
 1342 03f4 FEFFFFEB 		bl	VL53L0X_device_read_strobe
 1343              	.LVL207:
 1344              		.loc 1 374 0
 1345 03f8 7440AFE6 		sxtb	r4, r4
 1346              		.loc 1 376 0
 1347 03fc 18208DE2 		add	r2, sp, #24
 1348              		.loc 1 375 0
 1349 0400 004084E1 		orr	r4, r4, r0
 1350              		.loc 1 376 0
 1351 0404 9010A0E3 		mov	r1, #144
 1352 0408 0500A0E1 		mov	r0, r5
 1353 040c FEFFFFEB 		bl	VL53L0X_RdDWord
 1354              	.LVL208:
 1355              		.loc 1 375 0
 1356 0410 7440AFE6 		sxtb	r4, r4
 1357              		.loc 1 381 0
 1358 0414 7520A0E3 		mov	r2, #117
 1359 0418 9410A0E3 		mov	r1, #148
 1360              		.loc 1 372 0
 1361 041c 0AA4A0E1 		lsl	r10, r10, #8
 1362              		.loc 1 376 0
 1363 0420 004084E1 		orr	r4, r4, r0
 1364              		.loc 1 381 0
 1365 0424 0500A0E1 		mov	r0, r5
 1366              		.loc 1 371 0
 1367 0428 7A80FFE6 		uxth	r8, r10
 1368              	.LVL209:
ARM GAS  /var/folders/3j/4xdnk5197cv_b7cw3n33qk7r0000gn/T//ccLoT9Qc.s 			page 25


 1369              		.loc 1 379 0
 1370 042c 1BA0DDE5 		ldrb	r10, [sp, #27]	@ zero_extendqisi2
 1371              		.loc 1 381 0
 1372 0430 FEFFFFEB 		bl	VL53L0X_WrByte
 1373              	.LVL210:
 1374              		.loc 1 376 0
 1375 0434 7440AFE6 		sxtb	r4, r4
 1376              	.LVL211:
 1377              		.loc 1 381 0
 1378 0438 004084E1 		orr	r4, r4, r0
 1379              	.LVL212:
 1380              		.loc 1 382 0
 1381 043c 0500A0E1 		mov	r0, r5
 1382 0440 FEFFFFEB 		bl	VL53L0X_device_read_strobe
 1383              	.LVL213:
 1384              		.loc 1 381 0
 1385 0444 7440AFE6 		sxtb	r4, r4
 1386              		.loc 1 383 0
 1387 0448 18208DE2 		add	r2, sp, #24
 1388              		.loc 1 382 0
 1389 044c 004084E1 		orr	r4, r4, r0
 1390              		.loc 1 383 0
 1391 0450 9010A0E3 		mov	r1, #144
 1392 0454 0500A0E1 		mov	r0, r5
 1393 0458 FEFFFFEB 		bl	VL53L0X_RdDWord
 1394              	.LVL214:
 1395              		.loc 1 382 0
 1396 045c 7440AFE6 		sxtb	r4, r4
 1397              		.loc 1 388 0
 1398 0460 7620A0E3 		mov	r2, #118
 1399 0464 9410A0E3 		mov	r1, #148
 1400              		.loc 1 383 0
 1401 0468 004084E1 		orr	r4, r4, r0
 1402              		.loc 1 388 0
 1403 046c 0500A0E1 		mov	r0, r5
 1404              		.loc 1 378 0
 1405 0470 08A08AE1 		orr	r10, r10, r8
 1406              	.LVL215:
 1407              		.loc 1 386 0
 1408 0474 18809DE5 		ldr	r8, [sp, #24]
 1409              		.loc 1 388 0
 1410 0478 FEFFFFEB 		bl	VL53L0X_WrByte
 1411              	.LVL216:
 1412              		.loc 1 383 0
 1413 047c 7440AFE6 		sxtb	r4, r4
 1414              	.LVL217:
 1415              		.loc 1 388 0
 1416 0480 004084E1 		orr	r4, r4, r0
 1417              	.LVL218:
 1418              		.loc 1 389 0
 1419 0484 0500A0E1 		mov	r0, r5
 1420 0488 FEFFFFEB 		bl	VL53L0X_device_read_strobe
 1421              	.LVL219:
 1422              		.loc 1 388 0
 1423 048c 7440AFE6 		sxtb	r4, r4
 1424              		.loc 1 390 0
 1425 0490 18208DE2 		add	r2, sp, #24
ARM GAS  /var/folders/3j/4xdnk5197cv_b7cw3n33qk7r0000gn/T//ccLoT9Qc.s 			page 26


 1426              		.loc 1 389 0
 1427 0494 004084E1 		orr	r4, r4, r0
 1428              		.loc 1 390 0
 1429 0498 9010A0E3 		mov	r1, #144
 1430 049c 0500A0E1 		mov	r0, r5
 1431 04a0 FEFFFFEB 		bl	VL53L0X_RdDWord
 1432              	.LVL220:
 1433              		.loc 1 386 0
 1434 04a4 0884A0E1 		lsl	r8, r8, #8
 1435              		.loc 1 389 0
 1436 04a8 7440AFE6 		sxtb	r4, r4
 1437              		.loc 1 393 0
 1438 04ac 1B20DDE5 		ldrb	r2, [sp, #27]	@ zero_extendqisi2
 1439              		.loc 1 385 0
 1440 04b0 7880FFE6 		uxth	r8, r8
 1441              	.LVL221:
 1442              		.loc 1 390 0
 1443 04b4 004084E1 		orr	r4, r4, r0
 1444              	.LVL222:
 1445 04b8 7440AFE6 		sxtb	r4, r4
 1446              	.LVL223:
 1447              		.loc 1 392 0
 1448 04bc 088082E1 		orr	r8, r2, r8
 1449              	.LVL224:
 1450 04c0 2BFFFFEA 		b	.L78
 1451              	.LVL225:
 1452              	.L106:
 1453              		.loc 1 294 0
 1454 04c4 0220A0E3 		mov	r2, #2
 1455 04c8 9410A0E3 		mov	r1, #148
 1456 04cc 0500A0E1 		mov	r0, r5
 1457 04d0 FEFFFFEB 		bl	VL53L0X_WrByte
 1458              	.LVL226:
 1459 04d4 0090A0E1 		mov	r9, r0
 1460              	.LVL227:
 1461              		.loc 1 295 0
 1462 04d8 0500A0E1 		mov	r0, r5
 1463 04dc FEFFFFEB 		bl	VL53L0X_device_read_strobe
 1464              	.LVL228:
 1465 04e0 000089E1 		orr	r0, r9, r0
 1466 04e4 004084E1 		orr	r4, r4, r0
 1467              	.LVL229:
 1468              		.loc 1 296 0
 1469 04e8 16208DE2 		add	r2, sp, #22
 1470 04ec 9010A0E3 		mov	r1, #144
 1471 04f0 0500A0E1 		mov	r0, r5
 1472 04f4 FEFFFFEB 		bl	VL53L0X_RdByte
 1473              	.LVL230:
 1474              		.loc 1 295 0
 1475 04f8 7440AFE6 		sxtb	r4, r4
 1476              	.LVL231:
 1477              		.loc 1 298 0
 1478 04fc 7B20A0E3 		mov	r2, #123
 1479 0500 9410A0E3 		mov	r1, #148
 1480              		.loc 1 296 0
 1481 0504 004084E1 		orr	r4, r4, r0
 1482              	.LVL232:
ARM GAS  /var/folders/3j/4xdnk5197cv_b7cw3n33qk7r0000gn/T//ccLoT9Qc.s 			page 27


 1483              		.loc 1 298 0
 1484 0508 0500A0E1 		mov	r0, r5
 1485 050c FEFFFFEB 		bl	VL53L0X_WrByte
 1486              	.LVL233:
 1487              		.loc 1 296 0
 1488 0510 7440AFE6 		sxtb	r4, r4
 1489              	.LVL234:
 1490              		.loc 1 298 0
 1491 0514 004084E1 		orr	r4, r4, r0
 1492              	.LVL235:
 1493              		.loc 1 299 0
 1494 0518 0500A0E1 		mov	r0, r5
 1495 051c FEFFFFEB 		bl	VL53L0X_device_read_strobe
 1496              	.LVL236:
 1497              		.loc 1 298 0
 1498 0520 7440AFE6 		sxtb	r4, r4
 1499              	.LVL237:
 1500              		.loc 1 300 0
 1501 0524 17208DE2 		add	r2, sp, #23
 1502              		.loc 1 299 0
 1503 0528 004084E1 		orr	r4, r4, r0
 1504              	.LVL238:
 1505              		.loc 1 300 0
 1506 052c 9010A0E3 		mov	r1, #144
 1507 0530 0500A0E1 		mov	r0, r5
 1508 0534 FEFFFFEB 		bl	VL53L0X_RdByte
 1509              	.LVL239:
 1510              		.loc 1 299 0
 1511 0538 7440AFE6 		sxtb	r4, r4
 1512              	.LVL240:
 1513              		.loc 1 302 0
 1514 053c 7720A0E3 		mov	r2, #119
 1515 0540 9410A0E3 		mov	r1, #148
 1516              		.loc 1 300 0
 1517 0544 004084E1 		orr	r4, r4, r0
 1518              	.LVL241:
 1519              		.loc 1 302 0
 1520 0548 0500A0E1 		mov	r0, r5
 1521 054c FEFFFFEB 		bl	VL53L0X_WrByte
 1522              	.LVL242:
 1523              		.loc 1 300 0
 1524 0550 7440AFE6 		sxtb	r4, r4
 1525              	.LVL243:
 1526              		.loc 1 302 0
 1527 0554 004084E1 		orr	r4, r4, r0
 1528              	.LVL244:
 1529              		.loc 1 303 0
 1530 0558 0500A0E1 		mov	r0, r5
 1531 055c FEFFFFEB 		bl	VL53L0X_device_read_strobe
 1532              	.LVL245:
 1533              		.loc 1 302 0
 1534 0560 7440AFE6 		sxtb	r4, r4
 1535              	.LVL246:
 1536              		.loc 1 303 0
 1537 0564 004084E1 		orr	r4, r4, r0
 1538              	.LVL247:
 1539              		.loc 1 304 0
ARM GAS  /var/folders/3j/4xdnk5197cv_b7cw3n33qk7r0000gn/T//ccLoT9Qc.s 			page 28


 1540 0568 18208DE2 		add	r2, sp, #24
 1541 056c 9010A0E3 		mov	r1, #144
 1542 0570 0500A0E1 		mov	r0, r5
 1543 0574 FEFFFFEB 		bl	VL53L0X_RdDWord
 1544              	.LVL248:
 1545              		.loc 1 306 0
 1546 0578 18209DE5 		ldr	r2, [sp, #24]
 1547              		.loc 1 303 0
 1548 057c 7440AFE6 		sxtb	r4, r4
 1549              	.LVL249:
 1550              		.loc 1 304 0
 1551 0580 004084E1 		orr	r4, r4, r0
 1552              	.LVL250:
 1553              		.loc 1 307 0
 1554 0584 22C9A0E1 		lsr	ip, r2, #18
 1555              		.loc 1 309 0
 1556 0588 2212A0E1 		lsr	r1, r2, #4
 1557              		.loc 1 311 0
 1558 058c 8201A0E1 		lsl	r0, r2, #3
 1559              		.loc 1 308 0
 1560 0590 A2E5A0E1 		lsr	lr, r2, #11
 1561              		.loc 1 307 0
 1562 0594 7FC00CE2 		and	ip, ip, #127
 1563              		.loc 1 309 0
 1564 0598 7F1001E2 		and	r1, r1, #127
 1565              		.loc 1 311 0
 1566 059c 780000E2 		and	r0, r0, #120
 1567              		.loc 1 308 0
 1568 05a0 7FE00EE2 		and	lr, lr, #127
 1569              		.loc 1 307 0
 1570 05a4 2DC0CDE5 		strb	ip, [sp, #45]
 1571              		.loc 1 309 0
 1572 05a8 2F10CDE5 		strb	r1, [sp, #47]
 1573              		.loc 1 306 0
 1574 05ac A2CCA0E1 		lsr	ip, r2, #25
 1575              		.loc 1 313 0
 1576 05b0 9410A0E3 		mov	r1, #148
 1577 05b4 7820A0E3 		mov	r2, #120
 1578              		.loc 1 311 0
 1579 05b8 1500CDE5 		strb	r0, [sp, #21]
 1580              		.loc 1 313 0
 1581 05bc 0500A0E1 		mov	r0, r5
 1582              		.loc 1 308 0
 1583 05c0 2EE0CDE5 		strb	lr, [sp, #46]
 1584              		.loc 1 306 0
 1585 05c4 2CC0CDE5 		strb	ip, [sp, #44]
 1586              		.loc 1 313 0
 1587 05c8 FEFFFFEB 		bl	VL53L0X_WrByte
 1588              	.LVL251:
 1589              		.loc 1 304 0
 1590 05cc 7440AFE6 		sxtb	r4, r4
 1591              	.LVL252:
 1592              		.loc 1 313 0
 1593 05d0 004084E1 		orr	r4, r4, r0
 1594              	.LVL253:
 1595              		.loc 1 314 0
 1596 05d4 0500A0E1 		mov	r0, r5
ARM GAS  /var/folders/3j/4xdnk5197cv_b7cw3n33qk7r0000gn/T//ccLoT9Qc.s 			page 29


 1597 05d8 FEFFFFEB 		bl	VL53L0X_device_read_strobe
 1598              	.LVL254:
 1599              		.loc 1 313 0
 1600 05dc 7440AFE6 		sxtb	r4, r4
 1601              	.LVL255:
 1602              		.loc 1 315 0
 1603 05e0 18208DE2 		add	r2, sp, #24
 1604              		.loc 1 314 0
 1605 05e4 004084E1 		orr	r4, r4, r0
 1606              	.LVL256:
 1607              		.loc 1 315 0
 1608 05e8 9010A0E3 		mov	r1, #144
 1609 05ec 0500A0E1 		mov	r0, r5
 1610 05f0 FEFFFFEB 		bl	VL53L0X_RdDWord
 1611              	.LVL257:
 1612              		.loc 1 318 0
 1613 05f4 18209DE5 		ldr	r2, [sp, #24]
 1614              		.loc 1 317 0
 1615 05f8 15C0DDE5 		ldrb	ip, [sp, #21]	@ zero_extendqisi2
 1616              		.loc 1 319 0
 1617 05fc 22EBA0E1 		lsr	lr, r2, #22
 1618              		.loc 1 320 0
 1619 0600 A217A0E1 		lsr	r1, r2, #15
 1620              		.loc 1 319 0
 1621 0604 7FE00EE2 		and	lr, lr, #127
 1622              		.loc 1 320 0
 1623 0608 7F1001E2 		and	r1, r1, #127
 1624              		.loc 1 317 0
 1625 060c A2CE8CE0 		add	ip, ip, r2, lsr #29
 1626              		.loc 1 319 0
 1627 0610 31E0CDE5 		strb	lr, [sp, #49]
 1628              		.loc 1 320 0
 1629 0614 3210CDE5 		strb	r1, [sp, #50]
 1630              		.loc 1 321 0
 1631 0618 22E4A0E1 		lsr	lr, r2, #8
 1632              		.loc 1 322 0
 1633 061c A210A0E1 		lsr	r1, r2, #1
 1634              		.loc 1 314 0
 1635 0620 7440AFE6 		sxtb	r4, r4
 1636              	.LVL258:
 1637              		.loc 1 324 0
 1638 0624 0223A0E1 		lsl	r2, r2, #6
 1639              		.loc 1 315 0
 1640 0628 004084E1 		orr	r4, r4, r0
 1641              	.LVL259:
 1642              		.loc 1 322 0
 1643 062c 7F1001E2 		and	r1, r1, #127
 1644              		.loc 1 324 0
 1645 0630 400002E2 		and	r0, r2, #64
 1646              		.loc 1 321 0
 1647 0634 7FE00EE2 		and	lr, lr, #127
 1648              		.loc 1 326 0
 1649 0638 7920A0E3 		mov	r2, #121
 1650              		.loc 1 322 0
 1651 063c 3410CDE5 		strb	r1, [sp, #52]
 1652              		.loc 1 324 0
 1653 0640 1500CDE5 		strb	r0, [sp, #21]
ARM GAS  /var/folders/3j/4xdnk5197cv_b7cw3n33qk7r0000gn/T//ccLoT9Qc.s 			page 30


 1654              		.loc 1 326 0
 1655 0644 9410A0E3 		mov	r1, #148
 1656 0648 0500A0E1 		mov	r0, r5
 1657              		.loc 1 321 0
 1658 064c 33E0CDE5 		strb	lr, [sp, #51]
 1659              		.loc 1 317 0
 1660 0650 30C0CDE5 		strb	ip, [sp, #48]
 1661              		.loc 1 326 0
 1662 0654 FEFFFFEB 		bl	VL53L0X_WrByte
 1663              	.LVL260:
 1664              		.loc 1 315 0
 1665 0658 7440AFE6 		sxtb	r4, r4
 1666              	.LVL261:
 1667              		.loc 1 326 0
 1668 065c 004084E1 		orr	r4, r4, r0
 1669              	.LVL262:
 1670              		.loc 1 328 0
 1671 0660 0500A0E1 		mov	r0, r5
 1672 0664 FEFFFFEB 		bl	VL53L0X_device_read_strobe
 1673              	.LVL263:
 1674              		.loc 1 326 0
 1675 0668 7440AFE6 		sxtb	r4, r4
 1676              	.LVL264:
 1677              		.loc 1 330 0
 1678 066c 18208DE2 		add	r2, sp, #24
 1679              		.loc 1 328 0
 1680 0670 004084E1 		orr	r4, r4, r0
 1681              	.LVL265:
 1682              		.loc 1 330 0
 1683 0674 9010A0E3 		mov	r1, #144
 1684 0678 0500A0E1 		mov	r0, r5
 1685 067c FEFFFFEB 		bl	VL53L0X_RdDWord
 1686              	.LVL266:
 1687              		.loc 1 333 0
 1688 0680 18209DE5 		ldr	r2, [sp, #24]
 1689              		.loc 1 332 0
 1690 0684 15C0DDE5 		ldrb	ip, [sp, #21]	@ zero_extendqisi2
 1691              		.loc 1 334 0
 1692 0688 A219A0E1 		lsr	r1, r2, #19
 1693 068c 7F1001E2 		and	r1, r1, #127
 1694              		.loc 1 332 0
 1695 0690 22CD8CE0 		add	ip, ip, r2, lsr #26
 1696              		.loc 1 335 0
 1697 0694 22E6A0E1 		lsr	lr, r2, #12
 1698              		.loc 1 334 0
 1699 0698 3610CDE5 		strb	r1, [sp, #54]
 1700              		.loc 1 328 0
 1701 069c 7440AFE6 		sxtb	r4, r4
 1702              	.LVL267:
 1703              		.loc 1 336 0
 1704 06a0 A212A0E1 		lsr	r1, r2, #5
 1705              		.loc 1 338 0
 1706 06a4 0221A0E1 		lsl	r2, r2, #2
 1707              		.loc 1 330 0
 1708 06a8 004084E1 		orr	r4, r4, r0
 1709              	.LVL268:
 1710              		.loc 1 336 0
ARM GAS  /var/folders/3j/4xdnk5197cv_b7cw3n33qk7r0000gn/T//ccLoT9Qc.s 			page 31


 1711 06ac 7F1001E2 		and	r1, r1, #127
 1712              		.loc 1 338 0
 1713 06b0 7C0002E2 		and	r0, r2, #124
 1714              		.loc 1 335 0
 1715 06b4 7FE00EE2 		and	lr, lr, #127
 1716              		.loc 1 340 0
 1717 06b8 7A20A0E3 		mov	r2, #122
 1718              		.loc 1 336 0
 1719 06bc 3810CDE5 		strb	r1, [sp, #56]
 1720              		.loc 1 338 0
 1721 06c0 1500CDE5 		strb	r0, [sp, #21]
 1722              		.loc 1 340 0
 1723 06c4 9410A0E3 		mov	r1, #148
 1724 06c8 0500A0E1 		mov	r0, r5
 1725              		.loc 1 335 0
 1726 06cc 37E0CDE5 		strb	lr, [sp, #55]
 1727              		.loc 1 332 0
 1728 06d0 35C0CDE5 		strb	ip, [sp, #53]
 1729              		.loc 1 340 0
 1730 06d4 FEFFFFEB 		bl	VL53L0X_WrByte
 1731              	.LVL269:
 1732              		.loc 1 330 0
 1733 06d8 7440AFE6 		sxtb	r4, r4
 1734              	.LVL270:
 1735              		.loc 1 340 0
 1736 06dc 004084E1 		orr	r4, r4, r0
 1737              	.LVL271:
 1738              		.loc 1 342 0
 1739 06e0 0500A0E1 		mov	r0, r5
 1740 06e4 FEFFFFEB 		bl	VL53L0X_device_read_strobe
 1741              	.LVL272:
 1742              		.loc 1 340 0
 1743 06e8 7440AFE6 		sxtb	r4, r4
 1744              	.LVL273:
 1745              		.loc 1 344 0
 1746 06ec 18208DE2 		add	r2, sp, #24
 1747              		.loc 1 342 0
 1748 06f0 004084E1 		orr	r4, r4, r0
 1749              	.LVL274:
 1750              		.loc 1 344 0
 1751 06f4 9010A0E3 		mov	r1, #144
 1752 06f8 0500A0E1 		mov	r0, r5
 1753 06fc FEFFFFEB 		bl	VL53L0X_RdDWord
 1754              	.LVL275:
 1755              		.loc 1 347 0
 1756 0700 18209DE5 		ldr	r2, [sp, #24]
 1757              		.loc 1 346 0
 1758 0704 1510DDE5 		ldrb	r1, [sp, #21]	@ zero_extendqisi2
 1759              		.loc 1 348 0
 1760 0708 A29BA0E1 		lsr	r9, r2, #23
 1761              		.loc 1 349 0
 1762 070c 22E8A0E1 		lsr	lr, r2, #16
 1763              		.loc 1 350 0
 1764 0710 A2C4A0E1 		lsr	ip, r2, #9
 1765              		.loc 1 346 0
 1766 0714 221F81E0 		add	r1, r1, r2, lsr #30
 1767              		.loc 1 342 0
ARM GAS  /var/folders/3j/4xdnk5197cv_b7cw3n33qk7r0000gn/T//ccLoT9Qc.s 			page 32


 1768 0718 7440AFE6 		sxtb	r4, r4
 1769              	.LVL276:
 1770              		.loc 1 351 0
 1771 071c 2221A0E1 		lsr	r2, r2, #2
 1772              		.loc 1 344 0
 1773 0720 004084E1 		orr	r4, r4, r0
 1774              	.LVL277:
 1775              		.loc 1 348 0
 1776 0724 7F9009E2 		and	r9, r9, #127
 1777              		.loc 1 349 0
 1778 0728 7FE00EE2 		and	lr, lr, #127
 1779              		.loc 1 350 0
 1780 072c 7FC00CE2 		and	ip, ip, #127
 1781              		.loc 1 351 0
 1782 0730 7F2002E2 		and	r2, r2, #127
 1783              		.loc 1 344 0
 1784 0734 7440AFE6 		sxtb	r4, r4
 1785              	.LVL278:
 1786              		.loc 1 352 0
 1787 0738 3E80CDE5 		strb	r8, [sp, #62]
 1788              		.loc 1 348 0
 1789 073c 3A90CDE5 		strb	r9, [sp, #58]
 1790              		.loc 1 349 0
 1791 0740 3BE0CDE5 		strb	lr, [sp, #59]
 1792              		.loc 1 350 0
 1793 0744 3CC0CDE5 		strb	ip, [sp, #60]
 1794              		.loc 1 351 0
 1795 0748 3D20CDE5 		strb	r2, [sp, #61]
 1796              		.loc 1 346 0
 1797 074c 3910CDE5 		strb	r1, [sp, #57]
 1798 0750 7FFEFFEA 		b	.L77
 1799              	.LVL279:
 1800              	.L105:
 1801              		.loc 1 261 0
 1802 0754 6B20A0E3 		mov	r2, #107
 1803 0758 9410A0E3 		mov	r1, #148
 1804 075c 0500A0E1 		mov	r0, r5
 1805 0760 FEFFFFEB 		bl	VL53L0X_WrByte
 1806              	.LVL280:
 1807 0764 0080A0E1 		mov	r8, r0
 1808              	.LVL281:
 1809              		.loc 1 262 0
 1810 0768 0500A0E1 		mov	r0, r5
 1811 076c FEFFFFEB 		bl	VL53L0X_device_read_strobe
 1812              	.LVL282:
 1813 0770 000088E1 		orr	r0, r8, r0
 1814 0774 004084E1 		orr	r4, r4, r0
 1815              	.LVL283:
 1816              		.loc 1 263 0
 1817 0778 18208DE2 		add	r2, sp, #24
 1818 077c 9010A0E3 		mov	r1, #144
 1819 0780 0500A0E1 		mov	r0, r5
 1820 0784 FEFFFFEB 		bl	VL53L0X_RdDWord
 1821              	.LVL284:
 1822              		.loc 1 265 0
 1823 0788 18209DE5 		ldr	r2, [sp, #24]
 1824              		.loc 1 262 0
ARM GAS  /var/folders/3j/4xdnk5197cv_b7cw3n33qk7r0000gn/T//ccLoT9Qc.s 			page 33


 1825 078c 7440AFE6 		sxtb	r4, r4
 1826              	.LVL285:
 1827              		.loc 1 265 0
 1828 0790 22E4A0E1 		lsr	lr, r2, #8
 1829              		.loc 1 266 0
 1830 0794 A2C7A0E1 		lsr	ip, r2, #15
 1831              		.loc 1 265 0
 1832 0798 7F300EE2 		and	r3, lr, #127
 1833              		.loc 1 268 0
 1834 079c 2420A0E3 		mov	r2, #36
 1835 07a0 9410A0E3 		mov	r1, #148
 1836              		.loc 1 263 0
 1837 07a4 004084E1 		orr	r4, r4, r0
 1838              	.LVL286:
 1839              		.loc 1 265 0
 1840 07a8 08308DE5 		str	r3, [sp, #8]
 1841              		.loc 1 268 0
 1842 07ac 0500A0E1 		mov	r0, r5
 1843              		.loc 1 266 0
 1844 07b0 01300CE2 		and	r3, ip, #1
 1845 07b4 0C308DE5 		str	r3, [sp, #12]
 1846              		.loc 1 268 0
 1847 07b8 FEFFFFEB 		bl	VL53L0X_WrByte
 1848              	.LVL287:
 1849              		.loc 1 263 0
 1850 07bc 7440AFE6 		sxtb	r4, r4
 1851              	.LVL288:
 1852              		.loc 1 268 0
 1853 07c0 004084E1 		orr	r4, r4, r0
 1854              	.LVL289:
 1855              		.loc 1 269 0
 1856 07c4 0500A0E1 		mov	r0, r5
 1857 07c8 FEFFFFEB 		bl	VL53L0X_device_read_strobe
 1858              	.LVL290:
 1859              		.loc 1 268 0
 1860 07cc 7440AFE6 		sxtb	r4, r4
 1861              	.LVL291:
 1862              		.loc 1 270 0
 1863 07d0 18208DE2 		add	r2, sp, #24
 1864              		.loc 1 269 0
 1865 07d4 004084E1 		orr	r4, r4, r0
 1866              	.LVL292:
 1867              		.loc 1 270 0
 1868 07d8 9010A0E3 		mov	r1, #144
 1869 07dc 0500A0E1 		mov	r0, r5
 1870 07e0 FEFFFFEB 		bl	VL53L0X_RdDWord
 1871              	.LVL293:
 1872              		.loc 1 273 0
 1873 07e4 18209DE5 		ldr	r2, [sp, #24]
 1874              		.loc 1 269 0
 1875 07e8 7440AFE6 		sxtb	r4, r4
 1876              	.LVL294:
 1877              		.loc 1 273 0
 1878 07ec 221CA0E1 		lsr	r1, r2, #24
 1879              		.loc 1 275 0
 1880 07f0 22E8A0E1 		lsr	lr, r2, #16
 1881              		.loc 1 277 0
ARM GAS  /var/folders/3j/4xdnk5197cv_b7cw3n33qk7r0000gn/T//ccLoT9Qc.s 			page 34


 1882 07f4 22C4A0E1 		lsr	ip, r2, #8
 1883              		.loc 1 270 0
 1884 07f8 004084E1 		orr	r4, r4, r0
 1885              	.LVL295:
 1886              		.loc 1 279 0
 1887 07fc 2720CDE5 		strb	r2, [sp, #39]
 1888              		.loc 1 273 0
 1889 0800 2410CDE5 		strb	r1, [sp, #36]
 1890              		.loc 1 281 0
 1891 0804 2520A0E3 		mov	r2, #37
 1892 0808 9410A0E3 		mov	r1, #148
 1893 080c 0500A0E1 		mov	r0, r5
 1894              		.loc 1 275 0
 1895 0810 25E0CDE5 		strb	lr, [sp, #37]
 1896              		.loc 1 277 0
 1897 0814 26C0CDE5 		strb	ip, [sp, #38]
 1898              		.loc 1 281 0
 1899 0818 FEFFFFEB 		bl	VL53L0X_WrByte
 1900              	.LVL296:
 1901              		.loc 1 270 0
 1902 081c 7440AFE6 		sxtb	r4, r4
 1903              	.LVL297:
 1904              		.loc 1 281 0
 1905 0820 004084E1 		orr	r4, r4, r0
 1906              	.LVL298:
 1907              		.loc 1 282 0
 1908 0824 0500A0E1 		mov	r0, r5
 1909 0828 FEFFFFEB 		bl	VL53L0X_device_read_strobe
 1910              	.LVL299:
 1911              		.loc 1 281 0
 1912 082c 7440AFE6 		sxtb	r4, r4
 1913              	.LVL300:
 1914              		.loc 1 283 0
 1915 0830 18208DE2 		add	r2, sp, #24
 1916              		.loc 1 282 0
 1917 0834 004084E1 		orr	r4, r4, r0
 1918              	.LVL301:
 1919              		.loc 1 283 0
 1920 0838 9010A0E3 		mov	r1, #144
 1921 083c 0500A0E1 		mov	r0, r5
 1922 0840 FEFFFFEB 		bl	VL53L0X_RdDWord
 1923              	.LVL302:
 1924              		.loc 1 285 0
 1925 0844 18209DE5 		ldr	r2, [sp, #24]
 1926              		.loc 1 282 0
 1927 0848 7440AFE6 		sxtb	r4, r4
 1928              	.LVL303:
 1929              		.loc 1 285 0
 1930 084c 221CA0E1 		lsr	r1, r2, #24
 1931              		.loc 1 283 0
 1932 0850 004084E1 		orr	r4, r4, r0
 1933              	.LVL304:
 1934              		.loc 1 287 0
 1935 0854 2228A0E1 		lsr	r2, r2, #16
 1936              		.loc 1 283 0
 1937 0858 7440AFE6 		sxtb	r4, r4
 1938              	.LVL305:
ARM GAS  /var/folders/3j/4xdnk5197cv_b7cw3n33qk7r0000gn/T//ccLoT9Qc.s 			page 35


 1939              		.loc 1 285 0
 1940 085c 2810CDE5 		strb	r1, [sp, #40]
 1941              		.loc 1 287 0
 1942 0860 2920CDE5 		strb	r2, [sp, #41]
 1943 0864 35FEFFEA 		b	.L76
 1944              		.cfi_endproc
 1945              	.LFE10:
 1946              		.size	VL53L0X_get_info_from_device, .-VL53L0X_get_info_from_device
 1947              		.section	.text.VL53L0X_calc_macro_period_ps,"ax",%progbits
 1948              		.align	2
 1949              		.global	VL53L0X_calc_macro_period_ps
 1950              		.syntax unified
 1951              		.arm
 1952              		.fpu softvfp
 1953              		.type	VL53L0X_calc_macro_period_ps, %function
 1954              	VL53L0X_calc_macro_period_ps:
 1955              	.LFB11:
 1956              		.loc 1 479 0
 1957              		.cfi_startproc
 1958              		@ args = 0, pretend = 0, frame = 0
 1959              		@ frame_needed = 0, uses_anonymous_args = 0
 1960              		@ link register save eliminated.
 1961              	.LVL306:
 1962              		.loc 1 492 0
 1963 0000 810261E0 		rsb	r0, r1, r1, lsl #5
 1964              	.LVL307:
 1965 0004 801281E0 		add	r1, r1, r0, lsl #5
 1966              	.LVL308:
 1967 0008 011261E0 		rsb	r1, r1, r1, lsl #4
 1968              		.loc 1 497 0
 1969 000c 0104A0E1 		lsl	r0, r1, #8
 1970 0010 1EFF2FE1 		bx	lr
 1971              		.cfi_endproc
 1972              	.LFE11:
 1973              		.size	VL53L0X_calc_macro_period_ps, .-VL53L0X_calc_macro_period_ps
 1974              		.section	.text.VL53L0X_encode_timeout,"ax",%progbits
 1975              		.align	2
 1976              		.global	VL53L0X_encode_timeout
 1977              		.syntax unified
 1978              		.arm
 1979              		.fpu softvfp
 1980              		.type	VL53L0X_encode_timeout, %function
 1981              	VL53L0X_encode_timeout:
 1982              	.LFB12:
 1983              		.loc 1 500 0
 1984              		.cfi_startproc
 1985              		@ args = 0, pretend = 0, frame = 0
 1986              		@ frame_needed = 0, uses_anonymous_args = 0
 1987              		@ link register save eliminated.
 1988              	.LVL309:
 1989              		.loc 1 509 0
 1990 0000 000050E3 		cmp	r0, #0
 1991 0004 1EFF2F01 		bxeq	lr
 1992 0008 FEFFFFEA 		b	VL53L0X_encode_timeout.part.0
 1993              	.LVL310:
 1994              		.cfi_endproc
 1995              	.LFE12:
ARM GAS  /var/folders/3j/4xdnk5197cv_b7cw3n33qk7r0000gn/T//ccLoT9Qc.s 			page 36


 1996              		.size	VL53L0X_encode_timeout, .-VL53L0X_encode_timeout
 1997              		.section	.text.VL53L0X_decode_timeout,"ax",%progbits
 1998              		.align	2
 1999              		.global	VL53L0X_decode_timeout
 2000              		.syntax unified
 2001              		.arm
 2002              		.fpu softvfp
 2003              		.type	VL53L0X_decode_timeout, %function
 2004              	VL53L0X_decode_timeout:
 2005              	.LFB13:
 2006              		.loc 1 526 0
 2007              		.cfi_startproc
 2008              		@ args = 0, pretend = 0, frame = 0
 2009              		@ frame_needed = 0, uses_anonymous_args = 0
 2010              		@ link register save eliminated.
 2011              	.LVL311:
 2012              		.loc 1 533 0
 2013 0000 7030EFE6 		uxtb	r3, r0
 2014              		.loc 1 534 0
 2015 0004 2004A0E1 		lsr	r0, r0, #8
 2016              	.LVL312:
 2017 0008 1300A0E1 		lsl	r0, r3, r0
 2018              		.loc 1 537 0
 2019 000c 010080E2 		add	r0, r0, #1
 2020 0010 1EFF2FE1 		bx	lr
 2021              		.cfi_endproc
 2022              	.LFE13:
 2023              		.size	VL53L0X_decode_timeout, .-VL53L0X_decode_timeout
 2024              		.section	.text.VL53L0X_calc_timeout_mclks,"ax",%progbits
 2025              		.align	2
 2026              		.global	VL53L0X_calc_timeout_mclks
 2027              		.syntax unified
 2028              		.arm
 2029              		.fpu softvfp
 2030              		.type	VL53L0X_calc_timeout_mclks, %function
 2031              	VL53L0X_calc_timeout_mclks:
 2032              	.LFB14:
 2033              		.loc 1 544 0
 2034              		.cfi_startproc
 2035              		@ args = 0, pretend = 0, frame = 0
 2036              		@ frame_needed = 0, uses_anonymous_args = 0
 2037              	.LVL313:
 2038              	.LBB136:
 2039              	.LBB137:
 2040              		.loc 1 492 0
 2041 0000 823262E0 		rsb	r3, r2, r2, lsl #5
 2042 0004 832282E0 		add	r2, r2, r3, lsl #5
 2043              	.LVL314:
 2044 0008 022262E0 		rsb	r2, r2, r2, lsl #4
 2045              	.LBE137:
 2046              	.LBE136:
 2047              		.loc 1 554 0
 2048 000c 28309FE5 		ldr	r3, .L115
 2049              	.LBB139:
 2050              	.LBB138:
 2051              		.loc 1 492 0
 2052 0010 0224A0E1 		lsl	r2, r2, #8
ARM GAS  /var/folders/3j/4xdnk5197cv_b7cw3n33qk7r0000gn/T//ccLoT9Qc.s 			page 37


 2053              	.LBE138:
 2054              	.LBE139:
 2055              		.loc 1 550 0
 2056 0014 7D2F82E2 		add	r2, r2, #500
 2057              	.LVL315:
 2058              		.loc 1 544 0
 2059 0018 70402DE9 		push	{r4, r5, r6, lr}
 2060              		.cfi_def_cfa_offset 16
 2061              		.cfi_offset 4, -16
 2062              		.cfi_offset 5, -12
 2063              		.cfi_offset 6, -8
 2064              		.cfi_offset 14, -4
 2065              		.loc 1 554 0
 2066 001c 924385E0 		umull	r4, r5, r2, r3
 2067              		.loc 1 553 0
 2068 0020 812261E0 		rsb	r2, r1, r1, lsl #5
 2069              	.LVL316:
 2070 0024 021181E0 		add	r1, r1, r2, lsl #2
 2071              	.LVL317:
 2072              		.loc 1 554 0
 2073 0028 A503A0E1 		lsr	r0, r5, #7
 2074              	.LVL318:
 2075              		.loc 1 552 0
 2076 002c 810180E0 		add	r0, r0, r1, lsl #3
 2077 0030 2513A0E1 		lsr	r1, r5, #6
 2078 0034 FEFFFFEB 		bl	__aeabi_uidiv
 2079              	.LVL319:
 2080              		.loc 1 557 0
 2081 0038 7080BDE8 		pop	{r4, r5, r6, pc}
 2082              	.L116:
 2083              		.align	2
 2084              	.L115:
 2085 003c D34D6210 		.word	274877907
 2086              		.cfi_endproc
 2087              	.LFE14:
 2088              		.size	VL53L0X_calc_timeout_mclks, .-VL53L0X_calc_timeout_mclks
 2089              		.section	.text.VL53L0X_calc_timeout_us,"ax",%progbits
 2090              		.align	2
 2091              		.global	VL53L0X_calc_timeout_us
 2092              		.syntax unified
 2093              		.arm
 2094              		.fpu softvfp
 2095              		.type	VL53L0X_calc_timeout_us, %function
 2096              	VL53L0X_calc_timeout_us:
 2097              	.LFB15:
 2098              		.loc 1 563 0
 2099              		.cfi_startproc
 2100              		@ args = 0, pretend = 0, frame = 0
 2101              		@ frame_needed = 0, uses_anonymous_args = 0
 2102              		@ link register save eliminated.
 2103              	.LVL320:
 2104              	.LBB140:
 2105              	.LBB141:
 2106              		.loc 1 492 0
 2107 0000 823262E0 		rsb	r3, r2, r2, lsl #5
 2108 0004 832282E0 		add	r2, r2, r3, lsl #5
 2109              	.LVL321:
ARM GAS  /var/folders/3j/4xdnk5197cv_b7cw3n33qk7r0000gn/T//ccLoT9Qc.s 			page 38


 2110 0008 022262E0 		rsb	r2, r2, r2, lsl #4
 2111              	.LBE141:
 2112              	.LBE140:
 2113              		.loc 1 569 0
 2114 000c 20009FE5 		ldr	r0, .L118
 2115              	.LVL322:
 2116              	.LBB143:
 2117              	.LBB142:
 2118              		.loc 1 492 0
 2119 0010 0224A0E1 		lsl	r2, r2, #8
 2120              	.LBE142:
 2121              	.LBE143:
 2122              		.loc 1 569 0
 2123 0014 7D2F82E2 		add	r2, r2, #500
 2124 0018 922083E0 		umull	r2, r3, r2, r0
 2125 001c 2333A0E1 		lsr	r3, r3, #6
 2126              		.loc 1 572 0
 2127 0020 910302E0 		mul	r2, r1, r3
 2128 0024 7D2F82E2 		add	r2, r2, #500
 2129              		.loc 1 571 0
 2130 0028 922083E0 		umull	r2, r3, r2, r0
 2131              		.loc 1 575 0
 2132 002c 2303A0E1 		lsr	r0, r3, #6
 2133 0030 1EFF2FE1 		bx	lr
 2134              	.L119:
 2135              		.align	2
 2136              	.L118:
 2137 0034 D34D6210 		.word	274877907
 2138              		.cfi_endproc
 2139              	.LFE15:
 2140              		.size	VL53L0X_calc_timeout_us, .-VL53L0X_calc_timeout_us
 2141              		.section	.text.get_sequence_step_timeout,"ax",%progbits
 2142              		.align	2
 2143              		.global	get_sequence_step_timeout
 2144              		.syntax unified
 2145              		.arm
 2146              		.fpu softvfp
 2147              		.type	get_sequence_step_timeout, %function
 2148              	get_sequence_step_timeout:
 2149              	.LFB16:
 2150              		.loc 1 581 0
 2151              		.cfi_startproc
 2152              		@ args = 0, pretend = 0, frame = 16
 2153              		@ frame_needed = 0, uses_anonymous_args = 0
 2154              	.LVL323:
 2155 0000 F0402DE9 		push	{r4, r5, r6, r7, lr}
 2156              		.cfi_def_cfa_offset 20
 2157              		.cfi_offset 4, -20
 2158              		.cfi_offset 5, -16
 2159              		.cfi_offset 6, -12
 2160              		.cfi_offset 7, -8
 2161              		.cfi_offset 14, -4
 2162              		.loc 1 584 0
 2163 0004 0040A0E3 		mov	r4, #0
 2164              		.loc 1 581 0
 2165 0008 14D04DE2 		sub	sp, sp, #20
 2166              		.cfi_def_cfa_offset 40
ARM GAS  /var/folders/3j/4xdnk5197cv_b7cw3n33qk7r0000gn/T//ccLoT9Qc.s 			page 39


 2167              		.loc 1 593 0
 2168 000c 020051E3 		cmp	r1, #2
 2169              		.loc 1 581 0
 2170 0010 0250A0E1 		mov	r5, r2
 2171              		.loc 1 584 0
 2172 0014 0340CDE5 		strb	r4, [sp, #3]
 2173              	.LVL324:
 2174              		.loc 1 586 0
 2175 0018 B440CDE1 		strh	r4, [sp, #4]	@ movhi
 2176              	.LVL325:
 2177              		.loc 1 581 0
 2178 001c 0060A0E1 		mov	r6, r0
 2179              		.loc 1 593 0
 2180 0020 0700009A 		bls	.L138
 2181              		.loc 1 610 0
 2182 0024 030051E3 		cmp	r1, #3
 2183 0028 3C00000A 		beq	.L139
 2184              		.loc 1 637 0
 2185 002c 040051E3 		cmp	r1, #4
 2186              		.loc 1 582 0
 2187 0030 0400A011 		movne	r0, r4
 2188              	.LVL326:
 2189              		.loc 1 637 0
 2190 0034 1D00000A 		beq	.L140
 2191              	.LVL327:
 2192              	.L123:
 2193              		.loc 1 681 0
 2194 0038 004085E5 		str	r4, [r5]
 2195              		.loc 1 684 0
 2196 003c 14D08DE2 		add	sp, sp, #20
 2197              		.cfi_remember_state
 2198              		.cfi_def_cfa_offset 20
 2199              		@ sp needed
 2200 0040 F080BDE8 		pop	{r4, r5, r6, r7, pc}
 2201              	.LVL328:
 2202              	.L138:
 2203              		.cfi_restore_state
 2204              		.loc 1 597 0
 2205 0044 0410A0E1 		mov	r1, r4
 2206              	.LVL329:
 2207 0048 02208DE2 		add	r2, sp, #2
 2208              	.LVL330:
 2209 004c FEFFFFEB 		bl	VL53L0X_GetVcselPulsePeriod
 2210              	.LVL331:
 2211              		.loc 1 600 0
 2212 0050 000050E3 		cmp	r0, #0
 2213              	.LVL332:
 2214 0054 0300001A 		bne	.L122
 2215              		.loc 1 601 0
 2216 0058 0600A0E1 		mov	r0, r6
 2217 005c 03208DE2 		add	r2, sp, #3
 2218 0060 4610A0E3 		mov	r1, #70
 2219 0064 FEFFFFEB 		bl	VL53L0X_RdByte
 2220              	.LVL333:
 2221              	.L122:
 2222              	.LBB144:
 2223              	.LBB145:
ARM GAS  /var/folders/3j/4xdnk5197cv_b7cw3n33qk7r0000gn/T//ccLoT9Qc.s 			page 40


 2224              	.LBB146:
 2225              	.LBB147:
 2226              		.loc 1 493 0
 2227 0068 0230DDE5 		ldrb	r3, [sp, #2]	@ zero_extendqisi2
 2228              	.LBE147:
 2229              	.LBE146:
 2230              		.loc 1 569 0
 2231 006c C4119FE5 		ldr	r1, .L142
 2232              	.LBB149:
 2233              	.LBB148:
 2234              		.loc 1 492 0
 2235 0070 832263E0 		rsb	r2, r3, r3, lsl #5
 2236 0074 823283E0 		add	r3, r3, r2, lsl #5
 2237 0078 033263E0 		rsb	r3, r3, r3, lsl #4
 2238 007c 0324A0E1 		lsl	r2, r3, #8
 2239              	.LBE148:
 2240              	.LBE149:
 2241              		.loc 1 569 0
 2242 0080 7D2F82E2 		add	r2, r2, #500
 2243 0084 926187E0 		umull	r6, r7, r2, r1
 2244              	.LVL334:
 2245              	.LBE145:
 2246              	.LBE144:
 2247              	.LBB152:
 2248              	.LBB153:
 2249              		.loc 1 533 0
 2250 0088 0320DDE5 		ldrb	r2, [sp, #3]	@ zero_extendqisi2
 2251              	.LBE153:
 2252              	.LBE152:
 2253              	.LBB155:
 2254              	.LBB150:
 2255              		.loc 1 569 0
 2256 008c 2733A0E1 		lsr	r3, r7, #6
 2257              	.LBE150:
 2258              	.LBE155:
 2259              	.LBB156:
 2260              	.LBB154:
 2261              		.loc 1 533 0
 2262 0090 012082E2 		add	r2, r2, #1
 2263              	.LBE154:
 2264              	.LBE156:
 2265              	.LBB157:
 2266              	.LBB151:
 2267              		.loc 1 572 0
 2268 0094 920302E0 		mul	r2, r2, r3
 2269 0098 7D2F82E2 		add	r2, r2, #500
 2270              		.loc 1 571 0
 2271 009c 922183E0 		umull	r2, r3, r2, r1
 2272 00a0 2343A0E1 		lsr	r4, r3, #6
 2273              	.LVL335:
 2274              	.LBE151:
 2275              	.LBE157:
 2276              		.loc 1 681 0
 2277 00a4 004085E5 		str	r4, [r5]
 2278              		.loc 1 684 0
 2279 00a8 14D08DE2 		add	sp, sp, #20
 2280              		.cfi_remember_state
ARM GAS  /var/folders/3j/4xdnk5197cv_b7cw3n33qk7r0000gn/T//ccLoT9Qc.s 			page 41


 2281              		.cfi_def_cfa_offset 20
 2282              		@ sp needed
 2283 00ac F080BDE8 		pop	{r4, r5, r6, r7, pc}
 2284              	.LVL336:
 2285              	.L140:
 2286              		.cfi_restore_state
 2287              		.loc 1 639 0
 2288 00b0 08108DE2 		add	r1, sp, #8
 2289              	.LVL337:
 2290 00b4 FEFFFFEB 		bl	VL53L0X_GetSequenceStepEnables
 2291              	.LVL338:
 2292              		.loc 1 642 0
 2293 00b8 0B30DDE5 		ldrb	r3, [sp, #11]	@ zero_extendqisi2
 2294 00bc 000053E3 		cmp	r3, #0
 2295 00c0 3900000A 		beq	.L131
 2296              		.loc 1 644 0
 2297 00c4 02708DE2 		add	r7, sp, #2
 2298 00c8 0720A0E1 		mov	r2, r7
 2299 00cc 0410A0E1 		mov	r1, r4
 2300 00d0 0600A0E1 		mov	r0, r6
 2301 00d4 FEFFFFEB 		bl	VL53L0X_GetVcselPulsePeriod
 2302              	.LVL339:
 2303              		.loc 1 650 0
 2304 00d8 000050E3 		cmp	r0, #0
 2305              	.LVL340:
 2306 00dc 3D00000A 		beq	.L141
 2307              	.LVL341:
 2308              	.L127:
 2309              	.LBB158:
 2310              	.LBB159:
 2311              	.LBB160:
 2312              	.LBB161:
 2313              		.loc 1 493 0
 2314 00e0 0230DDE5 		ldrb	r3, [sp, #2]	@ zero_extendqisi2
 2315              	.LBE161:
 2316              	.LBE160:
 2317              		.loc 1 569 0
 2318 00e4 4C119FE5 		ldr	r1, .L142
 2319              	.LBB163:
 2320              	.LBB162:
 2321              		.loc 1 492 0
 2322 00e8 832263E0 		rsb	r2, r3, r3, lsl #5
 2323 00ec 823283E0 		add	r3, r3, r2, lsl #5
 2324 00f0 033263E0 		rsb	r3, r3, r3, lsl #4
 2325 00f4 0364A0E1 		lsl	r6, r3, #8
 2326              	.LVL342:
 2327              	.LBE162:
 2328              	.LBE163:
 2329              		.loc 1 569 0
 2330 00f8 7D6F86E2 		add	r6, r6, #500
 2331 00fc 966187E0 		umull	r6, r7, r6, r1
 2332 0100 2723A0E1 		lsr	r2, r7, #6
 2333              		.loc 1 572 0
 2334 0104 940204E0 		mul	r4, r4, r2
 2335 0108 7D2F84E2 		add	r2, r4, #500
 2336              		.loc 1 571 0
 2337 010c 922183E0 		umull	r2, r3, r2, r1
ARM GAS  /var/folders/3j/4xdnk5197cv_b7cw3n33qk7r0000gn/T//ccLoT9Qc.s 			page 42


 2338 0110 2343A0E1 		lsr	r4, r3, #6
 2339              	.LVL343:
 2340              	.LBE159:
 2341              	.LBE158:
 2342              		.loc 1 681 0
 2343 0114 004085E5 		str	r4, [r5]
 2344              		.loc 1 684 0
 2345 0118 14D08DE2 		add	sp, sp, #20
 2346              		.cfi_remember_state
 2347              		.cfi_def_cfa_offset 20
 2348              		@ sp needed
 2349 011c F080BDE8 		pop	{r4, r5, r6, r7, pc}
 2350              	.LVL344:
 2351              	.L139:
 2352              		.cfi_restore_state
 2353              		.loc 1 612 0
 2354 0120 02208DE2 		add	r2, sp, #2
 2355              	.LVL345:
 2356 0124 0410A0E1 		mov	r1, r4
 2357              	.LVL346:
 2358 0128 FEFFFFEB 		bl	VL53L0X_GetVcselPulsePeriod
 2359              	.LVL347:
 2360              		.loc 1 617 0
 2361 012c 000050E3 		cmp	r0, #0
 2362              	.LVL348:
 2363 0130 C0FFFF1A 		bne	.L123
 2364              		.loc 1 620 0
 2365 0134 0010A0E1 		mov	r1, r0
 2366 0138 02208DE2 		add	r2, sp, #2
 2367 013c 0600A0E1 		mov	r0, r6
 2368 0140 FEFFFFEB 		bl	VL53L0X_GetVcselPulsePeriod
 2369              	.LVL349:
 2370              		.loc 1 624 0
 2371 0144 000050E3 		cmp	r0, #0
 2372              	.LVL350:
 2373 0148 0300001A 		bne	.L125
 2374              		.loc 1 625 0
 2375 014c 0600A0E1 		mov	r0, r6
 2376 0150 04208DE2 		add	r2, sp, #4
 2377 0154 5110A0E3 		mov	r1, #81
 2378 0158 FEFFFFEB 		bl	VL53L0X_RdWord
 2379              	.LVL351:
 2380              	.L125:
 2381              	.LBB164:
 2382              	.LBB165:
 2383              	.LBB166:
 2384              	.LBB167:
 2385              		.loc 1 493 0
 2386 015c 0230DDE5 		ldrb	r3, [sp, #2]	@ zero_extendqisi2
 2387              	.LBE167:
 2388              	.LBE166:
 2389              		.loc 1 569 0
 2390 0160 D0109FE5 		ldr	r1, .L142
 2391              	.LBB169:
 2392              	.LBB168:
 2393              		.loc 1 492 0
 2394 0164 832263E0 		rsb	r2, r3, r3, lsl #5
ARM GAS  /var/folders/3j/4xdnk5197cv_b7cw3n33qk7r0000gn/T//ccLoT9Qc.s 			page 43


 2395 0168 823283E0 		add	r3, r3, r2, lsl #5
 2396 016c 033263E0 		rsb	r3, r3, r3, lsl #4
 2397 0170 0324A0E1 		lsl	r2, r3, #8
 2398              	.LBE168:
 2399              	.LBE169:
 2400              	.LBE165:
 2401              	.LBE164:
 2402              		.loc 1 630 0
 2403 0174 B4E0DDE1 		ldrh	lr, [sp, #4]
 2404              	.LVL352:
 2405              	.LBB172:
 2406              	.LBB170:
 2407              		.loc 1 569 0
 2408 0178 7D2F82E2 		add	r2, r2, #500
 2409 017c 922183E0 		umull	r2, r3, r2, r1
 2410              	.LBE170:
 2411              	.LBE172:
 2412              	.LBB173:
 2413              	.LBB174:
 2414              		.loc 1 533 0
 2415 0180 7EC0EFE6 		uxtb	ip, lr
 2416              		.loc 1 534 0
 2417 0184 2EE4A0E1 		lsr	lr, lr, #8
 2418              	.LVL353:
 2419 0188 1CCEA0E1 		lsl	ip, ip, lr
 2420              		.loc 1 533 0
 2421 018c 01C08CE2 		add	ip, ip, #1
 2422              	.LBE174:
 2423              	.LBE173:
 2424              	.LBB175:
 2425              	.LBB171:
 2426              		.loc 1 569 0
 2427 0190 2323A0E1 		lsr	r2, r3, #6
 2428              		.loc 1 572 0
 2429 0194 7C30FFE6 		uxth	r3, ip
 2430 0198 920302E0 		mul	r2, r2, r3
 2431 019c 7D2F82E2 		add	r2, r2, #500
 2432              		.loc 1 571 0
 2433 01a0 922183E0 		umull	r2, r3, r2, r1
 2434 01a4 2343A0E1 		lsr	r4, r3, #6
 2435              	.LVL354:
 2436 01a8 A2FFFFEA 		b	.L123
 2437              	.LVL355:
 2438              	.L131:
 2439              	.LBE171:
 2440              	.LBE175:
 2441              		.loc 1 640 0
 2442 01ac 0340A0E1 		mov	r4, r3
 2443 01b0 02708DE2 		add	r7, sp, #2
 2444              	.LVL356:
 2445              	.L126:
 2446              		.loc 1 661 0
 2447 01b4 0720A0E1 		mov	r2, r7
 2448 01b8 0110A0E3 		mov	r1, #1
 2449 01bc 0600A0E1 		mov	r0, r6
 2450 01c0 FEFFFFEB 		bl	VL53L0X_GetVcselPulsePeriod
 2451              	.LVL357:
ARM GAS  /var/folders/3j/4xdnk5197cv_b7cw3n33qk7r0000gn/T//ccLoT9Qc.s 			page 44


 2452              		.loc 1 667 0
 2453 01c4 000050E3 		cmp	r0, #0
 2454              	.LVL358:
 2455 01c8 0F00000A 		beq	.L128
 2456              	.L137:
 2457 01cc 004064E2 		rsb	r4, r4, #0
 2458 01d0 7440FFE6 		uxth	r4, r4
 2459 01d4 C1FFFFEA 		b	.L127
 2460              	.LVL359:
 2461              	.L141:
 2462              		.loc 1 651 0
 2463 01d8 04208DE2 		add	r2, sp, #4
 2464 01dc 5110A0E3 		mov	r1, #81
 2465 01e0 0600A0E1 		mov	r0, r6
 2466 01e4 FEFFFFEB 		bl	VL53L0X_RdWord
 2467              	.LVL360:
 2468              		.loc 1 654 0
 2469 01e8 B420DDE1 		ldrh	r2, [sp, #4]
 2470              		.loc 1 659 0
 2471 01ec 000050E3 		cmp	r0, #0
 2472              	.LVL361:
 2473              	.LBB176:
 2474              	.LBB177:
 2475              		.loc 1 533 0
 2476 01f0 7230EFE6 		uxtb	r3, r2
 2477              		.loc 1 534 0
 2478 01f4 2224A0E1 		lsr	r2, r2, #8
 2479 01f8 1332A0E1 		lsl	r3, r3, r2
 2480              		.loc 1 533 0
 2481 01fc 013083E2 		add	r3, r3, #1
 2482              	.LBE177:
 2483              	.LBE176:
 2484              		.loc 1 654 0
 2485 0200 7340FFE6 		uxth	r4, r3
 2486              	.LVL362:
 2487              		.loc 1 659 0
 2488 0204 EAFFFF0A 		beq	.L126
 2489 0208 EFFFFFEA 		b	.L137
 2490              	.LVL363:
 2491              	.L128:
 2492              		.loc 1 668 0
 2493 020c 06208DE2 		add	r2, sp, #6
 2494 0210 0600A0E1 		mov	r0, r6
 2495 0214 7110A0E3 		mov	r1, #113
 2496 0218 FEFFFFEB 		bl	VL53L0X_RdWord
 2497              	.LVL364:
 2498              		.loc 1 671 0
 2499 021c B630DDE1 		ldrh	r3, [sp, #6]
 2500              	.LVL365:
 2501              	.LBB178:
 2502              	.LBB179:
 2503              		.loc 1 533 0
 2504 0220 7320EFE6 		uxtb	r2, r3
 2505              		.loc 1 534 0
 2506 0224 2334A0E1 		lsr	r3, r3, #8
 2507              	.LVL366:
 2508              		.loc 1 533 0
ARM GAS  /var/folders/3j/4xdnk5197cv_b7cw3n33qk7r0000gn/T//ccLoT9Qc.s 			page 45


 2509 0228 124364E0 		rsb	r4, r4, r2, lsl r3
 2510 022c 014084E2 		add	r4, r4, #1
 2511 0230 7440FFE6 		uxth	r4, r4
 2512 0234 A9FFFFEA 		b	.L127
 2513              	.L143:
 2514              		.align	2
 2515              	.L142:
 2516 0238 D34D6210 		.word	274877907
 2517              	.LBE179:
 2518              	.LBE178:
 2519              		.cfi_endproc
 2520              	.LFE16:
 2521              		.size	get_sequence_step_timeout, .-get_sequence_step_timeout
 2522              		.section	.text.set_sequence_step_timeout,"ax",%progbits
 2523              		.align	2
 2524              		.global	set_sequence_step_timeout
 2525              		.syntax unified
 2526              		.arm
 2527              		.fpu softvfp
 2528              		.type	set_sequence_step_timeout, %function
 2529              	set_sequence_step_timeout:
 2530              	.LFB17:
 2531              		.loc 1 690 0
 2532              		.cfi_startproc
 2533              		@ args = 0, pretend = 0, frame = 8
 2534              		@ frame_needed = 0, uses_anonymous_args = 0
 2535              	.LVL367:
 2536 0000 F0402DE9 		push	{r4, r5, r6, r7, lr}
 2537              		.cfi_def_cfa_offset 20
 2538              		.cfi_offset 4, -20
 2539              		.cfi_offset 5, -16
 2540              		.cfi_offset 6, -12
 2541              		.cfi_offset 7, -8
 2542              		.cfi_offset 14, -4
 2543              		.loc 1 701 0
 2544 0004 020051E3 		cmp	r1, #2
 2545              		.loc 1 690 0
 2546 0008 0CD04DE2 		sub	sp, sp, #12
 2547              		.cfi_def_cfa_offset 32
 2548              		.loc 1 701 0
 2549 000c 0200009A 		bls	.L150
 2550 0010 FEFFFFEB 		bl	set_sequence_step_timeout.part.1
 2551              	.LVL368:
 2552              	.L146:
 2553              		.loc 1 829 0
 2554 0014 0CD08DE2 		add	sp, sp, #12
 2555              		.cfi_remember_state
 2556              		.cfi_def_cfa_offset 20
 2557              		@ sp needed
 2558 0018 F080BDE8 		pop	{r4, r5, r6, r7, pc}
 2559              	.LVL369:
 2560              	.L150:
 2561              		.cfi_restore_state
 2562 001c 0260A0E1 		mov	r6, r2
 2563              		.loc 1 705 0
 2564 0020 0010A0E3 		mov	r1, #0
 2565              	.LVL370:
ARM GAS  /var/folders/3j/4xdnk5197cv_b7cw3n33qk7r0000gn/T//ccLoT9Qc.s 			page 46


 2566 0024 07208DE2 		add	r2, sp, #7
 2567              	.LVL371:
 2568 0028 0070A0E1 		mov	r7, r0
 2569 002c FEFFFFEB 		bl	VL53L0X_GetVcselPulsePeriod
 2570              	.LVL372:
 2571              		.loc 1 709 0
 2572 0030 000050E3 		cmp	r0, #0
 2573              	.LVL373:
 2574 0034 F6FFFF1A 		bne	.L146
 2575              	.LVL374:
 2576              	.LBB180:
 2577              	.LBB181:
 2578              	.LBB182:
 2579              	.LBB183:
 2580              		.loc 1 493 0
 2581 0038 0730DDE5 		ldrb	r3, [sp, #7]	@ zero_extendqisi2
 2582              	.LBE183:
 2583              	.LBE182:
 2584              		.loc 1 554 0
 2585 003c 60009FE5 		ldr	r0, .L151
 2586              	.LBB185:
 2587              	.LBB184:
 2588              		.loc 1 492 0
 2589 0040 832263E0 		rsb	r2, r3, r3, lsl #5
 2590 0044 823283E0 		add	r3, r3, r2, lsl #5
 2591 0048 033263E0 		rsb	r3, r3, r3, lsl #4
 2592 004c 0344A0E1 		lsl	r4, r3, #8
 2593              	.LBE184:
 2594              	.LBE185:
 2595              		.loc 1 550 0
 2596 0050 7D4F84E2 		add	r4, r4, #500
 2597              	.LVL375:
 2598              		.loc 1 554 0
 2599 0054 944085E0 		umull	r4, r5, r4, r0
 2600              	.LVL376:
 2601              		.loc 1 553 0
 2602 0058 863266E0 		rsb	r3, r6, r6, lsl #5
 2603              	.LVL377:
 2604 005c 036186E0 		add	r6, r6, r3, lsl #2
 2605              	.LVL378:
 2606              		.loc 1 554 0
 2607 0060 A503A0E1 		lsr	r0, r5, #7
 2608              		.loc 1 552 0
 2609 0064 2513A0E1 		lsr	r1, r5, #6
 2610 0068 860180E0 		add	r0, r0, r6, lsl #3
 2611 006c FEFFFFEB 		bl	__aeabi_uidiv
 2612              	.LVL379:
 2613              	.LBE181:
 2614              	.LBE180:
 2615              		.loc 1 714 0
 2616 0070 7030FFE6 		uxth	r3, r0
 2617 0074 010C53E3 		cmp	r3, #256
 2618 0078 FF30A083 		movhi	r3, #255
 2619              		.loc 1 717 0
 2620 007c 01004092 		subls	r0, r0, #1
 2621              	.LVL380:
 2622 0080 7020EF96 		uxtbls	r2, r0
ARM GAS  /var/folders/3j/4xdnk5197cv_b7cw3n33qk7r0000gn/T//ccLoT9Qc.s 			page 47


 2623              	.LVL381:
 2624 0084 7230FF96 		uxthls	r3, r2
 2625              		.loc 1 715 0
 2626 0088 0320A081 		movhi	r2, r3
 2627              	.LVL382:
 2628              		.loc 1 720 0
 2629 008c B83DC7E1 		strh	r3, [r7, #216]	@ movhi
 2630              		.loc 1 726 0
 2631 0090 0700A0E1 		mov	r0, r7
 2632 0094 4610A0E3 		mov	r1, #70
 2633 0098 FEFFFFEB 		bl	VL53L0X_WrByte
 2634              	.LVL383:
 2635              		.loc 1 829 0
 2636 009c 0CD08DE2 		add	sp, sp, #12
 2637              		.cfi_def_cfa_offset 20
 2638              		@ sp needed
 2639 00a0 F080BDE8 		pop	{r4, r5, r6, r7, pc}
 2640              	.LVL384:
 2641              	.L152:
 2642              		.align	2
 2643              	.L151:
 2644 00a4 D34D6210 		.word	274877907
 2645              		.cfi_endproc
 2646              	.LFE17:
 2647              		.size	set_sequence_step_timeout, .-set_sequence_step_timeout
 2648              		.section	.text.VL53L0X_set_vcsel_pulse_period,"ax",%progbits
 2649              		.align	2
 2650              		.global	VL53L0X_set_vcsel_pulse_period
 2651              		.syntax unified
 2652              		.arm
 2653              		.fpu softvfp
 2654              		.type	VL53L0X_set_vcsel_pulse_period, %function
 2655              	VL53L0X_set_vcsel_pulse_period:
 2656              	.LFB18:
 2657              		.loc 1 833 0
 2658              		.cfi_startproc
 2659              		@ args = 0, pretend = 0, frame = 16
 2660              		@ frame_needed = 0, uses_anonymous_args = 0
 2661              	.LVL385:
 2662              		.loc 1 844 0
 2663 0000 0030A0E3 		mov	r3, #0
 2664              		.loc 1 833 0
 2665 0004 F0412DE9 		push	{r4, r5, r6, r7, r8, lr}
 2666              		.cfi_def_cfa_offset 24
 2667              		.cfi_offset 4, -24
 2668              		.cfi_offset 5, -20
 2669              		.cfi_offset 6, -16
 2670              		.cfi_offset 7, -12
 2671              		.cfi_offset 8, -8
 2672              		.cfi_offset 14, -4
 2673              		.loc 1 848 0
 2674 0008 017012E2 		ands	r7, r2, #1
 2675              		.loc 1 833 0
 2676 000c 10D04DE2 		sub	sp, sp, #16
 2677              		.cfi_def_cfa_offset 40
 2678              		.loc 1 844 0
 2679 0010 0330CDE5 		strb	r3, [sp, #3]
ARM GAS  /var/folders/3j/4xdnk5197cv_b7cw3n33qk7r0000gn/T//ccLoT9Qc.s 			page 48


 2680              		.loc 1 848 0
 2681 0014 4D00001A 		bne	.L176
 2682              		.loc 1 851 0
 2683 0018 030051E1 		cmp	r1, r3
 2684 001c 0050A0E1 		mov	r5, r0
 2685 0020 0180A0E1 		mov	r8, r1
 2686 0024 0240A0E1 		mov	r4, r2
 2687 0028 2500001A 		bne	.L155
 2688              		.loc 1 851 0 is_stmt 0 discriminator 1
 2689 002c 0C3042E2 		sub	r3, r2, #12
 2690 0030 060053E3 		cmp	r3, #6
 2691 0034 4500008A 		bhi	.L176
 2692              		.loc 1 871 0 is_stmt 1
 2693 0038 0C0052E3 		cmp	r2, #12
 2694              		.loc 1 873 0
 2695 003c 1820A003 		moveq	r2, #24
 2696              	.LVL386:
 2697              		.loc 1 871 0
 2698 0040 3800000A 		beq	.L189
 2699              		.loc 1 879 0
 2700 0044 0E0054E3 		cmp	r4, #14
 2701              		.loc 1 881 0
 2702 0048 3020A003 		moveq	r2, #48
 2703              		.loc 1 879 0
 2704 004c 3500000A 		beq	.L189
 2705              		.loc 1 887 0
 2706 0050 100054E3 		cmp	r4, #16
 2707 0054 3200000A 		beq	.L190
 2708              		.loc 1 895 0
 2709 0058 120054E3 		cmp	r4, #18
 2710              		.loc 1 897 0
 2711 005c 5020A003 		moveq	r2, #80
 2712              		.loc 1 895 0
 2713 0060 3000000A 		beq	.L189
 2714              	.LVL387:
 2715              	.L162:
 2716              	.LBB186:
 2717              	.LBB187:
 2718              		.loc 1 117 0
 2719 0064 A430A0E1 		lsr	r3, r4, #1
 2720 0068 013043E2 		sub	r3, r3, #1
 2721              	.LBE187:
 2722              	.LBE186:
 2723              		.loc 1 1003 0
 2724 006c 08208DE2 		add	r2, sp, #8
 2725 0070 0310A0E3 		mov	r1, #3
 2726 0074 0500A0E1 		mov	r0, r5
 2727              	.LBB191:
 2728              	.LBB188:
 2729              		.loc 1 117 0
 2730 0078 7360EFE6 		uxtb	r6, r3
 2731              	.LVL388:
 2732              	.LBE188:
 2733              	.LBE191:
 2734              		.loc 1 1003 0
 2735 007c FEFFFFEB 		bl	get_sequence_step_timeout
 2736              	.LVL389:
ARM GAS  /var/folders/3j/4xdnk5197cv_b7cw3n33qk7r0000gn/T//ccLoT9Qc.s 			page 49


 2737              		.loc 1 1007 0
 2738 0080 000050E3 		cmp	r0, #0
 2739              	.LVL390:
 2740 0084 3F00000A 		beq	.L191
 2741              	.L168:
 2742              	.LVL391:
 2743              		.loc 1 1029 0
 2744 0088 E840C5E5 		strb	r4, [r5, #232]
 2745              	.L169:
 2746              		.loc 1 1061 0
 2747 008c 000050E3 		cmp	r0, #0
 2748 0090 2C00001A 		bne	.L177
 2749              	.LVL392:
 2750              		.loc 1 1066 0
 2751 0094 141095E5 		ldr	r1, [r5, #20]
 2752 0098 0500A0E1 		mov	r0, r5
 2753              	.LVL393:
 2754 009c FEFFFFEB 		bl	VL53L0X_SetMeasurementTimingBudgetMicroSeconds
 2755              	.LVL394:
 2756              		.loc 1 1073 0
 2757 00a0 000050E3 		cmp	r0, #0
 2758              	.LVL395:
 2759 00a4 2700001A 		bne	.L177
 2760              		.loc 1 1074 0
 2761 00a8 0020A0E1 		mov	r2, r0
 2762 00ac 0130A0E3 		mov	r3, #1
 2763 00b0 0500A0E1 		mov	r0, r5
 2764 00b4 03108DE2 		add	r1, sp, #3
 2765 00b8 FEFFFFEB 		bl	VL53L0X_perform_phase_calibration
 2766              	.LVL396:
 2767              		.loc 1 1078 0
 2768 00bc 10D08DE2 		add	sp, sp, #16
 2769              		.cfi_remember_state
 2770              		.cfi_def_cfa_offset 24
 2771              		@ sp needed
 2772 00c0 F081BDE8 		pop	{r4, r5, r6, r7, r8, pc}
 2773              	.LVL397:
 2774              	.L155:
 2775              		.cfi_restore_state
 2776              		.loc 1 855 0
 2777 00c4 010051E3 		cmp	r1, #1
 2778 00c8 2000001A 		bne	.L176
 2779              		.loc 1 855 0 is_stmt 0 discriminator 1
 2780 00cc 083042E2 		sub	r3, r2, #8
 2781 00d0 060053E3 		cmp	r3, #6
 2782 00d4 1D00008A 		bhi	.L176
 2783              		.loc 1 906 0 is_stmt 1
 2784 00d8 080052E3 		cmp	r2, #8
 2785 00dc 4000000A 		beq	.L192
 2786              		.loc 1 925 0
 2787 00e0 0A0052E3 		cmp	r2, #10
 2788 00e4 6700000A 		beq	.L193
 2789              		.loc 1 944 0
 2790 00e8 0C0052E3 		cmp	r2, #12
 2791 00ec 7F00000A 		beq	.L194
 2792              		.loc 1 963 0
 2793 00f0 0E0052E3 		cmp	r2, #14
ARM GAS  /var/folders/3j/4xdnk5197cv_b7cw3n33qk7r0000gn/T//ccLoT9Qc.s 			page 50


 2794 00f4 8B00000A 		beq	.L195
 2795              	.LVL398:
 2796              	.L167:
 2797              	.LBB192:
 2798              	.LBB189:
 2799              		.loc 1 117 0
 2800 00f8 A430A0E1 		lsr	r3, r4, #1
 2801 00fc 013043E2 		sub	r3, r3, #1
 2802              	.LBE189:
 2803              	.LBE192:
 2804              		.loc 1 1035 0
 2805 0100 04208DE2 		add	r2, sp, #4
 2806 0104 0410A0E3 		mov	r1, #4
 2807 0108 0500A0E1 		mov	r0, r5
 2808              	.LBB193:
 2809              	.LBB190:
 2810              		.loc 1 117 0
 2811 010c 7360EFE6 		uxtb	r6, r3
 2812              	.LVL399:
 2813              	.LBE190:
 2814              	.LBE193:
 2815              		.loc 1 1035 0
 2816 0110 FEFFFFEB 		bl	get_sequence_step_timeout
 2817              	.LVL400:
 2818              		.loc 1 1039 0
 2819 0114 000050E3 		cmp	r0, #0
 2820              	.LVL401:
 2821 0118 0F00000A 		beq	.L196
 2822              	.L170:
 2823              	.LVL402:
 2824              		.loc 1 1050 0
 2825 011c E040C5E5 		strb	r4, [r5, #224]
 2826              		.loc 1 1054 0
 2827 0120 D9FFFFEA 		b	.L169
 2828              	.LVL403:
 2829              	.L190:
 2830              		.loc 1 889 0
 2831 0124 4020A0E3 		mov	r2, #64
 2832              	.L189:
 2833 0128 5710A0E3 		mov	r1, #87
 2834              	.LVL404:
 2835 012c FEFFFFEB 		bl	VL53L0X_WrByte
 2836              	.LVL405:
 2837              		.loc 1 892 0
 2838 0130 0820A0E3 		mov	r2, #8
 2839 0134 5610A0E3 		mov	r1, #86
 2840 0138 0500A0E1 		mov	r0, r5
 2841 013c FEFFFFEB 		bl	VL53L0X_WrByte
 2842              	.LVL406:
 2843              		.loc 1 988 0
 2844 0140 000050E3 		cmp	r0, #0
 2845 0144 C6FFFF0A 		beq	.L162
 2846              	.LVL407:
 2847              	.L177:
 2848              		.loc 1 1078 0
 2849 0148 10D08DE2 		add	sp, sp, #16
 2850              		.cfi_remember_state
ARM GAS  /var/folders/3j/4xdnk5197cv_b7cw3n33qk7r0000gn/T//ccLoT9Qc.s 			page 51


 2851              		.cfi_def_cfa_offset 24
 2852              		@ sp needed
 2853 014c F081BDE8 		pop	{r4, r5, r6, r7, r8, pc}
 2854              	.LVL408:
 2855              	.L176:
 2856              		.cfi_restore_state
 2857 0150 0300E0E3 		mvn	r0, #3
 2858              	.LVL409:
 2859 0154 10D08DE2 		add	sp, sp, #16
 2860              		.cfi_remember_state
 2861              		.cfi_def_cfa_offset 24
 2862              		@ sp needed
 2863 0158 F081BDE8 		pop	{r4, r5, r6, r7, r8, pc}
 2864              	.LVL410:
 2865              	.L196:
 2866              		.cfi_restore_state
 2867              		.loc 1 1040 0
 2868 015c 0620A0E1 		mov	r2, r6
 2869 0160 7010A0E3 		mov	r1, #112
 2870 0164 0500A0E1 		mov	r0, r5
 2871 0168 FEFFFFEB 		bl	VL53L0X_WrByte
 2872              	.LVL411:
 2873              		.loc 1 1045 0
 2874 016c 000050E3 		cmp	r0, #0
 2875              	.LVL412:
 2876 0170 E9FFFF1A 		bne	.L170
 2877              	.LVL413:
 2878              	.LBB194:
 2879              	.LBB195:
 2880 0174 04209DE5 		ldr	r2, [sp, #4]
 2881 0178 0410A0E3 		mov	r1, #4
 2882 017c 0500A0E1 		mov	r0, r5
 2883 0180 FEFFFFEB 		bl	set_sequence_step_timeout.part.1
 2884              	.LVL414:
 2885 0184 E4FFFFEA 		b	.L170
 2886              	.L191:
 2887              	.LBE195:
 2888              	.LBE194:
 2889              		.loc 1 1008 0
 2890 0188 0C208DE2 		add	r2, sp, #12
 2891 018c 0210A0E3 		mov	r1, #2
 2892 0190 0500A0E1 		mov	r0, r5
 2893 0194 FEFFFFEB 		bl	get_sequence_step_timeout
 2894              	.LVL415:
 2895              		.loc 1 1012 0
 2896 0198 000050E3 		cmp	r0, #0
 2897              	.LVL416:
 2898 019c B9FFFF1A 		bne	.L168
 2899              		.loc 1 1013 0
 2900 01a0 0620A0E1 		mov	r2, r6
 2901 01a4 5010A0E3 		mov	r1, #80
 2902 01a8 0500A0E1 		mov	r0, r5
 2903 01ac FEFFFFEB 		bl	VL53L0X_WrByte
 2904              	.LVL417:
 2905              		.loc 1 1018 0
 2906 01b0 000050E3 		cmp	r0, #0
 2907              	.LVL418:
ARM GAS  /var/folders/3j/4xdnk5197cv_b7cw3n33qk7r0000gn/T//ccLoT9Qc.s 			page 52


 2908 01b4 B3FFFF1A 		bne	.L168
 2909              	.LVL419:
 2910              	.LBB196:
 2911              	.LBB197:
 2912 01b8 08209DE5 		ldr	r2, [sp, #8]
 2913 01bc 0310A0E3 		mov	r1, #3
 2914 01c0 0500A0E1 		mov	r0, r5
 2915 01c4 FEFFFFEB 		bl	set_sequence_step_timeout.part.1
 2916              	.LVL420:
 2917              	.LBE197:
 2918              	.LBE196:
 2919              		.loc 1 1024 0
 2920 01c8 000050E3 		cmp	r0, #0
 2921              	.LVL421:
 2922 01cc ADFFFF1A 		bne	.L168
 2923              		.loc 1 1025 0
 2924 01d0 0C209DE5 		ldr	r2, [sp, #12]
 2925 01d4 0210A0E3 		mov	r1, #2
 2926 01d8 0500A0E1 		mov	r0, r5
 2927 01dc FEFFFFEB 		bl	set_sequence_step_timeout
 2928              	.LVL422:
 2929 01e0 A8FFFFEA 		b	.L168
 2930              	.LVL423:
 2931              	.L192:
 2932              		.loc 1 908 0
 2933 01e4 1020A0E3 		mov	r2, #16
 2934              	.LVL424:
 2935 01e8 4810A0E3 		mov	r1, #72
 2936              	.LVL425:
 2937 01ec FEFFFFEB 		bl	VL53L0X_WrByte
 2938              	.LVL426:
 2939              		.loc 1 911 0
 2940 01f0 0420A0E1 		mov	r2, r4
 2941 01f4 4710A0E3 		mov	r1, #71
 2942 01f8 0500A0E1 		mov	r0, r5
 2943 01fc FEFFFFEB 		bl	VL53L0X_WrByte
 2944              	.LVL427:
 2945              		.loc 1 915 0
 2946 0200 0220A0E3 		mov	r2, #2
 2947              		.loc 1 911 0
 2948 0204 0060A0E1 		mov	r6, r0
 2949              	.LVL428:
 2950              		.loc 1 915 0
 2951 0208 3210A0E3 		mov	r1, #50
 2952 020c 0500A0E1 		mov	r0, r5
 2953 0210 FEFFFFEB 		bl	VL53L0X_WrByte
 2954              	.LVL429:
 2955              		.loc 1 917 0
 2956 0214 0C20A0E3 		mov	r2, #12
 2957              		.loc 1 915 0
 2958 0218 006086E1 		orr	r6, r6, r0
 2959              	.LVL430:
 2960              		.loc 1 917 0
 2961 021c 3010A0E3 		mov	r1, #48
 2962 0220 0500A0E1 		mov	r0, r5
 2963 0224 FEFFFFEB 		bl	VL53L0X_WrByte
 2964              	.LVL431:
ARM GAS  /var/folders/3j/4xdnk5197cv_b7cw3n33qk7r0000gn/T//ccLoT9Qc.s 			page 53


 2965              		.loc 1 915 0
 2966 0228 7660AFE6 		sxtb	r6, r6
 2967              	.LVL432:
 2968              		.loc 1 920 0
 2969 022c 0820A0E1 		mov	r2, r8
 2970              		.loc 1 917 0
 2971 0230 006086E1 		orr	r6, r6, r0
 2972              	.LVL433:
 2973              		.loc 1 920 0
 2974 0234 FF10A0E3 		mov	r1, #255
 2975 0238 0500A0E1 		mov	r0, r5
 2976 023c FEFFFFEB 		bl	VL53L0X_WrByte
 2977              	.LVL434:
 2978              		.loc 1 921 0
 2979 0240 3020A0E3 		mov	r2, #48
 2980              		.loc 1 917 0
 2981 0244 7660AFE6 		sxtb	r6, r6
 2982              	.LVL435:
 2983              	.L188:
 2984              		.loc 1 977 0
 2985 0248 006086E1 		orr	r6, r6, r0
 2986              	.LVL436:
 2987              		.loc 1 978 0
 2988 024c 3010A0E3 		mov	r1, #48
 2989 0250 0500A0E1 		mov	r0, r5
 2990 0254 FEFFFFEB 		bl	VL53L0X_WrByte
 2991              	.LVL437:
 2992              		.loc 1 977 0
 2993 0258 7660AFE6 		sxtb	r6, r6
 2994              	.LVL438:
 2995              		.loc 1 978 0
 2996 025c 006086E1 		orr	r6, r6, r0
 2997              	.LVL439:
 2998              		.loc 1 981 0
 2999 0260 0720A0E1 		mov	r2, r7
 3000 0264 FF10A0E3 		mov	r1, #255
 3001 0268 0500A0E1 		mov	r0, r5
 3002 026c FEFFFFEB 		bl	VL53L0X_WrByte
 3003              	.LVL440:
 3004              		.loc 1 978 0
 3005 0270 7660AFE6 		sxtb	r6, r6
 3006              	.LVL441:
 3007              		.loc 1 981 0
 3008 0274 000086E1 		orr	r0, r6, r0
 3009 0278 7000AFE6 		sxtb	r0, r0
 3010              	.LVL442:
 3011              		.loc 1 988 0
 3012 027c 000050E3 		cmp	r0, #0
 3013 0280 B0FFFF1A 		bne	.L177
 3014 0284 9BFFFFEA 		b	.L167
 3015              	.LVL443:
 3016              	.L193:
 3017              		.loc 1 927 0
 3018 0288 2820A0E3 		mov	r2, #40
 3019              	.LVL444:
 3020 028c 4810A0E3 		mov	r1, #72
 3021              	.LVL445:
ARM GAS  /var/folders/3j/4xdnk5197cv_b7cw3n33qk7r0000gn/T//ccLoT9Qc.s 			page 54


 3022 0290 FEFFFFEB 		bl	VL53L0X_WrByte
 3023              	.LVL446:
 3024              		.loc 1 930 0
 3025 0294 0820A0E3 		mov	r2, #8
 3026 0298 4710A0E3 		mov	r1, #71
 3027 029c 0500A0E1 		mov	r0, r5
 3028 02a0 FEFFFFEB 		bl	VL53L0X_WrByte
 3029              	.LVL447:
 3030              		.loc 1 934 0
 3031 02a4 0320A0E3 		mov	r2, #3
 3032              		.loc 1 930 0
 3033 02a8 0060A0E1 		mov	r6, r0
 3034              	.LVL448:
 3035              		.loc 1 934 0
 3036 02ac 3210A0E3 		mov	r1, #50
 3037 02b0 0500A0E1 		mov	r0, r5
 3038 02b4 FEFFFFEB 		bl	VL53L0X_WrByte
 3039              	.LVL449:
 3040              		.loc 1 936 0
 3041 02b8 0920A0E3 		mov	r2, #9
 3042              	.L187:
 3043              		.loc 1 972 0
 3044 02bc 006086E1 		orr	r6, r6, r0
 3045              	.LVL450:
 3046              		.loc 1 974 0
 3047 02c0 3010A0E3 		mov	r1, #48
 3048 02c4 0500A0E1 		mov	r0, r5
 3049 02c8 FEFFFFEB 		bl	VL53L0X_WrByte
 3050              	.LVL451:
 3051              		.loc 1 972 0
 3052 02cc 7660AFE6 		sxtb	r6, r6
 3053              	.LVL452:
 3054              		.loc 1 977 0
 3055 02d0 0820A0E1 		mov	r2, r8
 3056              		.loc 1 974 0
 3057 02d4 006086E1 		orr	r6, r6, r0
 3058              	.LVL453:
 3059              		.loc 1 977 0
 3060 02d8 FF10A0E3 		mov	r1, #255
 3061 02dc 0500A0E1 		mov	r0, r5
 3062 02e0 FEFFFFEB 		bl	VL53L0X_WrByte
 3063              	.LVL454:
 3064              		.loc 1 974 0
 3065 02e4 7660AFE6 		sxtb	r6, r6
 3066              	.LVL455:
 3067              		.loc 1 978 0
 3068 02e8 2020A0E3 		mov	r2, #32
 3069 02ec D5FFFFEA 		b	.L188
 3070              	.LVL456:
 3071              	.L194:
 3072              		.loc 1 946 0
 3073 02f0 3820A0E3 		mov	r2, #56
 3074              	.LVL457:
 3075 02f4 4810A0E3 		mov	r1, #72
 3076              	.LVL458:
 3077 02f8 FEFFFFEB 		bl	VL53L0X_WrByte
 3078              	.LVL459:
ARM GAS  /var/folders/3j/4xdnk5197cv_b7cw3n33qk7r0000gn/T//ccLoT9Qc.s 			page 55


 3079              		.loc 1 949 0
 3080 02fc 0820A0E3 		mov	r2, #8
 3081 0300 4710A0E3 		mov	r1, #71
 3082 0304 0500A0E1 		mov	r0, r5
 3083 0308 FEFFFFEB 		bl	VL53L0X_WrByte
 3084              	.LVL460:
 3085              		.loc 1 953 0
 3086 030c 0320A0E3 		mov	r2, #3
 3087              		.loc 1 949 0
 3088 0310 0060A0E1 		mov	r6, r0
 3089              	.LVL461:
 3090              		.loc 1 953 0
 3091 0314 3210A0E3 		mov	r1, #50
 3092 0318 0500A0E1 		mov	r0, r5
 3093 031c FEFFFFEB 		bl	VL53L0X_WrByte
 3094              	.LVL462:
 3095              		.loc 1 955 0
 3096 0320 0820A0E3 		mov	r2, #8
 3097 0324 E4FFFFEA 		b	.L187
 3098              	.LVL463:
 3099              	.L195:
 3100              		.loc 1 965 0
 3101 0328 4820A0E3 		mov	r2, #72
 3102              	.LVL464:
 3103 032c 0210A0E1 		mov	r1, r2
 3104              	.LVL465:
 3105 0330 FEFFFFEB 		bl	VL53L0X_WrByte
 3106              	.LVL466:
 3107              		.loc 1 968 0
 3108 0334 0820A0E3 		mov	r2, #8
 3109 0338 4710A0E3 		mov	r1, #71
 3110 033c 0500A0E1 		mov	r0, r5
 3111 0340 FEFFFFEB 		bl	VL53L0X_WrByte
 3112              	.LVL467:
 3113              		.loc 1 972 0
 3114 0344 0320A0E3 		mov	r2, #3
 3115              		.loc 1 968 0
 3116 0348 0060A0E1 		mov	r6, r0
 3117              	.LVL468:
 3118              		.loc 1 972 0
 3119 034c 3210A0E3 		mov	r1, #50
 3120 0350 0500A0E1 		mov	r0, r5
 3121 0354 FEFFFFEB 		bl	VL53L0X_WrByte
 3122              	.LVL469:
 3123              		.loc 1 974 0
 3124 0358 0720A0E3 		mov	r2, #7
 3125 035c D6FFFFEA 		b	.L187
 3126              		.cfi_endproc
 3127              	.LFE18:
 3128              		.size	VL53L0X_set_vcsel_pulse_period, .-VL53L0X_set_vcsel_pulse_period
 3129              		.section	.text.VL53L0X_get_vcsel_pulse_period,"ax",%progbits
 3130              		.align	2
 3131              		.global	VL53L0X_get_vcsel_pulse_period
 3132              		.syntax unified
 3133              		.arm
 3134              		.fpu softvfp
 3135              		.type	VL53L0X_get_vcsel_pulse_period, %function
ARM GAS  /var/folders/3j/4xdnk5197cv_b7cw3n33qk7r0000gn/T//ccLoT9Qc.s 			page 56


 3136              	VL53L0X_get_vcsel_pulse_period:
 3137              	.LFB19:
 3138              		.loc 1 1082 0
 3139              		.cfi_startproc
 3140              		@ args = 0, pretend = 0, frame = 8
 3141              		@ frame_needed = 0, uses_anonymous_args = 0
 3142              	.LVL470:
 3143 0000 10402DE9 		push	{r4, lr}
 3144              		.cfi_def_cfa_offset 8
 3145              		.cfi_offset 4, -8
 3146              		.cfi_offset 14, -4
 3147              		.loc 1 1086 0
 3148 0004 000051E3 		cmp	r1, #0
 3149              	.LVL471:
 3150              		.loc 1 1082 0
 3151 0008 08D04DE2 		sub	sp, sp, #8
 3152              		.cfi_def_cfa_offset 16
 3153              		.loc 1 1082 0
 3154 000c 0240A0E1 		mov	r4, r2
 3155              		.loc 1 1086 0
 3156 0010 0F00000A 		beq	.L199
 3157 0014 010051E3 		cmp	r1, #1
 3158 0018 0A00001A 		bne	.L205
 3159              		.loc 1 1093 0
 3160 001c 07208DE2 		add	r2, sp, #7
 3161              	.LVL472:
 3162 0020 7010A0E3 		mov	r1, #112
 3163 0024 FEFFFFEB 		bl	VL53L0X_RdByte
 3164              	.LVL473:
 3165              	.L201:
 3166              		.loc 1 1101 0
 3167 0028 000050E3 		cmp	r0, #0
 3168 002c 0600001A 		bne	.L198
 3169              	.LBB198:
 3170              	.LBB199:
 3171              		.loc 1 103 0
 3172 0030 0730DDE5 		ldrb	r3, [sp, #7]	@ zero_extendqisi2
 3173 0034 013083E2 		add	r3, r3, #1
 3174 0038 8330A0E1 		lsl	r3, r3, #1
 3175              	.LBE199:
 3176              	.LBE198:
 3177              		.loc 1 1102 0
 3178 003c 0030C4E5 		strb	r3, [r4]
 3179              		.loc 1 1106 0
 3180 0040 08D08DE2 		add	sp, sp, #8
 3181              		.cfi_remember_state
 3182              		.cfi_def_cfa_offset 8
 3183              		@ sp needed
 3184 0044 1080BDE8 		pop	{r4, pc}
 3185              	.LVL474:
 3186              	.L205:
 3187              		.cfi_restore_state
 3188              		.loc 1 1098 0
 3189 0048 0300E0E3 		mvn	r0, #3
 3190              	.LVL475:
 3191              	.L198:
 3192              		.loc 1 1106 0
ARM GAS  /var/folders/3j/4xdnk5197cv_b7cw3n33qk7r0000gn/T//ccLoT9Qc.s 			page 57


 3193 004c 08D08DE2 		add	sp, sp, #8
 3194              		.cfi_remember_state
 3195              		.cfi_def_cfa_offset 8
 3196              		@ sp needed
 3197 0050 1080BDE8 		pop	{r4, pc}
 3198              	.LVL476:
 3199              	.L199:
 3200              		.cfi_restore_state
 3201              		.loc 1 1088 0
 3202 0054 07208DE2 		add	r2, sp, #7
 3203              	.LVL477:
 3204 0058 5010A0E3 		mov	r1, #80
 3205 005c FEFFFFEB 		bl	VL53L0X_RdByte
 3206              	.LVL478:
 3207              		.loc 1 1091 0
 3208 0060 F0FFFFEA 		b	.L201
 3209              		.cfi_endproc
 3210              	.LFE19:
 3211              		.size	VL53L0X_get_vcsel_pulse_period, .-VL53L0X_get_vcsel_pulse_period
 3212              		.section	.text.VL53L0X_set_measurement_timing_budget_micro_seconds,"ax",%progbits
 3213              		.align	2
 3214              		.global	VL53L0X_set_measurement_timing_budget_micro_seconds
 3215              		.syntax unified
 3216              		.arm
 3217              		.fpu softvfp
 3218              		.type	VL53L0X_set_measurement_timing_budget_micro_seconds, %function
 3219              	VL53L0X_set_measurement_timing_budget_micro_seconds:
 3220              	.LFB20:
 3221              		.loc 1 1112 0
 3222              		.cfi_startproc
 3223              		@ args = 0, pretend = 0, frame = 16
 3224              		@ frame_needed = 0, uses_anonymous_args = 0
 3225              	.LVL479:
 3226              		.loc 1 1116 0
 3227 0000 7DCEA0E3 		mov	ip, #2000
 3228              		.loc 1 1124 0
 3229 0004 0030A0E3 		mov	r3, #0
 3230              		.loc 1 1112 0
 3231 0008 F0402DE9 		push	{r4, r5, r6, r7, lr}
 3232              		.cfi_def_cfa_offset 20
 3233              		.cfi_offset 4, -20
 3234              		.cfi_offset 5, -16
 3235              		.cfi_offset 6, -12
 3236              		.cfi_offset 7, -8
 3237              		.cfi_offset 14, -4
 3238              		.loc 1 1130 0
 3239 000c 68219FE5 		ldr	r2, .L237
 3240              		.loc 1 1112 0
 3241 0010 14D04DE2 		sub	sp, sp, #20
 3242              		.cfi_def_cfa_offset 40
 3243              		.loc 1 1130 0
 3244 0014 020051E1 		cmp	r1, r2
 3245              		.loc 1 1116 0
 3246 0018 00C08DE5 		str	ip, [sp]
 3247              	.LVL480:
 3248              		.loc 1 1124 0
 3249 001c 04308DE5 		str	r3, [sp, #4]
ARM GAS  /var/folders/3j/4xdnk5197cv_b7cw3n33qk7r0000gn/T//ccLoT9Qc.s 			page 58


 3250              	.LVL481:
 3251              		.loc 1 1130 0
 3252 0020 5100009A 		bls	.L212
 3253 0024 0140A0E1 		mov	r4, r1
 3254              	.LVL482:
 3255              		.loc 1 1140 0
 3256 0028 08108DE2 		add	r1, sp, #8
 3257              	.LVL483:
 3258 002c 0070A0E1 		mov	r7, r0
 3259 0030 FEFFFFEB 		bl	VL53L0X_GetSequenceStepEnables
 3260              	.LVL484:
 3261              		.loc 1 1142 0
 3262 0034 006050E2 		subs	r6, r0, #0
 3263 0038 1700001A 		bne	.L208
 3264              		.loc 1 1142 0 is_stmt 0 discriminator 1
 3265 003c 0830DDE5 		ldrb	r3, [sp, #8]	@ zero_extendqisi2
 3266              		.loc 1 1136 0 is_stmt 1 discriminator 1
 3267 0040 B35E44E2 		sub	r5, r4, #2864
 3268              		.loc 1 1142 0 discriminator 1
 3269 0044 000053E3 		cmp	r3, #0
 3270              		.loc 1 1136 0 discriminator 1
 3271 0048 065045E2 		sub	r5, r5, #6
 3272              		.loc 1 1142 0 discriminator 1
 3273 004c 1500001A 		bne	.L209
 3274              		.loc 1 1143 0
 3275 0050 0930DDE5 		ldrb	r3, [sp, #9]	@ zero_extendqisi2
 3276 0054 000053E3 		cmp	r3, #0
 3277 0058 1200001A 		bne	.L209
 3278              		.loc 1 1144 0
 3279 005c 0A30DDE5 		ldrb	r3, [sp, #10]	@ zero_extendqisi2
 3280 0060 000053E3 		cmp	r3, #0
 3281 0064 0F00001A 		bne	.L209
 3282              	.LVL485:
 3283              	.L210:
 3284              		.loc 1 1213 0
 3285 0068 0B30DDE5 		ldrb	r3, [sp, #11]	@ zero_extendqisi2
 3286 006c 000053E3 		cmp	r3, #0
 3287 0070 2900001A 		bne	.L234
 3288              	.L214:
 3289              		.loc 1 1233 0 discriminator 1
 3290 0074 0C30DDE5 		ldrb	r3, [sp, #12]	@ zero_extendqisi2
 3291 0078 000053E3 		cmp	r3, #0
 3292 007c 0600000A 		beq	.L208
 3293              	.LVL486:
 3294              	.LBB200:
 3295              	.LBB201:
 3296 0080 892F45E2 		sub	r2, r5, #548
 3297 0084 022042E2 		sub	r2, r2, #2
 3298 0088 0410A0E3 		mov	r1, #4
 3299 008c 0700A0E1 		mov	r0, r7
 3300 0090 FEFFFFEB 		bl	set_sequence_step_timeout.part.1
 3301              	.LVL487:
 3302 0094 0060A0E1 		mov	r6, r0
 3303              	.LVL488:
 3304              	.LBE201:
 3305              	.LBE200:
 3306              		.loc 1 1250 0
ARM GAS  /var/folders/3j/4xdnk5197cv_b7cw3n33qk7r0000gn/T//ccLoT9Qc.s 			page 59


 3307 0098 144087E5 		str	r4, [r7, #20]
 3308              	.LVL489:
 3309              	.L208:
 3310              		.loc 1 1258 0
 3311 009c 0600A0E1 		mov	r0, r6
 3312 00a0 14D08DE2 		add	sp, sp, #20
 3313              		.cfi_remember_state
 3314              		.cfi_def_cfa_offset 20
 3315              		@ sp needed
 3316 00a4 F080BDE8 		pop	{r4, r5, r6, r7, pc}
 3317              	.LVL490:
 3318              	.L209:
 3319              		.cfi_restore_state
 3320              		.loc 1 1148 0
 3321 00a8 0D20A0E1 		mov	r2, sp
 3322 00ac 0210A0E3 		mov	r1, #2
 3323 00b0 0700A0E1 		mov	r0, r7
 3324              	.LVL491:
 3325 00b4 FEFFFFEB 		bl	get_sequence_step_timeout
 3326              	.LVL492:
 3327              		.loc 1 1155 0
 3328 00b8 000050E3 		cmp	r0, #0
 3329              	.LVL493:
 3330 00bc 2000001A 		bne	.L216
 3331              		.loc 1 1159 0
 3332 00c0 0830DDE5 		ldrb	r3, [sp, #8]	@ zero_extendqisi2
 3333 00c4 000053E3 		cmp	r3, #0
 3334 00c8 0500000A 		beq	.L211
 3335              		.loc 1 1161 0
 3336 00cc 00309DE5 		ldr	r3, [sp]
 3337 00d0 933F83E2 		add	r3, r3, #588
 3338 00d4 023083E2 		add	r3, r3, #2
 3339              	.LVL494:
 3340              		.loc 1 1164 0
 3341 00d8 030055E1 		cmp	r5, r3
 3342 00dc 2200009A 		bls	.L212
 3343              		.loc 1 1166 0
 3344 00e0 035045E0 		sub	r5, r5, r3
 3345              	.LVL495:
 3346              	.L211:
 3347              		.loc 1 1180 0
 3348 00e4 0A30DDE5 		ldrb	r3, [sp, #10]	@ zero_extendqisi2
 3349 00e8 000053E3 		cmp	r3, #0
 3350 00ec 1800001A 		bne	.L235
 3351              		.loc 1 1192 0
 3352 00f0 0930DDE5 		ldrb	r3, [sp, #9]	@ zero_extendqisi2
 3353 00f4 000053E3 		cmp	r3, #0
 3354 00f8 DAFFFF0A 		beq	.L210
 3355              		.loc 1 1194 0
 3356 00fc 00309DE5 		ldr	r3, [sp]
 3357 0100 A53F83E2 		add	r3, r3, #660
 3358              	.LVL496:
 3359              		.loc 1 1197 0
 3360 0104 030055E1 		cmp	r5, r3
 3361 0108 1700009A 		bls	.L212
 3362              	.L233:
 3363              		.loc 1 1199 0
ARM GAS  /var/folders/3j/4xdnk5197cv_b7cw3n33qk7r0000gn/T//ccLoT9Qc.s 			page 60


 3364 010c 035045E0 		sub	r5, r5, r3
 3365              	.LVL497:
 3366              		.loc 1 1213 0
 3367 0110 0B30DDE5 		ldrb	r3, [sp, #11]	@ zero_extendqisi2
 3368              	.LVL498:
 3369 0114 000053E3 		cmp	r3, #0
 3370 0118 D5FFFF0A 		beq	.L214
 3371              	.LVL499:
 3372              	.L234:
 3373              		.loc 1 1217 0
 3374 011c 04208DE2 		add	r2, sp, #4
 3375 0120 0310A0E3 		mov	r1, #3
 3376 0124 0700A0E1 		mov	r0, r7
 3377 0128 FEFFFFEB 		bl	get_sequence_step_timeout
 3378              	.LVL500:
 3379              		.loc 1 1221 0
 3380 012c 04309DE5 		ldr	r3, [sp, #4]
 3381 0130 A53F83E2 		add	r3, r3, #660
 3382              	.LVL501:
 3383              		.loc 1 1224 0
 3384 0134 050053E1 		cmp	r3, r5
 3385 0138 0B00002A 		bcs	.L212
 3386              	.LVL502:
 3387              		.loc 1 1233 0
 3388 013c 000050E3 		cmp	r0, #0
 3389 0140 0B00000A 		beq	.L236
 3390              	.LVL503:
 3391              	.L216:
 3392 0144 0060A0E1 		mov	r6, r0
 3393              		.loc 1 1258 0
 3394 0148 0600A0E1 		mov	r0, r6
 3395 014c 14D08DE2 		add	sp, sp, #20
 3396              		.cfi_remember_state
 3397              		.cfi_def_cfa_offset 20
 3398              		@ sp needed
 3399 0150 F080BDE8 		pop	{r4, r5, r6, r7, pc}
 3400              	.LVL504:
 3401              	.L235:
 3402              		.cfi_restore_state
 3403              		.loc 1 1182 0
 3404 0154 00309DE5 		ldr	r3, [sp]
 3405 0158 2B3E83E2 		add	r3, r3, #688
 3406 015c 023083E2 		add	r3, r3, #2
 3407 0160 8330A0E1 		lsl	r3, r3, #1
 3408              	.LVL505:
 3409              		.loc 1 1185 0
 3410 0164 030055E1 		cmp	r5, r3
 3411 0168 E7FFFF8A 		bhi	.L233
 3412              	.LVL506:
 3413              	.L212:
 3414              		.loc 1 1133 0
 3415 016c 0360E0E3 		mvn	r6, #3
 3416 0170 C9FFFFEA 		b	.L208
 3417              	.LVL507:
 3418              	.L236:
 3419              		.loc 1 1225 0
 3420 0174 035045E0 		sub	r5, r5, r3
ARM GAS  /var/folders/3j/4xdnk5197cv_b7cw3n33qk7r0000gn/T//ccLoT9Qc.s 			page 61


 3421              	.LVL508:
 3422 0178 BDFFFFEA 		b	.L214
 3423              	.L238:
 3424              		.align	2
 3425              	.L237:
 3426 017c 1F4E0000 		.word	19999
 3427              		.cfi_endproc
 3428              	.LFE20:
 3429              		.size	VL53L0X_set_measurement_timing_budget_micro_seconds, .-VL53L0X_set_measurement_timing_budget
 3430              		.section	.text.VL53L0X_get_measurement_timing_budget_micro_seconds,"ax",%progbits
 3431              		.align	2
 3432              		.global	VL53L0X_get_measurement_timing_budget_micro_seconds
 3433              		.syntax unified
 3434              		.arm
 3435              		.fpu softvfp
 3436              		.type	VL53L0X_get_measurement_timing_budget_micro_seconds, %function
 3437              	VL53L0X_get_measurement_timing_budget_micro_seconds:
 3438              	.LFB21:
 3439              		.loc 1 1262 0
 3440              		.cfi_startproc
 3441              		@ args = 0, pretend = 0, frame = 24
 3442              		@ frame_needed = 0, uses_anonymous_args = 0
 3443              	.LVL509:
 3444 0000 70402DE9 		push	{r4, r5, r6, lr}
 3445              		.cfi_def_cfa_offset 16
 3446              		.cfi_offset 4, -16
 3447              		.cfi_offset 5, -12
 3448              		.cfi_offset 6, -8
 3449              		.cfi_offset 14, -4
 3450 0004 0140A0E1 		mov	r4, r1
 3451              		.loc 1 1266 0
 3452 0008 7D2EA0E3 		mov	r2, #2000
 3453              		.loc 1 1274 0
 3454 000c 0030A0E3 		mov	r3, #0
 3455              		.loc 1 1280 0
 3456 0010 60C19FE5 		ldr	ip, .L267
 3457              		.loc 1 1262 0
 3458 0014 18D04DE2 		sub	sp, sp, #24
 3459              		.cfi_def_cfa_offset 40
 3460              		.loc 1 1280 0
 3461 0018 00C084E5 		str	ip, [r4]
 3462              		.loc 1 1282 0
 3463 001c 10108DE2 		add	r1, sp, #16
 3464              	.LVL510:
 3465              		.loc 1 1274 0
 3466 0020 F820CDE1 		strd	r2, [sp, #8]
 3467              		.loc 1 1262 0
 3468 0024 0060A0E1 		mov	r6, r0
 3469              		.loc 1 1282 0
 3470 0028 FEFFFFEB 		bl	VL53L0X_GetSequenceStepEnables
 3471              	.LVL511:
 3472              		.loc 1 1284 0
 3473 002c 005050E2 		subs	r5, r0, #0
 3474 0030 1B00001A 		bne	.L252
 3475              		.loc 1 1290 0
 3476 0034 1030DDE5 		ldrb	r3, [sp, #16]	@ zero_extendqisi2
 3477 0038 000053E3 		cmp	r3, #0
ARM GAS  /var/folders/3j/4xdnk5197cv_b7cw3n33qk7r0000gn/T//ccLoT9Qc.s 			page 62


 3478 003c 1B00001A 		bne	.L241
 3479              		.loc 1 1290 0 is_stmt 0 discriminator 1
 3480 0040 1130DDE5 		ldrb	r3, [sp, #17]	@ zero_extendqisi2
 3481 0044 000053E3 		cmp	r3, #0
 3482 0048 1800001A 		bne	.L241
 3483              		.loc 1 1291 0 is_stmt 1
 3484 004c 1230DDE5 		ldrb	r3, [sp, #18]	@ zero_extendqisi2
 3485 0050 000053E3 		cmp	r3, #0
 3486 0054 1500001A 		bne	.L241
 3487              	.LVL512:
 3488              	.L245:
 3489              		.loc 1 1318 0
 3490 0058 1330DDE5 		ldrb	r3, [sp, #19]	@ zero_extendqisi2
 3491 005c 000053E3 		cmp	r3, #0
 3492 0060 0A00000A 		beq	.L249
 3493              		.loc 1 1319 0
 3494 0064 0C208DE2 		add	r2, sp, #12
 3495 0068 0310A0E3 		mov	r1, #3
 3496 006c 0600A0E1 		mov	r0, r6
 3497 0070 FEFFFFEB 		bl	get_sequence_step_timeout
 3498              	.LVL513:
 3499              		.loc 1 1323 0
 3500 0074 0C209DE5 		ldr	r2, [sp, #12]
 3501              		.loc 1 1322 0
 3502 0078 003094E5 		ldr	r3, [r4]
 3503              		.loc 1 1323 0
 3504 007c A52F82E2 		add	r2, r2, #660
 3505              		.loc 1 1322 0
 3506 0080 023083E0 		add	r3, r3, r2
 3507              		.loc 1 1328 0
 3508 0084 000050E3 		cmp	r0, #0
 3509              	.LVL514:
 3510              		.loc 1 1322 0
 3511 0088 003084E5 		str	r3, [r4]
 3512              		.loc 1 1328 0
 3513 008c 2E00001A 		bne	.L251
 3514              	.L249:
 3515              		.loc 1 1329 0
 3516 0090 1430DDE5 		ldrb	r3, [sp, #20]	@ zero_extendqisi2
 3517 0094 000053E3 		cmp	r3, #0
 3518 0098 1F00001A 		bne	.L246
 3519 009c 003094E5 		ldr	r3, [r4]
 3520              	.L247:
 3521              		.loc 1 1340 0
 3522 00a0 143086E5 		str	r3, [r6, #20]
 3523              	.L252:
 3524              		.loc 1 1347 0
 3525 00a4 0500A0E1 		mov	r0, r5
 3526 00a8 18D08DE2 		add	sp, sp, #24
 3527              		.cfi_remember_state
 3528              		.cfi_def_cfa_offset 16
 3529              		@ sp needed
 3530 00ac 7080BDE8 		pop	{r4, r5, r6, pc}
 3531              	.LVL515:
 3532              	.L241:
 3533              		.cfi_restore_state
 3534              		.loc 1 1294 0
ARM GAS  /var/folders/3j/4xdnk5197cv_b7cw3n33qk7r0000gn/T//ccLoT9Qc.s 			page 63


 3535 00b0 08208DE2 		add	r2, sp, #8
 3536 00b4 0210A0E3 		mov	r1, #2
 3537 00b8 0600A0E1 		mov	r0, r6
 3538              	.LVL516:
 3539 00bc FEFFFFEB 		bl	get_sequence_step_timeout
 3540              	.LVL517:
 3541              		.loc 1 1298 0
 3542 00c0 000050E3 		cmp	r0, #0
 3543              	.LVL518:
 3544 00c4 2000001A 		bne	.L251
 3545              		.loc 1 1299 0
 3546 00c8 1030DDE5 		ldrb	r3, [sp, #16]	@ zero_extendqisi2
 3547 00cc 000053E3 		cmp	r3, #0
 3548 00d0 0500000A 		beq	.L243
 3549              		.loc 1 1301 0
 3550 00d4 08209DE5 		ldr	r2, [sp, #8]
 3551              		.loc 1 1300 0
 3552 00d8 003094E5 		ldr	r3, [r4]
 3553              		.loc 1 1301 0
 3554 00dc 932F82E2 		add	r2, r2, #588
 3555 00e0 022082E2 		add	r2, r2, #2
 3556              		.loc 1 1300 0
 3557 00e4 023083E0 		add	r3, r3, r2
 3558 00e8 003084E5 		str	r3, [r4]
 3559              	.L243:
 3560              		.loc 1 1305 0
 3561 00ec 1230DDE5 		ldrb	r3, [sp, #18]	@ zero_extendqisi2
 3562 00f0 000053E3 		cmp	r3, #0
 3563 00f4 1800001A 		bne	.L266
 3564              		.loc 1 1309 0
 3565 00f8 1130DDE5 		ldrb	r3, [sp, #17]	@ zero_extendqisi2
 3566 00fc 000053E3 		cmp	r3, #0
 3567 0100 D4FFFF0A 		beq	.L245
 3568              		.loc 1 1311 0
 3569 0104 08209DE5 		ldr	r2, [sp, #8]
 3570              		.loc 1 1310 0
 3571 0108 003094E5 		ldr	r3, [r4]
 3572              		.loc 1 1311 0
 3573 010c A52F82E2 		add	r2, r2, #660
 3574              		.loc 1 1310 0
 3575 0110 023083E0 		add	r3, r3, r2
 3576 0114 003084E5 		str	r3, [r4]
 3577              	.LVL519:
 3578 0118 CEFFFFEA 		b	.L245
 3579              	.LVL520:
 3580              	.L246:
 3581              		.loc 1 1330 0
 3582 011c 04208DE2 		add	r2, sp, #4
 3583 0120 0410A0E3 		mov	r1, #4
 3584 0124 0600A0E1 		mov	r0, r6
 3585 0128 FEFFFFEB 		bl	get_sequence_step_timeout
 3586              	.LVL521:
 3587              		.loc 1 1334 0
 3588 012c 04209DE5 		ldr	r2, [sp, #4]
 3589              		.loc 1 1333 0
 3590 0130 003094E5 		ldr	r3, [r4]
 3591              		.loc 1 1334 0
ARM GAS  /var/folders/3j/4xdnk5197cv_b7cw3n33qk7r0000gn/T//ccLoT9Qc.s 			page 64


 3592 0134 892F82E2 		add	r2, r2, #548
 3593 0138 022082E2 		add	r2, r2, #2
 3594              		.loc 1 1333 0
 3595 013c 023083E0 		add	r3, r3, r2
 3596              		.loc 1 1339 0
 3597 0140 000050E3 		cmp	r0, #0
 3598              	.LVL522:
 3599              		.loc 1 1333 0
 3600 0144 003084E5 		str	r3, [r4]
 3601              		.loc 1 1339 0
 3602 0148 D4FFFF0A 		beq	.L247
 3603              	.L251:
 3604 014c 0050A0E1 		mov	r5, r0
 3605              		.loc 1 1347 0
 3606 0150 0500A0E1 		mov	r0, r5
 3607 0154 18D08DE2 		add	sp, sp, #24
 3608              		.cfi_remember_state
 3609              		.cfi_def_cfa_offset 16
 3610              		@ sp needed
 3611 0158 7080BDE8 		pop	{r4, r5, r6, pc}
 3612              	.LVL523:
 3613              	.L266:
 3614              		.cfi_restore_state
 3615              		.loc 1 1307 0
 3616 015c 08209DE5 		ldr	r2, [sp, #8]
 3617              		.loc 1 1306 0
 3618 0160 003094E5 		ldr	r3, [r4]
 3619              		.loc 1 1307 0
 3620 0164 2B2E82E2 		add	r2, r2, #688
 3621 0168 022082E2 		add	r2, r2, #2
 3622              		.loc 1 1306 0
 3623 016c 823083E0 		add	r3, r3, r2, lsl #1
 3624 0170 003084E5 		str	r3, [r4]
 3625              	.LVL524:
 3626 0174 B7FFFFEA 		b	.L245
 3627              	.L268:
 3628              		.align	2
 3629              	.L267:
 3630 0178 360B0000 		.word	2870
 3631              		.cfi_endproc
 3632              	.LFE21:
 3633              		.size	VL53L0X_get_measurement_timing_budget_micro_seconds, .-VL53L0X_get_measurement_timing_budget
 3634              		.section	.text.VL53L0X_load_tuning_settings,"ax",%progbits
 3635              		.align	2
 3636              		.global	VL53L0X_load_tuning_settings
 3637              		.syntax unified
 3638              		.arm
 3639              		.fpu softvfp
 3640              		.type	VL53L0X_load_tuning_settings, %function
 3641              	VL53L0X_load_tuning_settings:
 3642              	.LFB22:
 3643              		.loc 1 1353 0
 3644              		.cfi_startproc
 3645              		@ args = 0, pretend = 0, frame = 8
 3646              		@ frame_needed = 0, uses_anonymous_args = 0
 3647              	.LVL525:
 3648              		.loc 1 1369 0
ARM GAS  /var/folders/3j/4xdnk5197cv_b7cw3n33qk7r0000gn/T//ccLoT9Qc.s 			page 65


 3649 0000 0030D1E5 		ldrb	r3, [r1]	@ zero_extendqisi2
 3650 0004 000053E3 		cmp	r3, #0
 3651 0008 5700000A 		beq	.L292
 3652              		.loc 1 1353 0
 3653 000c F0432DE9 		push	{r4, r5, r6, r7, r8, r9, lr}
 3654              		.cfi_def_cfa_offset 28
 3655              		.cfi_offset 4, -28
 3656              		.cfi_offset 5, -24
 3657              		.cfi_offset 6, -20
 3658              		.cfi_offset 7, -16
 3659              		.cfi_offset 8, -12
 3660              		.cfi_offset 9, -8
 3661              		.cfi_offset 14, -4
 3662 0010 0060A0E1 		mov	r6, r0
 3663 0014 0150A0E1 		mov	r5, r1
 3664              		.loc 1 1367 0
 3665 0018 0040A0E3 		mov	r4, #0
 3666              		.loc 1 1353 0
 3667 001c 0CD04DE2 		sub	sp, sp, #12
 3668              		.cfi_def_cfa_offset 40
 3669              		.loc 1 1409 0
 3670 0020 4F8F80E2 		add	r8, r0, #316
 3671              		.loc 1 1401 0
 3672 0024 4E7F80E2 		add	r7, r0, #312
 3673              	.LVL526:
 3674              	.L270:
 3675 0028 01C084E2 		add	ip, r4, #1
 3676              		.loc 1 1392 0
 3677 002c 4D2F86E2 		add	r2, r6, #308
 3678              	.LVL527:
 3679              	.L281:
 3680              		.loc 1 1373 0
 3681 0030 FF0053E3 		cmp	r3, #255
 3682 0034 01104CE2 		sub	r1, ip, #1
 3683              	.LVL528:
 3684 0038 0400000A 		beq	.L293
 3685              		.loc 1 1415 0
 3686 003c 040053E3 		cmp	r3, #4
 3687 0040 0A00009A 		bls	.L294
 3688              	.LVL529:
 3689              	.L284:
 3690              		.loc 1 1429 0
 3691 0044 0300E0E3 		mvn	r0, #3
 3692              		.loc 1 1435 0
 3693 0048 0CD08DE2 		add	sp, sp, #12
 3694              		.cfi_remember_state
 3695              		.cfi_def_cfa_offset 28
 3696              		@ sp needed
 3697 004c F083BDE8 		pop	{r4, r5, r6, r7, r8, r9, pc}
 3698              	.LVL530:
 3699              	.L293:
 3700              		.cfi_restore_state
 3701              		.loc 1 1377 0
 3702 0050 0C30D5E7 		ldrb	r3, [r5, ip]	@ zero_extendqisi2
 3703              	.LVL531:
 3704 0054 030053E3 		cmp	r3, #3
 3705 0058 03F19F97 		ldrls	pc, [pc, r3, asl #2]
ARM GAS  /var/folders/3j/4xdnk5197cv_b7cw3n33qk7r0000gn/T//ccLoT9Qc.s 			page 66


 3706 005c F8FFFFEA 		b	.L284
 3707              	.L275:
 3708 0060 48010000 		.word	.L274
 3709 0064 24010000 		.word	.L276
 3710 0068 F8000000 		.word	.L277
 3711 006c D0000000 		.word	.L278
 3712              	.LVL532:
 3713              	.L294:
 3714              		.loc 1 1416 0
 3715 0070 0520A0E1 		mov	r2, r5
 3716 0074 010085E2 		add	r0, r5, #1
 3717 0078 010080E0 		add	r0, r0, r1
 3718 007c 04E08DE2 		add	lr, sp, #4
 3719 0080 0C10F2E7 		ldrb	r1, [r2, ip]!	@ zero_extendqisi2
 3720              	.LVL533:
 3721 0084 030080E0 		add	r0, r0, r3
 3722              		.loc 1 1417 0
 3723 0088 01C08CE2 		add	ip, ip, #1
 3724              	.LVL534:
 3725              	.L280:
 3726              		.loc 1 1420 0 discriminator 3
 3727 008c 0190F2E5 		ldrb	r9, [r2, #1]!	@ zero_extendqisi2
 3728              		.loc 1 1419 0 discriminator 3
 3729 0090 000052E1 		cmp	r2, r0
 3730              		.loc 1 1420 0 discriminator 3
 3731 0094 0190CEE4 		strb	r9, [lr], #1
 3732              		.loc 1 1419 0 discriminator 3
 3733 0098 FBFFFF1A 		bne	.L280
 3734              		.loc 1 1425 0
 3735 009c 04208DE2 		add	r2, sp, #4
 3736 00a0 0600A0E1 		mov	r0, r6
 3737 00a4 03408CE0 		add	r4, ip, r3
 3738 00a8 FEFFFFEB 		bl	VL53L0X_WriteMulti
 3739              	.LVL535:
 3740              		.loc 1 1369 0
 3741 00ac 0430D5E7 		ldrb	r3, [r5, r4]	@ zero_extendqisi2
 3742 00b0 002093E2 		adds	r2, r3, #0
 3743 00b4 0120A013 		movne	r2, #1
 3744 00b8 000050E3 		cmp	r0, #0
 3745 00bc 0020A013 		movne	r2, #0
 3746 00c0 000052E3 		cmp	r2, #0
 3747 00c4 D7FFFF1A 		bne	.L270
 3748              		.loc 1 1435 0
 3749 00c8 0CD08DE2 		add	sp, sp, #12
 3750              		.cfi_remember_state
 3751              		.cfi_def_cfa_offset 28
 3752              		@ sp needed
 3753 00cc F083BDE8 		pop	{r4, r5, r6, r7, r8, r9, pc}
 3754              	.LVL536:
 3755              	.L278:
 3756              		.cfi_restore_state
 3757 00d0 0C3085E0 		add	r3, r5, ip
 3758              	.LVL537:
 3759              		.loc 1 1408 0
 3760 00d4 0100D3E5 		ldrb	r0, [r3, #1]	@ zero_extendqisi2
 3761 00d8 0210D3E5 		ldrb	r1, [r3, #2]	@ zero_extendqisi2
 3762 00dc 001481E0 		add	r1, r1, r0, lsl #8
ARM GAS  /var/folders/3j/4xdnk5197cv_b7cw3n33qk7r0000gn/T//ccLoT9Qc.s 			page 67


 3763              		.loc 1 1409 0
 3764 00e0 B010C8E1 		strh	r1, [r8]	@ movhi
 3765              	.LVL538:
 3766              		.loc 1 1369 0
 3767 00e4 0330D3E5 		ldrb	r3, [r3, #3]	@ zero_extendqisi2
 3768 00e8 000053E3 		cmp	r3, #0
 3769 00ec 0900000A 		beq	.L271
 3770              	.LVL539:
 3771              	.L279:
 3772 00f0 04C08CE2 		add	ip, ip, #4
 3773 00f4 CDFFFFEA 		b	.L281
 3774              	.LVL540:
 3775              	.L277:
 3776 00f8 0C3085E0 		add	r3, r5, ip
 3777              	.LVL541:
 3778              		.loc 1 1400 0
 3779 00fc 0100D3E5 		ldrb	r0, [r3, #1]	@ zero_extendqisi2
 3780 0100 0210D3E5 		ldrb	r1, [r3, #2]	@ zero_extendqisi2
 3781 0104 001481E0 		add	r1, r1, r0, lsl #8
 3782              		.loc 1 1401 0
 3783 0108 B010C7E1 		strh	r1, [r7]	@ movhi
 3784              	.LVL542:
 3785              		.loc 1 1369 0
 3786 010c 0330D3E5 		ldrb	r3, [r3, #3]	@ zero_extendqisi2
 3787 0110 000053E3 		cmp	r3, #0
 3788 0114 F5FFFF1A 		bne	.L279
 3789              	.LVL543:
 3790              	.L271:
 3791              		.loc 1 1354 0
 3792 0118 0000A0E3 		mov	r0, #0
 3793              		.loc 1 1435 0
 3794 011c 0CD08DE2 		add	sp, sp, #12
 3795              		.cfi_remember_state
 3796              		.cfi_def_cfa_offset 28
 3797              		@ sp needed
 3798 0120 F083BDE8 		pop	{r4, r5, r6, r7, r8, r9, pc}
 3799              	.LVL544:
 3800              	.L276:
 3801              		.cfi_restore_state
 3802 0124 0C3085E0 		add	r3, r5, ip
 3803              	.LVL545:
 3804              		.loc 1 1391 0
 3805 0128 0100D3E5 		ldrb	r0, [r3, #1]	@ zero_extendqisi2
 3806 012c 0210D3E5 		ldrb	r1, [r3, #2]	@ zero_extendqisi2
 3807 0130 001481E0 		add	r1, r1, r0, lsl #8
 3808              		.loc 1 1392 0
 3809 0134 B210C2E1 		strh	r1, [r2, #2]	@ movhi
 3810              	.LVL546:
 3811              		.loc 1 1369 0
 3812 0138 0330D3E5 		ldrb	r3, [r3, #3]	@ zero_extendqisi2
 3813 013c 000053E3 		cmp	r3, #0
 3814 0140 EAFFFF1A 		bne	.L279
 3815 0144 F3FFFFEA 		b	.L271
 3816              	.LVL547:
 3817              	.L274:
 3818 0148 0C3085E0 		add	r3, r5, ip
 3819              	.LVL548:
ARM GAS  /var/folders/3j/4xdnk5197cv_b7cw3n33qk7r0000gn/T//ccLoT9Qc.s 			page 68


 3820              		.loc 1 1383 0
 3821 014c 0100D3E5 		ldrb	r0, [r3, #1]	@ zero_extendqisi2
 3822 0150 0210D3E5 		ldrb	r1, [r3, #2]	@ zero_extendqisi2
 3823 0154 001481E0 		add	r1, r1, r0, lsl #8
 3824              		.loc 1 1384 0
 3825 0158 B010C2E1 		strh	r1, [r2]	@ movhi
 3826              	.LVL549:
 3827              		.loc 1 1369 0
 3828 015c 0330D3E5 		ldrb	r3, [r3, #3]	@ zero_extendqisi2
 3829 0160 000053E3 		cmp	r3, #0
 3830 0164 E1FFFF1A 		bne	.L279
 3831 0168 EAFFFFEA 		b	.L271
 3832              	.LVL550:
 3833              	.L292:
 3834              		.cfi_def_cfa_offset 0
 3835              		.cfi_restore 4
 3836              		.cfi_restore 5
 3837              		.cfi_restore 6
 3838              		.cfi_restore 7
 3839              		.cfi_restore 8
 3840              		.cfi_restore 9
 3841              		.cfi_restore 14
 3842              		.loc 1 1354 0
 3843 016c 0000A0E3 		mov	r0, #0
 3844              	.LVL551:
 3845              		.loc 1 1435 0
 3846 0170 1EFF2FE1 		bx	lr
 3847              		.cfi_endproc
 3848              	.LFE22:
 3849              		.size	VL53L0X_load_tuning_settings, .-VL53L0X_load_tuning_settings
 3850              		.section	.text.VL53L0X_get_total_xtalk_rate,"ax",%progbits
 3851              		.align	2
 3852              		.global	VL53L0X_get_total_xtalk_rate
 3853              		.syntax unified
 3854              		.arm
 3855              		.fpu softvfp
 3856              		.type	VL53L0X_get_total_xtalk_rate, %function
 3857              	VL53L0X_get_total_xtalk_rate:
 3858              	.LFB23:
 3859              		.loc 1 1440 0
 3860              		.cfi_startproc
 3861              		@ args = 0, pretend = 0, frame = 8
 3862              		@ frame_needed = 0, uses_anonymous_args = 0
 3863              	.LVL552:
 3864              		.loc 1 1447 0
 3865 0000 0030A0E3 		mov	r3, #0
 3866              		.loc 1 1440 0
 3867 0004 70402DE9 		push	{r4, r5, r6, lr}
 3868              		.cfi_def_cfa_offset 16
 3869              		.cfi_offset 4, -16
 3870              		.cfi_offset 5, -12
 3871              		.cfi_offset 6, -8
 3872              		.cfi_offset 14, -4
 3873 0008 08D04DE2 		sub	sp, sp, #8
 3874              		.cfi_def_cfa_offset 24
 3875              		.loc 1 1440 0
 3876 000c 0160A0E1 		mov	r6, r1
ARM GAS  /var/folders/3j/4xdnk5197cv_b7cw3n33qk7r0000gn/T//ccLoT9Qc.s 			page 69


 3877              		.loc 1 1447 0
 3878 0010 003082E5 		str	r3, [r2]
 3879              		.loc 1 1449 0
 3880 0014 07108DE2 		add	r1, sp, #7
 3881              	.LVL553:
 3882              		.loc 1 1440 0
 3883 0018 0240A0E1 		mov	r4, r2
 3884 001c 0050A0E1 		mov	r5, r0
 3885              		.loc 1 1449 0
 3886 0020 FEFFFFEB 		bl	VL53L0X_GetXTalkCompensationEnable
 3887              	.LVL554:
 3888              		.loc 1 1450 0
 3889 0024 000050E3 		cmp	r0, #0
 3890              	.LVL555:
 3891 0028 0800001A 		bne	.L296
 3892              		.loc 1 1452 0
 3893 002c 0730DDE5 		ldrb	r3, [sp, #7]	@ zero_extendqisi2
 3894 0030 000053E3 		cmp	r3, #0
 3895 0034 0500000A 		beq	.L296
 3896              	.LVL556:
 3897              	.LBB204:
 3898              	.LBB205:
 3899              		.loc 1 1461 0
 3900 0038 B421D6E1 		ldrh	r2, [r6, #20]
 3901              		.loc 1 1460 0
 3902 003c 203095E5 		ldr	r3, [r5, #32]
 3903 0040 930203E0 		mul	r3, r3, r2
 3904              	.LVL557:
 3905              		.loc 1 1466 0
 3906 0044 803083E2 		add	r3, r3, #128
 3907              	.LVL558:
 3908 0048 2334A0E1 		lsr	r3, r3, #8
 3909              	.LVL559:
 3910              		.loc 1 1465 0
 3911 004c 003084E5 		str	r3, [r4]
 3912              	.LVL560:
 3913              	.L296:
 3914              	.LBE205:
 3915              	.LBE204:
 3916              		.loc 1 1471 0
 3917 0050 08D08DE2 		add	sp, sp, #8
 3918              		.cfi_def_cfa_offset 16
 3919              		@ sp needed
 3920 0054 7080BDE8 		pop	{r4, r5, r6, pc}
 3921              		.cfi_endproc
 3922              	.LFE23:
 3923              		.size	VL53L0X_get_total_xtalk_rate, .-VL53L0X_get_total_xtalk_rate
 3924              		.section	.text.VL53L0X_get_total_signal_rate,"ax",%progbits
 3925              		.align	2
 3926              		.global	VL53L0X_get_total_signal_rate
 3927              		.syntax unified
 3928              		.arm
 3929              		.fpu softvfp
 3930              		.type	VL53L0X_get_total_signal_rate, %function
 3931              	VL53L0X_get_total_signal_rate:
 3932              	.LFB24:
 3933              		.loc 1 1476 0
ARM GAS  /var/folders/3j/4xdnk5197cv_b7cw3n33qk7r0000gn/T//ccLoT9Qc.s 			page 70


 3934              		.cfi_startproc
 3935              		@ args = 0, pretend = 0, frame = 8
 3936              		@ frame_needed = 0, uses_anonymous_args = 0
 3937              	.LVL561:
 3938 0000 10402DE9 		push	{r4, lr}
 3939              		.cfi_def_cfa_offset 8
 3940              		.cfi_offset 4, -8
 3941              		.cfi_offset 14, -4
 3942 0004 0240A0E1 		mov	r4, r2
 3943              		.loc 1 1483 0
 3944 0008 0C3091E5 		ldr	r3, [r1, #12]
 3945              		.loc 1 1476 0
 3946 000c 08D04DE2 		sub	sp, sp, #8
 3947              		.cfi_def_cfa_offset 16
 3948              		.loc 1 1485 0
 3949 0010 04208DE2 		add	r2, sp, #4
 3950              	.LVL562:
 3951              		.loc 1 1482 0
 3952 0014 003084E5 		str	r3, [r4]
 3953              		.loc 1 1485 0
 3954 0018 FEFFFFEB 		bl	VL53L0X_get_total_xtalk_rate
 3955              	.LVL563:
 3956              		.loc 1 1488 0
 3957 001c 000050E3 		cmp	r0, #0
 3958              	.LVL564:
 3959              		.loc 1 1489 0
 3960 0020 00309405 		ldreq	r3, [r4]
 3961 0024 04209D05 		ldreq	r2, [sp, #4]
 3962 0028 02308300 		addeq	r3, r3, r2
 3963 002c 00308405 		streq	r3, [r4]
 3964              		.loc 1 1492 0
 3965 0030 08D08DE2 		add	sp, sp, #8
 3966              		.cfi_def_cfa_offset 8
 3967              		@ sp needed
 3968 0034 1080BDE8 		pop	{r4, pc}
 3969              		.cfi_endproc
 3970              	.LFE24:
 3971              		.size	VL53L0X_get_total_signal_rate, .-VL53L0X_get_total_signal_rate
 3972              		.section	.text.VL53L0X_calc_dmax,"ax",%progbits
 3973              		.align	2
 3974              		.global	VL53L0X_calc_dmax
 3975              		.syntax unified
 3976              		.arm
 3977              		.fpu softvfp
 3978              		.type	VL53L0X_calc_dmax, %function
 3979              	VL53L0X_calc_dmax:
 3980              	.LFB25:
 3981              		.loc 1 1503 0
 3982              		.cfi_startproc
 3983              		@ args = 16, pretend = 0, frame = 0
 3984              		@ frame_needed = 0, uses_anonymous_args = 0
 3985              	.LVL565:
 3986              		.loc 1 1531 0
 3987 0000 55CF80E2 		add	ip, r0, #340
 3988              		.loc 1 1530 0
 3989 0004 B0C0DCE1 		ldrh	ip, [ip]
 3990              	.LVL566:
ARM GAS  /var/folders/3j/4xdnk5197cv_b7cw3n33qk7r0000gn/T//ccLoT9Qc.s 			page 71


 3991              		.loc 1 1537 0
 3992 0008 580190E5 		ldr	r0, [r0, #344]
 3993              	.LVL567:
 3994              		.loc 1 1503 0
 3995 000c F0472DE9 		push	{r4, r5, r6, r7, r8, r9, r10, lr}
 3996              		.cfi_def_cfa_offset 32
 3997              		.cfi_offset 4, -32
 3998              		.cfi_offset 5, -28
 3999              		.cfi_offset 6, -24
 4000              		.cfi_offset 7, -20
 4001              		.cfi_offset 8, -16
 4002              		.cfi_offset 9, -12
 4003              		.cfi_offset 10, -8
 4004              		.cfi_offset 14, -4
 4005              		.loc 1 1537 0
 4006 0010 900C06E0 		mul	r6, r0, ip
 4007              	.LVL568:
 4008              		.loc 1 1540 0
 4009 0014 806086E2 		add	r6, r6, #128
 4010              	.LVL569:
 4011 0018 2664A0E1 		lsr	r6, r6, #8
 4012              	.LVL570:
 4013              		.loc 1 1503 0
 4014 001c 20408DE2 		add	r4, sp, #32
 4015              		.loc 1 1544 0
 4016 0020 007052E2 		subs	r7, r2, #0
 4017              		.loc 1 1503 0
 4018 0024 03A0A0E1 		mov	r10, r3
 4019 0028 100394E8 		ldm	r4, {r4, r8, r9}
 4020              		.loc 1 1541 0
 4021 002c 960C06E0 		mul	r6, r6, ip
 4022              	.LVL571:
 4023              		.loc 1 1503 0
 4024 0030 2C509DE5 		ldr	r5, [sp, #44]
 4025              		.loc 1 1544 0
 4026 0034 0700000A 		beq	.L305
 4027              	.LVL572:
 4028              		.loc 1 1548 0
 4029 0038 0115A0E1 		lsl	r1, r1, #10
 4030              	.LVL573:
 4031              		.loc 1 1555 0
 4032 003c A70081E0 		add	r0, r1, r7, lsr #1
 4033              	.LVL574:
 4034 0040 0710A0E1 		mov	r1, r7
 4035              	.LVL575:
 4036 0044 FEFFFFEB 		bl	__aeabi_uidiv
 4037              	.LVL576:
 4038              		.loc 1 1559 0
 4039 0048 800080E0 		add	r0, r0, r0, lsl #1
 4040              	.LVL577:
 4041              		.loc 1 1562 0
 4042 004c 900000E0 		mul	r0, r0, r0
 4043              	.LVL578:
 4044              		.loc 1 1565 0
 4045 0050 027980E2 		add	r7, r0, #32768
 4046              	.LVL579:
 4047 0054 2778A0E1 		lsr	r7, r7, #16
ARM GAS  /var/folders/3j/4xdnk5197cv_b7cw3n33qk7r0000gn/T//ccLoT9Qc.s 			page 72


 4048              	.LVL580:
 4049              	.L305:
 4050              		.loc 1 1581 0
 4051 0058 022988E2 		add	r2, r8, #32768
 4052              		.loc 1 1582 0
 4053 005c 54119FE5 		ldr	r1, .L333
 4054              		.loc 1 1581 0
 4055 0060 2228A0E1 		lsr	r2, r2, #16
 4056              		.loc 1 1582 0
 4057 0064 032082E2 		add	r2, r2, #3
 4058 0068 922183E0 		umull	r2, r3, r2, r1
 4059 006c 2331A0E1 		lsr	r3, r3, #2
 4060              		.loc 1 1584 0
 4061 0070 833163E0 		rsb	r3, r3, r3, lsl #3
 4062              		.loc 1 1586 0
 4063 0074 010853E3 		cmp	r3, #65536
 4064              		.loc 1 1594 0
 4065 0078 03808832 		addcc	r8, r8, #3
 4066 007c 98218330 		umullcc	r2, r3, r8, r1
 4067              		.loc 1 1568 0
 4068 0080 940A00E0 		mul	r0, r4, r10
 4069              	.LVL581:
 4070              		.loc 1 1594 0
 4071 0084 2331A031 		lsrcc	r3, r3, #2
 4072              		.loc 1 1596 0
 4073 0088 83316330 		rsbcc	r3, r3, r3, lsl #3
 4074              		.loc 1 1571 0
 4075 008c 020980E2 		add	r0, r0, #32768
 4076              	.LVL582:
 4077              		.loc 1 1599 0
 4078 0090 02398332 		addcc	r3, r3, #32768
 4079              		.loc 1 1571 0
 4080 0094 2008A0E1 		lsr	r0, r0, #16
 4081              	.LVL583:
 4082              		.loc 1 1599 0
 4083 0098 2338A031 		lsrcc	r3, r3, #16
 4084              		.loc 1 1574 0
 4085 009c 900000E0 		mul	r0, r0, r0
 4086              	.LVL584:
 4087              		.loc 1 1601 0
 4088 00a0 93030330 		mulcc	r3, r3, r3
 4089              	.LVL585:
 4090              		.loc 1 1587 0
 4091 00a4 10319F25 		ldrcs	r3, .L333+4
 4092              	.LVL586:
 4093              		.loc 1 1630 0
 4094 00a8 A90080E0 		add	r0, r0, r9, lsr #1
 4095              	.LVL587:
 4096              		.loc 1 1631 0
 4097 00ac 030080E0 		add	r0, r0, r3
 4098              	.LVL588:
 4099 00b0 0910A0E1 		mov	r1, r9
 4100 00b4 FEFFFFEB 		bl	__aeabi_uidiv
 4101              	.LVL589:
 4102              	.LBB206:
 4103              	.LBB207:
 4104              		.loc 1 132 0
ARM GAS  /var/folders/3j/4xdnk5197cv_b7cw3n33qk7r0000gn/T//ccLoT9Qc.s 			page 73


 4105 00b8 0131A0E3 		mov	r3, #1073741824
 4106              	.LBE207:
 4107              	.LBE206:
 4108              		.loc 1 1634 0
 4109 00bc 0007A0E1 		lsl	r0, r0, #14
 4110              	.LVL590:
 4111              		.loc 1 1638 0
 4112 00c0 F8209FE5 		ldr	r2, .L333+8
 4113              		.loc 1 1637 0
 4114 00c4 7F0080E2 		add	r0, r0, #127
 4115              	.LVL591:
 4116              		.loc 1 1638 0
 4117 00c8 A000A0E1 		lsr	r0, r0, #1
 4118              	.LVL592:
 4119 00cc 900281E0 		umull	r0, r1, r0, r2
 4120 00d0 2103A0E1 		lsr	r0, r1, #6
 4121              	.LVL593:
 4122              		.loc 1 1641 0
 4123 00d4 900700E0 		mul	r0, r0, r7
 4124              	.LVL594:
 4125              		.loc 1 1650 0
 4126 00d8 E4209FE5 		ldr	r2, .L333+12
 4127 00dc 7D0F80E2 		add	r0, r0, #500
 4128              	.LVL595:
 4129 00e0 900281E0 		umull	r0, r1, r0, r2
 4130              	.LVL596:
 4131 00e4 2113A0E1 		lsr	r1, r1, #6
 4132              	.LVL597:
 4133              		.loc 1 1651 0
 4134 00e8 0112A0E1 		lsl	r1, r1, #4
 4135              	.LVL598:
 4136              		.loc 1 1653 0
 4137 00ec 7DCF81E2 		add	ip, r1, #500
 4138 00f0 9C0281E0 		umull	r0, r1, ip, r2
 4139              		.loc 1 1660 0
 4140 00f4 202086E2 		add	r2, r6, #32
 4141              		.loc 1 1653 0
 4142 00f8 2113A0E1 		lsr	r1, r1, #6
 4143              	.LVL599:
 4144              		.loc 1 1660 0
 4145 00fc 2223A0E1 		lsr	r2, r2, #6
 4146              	.LVL600:
 4147              	.L307:
 4148              	.LBB210:
 4149              	.LBB208:
 4150              		.loc 1 138 0
 4151 0100 2331A0E1 		lsr	r3, r3, #2
 4152              	.LVL601:
 4153              		.loc 1 137 0
 4154 0104 030052E1 		cmp	r2, r3
 4155 0108 FCFFFF3A 		bcc	.L307
 4156              		.loc 1 141 0
 4157 010c 000053E3 		cmp	r3, #0
 4158              		.loc 1 131 0
 4159 0110 0340A001 		moveq	r4, r3
 4160              	.LVL602:
 4161              		.loc 1 141 0
ARM GAS  /var/folders/3j/4xdnk5197cv_b7cw3n33qk7r0000gn/T//ccLoT9Qc.s 			page 74


 4162 0114 0700000A 		beq	.L308
 4163              		.loc 1 131 0
 4164 0118 0040A0E3 		mov	r4, #0
 4165              	.LVL603:
 4166              	.L310:
 4167              		.loc 1 142 0
 4168 011c 040083E0 		add	r0, r3, r4
 4169 0120 020050E1 		cmp	r0, r2
 4170 0124 A440A0E1 		lsr	r4, r4, #1
 4171              	.LVL604:
 4172              		.loc 1 143 0
 4173 0128 00204290 		subls	r2, r2, r0
 4174              	.LVL605:
 4175              		.loc 1 144 0
 4176 012c 03408490 		addls	r4, r4, r3
 4177              	.LVL606:
 4178              		.loc 1 141 0
 4179 0130 2331B0E1 		lsrs	r3, r3, #2
 4180              	.LVL607:
 4181 0134 F8FFFF1A 		bne	.L310
 4182              	.LVL608:
 4183              	.L308:
 4184              	.LBE208:
 4185              	.LBE210:
 4186              		.loc 1 1668 0
 4187 0138 000051E3 		cmp	r1, #0
 4188 013c 0600000A 		beq	.L311
 4189              		.loc 1 1669 0
 4190 0140 7C209FE5 		ldr	r2, .L333+12
 4191 0144 9C2283E0 		umull	r2, r3, ip, r2
 4192 0148 A30386E0 		add	r0, r6, r3, lsr #7
 4193 014c FEFFFFEB 		bl	__aeabi_uidiv
 4194              	.LVL609:
 4195              	.LBB211:
 4196              	.LBB212:
 4197              		.loc 1 137 0
 4198 0150 070170E3 		cmn	r0, #-1073741823
 4199              	.LBE212:
 4200              	.LBE211:
 4201              		.loc 1 1669 0
 4202 0154 0010A0E1 		mov	r1, r0
 4203              	.LVL610:
 4204              	.LBB216:
 4205              	.LBB213:
 4206              		.loc 1 137 0
 4207 0158 1200008A 		bhi	.L319
 4208              	.LVL611:
 4209              	.L311:
 4210              	.LBE213:
 4211              	.LBE216:
 4212              	.LBB217:
 4213              	.LBB209:
 4214              		.loc 1 131 0
 4215 015c 0131A0E3 		mov	r3, #1073741824
 4216              	.L313:
 4217              	.LVL612:
 4218              	.LBE209:
ARM GAS  /var/folders/3j/4xdnk5197cv_b7cw3n33qk7r0000gn/T//ccLoT9Qc.s 			page 75


 4219              	.LBE217:
 4220              	.LBB218:
 4221              	.LBB214:
 4222              		.loc 1 138 0
 4223 0160 2331A0E1 		lsr	r3, r3, #2
 4224              	.LVL613:
 4225              		.loc 1 137 0
 4226 0164 010053E1 		cmp	r3, r1
 4227 0168 FCFFFF8A 		bhi	.L313
 4228              	.LVL614:
 4229              		.loc 1 141 0
 4230 016c 000053E3 		cmp	r3, #0
 4231 0170 0E00000A 		beq	.L332
 4232              	.LVL615:
 4233              	.L312:
 4234              		.loc 1 132 0
 4235 0174 0020A0E3 		mov	r2, #0
 4236              	.LVL616:
 4237              	.L316:
 4238              		.loc 1 142 0
 4239 0178 030082E0 		add	r0, r2, r3
 4240 017c 010050E1 		cmp	r0, r1
 4241 0180 A220A0E1 		lsr	r2, r2, #1
 4242              	.LVL617:
 4243              		.loc 1 143 0
 4244 0184 00104190 		subls	r1, r1, r0
 4245              	.LVL618:
 4246              		.loc 1 144 0
 4247 0188 03208290 		addls	r2, r2, r3
 4248              	.LVL619:
 4249              		.loc 1 141 0
 4250 018c 2331B0E1 		lsrs	r3, r3, #2
 4251              	.LVL620:
 4252 0190 F8FFFF1A 		bne	.L316
 4253              	.LVL621:
 4254              	.L314:
 4255 0194 040052E1 		cmp	r2, r4
 4256 0198 0420A021 		movcs	r2, r4
 4257              	.LBE214:
 4258              	.LBE218:
 4259              		.loc 1 1683 0
 4260 019c 0000A0E3 		mov	r0, #0
 4261 01a0 002085E5 		str	r2, [r5]
 4262 01a4 F087BDE8 		pop	{r4, r5, r6, r7, r8, r9, r10, pc}
 4263              	.LVL622:
 4264              	.L319:
 4265              	.LBB219:
 4266              	.LBB215:
 4267              		.loc 1 132 0
 4268 01a8 0131A0E3 		mov	r3, #1073741824
 4269 01ac F0FFFFEA 		b	.L312
 4270              	.LVL623:
 4271              	.L332:
 4272              		.loc 1 131 0
 4273 01b0 0320A0E1 		mov	r2, r3
 4274 01b4 F6FFFFEA 		b	.L314
 4275              	.L334:
ARM GAS  /var/folders/3j/4xdnk5197cv_b7cw3n33qk7r0000gn/T//ccLoT9Qc.s 			page 76


 4276              		.align	2
 4277              	.L333:
 4278 01b8 ABAAAAAA 		.word	-1431655765
 4279 01bc 0000F0FF 		.word	-1048576
 4280 01c0 09040281 		.word	-2130574327
 4281 01c4 D34D6210 		.word	274877907
 4282              	.LBE215:
 4283              	.LBE219:
 4284              		.cfi_endproc
 4285              	.LFE25:
 4286              		.size	VL53L0X_calc_dmax, .-VL53L0X_calc_dmax
 4287              		.global	__aeabi_idiv
 4288              		.section	.text.VL53L0X_calc_sigma_estimate,"ax",%progbits
 4289              		.align	2
 4290              		.global	VL53L0X_calc_sigma_estimate
 4291              		.syntax unified
 4292              		.arm
 4293              		.fpu softvfp
 4294              		.type	VL53L0X_calc_sigma_estimate, %function
 4295              	VL53L0X_calc_sigma_estimate:
 4296              	.LFB26:
 4297              		.loc 1 1690 0
 4298              		.cfi_startproc
 4299              		@ args = 0, pretend = 0, frame = 40
 4300              		@ frame_needed = 0, uses_anonymous_args = 0
 4301              	.LVL624:
 4302 0000 F04F2DE9 		push	{r4, r5, r6, r7, r8, r9, r10, fp, lr}
 4303              		.cfi_def_cfa_offset 36
 4304              		.cfi_offset 4, -36
 4305              		.cfi_offset 5, -32
 4306              		.cfi_offset 6, -28
 4307              		.cfi_offset 7, -24
 4308              		.cfi_offset 8, -20
 4309              		.cfi_offset 9, -16
 4310              		.cfi_offset 10, -12
 4311              		.cfi_offset 11, -8
 4312              		.cfi_offset 14, -4
 4313              		.loc 1 1748 0
 4314 0004 20C090E5 		ldr	ip, [r0, #32]
 4315              		.loc 1 1690 0
 4316 0008 3CD04DE2 		sub	sp, sp, #60
 4317              		.cfi_def_cfa_offset 96
 4318              		.loc 1 1690 0
 4319 000c 02B0A0E1 		mov	fp, r2
 4320              	.LBB220:
 4321              	.LBB221:
 4322              		.loc 1 1485 0
 4323 0010 34208DE2 		add	r2, sp, #52
 4324              	.LVL625:
 4325              	.LBE221:
 4326              	.LBE220:
 4327              		.loc 1 1759 0
 4328 0014 0C7091E5 		ldr	r7, [r1, #12]
 4329              		.loc 1 1690 0
 4330 0018 0040A0E1 		mov	r4, r0
 4331 001c 0150A0E1 		mov	r5, r1
 4332 0020 14308DE5 		str	r3, [sp, #20]
ARM GAS  /var/folders/3j/4xdnk5197cv_b7cw3n33qk7r0000gn/T//ccLoT9Qc.s 			page 77


 4333              		.loc 1 1748 0
 4334 0024 30C08DE5 		str	ip, [sp, #48]
 4335              		.loc 1 1757 0
 4336 0028 108091E5 		ldr	r8, [r1, #16]
 4337              	.LVL626:
 4338              	.LBB224:
 4339              	.LBB222:
 4340              		.loc 1 1485 0
 4341 002c FEFFFFEB 		bl	VL53L0X_get_total_xtalk_rate
 4342              	.LVL627:
 4343              		.loc 1 1488 0
 4344 0030 000050E3 		cmp	r0, #0
 4345              		.loc 1 1489 0
 4346 0034 34909D05 		ldreq	r9, [sp, #52]
 4347              	.LBE222:
 4348              	.LBE224:
 4349              		.loc 1 1765 0
 4350 0038 30208DE2 		add	r2, sp, #48
 4351 003c 0510A0E1 		mov	r1, r5
 4352 0040 0400A0E1 		mov	r0, r4
 4353              	.LVL628:
 4354              	.LBB225:
 4355              	.LBB223:
 4356              		.loc 1 1489 0
 4357 0044 09908700 		addeq	r9, r7, r9
 4358              	.LVL629:
 4359              		.loc 1 1482 0
 4360 0048 0790A011 		movne	r9, r7
 4361              	.LVL630:
 4362              	.LBE223:
 4363              	.LBE225:
 4364              		.loc 1 1765 0
 4365 004c FEFFFFEB 		bl	VL53L0X_get_total_xtalk_rate
 4366              	.LVL631:
 4367              		.loc 1 1780 0
 4368 0050 000050E3 		cmp	r0, #0
 4369              	.LVL632:
 4370 0054 F700001A 		bne	.L337
 4371              	.LVL633:
 4372              		.loc 1 1786 0
 4373 0058 E060D4E5 		ldrb	r6, [r4, #224]	@ zero_extendqisi2
 4374              	.LVL634:
 4375              		.loc 1 1772 0
 4376 005c 89A269E0 		rsb	r10, r9, r9, lsl #5
 4377              		.loc 1 1804 0
 4378 0060 080056E3 		cmp	r6, #8
 4379 0064 0330A013 		movne	r3, #3
 4380 0068 0230A003 		moveq	r3, #2
 4381              		.loc 1 1772 0
 4382 006c 0AA189E0 		add	r10, r9, r10, lsl #2
 4383 0070 8AA1A0E1 		lsl	r10, r10, #3
 4384              		.loc 1 1773 0
 4385 0074 02A98AE2 		add	r10, r10, #32768
 4386              		.loc 1 1804 0
 4387 0078 20308DE5 		str	r3, [sp, #32]
 4388              	.LVL635:
 4389              		.loc 1 1832 0
ARM GAS  /var/folders/3j/4xdnk5197cv_b7cw3n33qk7r0000gn/T//ccLoT9Qc.s 			page 78


 4390 007c 2A38B0E1 		lsrs	r3, r10, #16
 4391              	.LVL636:
 4392 0080 18308DE5 		str	r3, [sp, #24]
 4393 0084 ED00000A 		beq	.L380
 4394              	.LBB226:
 4395              	.LBB227:
 4396              	.LBB228:
 4397              	.LBB229:
 4398              		.loc 1 493 0
 4399 0088 E830D4E5 		ldrb	r3, [r4, #232]	@ zero_extendqisi2
 4400              	.LBE229:
 4401              	.LBE228:
 4402              		.loc 1 554 0
 4403 008c D4239FE5 		ldr	r2, .L381
 4404              	.LBB231:
 4405              	.LBB230:
 4406              		.loc 1 492 0
 4407 0090 831263E0 		rsb	r1, r3, r3, lsl #5
 4408 0094 813283E0 		add	r3, r3, r1, lsl #5
 4409 0098 033263E0 		rsb	r3, r3, r3, lsl #4
 4410 009c 0304A0E1 		lsl	r0, r3, #8
 4411              	.LBE230:
 4412              	.LBE231:
 4413              		.loc 1 550 0
 4414 00a0 7D0F80E2 		add	r0, r0, #500
 4415              		.loc 1 554 0
 4416 00a4 900281E0 		umull	r0, r1, r0, r2
 4417 00a8 2C208DE5 		str	r2, [sp, #44]
 4418              	.LBE227:
 4419              	.LBE226:
 4420              		.loc 1 1793 0
 4421 00ac E42094E5 		ldr	r2, [r4, #228]
 4422              	.LBB236:
 4423              	.LBB237:
 4424              	.LBB238:
 4425              	.LBB239:
 4426              		.loc 1 492 0
 4427 00b0 863266E0 		rsb	r3, r6, r6, lsl #5
 4428              	.LBE239:
 4429              	.LBE238:
 4430              	.LBE237:
 4431              	.LBE236:
 4432              	.LBB250:
 4433              	.LBB232:
 4434              		.loc 1 554 0
 4435 00b4 F801CDE1 		strd	r0, [sp, #24]
 4436              	.LBE232:
 4437              	.LBE250:
 4438              	.LBB251:
 4439              	.LBB246:
 4440              	.LBB243:
 4441              	.LBB240:
 4442              		.loc 1 492 0
 4443 00b8 836286E0 		add	r6, r6, r3, lsl #5
 4444              	.LVL637:
 4445              	.LBE240:
 4446              	.LBE243:
ARM GAS  /var/folders/3j/4xdnk5197cv_b7cw3n33qk7r0000gn/T//ccLoT9Qc.s 			page 79


 4447              	.LBE246:
 4448              	.LBE251:
 4449              	.LBB252:
 4450              	.LBB233:
 4451              		.loc 1 553 0
 4452 00bc 823262E0 		rsb	r3, r2, r2, lsl #5
 4453 00c0 033182E0 		add	r3, r2, r3, lsl #2
 4454              	.LBE233:
 4455              	.LBE252:
 4456              		.loc 1 1793 0
 4457 00c4 24208DE5 		str	r2, [sp, #36]
 4458              	.LBB253:
 4459              	.LBB234:
 4460              		.loc 1 552 0
 4461 00c8 1C209DE5 		ldr	r2, [sp, #28]
 4462              		.loc 1 554 0
 4463 00cc A103A0E1 		lsr	r0, r1, #7
 4464              		.loc 1 552 0
 4465 00d0 830180E0 		add	r0, r0, r3, lsl #3
 4466 00d4 2213A0E1 		lsr	r1, r2, #6
 4467 00d8 FEFFFFEB 		bl	__aeabi_uidiv
 4468              	.LVL638:
 4469              	.LBE234:
 4470              	.LBE253:
 4471              	.LBB254:
 4472              	.LBB247:
 4473              	.LBB244:
 4474              	.LBB241:
 4475              		.loc 1 492 0
 4476 00dc 066266E0 		rsb	r6, r6, r6, lsl #4
 4477              	.LBE241:
 4478              	.LBE244:
 4479              		.loc 1 554 0
 4480 00e0 2C209DE5 		ldr	r2, [sp, #44]
 4481              	.LBB245:
 4482              	.LBB242:
 4483              		.loc 1 492 0
 4484 00e4 0664A0E1 		lsl	r6, r6, #8
 4485              	.LBE242:
 4486              	.LBE245:
 4487              		.loc 1 550 0
 4488 00e8 7D6F86E2 		add	r6, r6, #500
 4489              	.LBE247:
 4490              	.LBE254:
 4491              	.LBB255:
 4492              	.LBB235:
 4493              		.loc 1 552 0
 4494 00ec 28008DE5 		str	r0, [sp, #40]
 4495              	.LBE235:
 4496              	.LBE255:
 4497              	.LBB256:
 4498              	.LBB248:
 4499              		.loc 1 554 0
 4500 00f0 960281E0 		umull	r0, r1, r6, r2
 4501              	.LBE248:
 4502              	.LBE256:
 4503              		.loc 1 1783 0
ARM GAS  /var/folders/3j/4xdnk5197cv_b7cw3n33qk7r0000gn/T//ccLoT9Qc.s 			page 80


 4504 00f4 DC6094E5 		ldr	r6, [r4, #220]
 4505              	.LVL639:
 4506              	.LBB257:
 4507              	.LBB249:
 4508              		.loc 1 554 0
 4509 00f8 A103A0E1 		lsr	r0, r1, #7
 4510              		.loc 1 553 0
 4511 00fc 86C266E0 		rsb	ip, r6, r6, lsl #5
 4512 0100 0CC186E0 		add	ip, r6, ip, lsl #2
 4513              		.loc 1 552 0
 4514 0104 2113A0E1 		lsr	r1, r1, #6
 4515 0108 8C0180E0 		add	r0, r0, ip, lsl #3
 4516              		.loc 1 554 0
 4517 010c 18208DE5 		str	r2, [sp, #24]
 4518              		.loc 1 552 0
 4519 0110 FEFFFFEB 		bl	__aeabi_uidiv
 4520              	.LVL640:
 4521              	.LBE249:
 4522              	.LBE257:
 4523              		.loc 1 1808 0
 4524 0114 28309DE5 		ldr	r3, [sp, #40]
 4525              		.loc 1 1809 0
 4526 0118 18209DE5 		ldr	r2, [sp, #24]
 4527              		.loc 1 1808 0
 4528 011c 000083E0 		add	r0, r3, r0
 4529              		.loc 1 1807 0
 4530 0120 20309DE5 		ldr	r3, [sp, #32]
 4531 0124 8005A0E1 		lsl	r0, r0, #11
 4532 0128 930000E0 		mul	r0, r3, r0
 4533              		.loc 1 1809 0
 4534 012c 7D0F80E2 		add	r0, r0, #500
 4535 0130 900281E0 		umull	r0, r1, r0, r2
 4536 0134 2133A0E1 		lsr	r3, r1, #6
 4537              		.loc 1 1810 0
 4538 0138 031183E0 		add	r1, r3, r3, lsl #2
 4539 013c 811281E0 		add	r1, r1, r1, lsl #5
 4540 0140 813083E0 		add	r3, r3, r1, lsl #1
 4541 0144 033183E0 		add	r3, r3, r3, lsl #2
 4542              		.loc 1 1811 0
 4543 0148 7D3F83E2 		add	r3, r3, #500
 4544 014c 932283E0 		umull	r2, r3, r3, r2
 4545              		.loc 1 1814 0
 4546 0150 801089E2 		add	r1, r9, #128
 4547              	.LVL641:
 4548              		.loc 1 1811 0
 4549 0154 2333A0E1 		lsr	r3, r3, #6
 4550              		.loc 1 1814 0
 4551 0158 2194A0E1 		lsr	r9, r1, #8
 4552              	.LVL642:
 4553              		.loc 1 1817 0
 4554 015c 930909E0 		mul	r9, r3, r9
 4555              		.loc 1 1821 0
 4556 0160 809089E2 		add	r9, r9, #128
 4557              		.loc 1 1837 0
 4558 0164 2994B0E1 		lsrs	r9, r9, #8
 4559              		.loc 1 1811 0
 4560 0168 28308DE5 		str	r3, [sp, #40]
ARM GAS  /var/folders/3j/4xdnk5197cv_b7cw3n33qk7r0000gn/T//ccLoT9Qc.s 			page 81


 4561              		.loc 1 1843 0
 4562 016c F8029FE5 		ldr	r0, .L381+4
 4563              		.loc 1 1757 0
 4564 0170 883268E0 		rsb	r3, r8, r8, lsl #5
 4565 0174 038188E0 		add	r8, r8, r3, lsl #2
 4566              	.LVL643:
 4567 0178 89908910 		addne	r9, r9, r9, lsl #1
 4568              		.loc 1 1814 0
 4569 017c 18108DE5 		str	r1, [sp, #24]
 4570              		.loc 1 1843 0
 4571 0180 880100E0 		and	r0, r0, r8, lsl #3
 4572 0184 0991A011 		lslne	r9, r9, #2
 4573 0188 0C90A003 		moveq	r9, #12
 4574 018c 2A18B0E1 		lsrs	r1, r10, #16
 4575              	.LVL644:
 4576 0190 FEFFFFEB 		bl	__aeabi_uidiv
 4577              	.LVL645:
 4578 0194 D4329FE5 		ldr	r3, .L381+8
 4579              	.LBB258:
 4580              	.LBB259:
 4581              		.loc 1 132 0
 4582 0198 0181A0E3 		mov	r8, #1073741824
 4583 019c 030050E1 		cmp	r0, r3
 4584 01a0 0300A021 		movcs	r0, r3
 4585              	.LVL646:
 4586              	.LBE259:
 4587              	.LBE258:
 4588              		.loc 1 1849 0
 4589 01a4 000180E0 		add	r0, r0, r0, lsl #2
 4590              	.LVL647:
 4591 01a8 000260E0 		rsb	r0, r0, r0, lsl #4
 4592 01ac 8031A0E1 		lsl	r3, r0, #3
 4593 01b0 20308DE5 		str	r3, [sp, #32]
 4594              	.LVL648:
 4595              	.L341:
 4596              	.LBB261:
 4597              	.LBB260:
 4598              		.loc 1 138 0
 4599 01b4 2881A0E1 		lsr	r8, r8, #2
 4600              	.LVL649:
 4601              		.loc 1 137 0
 4602 01b8 090058E1 		cmp	r8, r9
 4603 01bc FCFFFF8A 		bhi	.L341
 4604              		.loc 1 131 0
 4605 01c0 00C0A0E3 		mov	ip, #0
 4606              	.LVL650:
 4607              	.L343:
 4608              		.loc 1 142 0
 4609 01c4 08308CE0 		add	r3, ip, r8
 4610 01c8 090053E1 		cmp	r3, r9
 4611 01cc ACC0A0E1 		lsr	ip, ip, #1
 4612              	.LVL651:
 4613              		.loc 1 143 0
 4614 01d0 03904990 		subls	r9, r9, r3
 4615              	.LVL652:
 4616              		.loc 1 144 0
 4617 01d4 08C08C90 		addls	ip, ip, r8
ARM GAS  /var/folders/3j/4xdnk5197cv_b7cw3n33qk7r0000gn/T//ccLoT9Qc.s 			page 82


 4618              	.LVL653:
 4619              		.loc 1 141 0
 4620 01d8 2881B0E1 		lsrs	r8, r8, #2
 4621              	.LVL654:
 4622 01dc F8FFFF1A 		bne	.L343
 4623              	.LVL655:
 4624              	.LBE260:
 4625              	.LBE261:
 4626              		.loc 1 1775 0
 4627 01e0 30309DE5 		ldr	r3, [sp, #48]
 4628              		.loc 1 1864 0
 4629 01e4 2AA8A0E1 		lsr	r10, r10, #16
 4630              		.loc 1 1775 0
 4631 01e8 832263E0 		rsb	r2, r3, r3, lsl #5
 4632 01ec 023183E0 		add	r3, r3, r2, lsl #2
 4633 01f0 8331A0E1 		lsl	r3, r3, #3
 4634              		.loc 1 1865 0
 4635 01f4 320853E3 		cmp	r3, #3276800
 4636 01f8 0300A031 		movcc	r0, r3
 4637 01fc 3208A023 		movcs	r0, #3276800
 4638 0200 8000A0E1 		lsl	r0, r0, #1
 4639              		.loc 1 1864 0
 4640 0204 5CE29FE5 		ldr	lr, .L381
 4641 0208 0AA8A0E1 		lsl	r10, r10, #16
 4642              		.loc 1 1865 0
 4643 020c 7D0F60E2 		rsb	r0, r0, #500
 4644 0210 0A0080E0 		add	r0, r0, r10
 4645              		.loc 1 1864 0
 4646 0214 900E81E0 		umull	r0, r1, r0, lr
 4647              		.loc 1 1868 0
 4648 0218 7DAF8AE2 		add	r10, r10, #500
 4649 021c 9A2E83E0 		umull	r2, r3, r10, lr
 4650              		.loc 1 1864 0
 4651 0220 2103A0E1 		lsr	r0, r1, #6
 4652              		.loc 1 1875 0
 4653 0224 0004A0E1 		lsl	r0, r0, #8
 4654 0228 2313A0E1 		lsr	r1, r3, #6
 4655              		.loc 1 1851 0
 4656 022c 8C90A0E1 		lsl	r9, ip, #1
 4657              	.LVL656:
 4658              		.loc 1 1875 0
 4659 0230 FEFFFFEB 		bl	__aeabi_uidiv
 4660              	.LVL657:
 4661              		.loc 1 1880 0
 4662 0234 1820D5E5 		ldrb	r2, [r5, #24]	@ zero_extendqisi2
 4663              		.loc 1 1854 0
 4664 0238 B830D5E1 		ldrh	r3, [r5, #8]
 4665              	.LVL658:
 4666              		.loc 1 1880 0
 4667 023c 000052E3 		cmp	r2, #0
 4668 0240 8500001A 		bne	.L361
 4669              		.loc 1 1854 0
 4670 0244 032263E0 		rsb	r2, r3, r3, lsl #4
 4671 0248 822263E0 		rsb	r2, r3, r2, lsl #5
 4672 024c 822162E0 		rsb	r2, r2, r2, lsl #3
 4673 0250 822382E0 		add	r2, r2, r2, lsl #7
 4674              		.loc 1 1884 0
ARM GAS  /var/folders/3j/4xdnk5197cv_b7cw3n33qk7r0000gn/T//ccLoT9Qc.s 			page 83


 4675 0254 18129FE5 		ldr	r1, .L381+12
 4676              		.loc 1 1854 0
 4677 0258 032082E0 		add	r2, r2, r3
 4678              		.loc 1 1884 0
 4679 025c 922183E0 		umull	r2, r3, r2, r1
 4680              		.loc 1 1878 0
 4681 0260 0004A0E1 		lsl	r0, r0, #8
 4682              	.LVL659:
 4683              		.loc 1 1884 0
 4684 0264 23A5A0E1 		lsr	r10, r3, #10
 4685              	.LVL660:
 4686              		.loc 1 1891 0
 4687 0268 010860E2 		rsb	r0, r0, #65536
 4688              	.LVL661:
 4689 026c 9A000AE0 		mul	r10, r10, r0
 4690              		.loc 1 1894 0
 4691 0270 02A98AE2 		add	r10, r10, #32768
 4692 0274 2AA8A0E1 		lsr	r10, r10, #16
 4693              	.LVL662:
 4694              		.loc 1 1897 0
 4695 0278 01A88AE2 		add	r10, r10, #65536
 4696              	.LVL663:
 4697              		.loc 1 1904 0
 4698 027c AAA0A0E1 		lsr	r10, r10, #1
 4699              	.LVL664:
 4700              		.loc 1 1906 0
 4701 0280 9A0A0AE0 		mul	r10, r10, r10
 4702              	.LVL665:
 4703              		.loc 1 1909 0
 4704 0284 2AA7A0E1 		lsr	r10, r10, #14
 4705              	.LVL666:
 4706 0288 0A318AE0 		add	r3, r10, r10, lsl #2
 4707              	.LVL667:
 4708 028c 033183E0 		add	r3, r3, r3, lsl #2
 4709 0290 8332A0E1 		lsl	r3, r3, #5
 4710 0294 023983E2 		add	r3, r3, #32768
 4711 0298 2338A0E1 		lsr	r3, r3, #16
 4712 029c 930302E0 		mul	r2, r3, r3
 4713              	.LVL668:
 4714              	.L344:
 4715              		.loc 1 1924 0
 4716 02a0 20309DE5 		ldr	r3, [sp, #32]
 4717              	.LBB262:
 4718              	.LBB263:
 4719              		.loc 1 132 0
 4720 02a4 0151A0E3 		mov	r5, #1073741824
 4721              	.LVL669:
 4722              	.LBE263:
 4723              	.LBE262:
 4724              		.loc 1 1924 0
 4725 02a8 023983E2 		add	r3, r3, #32768
 4726 02ac 2338A0E1 		lsr	r3, r3, #16
 4727              	.LVL670:
 4728              		.loc 1 1930 0
 4729 02b0 932323E0 		mla	r3, r3, r3, r2
 4730              	.LVL671:
 4731              	.LBB265:
ARM GAS  /var/folders/3j/4xdnk5197cv_b7cw3n33qk7r0000gn/T//ccLoT9Qc.s 			page 84


 4732              	.LBB264:
 4733              		.loc 1 137 0
 4734 02b4 070173E3 		cmn	r3, #-1073741823
 4735 02b8 0200008A 		bhi	.L348
 4736              	.LVL672:
 4737              	.L346:
 4738              		.loc 1 138 0
 4739 02bc 2551A0E1 		lsr	r5, r5, #2
 4740              	.LVL673:
 4741              		.loc 1 137 0
 4742 02c0 050053E1 		cmp	r3, r5
 4743 02c4 FCFFFF3A 		bcc	.L346
 4744              	.LVL674:
 4745              	.L348:
 4746              		.loc 1 142 0
 4747 02c8 052088E0 		add	r2, r8, r5
 4748 02cc 030052E1 		cmp	r2, r3
 4749 02d0 A880A0E1 		lsr	r8, r8, #1
 4750              	.LVL675:
 4751              		.loc 1 143 0
 4752 02d4 02304390 		subls	r3, r3, r2
 4753              	.LVL676:
 4754              		.loc 1 144 0
 4755 02d8 05808890 		addls	r8, r8, r5
 4756              	.LVL677:
 4757              		.loc 1 141 0
 4758 02dc 2551B0E1 		lsrs	r5, r5, #2
 4759              	.LVL678:
 4760 02e0 F8FFFF1A 		bne	.L348
 4761              	.LVL679:
 4762              	.LBE264:
 4763              	.LBE265:
 4764              		.loc 1 1936 0
 4765 02e4 0828A0E1 		lsl	r2, r8, #16
 4766              	.LVL680:
 4767              		.loc 1 1943 0
 4768 02e8 88819FE5 		ldr	r8, .L381+16
 4769 02ec 322082E2 		add	r2, r2, #50
 4770              	.LVL681:
 4771 02f0 922883E0 		umull	r2, r3, r2, r8
 4772              	.LVL682:
 4773 02f4 0910A0E1 		mov	r1, r9
 4774 02f8 A302A0E1 		lsr	r0, r3, #5
 4775 02fc FEFFFFEB 		bl	__aeabi_uidiv
 4776              	.LVL683:
 4777              		.loc 1 1945 0
 4778 0300 802180E0 		add	r2, r0, r0, lsl #3
 4779 0304 022180E0 		add	r2, r0, r2, lsl #2
 4780              		.loc 1 1957 0
 4781 0308 24309DE5 		ldr	r3, [sp, #36]
 4782              		.loc 1 1945 0
 4783 030c 822182E0 		add	r2, r2, r2, lsl #3
 4784 0310 822182E0 		add	r2, r2, r2, lsl #3
 4785              	.LVL684:
 4786              		.loc 1 1957 0
 4787 0314 038086E0 		add	r8, r6, r3
 4788              		.loc 1 1964 0
ARM GAS  /var/folders/3j/4xdnk5197cv_b7cw3n33qk7r0000gn/T//ccLoT9Qc.s 			page 85


 4789 0318 48119FE5 		ldr	r1, .L381
 4790              		.loc 1 1948 0
 4791 031c 4E2D82E2 		add	r2, r2, #4992
 4792              	.LVL685:
 4793              		.loc 1 1949 0
 4794 0320 54319FE5 		ldr	r3, .L381+20
 4795              		.loc 1 1957 0
 4796 0324 7D8F88E2 		add	r8, r8, #500
 4797              		.loc 1 1948 0
 4798 0328 082082E2 		add	r2, r2, #8
 4799              	.LVL686:
 4800              		.loc 1 1949 0
 4801 032c 922383E0 		umull	r2, r3, r2, r3
 4802              	.LVL687:
 4803              		.loc 1 1964 0
 4804 0330 988189E0 		umull	r8, r9, r8, r1
 4805              		.loc 1 1949 0
 4806 0334 A366A0E1 		lsr	r6, r3, #13
 4807              	.LVL688:
 4808              		.loc 1 1964 0
 4809 0338 A903A0E1 		lsr	r0, r9, #7
 4810 033c 0F0A56E3 		cmp	r6, #61440
 4811              		.loc 1 1963 0
 4812 0340 190880E2 		add	r0, r0, #1638400
 4813 0344 2913A0E1 		lsr	r1, r9, #6
 4814 0348 0F6AA023 		movcs	r6, #61440
 4815              	.LVL689:
 4816 034c FEFFFFEB 		bl	__aeabi_uidiv
 4817              	.LVL690:
 4818              	.LBB266:
 4819              	.LBB267:
 4820              		.loc 1 132 0
 4821 0350 0131A0E3 		mov	r3, #1073741824
 4822              	.LVL691:
 4823              	.L349:
 4824              		.loc 1 138 0
 4825 0354 2331A0E1 		lsr	r3, r3, #2
 4826              	.LVL692:
 4827              		.loc 1 137 0
 4828 0358 030050E1 		cmp	r0, r3
 4829 035c FCFFFF3A 		bcc	.L349
 4830              		.loc 1 141 0
 4831 0360 000053E3 		cmp	r3, #0
 4832 0364 0D00000A 		beq	.L350
 4833              		.loc 1 131 0
 4834 0368 0020A0E3 		mov	r2, #0
 4835              	.LVL693:
 4836              	.L352:
 4837              		.loc 1 142 0
 4838 036c 021083E0 		add	r1, r3, r2
 4839 0370 010050E1 		cmp	r0, r1
 4840 0374 A220A0E1 		lsr	r2, r2, #1
 4841              	.LVL694:
 4842              		.loc 1 143 0
 4843 0378 01004020 		subcs	r0, r0, r1
 4844              	.LVL695:
 4845              		.loc 1 144 0
ARM GAS  /var/folders/3j/4xdnk5197cv_b7cw3n33qk7r0000gn/T//ccLoT9Qc.s 			page 86


 4846 037c 03208220 		addcs	r2, r2, r3
 4847              	.LVL696:
 4848              		.loc 1 141 0
 4849 0380 2331B0E1 		lsrs	r3, r3, #2
 4850              	.LVL697:
 4851 0384 F8FFFF1A 		bne	.L352
 4852 0388 0224A0E1 		lsl	r2, r2, #8
 4853              	.LVL698:
 4854 038c D4309FE5 		ldr	r3, .L381
 4855              	.LVL699:
 4856 0390 7D2F82E2 		add	r2, r2, #500
 4857 0394 922383E0 		umull	r2, r3, r2, r3
 4858 0398 2333A0E1 		lsr	r3, r3, #6
 4859 039c 930303E0 		mul	r3, r3, r3
 4860              	.L350:
 4861              	.LVL700:
 4862              	.LBE267:
 4863              	.LBE266:
 4864              		.loc 1 1977 0
 4865 03a0 963626E0 		mla	r6, r6, r6, r3
 4866              	.LVL701:
 4867              	.LBB268:
 4868              	.LBB269:
 4869              		.loc 1 137 0
 4870 03a4 070176E3 		cmn	r6, #-1073741823
 4871              		.loc 1 132 0
 4872 03a8 0131A0E3 		mov	r3, #1073741824
 4873              		.loc 1 137 0
 4874 03ac 0400008A 		bhi	.L357
 4875              	.LVL702:
 4876              	.L354:
 4877              		.loc 1 138 0
 4878 03b0 2331A0E1 		lsr	r3, r3, #2
 4879              	.LVL703:
 4880              		.loc 1 137 0
 4881 03b4 030056E1 		cmp	r6, r3
 4882 03b8 FCFFFF3A 		bcc	.L354
 4883              	.LVL704:
 4884              		.loc 1 141 0
 4885 03bc 000053E3 		cmp	r3, #0
 4886 03c0 0C00000A 		beq	.L355
 4887              	.LVL705:
 4888              	.L357:
 4889              		.loc 1 142 0
 4890 03c4 032085E0 		add	r2, r5, r3
 4891 03c8 060052E1 		cmp	r2, r6
 4892 03cc A550A0E1 		lsr	r5, r5, #1
 4893              	.LVL706:
 4894              		.loc 1 143 0
 4895 03d0 02604690 		subls	r6, r6, r2
 4896              	.LVL707:
 4897              		.loc 1 144 0
 4898 03d4 03508590 		addls	r5, r5, r3
 4899              	.LVL708:
 4900              		.loc 1 141 0
 4901 03d8 2331B0E1 		lsrs	r3, r3, #2
 4902              	.LVL709:
ARM GAS  /var/folders/3j/4xdnk5197cv_b7cw3n33qk7r0000gn/T//ccLoT9Qc.s 			page 87


 4903 03dc F8FFFF1A 		bne	.L357
 4904 03e0 853265E0 		rsb	r3, r5, r5, lsl #5
 4905              	.LVL710:
 4906 03e4 035185E0 		add	r5, r5, r3, lsl #2
 4907              	.LVL711:
 4908 03e8 90309FE5 		ldr	r3, .L381+24
 4909 03ec 8551A0E1 		lsl	r5, r5, #3
 4910 03f0 030055E1 		cmp	r5, r3
 4911 03f4 0530A031 		movcc	r3, r5
 4912              	.L355:
 4913              	.LVL712:
 4914              	.LBE269:
 4915              	.LBE268:
 4916              		.loc 1 1993 0
 4917 03f8 32CEA0E3 		mov	ip, #800
 4918 03fc 14209DE5 		ldr	r2, [sp, #20]
 4919              		.loc 1 1991 0
 4920 0400 00308BE5 		str	r3, [fp]
 4921              		.loc 1 1993 0
 4922 0404 0C208DE5 		str	r2, [sp, #12]
 4923              		.loc 1 1992 0
 4924 0408 403184E5 		str	r3, [r4, #320]
 4925              		.loc 1 1993 0
 4926 040c 28309DE5 		ldr	r3, [sp, #40]
 4927 0410 18109DE5 		ldr	r1, [sp, #24]
 4928 0414 08308DE5 		str	r3, [sp, #8]
 4929 0418 20309DE5 		ldr	r3, [sp, #32]
 4930 041c 0720A0E1 		mov	r2, r7
 4931 0420 04308DE5 		str	r3, [sp, #4]
 4932 0424 FF10C1E3 		bic	r1, r1, #255
 4933 0428 0A30A0E1 		mov	r3, r10
 4934 042c 0400A0E1 		mov	r0, r4
 4935 0430 00C08DE5 		str	ip, [sp]
 4936 0434 FEFFFFEB 		bl	VL53L0X_calc_dmax
 4937              	.LVL713:
 4938              	.L337:
 4939              		.loc 1 2006 0
 4940 0438 3CD08DE2 		add	sp, sp, #60
 4941              		.cfi_remember_state
 4942              		.cfi_def_cfa_offset 36
 4943              		@ sp needed
 4944 043c F08FBDE8 		pop	{r4, r5, r6, r7, r8, r9, r10, fp, pc}
 4945              	.LVL714:
 4946              	.L380:
 4947              		.cfi_restore_state
 4948              		.loc 1 1833 0
 4949 0440 38309FE5 		ldr	r3, .L381+24
 4950 0444 00308BE5 		str	r3, [fp]
 4951              	.LVL715:
 4952              		.loc 1 1834 0
 4953 0448 403184E5 		str	r3, [r4, #320]
 4954              		.loc 1 1835 0
 4955 044c 14309DE5 		ldr	r3, [sp, #20]
 4956 0450 000083E5 		str	r0, [r3]
 4957              	.LVL716:
 4958              		.loc 1 2006 0
 4959 0454 3CD08DE2 		add	sp, sp, #60
ARM GAS  /var/folders/3j/4xdnk5197cv_b7cw3n33qk7r0000gn/T//ccLoT9Qc.s 			page 88


 4960              		.cfi_remember_state
 4961              		.cfi_def_cfa_offset 36
 4962              		@ sp needed
 4963 0458 F08FBDE8 		pop	{r4, r5, r6, r7, r8, r9, r10, fp, pc}
 4964              	.LVL717:
 4965              	.L361:
 4966              		.cfi_restore_state
 4967              		.loc 1 1881 0
 4968 045c 01A8A0E3 		mov	r10, #65536
 4969              	.LVL718:
 4970 0460 1C209FE5 		ldr	r2, .L381+28
 4971 0464 8DFFFFEA 		b	.L344
 4972              	.L382:
 4973              		.align	2
 4974              	.L381:
 4975 0468 D34D6210 		.word	274877907
 4976 046c 0000FFFF 		.word	-65536
 4977 0470 66666600 		.word	6710886
 4978 0474 517BC637 		.word	935754577
 4979 0478 1F85EB51 		.word	1374389535
 4980 047c 5917B7D1 		.word	-776530087
 4981 0480 AE878F02 		.word	42960814
 4982 0484 00C40900 		.word	640000
 4983              		.cfi_endproc
 4984              	.LFE26:
 4985              		.size	VL53L0X_calc_sigma_estimate, .-VL53L0X_calc_sigma_estimate
 4986              		.section	.text.VL53L0X_get_pal_range_status,"ax",%progbits
 4987              		.align	2
 4988              		.global	VL53L0X_get_pal_range_status
 4989              		.syntax unified
 4990              		.arm
 4991              		.fpu softvfp
 4992              		.type	VL53L0X_get_pal_range_status, %function
 4993              	VL53L0X_get_pal_range_status:
 4994              	.LFB27:
 4995              		.loc 1 2014 0
 4996              		.cfi_startproc
 4997              		@ args = 8, pretend = 0, frame = 40
 4998              		@ frame_needed = 0, uses_anonymous_args = 0
 4999              	.LVL719:
 5000              		.loc 1 2046 0
 5001 0000 A111A0E1 		lsr	r1, r1, #3
 5002              	.LVL720:
 5003              		.loc 1 2014 0
 5004 0004 F04F2DE9 		push	{r4, r5, r6, r7, r8, r9, r10, fp, lr}
 5005              		.cfi_def_cfa_offset 36
 5006              		.cfi_offset 4, -36
 5007              		.cfi_offset 5, -32
 5008              		.cfi_offset 6, -28
 5009              		.cfi_offset 7, -24
 5010              		.cfi_offset 8, -20
 5011              		.cfi_offset 9, -16
 5012              		.cfi_offset 10, -12
 5013              		.cfi_offset 11, -8
 5014              		.cfi_offset 14, -4
 5015              		.loc 1 2048 0
 5016 0008 0F7011E2 		ands	r7, r1, #15
ARM GAS  /var/folders/3j/4xdnk5197cv_b7cw3n33qk7r0000gn/T//ccLoT9Qc.s 			page 89


 5017 000c 01C0A003 		moveq	ip, #1
 5018 0010 00C0A013 		movne	ip, #0
 5019              		.loc 1 2049 0
 5020 0014 0D5001E2 		and	r5, r1, #13
 5021              		.loc 1 2048 0
 5022 0018 050055E3 		cmp	r5, #5
 5023 001c 01C08C03 		orreq	ip, ip, #1
 5024              		.loc 1 2020 0
 5025 0020 0010A0E3 		mov	r1, #0
 5026              		.loc 1 2014 0
 5027 0024 2CD04DE2 		sub	sp, sp, #44
 5028              		.cfi_def_cfa_offset 80
 5029              		.loc 1 2048 0
 5030 0028 01005CE1 		cmp	ip, r1
 5031              		.loc 1 2014 0
 5032 002c 0040A0E1 		mov	r4, r0
 5033 0030 00208DE5 		str	r2, [sp]
 5034 0034 03A0A0E1 		mov	r10, r3
 5035              		.loc 1 2020 0
 5036 0038 0E10CDE5 		strb	r1, [sp, #14]
 5037              		.loc 1 2021 0
 5038 003c 0F10CDE5 		strb	r1, [sp, #15]
 5039              		.loc 1 2022 0
 5040 0040 1010CDE5 		strb	r1, [sp, #16]
 5041              		.loc 1 2023 0
 5042 0044 1110CDE5 		strb	r1, [sp, #17]
 5043              	.LVL721:
 5044              		.loc 1 2030 0
 5045 0048 B211CDE1 		strh	r1, [sp, #18]	@ movhi
 5046              		.loc 1 2032 0
 5047 004c 24108DE5 		str	r1, [sp, #36]
 5048              		.loc 1 2056 0
 5049 0050 01B0A013 		movne	fp, #1
 5050              		.loc 1 2048 0
 5051 0054 0300001A 		bne	.L384
 5052              		.loc 1 2050 0
 5053 0058 0C3047E2 		sub	r3, r7, #12
 5054              	.LVL722:
 5055              		.loc 1 2056 0
 5056 005c 030053E3 		cmp	r3, #3
 5057 0060 00B0A083 		movhi	fp, #0
 5058 0064 01B0A093 		movls	fp, #1
 5059              	.L384:
 5060              	.LVL723:
 5061              		.loc 1 2066 0
 5062 0068 0E208DE2 		add	r2, sp, #14
 5063              	.LVL724:
 5064 006c 0010A0E3 		mov	r1, #0
 5065 0070 0400A0E1 		mov	r0, r4
 5066              	.LVL725:
 5067 0074 FEFFFFEB 		bl	VL53L0X_GetLimitCheckEnable
 5068              	.LVL726:
 5069              		.loc 1 2070 0
 5070 0078 0E60DDE5 		ldrb	r6, [sp, #14]	@ zero_extendqisi2
 5071              		.loc 1 2066 0
 5072 007c 0090A0E1 		mov	r9, r0
 5073              	.LVL727:
ARM GAS  /var/folders/3j/4xdnk5197cv_b7cw3n33qk7r0000gn/T//ccLoT9Qc.s 			page 90


 5074              		.loc 1 2070 0
 5075 0080 000056E3 		cmp	r6, #0
 5076 0084 3E00000A 		beq	.L385
 5077              		.loc 1 2070 0 is_stmt 0 discriminator 1
 5078 0088 000050E3 		cmp	r0, #0
 5079 008c 0060A013 		movne	r6, #0
 5080 0090 2500000A 		beq	.L425
 5081              	.LVL728:
 5082              	.L386:
 5083 0094 0080A0E3 		mov	r8, #0
 5084              	.LVL729:
 5085              	.L388:
 5086              		.loc 1 2148 0 is_stmt 1
 5087 0098 0090A0E3 		mov	r9, #0
 5088              	.LVL730:
 5089              	.L391:
 5090              		.loc 1 2190 0
 5091 009c 54309DE5 		ldr	r3, [sp, #84]
 5092 00a0 0030D3E5 		ldrb	r3, [r3]	@ zero_extendqisi2
 5093 00a4 000053E3 		cmp	r3, #0
 5094 00a8 0200001A 		bne	.L401
 5095              	.LVL731:
 5096              	.L400:
 5097              		.loc 1 2191 0
 5098 00ac 0030A0E3 		mov	r3, #0
 5099 00b0 50209DE5 		ldr	r2, [sp, #80]
 5100 00b4 BA30C2E1 		strh	r3, [r2, #10]	@ movhi
 5101              	.L401:
 5102              		.loc 1 2195 0
 5103 00b8 0F208DE2 		add	r2, sp, #15
 5104 00bc 0110A0E3 		mov	r1, #1
 5105 00c0 0400A0E1 		mov	r0, r4
 5106 00c4 FEFFFFEB 		bl	VL53L0X_GetLimitCheckEnable
 5107              	.LVL732:
 5108              		.loc 1 2199 0
 5109 00c8 000050E3 		cmp	r0, #0
 5110              	.LVL733:
 5111 00cc 1400001A 		bne	.L414
 5112              	.LVL734:
 5113              		.loc 1 2200 0
 5114 00d0 0E30DDE5 		ldrb	r3, [sp, #14]	@ zero_extendqisi2
 5115              		.loc 1 2216 0
 5116 00d4 1020DDE5 		ldrb	r2, [sp, #16]	@ zero_extendqisi2
 5117              		.loc 1 2201 0
 5118 00d8 000053E3 		cmp	r3, #0
 5119 00dc 01600612 		andne	r6, r6, #1
 5120              	.LVL735:
 5121 00e0 0160A003 		moveq	r6, #1
 5122              		.loc 1 2207 0
 5123 00e4 040057E3 		cmp	r7, #4
 5124 00e8 0F30DD15 		ldrbne	r3, [sp, #15]	@ zero_extendqisi2
 5125              		.loc 1 2225 0
 5126 00ec 11A0DDE5 		ldrb	r10, [sp, #17]	@ zero_extendqisi2
 5127              		.loc 1 2209 0
 5128 00f0 133F6F11 		clzne	r3, r3
 5129 00f4 0130A003 		moveq	r3, #1
 5130 00f8 A332A011 		lsrne	r3, r3, #5
ARM GAS  /var/folders/3j/4xdnk5197cv_b7cw3n33qk7r0000gn/T//ccLoT9Qc.s 			page 91


 5131              	.LVL736:
 5132              		.loc 1 2218 0
 5133 00fc 000052E3 		cmp	r2, #0
 5134 0100 01800812 		andne	r8, r8, #1
 5135 0104 0180A003 		moveq	r8, #1
 5136              		.loc 1 2227 0
 5137 0108 00005AE3 		cmp	r10, #0
 5138 010c 0190A003 		moveq	r9, #1
 5139 0110 01900912 		andne	r9, r9, #1
 5140              		.loc 1 2204 0
 5141 0114 2E60C4E5 		strb	r6, [r4, #46]
 5142              		.loc 1 2212 0
 5143 0118 2F30C4E5 		strb	r3, [r4, #47]
 5144              	.LVL737:
 5145              		.loc 1 2222 0
 5146 011c 3080C4E5 		strb	r8, [r4, #48]
 5147              		.loc 1 2231 0
 5148 0120 3190C4E5 		strb	r9, [r4, #49]
 5149              	.L414:
 5150              		.loc 1 2239 0
 5151 0124 2CD08DE2 		add	sp, sp, #44
 5152              		.cfi_remember_state
 5153              		.cfi_def_cfa_offset 36
 5154              	.LVL738:
 5155              		@ sp needed
 5156 0128 F08FBDE8 		pop	{r4, r5, r6, r7, r8, r9, r10, fp, pc}
 5157              	.LVL739:
 5158              	.L425:
 5159              		.cfi_restore_state
 5160              		.loc 1 2074 0
 5161 012c 24308DE2 		add	r3, sp, #36
 5162 0130 14208DE2 		add	r2, sp, #20
 5163 0134 50109DE5 		ldr	r1, [sp, #80]
 5164 0138 0400A0E1 		mov	r0, r4
 5165              	.LVL740:
 5166 013c FEFFFFEB 		bl	VL53L0X_calc_sigma_estimate
 5167              	.LVL741:
 5168              		.loc 1 2079 0
 5169 0140 000050E3 		cmp	r0, #0
 5170 0144 6800001A 		bne	.L407
 5171              		.loc 1 2080 0
 5172 0148 50209DE5 		ldr	r2, [sp, #80]
 5173 014c 24309DE5 		ldr	r3, [sp, #36]
 5174              		.loc 1 2083 0
 5175 0150 0910A0E1 		mov	r1, r9
 5176              		.loc 1 2080 0
 5177 0154 BA30C2E1 		strh	r3, [r2, #10]	@ movhi
 5178              		.loc 1 2083 0
 5179 0158 0400A0E1 		mov	r0, r4
 5180              	.LVL742:
 5181 015c 18208DE2 		add	r2, sp, #24
 5182 0160 FEFFFFEB 		bl	VL53L0X_GetLimitCheckValue
 5183              	.LVL743:
 5184              		.loc 1 2087 0
 5185 0164 18609DE5 		ldr	r6, [sp, #24]
 5186              		.loc 1 2083 0
 5187 0168 0090A0E1 		mov	r9, r0
ARM GAS  /var/folders/3j/4xdnk5197cv_b7cw3n33qk7r0000gn/T//ccLoT9Qc.s 			page 92


 5188              	.LVL744:
 5189              		.loc 1 2087 0
 5190 016c 000056E3 		cmp	r6, #0
 5191 0170 0300000A 		beq	.L385
 5192              		.loc 1 2087 0 is_stmt 0 discriminator 1
 5193 0174 14309DE5 		ldr	r3, [sp, #20]
 5194              		.loc 1 2017 0 is_stmt 1 discriminator 1
 5195 0178 030056E1 		cmp	r6, r3
 5196 017c 0060A023 		movcs	r6, #0
 5197 0180 0160A033 		movcc	r6, #1
 5198              	.LVL745:
 5199              	.L385:
 5200              		.loc 1 2098 0
 5201 0184 000059E3 		cmp	r9, #0
 5202 0188 C1FFFF1A 		bne	.L386
 5203              		.loc 1 2099 0
 5204 018c 10208DE2 		add	r2, sp, #16
 5205 0190 0210A0E3 		mov	r1, #2
 5206 0194 0400A0E1 		mov	r0, r4
 5207 0198 FEFFFFEB 		bl	VL53L0X_GetLimitCheckEnable
 5208              	.LVL746:
 5209              		.loc 1 2103 0
 5210 019c 1080DDE5 		ldrb	r8, [sp, #16]	@ zero_extendqisi2
 5211              		.loc 1 2099 0
 5212 01a0 0030A0E1 		mov	r3, r0
 5213              	.LVL747:
 5214              		.loc 1 2103 0
 5215 01a4 000058E3 		cmp	r8, #0
 5216 01a8 1000000A 		beq	.L387
 5217              		.loc 1 2103 0 is_stmt 0 discriminator 1
 5218 01ac 000050E3 		cmp	r0, #0
 5219 01b0 7900001A 		bne	.L409
 5220              		.loc 1 2106 0 is_stmt 1
 5221 01b4 1C208DE2 		add	r2, sp, #28
 5222 01b8 0210A0E3 		mov	r1, #2
 5223 01bc 0400A0E1 		mov	r0, r4
 5224              	.LVL748:
 5225 01c0 FEFFFFEB 		bl	VL53L0X_GetLimitCheckValue
 5226              	.LVL749:
 5227              		.loc 1 2111 0
 5228 01c4 003050E2 		subs	r3, r0, #0
 5229 01c8 4900000A 		beq	.L426
 5230              	.L389:
 5231              	.LVL750:
 5232              		.loc 1 2122 0
 5233 01cc B221DDE1 		ldrh	r2, [sp, #18]
 5234              		.loc 1 2125 0
 5235 01d0 1C809DE5 		ldr	r8, [sp, #28]
 5236              		.loc 1 2122 0
 5237 01d4 8224A0E1 		lsl	r2, r2, #9
 5238              	.LVL751:
 5239              		.loc 1 2125 0
 5240 01d8 000058E3 		cmp	r8, #0
 5241              		.loc 1 2123 0
 5242 01dc 482184E5 		str	r2, [r4, #328]
 5243              		.loc 1 2125 0
 5244 01e0 ACFFFF0A 		beq	.L388
ARM GAS  /var/folders/3j/4xdnk5197cv_b7cw3n33qk7r0000gn/T//ccLoT9Qc.s 			page 93


 5245              	.L404:
 5246              		.loc 1 2018 0 discriminator 1
 5247 01e4 020058E1 		cmp	r8, r2
 5248 01e8 0080A023 		movcs	r8, #0
 5249 01ec 0180A033 		movcc	r8, #1
 5250              	.LVL752:
 5251              	.L387:
 5252              		.loc 1 2138 0
 5253 01f0 000053E3 		cmp	r3, #0
 5254 01f4 04308DE5 		str	r3, [sp, #4]
 5255 01f8 A6FFFF1A 		bne	.L388
 5256              		.loc 1 2139 0
 5257 01fc 11208DE2 		add	r2, sp, #17
 5258 0200 0310A0E3 		mov	r1, #3
 5259 0204 0400A0E1 		mov	r0, r4
 5260 0208 FEFFFFEB 		bl	VL53L0X_GetLimitCheckEnable
 5261              	.LVL753:
 5262              		.loc 1 2143 0
 5263 020c 1190DDE5 		ldrb	r9, [sp, #17]	@ zero_extendqisi2
 5264              		.loc 1 2139 0
 5265 0210 0020A0E1 		mov	r2, r0
 5266              	.LVL754:
 5267              		.loc 1 2143 0
 5268 0214 000059E3 		cmp	r9, #0
 5269 0218 0E00000A 		beq	.L390
 5270              		.loc 1 2143 0 is_stmt 0 discriminator 1
 5271 021c 000050E3 		cmp	r0, #0
 5272 0220 04309DE5 		ldr	r3, [sp, #4]
 5273 0224 5A00001A 		bne	.L411
 5274              		.loc 1 2147 0 is_stmt 1
 5275 0228 00005AE3 		cmp	r10, #0
 5276 022c 1B00001A 		bne	.L427
 5277              	.LVL755:
 5278              	.L392:
 5279              		.loc 1 2154 0
 5280 0230 20208DE2 		add	r2, sp, #32
 5281 0234 0310A0E3 		mov	r1, #3
 5282 0238 0400A0E1 		mov	r0, r4
 5283 023c FEFFFFEB 		bl	VL53L0X_GetLimitCheckValue
 5284              	.LVL756:
 5285              		.loc 1 2158 0
 5286 0240 20909DE5 		ldr	r9, [sp, #32]
 5287              		.loc 1 2154 0
 5288 0244 0020A0E1 		mov	r2, r0
 5289              	.LVL757:
 5290              		.loc 1 2019 0
 5291 0248 000059E3 		cmp	r9, #0
 5292 024c 0A005911 		cmpne	r9, r10
 5293 0250 0190A083 		movhi	r9, #1
 5294 0254 0090A093 		movls	r9, #0
 5295              	.LVL758:
 5296              	.L390:
 5297              		.loc 1 2165 0
 5298 0258 000052E3 		cmp	r2, #0
 5299 025c 8EFFFF1A 		bne	.L391
 5300              		.loc 1 2166 0
 5301 0260 01005BE3 		cmp	fp, #1
ARM GAS  /var/folders/3j/4xdnk5197cv_b7cw3n33qk7r0000gn/T//ccLoT9Qc.s 			page 94


 5302 0264 1300000A 		beq	.L428
 5303              		.loc 1 2168 0
 5304 0268 013047E2 		sub	r3, r7, #1
 5305 026c 020053E3 		cmp	r3, #2
 5306 0270 0600009A 		bls	.L429
 5307              		.loc 1 2172 0
 5308 0274 090057E3 		cmp	r7, #9
 5309 0278 06005713 		cmpne	r7, #6
 5310 027c 1100001A 		bne	.L396
 5311              		.loc 1 2174 0
 5312 0280 0430A0E3 		mov	r3, #4
 5313 0284 54209DE5 		ldr	r2, [sp, #84]
 5314              	.LVL759:
 5315 0288 0030C2E5 		strb	r3, [r2]
 5316 028c 89FFFFEA 		b	.L401
 5317              	.LVL760:
 5318              	.L429:
 5319              		.loc 1 2171 0
 5320 0290 0530A0E3 		mov	r3, #5
 5321 0294 54209DE5 		ldr	r2, [sp, #84]
 5322              	.LVL761:
 5323 0298 0030C2E5 		strb	r3, [r2]
 5324 029c 85FFFFEA 		b	.L401
 5325              	.LVL762:
 5326              	.L427:
 5327              		.loc 1 2150 0
 5328 02a0 00309DE5 		ldr	r3, [sp]
 5329 02a4 0A10A0E1 		mov	r1, r10
 5330 02a8 0304A0E1 		lsl	r0, r3, #8
 5331              	.LVL763:
 5332 02ac FEFFFFEB 		bl	__aeabi_uidiv
 5333              	.LVL764:
 5334 02b0 00A0A0E1 		mov	r10, r0
 5335              	.LVL765:
 5336 02b4 DDFFFFEA 		b	.L392
 5337              	.LVL766:
 5338              	.L428:
 5339              		.loc 1 2167 0
 5340 02b8 0030E0E3 		mvn	r3, #0
 5341 02bc 54209DE5 		ldr	r2, [sp, #84]
 5342              	.LVL767:
 5343 02c0 0030C2E5 		strb	r3, [r2]
 5344 02c4 7BFFFFEA 		b	.L401
 5345              	.LVL768:
 5346              	.L396:
 5347              		.loc 1 2176 0
 5348 02c8 080055E3 		cmp	r5, #8
 5349 02cc 0850A011 		movne	r5, r8
 5350 02d0 01508803 		orreq	r5, r8, #1
 5351 02d4 010015E3 		tst	r5, #1
 5352 02d8 1E00000A 		beq	.L397
 5353              		.loc 1 2178 0
 5354 02dc 0330A0E3 		mov	r3, #3
 5355 02e0 54209DE5 		ldr	r2, [sp, #84]
 5356              	.LVL769:
 5357 02e4 0030C2E5 		strb	r3, [r2]
 5358 02e8 72FFFFEA 		b	.L401
ARM GAS  /var/folders/3j/4xdnk5197cv_b7cw3n33qk7r0000gn/T//ccLoT9Qc.s 			page 95


 5359              	.LVL770:
 5360              	.L407:
 5361 02ec 0960A0E1 		mov	r6, r9
 5362 02f0 67FFFFEA 		b	.L386
 5363              	.LVL771:
 5364              	.L426:
 5365              		.loc 1 2112 0
 5366 02f4 0120A0E3 		mov	r2, #1
 5367 02f8 FF10A0E3 		mov	r1, #255
 5368 02fc 0400A0E1 		mov	r0, r4
 5369              	.LVL772:
 5370 0300 FEFFFFEB 		bl	VL53L0X_WrByte
 5371              	.LVL773:
 5372              		.loc 1 2114 0
 5373 0304 003050E2 		subs	r3, r0, #0
 5374 0308 AFFFFF1A 		bne	.L389
 5375              		.loc 1 2115 0
 5376 030c 12208DE2 		add	r2, sp, #18
 5377 0310 B610A0E3 		mov	r1, #182
 5378 0314 0400A0E1 		mov	r0, r4
 5379              	.LVL774:
 5380 0318 FEFFFFEB 		bl	VL53L0X_RdWord
 5381              	.LVL775:
 5382              		.loc 1 2119 0
 5383 031c 003050E2 		subs	r3, r0, #0
 5384 0320 A9FFFF1A 		bne	.L389
 5385              		.loc 1 2120 0
 5386 0324 0920A0E1 		mov	r2, r9
 5387 0328 FF10A0E3 		mov	r1, #255
 5388 032c 0400A0E1 		mov	r0, r4
 5389              	.LVL776:
 5390 0330 FEFFFFEB 		bl	VL53L0X_WrByte
 5391              	.LVL777:
 5392              		.loc 1 2125 0
 5393 0334 1C809DE5 		ldr	r8, [sp, #28]
 5394              		.loc 1 2122 0
 5395 0338 B221DDE1 		ldrh	r2, [sp, #18]
 5396              		.loc 1 2125 0
 5397 033c 000058E3 		cmp	r8, #0
 5398              		.loc 1 2122 0
 5399 0340 8224A0E1 		lsl	r2, r2, #9
 5400              		.loc 1 2120 0
 5401 0344 0030A0E1 		mov	r3, r0
 5402              	.LVL778:
 5403              		.loc 1 2123 0
 5404 0348 482184E5 		str	r2, [r4, #328]
 5405              		.loc 1 2018 0
 5406 034c 0980A001 		moveq	r8, r9
 5407              		.loc 1 2125 0
 5408 0350 A6FFFF0A 		beq	.L387
 5409 0354 A2FFFFEA 		b	.L404
 5410              	.LVL779:
 5411              	.L397:
 5412              		.loc 1 2179 0
 5413 0358 040057E3 		cmp	r7, #4
 5414 035c 0930A011 		movne	r3, r9
 5415 0360 01308903 		orreq	r3, r9, #1
ARM GAS  /var/folders/3j/4xdnk5197cv_b7cw3n33qk7r0000gn/T//ccLoT9Qc.s 			page 96


 5416 0364 010013E3 		tst	r3, #1
 5417              		.loc 1 2181 0
 5418 0368 0230A013 		movne	r3, #2
 5419 036c 54209D15 		ldrne	r2, [sp, #84]
 5420              	.LVL780:
 5421 0370 0030C215 		strbne	r3, [r2]
 5422 0374 4FFFFF1A 		bne	.L401
 5423              	.LVL781:
 5424              	.L398:
 5425              		.loc 1 2183 0
 5426 0378 54309DE5 		ldr	r3, [sp, #84]
 5427              		.loc 1 2182 0
 5428 037c 010056E3 		cmp	r6, #1
 5429              		.loc 1 2183 0
 5430 0380 0060C305 		strbeq	r6, [r3]
 5431              		.loc 1 2182 0
 5432 0384 4BFFFF0A 		beq	.L401
 5433              		.loc 1 2185 0
 5434 0388 0020C3E5 		strb	r2, [r3]
 5435 038c 0280A0E1 		mov	r8, r2
 5436              	.LVL782:
 5437 0390 45FFFFEA 		b	.L400
 5438              	.LVL783:
 5439              	.L411:
 5440 0394 0390A0E1 		mov	r9, r3
 5441 0398 3FFFFFEA 		b	.L391
 5442              	.LVL784:
 5443              	.L409:
 5444 039c 0980A0E1 		mov	r8, r9
 5445 03a0 3CFFFFEA 		b	.L388
 5446              		.cfi_endproc
 5447              	.LFE27:
 5448              		.size	VL53L0X_get_pal_range_status, .-VL53L0X_get_pal_range_status
 5449              		.text
 5450              	.Letext0:
 5451              		.file 2 "/usr/local/Cellar/gcc-arm-none-eabi/20180627/arm-none-eabi/include/machine/_default_types
 5452              		.file 3 "/usr/local/Cellar/gcc-arm-none-eabi/20180627/arm-none-eabi/include/sys/_stdint.h"
 5453              		.file 4 "..//VL53L0X_Api/platform/inc/vl53l0x_types.h"
 5454              		.file 5 "..//VL53L0X_Api/core/inc/vl53l0x_device.h"
 5455              		.file 6 "..//VL53L0X_Api/core/inc/vl53l0x_def.h"
 5456              		.file 7 "/usr/local/Cellar/gcc-arm-none-eabi/20180627/arm-none-eabi/include/sys/lock.h"
 5457              		.file 8 "/usr/local/Cellar/gcc-arm-none-eabi/20180627/arm-none-eabi/include/sys/_types.h"
 5458              		.file 9 "/usr/local/Cellar/gcc-arm-none-eabi/20180627/lib/gcc/arm-none-eabi/7.3.1/include/stddef.h
 5459              		.file 10 "/usr/local/Cellar/gcc-arm-none-eabi/20180627/arm-none-eabi/include/sys/reent.h"
 5460              		.file 11 "..//VL53L0X_Api/platform/inc/vl53l0x_platform.h"
 5461              		.file 12 "/usr/local/Cellar/gcc-arm-none-eabi/20180627/arm-none-eabi/include/stdlib.h"
 5462              		.file 13 "..//VL53L0X_Api/core/inc/vl53l0x_api.h"
 5463              		.file 14 "..//VL53L0X_Api/core/inc/vl53l0x_api_calibration.h"
 5464              		.file 15 "/usr/local/Cellar/gcc-arm-none-eabi/20180627/arm-none-eabi/include/string.h"
 5465              		.section	.debug_info,"",%progbits
 5466              	.Ldebug_info0:
 5467 0000 023E0000 		.4byte	0x3e02
 5468 0004 0400     		.2byte	0x4
 5469 0006 00000000 		.4byte	.Ldebug_abbrev0
 5470 000a 04       		.byte	0x4
 5471 000b 01       		.uleb128 0x1
 5472 000c D1000000 		.4byte	.LASF451
ARM GAS  /var/folders/3j/4xdnk5197cv_b7cw3n33qk7r0000gn/T//ccLoT9Qc.s 			page 97


 5473 0010 0C       		.byte	0xc
 5474 0011 49070000 		.4byte	.LASF452
 5475 0015 BE130000 		.4byte	.LASF453
 5476 0019 C8020000 		.4byte	.Ldebug_ranges0+0x2c8
 5477 001d 00000000 		.4byte	0
 5478 0021 00000000 		.4byte	.Ldebug_line0
 5479 0025 02       		.uleb128 0x2
 5480 0026 04       		.byte	0x4
 5481 0027 07       		.byte	0x7
 5482 0028 D1020000 		.4byte	.LASF0
 5483 002c 03       		.uleb128 0x3
 5484 002d ED110000 		.4byte	.LASF2
 5485 0031 02       		.byte	0x2
 5486 0032 29       		.byte	0x29
 5487 0033 37000000 		.4byte	0x37
 5488 0037 02       		.uleb128 0x2
 5489 0038 01       		.byte	0x1
 5490 0039 06       		.byte	0x6
 5491 003a 331B0000 		.4byte	.LASF1
 5492 003e 03       		.uleb128 0x3
 5493 003f AD160000 		.4byte	.LASF3
 5494 0043 02       		.byte	0x2
 5495 0044 2B       		.byte	0x2b
 5496 0045 49000000 		.4byte	0x49
 5497 0049 02       		.uleb128 0x2
 5498 004a 01       		.byte	0x1
 5499 004b 08       		.byte	0x8
 5500 004c C0180000 		.4byte	.LASF4
 5501 0050 03       		.uleb128 0x3
 5502 0051 28100000 		.4byte	.LASF5
 5503 0055 02       		.byte	0x2
 5504 0056 37       		.byte	0x37
 5505 0057 5B000000 		.4byte	0x5b
 5506 005b 02       		.uleb128 0x2
 5507 005c 02       		.byte	0x2
 5508 005d 05       		.byte	0x5
 5509 005e 6A140000 		.4byte	.LASF6
 5510 0062 03       		.uleb128 0x3
 5511 0063 FC080000 		.4byte	.LASF7
 5512 0067 02       		.byte	0x2
 5513 0068 39       		.byte	0x39
 5514 0069 6D000000 		.4byte	0x6d
 5515 006d 02       		.uleb128 0x2
 5516 006e 02       		.byte	0x2
 5517 006f 07       		.byte	0x7
 5518 0070 671B0000 		.4byte	.LASF8
 5519 0074 03       		.uleb128 0x3
 5520 0075 A3030000 		.4byte	.LASF9
 5521 0079 02       		.byte	0x2
 5522 007a 4D       		.byte	0x4d
 5523 007b 7F000000 		.4byte	0x7f
 5524 007f 02       		.uleb128 0x2
 5525 0080 04       		.byte	0x4
 5526 0081 05       		.byte	0x5
 5527 0082 AB140000 		.4byte	.LASF10
 5528 0086 03       		.uleb128 0x3
 5529 0087 FB180000 		.4byte	.LASF11
ARM GAS  /var/folders/3j/4xdnk5197cv_b7cw3n33qk7r0000gn/T//ccLoT9Qc.s 			page 98


 5530 008b 02       		.byte	0x2
 5531 008c 4F       		.byte	0x4f
 5532 008d 91000000 		.4byte	0x91
 5533 0091 02       		.uleb128 0x2
 5534 0092 04       		.byte	0x4
 5535 0093 07       		.byte	0x7
 5536 0094 DE170000 		.4byte	.LASF12
 5537 0098 02       		.uleb128 0x2
 5538 0099 08       		.byte	0x8
 5539 009a 05       		.byte	0x5
 5540 009b 300F0000 		.4byte	.LASF13
 5541 009f 03       		.uleb128 0x3
 5542 00a0 560B0000 		.4byte	.LASF14
 5543 00a4 02       		.byte	0x2
 5544 00a5 69       		.byte	0x69
 5545 00a6 AA000000 		.4byte	0xaa
 5546 00aa 02       		.uleb128 0x2
 5547 00ab 08       		.byte	0x8
 5548 00ac 07       		.byte	0x7
 5549 00ad 5B080000 		.4byte	.LASF15
 5550 00b1 04       		.uleb128 0x4
 5551 00b2 04       		.byte	0x4
 5552 00b3 05       		.byte	0x5
 5553 00b4 696E7400 		.ascii	"int\000"
 5554 00b8 03       		.uleb128 0x3
 5555 00b9 C6060000 		.4byte	.LASF16
 5556 00bd 03       		.byte	0x3
 5557 00be 14       		.byte	0x14
 5558 00bf 2C000000 		.4byte	0x2c
 5559 00c3 03       		.uleb128 0x3
 5560 00c4 1C0E0000 		.4byte	.LASF17
 5561 00c8 03       		.byte	0x3
 5562 00c9 18       		.byte	0x18
 5563 00ca 3E000000 		.4byte	0x3e
 5564 00ce 03       		.uleb128 0x3
 5565 00cf 09080000 		.4byte	.LASF18
 5566 00d3 03       		.byte	0x3
 5567 00d4 20       		.byte	0x20
 5568 00d5 50000000 		.4byte	0x50
 5569 00d9 03       		.uleb128 0x3
 5570 00da C4120000 		.4byte	.LASF19
 5571 00de 03       		.byte	0x3
 5572 00df 24       		.byte	0x24
 5573 00e0 62000000 		.4byte	0x62
 5574 00e4 03       		.uleb128 0x3
 5575 00e5 44180000 		.4byte	.LASF20
 5576 00e9 03       		.byte	0x3
 5577 00ea 2C       		.byte	0x2c
 5578 00eb 74000000 		.4byte	0x74
 5579 00ef 03       		.uleb128 0x3
 5580 00f0 BD060000 		.4byte	.LASF21
 5581 00f4 03       		.byte	0x3
 5582 00f5 30       		.byte	0x30
 5583 00f6 86000000 		.4byte	0x86
 5584 00fa 05       		.uleb128 0x5
 5585 00fb EF000000 		.4byte	0xef
 5586 00ff 03       		.uleb128 0x3
ARM GAS  /var/folders/3j/4xdnk5197cv_b7cw3n33qk7r0000gn/T//ccLoT9Qc.s 			page 99


 5587 0100 BF150000 		.4byte	.LASF22
 5588 0104 03       		.byte	0x3
 5589 0105 3C       		.byte	0x3c
 5590 0106 9F000000 		.4byte	0x9f
 5591 010a 02       		.uleb128 0x2
 5592 010b 08       		.byte	0x8
 5593 010c 04       		.byte	0x4
 5594 010d 9E120000 		.4byte	.LASF23
 5595 0111 03       		.uleb128 0x3
 5596 0112 8B060000 		.4byte	.LASF24
 5597 0116 04       		.byte	0x4
 5598 0117 6D       		.byte	0x6d
 5599 0118 EF000000 		.4byte	0xef
 5600 011c 05       		.uleb128 0x5
 5601 011d 11010000 		.4byte	0x111
 5602 0121 03       		.uleb128 0x3
 5603 0122 D5070000 		.4byte	.LASF25
 5604 0126 05       		.byte	0x5
 5605 0127 36       		.byte	0x36
 5606 0128 C3000000 		.4byte	0xc3
 5607 012c 03       		.uleb128 0x3
 5608 012d 3C0E0000 		.4byte	.LASF26
 5609 0131 05       		.byte	0x5
 5610 0132 64       		.byte	0x64
 5611 0133 C3000000 		.4byte	0xc3
 5612 0137 06       		.uleb128 0x6
 5613 0138 47010000 		.4byte	0x147
 5614 013c 47010000 		.4byte	0x147
 5615 0140 07       		.uleb128 0x7
 5616 0141 25000000 		.4byte	0x25
 5617 0145 1F       		.byte	0x1f
 5618 0146 00       		.byte	0
 5619 0147 02       		.uleb128 0x2
 5620 0148 01       		.byte	0x1
 5621 0149 08       		.byte	0x8
 5622 014a B40C0000 		.4byte	.LASF27
 5623 014e 05       		.uleb128 0x5
 5624 014f 47010000 		.4byte	0x147
 5625 0153 03       		.uleb128 0x3
 5626 0154 ED160000 		.4byte	.LASF28
 5627 0158 06       		.byte	0x6
 5628 0159 83       		.byte	0x83
 5629 015a B8000000 		.4byte	0xb8
 5630 015e 03       		.uleb128 0x3
 5631 015f 5F0F0000 		.4byte	.LASF29
 5632 0163 06       		.byte	0x6
 5633 0164 B5       		.byte	0xb5
 5634 0165 C3000000 		.4byte	0xc3
 5635 0169 03       		.uleb128 0x3
 5636 016a EE0E0000 		.4byte	.LASF30
 5637 016e 06       		.byte	0x6
 5638 016f C7       		.byte	0xc7
 5639 0170 C3000000 		.4byte	0xc3
 5640 0174 03       		.uleb128 0x3
 5641 0175 45030000 		.4byte	.LASF31
 5642 0179 06       		.byte	0x6
 5643 017a DA       		.byte	0xda
ARM GAS  /var/folders/3j/4xdnk5197cv_b7cw3n33qk7r0000gn/T//ccLoT9Qc.s 			page 100


 5644 017b C3000000 		.4byte	0xc3
 5645 017f 08       		.uleb128 0x8
 5646 0180 40       		.byte	0x40
 5647 0181 06       		.byte	0x6
 5648 0182 EA       		.byte	0xea
 5649 0183 1B020000 		.4byte	0x21b
 5650 0187 09       		.uleb128 0x9
 5651 0188 42120000 		.4byte	.LASF32
 5652 018c 06       		.byte	0x6
 5653 018d EB       		.byte	0xeb
 5654 018e 5E010000 		.4byte	0x15e
 5655 0192 00       		.byte	0
 5656 0193 09       		.uleb128 0x9
 5657 0194 9E010000 		.4byte	.LASF33
 5658 0198 06       		.byte	0x6
 5659 0199 ED       		.byte	0xed
 5660 019a 69010000 		.4byte	0x169
 5661 019e 01       		.byte	0x1
 5662 019f 09       		.uleb128 0x9
 5663 01a0 1B0D0000 		.4byte	.LASF34
 5664 01a4 06       		.byte	0x6
 5665 01a5 F0       		.byte	0xf0
 5666 01a6 EF000000 		.4byte	0xef
 5667 01aa 04       		.byte	0x4
 5668 01ab 09       		.uleb128 0x9
 5669 01ac 520A0000 		.4byte	.LASF35
 5670 01b0 06       		.byte	0x6
 5671 01b1 F2       		.byte	0xf2
 5672 01b2 EF000000 		.4byte	0xef
 5673 01b6 08       		.byte	0x8
 5674 01b7 09       		.uleb128 0x9
 5675 01b8 18020000 		.4byte	.LASF36
 5676 01bc 06       		.byte	0x6
 5677 01bd F5       		.byte	0xf5
 5678 01be C3000000 		.4byte	0xc3
 5679 01c2 0C       		.byte	0xc
 5680 01c3 09       		.uleb128 0x9
 5681 01c4 DE020000 		.4byte	.LASF37
 5682 01c8 06       		.byte	0x6
 5683 01c9 F7       		.byte	0xf7
 5684 01ca D9000000 		.4byte	0xd9
 5685 01ce 0E       		.byte	0xe
 5686 01cf 09       		.uleb128 0x9
 5687 01d0 6A120000 		.4byte	.LASF38
 5688 01d4 06       		.byte	0x6
 5689 01d5 F9       		.byte	0xf9
 5690 01d6 11010000 		.4byte	0x111
 5691 01da 10       		.byte	0x10
 5692 01db 09       		.uleb128 0x9
 5693 01dc 8D0B0000 		.4byte	.LASF39
 5694 01e0 06       		.byte	0x6
 5695 01e1 FC       		.byte	0xfc
 5696 01e2 E4000000 		.4byte	0xe4
 5697 01e6 14       		.byte	0x14
 5698 01e7 09       		.uleb128 0x9
 5699 01e8 62030000 		.4byte	.LASF40
 5700 01ec 06       		.byte	0x6
ARM GAS  /var/folders/3j/4xdnk5197cv_b7cw3n33qk7r0000gn/T//ccLoT9Qc.s 			page 101


 5701 01ed FF       		.byte	0xff
 5702 01ee 1B020000 		.4byte	0x21b
 5703 01f2 18       		.byte	0x18
 5704 01f3 0A       		.uleb128 0xa
 5705 01f4 4E050000 		.4byte	.LASF41
 5706 01f8 06       		.byte	0x6
 5707 01f9 0101     		.2byte	0x101
 5708 01fb 1B020000 		.4byte	0x21b
 5709 01ff 1E       		.byte	0x1e
 5710 0200 0A       		.uleb128 0xa
 5711 0201 EB0A0000 		.4byte	.LASF42
 5712 0205 06       		.byte	0x6
 5713 0206 0401     		.2byte	0x104
 5714 0208 2B020000 		.4byte	0x22b
 5715 020c 24       		.byte	0x24
 5716 020d 0A       		.uleb128 0xa
 5717 020e 1E050000 		.4byte	.LASF43
 5718 0212 06       		.byte	0x6
 5719 0213 0701     		.2byte	0x107
 5720 0215 C3000000 		.4byte	0xc3
 5721 0219 3C       		.byte	0x3c
 5722 021a 00       		.byte	0
 5723 021b 06       		.uleb128 0x6
 5724 021c C3000000 		.4byte	0xc3
 5725 0220 2B020000 		.4byte	0x22b
 5726 0224 07       		.uleb128 0x7
 5727 0225 25000000 		.4byte	0x25
 5728 0229 05       		.byte	0x5
 5729 022a 00       		.byte	0
 5730 022b 06       		.uleb128 0x6
 5731 022c 11010000 		.4byte	0x111
 5732 0230 3B020000 		.4byte	0x23b
 5733 0234 07       		.uleb128 0x7
 5734 0235 25000000 		.4byte	0x25
 5735 0239 05       		.byte	0x5
 5736 023a 00       		.byte	0
 5737 023b 0B       		.uleb128 0xb
 5738 023c B3070000 		.4byte	.LASF44
 5739 0240 06       		.byte	0x6
 5740 0241 0901     		.2byte	0x109
 5741 0243 7F010000 		.4byte	0x17f
 5742 0247 0B       		.uleb128 0xb
 5743 0248 AA110000 		.4byte	.LASF45
 5744 024c 06       		.byte	0x6
 5745 024d 1101     		.2byte	0x111
 5746 024f C3000000 		.4byte	0xc3
 5747 0253 0C       		.uleb128 0xc
 5748 0254 08       		.byte	0x8
 5749 0255 06       		.byte	0x6
 5750 0256 2701     		.2byte	0x127
 5751 0258 77020000 		.4byte	0x277
 5752 025c 0A       		.uleb128 0xa
 5753 025d 72080000 		.4byte	.LASF46
 5754 0261 06       		.byte	0x6
 5755 0262 2801     		.2byte	0x128
 5756 0264 E4000000 		.4byte	0xe4
 5757 0268 00       		.byte	0
ARM GAS  /var/folders/3j/4xdnk5197cv_b7cw3n33qk7r0000gn/T//ccLoT9Qc.s 			page 102


 5758 0269 0A       		.uleb128 0xa
 5759 026a F7100000 		.4byte	.LASF47
 5760 026e 06       		.byte	0x6
 5761 026f 2A01     		.2byte	0x12a
 5762 0271 E4000000 		.4byte	0xe4
 5763 0275 04       		.byte	0x4
 5764 0276 00       		.byte	0
 5765 0277 0B       		.uleb128 0xb
 5766 0278 DA110000 		.4byte	.LASF48
 5767 027c 06       		.byte	0x6
 5768 027d 2C01     		.2byte	0x12c
 5769 027f 53020000 		.4byte	0x253
 5770 0283 0C       		.uleb128 0xc
 5771 0284 1C       		.byte	0x1c
 5772 0285 06       		.byte	0x6
 5773 0286 3201     		.2byte	0x132
 5774 0288 0F030000 		.4byte	0x30f
 5775 028c 0A       		.uleb128 0xa
 5776 028d 411D0000 		.4byte	.LASF49
 5777 0291 06       		.byte	0x6
 5778 0292 3301     		.2byte	0x133
 5779 0294 EF000000 		.4byte	0xef
 5780 0298 00       		.byte	0
 5781 0299 0A       		.uleb128 0xa
 5782 029a 630C0000 		.4byte	.LASF50
 5783 029e 06       		.byte	0x6
 5784 029f 3401     		.2byte	0x134
 5785 02a1 EF000000 		.4byte	0xef
 5786 02a5 04       		.byte	0x4
 5787 02a6 0A       		.uleb128 0xa
 5788 02a7 C31B0000 		.4byte	.LASF51
 5789 02ab 06       		.byte	0x6
 5790 02ac 3901     		.2byte	0x139
 5791 02ae D9000000 		.4byte	0xd9
 5792 02b2 08       		.byte	0x8
 5793 02b3 0A       		.uleb128 0xa
 5794 02b4 80050000 		.4byte	.LASF52
 5795 02b8 06       		.byte	0x6
 5796 02b9 3B01     		.2byte	0x13b
 5797 02bb D9000000 		.4byte	0xd9
 5798 02bf 0A       		.byte	0xa
 5799 02c0 0A       		.uleb128 0xa
 5800 02c1 A7000000 		.4byte	.LASF53
 5801 02c5 06       		.byte	0x6
 5802 02c6 4001     		.2byte	0x140
 5803 02c8 11010000 		.4byte	0x111
 5804 02cc 0C       		.byte	0xc
 5805 02cd 0A       		.uleb128 0xa
 5806 02ce 8D030000 		.4byte	.LASF54
 5807 02d2 06       		.byte	0x6
 5808 02d3 4401     		.2byte	0x144
 5809 02d5 11010000 		.4byte	0x111
 5810 02d9 10       		.byte	0x10
 5811 02da 0A       		.uleb128 0xa
 5812 02db 020A0000 		.4byte	.LASF55
 5813 02df 06       		.byte	0x6
 5814 02e0 4901     		.2byte	0x149
ARM GAS  /var/folders/3j/4xdnk5197cv_b7cw3n33qk7r0000gn/T//ccLoT9Qc.s 			page 103


 5815 02e2 D9000000 		.4byte	0xd9
 5816 02e6 14       		.byte	0x14
 5817 02e7 0A       		.uleb128 0xa
 5818 02e8 08160000 		.4byte	.LASF56
 5819 02ec 06       		.byte	0x6
 5820 02ed 4D01     		.2byte	0x14d
 5821 02ef C3000000 		.4byte	0xc3
 5822 02f3 16       		.byte	0x16
 5823 02f4 0A       		.uleb128 0xa
 5824 02f5 131C0000 		.4byte	.LASF57
 5825 02f9 06       		.byte	0x6
 5826 02fa 5001     		.2byte	0x150
 5827 02fc C3000000 		.4byte	0xc3
 5828 0300 17       		.byte	0x17
 5829 0301 0A       		.uleb128 0xa
 5830 0302 1B0F0000 		.4byte	.LASF58
 5831 0306 06       		.byte	0x6
 5832 0307 5301     		.2byte	0x153
 5833 0309 C3000000 		.4byte	0xc3
 5834 030d 18       		.byte	0x18
 5835 030e 00       		.byte	0
 5836 030f 0B       		.uleb128 0xb
 5837 0310 E8120000 		.4byte	.LASF59
 5838 0314 06       		.byte	0x6
 5839 0315 5701     		.2byte	0x157
 5840 0317 83020000 		.4byte	0x283
 5841 031b 0C       		.uleb128 0xc
 5842 031c 68       		.byte	0x68
 5843 031d 06       		.byte	0x6
 5844 031e 6001     		.2byte	0x160
 5845 0320 73030000 		.4byte	0x373
 5846 0324 0A       		.uleb128 0xa
 5847 0325 DD0A0000 		.4byte	.LASF60
 5848 0329 06       		.byte	0x6
 5849 032a 6201     		.2byte	0x162
 5850 032c 73030000 		.4byte	0x373
 5851 0330 00       		.byte	0
 5852 0331 0A       		.uleb128 0xa
 5853 0332 75070000 		.4byte	.LASF61
 5854 0336 06       		.byte	0x6
 5855 0337 6401     		.2byte	0x164
 5856 0339 C3000000 		.4byte	0xc3
 5857 033d 60       		.byte	0x60
 5858 033e 0A       		.uleb128 0xa
 5859 033f 270F0000 		.4byte	.LASF62
 5860 0343 06       		.byte	0x6
 5861 0344 6601     		.2byte	0x166
 5862 0346 C3000000 		.4byte	0xc3
 5863 034a 61       		.byte	0x61
 5864 034b 0A       		.uleb128 0xa
 5865 034c A60D0000 		.4byte	.LASF63
 5866 0350 06       		.byte	0x6
 5867 0351 6701     		.2byte	0x167
 5868 0353 C3000000 		.4byte	0xc3
 5869 0357 62       		.byte	0x62
 5870 0358 0A       		.uleb128 0xa
 5871 0359 CE180000 		.4byte	.LASF64
ARM GAS  /var/folders/3j/4xdnk5197cv_b7cw3n33qk7r0000gn/T//ccLoT9Qc.s 			page 104


 5872 035d 06       		.byte	0x6
 5873 035e 6801     		.2byte	0x168
 5874 0360 C3000000 		.4byte	0xc3
 5875 0364 63       		.byte	0x63
 5876 0365 0A       		.uleb128 0xa
 5877 0366 81030000 		.4byte	.LASF65
 5878 036a 06       		.byte	0x6
 5879 036b 6B01     		.2byte	0x16b
 5880 036d 21010000 		.4byte	0x121
 5881 0371 64       		.byte	0x64
 5882 0372 00       		.byte	0
 5883 0373 06       		.uleb128 0x6
 5884 0374 EF000000 		.4byte	0xef
 5885 0378 83030000 		.4byte	0x383
 5886 037c 07       		.uleb128 0x7
 5887 037d 25000000 		.4byte	0x25
 5888 0381 17       		.byte	0x17
 5889 0382 00       		.byte	0
 5890 0383 0B       		.uleb128 0xb
 5891 0384 731D0000 		.4byte	.LASF66
 5892 0388 06       		.byte	0x6
 5893 0389 6E01     		.2byte	0x16e
 5894 038b 1B030000 		.4byte	0x31b
 5895 038f 0C       		.uleb128 0xc
 5896 0390 0C       		.byte	0xc
 5897 0391 06       		.byte	0x6
 5898 0392 7601     		.2byte	0x176
 5899 0394 B3030000 		.4byte	0x3b3
 5900 0398 0A       		.uleb128 0xa
 5901 0399 7B090000 		.4byte	.LASF67
 5902 039d 06       		.byte	0x6
 5903 039e 7701     		.2byte	0x177
 5904 03a0 1B020000 		.4byte	0x21b
 5905 03a4 00       		.byte	0
 5906 03a5 0A       		.uleb128 0xa
 5907 03a6 D4160000 		.4byte	.LASF68
 5908 03aa 06       		.byte	0x6
 5909 03ab 7901     		.2byte	0x179
 5910 03ad 1B020000 		.4byte	0x21b
 5911 03b1 06       		.byte	0x6
 5912 03b2 00       		.byte	0
 5913 03b3 0B       		.uleb128 0xb
 5914 03b4 D80D0000 		.4byte	.LASF69
 5915 03b8 06       		.byte	0x6
 5916 03b9 7B01     		.2byte	0x17b
 5917 03bb 8F030000 		.4byte	0x38f
 5918 03bf 0C       		.uleb128 0xc
 5919 03c0 50       		.byte	0x50
 5920 03c1 06       		.byte	0x6
 5921 03c2 7D01     		.2byte	0x17d
 5922 03c4 CD040000 		.4byte	0x4cd
 5923 03c8 0A       		.uleb128 0xa
 5924 03c9 EC080000 		.4byte	.LASF70
 5925 03cd 06       		.byte	0x6
 5926 03ce 7E01     		.2byte	0x17e
 5927 03d0 11010000 		.4byte	0x111
 5928 03d4 00       		.byte	0
ARM GAS  /var/folders/3j/4xdnk5197cv_b7cw3n33qk7r0000gn/T//ccLoT9Qc.s 			page 105


 5929 03d5 0A       		.uleb128 0xa
 5930 03d6 521C0000 		.4byte	.LASF71
 5931 03da 06       		.byte	0x6
 5932 03db 8001     		.2byte	0x180
 5933 03dd D9000000 		.4byte	0xd9
 5934 03e1 04       		.byte	0x4
 5935 03e2 0A       		.uleb128 0xa
 5936 03e3 531A0000 		.4byte	.LASF72
 5937 03e7 06       		.byte	0x6
 5938 03e8 8301     		.2byte	0x183
 5939 03ea 2C010000 		.4byte	0x12c
 5940 03ee 06       		.byte	0x6
 5941 03ef 0A       		.uleb128 0xa
 5942 03f0 D5150000 		.4byte	.LASF73
 5943 03f4 06       		.byte	0x6
 5944 03f5 8601     		.2byte	0x186
 5945 03f7 EF000000 		.4byte	0xef
 5946 03fb 08       		.byte	0x8
 5947 03fc 0A       		.uleb128 0xa
 5948 03fd 22190000 		.4byte	.LASF74
 5949 0401 06       		.byte	0x6
 5950 0402 8801     		.2byte	0x188
 5951 0404 C3000000 		.4byte	0xc3
 5952 0408 0C       		.byte	0xc
 5953 0409 0A       		.uleb128 0xa
 5954 040a DB180000 		.4byte	.LASF75
 5955 040e 06       		.byte	0x6
 5956 040f 8A01     		.2byte	0x18a
 5957 0411 EF000000 		.4byte	0xef
 5958 0415 10       		.byte	0x10
 5959 0416 0A       		.uleb128 0xa
 5960 0417 40020000 		.4byte	.LASF76
 5961 041b 06       		.byte	0x6
 5962 041c 8C01     		.2byte	0x18c
 5963 041e C3000000 		.4byte	0xc3
 5964 0422 14       		.byte	0x14
 5965 0423 0A       		.uleb128 0xa
 5966 0424 F51B0000 		.4byte	.LASF77
 5967 0428 06       		.byte	0x6
 5968 0429 8F01     		.2byte	0x18f
 5969 042b D9000000 		.4byte	0xd9
 5970 042f 16       		.byte	0x16
 5971 0430 0A       		.uleb128 0xa
 5972 0431 090C0000 		.4byte	.LASF78
 5973 0435 06       		.byte	0x6
 5974 0436 9101     		.2byte	0x191
 5975 0438 D9000000 		.4byte	0xd9
 5976 043c 18       		.byte	0x18
 5977 043d 0A       		.uleb128 0xa
 5978 043e 90180000 		.4byte	.LASF79
 5979 0442 06       		.byte	0x6
 5980 0443 9401     		.2byte	0x194
 5981 0445 D9000000 		.4byte	0xd9
 5982 0449 1A       		.byte	0x1a
 5983 044a 0A       		.uleb128 0xa
 5984 044b 040D0000 		.4byte	.LASF80
 5985 044f 06       		.byte	0x6
ARM GAS  /var/folders/3j/4xdnk5197cv_b7cw3n33qk7r0000gn/T//ccLoT9Qc.s 			page 106


 5986 0450 9901     		.2byte	0x199
 5987 0452 C3000000 		.4byte	0xc3
 5988 0456 1C       		.byte	0x1c
 5989 0457 0A       		.uleb128 0xa
 5990 0458 D40A0000 		.4byte	.LASF81
 5991 045c 06       		.byte	0x6
 5992 045d 9B01     		.2byte	0x19b
 5993 045f C3000000 		.4byte	0xc3
 5994 0463 1D       		.byte	0x1d
 5995 0464 0A       		.uleb128 0xa
 5996 0465 B7050000 		.4byte	.LASF82
 5997 0469 06       		.byte	0x6
 5998 046a 9C01     		.2byte	0x19c
 5999 046c C3000000 		.4byte	0xc3
 6000 0470 1E       		.byte	0x1e
 6001 0471 0A       		.uleb128 0xa
 6002 0472 58030000 		.4byte	.LASF83
 6003 0476 06       		.byte	0x6
 6004 0477 9D01     		.2byte	0x19d
 6005 0479 37010000 		.4byte	0x137
 6006 047d 1F       		.byte	0x1f
 6007 047e 0A       		.uleb128 0xa
 6008 047f 900A0000 		.4byte	.LASF84
 6009 0483 06       		.byte	0x6
 6010 0484 9F01     		.2byte	0x19f
 6011 0486 C3000000 		.4byte	0xc3
 6012 048a 3F       		.byte	0x3f
 6013 048b 0A       		.uleb128 0xa
 6014 048c 95000000 		.4byte	.LASF85
 6015 0490 06       		.byte	0x6
 6016 0491 A001     		.2byte	0x1a0
 6017 0493 C3000000 		.4byte	0xc3
 6018 0497 40       		.byte	0x40
 6019 0498 0A       		.uleb128 0xa
 6020 0499 9E0F0000 		.4byte	.LASF86
 6021 049d 06       		.byte	0x6
 6022 049e A101     		.2byte	0x1a1
 6023 04a0 C3000000 		.4byte	0xc3
 6024 04a4 41       		.byte	0x41
 6025 04a5 0A       		.uleb128 0xa
 6026 04a6 DA140000 		.4byte	.LASF87
 6027 04aa 06       		.byte	0x6
 6028 04ab A201     		.2byte	0x1a2
 6029 04ad EF000000 		.4byte	0xef
 6030 04b1 44       		.byte	0x44
 6031 04b2 0A       		.uleb128 0xa
 6032 04b3 C4000000 		.4byte	.LASF88
 6033 04b7 06       		.byte	0x6
 6034 04b8 A301     		.2byte	0x1a3
 6035 04ba EF000000 		.4byte	0xef
 6036 04be 48       		.byte	0x48
 6037 04bf 0A       		.uleb128 0xa
 6038 04c0 CF1D0000 		.4byte	.LASF89
 6039 04c4 06       		.byte	0x6
 6040 04c5 A401     		.2byte	0x1a4
 6041 04c7 11010000 		.4byte	0x111
 6042 04cb 4C       		.byte	0x4c
ARM GAS  /var/folders/3j/4xdnk5197cv_b7cw3n33qk7r0000gn/T//ccLoT9Qc.s 			page 107


 6043 04cc 00       		.byte	0
 6044 04cd 0B       		.uleb128 0xb
 6045 04ce 9A060000 		.4byte	.LASF90
 6046 04d2 06       		.byte	0x6
 6047 04d3 A701     		.2byte	0x1a7
 6048 04d5 BF030000 		.4byte	0x3bf
 6049 04d9 0D       		.uleb128 0xd
 6050 04da 5C01     		.2byte	0x15c
 6051 04dc 06       		.byte	0x6
 6052 04dd B101     		.2byte	0x1b1
 6053 04df 3B060000 		.4byte	0x63b
 6054 04e3 0A       		.uleb128 0xa
 6055 04e4 5A0C0000 		.4byte	.LASF91
 6056 04e8 06       		.byte	0x6
 6057 04e9 B201     		.2byte	0x1b2
 6058 04eb 77020000 		.4byte	0x277
 6059 04ef 00       		.byte	0
 6060 04f0 0A       		.uleb128 0xa
 6061 04f1 FA050000 		.4byte	.LASF92
 6062 04f5 06       		.byte	0x6
 6063 04f6 B401     		.2byte	0x1b4
 6064 04f8 E4000000 		.4byte	0xe4
 6065 04fc 08       		.byte	0x8
 6066 04fd 0A       		.uleb128 0xa
 6067 04fe 34080000 		.4byte	.LASF93
 6068 0502 06       		.byte	0x6
 6069 0503 B601     		.2byte	0x1b6
 6070 0505 E4000000 		.4byte	0xe4
 6071 0509 0C       		.byte	0xc
 6072 050a 0A       		.uleb128 0xa
 6073 050b CC170000 		.4byte	.LASF94
 6074 050f 06       		.byte	0x6
 6075 0510 B801     		.2byte	0x1b8
 6076 0512 3B020000 		.4byte	0x23b
 6077 0516 10       		.byte	0x10
 6078 0517 0A       		.uleb128 0xa
 6079 0518 670D0000 		.4byte	.LASF95
 6080 051c 06       		.byte	0x6
 6081 051d BA01     		.2byte	0x1ba
 6082 051f 0F030000 		.4byte	0x30f
 6083 0523 50       		.byte	0x50
 6084 0524 0A       		.uleb128 0xa
 6085 0525 521B0000 		.4byte	.LASF96
 6086 0529 06       		.byte	0x6
 6087 052a BC01     		.2byte	0x1bc
 6088 052c 83030000 		.4byte	0x383
 6089 0530 6C       		.byte	0x6c
 6090 0531 0A       		.uleb128 0xa
 6091 0532 F0170000 		.4byte	.LASF97
 6092 0536 06       		.byte	0x6
 6093 0537 BE01     		.2byte	0x1be
 6094 0539 CD040000 		.4byte	0x4cd
 6095 053d D4       		.byte	0xd4
 6096 053e 0E       		.uleb128 0xe
 6097 053f 490A0000 		.4byte	.LASF98
 6098 0543 06       		.byte	0x6
 6099 0544 C001     		.2byte	0x1c0
ARM GAS  /var/folders/3j/4xdnk5197cv_b7cw3n33qk7r0000gn/T//ccLoT9Qc.s 			page 108


 6100 0546 B3030000 		.4byte	0x3b3
 6101 054a 2401     		.2byte	0x124
 6102 054c 0E       		.uleb128 0xe
 6103 054d A0130000 		.4byte	.LASF99
 6104 0551 06       		.byte	0x6
 6105 0552 C201     		.2byte	0x1c2
 6106 0554 C3000000 		.4byte	0xc3
 6107 0558 3001     		.2byte	0x130
 6108 055a 0E       		.uleb128 0xe
 6109 055b 7A1B0000 		.4byte	.LASF100
 6110 055f 06       		.byte	0x6
 6111 0560 C401     		.2byte	0x1c4
 6112 0562 C3000000 		.4byte	0xc3
 6113 0566 3101     		.2byte	0x131
 6114 0568 0E       		.uleb128 0xe
 6115 0569 381D0000 		.4byte	.LASF101
 6116 056d 06       		.byte	0x6
 6117 056e C601     		.2byte	0x1c6
 6118 0570 47020000 		.4byte	0x247
 6119 0574 3201     		.2byte	0x132
 6120 0576 0E       		.uleb128 0xe
 6121 0577 34050000 		.4byte	.LASF102
 6122 057b 06       		.byte	0x6
 6123 057c C801     		.2byte	0x1c8
 6124 057e 74010000 		.4byte	0x174
 6125 0582 3301     		.2byte	0x133
 6126 0584 0E       		.uleb128 0xe
 6127 0585 F51B0000 		.4byte	.LASF77
 6128 0589 06       		.byte	0x6
 6129 058a CA01     		.2byte	0x1ca
 6130 058c D9000000 		.4byte	0xd9
 6131 0590 3401     		.2byte	0x134
 6132 0592 0E       		.uleb128 0xe
 6133 0593 090C0000 		.4byte	.LASF78
 6134 0597 06       		.byte	0x6
 6135 0598 CC01     		.2byte	0x1cc
 6136 059a D9000000 		.4byte	0xd9
 6137 059e 3601     		.2byte	0x136
 6138 05a0 0E       		.uleb128 0xe
 6139 05a1 90180000 		.4byte	.LASF79
 6140 05a5 06       		.byte	0x6
 6141 05a6 CF01     		.2byte	0x1cf
 6142 05a8 D9000000 		.4byte	0xd9
 6143 05ac 3801     		.2byte	0x138
 6144 05ae 0E       		.uleb128 0xe
 6145 05af 4D0C0000 		.4byte	.LASF103
 6146 05b3 06       		.byte	0x6
 6147 05b4 D201     		.2byte	0x1d2
 6148 05b6 C3000000 		.4byte	0xc3
 6149 05ba 3A01     		.2byte	0x13a
 6150 05bc 0E       		.uleb128 0xe
 6151 05bd F2070000 		.4byte	.LASF104
 6152 05c1 06       		.byte	0x6
 6153 05c2 D401     		.2byte	0x1d4
 6154 05c4 D9000000 		.4byte	0xd9
 6155 05c8 3C01     		.2byte	0x13c
 6156 05ca 0E       		.uleb128 0xe
ARM GAS  /var/folders/3j/4xdnk5197cv_b7cw3n33qk7r0000gn/T//ccLoT9Qc.s 			page 109


 6157 05cb D31B0000 		.4byte	.LASF105
 6158 05cf 06       		.byte	0x6
 6159 05d0 D601     		.2byte	0x1d6
 6160 05d2 11010000 		.4byte	0x111
 6161 05d6 4001     		.2byte	0x140
 6162 05d8 0E       		.uleb128 0xe
 6163 05d9 E7140000 		.4byte	.LASF106
 6164 05dd 06       		.byte	0x6
 6165 05de D901     		.2byte	0x1d9
 6166 05e0 11010000 		.4byte	0x111
 6167 05e4 4401     		.2byte	0x144
 6168 05e6 0E       		.uleb128 0xe
 6169 05e7 A6150000 		.4byte	.LASF107
 6170 05eb 06       		.byte	0x6
 6171 05ec DB01     		.2byte	0x1db
 6172 05ee 11010000 		.4byte	0x111
 6173 05f2 4801     		.2byte	0x148
 6174 05f4 0E       		.uleb128 0xe
 6175 05f5 17180000 		.4byte	.LASF108
 6176 05f9 06       		.byte	0x6
 6177 05fa DD01     		.2byte	0x1dd
 6178 05fc 3B060000 		.4byte	0x63b
 6179 0600 4C01     		.2byte	0x14c
 6180 0602 0E       		.uleb128 0xe
 6181 0603 8A090000 		.4byte	.LASF109
 6182 0607 06       		.byte	0x6
 6183 0608 DF01     		.2byte	0x1df
 6184 060a C3000000 		.4byte	0xc3
 6185 060e 5001     		.2byte	0x150
 6186 0610 0E       		.uleb128 0xe
 6187 0611 BB090000 		.4byte	.LASF110
 6188 0615 06       		.byte	0x6
 6189 0616 E101     		.2byte	0x1e1
 6190 0618 D9000000 		.4byte	0xd9
 6191 061c 5201     		.2byte	0x152
 6192 061e 0E       		.uleb128 0xe
 6193 061f C30B0000 		.4byte	.LASF111
 6194 0623 06       		.byte	0x6
 6195 0624 E301     		.2byte	0x1e3
 6196 0626 D9000000 		.4byte	0xd9
 6197 062a 5401     		.2byte	0x154
 6198 062c 0E       		.uleb128 0xe
 6199 062d 06190000 		.4byte	.LASF112
 6200 0631 06       		.byte	0x6
 6201 0632 E501     		.2byte	0x1e5
 6202 0634 11010000 		.4byte	0x111
 6203 0638 5801     		.2byte	0x158
 6204 063a 00       		.byte	0
 6205 063b 0F       		.uleb128 0xf
 6206 063c 04       		.byte	0x4
 6207 063d C3000000 		.4byte	0xc3
 6208 0641 0B       		.uleb128 0xb
 6209 0642 67190000 		.4byte	.LASF113
 6210 0646 06       		.byte	0x6
 6211 0647 E801     		.2byte	0x1e8
 6212 0649 D9040000 		.4byte	0x4d9
 6213 064d 0B       		.uleb128 0xb
ARM GAS  /var/folders/3j/4xdnk5197cv_b7cw3n33qk7r0000gn/T//ccLoT9Qc.s 			page 110


 6214 064e 171B0000 		.4byte	.LASF114
 6215 0652 06       		.byte	0x6
 6216 0653 FE01     		.2byte	0x1fe
 6217 0655 C3000000 		.4byte	0xc3
 6218 0659 0C       		.uleb128 0xc
 6219 065a 05       		.byte	0x5
 6220 065b 06       		.byte	0x6
 6221 065c 0D02     		.2byte	0x20d
 6222 065e A4060000 		.4byte	0x6a4
 6223 0662 0A       		.uleb128 0xa
 6224 0663 240B0000 		.4byte	.LASF115
 6225 0667 06       		.byte	0x6
 6226 0668 0E02     		.2byte	0x20e
 6227 066a C3000000 		.4byte	0xc3
 6228 066e 00       		.byte	0
 6229 066f 0A       		.uleb128 0xa
 6230 0670 061C0000 		.4byte	.LASF116
 6231 0674 06       		.byte	0x6
 6232 0675 0F02     		.2byte	0x20f
 6233 0677 C3000000 		.4byte	0xc3
 6234 067b 01       		.byte	0x1
 6235 067c 0A       		.uleb128 0xa
 6236 067d 980F0000 		.4byte	.LASF117
 6237 0681 06       		.byte	0x6
 6238 0682 1002     		.2byte	0x210
 6239 0684 C3000000 		.4byte	0xc3
 6240 0688 02       		.byte	0x2
 6241 0689 0A       		.uleb128 0xa
 6242 068a 540F0000 		.4byte	.LASF118
 6243 068e 06       		.byte	0x6
 6244 068f 1102     		.2byte	0x211
 6245 0691 C3000000 		.4byte	0xc3
 6246 0695 03       		.byte	0x3
 6247 0696 0A       		.uleb128 0xa
 6248 0697 B20F0000 		.4byte	.LASF119
 6249 069b 06       		.byte	0x6
 6250 069c 1202     		.2byte	0x212
 6251 069e C3000000 		.4byte	0xc3
 6252 06a2 04       		.byte	0x4
 6253 06a3 00       		.byte	0
 6254 06a4 0B       		.uleb128 0xb
 6255 06a5 F6110000 		.4byte	.LASF120
 6256 06a9 06       		.byte	0x6
 6257 06aa 1302     		.2byte	0x213
 6258 06ac 59060000 		.4byte	0x659
 6259 06b0 0B       		.uleb128 0xb
 6260 06b1 87120000 		.4byte	.LASF121
 6261 06b5 06       		.byte	0x6
 6262 06b6 1C02     		.2byte	0x21c
 6263 06b8 C3000000 		.4byte	0xc3
 6264 06bc 10       		.uleb128 0x10
 6265 06bd 04       		.byte	0x4
 6266 06be 03       		.uleb128 0x3
 6267 06bf BC120000 		.4byte	.LASF122
 6268 06c3 07       		.byte	0x7
 6269 06c4 22       		.byte	0x22
 6270 06c5 C9060000 		.4byte	0x6c9
ARM GAS  /var/folders/3j/4xdnk5197cv_b7cw3n33qk7r0000gn/T//ccLoT9Qc.s 			page 111


 6271 06c9 0F       		.uleb128 0xf
 6272 06ca 04       		.byte	0x4
 6273 06cb CF060000 		.4byte	0x6cf
 6274 06cf 11       		.uleb128 0x11
 6275 06d0 77180000 		.4byte	.LASF228
 6276 06d4 03       		.uleb128 0x3
 6277 06d5 4B1C0000 		.4byte	.LASF123
 6278 06d9 08       		.byte	0x8
 6279 06da 2C       		.byte	0x2c
 6280 06db 7F000000 		.4byte	0x7f
 6281 06df 03       		.uleb128 0x3
 6282 06e0 9E050000 		.4byte	.LASF124
 6283 06e4 08       		.byte	0x8
 6284 06e5 72       		.byte	0x72
 6285 06e6 7F000000 		.4byte	0x7f
 6286 06ea 0B       		.uleb128 0xb
 6287 06eb 10180000 		.4byte	.LASF125
 6288 06ef 09       		.byte	0x9
 6289 06f0 6501     		.2byte	0x165
 6290 06f2 25000000 		.4byte	0x25
 6291 06f6 12       		.uleb128 0x12
 6292 06f7 04       		.byte	0x4
 6293 06f8 08       		.byte	0x8
 6294 06f9 A6       		.byte	0xa6
 6295 06fa 15070000 		.4byte	0x715
 6296 06fe 13       		.uleb128 0x13
 6297 06ff 100E0000 		.4byte	.LASF126
 6298 0703 08       		.byte	0x8
 6299 0704 A8       		.byte	0xa8
 6300 0705 EA060000 		.4byte	0x6ea
 6301 0709 13       		.uleb128 0x13
 6302 070a B8150000 		.4byte	.LASF127
 6303 070e 08       		.byte	0x8
 6304 070f A9       		.byte	0xa9
 6305 0710 15070000 		.4byte	0x715
 6306 0714 00       		.byte	0
 6307 0715 06       		.uleb128 0x6
 6308 0716 49000000 		.4byte	0x49
 6309 071a 25070000 		.4byte	0x725
 6310 071e 07       		.uleb128 0x7
 6311 071f 25000000 		.4byte	0x25
 6312 0723 03       		.byte	0x3
 6313 0724 00       		.byte	0
 6314 0725 08       		.uleb128 0x8
 6315 0726 08       		.byte	0x8
 6316 0727 08       		.byte	0x8
 6317 0728 A3       		.byte	0xa3
 6318 0729 46070000 		.4byte	0x746
 6319 072d 09       		.uleb128 0x9
 6320 072e 2B070000 		.4byte	.LASF128
 6321 0732 08       		.byte	0x8
 6322 0733 A5       		.byte	0xa5
 6323 0734 B1000000 		.4byte	0xb1
 6324 0738 00       		.byte	0
 6325 0739 09       		.uleb128 0x9
 6326 073a E50B0000 		.4byte	.LASF129
 6327 073e 08       		.byte	0x8
ARM GAS  /var/folders/3j/4xdnk5197cv_b7cw3n33qk7r0000gn/T//ccLoT9Qc.s 			page 112


 6328 073f AA       		.byte	0xaa
 6329 0740 F6060000 		.4byte	0x6f6
 6330 0744 04       		.byte	0x4
 6331 0745 00       		.byte	0
 6332 0746 03       		.uleb128 0x3
 6333 0747 CC100000 		.4byte	.LASF130
 6334 074b 08       		.byte	0x8
 6335 074c AB       		.byte	0xab
 6336 074d 25070000 		.4byte	0x725
 6337 0751 03       		.uleb128 0x3
 6338 0752 C10D0000 		.4byte	.LASF131
 6339 0756 08       		.byte	0x8
 6340 0757 AF       		.byte	0xaf
 6341 0758 BE060000 		.4byte	0x6be
 6342 075c 03       		.uleb128 0x3
 6343 075d AD040000 		.4byte	.LASF132
 6344 0761 0A       		.byte	0xa
 6345 0762 16       		.byte	0x16
 6346 0763 91000000 		.4byte	0x91
 6347 0767 14       		.uleb128 0x14
 6348 0768 1E060000 		.4byte	.LASF137
 6349 076c 18       		.byte	0x18
 6350 076d 0A       		.byte	0xa
 6351 076e 2F       		.byte	0x2f
 6352 076f BA070000 		.4byte	0x7ba
 6353 0773 09       		.uleb128 0x9
 6354 0774 A11D0000 		.4byte	.LASF133
 6355 0778 0A       		.byte	0xa
 6356 0779 31       		.byte	0x31
 6357 077a BA070000 		.4byte	0x7ba
 6358 077e 00       		.byte	0
 6359 077f 15       		.uleb128 0x15
 6360 0780 5F6B00   		.ascii	"_k\000"
 6361 0783 0A       		.byte	0xa
 6362 0784 32       		.byte	0x32
 6363 0785 B1000000 		.4byte	0xb1
 6364 0789 04       		.byte	0x4
 6365 078a 09       		.uleb128 0x9
 6366 078b BC000000 		.4byte	.LASF134
 6367 078f 0A       		.byte	0xa
 6368 0790 32       		.byte	0x32
 6369 0791 B1000000 		.4byte	0xb1
 6370 0795 08       		.byte	0x8
 6371 0796 09       		.uleb128 0x9
 6372 0797 2E150000 		.4byte	.LASF135
 6373 079b 0A       		.byte	0xa
 6374 079c 32       		.byte	0x32
 6375 079d B1000000 		.4byte	0xb1
 6376 07a1 0C       		.byte	0xc
 6377 07a2 09       		.uleb128 0x9
 6378 07a3 9F080000 		.4byte	.LASF136
 6379 07a7 0A       		.byte	0xa
 6380 07a8 32       		.byte	0x32
 6381 07a9 B1000000 		.4byte	0xb1
 6382 07ad 10       		.byte	0x10
 6383 07ae 15       		.uleb128 0x15
 6384 07af 5F7800   		.ascii	"_x\000"
ARM GAS  /var/folders/3j/4xdnk5197cv_b7cw3n33qk7r0000gn/T//ccLoT9Qc.s 			page 113


 6385 07b2 0A       		.byte	0xa
 6386 07b3 33       		.byte	0x33
 6387 07b4 C0070000 		.4byte	0x7c0
 6388 07b8 14       		.byte	0x14
 6389 07b9 00       		.byte	0
 6390 07ba 0F       		.uleb128 0xf
 6391 07bb 04       		.byte	0x4
 6392 07bc 67070000 		.4byte	0x767
 6393 07c0 06       		.uleb128 0x6
 6394 07c1 5C070000 		.4byte	0x75c
 6395 07c5 D0070000 		.4byte	0x7d0
 6396 07c9 07       		.uleb128 0x7
 6397 07ca 25000000 		.4byte	0x25
 6398 07ce 00       		.byte	0
 6399 07cf 00       		.byte	0
 6400 07d0 14       		.uleb128 0x14
 6401 07d1 75170000 		.4byte	.LASF138
 6402 07d5 24       		.byte	0x24
 6403 07d6 0A       		.byte	0xa
 6404 07d7 37       		.byte	0x37
 6405 07d8 49080000 		.4byte	0x849
 6406 07dc 09       		.uleb128 0x9
 6407 07dd A3020000 		.4byte	.LASF139
 6408 07e1 0A       		.byte	0xa
 6409 07e2 39       		.byte	0x39
 6410 07e3 B1000000 		.4byte	0xb1
 6411 07e7 00       		.byte	0
 6412 07e8 09       		.uleb128 0x9
 6413 07e9 AA070000 		.4byte	.LASF140
 6414 07ed 0A       		.byte	0xa
 6415 07ee 3A       		.byte	0x3a
 6416 07ef B1000000 		.4byte	0xb1
 6417 07f3 04       		.byte	0x4
 6418 07f4 09       		.uleb128 0x9
 6419 07f5 CD060000 		.4byte	.LASF141
 6420 07f9 0A       		.byte	0xa
 6421 07fa 3B       		.byte	0x3b
 6422 07fb B1000000 		.4byte	0xb1
 6423 07ff 08       		.byte	0x8
 6424 0800 09       		.uleb128 0x9
 6425 0801 D80C0000 		.4byte	.LASF142
 6426 0805 0A       		.byte	0xa
 6427 0806 3C       		.byte	0x3c
 6428 0807 B1000000 		.4byte	0xb1
 6429 080b 0C       		.byte	0xc
 6430 080c 09       		.uleb128 0x9
 6431 080d 39120000 		.4byte	.LASF143
 6432 0811 0A       		.byte	0xa
 6433 0812 3D       		.byte	0x3d
 6434 0813 B1000000 		.4byte	0xb1
 6435 0817 10       		.byte	0x10
 6436 0818 09       		.uleb128 0x9
 6437 0819 FE150000 		.4byte	.LASF144
 6438 081d 0A       		.byte	0xa
 6439 081e 3E       		.byte	0x3e
 6440 081f B1000000 		.4byte	0xb1
 6441 0823 14       		.byte	0x14
ARM GAS  /var/folders/3j/4xdnk5197cv_b7cw3n33qk7r0000gn/T//ccLoT9Qc.s 			page 114


 6442 0824 09       		.uleb128 0x9
 6443 0825 26060000 		.4byte	.LASF145
 6444 0829 0A       		.byte	0xa
 6445 082a 3F       		.byte	0x3f
 6446 082b B1000000 		.4byte	0xb1
 6447 082f 18       		.byte	0x18
 6448 0830 09       		.uleb128 0x9
 6449 0831 C00A0000 		.4byte	.LASF146
 6450 0835 0A       		.byte	0xa
 6451 0836 40       		.byte	0x40
 6452 0837 B1000000 		.4byte	0xb1
 6453 083b 1C       		.byte	0x1c
 6454 083c 09       		.uleb128 0x9
 6455 083d 06110000 		.4byte	.LASF147
 6456 0841 0A       		.byte	0xa
 6457 0842 41       		.byte	0x41
 6458 0843 B1000000 		.4byte	0xb1
 6459 0847 20       		.byte	0x20
 6460 0848 00       		.byte	0
 6461 0849 16       		.uleb128 0x16
 6462 084a 90010000 		.4byte	.LASF148
 6463 084e 0801     		.2byte	0x108
 6464 0850 0A       		.byte	0xa
 6465 0851 4A       		.byte	0x4a
 6466 0852 89080000 		.4byte	0x889
 6467 0856 09       		.uleb128 0x9
 6468 0857 2B1B0000 		.4byte	.LASF149
 6469 085b 0A       		.byte	0xa
 6470 085c 4B       		.byte	0x4b
 6471 085d 89080000 		.4byte	0x889
 6472 0861 00       		.byte	0
 6473 0862 09       		.uleb128 0x9
 6474 0863 66180000 		.4byte	.LASF150
 6475 0867 0A       		.byte	0xa
 6476 0868 4C       		.byte	0x4c
 6477 0869 89080000 		.4byte	0x889
 6478 086d 80       		.byte	0x80
 6479 086e 17       		.uleb128 0x17
 6480 086f 8B190000 		.4byte	.LASF151
 6481 0873 0A       		.byte	0xa
 6482 0874 4E       		.byte	0x4e
 6483 0875 5C070000 		.4byte	0x75c
 6484 0879 0001     		.2byte	0x100
 6485 087b 17       		.uleb128 0x17
 6486 087c 211D0000 		.4byte	.LASF152
 6487 0880 0A       		.byte	0xa
 6488 0881 51       		.byte	0x51
 6489 0882 5C070000 		.4byte	0x75c
 6490 0886 0401     		.2byte	0x104
 6491 0888 00       		.byte	0
 6492 0889 06       		.uleb128 0x6
 6493 088a BC060000 		.4byte	0x6bc
 6494 088e 99080000 		.4byte	0x899
 6495 0892 07       		.uleb128 0x7
 6496 0893 25000000 		.4byte	0x25
 6497 0897 1F       		.byte	0x1f
 6498 0898 00       		.byte	0
ARM GAS  /var/folders/3j/4xdnk5197cv_b7cw3n33qk7r0000gn/T//ccLoT9Qc.s 			page 115


 6499 0899 16       		.uleb128 0x16
 6500 089a AF130000 		.4byte	.LASF153
 6501 089e 9001     		.2byte	0x190
 6502 08a0 0A       		.byte	0xa
 6503 08a1 5D       		.byte	0x5d
 6504 08a2 D7080000 		.4byte	0x8d7
 6505 08a6 09       		.uleb128 0x9
 6506 08a7 A11D0000 		.4byte	.LASF133
 6507 08ab 0A       		.byte	0xa
 6508 08ac 5E       		.byte	0x5e
 6509 08ad D7080000 		.4byte	0x8d7
 6510 08b1 00       		.byte	0
 6511 08b2 09       		.uleb128 0x9
 6512 08b3 CF0A0000 		.4byte	.LASF154
 6513 08b7 0A       		.byte	0xa
 6514 08b8 5F       		.byte	0x5f
 6515 08b9 B1000000 		.4byte	0xb1
 6516 08bd 04       		.byte	0x4
 6517 08be 09       		.uleb128 0x9
 6518 08bf B2050000 		.4byte	.LASF155
 6519 08c3 0A       		.byte	0xa
 6520 08c4 61       		.byte	0x61
 6521 08c5 DD080000 		.4byte	0x8dd
 6522 08c9 08       		.byte	0x8
 6523 08ca 09       		.uleb128 0x9
 6524 08cb 90010000 		.4byte	.LASF148
 6525 08cf 0A       		.byte	0xa
 6526 08d0 62       		.byte	0x62
 6527 08d1 49080000 		.4byte	0x849
 6528 08d5 88       		.byte	0x88
 6529 08d6 00       		.byte	0
 6530 08d7 0F       		.uleb128 0xf
 6531 08d8 04       		.byte	0x4
 6532 08d9 99080000 		.4byte	0x899
 6533 08dd 06       		.uleb128 0x6
 6534 08de ED080000 		.4byte	0x8ed
 6535 08e2 ED080000 		.4byte	0x8ed
 6536 08e6 07       		.uleb128 0x7
 6537 08e7 25000000 		.4byte	0x25
 6538 08eb 1F       		.byte	0x1f
 6539 08ec 00       		.byte	0
 6540 08ed 0F       		.uleb128 0xf
 6541 08ee 04       		.byte	0x4
 6542 08ef F3080000 		.4byte	0x8f3
 6543 08f3 18       		.uleb128 0x18
 6544 08f4 14       		.uleb128 0x14
 6545 08f5 181A0000 		.4byte	.LASF156
 6546 08f9 08       		.byte	0x8
 6547 08fa 0A       		.byte	0xa
 6548 08fb 75       		.byte	0x75
 6549 08fc 19090000 		.4byte	0x919
 6550 0900 09       		.uleb128 0x9
 6551 0901 730F0000 		.4byte	.LASF157
 6552 0905 0A       		.byte	0xa
 6553 0906 76       		.byte	0x76
 6554 0907 19090000 		.4byte	0x919
 6555 090b 00       		.byte	0
ARM GAS  /var/folders/3j/4xdnk5197cv_b7cw3n33qk7r0000gn/T//ccLoT9Qc.s 			page 116


 6556 090c 09       		.uleb128 0x9
 6557 090d 0D1C0000 		.4byte	.LASF158
 6558 0911 0A       		.byte	0xa
 6559 0912 77       		.byte	0x77
 6560 0913 B1000000 		.4byte	0xb1
 6561 0917 04       		.byte	0x4
 6562 0918 00       		.byte	0
 6563 0919 0F       		.uleb128 0xf
 6564 091a 04       		.byte	0x4
 6565 091b 49000000 		.4byte	0x49
 6566 091f 14       		.uleb128 0x14
 6567 0920 97080000 		.4byte	.LASF159
 6568 0924 68       		.byte	0x68
 6569 0925 0A       		.byte	0xa
 6570 0926 B5       		.byte	0xb5
 6571 0927 490A0000 		.4byte	0xa49
 6572 092b 15       		.uleb128 0x15
 6573 092c 5F7000   		.ascii	"_p\000"
 6574 092f 0A       		.byte	0xa
 6575 0930 B6       		.byte	0xb6
 6576 0931 19090000 		.4byte	0x919
 6577 0935 00       		.byte	0
 6578 0936 15       		.uleb128 0x15
 6579 0937 5F7200   		.ascii	"_r\000"
 6580 093a 0A       		.byte	0xa
 6581 093b B7       		.byte	0xb7
 6582 093c B1000000 		.4byte	0xb1
 6583 0940 04       		.byte	0x4
 6584 0941 15       		.uleb128 0x15
 6585 0942 5F7700   		.ascii	"_w\000"
 6586 0945 0A       		.byte	0xa
 6587 0946 B8       		.byte	0xb8
 6588 0947 B1000000 		.4byte	0xb1
 6589 094b 08       		.byte	0x8
 6590 094c 09       		.uleb128 0x9
 6591 094d 74030000 		.4byte	.LASF160
 6592 0951 0A       		.byte	0xa
 6593 0952 B9       		.byte	0xb9
 6594 0953 5B000000 		.4byte	0x5b
 6595 0957 0C       		.byte	0xc
 6596 0958 09       		.uleb128 0x9
 6597 0959 0D100000 		.4byte	.LASF161
 6598 095d 0A       		.byte	0xa
 6599 095e BA       		.byte	0xba
 6600 095f 5B000000 		.4byte	0x5b
 6601 0963 0E       		.byte	0xe
 6602 0964 15       		.uleb128 0x15
 6603 0965 5F626600 		.ascii	"_bf\000"
 6604 0969 0A       		.byte	0xa
 6605 096a BB       		.byte	0xbb
 6606 096b F4080000 		.4byte	0x8f4
 6607 096f 10       		.byte	0x10
 6608 0970 09       		.uleb128 0x9
 6609 0971 4A190000 		.4byte	.LASF162
 6610 0975 0A       		.byte	0xa
 6611 0976 BC       		.byte	0xbc
 6612 0977 B1000000 		.4byte	0xb1
ARM GAS  /var/folders/3j/4xdnk5197cv_b7cw3n33qk7r0000gn/T//ccLoT9Qc.s 			page 117


 6613 097b 18       		.byte	0x18
 6614 097c 09       		.uleb128 0x9
 6615 097d C0050000 		.4byte	.LASF163
 6616 0981 0A       		.byte	0xa
 6617 0982 C3       		.byte	0xc3
 6618 0983 BC060000 		.4byte	0x6bc
 6619 0987 1C       		.byte	0x1c
 6620 0988 09       		.uleb128 0x9
 6621 0989 89040000 		.4byte	.LASF164
 6622 098d 0A       		.byte	0xa
 6623 098e C5       		.byte	0xc5
 6624 098f AA0B0000 		.4byte	0xbaa
 6625 0993 20       		.byte	0x20
 6626 0994 09       		.uleb128 0x9
 6627 0995 09130000 		.4byte	.LASF165
 6628 0999 0A       		.byte	0xa
 6629 099a C7       		.byte	0xc7
 6630 099b D40B0000 		.4byte	0xbd4
 6631 099f 24       		.byte	0x24
 6632 09a0 09       		.uleb128 0x9
 6633 09a1 9B1D0000 		.4byte	.LASF166
 6634 09a5 0A       		.byte	0xa
 6635 09a6 CA       		.byte	0xca
 6636 09a7 F80B0000 		.4byte	0xbf8
 6637 09ab 28       		.byte	0x28
 6638 09ac 09       		.uleb128 0x9
 6639 09ad 850E0000 		.4byte	.LASF167
 6640 09b1 0A       		.byte	0xa
 6641 09b2 CB       		.byte	0xcb
 6642 09b3 120C0000 		.4byte	0xc12
 6643 09b7 2C       		.byte	0x2c
 6644 09b8 15       		.uleb128 0x15
 6645 09b9 5F756200 		.ascii	"_ub\000"
 6646 09bd 0A       		.byte	0xa
 6647 09be CE       		.byte	0xce
 6648 09bf F4080000 		.4byte	0x8f4
 6649 09c3 30       		.byte	0x30
 6650 09c4 15       		.uleb128 0x15
 6651 09c5 5F757000 		.ascii	"_up\000"
 6652 09c9 0A       		.byte	0xa
 6653 09ca CF       		.byte	0xcf
 6654 09cb 19090000 		.4byte	0x919
 6655 09cf 38       		.byte	0x38
 6656 09d0 15       		.uleb128 0x15
 6657 09d1 5F757200 		.ascii	"_ur\000"
 6658 09d5 0A       		.byte	0xa
 6659 09d6 D0       		.byte	0xd0
 6660 09d7 B1000000 		.4byte	0xb1
 6661 09db 3C       		.byte	0x3c
 6662 09dc 09       		.uleb128 0x9
 6663 09dd C91D0000 		.4byte	.LASF168
 6664 09e1 0A       		.byte	0xa
 6665 09e2 D3       		.byte	0xd3
 6666 09e3 180C0000 		.4byte	0xc18
 6667 09e7 40       		.byte	0x40
 6668 09e8 09       		.uleb128 0x9
 6669 09e9 651C0000 		.4byte	.LASF169
ARM GAS  /var/folders/3j/4xdnk5197cv_b7cw3n33qk7r0000gn/T//ccLoT9Qc.s 			page 118


 6670 09ed 0A       		.byte	0xa
 6671 09ee D4       		.byte	0xd4
 6672 09ef 280C0000 		.4byte	0xc28
 6673 09f3 43       		.byte	0x43
 6674 09f4 15       		.uleb128 0x15
 6675 09f5 5F6C6200 		.ascii	"_lb\000"
 6676 09f9 0A       		.byte	0xa
 6677 09fa D7       		.byte	0xd7
 6678 09fb F4080000 		.4byte	0x8f4
 6679 09ff 44       		.byte	0x44
 6680 0a00 09       		.uleb128 0x9
 6681 0a01 6C170000 		.4byte	.LASF170
 6682 0a05 0A       		.byte	0xa
 6683 0a06 DA       		.byte	0xda
 6684 0a07 B1000000 		.4byte	0xb1
 6685 0a0b 4C       		.byte	0x4c
 6686 0a0c 09       		.uleb128 0x9
 6687 0a0d 5F090000 		.4byte	.LASF171
 6688 0a11 0A       		.byte	0xa
 6689 0a12 DB       		.byte	0xdb
 6690 0a13 D4060000 		.4byte	0x6d4
 6691 0a17 50       		.byte	0x50
 6692 0a18 09       		.uleb128 0x9
 6693 0a19 A0150000 		.4byte	.LASF172
 6694 0a1d 0A       		.byte	0xa
 6695 0a1e DE       		.byte	0xde
 6696 0a1f 670A0000 		.4byte	0xa67
 6697 0a23 54       		.byte	0x54
 6698 0a24 09       		.uleb128 0x9
 6699 0a25 8C170000 		.4byte	.LASF173
 6700 0a29 0A       		.byte	0xa
 6701 0a2a E2       		.byte	0xe2
 6702 0a2b 51070000 		.4byte	0x751
 6703 0a2f 58       		.byte	0x58
 6704 0a30 09       		.uleb128 0x9
 6705 0a31 2E040000 		.4byte	.LASF174
 6706 0a35 0A       		.byte	0xa
 6707 0a36 E4       		.byte	0xe4
 6708 0a37 46070000 		.4byte	0x746
 6709 0a3b 5C       		.byte	0x5c
 6710 0a3c 09       		.uleb128 0x9
 6711 0a3d F31C0000 		.4byte	.LASF175
 6712 0a41 0A       		.byte	0xa
 6713 0a42 E5       		.byte	0xe5
 6714 0a43 B1000000 		.4byte	0xb1
 6715 0a47 64       		.byte	0x64
 6716 0a48 00       		.byte	0
 6717 0a49 19       		.uleb128 0x19
 6718 0a4a B1000000 		.4byte	0xb1
 6719 0a4e 670A0000 		.4byte	0xa67
 6720 0a52 1A       		.uleb128 0x1a
 6721 0a53 670A0000 		.4byte	0xa67
 6722 0a57 1A       		.uleb128 0x1a
 6723 0a58 BC060000 		.4byte	0x6bc
 6724 0a5c 1A       		.uleb128 0x1a
 6725 0a5d A40B0000 		.4byte	0xba4
 6726 0a61 1A       		.uleb128 0x1a
ARM GAS  /var/folders/3j/4xdnk5197cv_b7cw3n33qk7r0000gn/T//ccLoT9Qc.s 			page 119


 6727 0a62 B1000000 		.4byte	0xb1
 6728 0a66 00       		.byte	0
 6729 0a67 0F       		.uleb128 0xf
 6730 0a68 04       		.byte	0x4
 6731 0a69 720A0000 		.4byte	0xa72
 6732 0a6d 05       		.uleb128 0x5
 6733 0a6e 670A0000 		.4byte	0xa67
 6734 0a72 1B       		.uleb128 0x1b
 6735 0a73 B7130000 		.4byte	.LASF176
 6736 0a77 2804     		.2byte	0x428
 6737 0a79 0A       		.byte	0xa
 6738 0a7a 6002     		.2byte	0x260
 6739 0a7c A40B0000 		.4byte	0xba4
 6740 0a80 0A       		.uleb128 0xa
 6741 0a81 BB030000 		.4byte	.LASF177
 6742 0a85 0A       		.byte	0xa
 6743 0a86 6202     		.2byte	0x262
 6744 0a88 B1000000 		.4byte	0xb1
 6745 0a8c 00       		.byte	0
 6746 0a8d 0A       		.uleb128 0xa
 6747 0a8e 050F0000 		.4byte	.LASF178
 6748 0a92 0A       		.byte	0xa
 6749 0a93 6702     		.2byte	0x267
 6750 0a95 7F0C0000 		.4byte	0xc7f
 6751 0a99 04       		.byte	0x4
 6752 0a9a 0A       		.uleb128 0xa
 6753 0a9b B0180000 		.4byte	.LASF179
 6754 0a9f 0A       		.byte	0xa
 6755 0aa0 6702     		.2byte	0x267
 6756 0aa2 7F0C0000 		.4byte	0xc7f
 6757 0aa6 08       		.byte	0x8
 6758 0aa7 0A       		.uleb128 0xa
 6759 0aa8 B81D0000 		.4byte	.LASF180
 6760 0aac 0A       		.byte	0xa
 6761 0aad 6702     		.2byte	0x267
 6762 0aaf 7F0C0000 		.4byte	0xc7f
 6763 0ab3 0C       		.byte	0xc
 6764 0ab4 0A       		.uleb128 0xa
 6765 0ab5 CA0A0000 		.4byte	.LASF181
 6766 0ab9 0A       		.byte	0xa
 6767 0aba 6902     		.2byte	0x269
 6768 0abc B1000000 		.4byte	0xb1
 6769 0ac0 10       		.byte	0x10
 6770 0ac1 0A       		.uleb128 0xa
 6771 0ac2 A4090000 		.4byte	.LASF182
 6772 0ac6 0A       		.byte	0xa
 6773 0ac7 6A02     		.2byte	0x26a
 6774 0ac9 610E0000 		.4byte	0xe61
 6775 0acd 14       		.byte	0x14
 6776 0ace 0A       		.uleb128 0xa
 6777 0acf C71C0000 		.4byte	.LASF183
 6778 0ad3 0A       		.byte	0xa
 6779 0ad4 6D02     		.2byte	0x26d
 6780 0ad6 B1000000 		.4byte	0xb1
 6781 0ada 30       		.byte	0x30
 6782 0adb 0A       		.uleb128 0xa
 6783 0adc 0F1B0000 		.4byte	.LASF184
ARM GAS  /var/folders/3j/4xdnk5197cv_b7cw3n33qk7r0000gn/T//ccLoT9Qc.s 			page 120


 6784 0ae0 0A       		.byte	0xa
 6785 0ae1 6E02     		.2byte	0x26e
 6786 0ae3 760E0000 		.4byte	0xe76
 6787 0ae7 34       		.byte	0x34
 6788 0ae8 0A       		.uleb128 0xa
 6789 0ae9 8C0E0000 		.4byte	.LASF185
 6790 0aed 0A       		.byte	0xa
 6791 0aee 7002     		.2byte	0x270
 6792 0af0 B1000000 		.4byte	0xb1
 6793 0af4 38       		.byte	0x38
 6794 0af5 0A       		.uleb128 0xa
 6795 0af6 87100000 		.4byte	.LASF186
 6796 0afa 0A       		.byte	0xa
 6797 0afb 7202     		.2byte	0x272
 6798 0afd 870E0000 		.4byte	0xe87
 6799 0b01 3C       		.byte	0x3c
 6800 0b02 0A       		.uleb128 0xa
 6801 0b03 83060000 		.4byte	.LASF187
 6802 0b07 0A       		.byte	0xa
 6803 0b08 7502     		.2byte	0x275
 6804 0b0a BA070000 		.4byte	0x7ba
 6805 0b0e 40       		.byte	0x40
 6806 0b0f 0A       		.uleb128 0xa
 6807 0b10 2A080000 		.4byte	.LASF188
 6808 0b14 0A       		.byte	0xa
 6809 0b15 7602     		.2byte	0x276
 6810 0b17 B1000000 		.4byte	0xb1
 6811 0b1b 44       		.byte	0x44
 6812 0b1c 0A       		.uleb128 0xa
 6813 0b1d 1F0C0000 		.4byte	.LASF189
 6814 0b21 0A       		.byte	0xa
 6815 0b22 7702     		.2byte	0x277
 6816 0b24 BA070000 		.4byte	0x7ba
 6817 0b28 48       		.byte	0x48
 6818 0b29 0A       		.uleb128 0xa
 6819 0b2a 790F0000 		.4byte	.LASF190
 6820 0b2e 0A       		.byte	0xa
 6821 0b2f 7802     		.2byte	0x278
 6822 0b31 8D0E0000 		.4byte	0xe8d
 6823 0b35 4C       		.byte	0x4c
 6824 0b36 0A       		.uleb128 0xa
 6825 0b37 CC160000 		.4byte	.LASF191
 6826 0b3b 0A       		.byte	0xa
 6827 0b3c 7B02     		.2byte	0x27b
 6828 0b3e B1000000 		.4byte	0xb1
 6829 0b42 50       		.byte	0x50
 6830 0b43 0A       		.uleb128 0xa
 6831 0b44 B8180000 		.4byte	.LASF192
 6832 0b48 0A       		.byte	0xa
 6833 0b49 7C02     		.2byte	0x27c
 6834 0b4b A40B0000 		.4byte	0xba4
 6835 0b4f 54       		.byte	0x54
 6836 0b50 0A       		.uleb128 0xa
 6837 0b51 B7160000 		.4byte	.LASF193
 6838 0b55 0A       		.byte	0xa
 6839 0b56 9F02     		.2byte	0x29f
 6840 0b58 3F0E0000 		.4byte	0xe3f
ARM GAS  /var/folders/3j/4xdnk5197cv_b7cw3n33qk7r0000gn/T//ccLoT9Qc.s 			page 121


 6841 0b5c 58       		.byte	0x58
 6842 0b5d 0E       		.uleb128 0xe
 6843 0b5e AF130000 		.4byte	.LASF153
 6844 0b62 0A       		.byte	0xa
 6845 0b63 A302     		.2byte	0x2a3
 6846 0b65 D7080000 		.4byte	0x8d7
 6847 0b69 4801     		.2byte	0x148
 6848 0b6b 0E       		.uleb128 0xe
 6849 0b6c FB0C0000 		.4byte	.LASF194
 6850 0b70 0A       		.byte	0xa
 6851 0b71 A402     		.2byte	0x2a4
 6852 0b73 99080000 		.4byte	0x899
 6853 0b77 4C01     		.2byte	0x14c
 6854 0b79 0E       		.uleb128 0xe
 6855 0b7a E20C0000 		.4byte	.LASF195
 6856 0b7e 0A       		.byte	0xa
 6857 0b7f A802     		.2byte	0x2a8
 6858 0b81 9E0E0000 		.4byte	0xe9e
 6859 0b85 DC02     		.2byte	0x2dc
 6860 0b87 0E       		.uleb128 0xe
 6861 0b88 C81A0000 		.4byte	.LASF196
 6862 0b8c 0A       		.byte	0xa
 6863 0b8d AD02     		.2byte	0x2ad
 6864 0b8f 440C0000 		.4byte	0xc44
 6865 0b93 E002     		.2byte	0x2e0
 6866 0b95 0E       		.uleb128 0xe
 6867 0b96 29150000 		.4byte	.LASF197
 6868 0b9a 0A       		.byte	0xa
 6869 0b9b AF02     		.2byte	0x2af
 6870 0b9d AA0E0000 		.4byte	0xeaa
 6871 0ba1 EC02     		.2byte	0x2ec
 6872 0ba3 00       		.byte	0
 6873 0ba4 0F       		.uleb128 0xf
 6874 0ba5 04       		.byte	0x4
 6875 0ba6 47010000 		.4byte	0x147
 6876 0baa 0F       		.uleb128 0xf
 6877 0bab 04       		.byte	0x4
 6878 0bac 490A0000 		.4byte	0xa49
 6879 0bb0 19       		.uleb128 0x19
 6880 0bb1 B1000000 		.4byte	0xb1
 6881 0bb5 CE0B0000 		.4byte	0xbce
 6882 0bb9 1A       		.uleb128 0x1a
 6883 0bba 670A0000 		.4byte	0xa67
 6884 0bbe 1A       		.uleb128 0x1a
 6885 0bbf BC060000 		.4byte	0x6bc
 6886 0bc3 1A       		.uleb128 0x1a
 6887 0bc4 CE0B0000 		.4byte	0xbce
 6888 0bc8 1A       		.uleb128 0x1a
 6889 0bc9 B1000000 		.4byte	0xb1
 6890 0bcd 00       		.byte	0
 6891 0bce 0F       		.uleb128 0xf
 6892 0bcf 04       		.byte	0x4
 6893 0bd0 4E010000 		.4byte	0x14e
 6894 0bd4 0F       		.uleb128 0xf
 6895 0bd5 04       		.byte	0x4
 6896 0bd6 B00B0000 		.4byte	0xbb0
 6897 0bda 19       		.uleb128 0x19
ARM GAS  /var/folders/3j/4xdnk5197cv_b7cw3n33qk7r0000gn/T//ccLoT9Qc.s 			page 122


 6898 0bdb DF060000 		.4byte	0x6df
 6899 0bdf F80B0000 		.4byte	0xbf8
 6900 0be3 1A       		.uleb128 0x1a
 6901 0be4 670A0000 		.4byte	0xa67
 6902 0be8 1A       		.uleb128 0x1a
 6903 0be9 BC060000 		.4byte	0x6bc
 6904 0bed 1A       		.uleb128 0x1a
 6905 0bee DF060000 		.4byte	0x6df
 6906 0bf2 1A       		.uleb128 0x1a
 6907 0bf3 B1000000 		.4byte	0xb1
 6908 0bf7 00       		.byte	0
 6909 0bf8 0F       		.uleb128 0xf
 6910 0bf9 04       		.byte	0x4
 6911 0bfa DA0B0000 		.4byte	0xbda
 6912 0bfe 19       		.uleb128 0x19
 6913 0bff B1000000 		.4byte	0xb1
 6914 0c03 120C0000 		.4byte	0xc12
 6915 0c07 1A       		.uleb128 0x1a
 6916 0c08 670A0000 		.4byte	0xa67
 6917 0c0c 1A       		.uleb128 0x1a
 6918 0c0d BC060000 		.4byte	0x6bc
 6919 0c11 00       		.byte	0
 6920 0c12 0F       		.uleb128 0xf
 6921 0c13 04       		.byte	0x4
 6922 0c14 FE0B0000 		.4byte	0xbfe
 6923 0c18 06       		.uleb128 0x6
 6924 0c19 49000000 		.4byte	0x49
 6925 0c1d 280C0000 		.4byte	0xc28
 6926 0c21 07       		.uleb128 0x7
 6927 0c22 25000000 		.4byte	0x25
 6928 0c26 02       		.byte	0x2
 6929 0c27 00       		.byte	0
 6930 0c28 06       		.uleb128 0x6
 6931 0c29 49000000 		.4byte	0x49
 6932 0c2d 380C0000 		.4byte	0xc38
 6933 0c31 07       		.uleb128 0x7
 6934 0c32 25000000 		.4byte	0x25
 6935 0c36 00       		.byte	0
 6936 0c37 00       		.byte	0
 6937 0c38 0B       		.uleb128 0xb
 6938 0c39 2A090000 		.4byte	.LASF198
 6939 0c3d 0A       		.byte	0xa
 6940 0c3e 1F01     		.2byte	0x11f
 6941 0c40 1F090000 		.4byte	0x91f
 6942 0c44 1C       		.uleb128 0x1c
 6943 0c45 691A0000 		.4byte	.LASF199
 6944 0c49 0C       		.byte	0xc
 6945 0c4a 0A       		.byte	0xa
 6946 0c4b 2301     		.2byte	0x123
 6947 0c4d 790C0000 		.4byte	0xc79
 6948 0c51 0A       		.uleb128 0xa
 6949 0c52 A11D0000 		.4byte	.LASF133
 6950 0c56 0A       		.byte	0xa
 6951 0c57 2501     		.2byte	0x125
 6952 0c59 790C0000 		.4byte	0xc79
 6953 0c5d 00       		.byte	0
 6954 0c5e 0A       		.uleb128 0xa
ARM GAS  /var/folders/3j/4xdnk5197cv_b7cw3n33qk7r0000gn/T//ccLoT9Qc.s 			page 123


 6955 0c5f 09180000 		.4byte	.LASF200
 6956 0c63 0A       		.byte	0xa
 6957 0c64 2601     		.2byte	0x126
 6958 0c66 B1000000 		.4byte	0xb1
 6959 0c6a 04       		.byte	0x4
 6960 0c6b 0A       		.uleb128 0xa
 6961 0c6c 160E0000 		.4byte	.LASF201
 6962 0c70 0A       		.byte	0xa
 6963 0c71 2701     		.2byte	0x127
 6964 0c73 7F0C0000 		.4byte	0xc7f
 6965 0c77 08       		.byte	0x8
 6966 0c78 00       		.byte	0
 6967 0c79 0F       		.uleb128 0xf
 6968 0c7a 04       		.byte	0x4
 6969 0c7b 440C0000 		.4byte	0xc44
 6970 0c7f 0F       		.uleb128 0xf
 6971 0c80 04       		.byte	0x4
 6972 0c81 380C0000 		.4byte	0xc38
 6973 0c85 1C       		.uleb128 0x1c
 6974 0c86 11080000 		.4byte	.LASF202
 6975 0c8a 0E       		.byte	0xe
 6976 0c8b 0A       		.byte	0xa
 6977 0c8c 3F01     		.2byte	0x13f
 6978 0c8e BA0C0000 		.4byte	0xcba
 6979 0c92 0A       		.uleb128 0xa
 6980 0c93 4B1D0000 		.4byte	.LASF203
 6981 0c97 0A       		.byte	0xa
 6982 0c98 4001     		.2byte	0x140
 6983 0c9a BA0C0000 		.4byte	0xcba
 6984 0c9e 00       		.byte	0
 6985 0c9f 0A       		.uleb128 0xa
 6986 0ca0 920F0000 		.4byte	.LASF204
 6987 0ca4 0A       		.byte	0xa
 6988 0ca5 4101     		.2byte	0x141
 6989 0ca7 BA0C0000 		.4byte	0xcba
 6990 0cab 06       		.byte	0x6
 6991 0cac 0A       		.uleb128 0xa
 6992 0cad 94190000 		.4byte	.LASF205
 6993 0cb1 0A       		.byte	0xa
 6994 0cb2 4201     		.2byte	0x142
 6995 0cb4 6D000000 		.4byte	0x6d
 6996 0cb8 0C       		.byte	0xc
 6997 0cb9 00       		.byte	0
 6998 0cba 06       		.uleb128 0x6
 6999 0cbb 6D000000 		.4byte	0x6d
 7000 0cbf CA0C0000 		.4byte	0xcca
 7001 0cc3 07       		.uleb128 0x7
 7002 0cc4 25000000 		.4byte	0x25
 7003 0cc8 02       		.byte	0x2
 7004 0cc9 00       		.byte	0
 7005 0cca 0C       		.uleb128 0xc
 7006 0ccb D0       		.byte	0xd0
 7007 0ccc 0A       		.byte	0xa
 7008 0ccd 8002     		.2byte	0x280
 7009 0ccf CB0D0000 		.4byte	0xdcb
 7010 0cd3 0A       		.uleb128 0xa
 7011 0cd4 6B1C0000 		.4byte	.LASF206
ARM GAS  /var/folders/3j/4xdnk5197cv_b7cw3n33qk7r0000gn/T//ccLoT9Qc.s 			page 124


 7012 0cd8 0A       		.byte	0xa
 7013 0cd9 8202     		.2byte	0x282
 7014 0cdb 25000000 		.4byte	0x25
 7015 0cdf 00       		.byte	0
 7016 0ce0 0A       		.uleb128 0xa
 7017 0ce1 D01A0000 		.4byte	.LASF207
 7018 0ce5 0A       		.byte	0xa
 7019 0ce6 8302     		.2byte	0x283
 7020 0ce8 A40B0000 		.4byte	0xba4
 7021 0cec 04       		.byte	0x4
 7022 0ced 0A       		.uleb128 0xa
 7023 0cee 8A080000 		.4byte	.LASF208
 7024 0cf2 0A       		.byte	0xa
 7025 0cf3 8402     		.2byte	0x284
 7026 0cf5 CB0D0000 		.4byte	0xdcb
 7027 0cf9 08       		.byte	0x8
 7028 0cfa 0A       		.uleb128 0xa
 7029 0cfb 79160000 		.4byte	.LASF209
 7030 0cff 0A       		.byte	0xa
 7031 0d00 8502     		.2byte	0x285
 7032 0d02 D0070000 		.4byte	0x7d0
 7033 0d06 24       		.byte	0x24
 7034 0d07 0A       		.uleb128 0xa
 7035 0d08 0C0F0000 		.4byte	.LASF210
 7036 0d0c 0A       		.byte	0xa
 7037 0d0d 8602     		.2byte	0x286
 7038 0d0f B1000000 		.4byte	0xb1
 7039 0d13 48       		.byte	0x48
 7040 0d14 0A       		.uleb128 0xa
 7041 0d15 511D0000 		.4byte	.LASF211
 7042 0d19 0A       		.byte	0xa
 7043 0d1a 8702     		.2byte	0x287
 7044 0d1c AA000000 		.4byte	0xaa
 7045 0d20 50       		.byte	0x50
 7046 0d21 0A       		.uleb128 0xa
 7047 0d22 59020000 		.4byte	.LASF212
 7048 0d26 0A       		.byte	0xa
 7049 0d27 8802     		.2byte	0x288
 7050 0d29 850C0000 		.4byte	0xc85
 7051 0d2d 58       		.byte	0x58
 7052 0d2e 0A       		.uleb128 0xa
 7053 0d2f 770C0000 		.4byte	.LASF213
 7054 0d33 0A       		.byte	0xa
 7055 0d34 8902     		.2byte	0x289
 7056 0d36 46070000 		.4byte	0x746
 7057 0d3a 68       		.byte	0x68
 7058 0d3b 0A       		.uleb128 0xa
 7059 0d3c DD1A0000 		.4byte	.LASF214
 7060 0d40 0A       		.byte	0xa
 7061 0d41 8A02     		.2byte	0x28a
 7062 0d43 46070000 		.4byte	0x746
 7063 0d47 70       		.byte	0x70
 7064 0d48 0A       		.uleb128 0xa
 7065 0d49 C5010000 		.4byte	.LASF215
 7066 0d4d 0A       		.byte	0xa
 7067 0d4e 8B02     		.2byte	0x28b
 7068 0d50 46070000 		.4byte	0x746
ARM GAS  /var/folders/3j/4xdnk5197cv_b7cw3n33qk7r0000gn/T//ccLoT9Qc.s 			page 125


 7069 0d54 78       		.byte	0x78
 7070 0d55 0A       		.uleb128 0xa
 7071 0d56 E3160000 		.4byte	.LASF216
 7072 0d5a 0A       		.byte	0xa
 7073 0d5b 8C02     		.2byte	0x28c
 7074 0d5d DB0D0000 		.4byte	0xddb
 7075 0d61 80       		.byte	0x80
 7076 0d62 0A       		.uleb128 0xa
 7077 0d63 C5020000 		.4byte	.LASF217
 7078 0d67 0A       		.byte	0xa
 7079 0d68 8D02     		.2byte	0x28d
 7080 0d6a EB0D0000 		.4byte	0xdeb
 7081 0d6e 88       		.byte	0x88
 7082 0d6f 0A       		.uleb128 0xa
 7083 0d70 3D190000 		.4byte	.LASF218
 7084 0d74 0A       		.byte	0xa
 7085 0d75 8E02     		.2byte	0x28e
 7086 0d77 B1000000 		.4byte	0xb1
 7087 0d7b A0       		.byte	0xa0
 7088 0d7c 0A       		.uleb128 0xa
 7089 0d7d C9040000 		.4byte	.LASF219
 7090 0d81 0A       		.byte	0xa
 7091 0d82 8F02     		.2byte	0x28f
 7092 0d84 46070000 		.4byte	0x746
 7093 0d88 A4       		.byte	0xa4
 7094 0d89 0A       		.uleb128 0xa
 7095 0d8a EC0C0000 		.4byte	.LASF220
 7096 0d8e 0A       		.byte	0xa
 7097 0d8f 9002     		.2byte	0x290
 7098 0d91 46070000 		.4byte	0x746
 7099 0d95 AC       		.byte	0xac
 7100 0d96 0A       		.uleb128 0xa
 7101 0d97 450B0000 		.4byte	.LASF221
 7102 0d9b 0A       		.byte	0xa
 7103 0d9c 9102     		.2byte	0x291
 7104 0d9e 46070000 		.4byte	0x746
 7105 0da2 B4       		.byte	0xb4
 7106 0da3 0A       		.uleb128 0xa
 7107 0da4 CB0F0000 		.4byte	.LASF222
 7108 0da8 0A       		.byte	0xa
 7109 0da9 9202     		.2byte	0x292
 7110 0dab 46070000 		.4byte	0x746
 7111 0daf BC       		.byte	0xbc
 7112 0db0 0A       		.uleb128 0xa
 7113 0db1 1E110000 		.4byte	.LASF223
 7114 0db5 0A       		.byte	0xa
 7115 0db6 9302     		.2byte	0x293
 7116 0db8 46070000 		.4byte	0x746
 7117 0dbc C4       		.byte	0xc4
 7118 0dbd 0A       		.uleb128 0xa
 7119 0dbe 67110000 		.4byte	.LASF224
 7120 0dc2 0A       		.byte	0xa
 7121 0dc3 9402     		.2byte	0x294
 7122 0dc5 B1000000 		.4byte	0xb1
 7123 0dc9 CC       		.byte	0xcc
 7124 0dca 00       		.byte	0
 7125 0dcb 06       		.uleb128 0x6
ARM GAS  /var/folders/3j/4xdnk5197cv_b7cw3n33qk7r0000gn/T//ccLoT9Qc.s 			page 126


 7126 0dcc 47010000 		.4byte	0x147
 7127 0dd0 DB0D0000 		.4byte	0xddb
 7128 0dd4 07       		.uleb128 0x7
 7129 0dd5 25000000 		.4byte	0x25
 7130 0dd9 19       		.byte	0x19
 7131 0dda 00       		.byte	0
 7132 0ddb 06       		.uleb128 0x6
 7133 0ddc 47010000 		.4byte	0x147
 7134 0de0 EB0D0000 		.4byte	0xdeb
 7135 0de4 07       		.uleb128 0x7
 7136 0de5 25000000 		.4byte	0x25
 7137 0de9 07       		.byte	0x7
 7138 0dea 00       		.byte	0
 7139 0deb 06       		.uleb128 0x6
 7140 0dec 47010000 		.4byte	0x147
 7141 0df0 FB0D0000 		.4byte	0xdfb
 7142 0df4 07       		.uleb128 0x7
 7143 0df5 25000000 		.4byte	0x25
 7144 0df9 17       		.byte	0x17
 7145 0dfa 00       		.byte	0
 7146 0dfb 0C       		.uleb128 0xc
 7147 0dfc F0       		.byte	0xf0
 7148 0dfd 0A       		.byte	0xa
 7149 0dfe 9902     		.2byte	0x299
 7150 0e00 1F0E0000 		.4byte	0xe1f
 7151 0e04 0A       		.uleb128 0xa
 7152 0e05 CE070000 		.4byte	.LASF225
 7153 0e09 0A       		.byte	0xa
 7154 0e0a 9C02     		.2byte	0x29c
 7155 0e0c 1F0E0000 		.4byte	0xe1f
 7156 0e10 00       		.byte	0
 7157 0e11 0A       		.uleb128 0xa
 7158 0e12 C01D0000 		.4byte	.LASF226
 7159 0e16 0A       		.byte	0xa
 7160 0e17 9D02     		.2byte	0x29d
 7161 0e19 2F0E0000 		.4byte	0xe2f
 7162 0e1d 78       		.byte	0x78
 7163 0e1e 00       		.byte	0
 7164 0e1f 06       		.uleb128 0x6
 7165 0e20 19090000 		.4byte	0x919
 7166 0e24 2F0E0000 		.4byte	0xe2f
 7167 0e28 07       		.uleb128 0x7
 7168 0e29 25000000 		.4byte	0x25
 7169 0e2d 1D       		.byte	0x1d
 7170 0e2e 00       		.byte	0
 7171 0e2f 06       		.uleb128 0x6
 7172 0e30 25000000 		.4byte	0x25
 7173 0e34 3F0E0000 		.4byte	0xe3f
 7174 0e38 07       		.uleb128 0x7
 7175 0e39 25000000 		.4byte	0x25
 7176 0e3d 1D       		.byte	0x1d
 7177 0e3e 00       		.byte	0
 7178 0e3f 1D       		.uleb128 0x1d
 7179 0e40 F0       		.byte	0xf0
 7180 0e41 0A       		.byte	0xa
 7181 0e42 7E02     		.2byte	0x27e
 7182 0e44 610E0000 		.4byte	0xe61
ARM GAS  /var/folders/3j/4xdnk5197cv_b7cw3n33qk7r0000gn/T//ccLoT9Qc.s 			page 127


 7183 0e48 1E       		.uleb128 0x1e
 7184 0e49 B7130000 		.4byte	.LASF176
 7185 0e4d 0A       		.byte	0xa
 7186 0e4e 9502     		.2byte	0x295
 7187 0e50 CA0C0000 		.4byte	0xcca
 7188 0e54 1E       		.uleb128 0x1e
 7189 0e55 A5160000 		.4byte	.LASF227
 7190 0e59 0A       		.byte	0xa
 7191 0e5a 9E02     		.2byte	0x29e
 7192 0e5c FB0D0000 		.4byte	0xdfb
 7193 0e60 00       		.byte	0
 7194 0e61 06       		.uleb128 0x6
 7195 0e62 47010000 		.4byte	0x147
 7196 0e66 710E0000 		.4byte	0xe71
 7197 0e6a 07       		.uleb128 0x7
 7198 0e6b 25000000 		.4byte	0x25
 7199 0e6f 18       		.byte	0x18
 7200 0e70 00       		.byte	0
 7201 0e71 11       		.uleb128 0x11
 7202 0e72 23040000 		.4byte	.LASF229
 7203 0e76 0F       		.uleb128 0xf
 7204 0e77 04       		.byte	0x4
 7205 0e78 710E0000 		.4byte	0xe71
 7206 0e7c 1F       		.uleb128 0x1f
 7207 0e7d 870E0000 		.4byte	0xe87
 7208 0e81 1A       		.uleb128 0x1a
 7209 0e82 670A0000 		.4byte	0xa67
 7210 0e86 00       		.byte	0
 7211 0e87 0F       		.uleb128 0xf
 7212 0e88 04       		.byte	0x4
 7213 0e89 7C0E0000 		.4byte	0xe7c
 7214 0e8d 0F       		.uleb128 0xf
 7215 0e8e 04       		.byte	0x4
 7216 0e8f BA070000 		.4byte	0x7ba
 7217 0e93 1F       		.uleb128 0x1f
 7218 0e94 9E0E0000 		.4byte	0xe9e
 7219 0e98 1A       		.uleb128 0x1a
 7220 0e99 B1000000 		.4byte	0xb1
 7221 0e9d 00       		.byte	0
 7222 0e9e 0F       		.uleb128 0xf
 7223 0e9f 04       		.byte	0x4
 7224 0ea0 A40E0000 		.4byte	0xea4
 7225 0ea4 0F       		.uleb128 0xf
 7226 0ea5 04       		.byte	0x4
 7227 0ea6 930E0000 		.4byte	0xe93
 7228 0eaa 06       		.uleb128 0x6
 7229 0eab 380C0000 		.4byte	0xc38
 7230 0eaf BA0E0000 		.4byte	0xeba
 7231 0eb3 07       		.uleb128 0x7
 7232 0eb4 25000000 		.4byte	0x25
 7233 0eb8 02       		.byte	0x2
 7234 0eb9 00       		.byte	0
 7235 0eba 20       		.uleb128 0x20
 7236 0ebb A6050000 		.4byte	.LASF230
 7237 0ebf 0A       		.byte	0xa
 7238 0ec0 2E03     		.2byte	0x32e
 7239 0ec2 670A0000 		.4byte	0xa67
ARM GAS  /var/folders/3j/4xdnk5197cv_b7cw3n33qk7r0000gn/T//ccLoT9Qc.s 			page 128


 7240 0ec6 20       		.uleb128 0x20
 7241 0ec7 E7050000 		.4byte	.LASF231
 7242 0ecb 0A       		.byte	0xa
 7243 0ecc 2F03     		.2byte	0x32f
 7244 0ece 6D0A0000 		.4byte	0xa6d
 7245 0ed2 21       		.uleb128 0x21
 7246 0ed3 6001     		.2byte	0x160
 7247 0ed5 0B       		.byte	0xb
 7248 0ed6 39       		.byte	0x39
 7249 0ed7 0F0F0000 		.4byte	0xf0f
 7250 0edb 09       		.uleb128 0x9
 7251 0edc 961D0000 		.4byte	.LASF232
 7252 0ee0 0B       		.byte	0xb
 7253 0ee1 3A       		.byte	0x3a
 7254 0ee2 41060000 		.4byte	0x641
 7255 0ee6 00       		.byte	0
 7256 0ee7 17       		.uleb128 0x17
 7257 0ee8 1E150000 		.4byte	.LASF233
 7258 0eec 0B       		.byte	0xb
 7259 0eed 3D       		.byte	0x3d
 7260 0eee C3000000 		.4byte	0xc3
 7261 0ef2 5C01     		.2byte	0x15c
 7262 0ef4 17       		.uleb128 0x17
 7263 0ef5 27170000 		.4byte	.LASF234
 7264 0ef9 0B       		.byte	0xb
 7265 0efa 3E       		.byte	0x3e
 7266 0efb C3000000 		.4byte	0xc3
 7267 0eff 5D01     		.2byte	0x15d
 7268 0f01 17       		.uleb128 0x17
 7269 0f02 140B0000 		.4byte	.LASF235
 7270 0f06 0B       		.byte	0xb
 7271 0f07 3F       		.byte	0x3f
 7272 0f08 D9000000 		.4byte	0xd9
 7273 0f0c 5E01     		.2byte	0x15e
 7274 0f0e 00       		.byte	0
 7275 0f0f 03       		.uleb128 0x3
 7276 0f10 EC040000 		.4byte	.LASF236
 7277 0f14 0B       		.byte	0xb
 7278 0f15 41       		.byte	0x41
 7279 0f16 D20E0000 		.4byte	0xed2
 7280 0f1a 03       		.uleb128 0x3
 7281 0f1b 84010000 		.4byte	.LASF237
 7282 0f1f 0B       		.byte	0xb
 7283 0f20 48       		.byte	0x48
 7284 0f21 250F0000 		.4byte	0xf25
 7285 0f25 0F       		.uleb128 0xf
 7286 0f26 04       		.byte	0x4
 7287 0f27 0F0F0000 		.4byte	0xf0f
 7288 0f2b 22       		.uleb128 0x22
 7289 0f2c B60A0000 		.4byte	.LASF238
 7290 0f30 0C       		.byte	0xc
 7291 0f31 63       		.byte	0x63
 7292 0f32 A40B0000 		.4byte	0xba4
 7293 0f36 23       		.uleb128 0x23
 7294 0f37 88160000 		.4byte	.LASF259
 7295 0f3b 01       		.byte	0x1
 7296 0f3c D807     		.2byte	0x7d8
ARM GAS  /var/folders/3j/4xdnk5197cv_b7cw3n33qk7r0000gn/T//ccLoT9Qc.s 			page 129


 7297 0f3e 53010000 		.4byte	0x153
 7298 0f42 00000000 		.4byte	.LFB27
 7299 0f46 A4030000 		.4byte	.LFE27-.LFB27
 7300 0f4a 01       		.uleb128 0x1
 7301 0f4b 9C       		.byte	0x9c
 7302 0f4c 33120000 		.4byte	0x1233
 7303 0f50 24       		.uleb128 0x24
 7304 0f51 44657600 		.ascii	"Dev\000"
 7305 0f55 01       		.byte	0x1
 7306 0f56 D807     		.2byte	0x7d8
 7307 0f58 1A0F0000 		.4byte	0xf1a
 7308 0f5c 00000000 		.4byte	.LLST207
 7309 0f60 25       		.uleb128 0x25
 7310 0f61 59000000 		.4byte	.LASF239
 7311 0f65 01       		.byte	0x1
 7312 0f66 D907     		.2byte	0x7d9
 7313 0f68 C3000000 		.4byte	0xc3
 7314 0f6c 1E000000 		.4byte	.LLST208
 7315 0f70 25       		.uleb128 0x25
 7316 0f71 FC0A0000 		.4byte	.LASF240
 7317 0f75 01       		.byte	0x1
 7318 0f76 DA07     		.2byte	0x7da
 7319 0f78 11010000 		.4byte	0x111
 7320 0f7c 3F000000 		.4byte	.LLST209
 7321 0f80 25       		.uleb128 0x25
 7322 0f81 020A0000 		.4byte	.LASF55
 7323 0f85 01       		.byte	0x1
 7324 0f86 DB07     		.2byte	0x7db
 7325 0f88 D9000000 		.4byte	0xd9
 7326 0f8c 77000000 		.4byte	.LLST210
 7327 0f90 26       		.uleb128 0x26
 7328 0f91 240E0000 		.4byte	.LASF241
 7329 0f95 01       		.byte	0x1
 7330 0f96 DC07     		.2byte	0x7dc
 7331 0f98 33120000 		.4byte	0x1233
 7332 0f9c 02       		.uleb128 0x2
 7333 0f9d 91       		.byte	0x91
 7334 0f9e 00       		.sleb128 0
 7335 0f9f 26       		.uleb128 0x26
 7336 0fa0 3D0C0000 		.4byte	.LASF242
 7337 0fa4 01       		.byte	0x1
 7338 0fa5 DD07     		.2byte	0x7dd
 7339 0fa7 3B060000 		.4byte	0x63b
 7340 0fab 02       		.uleb128 0x2
 7341 0fac 91       		.byte	0x91
 7342 0fad 04       		.sleb128 4
 7343 0fae 27       		.uleb128 0x27
 7344 0faf 12030000 		.4byte	.LASF243
 7345 0fb3 01       		.byte	0x1
 7346 0fb4 DF07     		.2byte	0x7df
 7347 0fb6 53010000 		.4byte	0x153
 7348 0fba 98000000 		.4byte	.LLST211
 7349 0fbe 28       		.uleb128 0x28
 7350 0fbf DA190000 		.4byte	.LASF244
 7351 0fc3 01       		.byte	0x1
 7352 0fc4 E007     		.2byte	0x7e0
 7353 0fc6 C3000000 		.4byte	0xc3
ARM GAS  /var/folders/3j/4xdnk5197cv_b7cw3n33qk7r0000gn/T//ccLoT9Qc.s 			page 130


 7354 0fca 01       		.uleb128 0x1
 7355 0fcb 5B       		.byte	0x5b
 7356 0fcc 27       		.uleb128 0x27
 7357 0fcd 19030000 		.4byte	.LASF245
 7358 0fd1 01       		.byte	0x1
 7359 0fd2 E107     		.2byte	0x7e1
 7360 0fd4 C3000000 		.4byte	0xc3
 7361 0fd8 93010000 		.4byte	.LLST212
 7362 0fdc 27       		.uleb128 0x27
 7363 0fdd 29130000 		.4byte	.LASF246
 7364 0fe1 01       		.byte	0x1
 7365 0fe2 E207     		.2byte	0x7e2
 7366 0fe4 C3000000 		.4byte	0xc3
 7367 0fe8 E0010000 		.4byte	.LLST213
 7368 0fec 27       		.uleb128 0x27
 7369 0fed AC020000 		.4byte	.LASF247
 7370 0ff1 01       		.byte	0x1
 7371 0ff2 E307     		.2byte	0x7e3
 7372 0ff4 C3000000 		.4byte	0xc3
 7373 0ff8 44020000 		.4byte	.LLST214
 7374 0ffc 28       		.uleb128 0x28
 7375 0ffd 33070000 		.4byte	.LASF248
 7376 1001 01       		.byte	0x1
 7377 1002 E407     		.2byte	0x7e4
 7378 1004 C3000000 		.4byte	0xc3
 7379 1008 03       		.uleb128 0x3
 7380 1009 91       		.byte	0x91
 7381 100a BE7F     		.sleb128 -66
 7382 100c 28       		.uleb128 0x28
 7383 100d C90E0000 		.4byte	.LASF249
 7384 1011 01       		.byte	0x1
 7385 1012 E507     		.2byte	0x7e5
 7386 1014 C3000000 		.4byte	0xc3
 7387 1018 03       		.uleb128 0x3
 7388 1019 91       		.byte	0x91
 7389 101a BF7F     		.sleb128 -65
 7390 101c 28       		.uleb128 0x28
 7391 101d 6B040000 		.4byte	.LASF250
 7392 1021 01       		.byte	0x1
 7393 1022 E607     		.2byte	0x7e6
 7394 1024 C3000000 		.4byte	0xc3
 7395 1028 02       		.uleb128 0x2
 7396 1029 91       		.byte	0x91
 7397 102a 40       		.sleb128 -64
 7398 102b 28       		.uleb128 0x28
 7399 102c 92170000 		.4byte	.LASF251
 7400 1030 01       		.byte	0x1
 7401 1031 E707     		.2byte	0x7e7
 7402 1033 C3000000 		.4byte	0xc3
 7403 1037 02       		.uleb128 0x2
 7404 1038 91       		.byte	0x91
 7405 1039 41       		.sleb128 -63
 7406 103a 28       		.uleb128 0x28
 7407 103b D31B0000 		.4byte	.LASF105
 7408 103f 01       		.byte	0x1
 7409 1040 E807     		.2byte	0x7e8
 7410 1042 11010000 		.4byte	0x111
ARM GAS  /var/folders/3j/4xdnk5197cv_b7cw3n33qk7r0000gn/T//ccLoT9Qc.s 			page 131


 7411 1046 02       		.uleb128 0x2
 7412 1047 91       		.byte	0x91
 7413 1048 44       		.sleb128 -60
 7414 1049 28       		.uleb128 0x28
 7415 104a 16140000 		.4byte	.LASF252
 7416 104e 01       		.byte	0x1
 7417 104f E907     		.2byte	0x7e9
 7418 1051 11010000 		.4byte	0x111
 7419 1055 02       		.uleb128 0x2
 7420 1056 91       		.byte	0x91
 7421 1057 48       		.sleb128 -56
 7422 1058 28       		.uleb128 0x28
 7423 1059 3F0D0000 		.4byte	.LASF253
 7424 105d 01       		.byte	0x1
 7425 105e EA07     		.2byte	0x7ea
 7426 1060 11010000 		.4byte	0x111
 7427 1064 02       		.uleb128 0x2
 7428 1065 91       		.byte	0x91
 7429 1066 4C       		.sleb128 -52
 7430 1067 28       		.uleb128 0x28
 7431 1068 AD1C0000 		.4byte	.LASF254
 7432 106c 01       		.byte	0x1
 7433 106d EB07     		.2byte	0x7eb
 7434 106f 11010000 		.4byte	0x111
 7435 1073 02       		.uleb128 0x2
 7436 1074 91       		.byte	0x91
 7437 1075 50       		.sleb128 -48
 7438 1076 27       		.uleb128 0x27
 7439 1077 E3190000 		.4byte	.LASF255
 7440 107b 01       		.byte	0x1
 7441 107c EC07     		.2byte	0x7ec
 7442 107e 11010000 		.4byte	0x111
 7443 1082 A9020000 		.4byte	.LLST215
 7444 1086 29       		.uleb128 0x29
 7445 1087 8C0D0000 		.4byte	.LASF277
 7446 108b 01       		.byte	0x1
 7447 108c ED07     		.2byte	0x7ed
 7448 108e C3000000 		.4byte	0xc3
 7449 1092 28       		.uleb128 0x28
 7450 1093 A51C0000 		.4byte	.LASF256
 7451 1097 01       		.byte	0x1
 7452 1098 EE07     		.2byte	0x7ee
 7453 109a D9000000 		.4byte	0xd9
 7454 109e 02       		.uleb128 0x2
 7455 109f 91       		.byte	0x91
 7456 10a0 42       		.sleb128 -62
 7457 10a1 27       		.uleb128 0x27
 7458 10a2 EF060000 		.4byte	.LASF257
 7459 10a6 01       		.byte	0x1
 7460 10a7 EF07     		.2byte	0x7ef
 7461 10a9 C3000000 		.4byte	0xc3
 7462 10ad C7020000 		.4byte	.LLST216
 7463 10b1 28       		.uleb128 0x28
 7464 10b2 2E180000 		.4byte	.LASF258
 7465 10b6 01       		.byte	0x1
 7466 10b7 F007     		.2byte	0x7f0
 7467 10b9 EF000000 		.4byte	0xef
ARM GAS  /var/folders/3j/4xdnk5197cv_b7cw3n33qk7r0000gn/T//ccLoT9Qc.s 			page 132


 7468 10bd 02       		.uleb128 0x2
 7469 10be 91       		.byte	0x91
 7470 10bf 54       		.sleb128 -44
 7471 10c0 27       		.uleb128 0x27
 7472 10c1 A6150000 		.4byte	.LASF107
 7473 10c5 01       		.byte	0x1
 7474 10c6 F107     		.2byte	0x7f1
 7475 10c8 11010000 		.4byte	0x111
 7476 10cc EF020000 		.4byte	.LLST217
 7477 10d0 2A       		.uleb128 0x2a
 7478 10d1 78000000 		.4byte	.LVL726
 7479 10d5 4E3D0000 		.4byte	0x3d4e
 7480 10d9 F0100000 		.4byte	0x10f0
 7481 10dd 2B       		.uleb128 0x2b
 7482 10de 01       		.uleb128 0x1
 7483 10df 50       		.byte	0x50
 7484 10e0 02       		.uleb128 0x2
 7485 10e1 74       		.byte	0x74
 7486 10e2 00       		.sleb128 0
 7487 10e3 2B       		.uleb128 0x2b
 7488 10e4 01       		.uleb128 0x1
 7489 10e5 51       		.byte	0x51
 7490 10e6 01       		.uleb128 0x1
 7491 10e7 30       		.byte	0x30
 7492 10e8 2B       		.uleb128 0x2b
 7493 10e9 01       		.uleb128 0x1
 7494 10ea 52       		.byte	0x52
 7495 10eb 03       		.uleb128 0x3
 7496 10ec 91       		.byte	0x91
 7497 10ed B67F     		.sleb128 -74
 7498 10ef 00       		.byte	0
 7499 10f0 2A       		.uleb128 0x2a
 7500 10f1 C8000000 		.4byte	.LVL732
 7501 10f5 4E3D0000 		.4byte	0x3d4e
 7502 10f9 10110000 		.4byte	0x1110
 7503 10fd 2B       		.uleb128 0x2b
 7504 10fe 01       		.uleb128 0x1
 7505 10ff 50       		.byte	0x50
 7506 1100 02       		.uleb128 0x2
 7507 1101 74       		.byte	0x74
 7508 1102 00       		.sleb128 0
 7509 1103 2B       		.uleb128 0x2b
 7510 1104 01       		.uleb128 0x1
 7511 1105 51       		.byte	0x51
 7512 1106 01       		.uleb128 0x1
 7513 1107 31       		.byte	0x31
 7514 1108 2B       		.uleb128 0x2b
 7515 1109 01       		.uleb128 0x1
 7516 110a 52       		.byte	0x52
 7517 110b 03       		.uleb128 0x3
 7518 110c 91       		.byte	0x91
 7519 110d B77F     		.sleb128 -73
 7520 110f 00       		.byte	0
 7521 1110 2A       		.uleb128 0x2a
 7522 1111 40010000 		.4byte	.LVL741
 7523 1115 39120000 		.4byte	0x1239
 7524 1119 38110000 		.4byte	0x1138
ARM GAS  /var/folders/3j/4xdnk5197cv_b7cw3n33qk7r0000gn/T//ccLoT9Qc.s 			page 133


 7525 111d 2B       		.uleb128 0x2b
 7526 111e 01       		.uleb128 0x1
 7527 111f 50       		.byte	0x50
 7528 1120 02       		.uleb128 0x2
 7529 1121 74       		.byte	0x74
 7530 1122 00       		.sleb128 0
 7531 1123 2B       		.uleb128 0x2b
 7532 1124 01       		.uleb128 0x1
 7533 1125 51       		.byte	0x51
 7534 1126 03       		.uleb128 0x3
 7535 1127 91       		.byte	0x91
 7536 1128 78       		.sleb128 -8
 7537 1129 06       		.byte	0x6
 7538 112a 2B       		.uleb128 0x2b
 7539 112b 01       		.uleb128 0x1
 7540 112c 52       		.byte	0x52
 7541 112d 03       		.uleb128 0x3
 7542 112e 91       		.byte	0x91
 7543 112f BC7F     		.sleb128 -68
 7544 1131 2B       		.uleb128 0x2b
 7545 1132 01       		.uleb128 0x1
 7546 1133 53       		.byte	0x53
 7547 1134 02       		.uleb128 0x2
 7548 1135 91       		.byte	0x91
 7549 1136 4C       		.sleb128 -52
 7550 1137 00       		.byte	0
 7551 1138 2A       		.uleb128 0x2a
 7552 1139 64010000 		.4byte	.LVL743
 7553 113d 5A3D0000 		.4byte	0x3d5a
 7554 1141 58110000 		.4byte	0x1158
 7555 1145 2B       		.uleb128 0x2b
 7556 1146 01       		.uleb128 0x1
 7557 1147 50       		.byte	0x50
 7558 1148 02       		.uleb128 0x2
 7559 1149 74       		.byte	0x74
 7560 114a 00       		.sleb128 0
 7561 114b 2B       		.uleb128 0x2b
 7562 114c 01       		.uleb128 0x1
 7563 114d 51       		.byte	0x51
 7564 114e 02       		.uleb128 0x2
 7565 114f 79       		.byte	0x79
 7566 1150 00       		.sleb128 0
 7567 1151 2B       		.uleb128 0x2b
 7568 1152 01       		.uleb128 0x1
 7569 1153 52       		.byte	0x52
 7570 1154 02       		.uleb128 0x2
 7571 1155 91       		.byte	0x91
 7572 1156 40       		.sleb128 -64
 7573 1157 00       		.byte	0
 7574 1158 2A       		.uleb128 0x2a
 7575 1159 9C010000 		.4byte	.LVL746
 7576 115d 4E3D0000 		.4byte	0x3d4e
 7577 1161 78110000 		.4byte	0x1178
 7578 1165 2B       		.uleb128 0x2b
 7579 1166 01       		.uleb128 0x1
 7580 1167 50       		.byte	0x50
 7581 1168 02       		.uleb128 0x2
ARM GAS  /var/folders/3j/4xdnk5197cv_b7cw3n33qk7r0000gn/T//ccLoT9Qc.s 			page 134


 7582 1169 74       		.byte	0x74
 7583 116a 00       		.sleb128 0
 7584 116b 2B       		.uleb128 0x2b
 7585 116c 01       		.uleb128 0x1
 7586 116d 51       		.byte	0x51
 7587 116e 01       		.uleb128 0x1
 7588 116f 32       		.byte	0x32
 7589 1170 2B       		.uleb128 0x2b
 7590 1171 01       		.uleb128 0x1
 7591 1172 52       		.byte	0x52
 7592 1173 03       		.uleb128 0x3
 7593 1174 91       		.byte	0x91
 7594 1175 B87F     		.sleb128 -72
 7595 1177 00       		.byte	0
 7596 1178 2A       		.uleb128 0x2a
 7597 1179 C4010000 		.4byte	.LVL749
 7598 117d 5A3D0000 		.4byte	0x3d5a
 7599 1181 97110000 		.4byte	0x1197
 7600 1185 2B       		.uleb128 0x2b
 7601 1186 01       		.uleb128 0x1
 7602 1187 50       		.byte	0x50
 7603 1188 02       		.uleb128 0x2
 7604 1189 74       		.byte	0x74
 7605 118a 00       		.sleb128 0
 7606 118b 2B       		.uleb128 0x2b
 7607 118c 01       		.uleb128 0x1
 7608 118d 51       		.byte	0x51
 7609 118e 01       		.uleb128 0x1
 7610 118f 32       		.byte	0x32
 7611 1190 2B       		.uleb128 0x2b
 7612 1191 01       		.uleb128 0x1
 7613 1192 52       		.byte	0x52
 7614 1193 02       		.uleb128 0x2
 7615 1194 91       		.byte	0x91
 7616 1195 44       		.sleb128 -60
 7617 1196 00       		.byte	0
 7618 1197 2A       		.uleb128 0x2a
 7619 1198 0C020000 		.4byte	.LVL753
 7620 119c 4E3D0000 		.4byte	0x3d4e
 7621 11a0 B7110000 		.4byte	0x11b7
 7622 11a4 2B       		.uleb128 0x2b
 7623 11a5 01       		.uleb128 0x1
 7624 11a6 50       		.byte	0x50
 7625 11a7 02       		.uleb128 0x2
 7626 11a8 74       		.byte	0x74
 7627 11a9 00       		.sleb128 0
 7628 11aa 2B       		.uleb128 0x2b
 7629 11ab 01       		.uleb128 0x1
 7630 11ac 51       		.byte	0x51
 7631 11ad 01       		.uleb128 0x1
 7632 11ae 33       		.byte	0x33
 7633 11af 2B       		.uleb128 0x2b
 7634 11b0 01       		.uleb128 0x1
 7635 11b1 52       		.byte	0x52
 7636 11b2 03       		.uleb128 0x3
 7637 11b3 91       		.byte	0x91
 7638 11b4 B97F     		.sleb128 -71
ARM GAS  /var/folders/3j/4xdnk5197cv_b7cw3n33qk7r0000gn/T//ccLoT9Qc.s 			page 135


 7639 11b6 00       		.byte	0
 7640 11b7 2A       		.uleb128 0x2a
 7641 11b8 40020000 		.4byte	.LVL756
 7642 11bc 5A3D0000 		.4byte	0x3d5a
 7643 11c0 D6110000 		.4byte	0x11d6
 7644 11c4 2B       		.uleb128 0x2b
 7645 11c5 01       		.uleb128 0x1
 7646 11c6 50       		.byte	0x50
 7647 11c7 02       		.uleb128 0x2
 7648 11c8 74       		.byte	0x74
 7649 11c9 00       		.sleb128 0
 7650 11ca 2B       		.uleb128 0x2b
 7651 11cb 01       		.uleb128 0x1
 7652 11cc 51       		.byte	0x51
 7653 11cd 01       		.uleb128 0x1
 7654 11ce 33       		.byte	0x33
 7655 11cf 2B       		.uleb128 0x2b
 7656 11d0 01       		.uleb128 0x1
 7657 11d1 52       		.byte	0x52
 7658 11d2 02       		.uleb128 0x2
 7659 11d3 91       		.byte	0x91
 7660 11d4 48       		.sleb128 -56
 7661 11d5 00       		.byte	0
 7662 11d6 2A       		.uleb128 0x2a
 7663 11d7 04030000 		.4byte	.LVL773
 7664 11db 663D0000 		.4byte	0x3d66
 7665 11df F5110000 		.4byte	0x11f5
 7666 11e3 2B       		.uleb128 0x2b
 7667 11e4 01       		.uleb128 0x1
 7668 11e5 50       		.byte	0x50
 7669 11e6 02       		.uleb128 0x2
 7670 11e7 74       		.byte	0x74
 7671 11e8 00       		.sleb128 0
 7672 11e9 2B       		.uleb128 0x2b
 7673 11ea 01       		.uleb128 0x1
 7674 11eb 51       		.byte	0x51
 7675 11ec 02       		.uleb128 0x2
 7676 11ed 09       		.byte	0x9
 7677 11ee FF       		.byte	0xff
 7678 11ef 2B       		.uleb128 0x2b
 7679 11f0 01       		.uleb128 0x1
 7680 11f1 52       		.byte	0x52
 7681 11f2 01       		.uleb128 0x1
 7682 11f3 31       		.byte	0x31
 7683 11f4 00       		.byte	0
 7684 11f5 2A       		.uleb128 0x2a
 7685 11f6 1C030000 		.4byte	.LVL775
 7686 11fa 713D0000 		.4byte	0x3d71
 7687 11fe 16120000 		.4byte	0x1216
 7688 1202 2B       		.uleb128 0x2b
 7689 1203 01       		.uleb128 0x1
 7690 1204 50       		.byte	0x50
 7691 1205 02       		.uleb128 0x2
 7692 1206 74       		.byte	0x74
 7693 1207 00       		.sleb128 0
 7694 1208 2B       		.uleb128 0x2b
 7695 1209 01       		.uleb128 0x1
ARM GAS  /var/folders/3j/4xdnk5197cv_b7cw3n33qk7r0000gn/T//ccLoT9Qc.s 			page 136


 7696 120a 51       		.byte	0x51
 7697 120b 02       		.uleb128 0x2
 7698 120c 09       		.byte	0x9
 7699 120d B6       		.byte	0xb6
 7700 120e 2B       		.uleb128 0x2b
 7701 120f 01       		.uleb128 0x1
 7702 1210 52       		.byte	0x52
 7703 1211 03       		.uleb128 0x3
 7704 1212 91       		.byte	0x91
 7705 1213 BA7F     		.sleb128 -70
 7706 1215 00       		.byte	0
 7707 1216 2C       		.uleb128 0x2c
 7708 1217 34030000 		.4byte	.LVL777
 7709 121b 663D0000 		.4byte	0x3d66
 7710 121f 2B       		.uleb128 0x2b
 7711 1220 01       		.uleb128 0x1
 7712 1221 50       		.byte	0x50
 7713 1222 02       		.uleb128 0x2
 7714 1223 74       		.byte	0x74
 7715 1224 00       		.sleb128 0
 7716 1225 2B       		.uleb128 0x2b
 7717 1226 01       		.uleb128 0x1
 7718 1227 51       		.byte	0x51
 7719 1228 02       		.uleb128 0x2
 7720 1229 09       		.byte	0x9
 7721 122a FF       		.byte	0xff
 7722 122b 2B       		.uleb128 0x2b
 7723 122c 01       		.uleb128 0x1
 7724 122d 52       		.byte	0x52
 7725 122e 02       		.uleb128 0x2
 7726 122f 79       		.byte	0x79
 7727 1230 00       		.sleb128 0
 7728 1231 00       		.byte	0
 7729 1232 00       		.byte	0
 7730 1233 0F       		.uleb128 0xf
 7731 1234 04       		.byte	0x4
 7732 1235 0F030000 		.4byte	0x30f
 7733 1239 23       		.uleb128 0x23
 7734 123a DA0F0000 		.4byte	.LASF260
 7735 123e 01       		.byte	0x1
 7736 123f 9606     		.2byte	0x696
 7737 1241 53010000 		.4byte	0x153
 7738 1245 00000000 		.4byte	.LFB26
 7739 1249 88040000 		.4byte	.LFE26-.LFB26
 7740 124d 01       		.uleb128 0x1
 7741 124e 9C       		.byte	0x9c
 7742 124f 78170000 		.4byte	0x1778
 7743 1253 24       		.uleb128 0x24
 7744 1254 44657600 		.ascii	"Dev\000"
 7745 1258 01       		.byte	0x1
 7746 1259 9606     		.2byte	0x696
 7747 125b 1A0F0000 		.4byte	0xf1a
 7748 125f 0D030000 		.4byte	.LLST172
 7749 1263 25       		.uleb128 0x25
 7750 1264 240E0000 		.4byte	.LASF241
 7751 1268 01       		.byte	0x1
 7752 1269 9706     		.2byte	0x697
ARM GAS  /var/folders/3j/4xdnk5197cv_b7cw3n33qk7r0000gn/T//ccLoT9Qc.s 			page 137


 7753 126b 33120000 		.4byte	0x1233
 7754 126f 2B030000 		.4byte	.LLST173
 7755 1273 25       		.uleb128 0x25
 7756 1274 291D0000 		.4byte	.LASF261
 7757 1278 01       		.byte	0x1
 7758 1279 9806     		.2byte	0x698
 7759 127b 78170000 		.4byte	0x1778
 7760 127f 62030000 		.4byte	.LLST174
 7761 1283 25       		.uleb128 0x25
 7762 1284 00080000 		.4byte	.LASF262
 7763 1288 01       		.byte	0x1
 7764 1289 9906     		.2byte	0x699
 7765 128b 7E170000 		.4byte	0x177e
 7766 128f 80030000 		.4byte	.LLST175
 7767 1293 2D       		.uleb128 0x2d
 7768 1294 0D070000 		.4byte	.LASF263
 7769 1298 01       		.byte	0x1
 7770 1299 9C06     		.2byte	0x69c
 7771 129b FA000000 		.4byte	0xfa
 7772 129f 2003     		.2byte	0x320
 7773 12a1 2D       		.uleb128 0x2d
 7774 12a2 60050000 		.4byte	.LASF264
 7775 12a6 01       		.byte	0x1
 7776 12a7 9E06     		.2byte	0x69e
 7777 12a9 FA000000 		.4byte	0xfa
 7778 12ad 5802     		.2byte	0x258
 7779 12af 2E       		.uleb128 0x2e
 7780 12b0 5F100000 		.4byte	.LASF265
 7781 12b4 01       		.byte	0x1
 7782 12b5 9F06     		.2byte	0x69f
 7783 12b7 1C010000 		.4byte	0x11c
 7784 12bb 00001900 		.4byte	0x190000
 7785 12bf 2D       		.uleb128 0x2d
 7786 12c0 E11B0000 		.4byte	.LASF266
 7787 12c4 01       		.byte	0x1
 7788 12c5 A006     		.2byte	0x6a0
 7789 12c7 FA000000 		.4byte	0xfa
 7790 12cb 5C12     		.2byte	0x125c
 7791 12cd 2E       		.uleb128 0x2e
 7792 12ce 070B0000 		.4byte	.LASF267
 7793 12d2 01       		.byte	0x1
 7794 12d3 A106     		.2byte	0x6a1
 7795 12d5 1C010000 		.4byte	0x11c
 7796 12d9 AE878F02 		.4byte	0x28f87ae
 7797 12dd 2D       		.uleb128 0x2d
 7798 12de 4E140000 		.4byte	.LASF268
 7799 12e2 01       		.byte	0x1
 7800 12e3 A206     		.2byte	0x6a2
 7801 12e5 1C010000 		.4byte	0x11c
 7802 12e9 00F0     		.2byte	0xf000
 7803 12eb 2E       		.uleb128 0x2e
 7804 12ec 520D0000 		.4byte	.LASF269
 7805 12f0 01       		.byte	0x1
 7806 12f1 A306     		.2byte	0x6a3
 7807 12f3 1C010000 		.4byte	0x11c
 7808 12f7 66666600 		.4byte	0x666666
 7809 12fb 2E       		.uleb128 0x2e
ARM GAS  /var/folders/3j/4xdnk5197cv_b7cw3n33qk7r0000gn/T//ccLoT9Qc.s 			page 138


 7810 12fc 9B070000 		.4byte	.LASF270
 7811 1300 01       		.byte	0x1
 7812 1301 A606     		.2byte	0x6a6
 7813 1303 1C010000 		.4byte	0x11c
 7814 1307 9A990600 		.4byte	0x6999a
 7815 130b 2D       		.uleb128 0x2d
 7816 130c 48150000 		.4byte	.LASF271
 7817 1310 01       		.byte	0x1
 7818 1311 A706     		.2byte	0x6a7
 7819 1313 FA000000 		.4byte	0xfa
 7820 1317 0080     		.2byte	0x8000
 7821 1319 2E       		.uleb128 0x2e
 7822 131a BA0E0000 		.4byte	.LASF272
 7823 131e 01       		.byte	0x1
 7824 131f A806     		.2byte	0x6a8
 7825 1321 1C010000 		.4byte	0x11c
 7826 1325 00003200 		.4byte	0x320000
 7827 1329 2D       		.uleb128 0x2d
 7828 132a A61A0000 		.4byte	.LASF273
 7829 132e 01       		.byte	0x1
 7830 132f A906     		.2byte	0x6a9
 7831 1331 FA000000 		.4byte	0xfa
 7832 1335 7706     		.2byte	0x677
 7833 1337 27       		.uleb128 0x27
 7834 1338 FC030000 		.4byte	.LASF274
 7835 133c 01       		.byte	0x1
 7836 133d AB06     		.2byte	0x6ab
 7837 133f EF000000 		.4byte	0xef
 7838 1343 A0030000 		.4byte	.LLST176
 7839 1347 27       		.uleb128 0x27
 7840 1348 A4080000 		.4byte	.LASF275
 7841 134c 01       		.byte	0x1
 7842 134d AC06     		.2byte	0x6ac
 7843 134f EF000000 		.4byte	0xef
 7844 1353 B4060000 		.4byte	.LLST177
 7845 1357 27       		.uleb128 0x27
 7846 1358 240C0000 		.4byte	.LASF276
 7847 135c 01       		.byte	0x1
 7848 135d AD06     		.2byte	0x6ad
 7849 135f EF000000 		.4byte	0xef
 7850 1363 EC060000 		.4byte	.LLST178
 7851 1367 29       		.uleb128 0x29
 7852 1368 30060000 		.4byte	.LASF278
 7853 136c 01       		.byte	0x1
 7854 136d AE06     		.2byte	0x6ae
 7855 136f EF000000 		.4byte	0xef
 7856 1373 27       		.uleb128 0x27
 7857 1374 53060000 		.4byte	.LASF279
 7858 1378 01       		.byte	0x1
 7859 1379 AF06     		.2byte	0x6af
 7860 137b 11010000 		.4byte	0x111
 7861 137f 28070000 		.4byte	.LLST179
 7862 1383 27       		.uleb128 0x27
 7863 1384 63060000 		.4byte	.LASF280
 7864 1388 01       		.byte	0x1
 7865 1389 B006     		.2byte	0x6b0
 7866 138b 11010000 		.4byte	0x111
ARM GAS  /var/folders/3j/4xdnk5197cv_b7cw3n33qk7r0000gn/T//ccLoT9Qc.s 			page 139


 7867 138f 4C070000 		.4byte	.LLST180
 7868 1393 27       		.uleb128 0x27
 7869 1394 73060000 		.4byte	.LASF281
 7870 1398 01       		.byte	0x1
 7871 1399 B106     		.2byte	0x6b1
 7872 139b 11010000 		.4byte	0x111
 7873 139f 84070000 		.4byte	.LLST181
 7874 13a3 27       		.uleb128 0x27
 7875 13a4 2F120000 		.4byte	.LASF282
 7876 13a8 01       		.byte	0x1
 7877 13a9 B206     		.2byte	0x6b2
 7878 13ab 11010000 		.4byte	0x111
 7879 13af A2070000 		.4byte	.LLST182
 7880 13b3 27       		.uleb128 0x27
 7881 13b4 111A0000 		.4byte	.LASF283
 7882 13b8 01       		.byte	0x1
 7883 13b9 B306     		.2byte	0x6b3
 7884 13bb 11010000 		.4byte	0x111
 7885 13bf 0D080000 		.4byte	.LLST183
 7886 13c3 27       		.uleb128 0x27
 7887 13c4 84180000 		.4byte	.LASF284
 7888 13c8 01       		.byte	0x1
 7889 13c9 B406     		.2byte	0x6b4
 7890 13cb 11010000 		.4byte	0x111
 7891 13cf 20080000 		.4byte	.LLST184
 7892 13d3 29       		.uleb128 0x29
 7893 13d4 F0150000 		.4byte	.LASF285
 7894 13d8 01       		.byte	0x1
 7895 13d9 B506     		.2byte	0x6b5
 7896 13db 11010000 		.4byte	0x111
 7897 13df 27       		.uleb128 0x27
 7898 13e0 30020000 		.4byte	.LASF286
 7899 13e4 01       		.byte	0x1
 7900 13e5 B606     		.2byte	0x6b6
 7901 13e7 11010000 		.4byte	0x111
 7902 13eb 9D080000 		.4byte	.LLST185
 7903 13ef 27       		.uleb128 0x27
 7904 13f0 84140000 		.4byte	.LASF287
 7905 13f4 01       		.byte	0x1
 7906 13f5 B706     		.2byte	0x6b7
 7907 13f7 11010000 		.4byte	0x111
 7908 13fb CE080000 		.4byte	.LLST186
 7909 13ff 27       		.uleb128 0x27
 7910 1400 780D0000 		.4byte	.LASF288
 7911 1404 01       		.byte	0x1
 7912 1405 B806     		.2byte	0x6b8
 7913 1407 11010000 		.4byte	0x111
 7914 140b FC080000 		.4byte	.LLST187
 7915 140f 28       		.uleb128 0x28
 7916 1410 10040000 		.4byte	.LASF289
 7917 1414 01       		.byte	0x1
 7918 1415 B906     		.2byte	0x6b9
 7919 1417 11010000 		.4byte	0x111
 7920 141b 02       		.uleb128 0x2
 7921 141c 91       		.byte	0x91
 7922 141d 50       		.sleb128 -48
 7923 141e 27       		.uleb128 0x27
ARM GAS  /var/folders/3j/4xdnk5197cv_b7cw3n33qk7r0000gn/T//ccLoT9Qc.s 			page 140


 7924 141f B01B0000 		.4byte	.LASF290
 7925 1423 01       		.byte	0x1
 7926 1424 BA06     		.2byte	0x6ba
 7927 1426 EF000000 		.4byte	0xef
 7928 142a 82090000 		.4byte	.LLST188
 7929 142e 27       		.uleb128 0x27
 7930 142f 12030000 		.4byte	.LASF243
 7931 1433 01       		.byte	0x1
 7932 1434 BB06     		.2byte	0x6bb
 7933 1436 53010000 		.4byte	0x153
 7934 143a D6090000 		.4byte	.LLST189
 7935 143e 29       		.uleb128 0x29
 7936 143f 0B140000 		.4byte	.LASF291
 7937 1443 01       		.byte	0x1
 7938 1444 BC06     		.2byte	0x6bc
 7939 1446 11010000 		.4byte	0x111
 7940 144a 27       		.uleb128 0x27
 7941 144b 15170000 		.4byte	.LASF292
 7942 144f 01       		.byte	0x1
 7943 1450 BD06     		.2byte	0x6bd
 7944 1452 11010000 		.4byte	0x111
 7945 1456 F5090000 		.4byte	.LLST190
 7946 145a 27       		.uleb128 0x27
 7947 145b 94050000 		.4byte	.LASF293
 7948 145f 01       		.byte	0x1
 7949 1460 BE06     		.2byte	0x6be
 7950 1462 11010000 		.4byte	0x111
 7951 1466 950A0000 		.4byte	.LLST191
 7952 146a 27       		.uleb128 0x27
 7953 146b 99050000 		.4byte	.LASF294
 7954 146f 01       		.byte	0x1
 7955 1470 BF06     		.2byte	0x6bf
 7956 1472 11010000 		.4byte	0x111
 7957 1476 E00A0000 		.4byte	.LLST192
 7958 147a 27       		.uleb128 0x27
 7959 147b 58100000 		.4byte	.LASF295
 7960 147f 01       		.byte	0x1
 7961 1480 C006     		.2byte	0x6c0
 7962 1482 11010000 		.4byte	0x111
 7963 1486 250B0000 		.4byte	.LLST193
 7964 148a 27       		.uleb128 0x27
 7965 148b 16090000 		.4byte	.LASF296
 7966 148f 01       		.byte	0x1
 7967 1490 C106     		.2byte	0x6c1
 7968 1492 11010000 		.4byte	0x111
 7969 1496 380B0000 		.4byte	.LLST194
 7970 149a 29       		.uleb128 0x29
 7971 149b DA0B0000 		.4byte	.LASF297
 7972 149f 01       		.byte	0x1
 7973 14a0 C206     		.2byte	0x6c2
 7974 14a2 11010000 		.4byte	0x111
 7975 14a6 27       		.uleb128 0x27
 7976 14a7 FB0D0000 		.4byte	.LASF298
 7977 14ab 01       		.byte	0x1
 7978 14ac C306     		.2byte	0x6c3
 7979 14ae 11010000 		.4byte	0x111
 7980 14b2 670B0000 		.4byte	.LLST195
ARM GAS  /var/folders/3j/4xdnk5197cv_b7cw3n33qk7r0000gn/T//ccLoT9Qc.s 			page 141


 7981 14b6 28       		.uleb128 0x28
 7982 14b7 10130000 		.4byte	.LASF299
 7983 14bb 01       		.byte	0x1
 7984 14bc C406     		.2byte	0x6c4
 7985 14be 11010000 		.4byte	0x111
 7986 14c2 01       		.uleb128 0x1
 7987 14c3 57       		.byte	0x57
 7988 14c4 29       		.uleb128 0x29
 7989 14c5 A4180000 		.4byte	.LASF300
 7990 14c9 01       		.byte	0x1
 7991 14ca C506     		.2byte	0x6c5
 7992 14cc 11010000 		.4byte	0x111
 7993 14d0 27       		.uleb128 0x27
 7994 14d1 34150000 		.4byte	.LASF301
 7995 14d5 01       		.byte	0x1
 7996 14d6 C606     		.2byte	0x6c6
 7997 14d8 EF000000 		.4byte	0xef
 7998 14dc E00B0000 		.4byte	.LLST196
 7999 14e0 29       		.uleb128 0x29
 8000 14e1 610B0000 		.4byte	.LASF302
 8001 14e5 01       		.byte	0x1
 8002 14e6 C706     		.2byte	0x6c7
 8003 14e8 EF000000 		.4byte	0xef
 8004 14ec 29       		.uleb128 0x29
 8005 14ed 70110000 		.4byte	.LASF303
 8006 14f1 01       		.byte	0x1
 8007 14f2 C806     		.2byte	0x6c8
 8008 14f4 EF000000 		.4byte	0xef
 8009 14f8 27       		.uleb128 0x27
 8010 14f9 B7170000 		.4byte	.LASF304
 8011 14fd 01       		.byte	0x1
 8012 14fe C906     		.2byte	0x6c9
 8013 1500 EF000000 		.4byte	0xef
 8014 1504 190C0000 		.4byte	.LLST197
 8015 1508 27       		.uleb128 0x27
 8016 1509 09050000 		.4byte	.LASF305
 8017 150d 01       		.byte	0x1
 8018 150e CA06     		.2byte	0x6ca
 8019 1510 C3000000 		.4byte	0xc3
 8020 1514 010F0000 		.4byte	.LLST198
 8021 1518 27       		.uleb128 0x27
 8022 1519 FF020000 		.4byte	.LASF306
 8023 151d 01       		.byte	0x1
 8024 151e CB06     		.2byte	0x6cb
 8025 1520 C3000000 		.4byte	0xc3
 8026 1524 2C0F0000 		.4byte	.LLST199
 8027 1528 2F       		.uleb128 0x2f
 8028 1529 B3190000 		.4byte	0x19b3
 8029 152d 10000000 		.4byte	.LBB220
 8030 1531 D8010000 		.4byte	.Ldebug_ranges0+0x1d8
 8031 1535 01       		.byte	0x1
 8032 1536 E306     		.2byte	0x6e3
 8033 1538 84150000 		.4byte	0x1584
 8034 153c 30       		.uleb128 0x30
 8035 153d DC190000 		.4byte	0x19dc
 8036 1541 4E0F0000 		.4byte	.LLST200
 8037 1545 30       		.uleb128 0x30
ARM GAS  /var/folders/3j/4xdnk5197cv_b7cw3n33qk7r0000gn/T//ccLoT9Qc.s 			page 142


 8038 1546 D0190000 		.4byte	0x19d0
 8039 154a 660F0000 		.4byte	.LLST201
 8040 154e 30       		.uleb128 0x30
 8041 154f C4190000 		.4byte	0x19c4
 8042 1553 840F0000 		.4byte	.LLST202
 8043 1557 31       		.uleb128 0x31
 8044 1558 D8010000 		.4byte	.Ldebug_ranges0+0x1d8
 8045 155c 32       		.uleb128 0x32
 8046 155d 1E3D0000 		.4byte	0x3d1e
 8047 1561 32       		.uleb128 0x32
 8048 1562 273D0000 		.4byte	0x3d27
 8049 1566 2C       		.uleb128 0x2c
 8050 1567 30000000 		.4byte	.LVL627
 8051 156b 011A0000 		.4byte	0x1a01
 8052 156f 2B       		.uleb128 0x2b
 8053 1570 01       		.uleb128 0x1
 8054 1571 50       		.byte	0x50
 8055 1572 02       		.uleb128 0x2
 8056 1573 74       		.byte	0x74
 8057 1574 00       		.sleb128 0
 8058 1575 2B       		.uleb128 0x2b
 8059 1576 01       		.uleb128 0x1
 8060 1577 51       		.byte	0x51
 8061 1578 02       		.uleb128 0x2
 8062 1579 75       		.byte	0x75
 8063 157a 00       		.sleb128 0
 8064 157b 2B       		.uleb128 0x2b
 8065 157c 01       		.uleb128 0x1
 8066 157d 52       		.byte	0x52
 8067 157e 02       		.uleb128 0x2
 8068 157f 91       		.byte	0x91
 8069 1580 4C       		.sleb128 -52
 8070 1581 00       		.byte	0
 8071 1582 00       		.byte	0
 8072 1583 00       		.byte	0
 8073 1584 2F       		.uleb128 0x2f
 8074 1585 89290000 		.4byte	0x2989
 8075 1589 88000000 		.4byte	.LBB226
 8076 158d F8010000 		.4byte	.Ldebug_ranges0+0x1f8
 8077 1591 01       		.byte	0x1
 8078 1592 0707     		.2byte	0x707
 8079 1594 ED150000 		.4byte	0x15ed
 8080 1598 33       		.uleb128 0x33
 8081 1599 B2290000 		.4byte	0x29b2
 8082 159d 33       		.uleb128 0x33
 8083 159e A6290000 		.4byte	0x29a6
 8084 15a2 33       		.uleb128 0x33
 8085 15a3 9A290000 		.4byte	0x299a
 8086 15a7 31       		.uleb128 0x31
 8087 15a8 F8010000 		.4byte	.Ldebug_ranges0+0x1f8
 8088 15ac 32       		.uleb128 0x32
 8089 15ad 4C3A0000 		.4byte	0x3a4c
 8090 15b1 32       		.uleb128 0x32
 8091 15b2 513A0000 		.4byte	0x3a51
 8092 15b6 32       		.uleb128 0x32
 8093 15b7 5A3A0000 		.4byte	0x3a5a
 8094 15bb 34       		.uleb128 0x34
ARM GAS  /var/folders/3j/4xdnk5197cv_b7cw3n33qk7r0000gn/T//ccLoT9Qc.s 			page 143


 8095 15bc 4F2A0000 		.4byte	0x2a4f
 8096 15c0 88000000 		.4byte	.LBB228
 8097 15c4 28020000 		.4byte	.Ldebug_ranges0+0x228
 8098 15c8 01       		.byte	0x1
 8099 15c9 2502     		.2byte	0x225
 8100 15cb 33       		.uleb128 0x33
 8101 15cc 6C2A0000 		.4byte	0x2a6c
 8102 15d0 33       		.uleb128 0x33
 8103 15d1 602A0000 		.4byte	0x2a60
 8104 15d5 31       		.uleb128 0x31
 8105 15d6 28020000 		.4byte	.Ldebug_ranges0+0x228
 8106 15da 32       		.uleb128 0x32
 8107 15db A0390000 		.4byte	0x39a0
 8108 15df 32       		.uleb128 0x32
 8109 15e0 A7390000 		.4byte	0x39a7
 8110 15e4 32       		.uleb128 0x32
 8111 15e5 AE390000 		.4byte	0x39ae
 8112 15e9 00       		.byte	0
 8113 15ea 00       		.byte	0
 8114 15eb 00       		.byte	0
 8115 15ec 00       		.byte	0
 8116 15ed 2F       		.uleb128 0x2f
 8117 15ee 89290000 		.4byte	0x2989
 8118 15f2 B0000000 		.4byte	.LBB236
 8119 15f6 40020000 		.4byte	.Ldebug_ranges0+0x240
 8120 15fa 01       		.byte	0x1
 8121 15fb FD06     		.2byte	0x6fd
 8122 15fd 56160000 		.4byte	0x1656
 8123 1601 33       		.uleb128 0x33
 8124 1602 B2290000 		.4byte	0x29b2
 8125 1606 33       		.uleb128 0x33
 8126 1607 A6290000 		.4byte	0x29a6
 8127 160b 33       		.uleb128 0x33
 8128 160c 9A290000 		.4byte	0x299a
 8129 1610 31       		.uleb128 0x31
 8130 1611 40020000 		.4byte	.Ldebug_ranges0+0x240
 8131 1615 32       		.uleb128 0x32
 8132 1616 4C3A0000 		.4byte	0x3a4c
 8133 161a 32       		.uleb128 0x32
 8134 161b 513A0000 		.4byte	0x3a51
 8135 161f 32       		.uleb128 0x32
 8136 1620 5A3A0000 		.4byte	0x3a5a
 8137 1624 34       		.uleb128 0x34
 8138 1625 4F2A0000 		.4byte	0x2a4f
 8139 1629 B0000000 		.4byte	.LBB238
 8140 162d 70020000 		.4byte	.Ldebug_ranges0+0x270
 8141 1631 01       		.byte	0x1
 8142 1632 2502     		.2byte	0x225
 8143 1634 33       		.uleb128 0x33
 8144 1635 6C2A0000 		.4byte	0x2a6c
 8145 1639 33       		.uleb128 0x33
 8146 163a 602A0000 		.4byte	0x2a60
 8147 163e 31       		.uleb128 0x31
 8148 163f 70020000 		.4byte	.Ldebug_ranges0+0x270
 8149 1643 32       		.uleb128 0x32
 8150 1644 A0390000 		.4byte	0x39a0
 8151 1648 32       		.uleb128 0x32
ARM GAS  /var/folders/3j/4xdnk5197cv_b7cw3n33qk7r0000gn/T//ccLoT9Qc.s 			page 144


 8152 1649 A7390000 		.4byte	0x39a7
 8153 164d 32       		.uleb128 0x32
 8154 164e AE390000 		.4byte	0x39ae
 8155 1652 00       		.byte	0
 8156 1653 00       		.byte	0
 8157 1654 00       		.byte	0
 8158 1655 00       		.byte	0
 8159 1656 2F       		.uleb128 0x2f
 8160 1657 58340000 		.4byte	0x3458
 8161 165b 98010000 		.4byte	.LBB258
 8162 165f 98020000 		.4byte	.Ldebug_ranges0+0x298
 8163 1663 01       		.byte	0x1
 8164 1664 3B07     		.2byte	0x73b
 8165 1666 84160000 		.4byte	0x1684
 8166 166a 30       		.uleb128 0x30
 8167 166b 68340000 		.4byte	0x3468
 8168 166f A20F0000 		.4byte	.LLST203
 8169 1673 31       		.uleb128 0x31
 8170 1674 98020000 		.4byte	.Ldebug_ranges0+0x298
 8171 1678 32       		.uleb128 0x32
 8172 1679 68390000 		.4byte	0x3968
 8173 167d 32       		.uleb128 0x32
 8174 167e 71390000 		.4byte	0x3971
 8175 1682 00       		.byte	0
 8176 1683 00       		.byte	0
 8177 1684 2F       		.uleb128 0x2f
 8178 1685 58340000 		.4byte	0x3458
 8179 1689 A4020000 		.4byte	.LBB262
 8180 168d B0020000 		.4byte	.Ldebug_ranges0+0x2b0
 8181 1691 01       		.byte	0x1
 8182 1692 8D07     		.2byte	0x78d
 8183 1694 B2160000 		.4byte	0x16b2
 8184 1698 30       		.uleb128 0x30
 8185 1699 68340000 		.4byte	0x3468
 8186 169d B50F0000 		.4byte	.LLST204
 8187 16a1 31       		.uleb128 0x31
 8188 16a2 B0020000 		.4byte	.Ldebug_ranges0+0x2b0
 8189 16a6 32       		.uleb128 0x32
 8190 16a7 68390000 		.4byte	0x3968
 8191 16ab 32       		.uleb128 0x32
 8192 16ac 71390000 		.4byte	0x3971
 8193 16b0 00       		.byte	0
 8194 16b1 00       		.byte	0
 8195 16b2 35       		.uleb128 0x35
 8196 16b3 58340000 		.4byte	0x3458
 8197 16b7 50030000 		.4byte	.LBB266
 8198 16bb 50000000 		.4byte	.LBE266-.LBB266
 8199 16bf 01       		.byte	0x1
 8200 16c0 AA07     		.2byte	0x7aa
 8201 16c2 E4160000 		.4byte	0x16e4
 8202 16c6 30       		.uleb128 0x30
 8203 16c7 68340000 		.4byte	0x3468
 8204 16cb C80F0000 		.4byte	.LLST205
 8205 16cf 36       		.uleb128 0x36
 8206 16d0 50030000 		.4byte	.LBB267
 8207 16d4 50000000 		.4byte	.LBE267-.LBB267
 8208 16d8 32       		.uleb128 0x32
ARM GAS  /var/folders/3j/4xdnk5197cv_b7cw3n33qk7r0000gn/T//ccLoT9Qc.s 			page 145


 8209 16d9 68390000 		.4byte	0x3968
 8210 16dd 32       		.uleb128 0x32
 8211 16de 71390000 		.4byte	0x3971
 8212 16e2 00       		.byte	0
 8213 16e3 00       		.byte	0
 8214 16e4 35       		.uleb128 0x35
 8215 16e5 58340000 		.4byte	0x3458
 8216 16e9 A4030000 		.4byte	.LBB268
 8217 16ed 54000000 		.4byte	.LBE268-.LBB268
 8218 16f1 01       		.byte	0x1
 8219 16f2 B907     		.2byte	0x7b9
 8220 16f4 16170000 		.4byte	0x1716
 8221 16f8 30       		.uleb128 0x30
 8222 16f9 68340000 		.4byte	0x3468
 8223 16fd DB0F0000 		.4byte	.LLST206
 8224 1701 36       		.uleb128 0x36
 8225 1702 A4030000 		.4byte	.LBB269
 8226 1706 54000000 		.4byte	.LBE269-.LBB269
 8227 170a 32       		.uleb128 0x32
 8228 170b 68390000 		.4byte	0x3968
 8229 170f 32       		.uleb128 0x32
 8230 1710 71390000 		.4byte	0x3971
 8231 1714 00       		.byte	0
 8232 1715 00       		.byte	0
 8233 1716 2A       		.uleb128 0x2a
 8234 1717 50000000 		.4byte	.LVL631
 8235 171b 011A0000 		.4byte	0x1a01
 8236 171f 36170000 		.4byte	0x1736
 8237 1723 2B       		.uleb128 0x2b
 8238 1724 01       		.uleb128 0x1
 8239 1725 50       		.byte	0x50
 8240 1726 02       		.uleb128 0x2
 8241 1727 74       		.byte	0x74
 8242 1728 00       		.sleb128 0
 8243 1729 2B       		.uleb128 0x2b
 8244 172a 01       		.uleb128 0x1
 8245 172b 51       		.byte	0x51
 8246 172c 02       		.uleb128 0x2
 8247 172d 75       		.byte	0x75
 8248 172e 00       		.sleb128 0
 8249 172f 2B       		.uleb128 0x2b
 8250 1730 01       		.uleb128 0x1
 8251 1731 52       		.byte	0x52
 8252 1732 02       		.uleb128 0x2
 8253 1733 91       		.byte	0x91
 8254 1734 48       		.sleb128 -56
 8255 1735 00       		.byte	0
 8256 1736 2C       		.uleb128 0x2c
 8257 1737 38040000 		.4byte	.LVL713
 8258 173b 84170000 		.4byte	0x1784
 8259 173f 2B       		.uleb128 0x2b
 8260 1740 01       		.uleb128 0x1
 8261 1741 50       		.byte	0x50
 8262 1742 02       		.uleb128 0x2
 8263 1743 74       		.byte	0x74
 8264 1744 00       		.sleb128 0
 8265 1745 2B       		.uleb128 0x2b
ARM GAS  /var/folders/3j/4xdnk5197cv_b7cw3n33qk7r0000gn/T//ccLoT9Qc.s 			page 146


 8266 1746 01       		.uleb128 0x1
 8267 1747 51       		.byte	0x51
 8268 1748 08       		.uleb128 0x8
 8269 1749 91       		.byte	0x91
 8270 174a B07F     		.sleb128 -80
 8271 174c 06       		.byte	0x6
 8272 174d 0B       		.byte	0xb
 8273 174e 00FF     		.2byte	0xff00
 8274 1750 1A       		.byte	0x1a
 8275 1751 2B       		.uleb128 0x2b
 8276 1752 01       		.uleb128 0x1
 8277 1753 52       		.byte	0x52
 8278 1754 02       		.uleb128 0x2
 8279 1755 77       		.byte	0x77
 8280 1756 00       		.sleb128 0
 8281 1757 2B       		.uleb128 0x2b
 8282 1758 01       		.uleb128 0x1
 8283 1759 53       		.byte	0x53
 8284 175a 02       		.uleb128 0x2
 8285 175b 7A       		.byte	0x7a
 8286 175c 00       		.sleb128 0
 8287 175d 2B       		.uleb128 0x2b
 8288 175e 02       		.uleb128 0x2
 8289 175f 7D       		.byte	0x7d
 8290 1760 00       		.sleb128 0
 8291 1761 03       		.uleb128 0x3
 8292 1762 0A       		.byte	0xa
 8293 1763 2003     		.2byte	0x320
 8294 1765 2B       		.uleb128 0x2b
 8295 1766 02       		.uleb128 0x2
 8296 1767 7D       		.byte	0x7d
 8297 1768 04       		.sleb128 4
 8298 1769 04       		.uleb128 0x4
 8299 176a 91       		.byte	0x91
 8300 176b B87F     		.sleb128 -72
 8301 176d 06       		.byte	0x6
 8302 176e 2B       		.uleb128 0x2b
 8303 176f 02       		.uleb128 0x2
 8304 1770 7D       		.byte	0x7d
 8305 1771 08       		.sleb128 8
 8306 1772 03       		.uleb128 0x3
 8307 1773 91       		.byte	0x91
 8308 1774 40       		.sleb128 -64
 8309 1775 06       		.byte	0x6
 8310 1776 00       		.byte	0
 8311 1777 00       		.byte	0
 8312 1778 0F       		.uleb128 0xf
 8313 1779 04       		.byte	0x4
 8314 177a 11010000 		.4byte	0x111
 8315 177e 0F       		.uleb128 0xf
 8316 177f 04       		.byte	0x4
 8317 1780 EF000000 		.4byte	0xef
 8318 1784 23       		.uleb128 0x23
 8319 1785 AA120000 		.4byte	.LASF307
 8320 1789 01       		.byte	0x1
 8321 178a D605     		.2byte	0x5d6
 8322 178c 53010000 		.4byte	0x153
ARM GAS  /var/folders/3j/4xdnk5197cv_b7cw3n33qk7r0000gn/T//ccLoT9Qc.s 			page 147


 8323 1790 00000000 		.4byte	.LFB25
 8324 1794 C8010000 		.4byte	.LFE25-.LFB25
 8325 1798 01       		.uleb128 0x1
 8326 1799 9C       		.byte	0x9c
 8327 179a B3190000 		.4byte	0x19b3
 8328 179e 24       		.uleb128 0x24
 8329 179f 44657600 		.ascii	"Dev\000"
 8330 17a3 01       		.byte	0x1
 8331 17a4 D705     		.2byte	0x5d7
 8332 17a6 1A0F0000 		.4byte	0xf1a
 8333 17aa EE0F0000 		.4byte	.LLST155
 8334 17ae 25       		.uleb128 0x25
 8335 17af FB0D0000 		.4byte	.LASF298
 8336 17b3 01       		.byte	0x1
 8337 17b4 D805     		.2byte	0x5d8
 8338 17b6 11010000 		.4byte	0x111
 8339 17ba 0F100000 		.4byte	.LLST156
 8340 17be 25       		.uleb128 0x25
 8341 17bf E81D0000 		.4byte	.LASF308
 8342 17c3 01       		.byte	0x1
 8343 17c4 D905     		.2byte	0x5d9
 8344 17c6 11010000 		.4byte	0x111
 8345 17ca 30100000 		.4byte	.LLST157
 8346 17ce 25       		.uleb128 0x25
 8347 17cf 111A0000 		.4byte	.LASF283
 8348 17d3 01       		.byte	0x1
 8349 17d4 DA05     		.2byte	0x5da
 8350 17d6 11010000 		.4byte	0x111
 8351 17da 5C100000 		.4byte	.LLST158
 8352 17de 26       		.uleb128 0x26
 8353 17df 53060000 		.4byte	.LASF279
 8354 17e3 01       		.byte	0x1
 8355 17e4 DB05     		.2byte	0x5db
 8356 17e6 EF000000 		.4byte	0xef
 8357 17ea 02       		.uleb128 0x2
 8358 17eb 91       		.byte	0x91
 8359 17ec 00       		.sleb128 0
 8360 17ed 25       		.uleb128 0x25
 8361 17ee 63060000 		.4byte	.LASF280
 8362 17f2 01       		.byte	0x1
 8363 17f3 DC05     		.2byte	0x5dc
 8364 17f5 11010000 		.4byte	0x111
 8365 17f9 7A100000 		.4byte	.LLST159
 8366 17fd 26       		.uleb128 0x26
 8367 17fe B7170000 		.4byte	.LASF304
 8368 1802 01       		.byte	0x1
 8369 1803 DD05     		.2byte	0x5dd
 8370 1805 EF000000 		.4byte	0xef
 8371 1809 02       		.uleb128 0x2
 8372 180a 91       		.byte	0x91
 8373 180b 08       		.sleb128 8
 8374 180c 26       		.uleb128 0x26
 8375 180d E3080000 		.4byte	.LASF309
 8376 1811 01       		.byte	0x1
 8377 1812 DE05     		.2byte	0x5de
 8378 1814 7E170000 		.4byte	0x177e
 8379 1818 02       		.uleb128 0x2
ARM GAS  /var/folders/3j/4xdnk5197cv_b7cw3n33qk7r0000gn/T//ccLoT9Qc.s 			page 148


 8380 1819 91       		.byte	0x91
 8381 181a 0C       		.sleb128 12
 8382 181b 37       		.uleb128 0x37
 8383 181c 4A170000 		.4byte	.LASF310
 8384 1820 01       		.byte	0x1
 8385 1821 E005     		.2byte	0x5e0
 8386 1823 FA000000 		.4byte	0xfa
 8387 1827 12       		.byte	0x12
 8388 1828 2D       		.uleb128 0x2d
 8389 1829 C8150000 		.4byte	.LASF311
 8390 182d 01       		.byte	0x1
 8391 182e E105     		.2byte	0x5e1
 8392 1830 1C010000 		.4byte	0x11c
 8393 1834 0040     		.2byte	0x4000
 8394 1836 37       		.uleb128 0x37
 8395 1837 2F110000 		.4byte	.LASF312
 8396 183b 01       		.byte	0x1
 8397 183c E205     		.2byte	0x5e2
 8398 183e 1C010000 		.4byte	0x11c
 8399 1842 42       		.byte	0x42
 8400 1843 37       		.uleb128 0x37
 8401 1844 61160000 		.4byte	.LASF313
 8402 1848 01       		.byte	0x1
 8403 1849 E305     		.2byte	0x5e3
 8404 184b FA000000 		.4byte	0xfa
 8405 184f 06       		.byte	0x6
 8406 1850 37       		.uleb128 0x37
 8407 1851 67090000 		.4byte	.LASF314
 8408 1855 01       		.byte	0x1
 8409 1856 E405     		.2byte	0x5e4
 8410 1858 FA000000 		.4byte	0xfa
 8411 185c 07       		.byte	0x7
 8412 185d 27       		.uleb128 0x27
 8413 185e 74140000 		.4byte	.LASF315
 8414 1862 01       		.byte	0x1
 8415 1863 E505     		.2byte	0x5e5
 8416 1865 EF000000 		.4byte	0xef
 8417 1869 8E100000 		.4byte	.LLST160
 8418 186d 27       		.uleb128 0x27
 8419 186e 4C180000 		.4byte	.LASF316
 8420 1872 01       		.byte	0x1
 8421 1873 E605     		.2byte	0x5e6
 8422 1875 11010000 		.4byte	0x111
 8423 1879 A1100000 		.4byte	.LLST161
 8424 187d 27       		.uleb128 0x27
 8425 187e B10D0000 		.4byte	.LASF317
 8426 1882 01       		.byte	0x1
 8427 1883 E705     		.2byte	0x5e7
 8428 1885 11010000 		.4byte	0x111
 8429 1889 D1100000 		.4byte	.LLST162
 8430 188d 27       		.uleb128 0x27
 8431 188e E01C0000 		.4byte	.LASF318
 8432 1892 01       		.byte	0x1
 8433 1893 E805     		.2byte	0x5e8
 8434 1895 11010000 		.4byte	0x111
 8435 1899 64110000 		.4byte	.LLST163
 8436 189d 27       		.uleb128 0x27
ARM GAS  /var/folders/3j/4xdnk5197cv_b7cw3n33qk7r0000gn/T//ccLoT9Qc.s 			page 149


 8437 189e FA060000 		.4byte	.LASF319
 8438 18a2 01       		.byte	0x1
 8439 18a3 E905     		.2byte	0x5e9
 8440 18a5 11010000 		.4byte	0x111
 8441 18a9 DB110000 		.4byte	.LLST164
 8442 18ad 27       		.uleb128 0x27
 8443 18ae FB1C0000 		.4byte	.LASF320
 8444 18b2 01       		.byte	0x1
 8445 18b3 EA05     		.2byte	0x5ea
 8446 18b5 11010000 		.4byte	0x111
 8447 18b9 5E120000 		.4byte	.LLST165
 8448 18bd 37       		.uleb128 0x37
 8449 18be 0E1D0000 		.4byte	.LASF321
 8450 18c2 01       		.byte	0x1
 8451 18c3 EB05     		.2byte	0x5eb
 8452 18c5 11010000 		.4byte	0x111
 8453 18c9 FE       		.byte	0xfe
 8454 18ca 2E       		.uleb128 0x2e
 8455 18cb 6F1A0000 		.4byte	.LASF322
 8456 18cf 01       		.byte	0x1
 8457 18d0 EC05     		.2byte	0x5ec
 8458 18d2 11010000 		.4byte	0x111
 8459 18d6 E1520100 		.4byte	0x152e1
 8460 18da 2D       		.uleb128 0x2d
 8461 18db AD030000 		.4byte	.LASF323
 8462 18df 01       		.byte	0x1
 8463 18e0 ED05     		.2byte	0x5ed
 8464 18e2 11010000 		.4byte	0x111
 8465 18e6 1001     		.2byte	0x110
 8466 18e8 37       		.uleb128 0x37
 8467 18e9 FA040000 		.4byte	.LASF324
 8468 18ed 01       		.byte	0x1
 8469 18ee EE05     		.2byte	0x5ee
 8470 18f0 11010000 		.4byte	0x111
 8471 18f4 40       		.byte	0x40
 8472 18f5 27       		.uleb128 0x27
 8473 18f6 9A1A0000 		.4byte	.LASF325
 8474 18fa 01       		.byte	0x1
 8475 18fb EF05     		.2byte	0x5ef
 8476 18fd 11010000 		.4byte	0x111
 8477 1901 71120000 		.4byte	.LLST166
 8478 1905 29       		.uleb128 0x29
 8479 1906 1F000000 		.4byte	.LASF326
 8480 190a 01       		.byte	0x1
 8481 190b F005     		.2byte	0x5f0
 8482 190d 11010000 		.4byte	0x111
 8483 1911 27       		.uleb128 0x27
 8484 1912 0C020000 		.4byte	.LASF327
 8485 1916 01       		.byte	0x1
 8486 1917 F105     		.2byte	0x5f1
 8487 1919 11010000 		.4byte	0x111
 8488 191d BF120000 		.4byte	.LLST167
 8489 1921 27       		.uleb128 0x27
 8490 1922 5E140000 		.4byte	.LASF328
 8491 1926 01       		.byte	0x1
 8492 1927 F205     		.2byte	0x5f2
 8493 1929 11010000 		.4byte	0x111
ARM GAS  /var/folders/3j/4xdnk5197cv_b7cw3n33qk7r0000gn/T//ccLoT9Qc.s 			page 150


 8494 192d DD120000 		.4byte	.LLST168
 8495 1931 29       		.uleb128 0x29
 8496 1932 36180000 		.4byte	.LASF329
 8497 1936 01       		.byte	0x1
 8498 1937 F305     		.2byte	0x5f3
 8499 1939 11010000 		.4byte	0x111
 8500 193d 27       		.uleb128 0x27
 8501 193e B41A0000 		.4byte	.LASF330
 8502 1942 01       		.byte	0x1
 8503 1943 F405     		.2byte	0x5f4
 8504 1945 EF000000 		.4byte	0xef
 8505 1949 FF120000 		.4byte	.LLST169
 8506 194d 37       		.uleb128 0x37
 8507 194e 12030000 		.4byte	.LASF243
 8508 1952 01       		.byte	0x1
 8509 1953 F605     		.2byte	0x5f6
 8510 1955 53010000 		.4byte	0x153
 8511 1959 00       		.byte	0
 8512 195a 2F       		.uleb128 0x2f
 8513 195b 58340000 		.4byte	0x3458
 8514 195f B8000000 		.4byte	.LBB206
 8515 1963 90010000 		.4byte	.Ldebug_ranges0+0x190
 8516 1967 01       		.byte	0x1
 8517 1968 8106     		.2byte	0x681
 8518 196a 88190000 		.4byte	0x1988
 8519 196e 30       		.uleb128 0x30
 8520 196f 68340000 		.4byte	0x3468
 8521 1973 31130000 		.4byte	.LLST170
 8522 1977 31       		.uleb128 0x31
 8523 1978 90010000 		.4byte	.Ldebug_ranges0+0x190
 8524 197c 32       		.uleb128 0x32
 8525 197d 68390000 		.4byte	0x3968
 8526 1981 32       		.uleb128 0x32
 8527 1982 71390000 		.4byte	0x3971
 8528 1986 00       		.byte	0
 8529 1987 00       		.byte	0
 8530 1988 34       		.uleb128 0x34
 8531 1989 58340000 		.4byte	0x3458
 8532 198d 50010000 		.4byte	.LBB211
 8533 1991 B0010000 		.4byte	.Ldebug_ranges0+0x1b0
 8534 1995 01       		.byte	0x1
 8535 1996 8A06     		.2byte	0x68a
 8536 1998 30       		.uleb128 0x30
 8537 1999 68340000 		.4byte	0x3468
 8538 199d 44130000 		.4byte	.LLST171
 8539 19a1 31       		.uleb128 0x31
 8540 19a2 B0010000 		.4byte	.Ldebug_ranges0+0x1b0
 8541 19a6 32       		.uleb128 0x32
 8542 19a7 68390000 		.4byte	0x3968
 8543 19ab 32       		.uleb128 0x32
 8544 19ac 71390000 		.4byte	0x3971
 8545 19b0 00       		.byte	0
 8546 19b1 00       		.byte	0
 8547 19b2 00       		.byte	0
 8548 19b3 38       		.uleb128 0x38
 8549 19b4 37040000 		.4byte	.LASF333
 8550 19b8 01       		.byte	0x1
ARM GAS  /var/folders/3j/4xdnk5197cv_b7cw3n33qk7r0000gn/T//ccLoT9Qc.s 			page 151


 8551 19b9 C105     		.2byte	0x5c1
 8552 19bb 53010000 		.4byte	0x153
 8553 19bf 01       		.byte	0x1
 8554 19c0 011A0000 		.4byte	0x1a01
 8555 19c4 39       		.uleb128 0x39
 8556 19c5 44657600 		.ascii	"Dev\000"
 8557 19c9 01       		.byte	0x1
 8558 19ca C105     		.2byte	0x5c1
 8559 19cc 1A0F0000 		.4byte	0xf1a
 8560 19d0 3A       		.uleb128 0x3a
 8561 19d1 240E0000 		.4byte	.LASF241
 8562 19d5 01       		.byte	0x1
 8563 19d6 C205     		.2byte	0x5c2
 8564 19d8 33120000 		.4byte	0x1233
 8565 19dc 3A       		.uleb128 0x3a
 8566 19dd 73020000 		.4byte	.LASF331
 8567 19e1 01       		.byte	0x1
 8568 19e2 C305     		.2byte	0x5c3
 8569 19e4 78170000 		.4byte	0x1778
 8570 19e8 29       		.uleb128 0x29
 8571 19e9 12030000 		.4byte	.LASF243
 8572 19ed 01       		.byte	0x1
 8573 19ee C505     		.2byte	0x5c5
 8574 19f0 53010000 		.4byte	0x153
 8575 19f4 29       		.uleb128 0x29
 8576 19f5 79190000 		.4byte	.LASF332
 8577 19f9 01       		.byte	0x1
 8578 19fa C605     		.2byte	0x5c6
 8579 19fc 11010000 		.4byte	0x111
 8580 1a00 00       		.byte	0
 8581 1a01 38       		.uleb128 0x38
 8582 1a02 4D120000 		.4byte	.LASF334
 8583 1a06 01       		.byte	0x1
 8584 1a07 9D05     		.2byte	0x59d
 8585 1a09 53010000 		.4byte	0x153
 8586 1a0d 01       		.byte	0x1
 8587 1a0e 671A0000 		.4byte	0x1a67
 8588 1a12 39       		.uleb128 0x39
 8589 1a13 44657600 		.ascii	"Dev\000"
 8590 1a17 01       		.byte	0x1
 8591 1a18 9D05     		.2byte	0x59d
 8592 1a1a 1A0F0000 		.4byte	0xf1a
 8593 1a1e 3A       		.uleb128 0x3a
 8594 1a1f 240E0000 		.4byte	.LASF241
 8595 1a23 01       		.byte	0x1
 8596 1a24 9E05     		.2byte	0x59e
 8597 1a26 33120000 		.4byte	0x1233
 8598 1a2a 3A       		.uleb128 0x3a
 8599 1a2b C3190000 		.4byte	.LASF335
 8600 1a2f 01       		.byte	0x1
 8601 1a30 9F05     		.2byte	0x59f
 8602 1a32 78170000 		.4byte	0x1778
 8603 1a36 29       		.uleb128 0x29
 8604 1a37 12030000 		.4byte	.LASF243
 8605 1a3b 01       		.byte	0x1
 8606 1a3c A105     		.2byte	0x5a1
 8607 1a3e 53010000 		.4byte	0x153
ARM GAS  /var/folders/3j/4xdnk5197cv_b7cw3n33qk7r0000gn/T//ccLoT9Qc.s 			page 152


 8608 1a42 29       		.uleb128 0x29
 8609 1a43 EB0D0000 		.4byte	.LASF336
 8610 1a47 01       		.byte	0x1
 8611 1a48 A305     		.2byte	0x5a3
 8612 1a4a C3000000 		.4byte	0xc3
 8613 1a4e 29       		.uleb128 0x29
 8614 1a4f 79190000 		.4byte	.LASF332
 8615 1a53 01       		.byte	0x1
 8616 1a54 A405     		.2byte	0x5a4
 8617 1a56 11010000 		.4byte	0x111
 8618 1a5a 29       		.uleb128 0x29
 8619 1a5b 53190000 		.4byte	.LASF337
 8620 1a5f 01       		.byte	0x1
 8621 1a60 A505     		.2byte	0x5a5
 8622 1a62 11010000 		.4byte	0x111
 8623 1a66 00       		.byte	0
 8624 1a67 3B       		.uleb128 0x3b
 8625 1a68 28030000 		.4byte	.LASF338
 8626 1a6c 01       		.byte	0x1
 8627 1a6d 4705     		.2byte	0x547
 8628 1a6f 53010000 		.4byte	0x153
 8629 1a73 00000000 		.4byte	.LFB22
 8630 1a77 74010000 		.4byte	.LFE22-.LFB22
 8631 1a7b 01       		.uleb128 0x1
 8632 1a7c 9C       		.byte	0x9c
 8633 1a7d 511B0000 		.4byte	0x1b51
 8634 1a81 24       		.uleb128 0x24
 8635 1a82 44657600 		.ascii	"Dev\000"
 8636 1a86 01       		.byte	0x1
 8637 1a87 4705     		.2byte	0x547
 8638 1a89 1A0F0000 		.4byte	0xf1a
 8639 1a8d 78130000 		.4byte	.LLST132
 8640 1a91 25       		.uleb128 0x25
 8641 1a92 5E020000 		.4byte	.LASF339
 8642 1a96 01       		.byte	0x1
 8643 1a97 4805     		.2byte	0x548
 8644 1a99 3B060000 		.4byte	0x63b
 8645 1a9d AF130000 		.4byte	.LLST133
 8646 1aa1 27       		.uleb128 0x27
 8647 1aa2 12030000 		.4byte	.LASF243
 8648 1aa6 01       		.byte	0x1
 8649 1aa7 4A05     		.2byte	0x54a
 8650 1aa9 53010000 		.4byte	0x153
 8651 1aad D8130000 		.4byte	.LLST134
 8652 1ab1 3C       		.uleb128 0x3c
 8653 1ab2 6900     		.ascii	"i\000"
 8654 1ab4 01       		.byte	0x1
 8655 1ab5 4B05     		.2byte	0x54b
 8656 1ab7 B1000000 		.4byte	0xb1
 8657 1abb 27       		.uleb128 0x27
 8658 1abc 7E180000 		.4byte	.LASF340
 8659 1ac0 01       		.byte	0x1
 8660 1ac1 4C05     		.2byte	0x54c
 8661 1ac3 B1000000 		.4byte	0xb1
 8662 1ac7 03140000 		.4byte	.LLST135
 8663 1acb 3D       		.uleb128 0x3d
 8664 1acc 6D736200 		.ascii	"msb\000"
ARM GAS  /var/folders/3j/4xdnk5197cv_b7cw3n33qk7r0000gn/T//ccLoT9Qc.s 			page 153


 8665 1ad0 01       		.byte	0x1
 8666 1ad1 4D05     		.2byte	0x54d
 8667 1ad3 C3000000 		.4byte	0xc3
 8668 1ad7 C4140000 		.4byte	.LLST136
 8669 1adb 3D       		.uleb128 0x3d
 8670 1adc 6C736200 		.ascii	"lsb\000"
 8671 1ae0 01       		.byte	0x1
 8672 1ae1 4E05     		.2byte	0x54e
 8673 1ae3 C3000000 		.4byte	0xc3
 8674 1ae7 28150000 		.4byte	.LLST137
 8675 1aeb 27       		.uleb128 0x27
 8676 1aec BF080000 		.4byte	.LASF341
 8677 1af0 01       		.byte	0x1
 8678 1af1 4F05     		.2byte	0x54f
 8679 1af3 C3000000 		.4byte	0xc3
 8680 1af7 60150000 		.4byte	.LLST138
 8681 1afb 27       		.uleb128 0x27
 8682 1afc 830F0000 		.4byte	.LASF342
 8683 1b00 01       		.byte	0x1
 8684 1b01 5005     		.2byte	0x550
 8685 1b03 C3000000 		.4byte	0xc3
 8686 1b07 B3150000 		.4byte	.LLST139
 8687 1b0b 27       		.uleb128 0x27
 8688 1b0c 431C0000 		.4byte	.LASF343
 8689 1b10 01       		.byte	0x1
 8690 1b11 5105     		.2byte	0x551
 8691 1b13 C3000000 		.4byte	0xc3
 8692 1b17 DC150000 		.4byte	.LLST140
 8693 1b1b 28       		.uleb128 0x28
 8694 1b1c BF0F0000 		.4byte	.LASF344
 8695 1b20 01       		.byte	0x1
 8696 1b21 5205     		.2byte	0x552
 8697 1b23 511B0000 		.4byte	0x1b51
 8698 1b27 02       		.uleb128 0x2
 8699 1b28 91       		.byte	0x91
 8700 1b29 5C       		.sleb128 -36
 8701 1b2a 27       		.uleb128 0x27
 8702 1b2b 20170000 		.4byte	.LASF345
 8703 1b2f 01       		.byte	0x1
 8704 1b30 5305     		.2byte	0x553
 8705 1b32 D9000000 		.4byte	0xd9
 8706 1b36 EF150000 		.4byte	.LLST141
 8707 1b3a 2C       		.uleb128 0x2c
 8708 1b3b AC000000 		.4byte	.LVL535
 8709 1b3f 7C3D0000 		.4byte	0x3d7c
 8710 1b43 2B       		.uleb128 0x2b
 8711 1b44 01       		.uleb128 0x1
 8712 1b45 50       		.byte	0x50
 8713 1b46 02       		.uleb128 0x2
 8714 1b47 76       		.byte	0x76
 8715 1b48 00       		.sleb128 0
 8716 1b49 2B       		.uleb128 0x2b
 8717 1b4a 01       		.uleb128 0x1
 8718 1b4b 52       		.byte	0x52
 8719 1b4c 02       		.uleb128 0x2
 8720 1b4d 91       		.byte	0x91
 8721 1b4e 54       		.sleb128 -44
ARM GAS  /var/folders/3j/4xdnk5197cv_b7cw3n33qk7r0000gn/T//ccLoT9Qc.s 			page 154


 8722 1b4f 00       		.byte	0
 8723 1b50 00       		.byte	0
 8724 1b51 06       		.uleb128 0x6
 8725 1b52 C3000000 		.4byte	0xc3
 8726 1b56 611B0000 		.4byte	0x1b61
 8727 1b5a 07       		.uleb128 0x7
 8728 1b5b 25000000 		.4byte	0x25
 8729 1b5f 03       		.byte	0x3
 8730 1b60 00       		.byte	0
 8731 1b61 3B       		.uleb128 0x3b
 8732 1b62 91100000 		.4byte	.LASF346
 8733 1b66 01       		.byte	0x1
 8734 1b67 EC04     		.2byte	0x4ec
 8735 1b69 53010000 		.4byte	0x153
 8736 1b6d 00000000 		.4byte	.LFB21
 8737 1b71 7C010000 		.4byte	.LFE21-.LFB21
 8738 1b75 01       		.uleb128 0x1
 8739 1b76 9C       		.byte	0x9c
 8740 1b77 AF1C0000 		.4byte	0x1caf
 8741 1b7b 24       		.uleb128 0x24
 8742 1b7c 44657600 		.ascii	"Dev\000"
 8743 1b80 01       		.byte	0x1
 8744 1b81 EC04     		.2byte	0x4ec
 8745 1b83 1A0F0000 		.4byte	0xf1a
 8746 1b87 67160000 		.4byte	.LLST129
 8747 1b8b 25       		.uleb128 0x25
 8748 1b8c 7B150000 		.4byte	.LASF347
 8749 1b90 01       		.byte	0x1
 8750 1b91 ED04     		.2byte	0x4ed
 8751 1b93 7E170000 		.4byte	0x177e
 8752 1b97 85160000 		.4byte	.LLST130
 8753 1b9b 27       		.uleb128 0x27
 8754 1b9c 12030000 		.4byte	.LASF243
 8755 1ba0 01       		.byte	0x1
 8756 1ba1 EF04     		.2byte	0x4ef
 8757 1ba3 53010000 		.4byte	0x153
 8758 1ba7 A3160000 		.4byte	.LLST131
 8759 1bab 28       		.uleb128 0x28
 8760 1bac 41100000 		.4byte	.LASF348
 8761 1bb0 01       		.byte	0x1
 8762 1bb1 F004     		.2byte	0x4f0
 8763 1bb3 A4060000 		.4byte	0x6a4
 8764 1bb7 02       		.uleb128 0x2
 8765 1bb8 91       		.byte	0x91
 8766 1bb9 68       		.sleb128 -24
 8767 1bba 28       		.uleb128 0x28
 8768 1bbb C2030000 		.4byte	.LASF349
 8769 1bbf 01       		.byte	0x1
 8770 1bc0 F104     		.2byte	0x4f1
 8771 1bc2 EF000000 		.4byte	0xef
 8772 1bc6 02       		.uleb128 0x2
 8773 1bc7 91       		.byte	0x91
 8774 1bc8 5C       		.sleb128 -36
 8775 1bc9 28       		.uleb128 0x28
 8776 1bca 840C0000 		.4byte	.LASF350
 8777 1bce 01       		.byte	0x1
 8778 1bcf F204     		.2byte	0x4f2
ARM GAS  /var/folders/3j/4xdnk5197cv_b7cw3n33qk7r0000gn/T//ccLoT9Qc.s 			page 155


 8779 1bd1 EF000000 		.4byte	0xef
 8780 1bd5 02       		.uleb128 0x2
 8781 1bd6 91       		.byte	0x91
 8782 1bd7 60       		.sleb128 -32
 8783 1bd8 29       		.uleb128 0x29
 8784 1bd9 FB160000 		.4byte	.LASF351
 8785 1bdd 01       		.byte	0x1
 8786 1bde F304     		.2byte	0x4f3
 8787 1be0 EF000000 		.4byte	0xef
 8788 1be4 29       		.uleb128 0x29
 8789 1be5 8B020000 		.4byte	.LASF352
 8790 1be9 01       		.byte	0x1
 8791 1bea F404     		.2byte	0x4f4
 8792 1bec EF000000 		.4byte	0xef
 8793 1bf0 29       		.uleb128 0x29
 8794 1bf1 70130000 		.4byte	.LASF353
 8795 1bf5 01       		.byte	0x1
 8796 1bf6 F504     		.2byte	0x4f5
 8797 1bf8 EF000000 		.4byte	0xef
 8798 1bfc 29       		.uleb128 0x29
 8799 1bfd CB080000 		.4byte	.LASF354
 8800 1c01 01       		.byte	0x1
 8801 1c02 F604     		.2byte	0x4f6
 8802 1c04 EF000000 		.4byte	0xef
 8803 1c08 29       		.uleb128 0x29
 8804 1c09 D7060000 		.4byte	.LASF355
 8805 1c0d 01       		.byte	0x1
 8806 1c0e F704     		.2byte	0x4f7
 8807 1c10 EF000000 		.4byte	0xef
 8808 1c14 29       		.uleb128 0x29
 8809 1c15 3C110000 		.4byte	.LASF356
 8810 1c19 01       		.byte	0x1
 8811 1c1a F804     		.2byte	0x4f8
 8812 1c1c EF000000 		.4byte	0xef
 8813 1c20 29       		.uleb128 0x29
 8814 1c21 B90C0000 		.4byte	.LASF357
 8815 1c25 01       		.byte	0x1
 8816 1c26 F904     		.2byte	0x4f9
 8817 1c28 EF000000 		.4byte	0xef
 8818 1c2c 28       		.uleb128 0x28
 8819 1c2d 45160000 		.4byte	.LASF358
 8820 1c31 01       		.byte	0x1
 8821 1c32 FA04     		.2byte	0x4fa
 8822 1c34 EF000000 		.4byte	0xef
 8823 1c38 02       		.uleb128 0x2
 8824 1c39 91       		.byte	0x91
 8825 1c3a 64       		.sleb128 -28
 8826 1c3b 2A       		.uleb128 0x2a
 8827 1c3c 2C000000 		.4byte	.LVL511
 8828 1c40 873D0000 		.4byte	0x3d87
 8829 1c44 551C0000 		.4byte	0x1c55
 8830 1c48 2B       		.uleb128 0x2b
 8831 1c49 01       		.uleb128 0x1
 8832 1c4a 50       		.byte	0x50
 8833 1c4b 02       		.uleb128 0x2
 8834 1c4c 76       		.byte	0x76
 8835 1c4d 00       		.sleb128 0
ARM GAS  /var/folders/3j/4xdnk5197cv_b7cw3n33qk7r0000gn/T//ccLoT9Qc.s 			page 156


 8836 1c4e 2B       		.uleb128 0x2b
 8837 1c4f 01       		.uleb128 0x1
 8838 1c50 51       		.byte	0x51
 8839 1c51 02       		.uleb128 0x2
 8840 1c52 91       		.byte	0x91
 8841 1c53 60       		.sleb128 -32
 8842 1c54 00       		.byte	0
 8843 1c55 2A       		.uleb128 0x2a
 8844 1c56 74000000 		.4byte	.LVL513
 8845 1c5a 2D250000 		.4byte	0x252d
 8846 1c5e 741C0000 		.4byte	0x1c74
 8847 1c62 2B       		.uleb128 0x2b
 8848 1c63 01       		.uleb128 0x1
 8849 1c64 50       		.byte	0x50
 8850 1c65 02       		.uleb128 0x2
 8851 1c66 76       		.byte	0x76
 8852 1c67 00       		.sleb128 0
 8853 1c68 2B       		.uleb128 0x2b
 8854 1c69 01       		.uleb128 0x1
 8855 1c6a 51       		.byte	0x51
 8856 1c6b 01       		.uleb128 0x1
 8857 1c6c 33       		.byte	0x33
 8858 1c6d 2B       		.uleb128 0x2b
 8859 1c6e 01       		.uleb128 0x1
 8860 1c6f 52       		.byte	0x52
 8861 1c70 02       		.uleb128 0x2
 8862 1c71 91       		.byte	0x91
 8863 1c72 5C       		.sleb128 -36
 8864 1c73 00       		.byte	0
 8865 1c74 2A       		.uleb128 0x2a
 8866 1c75 C0000000 		.4byte	.LVL517
 8867 1c79 2D250000 		.4byte	0x252d
 8868 1c7d 931C0000 		.4byte	0x1c93
 8869 1c81 2B       		.uleb128 0x2b
 8870 1c82 01       		.uleb128 0x1
 8871 1c83 50       		.byte	0x50
 8872 1c84 02       		.uleb128 0x2
 8873 1c85 76       		.byte	0x76
 8874 1c86 00       		.sleb128 0
 8875 1c87 2B       		.uleb128 0x2b
 8876 1c88 01       		.uleb128 0x1
 8877 1c89 51       		.byte	0x51
 8878 1c8a 01       		.uleb128 0x1
 8879 1c8b 32       		.byte	0x32
 8880 1c8c 2B       		.uleb128 0x2b
 8881 1c8d 01       		.uleb128 0x1
 8882 1c8e 52       		.byte	0x52
 8883 1c8f 02       		.uleb128 0x2
 8884 1c90 91       		.byte	0x91
 8885 1c91 58       		.sleb128 -40
 8886 1c92 00       		.byte	0
 8887 1c93 2C       		.uleb128 0x2c
 8888 1c94 2C010000 		.4byte	.LVL521
 8889 1c98 2D250000 		.4byte	0x252d
 8890 1c9c 2B       		.uleb128 0x2b
 8891 1c9d 01       		.uleb128 0x1
 8892 1c9e 50       		.byte	0x50
ARM GAS  /var/folders/3j/4xdnk5197cv_b7cw3n33qk7r0000gn/T//ccLoT9Qc.s 			page 157


 8893 1c9f 02       		.uleb128 0x2
 8894 1ca0 76       		.byte	0x76
 8895 1ca1 00       		.sleb128 0
 8896 1ca2 2B       		.uleb128 0x2b
 8897 1ca3 01       		.uleb128 0x1
 8898 1ca4 51       		.byte	0x51
 8899 1ca5 01       		.uleb128 0x1
 8900 1ca6 34       		.byte	0x34
 8901 1ca7 2B       		.uleb128 0x2b
 8902 1ca8 01       		.uleb128 0x1
 8903 1ca9 52       		.byte	0x52
 8904 1caa 02       		.uleb128 0x2
 8905 1cab 91       		.byte	0x91
 8906 1cac 54       		.sleb128 -44
 8907 1cad 00       		.byte	0
 8908 1cae 00       		.byte	0
 8909 1caf 3B       		.uleb128 0x3b
 8910 1cb0 1F1A0000 		.4byte	.LASF359
 8911 1cb4 01       		.byte	0x1
 8912 1cb5 5604     		.2byte	0x456
 8913 1cb7 53010000 		.4byte	0x153
 8914 1cbb 00000000 		.4byte	.LFB20
 8915 1cbf 80010000 		.4byte	.LFE20-.LFB20
 8916 1cc3 01       		.uleb128 0x1
 8917 1cc4 9C       		.byte	0x9c
 8918 1cc5 8E1E0000 		.4byte	0x1e8e
 8919 1cc9 24       		.uleb128 0x24
 8920 1cca 44657600 		.ascii	"Dev\000"
 8921 1cce 01       		.byte	0x1
 8922 1ccf 5604     		.2byte	0x456
 8923 1cd1 1A0F0000 		.4byte	0xf1a
 8924 1cd5 06170000 		.4byte	.LLST121
 8925 1cd9 25       		.uleb128 0x25
 8926 1cda 1B0D0000 		.4byte	.LASF34
 8927 1cde 01       		.byte	0x1
 8928 1cdf 5704     		.2byte	0x457
 8929 1ce1 EF000000 		.4byte	0xef
 8930 1ce5 56170000 		.4byte	.LLST122
 8931 1ce9 27       		.uleb128 0x27
 8932 1cea 12030000 		.4byte	.LASF243
 8933 1cee 01       		.byte	0x1
 8934 1cef 5904     		.2byte	0x459
 8935 1cf1 53010000 		.4byte	0x153
 8936 1cf5 A6170000 		.4byte	.LLST123
 8937 1cf9 27       		.uleb128 0x27
 8938 1cfa 970E0000 		.4byte	.LASF360
 8939 1cfe 01       		.byte	0x1
 8940 1cff 5A04     		.2byte	0x45a
 8941 1d01 EF000000 		.4byte	0xef
 8942 1d05 09180000 		.4byte	.LLST124
 8943 1d09 28       		.uleb128 0x28
 8944 1d0a 41100000 		.4byte	.LASF348
 8945 1d0e 01       		.byte	0x1
 8946 1d0f 5B04     		.2byte	0x45b
 8947 1d11 A4060000 		.4byte	0x6a4
 8948 1d15 02       		.uleb128 0x2
 8949 1d16 91       		.byte	0x91
ARM GAS  /var/folders/3j/4xdnk5197cv_b7cw3n33qk7r0000gn/T//ccLoT9Qc.s 			page 158


 8950 1d17 60       		.sleb128 -32
 8951 1d18 28       		.uleb128 0x28
 8952 1d19 840C0000 		.4byte	.LASF350
 8953 1d1d 01       		.byte	0x1
 8954 1d1e 5C04     		.2byte	0x45c
 8955 1d20 EF000000 		.4byte	0xef
 8956 1d24 02       		.uleb128 0x2
 8957 1d25 91       		.byte	0x91
 8958 1d26 58       		.sleb128 -40
 8959 1d27 2D       		.uleb128 0x2d
 8960 1d28 FB160000 		.4byte	.LASF351
 8961 1d2c 01       		.byte	0x1
 8962 1d2d 5D04     		.2byte	0x45d
 8963 1d2f EF000000 		.4byte	0xef
 8964 1d33 7607     		.2byte	0x776
 8965 1d35 2D       		.uleb128 0x2d
 8966 1d36 8B020000 		.4byte	.LASF352
 8967 1d3a 01       		.byte	0x1
 8968 1d3b 5E04     		.2byte	0x45e
 8969 1d3d EF000000 		.4byte	0xef
 8970 1d41 C003     		.2byte	0x3c0
 8971 1d43 2D       		.uleb128 0x2d
 8972 1d44 70130000 		.4byte	.LASF353
 8973 1d48 01       		.byte	0x1
 8974 1d49 5F04     		.2byte	0x45f
 8975 1d4b EF000000 		.4byte	0xef
 8976 1d4f 9402     		.2byte	0x294
 8977 1d51 2D       		.uleb128 0x2d
 8978 1d52 CB080000 		.4byte	.LASF354
 8979 1d56 01       		.byte	0x1
 8980 1d57 6004     		.2byte	0x460
 8981 1d59 EF000000 		.4byte	0xef
 8982 1d5d 4E02     		.2byte	0x24e
 8983 1d5f 2D       		.uleb128 0x2d
 8984 1d60 D7060000 		.4byte	.LASF355
 8985 1d64 01       		.byte	0x1
 8986 1d65 6104     		.2byte	0x461
 8987 1d67 EF000000 		.4byte	0xef
 8988 1d6b B202     		.2byte	0x2b2
 8989 1d6d 2D       		.uleb128 0x2d
 8990 1d6e 3C110000 		.4byte	.LASF356
 8991 1d72 01       		.byte	0x1
 8992 1d73 6204     		.2byte	0x462
 8993 1d75 EF000000 		.4byte	0xef
 8994 1d79 9402     		.2byte	0x294
 8995 1d7b 2D       		.uleb128 0x2d
 8996 1d7c B90C0000 		.4byte	.LASF357
 8997 1d80 01       		.byte	0x1
 8998 1d81 6304     		.2byte	0x463
 8999 1d83 EF000000 		.4byte	0xef
 9000 1d87 2602     		.2byte	0x226
 9001 1d89 28       		.uleb128 0x28
 9002 1d8a 45160000 		.4byte	.LASF358
 9003 1d8e 01       		.byte	0x1
 9004 1d8f 6404     		.2byte	0x464
 9005 1d91 EF000000 		.4byte	0xef
 9006 1d95 02       		.uleb128 0x2
ARM GAS  /var/folders/3j/4xdnk5197cv_b7cw3n33qk7r0000gn/T//ccLoT9Qc.s 			page 159


 9007 1d96 91       		.byte	0x91
 9008 1d97 5C       		.sleb128 -36
 9009 1d98 2D       		.uleb128 0x2d
 9010 1d99 0F160000 		.4byte	.LASF361
 9011 1d9d 01       		.byte	0x1
 9012 1d9e 6504     		.2byte	0x465
 9013 1da0 EF000000 		.4byte	0xef
 9014 1da4 204E     		.2byte	0x4e20
 9015 1da6 27       		.uleb128 0x27
 9016 1da7 B8110000 		.4byte	.LASF362
 9017 1dab 01       		.byte	0x1
 9018 1dac 6604     		.2byte	0x466
 9019 1dae EF000000 		.4byte	0xef
 9020 1db2 7F180000 		.4byte	.LLST125
 9021 1db6 35       		.uleb128 0x35
 9022 1db7 8B240000 		.4byte	0x248b
 9023 1dbb 80000000 		.4byte	.LBB200
 9024 1dbf 18000000 		.4byte	.LBE200-.LBB200
 9025 1dc3 01       		.byte	0x1
 9026 1dc4 DE04     		.2byte	0x4de
 9027 1dc6 391E0000 		.4byte	0x1e39
 9028 1dca 30       		.uleb128 0x30
 9029 1dcb B4240000 		.4byte	0x24b4
 9030 1dcf D6180000 		.4byte	.LLST126
 9031 1dd3 30       		.uleb128 0x30
 9032 1dd4 A8240000 		.4byte	0x24a8
 9033 1dd8 EC180000 		.4byte	.LLST127
 9034 1ddc 30       		.uleb128 0x30
 9035 1ddd 9C240000 		.4byte	0x249c
 9036 1de1 00190000 		.4byte	.LLST128
 9037 1de5 36       		.uleb128 0x36
 9038 1de6 80000000 		.4byte	.LBB201
 9039 1dea 18000000 		.4byte	.LBE201-.LBB201
 9040 1dee 32       		.uleb128 0x32
 9041 1def 363B0000 		.4byte	0x3b36
 9042 1df3 32       		.uleb128 0x32
 9043 1df4 3F3B0000 		.4byte	0x3b3f
 9044 1df8 32       		.uleb128 0x32
 9045 1df9 473B0000 		.4byte	0x3b47
 9046 1dfd 32       		.uleb128 0x32
 9047 1dfe 503B0000 		.4byte	0x3b50
 9048 1e02 32       		.uleb128 0x32
 9049 1e03 553B0000 		.4byte	0x3b55
 9050 1e07 32       		.uleb128 0x32
 9051 1e08 5A3B0000 		.4byte	0x3b5a
 9052 1e0c 32       		.uleb128 0x32
 9053 1e0d 633B0000 		.4byte	0x3b63
 9054 1e11 32       		.uleb128 0x32
 9055 1e12 683B0000 		.4byte	0x3b68
 9056 1e16 32       		.uleb128 0x32
 9057 1e17 6D3B0000 		.4byte	0x3b6d
 9058 1e1b 2C       		.uleb128 0x2c
 9059 1e1c 94000000 		.4byte	.LVL487
 9060 1e20 0F360000 		.4byte	0x360f
 9061 1e24 2B       		.uleb128 0x2b
 9062 1e25 01       		.uleb128 0x1
 9063 1e26 50       		.byte	0x50
ARM GAS  /var/folders/3j/4xdnk5197cv_b7cw3n33qk7r0000gn/T//ccLoT9Qc.s 			page 160


 9064 1e27 02       		.uleb128 0x2
 9065 1e28 77       		.byte	0x77
 9066 1e29 00       		.sleb128 0
 9067 1e2a 2B       		.uleb128 0x2b
 9068 1e2b 01       		.uleb128 0x1
 9069 1e2c 51       		.byte	0x51
 9070 1e2d 01       		.uleb128 0x1
 9071 1e2e 34       		.byte	0x34
 9072 1e2f 2B       		.uleb128 0x2b
 9073 1e30 01       		.uleb128 0x1
 9074 1e31 52       		.byte	0x52
 9075 1e32 03       		.uleb128 0x3
 9076 1e33 75       		.byte	0x75
 9077 1e34 DA7B     		.sleb128 -550
 9078 1e36 00       		.byte	0
 9079 1e37 00       		.byte	0
 9080 1e38 00       		.byte	0
 9081 1e39 2A       		.uleb128 0x2a
 9082 1e3a 34000000 		.4byte	.LVL484
 9083 1e3e 873D0000 		.4byte	0x3d87
 9084 1e42 531E0000 		.4byte	0x1e53
 9085 1e46 2B       		.uleb128 0x2b
 9086 1e47 01       		.uleb128 0x1
 9087 1e48 50       		.byte	0x50
 9088 1e49 02       		.uleb128 0x2
 9089 1e4a 77       		.byte	0x77
 9090 1e4b 00       		.sleb128 0
 9091 1e4c 2B       		.uleb128 0x2b
 9092 1e4d 01       		.uleb128 0x1
 9093 1e4e 51       		.byte	0x51
 9094 1e4f 02       		.uleb128 0x2
 9095 1e50 91       		.byte	0x91
 9096 1e51 58       		.sleb128 -40
 9097 1e52 00       		.byte	0
 9098 1e53 2A       		.uleb128 0x2a
 9099 1e54 B8000000 		.4byte	.LVL492
 9100 1e58 2D250000 		.4byte	0x252d
 9101 1e5c 721E0000 		.4byte	0x1e72
 9102 1e60 2B       		.uleb128 0x2b
 9103 1e61 01       		.uleb128 0x1
 9104 1e62 50       		.byte	0x50
 9105 1e63 02       		.uleb128 0x2
 9106 1e64 77       		.byte	0x77
 9107 1e65 00       		.sleb128 0
 9108 1e66 2B       		.uleb128 0x2b
 9109 1e67 01       		.uleb128 0x1
 9110 1e68 51       		.byte	0x51
 9111 1e69 01       		.uleb128 0x1
 9112 1e6a 32       		.byte	0x32
 9113 1e6b 2B       		.uleb128 0x2b
 9114 1e6c 01       		.uleb128 0x1
 9115 1e6d 52       		.byte	0x52
 9116 1e6e 02       		.uleb128 0x2
 9117 1e6f 7D       		.byte	0x7d
 9118 1e70 00       		.sleb128 0
 9119 1e71 00       		.byte	0
 9120 1e72 2C       		.uleb128 0x2c
ARM GAS  /var/folders/3j/4xdnk5197cv_b7cw3n33qk7r0000gn/T//ccLoT9Qc.s 			page 161


 9121 1e73 2C010000 		.4byte	.LVL500
 9122 1e77 2D250000 		.4byte	0x252d
 9123 1e7b 2B       		.uleb128 0x2b
 9124 1e7c 01       		.uleb128 0x1
 9125 1e7d 50       		.byte	0x50
 9126 1e7e 02       		.uleb128 0x2
 9127 1e7f 77       		.byte	0x77
 9128 1e80 00       		.sleb128 0
 9129 1e81 2B       		.uleb128 0x2b
 9130 1e82 01       		.uleb128 0x1
 9131 1e83 51       		.byte	0x51
 9132 1e84 01       		.uleb128 0x1
 9133 1e85 33       		.byte	0x33
 9134 1e86 2B       		.uleb128 0x2b
 9135 1e87 01       		.uleb128 0x1
 9136 1e88 52       		.byte	0x52
 9137 1e89 02       		.uleb128 0x2
 9138 1e8a 91       		.byte	0x91
 9139 1e8b 54       		.sleb128 -44
 9140 1e8c 00       		.byte	0
 9141 1e8d 00       		.byte	0
 9142 1e8e 3B       		.uleb128 0x3b
 9143 1e8f 5C150000 		.4byte	.LASF363
 9144 1e93 01       		.byte	0x1
 9145 1e94 3804     		.2byte	0x438
 9146 1e96 53010000 		.4byte	0x153
 9147 1e9a 00000000 		.4byte	.LFB19
 9148 1e9e 64000000 		.4byte	.LFE19-.LFB19
 9149 1ea2 01       		.uleb128 0x1
 9150 1ea3 9C       		.byte	0x9c
 9151 1ea4 581F0000 		.4byte	0x1f58
 9152 1ea8 24       		.uleb128 0x24
 9153 1ea9 44657600 		.ascii	"Dev\000"
 9154 1ead 01       		.byte	0x1
 9155 1eae 3804     		.2byte	0x438
 9156 1eb0 1A0F0000 		.4byte	0xf1a
 9157 1eb4 13190000 		.4byte	.LLST117
 9158 1eb8 25       		.uleb128 0x25
 9159 1eb9 BC160000 		.4byte	.LASF364
 9160 1ebd 01       		.byte	0x1
 9161 1ebe 3904     		.2byte	0x439
 9162 1ec0 4D060000 		.4byte	0x64d
 9163 1ec4 66190000 		.4byte	.LLST118
 9164 1ec8 25       		.uleb128 0x25
 9165 1ec9 95140000 		.4byte	.LASF365
 9166 1ecd 01       		.byte	0x1
 9167 1ece 3904     		.2byte	0x439
 9168 1ed0 3B060000 		.4byte	0x63b
 9169 1ed4 87190000 		.4byte	.LLST119
 9170 1ed8 27       		.uleb128 0x27
 9171 1ed9 12030000 		.4byte	.LASF243
 9172 1edd 01       		.byte	0x1
 9173 1ede 3B04     		.2byte	0x43b
 9174 1ee0 53010000 		.4byte	0x153
 9175 1ee4 D1190000 		.4byte	.LLST120
 9176 1ee8 28       		.uleb128 0x28
 9177 1ee9 19080000 		.4byte	.LASF366
ARM GAS  /var/folders/3j/4xdnk5197cv_b7cw3n33qk7r0000gn/T//ccLoT9Qc.s 			page 162


 9178 1eed 01       		.byte	0x1
 9179 1eee 3C04     		.2byte	0x43c
 9180 1ef0 C3000000 		.4byte	0xc3
 9181 1ef4 02       		.uleb128 0x2
 9182 1ef5 91       		.byte	0x91
 9183 1ef6 77       		.sleb128 -9
 9184 1ef7 35       		.uleb128 0x35
 9185 1ef8 B1340000 		.4byte	0x34b1
 9186 1efc 30000000 		.4byte	.LBB198
 9187 1f00 0C000000 		.4byte	.LBE198-.LBB198
 9188 1f04 01       		.byte	0x1
 9189 1f05 4F04     		.2byte	0x44f
 9190 1f07 201F0000 		.4byte	0x1f20
 9191 1f0b 33       		.uleb128 0x33
 9192 1f0c C1340000 		.4byte	0x34c1
 9193 1f10 36       		.uleb128 0x36
 9194 1f11 30000000 		.4byte	.LBB199
 9195 1f15 0C000000 		.4byte	.LBE199-.LBB199
 9196 1f19 32       		.uleb128 0x32
 9197 1f1a 1C390000 		.4byte	0x391c
 9198 1f1e 00       		.byte	0
 9199 1f1f 00       		.byte	0
 9200 1f20 2A       		.uleb128 0x2a
 9201 1f21 28000000 		.4byte	.LVL473
 9202 1f25 933D0000 		.4byte	0x3d93
 9203 1f29 411F0000 		.4byte	0x1f41
 9204 1f2d 2B       		.uleb128 0x2b
 9205 1f2e 01       		.uleb128 0x1
 9206 1f2f 50       		.byte	0x50
 9207 1f30 03       		.uleb128 0x3
 9208 1f31 F3       		.byte	0xf3
 9209 1f32 01       		.uleb128 0x1
 9210 1f33 50       		.byte	0x50
 9211 1f34 2B       		.uleb128 0x2b
 9212 1f35 01       		.uleb128 0x1
 9213 1f36 51       		.byte	0x51
 9214 1f37 02       		.uleb128 0x2
 9215 1f38 08       		.byte	0x8
 9216 1f39 70       		.byte	0x70
 9217 1f3a 2B       		.uleb128 0x2b
 9218 1f3b 01       		.uleb128 0x1
 9219 1f3c 52       		.byte	0x52
 9220 1f3d 02       		.uleb128 0x2
 9221 1f3e 91       		.byte	0x91
 9222 1f3f 6F       		.sleb128 -17
 9223 1f40 00       		.byte	0
 9224 1f41 2C       		.uleb128 0x2c
 9225 1f42 60000000 		.4byte	.LVL478
 9226 1f46 933D0000 		.4byte	0x3d93
 9227 1f4a 2B       		.uleb128 0x2b
 9228 1f4b 01       		.uleb128 0x1
 9229 1f4c 51       		.byte	0x51
 9230 1f4d 02       		.uleb128 0x2
 9231 1f4e 08       		.byte	0x8
 9232 1f4f 50       		.byte	0x50
 9233 1f50 2B       		.uleb128 0x2b
 9234 1f51 01       		.uleb128 0x1
ARM GAS  /var/folders/3j/4xdnk5197cv_b7cw3n33qk7r0000gn/T//ccLoT9Qc.s 			page 163


 9235 1f52 52       		.byte	0x52
 9236 1f53 02       		.uleb128 0x2
 9237 1f54 91       		.byte	0x91
 9238 1f55 6F       		.sleb128 -17
 9239 1f56 00       		.byte	0
 9240 1f57 00       		.byte	0
 9241 1f58 3B       		.uleb128 0x3b
 9242 1f59 ED010000 		.4byte	.LASF367
 9243 1f5d 01       		.byte	0x1
 9244 1f5e 3F03     		.2byte	0x33f
 9245 1f60 53010000 		.4byte	0x153
 9246 1f64 00000000 		.4byte	.LFB18
 9247 1f68 60030000 		.4byte	.LFE18-.LFB18
 9248 1f6c 01       		.uleb128 0x1
 9249 1f6d 9C       		.byte	0x9c
 9250 1f6e 8B240000 		.4byte	0x248b
 9251 1f72 24       		.uleb128 0x24
 9252 1f73 44657600 		.ascii	"Dev\000"
 9253 1f77 01       		.byte	0x1
 9254 1f78 3F03     		.2byte	0x33f
 9255 1f7a 1A0F0000 		.4byte	0xf1a
 9256 1f7e 131A0000 		.4byte	.LLST105
 9257 1f82 25       		.uleb128 0x25
 9258 1f83 BC160000 		.4byte	.LASF364
 9259 1f87 01       		.byte	0x1
 9260 1f88 4003     		.2byte	0x340
 9261 1f8a 4D060000 		.4byte	0x64d
 9262 1f8e D91A0000 		.4byte	.LLST106
 9263 1f92 25       		.uleb128 0x25
 9264 1f93 83110000 		.4byte	.LASF368
 9265 1f97 01       		.byte	0x1
 9266 1f98 4003     		.2byte	0x340
 9267 1f9a C3000000 		.4byte	0xc3
 9268 1f9e A91B0000 		.4byte	.LLST107
 9269 1fa2 27       		.uleb128 0x27
 9270 1fa3 12030000 		.4byte	.LASF243
 9271 1fa7 01       		.byte	0x1
 9272 1fa8 4203     		.2byte	0x342
 9273 1faa 53010000 		.4byte	0x153
 9274 1fae 601C0000 		.4byte	.LLST108
 9275 1fb2 29       		.uleb128 0x29
 9276 1fb3 19080000 		.4byte	.LASF366
 9277 1fb7 01       		.byte	0x1
 9278 1fb8 4303     		.2byte	0x343
 9279 1fba C3000000 		.4byte	0xc3
 9280 1fbe 37       		.uleb128 0x37
 9281 1fbf 56170000 		.4byte	.LASF369
 9282 1fc3 01       		.byte	0x1
 9283 1fc4 4403     		.2byte	0x344
 9284 1fc6 C3000000 		.4byte	0xc3
 9285 1fca 0C       		.byte	0xc
 9286 1fcb 37       		.uleb128 0x37
 9287 1fcc 3E0F0000 		.4byte	.LASF370
 9288 1fd0 01       		.byte	0x1
 9289 1fd1 4503     		.2byte	0x345
 9290 1fd3 C3000000 		.4byte	0xc3
 9291 1fd7 12       		.byte	0x12
ARM GAS  /var/folders/3j/4xdnk5197cv_b7cw3n33qk7r0000gn/T//ccLoT9Qc.s 			page 164


 9292 1fd8 37       		.uleb128 0x37
 9293 1fd9 83070000 		.4byte	.LASF371
 9294 1fdd 01       		.byte	0x1
 9295 1fde 4603     		.2byte	0x346
 9296 1fe0 C3000000 		.4byte	0xc3
 9297 1fe4 08       		.byte	0x8
 9298 1fe5 37       		.uleb128 0x37
 9299 1fe6 32170000 		.4byte	.LASF372
 9300 1fea 01       		.byte	0x1
 9301 1feb 4703     		.2byte	0x347
 9302 1fed C3000000 		.4byte	0xc3
 9303 1ff1 0E       		.byte	0xe
 9304 1ff2 27       		.uleb128 0x27
 9305 1ff3 1B0D0000 		.4byte	.LASF34
 9306 1ff7 01       		.byte	0x1
 9307 1ff8 4803     		.2byte	0x348
 9308 1ffa EF000000 		.4byte	0xef
 9309 1ffe C51D0000 		.4byte	.LLST109
 9310 2002 28       		.uleb128 0x28
 9311 2003 C2030000 		.4byte	.LASF349
 9312 2007 01       		.byte	0x1
 9313 2008 4903     		.2byte	0x349
 9314 200a EF000000 		.4byte	0xef
 9315 200e 02       		.uleb128 0x2
 9316 200f 91       		.byte	0x91
 9317 2010 5C       		.sleb128 -36
 9318 2011 28       		.uleb128 0x28
 9319 2012 45160000 		.4byte	.LASF358
 9320 2016 01       		.byte	0x1
 9321 2017 4A03     		.2byte	0x34a
 9322 2019 EF000000 		.4byte	0xef
 9323 201d 02       		.uleb128 0x2
 9324 201e 91       		.byte	0x91
 9325 201f 60       		.sleb128 -32
 9326 2020 28       		.uleb128 0x28
 9327 2021 3B130000 		.4byte	.LASF373
 9328 2025 01       		.byte	0x1
 9329 2026 4B03     		.2byte	0x34b
 9330 2028 EF000000 		.4byte	0xef
 9331 202c 02       		.uleb128 0x2
 9332 202d 91       		.byte	0x91
 9333 202e 64       		.sleb128 -28
 9334 202f 28       		.uleb128 0x28
 9335 2030 031B0000 		.4byte	.LASF374
 9336 2034 01       		.byte	0x1
 9337 2035 4C03     		.2byte	0x34c
 9338 2037 C3000000 		.4byte	0xc3
 9339 203b 02       		.uleb128 0x2
 9340 203c 91       		.byte	0x91
 9341 203d 5B       		.sleb128 -37
 9342 203e 2F       		.uleb128 0x2f
 9343 203f 8A340000 		.4byte	0x348a
 9344 2043 64000000 		.4byte	.LBB186
 9345 2047 68010000 		.4byte	.Ldebug_ranges0+0x168
 9346 204b 01       		.byte	0x1
 9347 204c DD03     		.2byte	0x3dd
 9348 204e 67200000 		.4byte	0x2067
ARM GAS  /var/folders/3j/4xdnk5197cv_b7cw3n33qk7r0000gn/T//ccLoT9Qc.s 			page 165


 9349 2052 30       		.uleb128 0x30
 9350 2053 9A340000 		.4byte	0x349a
 9351 2057 D91D0000 		.4byte	.LLST110
 9352 205b 31       		.uleb128 0x31
 9353 205c 68010000 		.4byte	.Ldebug_ranges0+0x168
 9354 2060 32       		.uleb128 0x32
 9355 2061 42390000 		.4byte	0x3942
 9356 2065 00       		.byte	0
 9357 2066 00       		.byte	0
 9358 2067 35       		.uleb128 0x35
 9359 2068 8B240000 		.4byte	0x248b
 9360 206c 74010000 		.4byte	.LBB194
 9361 2070 14000000 		.4byte	.LBE194-.LBB194
 9362 2074 01       		.byte	0x1
 9363 2075 1604     		.2byte	0x416
 9364 2077 E3200000 		.4byte	0x20e3
 9365 207b 30       		.uleb128 0x30
 9366 207c B4240000 		.4byte	0x24b4
 9367 2080 F71D0000 		.4byte	.LLST111
 9368 2084 30       		.uleb128 0x30
 9369 2085 A8240000 		.4byte	0x24a8
 9370 2089 0B1E0000 		.4byte	.LLST112
 9371 208d 30       		.uleb128 0x30
 9372 208e 9C240000 		.4byte	0x249c
 9373 2092 1F1E0000 		.4byte	.LLST113
 9374 2096 36       		.uleb128 0x36
 9375 2097 74010000 		.4byte	.LBB195
 9376 209b 14000000 		.4byte	.LBE195-.LBB195
 9377 209f 32       		.uleb128 0x32
 9378 20a0 363B0000 		.4byte	0x3b36
 9379 20a4 32       		.uleb128 0x32
 9380 20a5 3F3B0000 		.4byte	0x3b3f
 9381 20a9 32       		.uleb128 0x32
 9382 20aa 473B0000 		.4byte	0x3b47
 9383 20ae 32       		.uleb128 0x32
 9384 20af 503B0000 		.4byte	0x3b50
 9385 20b3 32       		.uleb128 0x32
 9386 20b4 553B0000 		.4byte	0x3b55
 9387 20b8 32       		.uleb128 0x32
 9388 20b9 5A3B0000 		.4byte	0x3b5a
 9389 20bd 32       		.uleb128 0x32
 9390 20be 633B0000 		.4byte	0x3b63
 9391 20c2 32       		.uleb128 0x32
 9392 20c3 683B0000 		.4byte	0x3b68
 9393 20c7 32       		.uleb128 0x32
 9394 20c8 6D3B0000 		.4byte	0x3b6d
 9395 20cc 2C       		.uleb128 0x2c
 9396 20cd 84010000 		.4byte	.LVL414
 9397 20d1 0F360000 		.4byte	0x360f
 9398 20d5 2B       		.uleb128 0x2b
 9399 20d6 01       		.uleb128 0x1
 9400 20d7 50       		.byte	0x50
 9401 20d8 02       		.uleb128 0x2
 9402 20d9 75       		.byte	0x75
 9403 20da 00       		.sleb128 0
 9404 20db 2B       		.uleb128 0x2b
 9405 20dc 01       		.uleb128 0x1
ARM GAS  /var/folders/3j/4xdnk5197cv_b7cw3n33qk7r0000gn/T//ccLoT9Qc.s 			page 166


 9406 20dd 51       		.byte	0x51
 9407 20de 01       		.uleb128 0x1
 9408 20df 34       		.byte	0x34
 9409 20e0 00       		.byte	0
 9410 20e1 00       		.byte	0
 9411 20e2 00       		.byte	0
 9412 20e3 35       		.uleb128 0x35
 9413 20e4 8B240000 		.4byte	0x248b
 9414 20e8 B8010000 		.4byte	.LBB196
 9415 20ec 10000000 		.4byte	.LBE196-.LBB196
 9416 20f0 01       		.byte	0x1
 9417 20f1 FB03     		.2byte	0x3fb
 9418 20f3 5F210000 		.4byte	0x215f
 9419 20f7 30       		.uleb128 0x30
 9420 20f8 B4240000 		.4byte	0x24b4
 9421 20fc 321E0000 		.4byte	.LLST114
 9422 2100 30       		.uleb128 0x30
 9423 2101 A8240000 		.4byte	0x24a8
 9424 2105 461E0000 		.4byte	.LLST115
 9425 2109 30       		.uleb128 0x30
 9426 210a 9C240000 		.4byte	0x249c
 9427 210e 5A1E0000 		.4byte	.LLST116
 9428 2112 36       		.uleb128 0x36
 9429 2113 B8010000 		.4byte	.LBB197
 9430 2117 10000000 		.4byte	.LBE197-.LBB197
 9431 211b 32       		.uleb128 0x32
 9432 211c 363B0000 		.4byte	0x3b36
 9433 2120 32       		.uleb128 0x32
 9434 2121 3F3B0000 		.4byte	0x3b3f
 9435 2125 32       		.uleb128 0x32
 9436 2126 473B0000 		.4byte	0x3b47
 9437 212a 32       		.uleb128 0x32
 9438 212b 503B0000 		.4byte	0x3b50
 9439 212f 32       		.uleb128 0x32
 9440 2130 553B0000 		.4byte	0x3b55
 9441 2134 32       		.uleb128 0x32
 9442 2135 5A3B0000 		.4byte	0x3b5a
 9443 2139 32       		.uleb128 0x32
 9444 213a 633B0000 		.4byte	0x3b63
 9445 213e 32       		.uleb128 0x32
 9446 213f 683B0000 		.4byte	0x3b68
 9447 2143 32       		.uleb128 0x32
 9448 2144 6D3B0000 		.4byte	0x3b6d
 9449 2148 2C       		.uleb128 0x2c
 9450 2149 C8010000 		.4byte	.LVL420
 9451 214d 0F360000 		.4byte	0x360f
 9452 2151 2B       		.uleb128 0x2b
 9453 2152 01       		.uleb128 0x1
 9454 2153 50       		.byte	0x50
 9455 2154 02       		.uleb128 0x2
 9456 2155 75       		.byte	0x75
 9457 2156 00       		.sleb128 0
 9458 2157 2B       		.uleb128 0x2b
 9459 2158 01       		.uleb128 0x1
 9460 2159 51       		.byte	0x51
 9461 215a 01       		.uleb128 0x1
 9462 215b 33       		.byte	0x33
ARM GAS  /var/folders/3j/4xdnk5197cv_b7cw3n33qk7r0000gn/T//ccLoT9Qc.s 			page 167


 9463 215c 00       		.byte	0
 9464 215d 00       		.byte	0
 9465 215e 00       		.byte	0
 9466 215f 2A       		.uleb128 0x2a
 9467 2160 80000000 		.4byte	.LVL389
 9468 2164 2D250000 		.4byte	0x252d
 9469 2168 7E210000 		.4byte	0x217e
 9470 216c 2B       		.uleb128 0x2b
 9471 216d 01       		.uleb128 0x1
 9472 216e 50       		.byte	0x50
 9473 216f 02       		.uleb128 0x2
 9474 2170 75       		.byte	0x75
 9475 2171 00       		.sleb128 0
 9476 2172 2B       		.uleb128 0x2b
 9477 2173 01       		.uleb128 0x1
 9478 2174 51       		.byte	0x51
 9479 2175 01       		.uleb128 0x1
 9480 2176 33       		.byte	0x33
 9481 2177 2B       		.uleb128 0x2b
 9482 2178 01       		.uleb128 0x1
 9483 2179 52       		.byte	0x52
 9484 217a 02       		.uleb128 0x2
 9485 217b 91       		.byte	0x91
 9486 217c 58       		.sleb128 -40
 9487 217d 00       		.byte	0
 9488 217e 2A       		.uleb128 0x2a
 9489 217f A0000000 		.4byte	.LVL394
 9490 2183 9E3D0000 		.4byte	0x3d9e
 9491 2187 92210000 		.4byte	0x2192
 9492 218b 2B       		.uleb128 0x2b
 9493 218c 01       		.uleb128 0x1
 9494 218d 50       		.byte	0x50
 9495 218e 02       		.uleb128 0x2
 9496 218f 75       		.byte	0x75
 9497 2190 00       		.sleb128 0
 9498 2191 00       		.byte	0
 9499 2192 2A       		.uleb128 0x2a
 9500 2193 BC000000 		.4byte	.LVL396
 9501 2197 AA3D0000 		.4byte	0x3daa
 9502 219b B1210000 		.4byte	0x21b1
 9503 219f 2B       		.uleb128 0x2b
 9504 21a0 01       		.uleb128 0x1
 9505 21a1 50       		.byte	0x50
 9506 21a2 02       		.uleb128 0x2
 9507 21a3 75       		.byte	0x75
 9508 21a4 00       		.sleb128 0
 9509 21a5 2B       		.uleb128 0x2b
 9510 21a6 01       		.uleb128 0x1
 9511 21a7 51       		.byte	0x51
 9512 21a8 02       		.uleb128 0x2
 9513 21a9 91       		.byte	0x91
 9514 21aa 53       		.sleb128 -45
 9515 21ab 2B       		.uleb128 0x2b
 9516 21ac 01       		.uleb128 0x1
 9517 21ad 53       		.byte	0x53
 9518 21ae 01       		.uleb128 0x1
 9519 21af 31       		.byte	0x31
ARM GAS  /var/folders/3j/4xdnk5197cv_b7cw3n33qk7r0000gn/T//ccLoT9Qc.s 			page 168


 9520 21b0 00       		.byte	0
 9521 21b1 2A       		.uleb128 0x2a
 9522 21b2 14010000 		.4byte	.LVL400
 9523 21b6 2D250000 		.4byte	0x252d
 9524 21ba D0210000 		.4byte	0x21d0
 9525 21be 2B       		.uleb128 0x2b
 9526 21bf 01       		.uleb128 0x1
 9527 21c0 50       		.byte	0x50
 9528 21c1 02       		.uleb128 0x2
 9529 21c2 75       		.byte	0x75
 9530 21c3 00       		.sleb128 0
 9531 21c4 2B       		.uleb128 0x2b
 9532 21c5 01       		.uleb128 0x1
 9533 21c6 51       		.byte	0x51
 9534 21c7 01       		.uleb128 0x1
 9535 21c8 34       		.byte	0x34
 9536 21c9 2B       		.uleb128 0x2b
 9537 21ca 01       		.uleb128 0x1
 9538 21cb 52       		.byte	0x52
 9539 21cc 02       		.uleb128 0x2
 9540 21cd 91       		.byte	0x91
 9541 21ce 54       		.sleb128 -44
 9542 21cf 00       		.byte	0
 9543 21d0 2A       		.uleb128 0x2a
 9544 21d1 30010000 		.4byte	.LVL405
 9545 21d5 663D0000 		.4byte	0x3d66
 9546 21d9 E4210000 		.4byte	0x21e4
 9547 21dd 2B       		.uleb128 0x2b
 9548 21de 01       		.uleb128 0x1
 9549 21df 51       		.byte	0x51
 9550 21e0 02       		.uleb128 0x2
 9551 21e1 08       		.byte	0x8
 9552 21e2 57       		.byte	0x57
 9553 21e3 00       		.byte	0
 9554 21e4 2A       		.uleb128 0x2a
 9555 21e5 40010000 		.4byte	.LVL406
 9556 21e9 663D0000 		.4byte	0x3d66
 9557 21ed 03220000 		.4byte	0x2203
 9558 21f1 2B       		.uleb128 0x2b
 9559 21f2 01       		.uleb128 0x1
 9560 21f3 50       		.byte	0x50
 9561 21f4 02       		.uleb128 0x2
 9562 21f5 75       		.byte	0x75
 9563 21f6 00       		.sleb128 0
 9564 21f7 2B       		.uleb128 0x2b
 9565 21f8 01       		.uleb128 0x1
 9566 21f9 51       		.byte	0x51
 9567 21fa 02       		.uleb128 0x2
 9568 21fb 08       		.byte	0x8
 9569 21fc 56       		.byte	0x56
 9570 21fd 2B       		.uleb128 0x2b
 9571 21fe 01       		.uleb128 0x1
 9572 21ff 52       		.byte	0x52
 9573 2200 01       		.uleb128 0x1
 9574 2201 38       		.byte	0x38
 9575 2202 00       		.byte	0
 9576 2203 2A       		.uleb128 0x2a
ARM GAS  /var/folders/3j/4xdnk5197cv_b7cw3n33qk7r0000gn/T//ccLoT9Qc.s 			page 169


 9577 2204 6C010000 		.4byte	.LVL411
 9578 2208 663D0000 		.4byte	0x3d66
 9579 220c 23220000 		.4byte	0x2223
 9580 2210 2B       		.uleb128 0x2b
 9581 2211 01       		.uleb128 0x1
 9582 2212 50       		.byte	0x50
 9583 2213 02       		.uleb128 0x2
 9584 2214 75       		.byte	0x75
 9585 2215 00       		.sleb128 0
 9586 2216 2B       		.uleb128 0x2b
 9587 2217 01       		.uleb128 0x1
 9588 2218 51       		.byte	0x51
 9589 2219 02       		.uleb128 0x2
 9590 221a 08       		.byte	0x8
 9591 221b 70       		.byte	0x70
 9592 221c 2B       		.uleb128 0x2b
 9593 221d 01       		.uleb128 0x1
 9594 221e 52       		.byte	0x52
 9595 221f 02       		.uleb128 0x2
 9596 2220 76       		.byte	0x76
 9597 2221 00       		.sleb128 0
 9598 2222 00       		.byte	0
 9599 2223 2A       		.uleb128 0x2a
 9600 2224 98010000 		.4byte	.LVL415
 9601 2228 2D250000 		.4byte	0x252d
 9602 222c 42220000 		.4byte	0x2242
 9603 2230 2B       		.uleb128 0x2b
 9604 2231 01       		.uleb128 0x1
 9605 2232 50       		.byte	0x50
 9606 2233 02       		.uleb128 0x2
 9607 2234 75       		.byte	0x75
 9608 2235 00       		.sleb128 0
 9609 2236 2B       		.uleb128 0x2b
 9610 2237 01       		.uleb128 0x1
 9611 2238 51       		.byte	0x51
 9612 2239 01       		.uleb128 0x1
 9613 223a 32       		.byte	0x32
 9614 223b 2B       		.uleb128 0x2b
 9615 223c 01       		.uleb128 0x1
 9616 223d 52       		.byte	0x52
 9617 223e 02       		.uleb128 0x2
 9618 223f 91       		.byte	0x91
 9619 2240 5C       		.sleb128 -36
 9620 2241 00       		.byte	0
 9621 2242 2A       		.uleb128 0x2a
 9622 2243 B0010000 		.4byte	.LVL417
 9623 2247 663D0000 		.4byte	0x3d66
 9624 224b 62220000 		.4byte	0x2262
 9625 224f 2B       		.uleb128 0x2b
 9626 2250 01       		.uleb128 0x1
 9627 2251 50       		.byte	0x50
 9628 2252 02       		.uleb128 0x2
 9629 2253 75       		.byte	0x75
 9630 2254 00       		.sleb128 0
 9631 2255 2B       		.uleb128 0x2b
 9632 2256 01       		.uleb128 0x1
 9633 2257 51       		.byte	0x51
ARM GAS  /var/folders/3j/4xdnk5197cv_b7cw3n33qk7r0000gn/T//ccLoT9Qc.s 			page 170


 9634 2258 02       		.uleb128 0x2
 9635 2259 08       		.byte	0x8
 9636 225a 50       		.byte	0x50
 9637 225b 2B       		.uleb128 0x2b
 9638 225c 01       		.uleb128 0x1
 9639 225d 52       		.byte	0x52
 9640 225e 02       		.uleb128 0x2
 9641 225f 76       		.byte	0x76
 9642 2260 00       		.sleb128 0
 9643 2261 00       		.byte	0
 9644 2262 2A       		.uleb128 0x2a
 9645 2263 E0010000 		.4byte	.LVL422
 9646 2267 8B240000 		.4byte	0x248b
 9647 226b 7B220000 		.4byte	0x227b
 9648 226f 2B       		.uleb128 0x2b
 9649 2270 01       		.uleb128 0x1
 9650 2271 50       		.byte	0x50
 9651 2272 02       		.uleb128 0x2
 9652 2273 75       		.byte	0x75
 9653 2274 00       		.sleb128 0
 9654 2275 2B       		.uleb128 0x2b
 9655 2276 01       		.uleb128 0x1
 9656 2277 51       		.byte	0x51
 9657 2278 01       		.uleb128 0x1
 9658 2279 32       		.byte	0x32
 9659 227a 00       		.byte	0
 9660 227b 2A       		.uleb128 0x2a
 9661 227c F0010000 		.4byte	.LVL426
 9662 2280 663D0000 		.4byte	0x3d66
 9663 2284 94220000 		.4byte	0x2294
 9664 2288 2B       		.uleb128 0x2b
 9665 2289 01       		.uleb128 0x1
 9666 228a 51       		.byte	0x51
 9667 228b 02       		.uleb128 0x2
 9668 228c 08       		.byte	0x8
 9669 228d 48       		.byte	0x48
 9670 228e 2B       		.uleb128 0x2b
 9671 228f 01       		.uleb128 0x1
 9672 2290 52       		.byte	0x52
 9673 2291 01       		.uleb128 0x1
 9674 2292 40       		.byte	0x40
 9675 2293 00       		.byte	0
 9676 2294 2A       		.uleb128 0x2a
 9677 2295 00020000 		.4byte	.LVL427
 9678 2299 663D0000 		.4byte	0x3d66
 9679 229d B4220000 		.4byte	0x22b4
 9680 22a1 2B       		.uleb128 0x2b
 9681 22a2 01       		.uleb128 0x1
 9682 22a3 50       		.byte	0x50
 9683 22a4 02       		.uleb128 0x2
 9684 22a5 75       		.byte	0x75
 9685 22a6 00       		.sleb128 0
 9686 22a7 2B       		.uleb128 0x2b
 9687 22a8 01       		.uleb128 0x1
 9688 22a9 51       		.byte	0x51
 9689 22aa 02       		.uleb128 0x2
 9690 22ab 08       		.byte	0x8
ARM GAS  /var/folders/3j/4xdnk5197cv_b7cw3n33qk7r0000gn/T//ccLoT9Qc.s 			page 171


 9691 22ac 47       		.byte	0x47
 9692 22ad 2B       		.uleb128 0x2b
 9693 22ae 01       		.uleb128 0x1
 9694 22af 52       		.byte	0x52
 9695 22b0 02       		.uleb128 0x2
 9696 22b1 74       		.byte	0x74
 9697 22b2 00       		.sleb128 0
 9698 22b3 00       		.byte	0
 9699 22b4 2A       		.uleb128 0x2a
 9700 22b5 14020000 		.4byte	.LVL429
 9701 22b9 663D0000 		.4byte	0x3d66
 9702 22bd D3220000 		.4byte	0x22d3
 9703 22c1 2B       		.uleb128 0x2b
 9704 22c2 01       		.uleb128 0x1
 9705 22c3 50       		.byte	0x50
 9706 22c4 02       		.uleb128 0x2
 9707 22c5 75       		.byte	0x75
 9708 22c6 00       		.sleb128 0
 9709 22c7 2B       		.uleb128 0x2b
 9710 22c8 01       		.uleb128 0x1
 9711 22c9 51       		.byte	0x51
 9712 22ca 02       		.uleb128 0x2
 9713 22cb 08       		.byte	0x8
 9714 22cc 32       		.byte	0x32
 9715 22cd 2B       		.uleb128 0x2b
 9716 22ce 01       		.uleb128 0x1
 9717 22cf 52       		.byte	0x52
 9718 22d0 01       		.uleb128 0x1
 9719 22d1 32       		.byte	0x32
 9720 22d2 00       		.byte	0
 9721 22d3 2A       		.uleb128 0x2a
 9722 22d4 28020000 		.4byte	.LVL431
 9723 22d8 663D0000 		.4byte	0x3d66
 9724 22dc F2220000 		.4byte	0x22f2
 9725 22e0 2B       		.uleb128 0x2b
 9726 22e1 01       		.uleb128 0x1
 9727 22e2 50       		.byte	0x50
 9728 22e3 02       		.uleb128 0x2
 9729 22e4 75       		.byte	0x75
 9730 22e5 00       		.sleb128 0
 9731 22e6 2B       		.uleb128 0x2b
 9732 22e7 01       		.uleb128 0x1
 9733 22e8 51       		.byte	0x51
 9734 22e9 02       		.uleb128 0x2
 9735 22ea 08       		.byte	0x8
 9736 22eb 30       		.byte	0x30
 9737 22ec 2B       		.uleb128 0x2b
 9738 22ed 01       		.uleb128 0x1
 9739 22ee 52       		.byte	0x52
 9740 22ef 01       		.uleb128 0x1
 9741 22f0 3C       		.byte	0x3c
 9742 22f1 00       		.byte	0
 9743 22f2 2A       		.uleb128 0x2a
 9744 22f3 40020000 		.4byte	.LVL434
 9745 22f7 663D0000 		.4byte	0x3d66
 9746 22fb 12230000 		.4byte	0x2312
 9747 22ff 2B       		.uleb128 0x2b
ARM GAS  /var/folders/3j/4xdnk5197cv_b7cw3n33qk7r0000gn/T//ccLoT9Qc.s 			page 172


 9748 2300 01       		.uleb128 0x1
 9749 2301 50       		.byte	0x50
 9750 2302 02       		.uleb128 0x2
 9751 2303 75       		.byte	0x75
 9752 2304 00       		.sleb128 0
 9753 2305 2B       		.uleb128 0x2b
 9754 2306 01       		.uleb128 0x1
 9755 2307 51       		.byte	0x51
 9756 2308 02       		.uleb128 0x2
 9757 2309 09       		.byte	0x9
 9758 230a FF       		.byte	0xff
 9759 230b 2B       		.uleb128 0x2b
 9760 230c 01       		.uleb128 0x1
 9761 230d 52       		.byte	0x52
 9762 230e 02       		.uleb128 0x2
 9763 230f 78       		.byte	0x78
 9764 2310 00       		.sleb128 0
 9765 2311 00       		.byte	0
 9766 2312 2A       		.uleb128 0x2a
 9767 2313 58020000 		.4byte	.LVL437
 9768 2317 663D0000 		.4byte	0x3d66
 9769 231b 2C230000 		.4byte	0x232c
 9770 231f 2B       		.uleb128 0x2b
 9771 2320 01       		.uleb128 0x1
 9772 2321 50       		.byte	0x50
 9773 2322 02       		.uleb128 0x2
 9774 2323 75       		.byte	0x75
 9775 2324 00       		.sleb128 0
 9776 2325 2B       		.uleb128 0x2b
 9777 2326 01       		.uleb128 0x1
 9778 2327 51       		.byte	0x51
 9779 2328 02       		.uleb128 0x2
 9780 2329 08       		.byte	0x8
 9781 232a 30       		.byte	0x30
 9782 232b 00       		.byte	0
 9783 232c 2A       		.uleb128 0x2a
 9784 232d 70020000 		.4byte	.LVL440
 9785 2331 663D0000 		.4byte	0x3d66
 9786 2335 4C230000 		.4byte	0x234c
 9787 2339 2B       		.uleb128 0x2b
 9788 233a 01       		.uleb128 0x1
 9789 233b 50       		.byte	0x50
 9790 233c 02       		.uleb128 0x2
 9791 233d 75       		.byte	0x75
 9792 233e 00       		.sleb128 0
 9793 233f 2B       		.uleb128 0x2b
 9794 2340 01       		.uleb128 0x1
 9795 2341 51       		.byte	0x51
 9796 2342 02       		.uleb128 0x2
 9797 2343 09       		.byte	0x9
 9798 2344 FF       		.byte	0xff
 9799 2345 2B       		.uleb128 0x2b
 9800 2346 01       		.uleb128 0x1
 9801 2347 52       		.byte	0x52
 9802 2348 02       		.uleb128 0x2
 9803 2349 77       		.byte	0x77
 9804 234a 00       		.sleb128 0
ARM GAS  /var/folders/3j/4xdnk5197cv_b7cw3n33qk7r0000gn/T//ccLoT9Qc.s 			page 173


 9805 234b 00       		.byte	0
 9806 234c 2A       		.uleb128 0x2a
 9807 234d 94020000 		.4byte	.LVL446
 9808 2351 663D0000 		.4byte	0x3d66
 9809 2355 66230000 		.4byte	0x2366
 9810 2359 2B       		.uleb128 0x2b
 9811 235a 01       		.uleb128 0x1
 9812 235b 51       		.byte	0x51
 9813 235c 02       		.uleb128 0x2
 9814 235d 08       		.byte	0x8
 9815 235e 48       		.byte	0x48
 9816 235f 2B       		.uleb128 0x2b
 9817 2360 01       		.uleb128 0x1
 9818 2361 52       		.byte	0x52
 9819 2362 02       		.uleb128 0x2
 9820 2363 08       		.byte	0x8
 9821 2364 28       		.byte	0x28
 9822 2365 00       		.byte	0
 9823 2366 2A       		.uleb128 0x2a
 9824 2367 A4020000 		.4byte	.LVL447
 9825 236b 663D0000 		.4byte	0x3d66
 9826 236f 85230000 		.4byte	0x2385
 9827 2373 2B       		.uleb128 0x2b
 9828 2374 01       		.uleb128 0x1
 9829 2375 50       		.byte	0x50
 9830 2376 02       		.uleb128 0x2
 9831 2377 75       		.byte	0x75
 9832 2378 00       		.sleb128 0
 9833 2379 2B       		.uleb128 0x2b
 9834 237a 01       		.uleb128 0x1
 9835 237b 51       		.byte	0x51
 9836 237c 02       		.uleb128 0x2
 9837 237d 08       		.byte	0x8
 9838 237e 47       		.byte	0x47
 9839 237f 2B       		.uleb128 0x2b
 9840 2380 01       		.uleb128 0x1
 9841 2381 52       		.byte	0x52
 9842 2382 01       		.uleb128 0x1
 9843 2383 38       		.byte	0x38
 9844 2384 00       		.byte	0
 9845 2385 2A       		.uleb128 0x2a
 9846 2386 B8020000 		.4byte	.LVL449
 9847 238a 663D0000 		.4byte	0x3d66
 9848 238e A4230000 		.4byte	0x23a4
 9849 2392 2B       		.uleb128 0x2b
 9850 2393 01       		.uleb128 0x1
 9851 2394 50       		.byte	0x50
 9852 2395 02       		.uleb128 0x2
 9853 2396 75       		.byte	0x75
 9854 2397 00       		.sleb128 0
 9855 2398 2B       		.uleb128 0x2b
 9856 2399 01       		.uleb128 0x1
 9857 239a 51       		.byte	0x51
 9858 239b 02       		.uleb128 0x2
 9859 239c 08       		.byte	0x8
 9860 239d 32       		.byte	0x32
 9861 239e 2B       		.uleb128 0x2b
ARM GAS  /var/folders/3j/4xdnk5197cv_b7cw3n33qk7r0000gn/T//ccLoT9Qc.s 			page 174


 9862 239f 01       		.uleb128 0x1
 9863 23a0 52       		.byte	0x52
 9864 23a1 01       		.uleb128 0x1
 9865 23a2 33       		.byte	0x33
 9866 23a3 00       		.byte	0
 9867 23a4 2A       		.uleb128 0x2a
 9868 23a5 CC020000 		.4byte	.LVL451
 9869 23a9 663D0000 		.4byte	0x3d66
 9870 23ad BE230000 		.4byte	0x23be
 9871 23b1 2B       		.uleb128 0x2b
 9872 23b2 01       		.uleb128 0x1
 9873 23b3 50       		.byte	0x50
 9874 23b4 02       		.uleb128 0x2
 9875 23b5 75       		.byte	0x75
 9876 23b6 00       		.sleb128 0
 9877 23b7 2B       		.uleb128 0x2b
 9878 23b8 01       		.uleb128 0x1
 9879 23b9 51       		.byte	0x51
 9880 23ba 02       		.uleb128 0x2
 9881 23bb 08       		.byte	0x8
 9882 23bc 30       		.byte	0x30
 9883 23bd 00       		.byte	0
 9884 23be 2A       		.uleb128 0x2a
 9885 23bf E4020000 		.4byte	.LVL454
 9886 23c3 663D0000 		.4byte	0x3d66
 9887 23c7 DE230000 		.4byte	0x23de
 9888 23cb 2B       		.uleb128 0x2b
 9889 23cc 01       		.uleb128 0x1
 9890 23cd 50       		.byte	0x50
 9891 23ce 02       		.uleb128 0x2
 9892 23cf 75       		.byte	0x75
 9893 23d0 00       		.sleb128 0
 9894 23d1 2B       		.uleb128 0x2b
 9895 23d2 01       		.uleb128 0x1
 9896 23d3 51       		.byte	0x51
 9897 23d4 02       		.uleb128 0x2
 9898 23d5 09       		.byte	0x9
 9899 23d6 FF       		.byte	0xff
 9900 23d7 2B       		.uleb128 0x2b
 9901 23d8 01       		.uleb128 0x1
 9902 23d9 52       		.byte	0x52
 9903 23da 02       		.uleb128 0x2
 9904 23db 78       		.byte	0x78
 9905 23dc 00       		.sleb128 0
 9906 23dd 00       		.byte	0
 9907 23de 2A       		.uleb128 0x2a
 9908 23df FC020000 		.4byte	.LVL459
 9909 23e3 663D0000 		.4byte	0x3d66
 9910 23e7 F8230000 		.4byte	0x23f8
 9911 23eb 2B       		.uleb128 0x2b
 9912 23ec 01       		.uleb128 0x1
 9913 23ed 51       		.byte	0x51
 9914 23ee 02       		.uleb128 0x2
 9915 23ef 08       		.byte	0x8
 9916 23f0 48       		.byte	0x48
 9917 23f1 2B       		.uleb128 0x2b
 9918 23f2 01       		.uleb128 0x1
ARM GAS  /var/folders/3j/4xdnk5197cv_b7cw3n33qk7r0000gn/T//ccLoT9Qc.s 			page 175


 9919 23f3 52       		.byte	0x52
 9920 23f4 02       		.uleb128 0x2
 9921 23f5 08       		.byte	0x8
 9922 23f6 38       		.byte	0x38
 9923 23f7 00       		.byte	0
 9924 23f8 2A       		.uleb128 0x2a
 9925 23f9 0C030000 		.4byte	.LVL460
 9926 23fd 663D0000 		.4byte	0x3d66
 9927 2401 17240000 		.4byte	0x2417
 9928 2405 2B       		.uleb128 0x2b
 9929 2406 01       		.uleb128 0x1
 9930 2407 50       		.byte	0x50
 9931 2408 02       		.uleb128 0x2
 9932 2409 75       		.byte	0x75
 9933 240a 00       		.sleb128 0
 9934 240b 2B       		.uleb128 0x2b
 9935 240c 01       		.uleb128 0x1
 9936 240d 51       		.byte	0x51
 9937 240e 02       		.uleb128 0x2
 9938 240f 08       		.byte	0x8
 9939 2410 47       		.byte	0x47
 9940 2411 2B       		.uleb128 0x2b
 9941 2412 01       		.uleb128 0x1
 9942 2413 52       		.byte	0x52
 9943 2414 01       		.uleb128 0x1
 9944 2415 38       		.byte	0x38
 9945 2416 00       		.byte	0
 9946 2417 2A       		.uleb128 0x2a
 9947 2418 20030000 		.4byte	.LVL462
 9948 241c 663D0000 		.4byte	0x3d66
 9949 2420 36240000 		.4byte	0x2436
 9950 2424 2B       		.uleb128 0x2b
 9951 2425 01       		.uleb128 0x1
 9952 2426 50       		.byte	0x50
 9953 2427 02       		.uleb128 0x2
 9954 2428 75       		.byte	0x75
 9955 2429 00       		.sleb128 0
 9956 242a 2B       		.uleb128 0x2b
 9957 242b 01       		.uleb128 0x1
 9958 242c 51       		.byte	0x51
 9959 242d 02       		.uleb128 0x2
 9960 242e 08       		.byte	0x8
 9961 242f 32       		.byte	0x32
 9962 2430 2B       		.uleb128 0x2b
 9963 2431 01       		.uleb128 0x1
 9964 2432 52       		.byte	0x52
 9965 2433 01       		.uleb128 0x1
 9966 2434 33       		.byte	0x33
 9967 2435 00       		.byte	0
 9968 2436 2A       		.uleb128 0x2a
 9969 2437 34030000 		.4byte	.LVL466
 9970 243b 663D0000 		.4byte	0x3d66
 9971 243f 50240000 		.4byte	0x2450
 9972 2443 2B       		.uleb128 0x2b
 9973 2444 01       		.uleb128 0x1
 9974 2445 51       		.byte	0x51
 9975 2446 02       		.uleb128 0x2
ARM GAS  /var/folders/3j/4xdnk5197cv_b7cw3n33qk7r0000gn/T//ccLoT9Qc.s 			page 176


 9976 2447 08       		.byte	0x8
 9977 2448 48       		.byte	0x48
 9978 2449 2B       		.uleb128 0x2b
 9979 244a 01       		.uleb128 0x1
 9980 244b 52       		.byte	0x52
 9981 244c 02       		.uleb128 0x2
 9982 244d 08       		.byte	0x8
 9983 244e 48       		.byte	0x48
 9984 244f 00       		.byte	0
 9985 2450 2A       		.uleb128 0x2a
 9986 2451 44030000 		.4byte	.LVL467
 9987 2455 663D0000 		.4byte	0x3d66
 9988 2459 6F240000 		.4byte	0x246f
 9989 245d 2B       		.uleb128 0x2b
 9990 245e 01       		.uleb128 0x1
 9991 245f 50       		.byte	0x50
 9992 2460 02       		.uleb128 0x2
 9993 2461 75       		.byte	0x75
 9994 2462 00       		.sleb128 0
 9995 2463 2B       		.uleb128 0x2b
 9996 2464 01       		.uleb128 0x1
 9997 2465 51       		.byte	0x51
 9998 2466 02       		.uleb128 0x2
 9999 2467 08       		.byte	0x8
 10000 2468 47       		.byte	0x47
 10001 2469 2B       		.uleb128 0x2b
 10002 246a 01       		.uleb128 0x1
 10003 246b 52       		.byte	0x52
 10004 246c 01       		.uleb128 0x1
 10005 246d 38       		.byte	0x38
 10006 246e 00       		.byte	0
 10007 246f 2C       		.uleb128 0x2c
 10008 2470 58030000 		.4byte	.LVL469
 10009 2474 663D0000 		.4byte	0x3d66
 10010 2478 2B       		.uleb128 0x2b
 10011 2479 01       		.uleb128 0x1
 10012 247a 50       		.byte	0x50
 10013 247b 02       		.uleb128 0x2
 10014 247c 75       		.byte	0x75
 10015 247d 00       		.sleb128 0
 10016 247e 2B       		.uleb128 0x2b
 10017 247f 01       		.uleb128 0x1
 10018 2480 51       		.byte	0x51
 10019 2481 02       		.uleb128 0x2
 10020 2482 08       		.byte	0x8
 10021 2483 32       		.byte	0x32
 10022 2484 2B       		.uleb128 0x2b
 10023 2485 01       		.uleb128 0x1
 10024 2486 52       		.byte	0x52
 10025 2487 01       		.uleb128 0x1
 10026 2488 33       		.byte	0x33
 10027 2489 00       		.byte	0
 10028 248a 00       		.byte	0
 10029 248b 38       		.uleb128 0x38
 10030 248c D3010000 		.4byte	.LASF375
 10031 2490 01       		.byte	0x1
 10032 2491 AF02     		.2byte	0x2af
ARM GAS  /var/folders/3j/4xdnk5197cv_b7cw3n33qk7r0000gn/T//ccLoT9Qc.s 			page 177


 10033 2493 53010000 		.4byte	0x153
 10034 2497 01       		.byte	0x1
 10035 2498 2D250000 		.4byte	0x252d
 10036 249c 39       		.uleb128 0x39
 10037 249d 44657600 		.ascii	"Dev\000"
 10038 24a1 01       		.byte	0x1
 10039 24a2 AF02     		.2byte	0x2af
 10040 24a4 1A0F0000 		.4byte	0xf1a
 10041 24a8 3A       		.uleb128 0x3a
 10042 24a9 07090000 		.4byte	.LASF376
 10043 24ad 01       		.byte	0x1
 10044 24ae B002     		.2byte	0x2b0
 10045 24b0 B0060000 		.4byte	0x6b0
 10046 24b4 3A       		.uleb128 0x3a
 10047 24b5 A71D0000 		.4byte	.LASF377
 10048 24b9 01       		.byte	0x1
 10049 24ba B102     		.2byte	0x2b1
 10050 24bc EF000000 		.4byte	0xef
 10051 24c0 29       		.uleb128 0x29
 10052 24c1 12030000 		.4byte	.LASF243
 10053 24c5 01       		.byte	0x1
 10054 24c6 B302     		.2byte	0x2b3
 10055 24c8 53010000 		.4byte	0x153
 10056 24cc 29       		.uleb128 0x29
 10057 24cd ED0B0000 		.4byte	.LASF378
 10058 24d1 01       		.byte	0x1
 10059 24d2 B402     		.2byte	0x2b4
 10060 24d4 C3000000 		.4byte	0xc3
 10061 24d8 29       		.uleb128 0x29
 10062 24d9 EF090000 		.4byte	.LASF379
 10063 24dd 01       		.byte	0x1
 10064 24de B502     		.2byte	0x2b5
 10065 24e0 C3000000 		.4byte	0xc3
 10066 24e4 29       		.uleb128 0x29
 10067 24e5 08000000 		.4byte	.LASF380
 10068 24e9 01       		.byte	0x1
 10069 24ea B602     		.2byte	0x2b6
 10070 24ec D9000000 		.4byte	0xd9
 10071 24f0 29       		.uleb128 0x29
 10072 24f1 09150000 		.4byte	.LASF381
 10073 24f5 01       		.byte	0x1
 10074 24f6 B702     		.2byte	0x2b7
 10075 24f8 D9000000 		.4byte	0xd9
 10076 24fc 29       		.uleb128 0x29
 10077 24fd 8F1C0000 		.4byte	.LASF382
 10078 2501 01       		.byte	0x1
 10079 2502 B802     		.2byte	0x2b8
 10080 2504 D9000000 		.4byte	0xd9
 10081 2508 29       		.uleb128 0x29
 10082 2509 5C1D0000 		.4byte	.LASF383
 10083 250d 01       		.byte	0x1
 10084 250e B902     		.2byte	0x2b9
 10085 2510 EF000000 		.4byte	0xef
 10086 2514 29       		.uleb128 0x29
 10087 2515 AC010000 		.4byte	.LASF384
 10088 2519 01       		.byte	0x1
 10089 251a BA02     		.2byte	0x2ba
ARM GAS  /var/folders/3j/4xdnk5197cv_b7cw3n33qk7r0000gn/T//ccLoT9Qc.s 			page 178


 10090 251c D9000000 		.4byte	0xd9
 10091 2520 29       		.uleb128 0x29
 10092 2521 41100000 		.4byte	.LASF348
 10093 2525 01       		.byte	0x1
 10094 2526 BB02     		.2byte	0x2bb
 10095 2528 A4060000 		.4byte	0x6a4
 10096 252c 00       		.byte	0
 10097 252d 3B       		.uleb128 0x3b
 10098 252e 6B000000 		.4byte	.LASF385
 10099 2532 01       		.byte	0x1
 10100 2533 4202     		.2byte	0x242
 10101 2535 53010000 		.4byte	0x153
 10102 2539 00000000 		.4byte	.LFB16
 10103 253d 3C020000 		.4byte	.LFE16-.LFB16
 10104 2541 01       		.uleb128 0x1
 10105 2542 9C       		.byte	0x9c
 10106 2543 2F290000 		.4byte	0x292f
 10107 2547 24       		.uleb128 0x24
 10108 2548 44657600 		.ascii	"Dev\000"
 10109 254c 01       		.byte	0x1
 10110 254d 4202     		.2byte	0x242
 10111 254f 1A0F0000 		.4byte	0xf1a
 10112 2553 6D1E0000 		.4byte	.LLST80
 10113 2557 25       		.uleb128 0x25
 10114 2558 07090000 		.4byte	.LASF376
 10115 255c 01       		.byte	0x1
 10116 255d 4302     		.2byte	0x243
 10117 255f B0060000 		.4byte	0x6b0
 10118 2563 DE1E0000 		.4byte	.LLST81
 10119 2567 25       		.uleb128 0x25
 10120 2568 7A170000 		.4byte	.LASF386
 10121 256c 01       		.byte	0x1
 10122 256d 4402     		.2byte	0x244
 10123 256f 7E170000 		.4byte	0x177e
 10124 2573 4A1F0000 		.4byte	.LLST82
 10125 2577 27       		.uleb128 0x27
 10126 2578 12030000 		.4byte	.LASF243
 10127 257c 01       		.byte	0x1
 10128 257d 4602     		.2byte	0x246
 10129 257f 53010000 		.4byte	0x153
 10130 2583 AA1F0000 		.4byte	.LLST83
 10131 2587 28       		.uleb128 0x28
 10132 2588 ED0B0000 		.4byte	.LASF378
 10133 258c 01       		.byte	0x1
 10134 258d 4702     		.2byte	0x247
 10135 258f C3000000 		.4byte	0xc3
 10136 2593 02       		.uleb128 0x2
 10137 2594 91       		.byte	0x91
 10138 2595 5A       		.sleb128 -38
 10139 2596 28       		.uleb128 0x28
 10140 2597 F6140000 		.4byte	.LASF387
 10141 259b 01       		.byte	0x1
 10142 259c 4802     		.2byte	0x248
 10143 259e C3000000 		.4byte	0xc3
 10144 25a2 02       		.uleb128 0x2
 10145 25a3 91       		.byte	0x91
 10146 25a4 5B       		.sleb128 -37
ARM GAS  /var/folders/3j/4xdnk5197cv_b7cw3n33qk7r0000gn/T//ccLoT9Qc.s 			page 179


 10147 25a5 27       		.uleb128 0x27
 10148 25a6 B5040000 		.4byte	.LASF388
 10149 25aa 01       		.byte	0x1
 10150 25ab 4902     		.2byte	0x249
 10151 25ad EF000000 		.4byte	0xef
 10152 25b1 67200000 		.4byte	.LLST84
 10153 25b5 28       		.uleb128 0x28
 10154 25b6 08000000 		.4byte	.LASF380
 10155 25ba 01       		.byte	0x1
 10156 25bb 4A02     		.2byte	0x24a
 10157 25bd D9000000 		.4byte	0xd9
 10158 25c1 02       		.uleb128 0x2
 10159 25c2 91       		.byte	0x91
 10160 25c3 5C       		.sleb128 -36
 10161 25c4 27       		.uleb128 0x27
 10162 25c5 E6100000 		.4byte	.LASF389
 10163 25c9 01       		.byte	0x1
 10164 25ca 4B02     		.2byte	0x24b
 10165 25cc D9000000 		.4byte	0xd9
 10166 25d0 CC200000 		.4byte	.LLST85
 10167 25d4 27       		.uleb128 0x27
 10168 25d5 09150000 		.4byte	.LASF381
 10169 25d9 01       		.byte	0x1
 10170 25da 4C02     		.2byte	0x24c
 10171 25dc D9000000 		.4byte	0xd9
 10172 25e0 E8200000 		.4byte	.LLST86
 10173 25e4 27       		.uleb128 0x27
 10174 25e5 5C1D0000 		.4byte	.LASF383
 10175 25e9 01       		.byte	0x1
 10176 25ea 4D02     		.2byte	0x24d
 10177 25ec D9000000 		.4byte	0xd9
 10178 25f0 61210000 		.4byte	.LLST87
 10179 25f4 28       		.uleb128 0x28
 10180 25f5 AC010000 		.4byte	.LASF384
 10181 25f9 01       		.byte	0x1
 10182 25fa 4E02     		.2byte	0x24e
 10183 25fc D9000000 		.4byte	0xd9
 10184 2600 02       		.uleb128 0x2
 10185 2601 91       		.byte	0x91
 10186 2602 5E       		.sleb128 -34
 10187 2603 28       		.uleb128 0x28
 10188 2604 41100000 		.4byte	.LASF348
 10189 2608 01       		.byte	0x1
 10190 2609 4F02     		.2byte	0x24f
 10191 260b A4060000 		.4byte	0x6a4
 10192 260f 02       		.uleb128 0x2
 10193 2610 91       		.byte	0x91
 10194 2611 60       		.sleb128 -32
 10195 2612 2F       		.uleb128 0x2f
 10196 2613 2F290000 		.4byte	0x292f
 10197 2617 68000000 		.4byte	.LBB144
 10198 261b B0000000 		.4byte	.Ldebug_ranges0+0xb0
 10199 261f 01       		.byte	0x1
 10200 2620 5F02     		.2byte	0x25f
 10201 2622 87260000 		.4byte	0x2687
 10202 2626 30       		.uleb128 0x30
 10203 2627 58290000 		.4byte	0x2958
ARM GAS  /var/folders/3j/4xdnk5197cv_b7cw3n33qk7r0000gn/T//ccLoT9Qc.s 			page 180


 10204 262b C3210000 		.4byte	.LLST88
 10205 262f 30       		.uleb128 0x30
 10206 2630 4C290000 		.4byte	0x294c
 10207 2634 D7210000 		.4byte	.LLST89
 10208 2638 30       		.uleb128 0x30
 10209 2639 40290000 		.4byte	0x2940
 10210 263d F3210000 		.4byte	.LLST90
 10211 2641 31       		.uleb128 0x31
 10212 2642 B0000000 		.4byte	.Ldebug_ranges0+0xb0
 10213 2646 32       		.uleb128 0x32
 10214 2647 C03A0000 		.4byte	0x3ac0
 10215 264b 32       		.uleb128 0x32
 10216 264c C53A0000 		.4byte	0x3ac5
 10217 2650 32       		.uleb128 0x32
 10218 2651 CE3A0000 		.4byte	0x3ace
 10219 2655 34       		.uleb128 0x34
 10220 2656 4F2A0000 		.4byte	0x2a4f
 10221 265a 68000000 		.4byte	.LBB146
 10222 265e D0000000 		.4byte	.Ldebug_ranges0+0xd0
 10223 2662 01       		.byte	0x1
 10224 2663 3802     		.2byte	0x238
 10225 2665 33       		.uleb128 0x33
 10226 2666 6C2A0000 		.4byte	0x2a6c
 10227 266a 33       		.uleb128 0x33
 10228 266b 602A0000 		.4byte	0x2a60
 10229 266f 31       		.uleb128 0x31
 10230 2670 D0000000 		.4byte	.Ldebug_ranges0+0xd0
 10231 2674 32       		.uleb128 0x32
 10232 2675 A0390000 		.4byte	0x39a0
 10233 2679 32       		.uleb128 0x32
 10234 267a A7390000 		.4byte	0x39a7
 10235 267e 32       		.uleb128 0x32
 10236 267f AE390000 		.4byte	0x39ae
 10237 2683 00       		.byte	0
 10238 2684 00       		.byte	0
 10239 2685 00       		.byte	0
 10240 2686 00       		.byte	0
 10241 2687 2F       		.uleb128 0x2f
 10242 2688 E3290000 		.4byte	0x29e3
 10243 268c 88000000 		.4byte	.LBB152
 10244 2690 E8000000 		.4byte	.Ldebug_ranges0+0xe8
 10245 2694 01       		.byte	0x1
 10246 2695 5D02     		.2byte	0x25d
 10247 2697 AC260000 		.4byte	0x26ac
 10248 269b 33       		.uleb128 0x33
 10249 269c F4290000 		.4byte	0x29f4
 10250 26a0 31       		.uleb128 0x31
 10251 26a1 E8000000 		.4byte	.Ldebug_ranges0+0xe8
 10252 26a5 32       		.uleb128 0x32
 10253 26a6 143A0000 		.4byte	0x3a14
 10254 26aa 00       		.byte	0
 10255 26ab 00       		.byte	0
 10256 26ac 35       		.uleb128 0x35
 10257 26ad 2F290000 		.4byte	0x292f
 10258 26b1 E0000000 		.4byte	.LBB158
 10259 26b5 34000000 		.4byte	.LBE158-.LBB158
 10260 26b9 01       		.byte	0x1
ARM GAS  /var/folders/3j/4xdnk5197cv_b7cw3n33qk7r0000gn/T//ccLoT9Qc.s 			page 181


 10261 26ba A402     		.2byte	0x2a4
 10262 26bc 21270000 		.4byte	0x2721
 10263 26c0 30       		.uleb128 0x30
 10264 26c1 58290000 		.4byte	0x2958
 10265 26c5 14220000 		.4byte	.LLST91
 10266 26c9 33       		.uleb128 0x33
 10267 26ca 4C290000 		.4byte	0x294c
 10268 26ce 30       		.uleb128 0x30
 10269 26cf 40290000 		.4byte	0x2940
 10270 26d3 28220000 		.4byte	.LLST92
 10271 26d7 36       		.uleb128 0x36
 10272 26d8 E0000000 		.4byte	.LBB159
 10273 26dc 34000000 		.4byte	.LBE159-.LBB159
 10274 26e0 32       		.uleb128 0x32
 10275 26e1 C03A0000 		.4byte	0x3ac0
 10276 26e5 32       		.uleb128 0x32
 10277 26e6 C53A0000 		.4byte	0x3ac5
 10278 26ea 32       		.uleb128 0x32
 10279 26eb CE3A0000 		.4byte	0x3ace
 10280 26ef 34       		.uleb128 0x34
 10281 26f0 4F2A0000 		.4byte	0x2a4f
 10282 26f4 E0000000 		.4byte	.LBB160
 10283 26f8 00010000 		.4byte	.Ldebug_ranges0+0x100
 10284 26fc 01       		.byte	0x1
 10285 26fd 3802     		.2byte	0x238
 10286 26ff 33       		.uleb128 0x33
 10287 2700 6C2A0000 		.4byte	0x2a6c
 10288 2704 33       		.uleb128 0x33
 10289 2705 602A0000 		.4byte	0x2a60
 10290 2709 31       		.uleb128 0x31
 10291 270a 00010000 		.4byte	.Ldebug_ranges0+0x100
 10292 270e 32       		.uleb128 0x32
 10293 270f A0390000 		.4byte	0x39a0
 10294 2713 32       		.uleb128 0x32
 10295 2714 A7390000 		.4byte	0x39a7
 10296 2718 32       		.uleb128 0x32
 10297 2719 AE390000 		.4byte	0x39ae
 10298 271d 00       		.byte	0
 10299 271e 00       		.byte	0
 10300 271f 00       		.byte	0
 10301 2720 00       		.byte	0
 10302 2721 2F       		.uleb128 0x2f
 10303 2722 2F290000 		.4byte	0x292f
 10304 2726 5C010000 		.4byte	.LBB164
 10305 272a 18010000 		.4byte	.Ldebug_ranges0+0x118
 10306 272e 01       		.byte	0x1
 10307 272f 7902     		.2byte	0x279
 10308 2731 96270000 		.4byte	0x2796
 10309 2735 30       		.uleb128 0x30
 10310 2736 58290000 		.4byte	0x2958
 10311 273a 49220000 		.4byte	.LLST93
 10312 273e 30       		.uleb128 0x30
 10313 273f 4C290000 		.4byte	0x294c
 10314 2743 5D220000 		.4byte	.LLST94
 10315 2747 30       		.uleb128 0x30
 10316 2748 40290000 		.4byte	0x2940
 10317 274c A7220000 		.4byte	.LLST95
ARM GAS  /var/folders/3j/4xdnk5197cv_b7cw3n33qk7r0000gn/T//ccLoT9Qc.s 			page 182


 10318 2750 31       		.uleb128 0x31
 10319 2751 18010000 		.4byte	.Ldebug_ranges0+0x118
 10320 2755 32       		.uleb128 0x32
 10321 2756 C03A0000 		.4byte	0x3ac0
 10322 275a 32       		.uleb128 0x32
 10323 275b C53A0000 		.4byte	0x3ac5
 10324 275f 32       		.uleb128 0x32
 10325 2760 CE3A0000 		.4byte	0x3ace
 10326 2764 34       		.uleb128 0x34
 10327 2765 4F2A0000 		.4byte	0x2a4f
 10328 2769 5C010000 		.4byte	.LBB166
 10329 276d 38010000 		.4byte	.Ldebug_ranges0+0x138
 10330 2771 01       		.byte	0x1
 10331 2772 3802     		.2byte	0x238
 10332 2774 33       		.uleb128 0x33
 10333 2775 6C2A0000 		.4byte	0x2a6c
 10334 2779 33       		.uleb128 0x33
 10335 277a 602A0000 		.4byte	0x2a60
 10336 277e 31       		.uleb128 0x31
 10337 277f 38010000 		.4byte	.Ldebug_ranges0+0x138
 10338 2783 32       		.uleb128 0x32
 10339 2784 A0390000 		.4byte	0x39a0
 10340 2788 32       		.uleb128 0x32
 10341 2789 A7390000 		.4byte	0x39a7
 10342 278d 32       		.uleb128 0x32
 10343 278e AE390000 		.4byte	0x39ae
 10344 2792 00       		.byte	0
 10345 2793 00       		.byte	0
 10346 2794 00       		.byte	0
 10347 2795 00       		.byte	0
 10348 2796 35       		.uleb128 0x35
 10349 2797 E3290000 		.4byte	0x29e3
 10350 279b 80010000 		.4byte	.LBB173
 10351 279f 10000000 		.4byte	.LBE173-.LBB173
 10352 27a3 01       		.byte	0x1
 10353 27a4 7602     		.2byte	0x276
 10354 27a6 BF270000 		.4byte	0x27bf
 10355 27aa 33       		.uleb128 0x33
 10356 27ab F4290000 		.4byte	0x29f4
 10357 27af 36       		.uleb128 0x36
 10358 27b0 80010000 		.4byte	.LBB174
 10359 27b4 10000000 		.4byte	.LBE174-.LBB174
 10360 27b8 32       		.uleb128 0x32
 10361 27b9 143A0000 		.4byte	0x3a14
 10362 27bd 00       		.byte	0
 10363 27be 00       		.byte	0
 10364 27bf 35       		.uleb128 0x35
 10365 27c0 E3290000 		.4byte	0x29e3
 10366 27c4 F0010000 		.4byte	.LBB176
 10367 27c8 10000000 		.4byte	.LBE176-.LBB176
 10368 27cc 01       		.byte	0x1
 10369 27cd 8E02     		.2byte	0x28e
 10370 27cf E8270000 		.4byte	0x27e8
 10371 27d3 33       		.uleb128 0x33
 10372 27d4 F4290000 		.4byte	0x29f4
 10373 27d8 36       		.uleb128 0x36
 10374 27d9 F0010000 		.4byte	.LBB177
ARM GAS  /var/folders/3j/4xdnk5197cv_b7cw3n33qk7r0000gn/T//ccLoT9Qc.s 			page 183


 10375 27dd 10000000 		.4byte	.LBE177-.LBB177
 10376 27e1 32       		.uleb128 0x32
 10377 27e2 143A0000 		.4byte	0x3a14
 10378 27e6 00       		.byte	0
 10379 27e7 00       		.byte	0
 10380 27e8 35       		.uleb128 0x35
 10381 27e9 E3290000 		.4byte	0x29e3
 10382 27ed 20020000 		.4byte	.LBB178
 10383 27f1 1C000000 		.4byte	.LBE178-.LBB178
 10384 27f5 01       		.byte	0x1
 10385 27f6 9F02     		.2byte	0x29f
 10386 27f8 11280000 		.4byte	0x2811
 10387 27fc 33       		.uleb128 0x33
 10388 27fd F4290000 		.4byte	0x29f4
 10389 2801 36       		.uleb128 0x36
 10390 2802 20020000 		.4byte	.LBB179
 10391 2806 1C000000 		.4byte	.LBE179-.LBB179
 10392 280a 32       		.uleb128 0x32
 10393 280b 143A0000 		.4byte	0x3a14
 10394 280f 00       		.byte	0
 10395 2810 00       		.byte	0
 10396 2811 2A       		.uleb128 0x2a
 10397 2812 50000000 		.4byte	.LVL331
 10398 2816 B53D0000 		.4byte	0x3db5
 10399 281a 2B280000 		.4byte	0x282b
 10400 281e 2B       		.uleb128 0x2b
 10401 281f 01       		.uleb128 0x1
 10402 2820 51       		.byte	0x51
 10403 2821 02       		.uleb128 0x2
 10404 2822 74       		.byte	0x74
 10405 2823 00       		.sleb128 0
 10406 2824 2B       		.uleb128 0x2b
 10407 2825 01       		.uleb128 0x1
 10408 2826 52       		.byte	0x52
 10409 2827 02       		.uleb128 0x2
 10410 2828 91       		.byte	0x91
 10411 2829 52       		.sleb128 -46
 10412 282a 00       		.byte	0
 10413 282b 2A       		.uleb128 0x2a
 10414 282c 68000000 		.4byte	.LVL333
 10415 2830 933D0000 		.4byte	0x3d93
 10416 2834 4B280000 		.4byte	0x284b
 10417 2838 2B       		.uleb128 0x2b
 10418 2839 01       		.uleb128 0x1
 10419 283a 50       		.byte	0x50
 10420 283b 02       		.uleb128 0x2
 10421 283c 76       		.byte	0x76
 10422 283d 00       		.sleb128 0
 10423 283e 2B       		.uleb128 0x2b
 10424 283f 01       		.uleb128 0x1
 10425 2840 51       		.byte	0x51
 10426 2841 02       		.uleb128 0x2
 10427 2842 08       		.byte	0x8
 10428 2843 46       		.byte	0x46
 10429 2844 2B       		.uleb128 0x2b
 10430 2845 01       		.uleb128 0x1
 10431 2846 52       		.byte	0x52
ARM GAS  /var/folders/3j/4xdnk5197cv_b7cw3n33qk7r0000gn/T//ccLoT9Qc.s 			page 184


 10432 2847 02       		.uleb128 0x2
 10433 2848 91       		.byte	0x91
 10434 2849 53       		.sleb128 -45
 10435 284a 00       		.byte	0
 10436 284b 2A       		.uleb128 0x2a
 10437 284c B8000000 		.4byte	.LVL338
 10438 2850 873D0000 		.4byte	0x3d87
 10439 2854 5F280000 		.4byte	0x285f
 10440 2858 2B       		.uleb128 0x2b
 10441 2859 01       		.uleb128 0x1
 10442 285a 51       		.byte	0x51
 10443 285b 02       		.uleb128 0x2
 10444 285c 91       		.byte	0x91
 10445 285d 58       		.sleb128 -40
 10446 285e 00       		.byte	0
 10447 285f 2A       		.uleb128 0x2a
 10448 2860 D8000000 		.4byte	.LVL339
 10449 2864 B53D0000 		.4byte	0x3db5
 10450 2868 7F280000 		.4byte	0x287f
 10451 286c 2B       		.uleb128 0x2b
 10452 286d 01       		.uleb128 0x1
 10453 286e 50       		.byte	0x50
 10454 286f 02       		.uleb128 0x2
 10455 2870 76       		.byte	0x76
 10456 2871 00       		.sleb128 0
 10457 2872 2B       		.uleb128 0x2b
 10458 2873 01       		.uleb128 0x1
 10459 2874 51       		.byte	0x51
 10460 2875 02       		.uleb128 0x2
 10461 2876 74       		.byte	0x74
 10462 2877 00       		.sleb128 0
 10463 2878 2B       		.uleb128 0x2b
 10464 2879 01       		.uleb128 0x1
 10465 287a 52       		.byte	0x52
 10466 287b 02       		.uleb128 0x2
 10467 287c 77       		.byte	0x77
 10468 287d 00       		.sleb128 0
 10469 287e 00       		.byte	0
 10470 287f 2A       		.uleb128 0x2a
 10471 2880 2C010000 		.4byte	.LVL347
 10472 2884 B53D0000 		.4byte	0x3db5
 10473 2888 99280000 		.4byte	0x2899
 10474 288c 2B       		.uleb128 0x2b
 10475 288d 01       		.uleb128 0x1
 10476 288e 51       		.byte	0x51
 10477 288f 02       		.uleb128 0x2
 10478 2890 74       		.byte	0x74
 10479 2891 00       		.sleb128 0
 10480 2892 2B       		.uleb128 0x2b
 10481 2893 01       		.uleb128 0x1
 10482 2894 52       		.byte	0x52
 10483 2895 02       		.uleb128 0x2
 10484 2896 91       		.byte	0x91
 10485 2897 52       		.sleb128 -46
 10486 2898 00       		.byte	0
 10487 2899 2A       		.uleb128 0x2a
 10488 289a 44010000 		.4byte	.LVL349
ARM GAS  /var/folders/3j/4xdnk5197cv_b7cw3n33qk7r0000gn/T//ccLoT9Qc.s 			page 185


 10489 289e B53D0000 		.4byte	0x3db5
 10490 28a2 B3280000 		.4byte	0x28b3
 10491 28a6 2B       		.uleb128 0x2b
 10492 28a7 01       		.uleb128 0x1
 10493 28a8 50       		.byte	0x50
 10494 28a9 02       		.uleb128 0x2
 10495 28aa 76       		.byte	0x76
 10496 28ab 00       		.sleb128 0
 10497 28ac 2B       		.uleb128 0x2b
 10498 28ad 01       		.uleb128 0x1
 10499 28ae 52       		.byte	0x52
 10500 28af 02       		.uleb128 0x2
 10501 28b0 91       		.byte	0x91
 10502 28b1 52       		.sleb128 -46
 10503 28b2 00       		.byte	0
 10504 28b3 2A       		.uleb128 0x2a
 10505 28b4 5C010000 		.4byte	.LVL351
 10506 28b8 713D0000 		.4byte	0x3d71
 10507 28bc D3280000 		.4byte	0x28d3
 10508 28c0 2B       		.uleb128 0x2b
 10509 28c1 01       		.uleb128 0x1
 10510 28c2 50       		.byte	0x50
 10511 28c3 02       		.uleb128 0x2
 10512 28c4 76       		.byte	0x76
 10513 28c5 00       		.sleb128 0
 10514 28c6 2B       		.uleb128 0x2b
 10515 28c7 01       		.uleb128 0x1
 10516 28c8 51       		.byte	0x51
 10517 28c9 02       		.uleb128 0x2
 10518 28ca 08       		.byte	0x8
 10519 28cb 51       		.byte	0x51
 10520 28cc 2B       		.uleb128 0x2b
 10521 28cd 01       		.uleb128 0x1
 10522 28ce 52       		.byte	0x52
 10523 28cf 02       		.uleb128 0x2
 10524 28d0 91       		.byte	0x91
 10525 28d1 54       		.sleb128 -44
 10526 28d2 00       		.byte	0
 10527 28d3 2A       		.uleb128 0x2a
 10528 28d4 C4010000 		.4byte	.LVL357
 10529 28d8 B53D0000 		.4byte	0x3db5
 10530 28dc F2280000 		.4byte	0x28f2
 10531 28e0 2B       		.uleb128 0x2b
 10532 28e1 01       		.uleb128 0x1
 10533 28e2 50       		.byte	0x50
 10534 28e3 02       		.uleb128 0x2
 10535 28e4 76       		.byte	0x76
 10536 28e5 00       		.sleb128 0
 10537 28e6 2B       		.uleb128 0x2b
 10538 28e7 01       		.uleb128 0x1
 10539 28e8 51       		.byte	0x51
 10540 28e9 01       		.uleb128 0x1
 10541 28ea 31       		.byte	0x31
 10542 28eb 2B       		.uleb128 0x2b
 10543 28ec 01       		.uleb128 0x1
 10544 28ed 52       		.byte	0x52
 10545 28ee 02       		.uleb128 0x2
ARM GAS  /var/folders/3j/4xdnk5197cv_b7cw3n33qk7r0000gn/T//ccLoT9Qc.s 			page 186


 10546 28ef 77       		.byte	0x77
 10547 28f0 00       		.sleb128 0
 10548 28f1 00       		.byte	0
 10549 28f2 2A       		.uleb128 0x2a
 10550 28f3 E8010000 		.4byte	.LVL360
 10551 28f7 713D0000 		.4byte	0x3d71
 10552 28fb 12290000 		.4byte	0x2912
 10553 28ff 2B       		.uleb128 0x2b
 10554 2900 01       		.uleb128 0x1
 10555 2901 50       		.byte	0x50
 10556 2902 02       		.uleb128 0x2
 10557 2903 76       		.byte	0x76
 10558 2904 00       		.sleb128 0
 10559 2905 2B       		.uleb128 0x2b
 10560 2906 01       		.uleb128 0x1
 10561 2907 51       		.byte	0x51
 10562 2908 02       		.uleb128 0x2
 10563 2909 08       		.byte	0x8
 10564 290a 51       		.byte	0x51
 10565 290b 2B       		.uleb128 0x2b
 10566 290c 01       		.uleb128 0x1
 10567 290d 52       		.byte	0x52
 10568 290e 02       		.uleb128 0x2
 10569 290f 91       		.byte	0x91
 10570 2910 54       		.sleb128 -44
 10571 2911 00       		.byte	0
 10572 2912 2C       		.uleb128 0x2c
 10573 2913 1C020000 		.4byte	.LVL364
 10574 2917 713D0000 		.4byte	0x3d71
 10575 291b 2B       		.uleb128 0x2b
 10576 291c 01       		.uleb128 0x1
 10577 291d 50       		.byte	0x50
 10578 291e 02       		.uleb128 0x2
 10579 291f 76       		.byte	0x76
 10580 2920 00       		.sleb128 0
 10581 2921 2B       		.uleb128 0x2b
 10582 2922 01       		.uleb128 0x1
 10583 2923 51       		.byte	0x51
 10584 2924 02       		.uleb128 0x2
 10585 2925 08       		.byte	0x8
 10586 2926 71       		.byte	0x71
 10587 2927 2B       		.uleb128 0x2b
 10588 2928 01       		.uleb128 0x1
 10589 2929 52       		.byte	0x52
 10590 292a 02       		.uleb128 0x2
 10591 292b 91       		.byte	0x91
 10592 292c 56       		.sleb128 -42
 10593 292d 00       		.byte	0
 10594 292e 00       		.byte	0
 10595 292f 38       		.uleb128 0x38
 10596 2930 EB1A0000 		.4byte	.LASF390
 10597 2934 01       		.byte	0x1
 10598 2935 3002     		.2byte	0x230
 10599 2937 EF000000 		.4byte	0xef
 10600 293b 01       		.byte	0x1
 10601 293c 89290000 		.4byte	0x2989
 10602 2940 39       		.uleb128 0x39
ARM GAS  /var/folders/3j/4xdnk5197cv_b7cw3n33qk7r0000gn/T//ccLoT9Qc.s 			page 187


 10603 2941 44657600 		.ascii	"Dev\000"
 10604 2945 01       		.byte	0x1
 10605 2946 3002     		.2byte	0x230
 10606 2948 1A0F0000 		.4byte	0xf1a
 10607 294c 3A       		.uleb128 0x3a
 10608 294d D7040000 		.4byte	.LASF391
 10609 2951 01       		.byte	0x1
 10610 2952 3102     		.2byte	0x231
 10611 2954 D9000000 		.4byte	0xd9
 10612 2958 3A       		.uleb128 0x3a
 10613 2959 17120000 		.4byte	.LASF392
 10614 295d 01       		.byte	0x1
 10615 295e 3202     		.2byte	0x232
 10616 2960 C3000000 		.4byte	0xc3
 10617 2964 29       		.uleb128 0x29
 10618 2965 3E050000 		.4byte	.LASF393
 10619 2969 01       		.byte	0x1
 10620 296a 3402     		.2byte	0x234
 10621 296c EF000000 		.4byte	0xef
 10622 2970 29       		.uleb128 0x29
 10623 2971 85000000 		.4byte	.LASF394
 10624 2975 01       		.byte	0x1
 10625 2976 3502     		.2byte	0x235
 10626 2978 EF000000 		.4byte	0xef
 10627 297c 29       		.uleb128 0x29
 10628 297d 180A0000 		.4byte	.LASF395
 10629 2981 01       		.byte	0x1
 10630 2982 3602     		.2byte	0x236
 10631 2984 EF000000 		.4byte	0xef
 10632 2988 00       		.byte	0
 10633 2989 38       		.uleb128 0x38
 10634 298a 750A0000 		.4byte	.LASF396
 10635 298e 01       		.byte	0x1
 10636 298f 1D02     		.2byte	0x21d
 10637 2991 EF000000 		.4byte	0xef
 10638 2995 01       		.byte	0x1
 10639 2996 E3290000 		.4byte	0x29e3
 10640 299a 39       		.uleb128 0x39
 10641 299b 44657600 		.ascii	"Dev\000"
 10642 299f 01       		.byte	0x1
 10643 29a0 1D02     		.2byte	0x21d
 10644 29a2 1A0F0000 		.4byte	0xf1a
 10645 29a6 3A       		.uleb128 0x3a
 10646 29a7 4D090000 		.4byte	.LASF397
 10647 29ab 01       		.byte	0x1
 10648 29ac 1E02     		.2byte	0x21e
 10649 29ae EF000000 		.4byte	0xef
 10650 29b2 3A       		.uleb128 0x3a
 10651 29b3 17120000 		.4byte	.LASF392
 10652 29b7 01       		.byte	0x1
 10653 29b8 1F02     		.2byte	0x21f
 10654 29ba C3000000 		.4byte	0xc3
 10655 29be 29       		.uleb128 0x29
 10656 29bf 3E050000 		.4byte	.LASF393
 10657 29c3 01       		.byte	0x1
 10658 29c4 2102     		.2byte	0x221
 10659 29c6 EF000000 		.4byte	0xef
ARM GAS  /var/folders/3j/4xdnk5197cv_b7cw3n33qk7r0000gn/T//ccLoT9Qc.s 			page 188


 10660 29ca 29       		.uleb128 0x29
 10661 29cb 85000000 		.4byte	.LASF394
 10662 29cf 01       		.byte	0x1
 10663 29d0 2202     		.2byte	0x222
 10664 29d2 EF000000 		.4byte	0xef
 10665 29d6 29       		.uleb128 0x29
 10666 29d7 D7040000 		.4byte	.LASF391
 10667 29db 01       		.byte	0x1
 10668 29dc 2302     		.2byte	0x223
 10669 29de EF000000 		.4byte	0xef
 10670 29e2 00       		.byte	0
 10671 29e3 38       		.uleb128 0x38
 10672 29e4 781C0000 		.4byte	.LASF398
 10673 29e8 01       		.byte	0x1
 10674 29e9 0D02     		.2byte	0x20d
 10675 29eb EF000000 		.4byte	0xef
 10676 29ef 01       		.byte	0x1
 10677 29f0 0D2A0000 		.4byte	0x2a0d
 10678 29f4 3A       		.uleb128 0x3a
 10679 29f5 9D040000 		.4byte	.LASF399
 10680 29f9 01       		.byte	0x1
 10681 29fa 0D02     		.2byte	0x20d
 10682 29fc D9000000 		.4byte	0xd9
 10683 2a00 29       		.uleb128 0x29
 10684 2a01 3F1B0000 		.4byte	.LASF400
 10685 2a05 01       		.byte	0x1
 10686 2a06 1302     		.2byte	0x213
 10687 2a08 EF000000 		.4byte	0xef
 10688 2a0c 00       		.byte	0
 10689 2a0d 38       		.uleb128 0x38
 10690 2a0e 760B0000 		.4byte	.LASF401
 10691 2a12 01       		.byte	0x1
 10692 2a13 F301     		.2byte	0x1f3
 10693 2a15 D9000000 		.4byte	0xd9
 10694 2a19 01       		.byte	0x1
 10695 2a1a 4F2A0000 		.4byte	0x2a4f
 10696 2a1e 3A       		.uleb128 0x3a
 10697 2a1f 3F1B0000 		.4byte	.LASF400
 10698 2a23 01       		.byte	0x1
 10699 2a24 F301     		.2byte	0x1f3
 10700 2a26 EF000000 		.4byte	0xef
 10701 2a2a 29       		.uleb128 0x29
 10702 2a2b 9D040000 		.4byte	.LASF399
 10703 2a2f 01       		.byte	0x1
 10704 2a30 F901     		.2byte	0x1f9
 10705 2a32 D9000000 		.4byte	0xd9
 10706 2a36 29       		.uleb128 0x29
 10707 2a37 89130000 		.4byte	.LASF402
 10708 2a3b 01       		.byte	0x1
 10709 2a3c FA01     		.2byte	0x1fa
 10710 2a3e EF000000 		.4byte	0xef
 10711 2a42 29       		.uleb128 0x29
 10712 2a43 00000000 		.4byte	.LASF403
 10713 2a47 01       		.byte	0x1
 10714 2a48 FB01     		.2byte	0x1fb
 10715 2a4a D9000000 		.4byte	0xd9
 10716 2a4e 00       		.byte	0
ARM GAS  /var/folders/3j/4xdnk5197cv_b7cw3n33qk7r0000gn/T//ccLoT9Qc.s 			page 189


 10717 2a4f 38       		.uleb128 0x38
 10718 2a50 7D1A0000 		.4byte	.LASF404
 10719 2a54 01       		.byte	0x1
 10720 2a55 DE01     		.2byte	0x1de
 10721 2a57 EF000000 		.4byte	0xef
 10722 2a5b 01       		.byte	0x1
 10723 2a5c 9D2A0000 		.4byte	0x2a9d
 10724 2a60 39       		.uleb128 0x39
 10725 2a61 44657600 		.ascii	"Dev\000"
 10726 2a65 01       		.byte	0x1
 10727 2a66 DE01     		.2byte	0x1de
 10728 2a68 1A0F0000 		.4byte	0xf1a
 10729 2a6c 3A       		.uleb128 0x3a
 10730 2a6d 17120000 		.4byte	.LASF392
 10731 2a71 01       		.byte	0x1
 10732 2a72 DE01     		.2byte	0x1de
 10733 2a74 C3000000 		.4byte	0xc3
 10734 2a78 29       		.uleb128 0x29
 10735 2a79 8F040000 		.4byte	.LASF405
 10736 2a7d 01       		.byte	0x1
 10737 2a7e E001     		.2byte	0x1e0
 10738 2a80 FF000000 		.4byte	0xff
 10739 2a84 29       		.uleb128 0x29
 10740 2a85 B4140000 		.4byte	.LASF406
 10741 2a89 01       		.byte	0x1
 10742 2a8a E101     		.2byte	0x1e1
 10743 2a8c EF000000 		.4byte	0xef
 10744 2a90 29       		.uleb128 0x29
 10745 2a91 3E050000 		.4byte	.LASF393
 10746 2a95 01       		.byte	0x1
 10747 2a96 E201     		.2byte	0x1e2
 10748 2a98 EF000000 		.4byte	0xef
 10749 2a9c 00       		.byte	0
 10750 2a9d 3E       		.uleb128 0x3e
 10751 2a9e 53130000 		.4byte	.LASF407
 10752 2aa2 01       		.byte	0x1
 10753 2aa3 D3       		.byte	0xd3
 10754 2aa4 53010000 		.4byte	0x153
 10755 2aa8 00000000 		.4byte	.LFB10
 10756 2aac 68080000 		.4byte	.LFE10-.LFB10
 10757 2ab0 01       		.uleb128 0x1
 10758 2ab1 9C       		.byte	0x9c
 10759 2ab2 29330000 		.4byte	0x3329
 10760 2ab6 3F       		.uleb128 0x3f
 10761 2ab7 44657600 		.ascii	"Dev\000"
 10762 2abb 01       		.byte	0x1
 10763 2abc D3       		.byte	0xd3
 10764 2abd 1A0F0000 		.4byte	0xf1a
 10765 2ac1 BA220000 		.4byte	.LLST53
 10766 2ac5 40       		.uleb128 0x40
 10767 2ac6 F4180000 		.4byte	.LASF408
 10768 2aca 01       		.byte	0x1
 10769 2acb D3       		.byte	0xd3
 10770 2acc C3000000 		.4byte	0xc3
 10771 2ad0 F1220000 		.4byte	.LLST54
 10772 2ad4 41       		.uleb128 0x41
 10773 2ad5 12030000 		.4byte	.LASF243
ARM GAS  /var/folders/3j/4xdnk5197cv_b7cw3n33qk7r0000gn/T//ccLoT9Qc.s 			page 190


 10774 2ad9 01       		.byte	0x1
 10775 2ada D6       		.byte	0xd6
 10776 2adb 53010000 		.4byte	0x153
 10777 2adf 2B230000 		.4byte	.LLST55
 10778 2ae3 42       		.uleb128 0x42
 10779 2ae4 72180000 		.4byte	.LASF409
 10780 2ae8 01       		.byte	0x1
 10781 2ae9 D7       		.byte	0xd7
 10782 2aea C3000000 		.4byte	0xc3
 10783 2aee 03       		.uleb128 0x3
 10784 2aef 91       		.byte	0x91
 10785 2af0 AD7F     		.sleb128 -83
 10786 2af2 42       		.uleb128 0x42
 10787 2af3 3F150000 		.4byte	.LASF410
 10788 2af7 01       		.byte	0x1
 10789 2af8 D8       		.byte	0xd8
 10790 2af9 EF000000 		.4byte	0xef
 10791 2afd 03       		.uleb128 0x3
 10792 2afe 91       		.byte	0x91
 10793 2aff B07F     		.sleb128 -80
 10794 2b01 42       		.uleb128 0x42
 10795 2b02 D40A0000 		.4byte	.LASF81
 10796 2b06 01       		.byte	0x1
 10797 2b07 D9       		.byte	0xd9
 10798 2b08 C3000000 		.4byte	0xc3
 10799 2b0c 03       		.uleb128 0x3
 10800 2b0d 91       		.byte	0x91
 10801 2b0e AE7F     		.sleb128 -82
 10802 2b10 42       		.uleb128 0x42
 10803 2b11 B7050000 		.4byte	.LASF82
 10804 2b15 01       		.byte	0x1
 10805 2b16 DA       		.byte	0xda
 10806 2b17 C3000000 		.4byte	0xc3
 10807 2b1b 03       		.uleb128 0x3
 10808 2b1c 91       		.byte	0x91
 10809 2b1d AF7F     		.sleb128 -81
 10810 2b1f 41       		.uleb128 0x41
 10811 2b20 900A0000 		.4byte	.LASF84
 10812 2b24 01       		.byte	0x1
 10813 2b25 DB       		.byte	0xdb
 10814 2b26 C3000000 		.4byte	0xc3
 10815 2b2a D8250000 		.4byte	.LLST56
 10816 2b2e 41       		.uleb128 0x41
 10817 2b2f 95000000 		.4byte	.LASF85
 10818 2b33 01       		.byte	0x1
 10819 2b34 DC       		.byte	0xdc
 10820 2b35 C3000000 		.4byte	0xc3
 10821 2b39 11260000 		.4byte	.LLST57
 10822 2b3d 42       		.uleb128 0x42
 10823 2b3e DA140000 		.4byte	.LASF87
 10824 2b42 01       		.byte	0x1
 10825 2b43 DD       		.byte	0xdd
 10826 2b44 EF000000 		.4byte	0xef
 10827 2b48 03       		.uleb128 0x3
 10828 2b49 91       		.byte	0x91
 10829 2b4a B47F     		.sleb128 -76
 10830 2b4c 42       		.uleb128 0x42
ARM GAS  /var/folders/3j/4xdnk5197cv_b7cw3n33qk7r0000gn/T//ccLoT9Qc.s 			page 191


 10831 2b4d C4000000 		.4byte	.LASF88
 10832 2b51 01       		.byte	0x1
 10833 2b52 DE       		.byte	0xde
 10834 2b53 EF000000 		.4byte	0xef
 10835 2b57 03       		.uleb128 0x3
 10836 2b58 91       		.byte	0x91
 10837 2b59 B87F     		.sleb128 -72
 10838 2b5b 41       		.uleb128 0x41
 10839 2b5c A30A0000 		.4byte	.LASF411
 10840 2b60 01       		.byte	0x1
 10841 2b61 DF       		.byte	0xdf
 10842 2b62 EF000000 		.4byte	0xef
 10843 2b66 4A260000 		.4byte	.LLST58
 10844 2b6a 41       		.uleb128 0x41
 10845 2b6b 98110000 		.4byte	.LASF412
 10846 2b6f 01       		.byte	0x1
 10847 2b70 E0       		.byte	0xe0
 10848 2b71 CE000000 		.4byte	0xce
 10849 2b75 83260000 		.4byte	.LLST59
 10850 2b79 43       		.uleb128 0x43
 10851 2b7a 310A0000 		.4byte	.LASF413
 10852 2b7e 01       		.byte	0x1
 10853 2b7f E1       		.byte	0xe1
 10854 2b80 EF000000 		.4byte	0xef
 10855 2b84 0019     		.2byte	0x1900
 10856 2b86 41       		.uleb128 0x41
 10857 2b87 2C160000 		.4byte	.LASF414
 10858 2b8b 01       		.byte	0x1
 10859 2b8c E2       		.byte	0xe2
 10860 2b8d EF000000 		.4byte	0xef
 10861 2b91 CC260000 		.4byte	.LLST60
 10862 2b95 41       		.uleb128 0x41
 10863 2b96 C8050000 		.4byte	.LASF415
 10864 2b9a 01       		.byte	0x1
 10865 2b9b E3       		.byte	0xe3
 10866 2b9c EF000000 		.4byte	0xef
 10867 2ba0 33270000 		.4byte	.LLST61
 10868 2ba4 42       		.uleb128 0x42
 10869 2ba5 58030000 		.4byte	.LASF83
 10870 2ba9 01       		.byte	0x1
 10871 2baa E4       		.byte	0xe4
 10872 2bab 29330000 		.4byte	0x3329
 10873 2baf 02       		.uleb128 0x2
 10874 2bb0 91       		.byte	0x91
 10875 2bb1 44       		.sleb128 -60
 10876 2bb2 41       		.uleb128 0x41
 10877 2bb3 CA0D0000 		.4byte	.LASF416
 10878 2bb7 01       		.byte	0x1
 10879 2bb8 E5       		.byte	0xe5
 10880 2bb9 A40B0000 		.4byte	0xba4
 10881 2bbd 97270000 		.4byte	.LLST62
 10882 2bc1 42       		.uleb128 0x42
 10883 2bc2 040D0000 		.4byte	.LASF80
 10884 2bc6 01       		.byte	0x1
 10885 2bc7 E6       		.byte	0xe6
 10886 2bc8 C3000000 		.4byte	0xc3
 10887 2bcc 01       		.uleb128 0x1
ARM GAS  /var/folders/3j/4xdnk5197cv_b7cw3n33qk7r0000gn/T//ccLoT9Qc.s 			page 192


 10888 2bcd 57       		.byte	0x57
 10889 2bce 41       		.uleb128 0x41
 10890 2bcf 31090000 		.4byte	.LASF417
 10891 2bd3 01       		.byte	0x1
 10892 2bd4 E7       		.byte	0xe7
 10893 2bd5 11010000 		.4byte	0x111
 10894 2bd9 C6270000 		.4byte	.LLST63
 10895 2bdd 42       		.uleb128 0x42
 10896 2bde A20C0000 		.4byte	.LASF418
 10897 2be2 01       		.byte	0x1
 10898 2be3 E8       		.byte	0xe8
 10899 2be4 1B020000 		.4byte	0x21b
 10900 2be8 03       		.uleb128 0x3
 10901 2be9 91       		.byte	0x91
 10902 2bea BC7F     		.sleb128 -68
 10903 2bec 44       		.uleb128 0x44
 10904 2bed 6900     		.ascii	"i\000"
 10905 2bef 01       		.byte	0x1
 10906 2bf0 E9       		.byte	0xe9
 10907 2bf1 B1000000 		.4byte	0xb1
 10908 2bf5 E6270000 		.4byte	.LLST64
 10909 2bf9 2A       		.uleb128 0x2a
 10910 2bfa 44000000 		.4byte	.LVL110
 10911 2bfe 663D0000 		.4byte	0x3d66
 10912 2c02 182C0000 		.4byte	0x2c18
 10913 2c06 2B       		.uleb128 0x2b
 10914 2c07 01       		.uleb128 0x1
 10915 2c08 50       		.byte	0x50
 10916 2c09 02       		.uleb128 0x2
 10917 2c0a 75       		.byte	0x75
 10918 2c0b 00       		.sleb128 0
 10919 2c0c 2B       		.uleb128 0x2b
 10920 2c0d 01       		.uleb128 0x1
 10921 2c0e 51       		.byte	0x51
 10922 2c0f 02       		.uleb128 0x2
 10923 2c10 09       		.byte	0x9
 10924 2c11 80       		.byte	0x80
 10925 2c12 2B       		.uleb128 0x2b
 10926 2c13 01       		.uleb128 0x1
 10927 2c14 52       		.byte	0x52
 10928 2c15 01       		.uleb128 0x1
 10929 2c16 31       		.byte	0x31
 10930 2c17 00       		.byte	0
 10931 2c18 2A       		.uleb128 0x2a
 10932 2c19 58000000 		.4byte	.LVL112
 10933 2c1d 663D0000 		.4byte	0x3d66
 10934 2c21 372C0000 		.4byte	0x2c37
 10935 2c25 2B       		.uleb128 0x2b
 10936 2c26 01       		.uleb128 0x1
 10937 2c27 50       		.byte	0x50
 10938 2c28 02       		.uleb128 0x2
 10939 2c29 75       		.byte	0x75
 10940 2c2a 00       		.sleb128 0
 10941 2c2b 2B       		.uleb128 0x2b
 10942 2c2c 01       		.uleb128 0x1
 10943 2c2d 51       		.byte	0x51
 10944 2c2e 02       		.uleb128 0x2
ARM GAS  /var/folders/3j/4xdnk5197cv_b7cw3n33qk7r0000gn/T//ccLoT9Qc.s 			page 193


 10945 2c2f 09       		.byte	0x9
 10946 2c30 FF       		.byte	0xff
 10947 2c31 2B       		.uleb128 0x2b
 10948 2c32 01       		.uleb128 0x1
 10949 2c33 52       		.byte	0x52
 10950 2c34 01       		.uleb128 0x1
 10951 2c35 31       		.byte	0x31
 10952 2c36 00       		.byte	0
 10953 2c37 2A       		.uleb128 0x2a
 10954 2c38 6C000000 		.4byte	.LVL114
 10955 2c3c 663D0000 		.4byte	0x3d66
 10956 2c40 572C0000 		.4byte	0x2c57
 10957 2c44 2B       		.uleb128 0x2b
 10958 2c45 01       		.uleb128 0x1
 10959 2c46 50       		.byte	0x50
 10960 2c47 02       		.uleb128 0x2
 10961 2c48 75       		.byte	0x75
 10962 2c49 00       		.sleb128 0
 10963 2c4a 2B       		.uleb128 0x2b
 10964 2c4b 01       		.uleb128 0x1
 10965 2c4c 51       		.byte	0x51
 10966 2c4d 02       		.uleb128 0x2
 10967 2c4e 79       		.byte	0x79
 10968 2c4f 00       		.sleb128 0
 10969 2c50 2B       		.uleb128 0x2b
 10970 2c51 01       		.uleb128 0x1
 10971 2c52 52       		.byte	0x52
 10972 2c53 02       		.uleb128 0x2
 10973 2c54 79       		.byte	0x79
 10974 2c55 00       		.sleb128 0
 10975 2c56 00       		.byte	0
 10976 2c57 2A       		.uleb128 0x2a
 10977 2c58 84000000 		.4byte	.LVL117
 10978 2c5c 663D0000 		.4byte	0x3d66
 10979 2c60 762C0000 		.4byte	0x2c76
 10980 2c64 2B       		.uleb128 0x2b
 10981 2c65 01       		.uleb128 0x1
 10982 2c66 50       		.byte	0x50
 10983 2c67 02       		.uleb128 0x2
 10984 2c68 75       		.byte	0x75
 10985 2c69 00       		.sleb128 0
 10986 2c6a 2B       		.uleb128 0x2b
 10987 2c6b 01       		.uleb128 0x1
 10988 2c6c 51       		.byte	0x51
 10989 2c6d 02       		.uleb128 0x2
 10990 2c6e 09       		.byte	0x9
 10991 2c6f FF       		.byte	0xff
 10992 2c70 2B       		.uleb128 0x2b
 10993 2c71 01       		.uleb128 0x1
 10994 2c72 52       		.byte	0x52
 10995 2c73 01       		.uleb128 0x1
 10996 2c74 36       		.byte	0x36
 10997 2c75 00       		.byte	0
 10998 2c76 2A       		.uleb128 0x2a
 10999 2c77 9C000000 		.4byte	.LVL120
 11000 2c7b 933D0000 		.4byte	0x3d93
 11001 2c7f 972C0000 		.4byte	0x2c97
ARM GAS  /var/folders/3j/4xdnk5197cv_b7cw3n33qk7r0000gn/T//ccLoT9Qc.s 			page 194


 11002 2c83 2B       		.uleb128 0x2b
 11003 2c84 01       		.uleb128 0x1
 11004 2c85 50       		.byte	0x50
 11005 2c86 02       		.uleb128 0x2
 11006 2c87 75       		.byte	0x75
 11007 2c88 00       		.sleb128 0
 11008 2c89 2B       		.uleb128 0x2b
 11009 2c8a 01       		.uleb128 0x1
 11010 2c8b 51       		.byte	0x51
 11011 2c8c 02       		.uleb128 0x2
 11012 2c8d 09       		.byte	0x9
 11013 2c8e 83       		.byte	0x83
 11014 2c8f 2B       		.uleb128 0x2b
 11015 2c90 01       		.uleb128 0x1
 11016 2c91 52       		.byte	0x52
 11017 2c92 03       		.uleb128 0x3
 11018 2c93 91       		.byte	0x91
 11019 2c94 A57F     		.sleb128 -91
 11020 2c96 00       		.byte	0
 11021 2c97 2A       		.uleb128 0x2a
 11022 2c98 B8000000 		.4byte	.LVL123
 11023 2c9c 663D0000 		.4byte	0x3d66
 11024 2ca0 B12C0000 		.4byte	0x2cb1
 11025 2ca4 2B       		.uleb128 0x2b
 11026 2ca5 01       		.uleb128 0x1
 11027 2ca6 50       		.byte	0x50
 11028 2ca7 02       		.uleb128 0x2
 11029 2ca8 75       		.byte	0x75
 11030 2ca9 00       		.sleb128 0
 11031 2caa 2B       		.uleb128 0x2b
 11032 2cab 01       		.uleb128 0x1
 11033 2cac 51       		.byte	0x51
 11034 2cad 02       		.uleb128 0x2
 11035 2cae 09       		.byte	0x9
 11036 2caf 83       		.byte	0x83
 11037 2cb0 00       		.byte	0
 11038 2cb1 2A       		.uleb128 0x2a
 11039 2cb2 D0000000 		.4byte	.LVL126
 11040 2cb6 663D0000 		.4byte	0x3d66
 11041 2cba D02C0000 		.4byte	0x2cd0
 11042 2cbe 2B       		.uleb128 0x2b
 11043 2cbf 01       		.uleb128 0x1
 11044 2cc0 50       		.byte	0x50
 11045 2cc1 02       		.uleb128 0x2
 11046 2cc2 75       		.byte	0x75
 11047 2cc3 00       		.sleb128 0
 11048 2cc4 2B       		.uleb128 0x2b
 11049 2cc5 01       		.uleb128 0x1
 11050 2cc6 51       		.byte	0x51
 11051 2cc7 02       		.uleb128 0x2
 11052 2cc8 09       		.byte	0x9
 11053 2cc9 FF       		.byte	0xff
 11054 2cca 2B       		.uleb128 0x2b
 11055 2ccb 01       		.uleb128 0x1
 11056 2ccc 52       		.byte	0x52
 11057 2ccd 01       		.uleb128 0x1
 11058 2cce 37       		.byte	0x37
ARM GAS  /var/folders/3j/4xdnk5197cv_b7cw3n33qk7r0000gn/T//ccLoT9Qc.s 			page 195


 11059 2ccf 00       		.byte	0
 11060 2cd0 2A       		.uleb128 0x2a
 11061 2cd1 E8000000 		.4byte	.LVL129
 11062 2cd5 663D0000 		.4byte	0x3d66
 11063 2cd9 EF2C0000 		.4byte	0x2cef
 11064 2cdd 2B       		.uleb128 0x2b
 11065 2cde 01       		.uleb128 0x1
 11066 2cdf 50       		.byte	0x50
 11067 2ce0 02       		.uleb128 0x2
 11068 2ce1 75       		.byte	0x75
 11069 2ce2 00       		.sleb128 0
 11070 2ce3 2B       		.uleb128 0x2b
 11071 2ce4 01       		.uleb128 0x1
 11072 2ce5 51       		.byte	0x51
 11073 2ce6 02       		.uleb128 0x2
 11074 2ce7 09       		.byte	0x9
 11075 2ce8 81       		.byte	0x81
 11076 2ce9 2B       		.uleb128 0x2b
 11077 2cea 01       		.uleb128 0x1
 11078 2ceb 52       		.byte	0x52
 11079 2cec 01       		.uleb128 0x1
 11080 2ced 31       		.byte	0x31
 11081 2cee 00       		.byte	0
 11082 2cef 2A       		.uleb128 0x2a
 11083 2cf0 F8000000 		.4byte	.LVL132
 11084 2cf4 C13D0000 		.4byte	0x3dc1
 11085 2cf8 032D0000 		.4byte	0x2d03
 11086 2cfc 2B       		.uleb128 0x2b
 11087 2cfd 01       		.uleb128 0x1
 11088 2cfe 50       		.byte	0x50
 11089 2cff 02       		.uleb128 0x2
 11090 2d00 75       		.byte	0x75
 11091 2d01 00       		.sleb128 0
 11092 2d02 00       		.byte	0
 11093 2d03 2A       		.uleb128 0x2a
 11094 2d04 10010000 		.4byte	.LVL135
 11095 2d08 663D0000 		.4byte	0x3d66
 11096 2d0c 222D0000 		.4byte	0x2d22
 11097 2d10 2B       		.uleb128 0x2b
 11098 2d11 01       		.uleb128 0x1
 11099 2d12 50       		.byte	0x50
 11100 2d13 02       		.uleb128 0x2
 11101 2d14 75       		.byte	0x75
 11102 2d15 00       		.sleb128 0
 11103 2d16 2B       		.uleb128 0x2b
 11104 2d17 01       		.uleb128 0x1
 11105 2d18 51       		.byte	0x51
 11106 2d19 02       		.uleb128 0x2
 11107 2d1a 09       		.byte	0x9
 11108 2d1b 80       		.byte	0x80
 11109 2d1c 2B       		.uleb128 0x2b
 11110 2d1d 01       		.uleb128 0x1
 11111 2d1e 52       		.byte	0x52
 11112 2d1f 01       		.uleb128 0x1
 11113 2d20 31       		.byte	0x31
 11114 2d21 00       		.byte	0
 11115 2d22 2A       		.uleb128 0x2a
ARM GAS  /var/folders/3j/4xdnk5197cv_b7cw3n33qk7r0000gn/T//ccLoT9Qc.s 			page 196


 11116 2d23 84010000 		.4byte	.LVL140
 11117 2d27 663D0000 		.4byte	0x3d66
 11118 2d2b 412D0000 		.4byte	0x2d41
 11119 2d2f 2B       		.uleb128 0x2b
 11120 2d30 01       		.uleb128 0x1
 11121 2d31 50       		.byte	0x50
 11122 2d32 02       		.uleb128 0x2
 11123 2d33 75       		.byte	0x75
 11124 2d34 00       		.sleb128 0
 11125 2d35 2B       		.uleb128 0x2b
 11126 2d36 01       		.uleb128 0x1
 11127 2d37 51       		.byte	0x51
 11128 2d38 02       		.uleb128 0x2
 11129 2d39 09       		.byte	0x9
 11130 2d3a 81       		.byte	0x81
 11131 2d3b 2B       		.uleb128 0x2b
 11132 2d3c 01       		.uleb128 0x1
 11133 2d3d 52       		.byte	0x52
 11134 2d3e 01       		.uleb128 0x1
 11135 2d3f 30       		.byte	0x30
 11136 2d40 00       		.byte	0
 11137 2d41 2A       		.uleb128 0x2a
 11138 2d42 98010000 		.4byte	.LVL142
 11139 2d46 663D0000 		.4byte	0x3d66
 11140 2d4a 602D0000 		.4byte	0x2d60
 11141 2d4e 2B       		.uleb128 0x2b
 11142 2d4f 01       		.uleb128 0x1
 11143 2d50 50       		.byte	0x50
 11144 2d51 02       		.uleb128 0x2
 11145 2d52 75       		.byte	0x75
 11146 2d53 00       		.sleb128 0
 11147 2d54 2B       		.uleb128 0x2b
 11148 2d55 01       		.uleb128 0x1
 11149 2d56 51       		.byte	0x51
 11150 2d57 02       		.uleb128 0x2
 11151 2d58 09       		.byte	0x9
 11152 2d59 FF       		.byte	0xff
 11153 2d5a 2B       		.uleb128 0x2b
 11154 2d5b 01       		.uleb128 0x1
 11155 2d5c 52       		.byte	0x52
 11156 2d5d 01       		.uleb128 0x1
 11157 2d5e 36       		.byte	0x36
 11158 2d5f 00       		.byte	0
 11159 2d60 2A       		.uleb128 0x2a
 11160 2d61 B0010000 		.4byte	.LVL145
 11161 2d65 933D0000 		.4byte	0x3d93
 11162 2d69 812D0000 		.4byte	0x2d81
 11163 2d6d 2B       		.uleb128 0x2b
 11164 2d6e 01       		.uleb128 0x1
 11165 2d6f 50       		.byte	0x50
 11166 2d70 02       		.uleb128 0x2
 11167 2d71 75       		.byte	0x75
 11168 2d72 00       		.sleb128 0
 11169 2d73 2B       		.uleb128 0x2b
 11170 2d74 01       		.uleb128 0x1
 11171 2d75 51       		.byte	0x51
 11172 2d76 02       		.uleb128 0x2
ARM GAS  /var/folders/3j/4xdnk5197cv_b7cw3n33qk7r0000gn/T//ccLoT9Qc.s 			page 197


 11173 2d77 09       		.byte	0x9
 11174 2d78 83       		.byte	0x83
 11175 2d79 2B       		.uleb128 0x2b
 11176 2d7a 01       		.uleb128 0x1
 11177 2d7b 52       		.byte	0x52
 11178 2d7c 03       		.uleb128 0x3
 11179 2d7d 91       		.byte	0x91
 11180 2d7e A57F     		.sleb128 -91
 11181 2d80 00       		.byte	0
 11182 2d81 2A       		.uleb128 0x2a
 11183 2d82 CC010000 		.4byte	.LVL148
 11184 2d86 663D0000 		.4byte	0x3d66
 11185 2d8a 9B2D0000 		.4byte	0x2d9b
 11186 2d8e 2B       		.uleb128 0x2b
 11187 2d8f 01       		.uleb128 0x1
 11188 2d90 50       		.byte	0x50
 11189 2d91 02       		.uleb128 0x2
 11190 2d92 75       		.byte	0x75
 11191 2d93 00       		.sleb128 0
 11192 2d94 2B       		.uleb128 0x2b
 11193 2d95 01       		.uleb128 0x1
 11194 2d96 51       		.byte	0x51
 11195 2d97 02       		.uleb128 0x2
 11196 2d98 09       		.byte	0x9
 11197 2d99 83       		.byte	0x83
 11198 2d9a 00       		.byte	0
 11199 2d9b 2A       		.uleb128 0x2a
 11200 2d9c E4010000 		.4byte	.LVL151
 11201 2da0 663D0000 		.4byte	0x3d66
 11202 2da4 BA2D0000 		.4byte	0x2dba
 11203 2da8 2B       		.uleb128 0x2b
 11204 2da9 01       		.uleb128 0x1
 11205 2daa 50       		.byte	0x50
 11206 2dab 02       		.uleb128 0x2
 11207 2dac 75       		.byte	0x75
 11208 2dad 00       		.sleb128 0
 11209 2dae 2B       		.uleb128 0x2b
 11210 2daf 01       		.uleb128 0x1
 11211 2db0 51       		.byte	0x51
 11212 2db1 02       		.uleb128 0x2
 11213 2db2 09       		.byte	0x9
 11214 2db3 FF       		.byte	0xff
 11215 2db4 2B       		.uleb128 0x2b
 11216 2db5 01       		.uleb128 0x1
 11217 2db6 52       		.byte	0x52
 11218 2db7 01       		.uleb128 0x1
 11219 2db8 31       		.byte	0x31
 11220 2db9 00       		.byte	0
 11221 2dba 2A       		.uleb128 0x2a
 11222 2dbb FC010000 		.4byte	.LVL154
 11223 2dbf 663D0000 		.4byte	0x3d66
 11224 2dc3 D82D0000 		.4byte	0x2dd8
 11225 2dc7 2B       		.uleb128 0x2b
 11226 2dc8 01       		.uleb128 0x1
 11227 2dc9 50       		.byte	0x50
 11228 2dca 02       		.uleb128 0x2
 11229 2dcb 75       		.byte	0x75
ARM GAS  /var/folders/3j/4xdnk5197cv_b7cw3n33qk7r0000gn/T//ccLoT9Qc.s 			page 198


 11230 2dcc 00       		.sleb128 0
 11231 2dcd 2B       		.uleb128 0x2b
 11232 2dce 01       		.uleb128 0x1
 11233 2dcf 51       		.byte	0x51
 11234 2dd0 01       		.uleb128 0x1
 11235 2dd1 30       		.byte	0x30
 11236 2dd2 2B       		.uleb128 0x2b
 11237 2dd3 01       		.uleb128 0x1
 11238 2dd4 52       		.byte	0x52
 11239 2dd5 01       		.uleb128 0x1
 11240 2dd6 31       		.byte	0x31
 11241 2dd7 00       		.byte	0
 11242 2dd8 2A       		.uleb128 0x2a
 11243 2dd9 14020000 		.4byte	.LVL157
 11244 2ddd 663D0000 		.4byte	0x3d66
 11245 2de1 F72D0000 		.4byte	0x2df7
 11246 2de5 2B       		.uleb128 0x2b
 11247 2de6 01       		.uleb128 0x1
 11248 2de7 50       		.byte	0x50
 11249 2de8 02       		.uleb128 0x2
 11250 2de9 75       		.byte	0x75
 11251 2dea 00       		.sleb128 0
 11252 2deb 2B       		.uleb128 0x2b
 11253 2dec 01       		.uleb128 0x1
 11254 2ded 51       		.byte	0x51
 11255 2dee 02       		.uleb128 0x2
 11256 2def 09       		.byte	0x9
 11257 2df0 FF       		.byte	0xff
 11258 2df1 2B       		.uleb128 0x2b
 11259 2df2 01       		.uleb128 0x1
 11260 2df3 52       		.byte	0x52
 11261 2df4 01       		.uleb128 0x1
 11262 2df5 30       		.byte	0x30
 11263 2df6 00       		.byte	0
 11264 2df7 2A       		.uleb128 0x2a
 11265 2df8 2C020000 		.4byte	.LVL160
 11266 2dfc 663D0000 		.4byte	0x3d66
 11267 2e00 162E0000 		.4byte	0x2e16
 11268 2e04 2B       		.uleb128 0x2b
 11269 2e05 01       		.uleb128 0x1
 11270 2e06 50       		.byte	0x50
 11271 2e07 02       		.uleb128 0x2
 11272 2e08 75       		.byte	0x75
 11273 2e09 00       		.sleb128 0
 11274 2e0a 2B       		.uleb128 0x2b
 11275 2e0b 01       		.uleb128 0x1
 11276 2e0c 51       		.byte	0x51
 11277 2e0d 02       		.uleb128 0x2
 11278 2e0e 09       		.byte	0x9
 11279 2e0f 80       		.byte	0x80
 11280 2e10 2B       		.uleb128 0x2b
 11281 2e11 01       		.uleb128 0x1
 11282 2e12 52       		.byte	0x52
 11283 2e13 01       		.uleb128 0x1
 11284 2e14 30       		.byte	0x30
 11285 2e15 00       		.byte	0
 11286 2e16 2A       		.uleb128 0x2a
ARM GAS  /var/folders/3j/4xdnk5197cv_b7cw3n33qk7r0000gn/T//ccLoT9Qc.s 			page 199


 11287 2e17 14030000 		.4byte	.LVL177
 11288 2e1b CC3D0000 		.4byte	0x3dcc
 11289 2e1f 322E0000 		.4byte	0x2e32
 11290 2e23 2B       		.uleb128 0x2b
 11291 2e24 01       		.uleb128 0x1
 11292 2e25 50       		.byte	0x50
 11293 2e26 03       		.uleb128 0x3
 11294 2e27 75       		.byte	0x75
 11295 2e28 F301     		.sleb128 243
 11296 2e2a 2B       		.uleb128 0x2b
 11297 2e2b 01       		.uleb128 0x1
 11298 2e2c 51       		.byte	0x51
 11299 2e2d 03       		.uleb128 0x3
 11300 2e2e 91       		.byte	0x91
 11301 2e2f BC7F     		.sleb128 -68
 11302 2e31 00       		.byte	0
 11303 2e32 2A       		.uleb128 0x2a
 11304 2e33 28030000 		.4byte	.LVL179
 11305 2e37 663D0000 		.4byte	0x3d66
 11306 2e3b 522E0000 		.4byte	0x2e52
 11307 2e3f 2B       		.uleb128 0x2b
 11308 2e40 01       		.uleb128 0x1
 11309 2e41 50       		.byte	0x50
 11310 2e42 02       		.uleb128 0x2
 11311 2e43 75       		.byte	0x75
 11312 2e44 00       		.sleb128 0
 11313 2e45 2B       		.uleb128 0x2b
 11314 2e46 01       		.uleb128 0x1
 11315 2e47 51       		.byte	0x51
 11316 2e48 02       		.uleb128 0x2
 11317 2e49 09       		.byte	0x9
 11318 2e4a 94       		.byte	0x94
 11319 2e4b 2B       		.uleb128 0x2b
 11320 2e4c 01       		.uleb128 0x1
 11321 2e4d 52       		.byte	0x52
 11322 2e4e 02       		.uleb128 0x2
 11323 2e4f 08       		.byte	0x8
 11324 2e50 7B       		.byte	0x7b
 11325 2e51 00       		.byte	0
 11326 2e52 2A       		.uleb128 0x2a
 11327 2e53 34030000 		.4byte	.LVL181
 11328 2e57 39330000 		.4byte	0x3339
 11329 2e5b 662E0000 		.4byte	0x2e66
 11330 2e5f 2B       		.uleb128 0x2b
 11331 2e60 01       		.uleb128 0x1
 11332 2e61 50       		.byte	0x50
 11333 2e62 02       		.uleb128 0x2
 11334 2e63 75       		.byte	0x75
 11335 2e64 00       		.sleb128 0
 11336 2e65 00       		.byte	0
 11337 2e66 2A       		.uleb128 0x2a
 11338 2e67 4C030000 		.4byte	.LVL183
 11339 2e6b D73D0000 		.4byte	0x3dd7
 11340 2e6f 872E0000 		.4byte	0x2e87
 11341 2e73 2B       		.uleb128 0x2b
 11342 2e74 01       		.uleb128 0x1
 11343 2e75 50       		.byte	0x50
ARM GAS  /var/folders/3j/4xdnk5197cv_b7cw3n33qk7r0000gn/T//ccLoT9Qc.s 			page 200


 11344 2e76 02       		.uleb128 0x2
 11345 2e77 75       		.byte	0x75
 11346 2e78 00       		.sleb128 0
 11347 2e79 2B       		.uleb128 0x2b
 11348 2e7a 01       		.uleb128 0x1
 11349 2e7b 51       		.byte	0x51
 11350 2e7c 02       		.uleb128 0x2
 11351 2e7d 09       		.byte	0x9
 11352 2e7e 90       		.byte	0x90
 11353 2e7f 2B       		.uleb128 0x2b
 11354 2e80 01       		.uleb128 0x1
 11355 2e81 52       		.byte	0x52
 11356 2e82 03       		.uleb128 0x3
 11357 2e83 91       		.byte	0x91
 11358 2e84 AC7F     		.sleb128 -84
 11359 2e86 00       		.byte	0
 11360 2e87 2A       		.uleb128 0x2a
 11361 2e88 64030000 		.4byte	.LVL186
 11362 2e8c 663D0000 		.4byte	0x3d66
 11363 2e90 A72E0000 		.4byte	0x2ea7
 11364 2e94 2B       		.uleb128 0x2b
 11365 2e95 01       		.uleb128 0x1
 11366 2e96 50       		.byte	0x50
 11367 2e97 02       		.uleb128 0x2
 11368 2e98 75       		.byte	0x75
 11369 2e99 00       		.sleb128 0
 11370 2e9a 2B       		.uleb128 0x2b
 11371 2e9b 01       		.uleb128 0x1
 11372 2e9c 51       		.byte	0x51
 11373 2e9d 02       		.uleb128 0x2
 11374 2e9e 09       		.byte	0x9
 11375 2e9f 94       		.byte	0x94
 11376 2ea0 2B       		.uleb128 0x2b
 11377 2ea1 01       		.uleb128 0x1
 11378 2ea2 52       		.byte	0x52
 11379 2ea3 02       		.uleb128 0x2
 11380 2ea4 08       		.byte	0x8
 11381 2ea5 7C       		.byte	0x7c
 11382 2ea6 00       		.byte	0
 11383 2ea7 2A       		.uleb128 0x2a
 11384 2ea8 74030000 		.4byte	.LVL189
 11385 2eac 39330000 		.4byte	0x3339
 11386 2eb0 BB2E0000 		.4byte	0x2ebb
 11387 2eb4 2B       		.uleb128 0x2b
 11388 2eb5 01       		.uleb128 0x1
 11389 2eb6 50       		.byte	0x50
 11390 2eb7 02       		.uleb128 0x2
 11391 2eb8 75       		.byte	0x75
 11392 2eb9 00       		.sleb128 0
 11393 2eba 00       		.byte	0
 11394 2ebb 2A       		.uleb128 0x2a
 11395 2ebc 8C030000 		.4byte	.LVL192
 11396 2ec0 D73D0000 		.4byte	0x3dd7
 11397 2ec4 DC2E0000 		.4byte	0x2edc
 11398 2ec8 2B       		.uleb128 0x2b
 11399 2ec9 01       		.uleb128 0x1
 11400 2eca 50       		.byte	0x50
ARM GAS  /var/folders/3j/4xdnk5197cv_b7cw3n33qk7r0000gn/T//ccLoT9Qc.s 			page 201


 11401 2ecb 02       		.uleb128 0x2
 11402 2ecc 75       		.byte	0x75
 11403 2ecd 00       		.sleb128 0
 11404 2ece 2B       		.uleb128 0x2b
 11405 2ecf 01       		.uleb128 0x1
 11406 2ed0 51       		.byte	0x51
 11407 2ed1 02       		.uleb128 0x2
 11408 2ed2 09       		.byte	0x9
 11409 2ed3 90       		.byte	0x90
 11410 2ed4 2B       		.uleb128 0x2b
 11411 2ed5 01       		.uleb128 0x1
 11412 2ed6 52       		.byte	0x52
 11413 2ed7 03       		.uleb128 0x3
 11414 2ed8 91       		.byte	0x91
 11415 2ed9 B07F     		.sleb128 -80
 11416 2edb 00       		.byte	0
 11417 2edc 2A       		.uleb128 0x2a
 11418 2edd A4030000 		.4byte	.LVL195
 11419 2ee1 663D0000 		.4byte	0x3d66
 11420 2ee5 FC2E0000 		.4byte	0x2efc
 11421 2ee9 2B       		.uleb128 0x2b
 11422 2eea 01       		.uleb128 0x1
 11423 2eeb 50       		.byte	0x50
 11424 2eec 02       		.uleb128 0x2
 11425 2eed 75       		.byte	0x75
 11426 2eee 00       		.sleb128 0
 11427 2eef 2B       		.uleb128 0x2b
 11428 2ef0 01       		.uleb128 0x1
 11429 2ef1 51       		.byte	0x51
 11430 2ef2 02       		.uleb128 0x2
 11431 2ef3 09       		.byte	0x9
 11432 2ef4 94       		.byte	0x94
 11433 2ef5 2B       		.uleb128 0x2b
 11434 2ef6 01       		.uleb128 0x1
 11435 2ef7 52       		.byte	0x52
 11436 2ef8 02       		.uleb128 0x2
 11437 2ef9 08       		.byte	0x8
 11438 2efa 73       		.byte	0x73
 11439 2efb 00       		.byte	0
 11440 2efc 2A       		.uleb128 0x2a
 11441 2efd B4030000 		.4byte	.LVL198
 11442 2f01 39330000 		.4byte	0x3339
 11443 2f05 102F0000 		.4byte	0x2f10
 11444 2f09 2B       		.uleb128 0x2b
 11445 2f0a 01       		.uleb128 0x1
 11446 2f0b 50       		.byte	0x50
 11447 2f0c 02       		.uleb128 0x2
 11448 2f0d 75       		.byte	0x75
 11449 2f0e 00       		.sleb128 0
 11450 2f0f 00       		.byte	0
 11451 2f10 2A       		.uleb128 0x2a
 11452 2f11 CC030000 		.4byte	.LVL201
 11453 2f15 D73D0000 		.4byte	0x3dd7
 11454 2f19 312F0000 		.4byte	0x2f31
 11455 2f1d 2B       		.uleb128 0x2b
 11456 2f1e 01       		.uleb128 0x1
 11457 2f1f 50       		.byte	0x50
ARM GAS  /var/folders/3j/4xdnk5197cv_b7cw3n33qk7r0000gn/T//ccLoT9Qc.s 			page 202


 11458 2f20 02       		.uleb128 0x2
 11459 2f21 75       		.byte	0x75
 11460 2f22 00       		.sleb128 0
 11461 2f23 2B       		.uleb128 0x2b
 11462 2f24 01       		.uleb128 0x1
 11463 2f25 51       		.byte	0x51
 11464 2f26 02       		.uleb128 0x2
 11465 2f27 09       		.byte	0x9
 11466 2f28 90       		.byte	0x90
 11467 2f29 2B       		.uleb128 0x2b
 11468 2f2a 01       		.uleb128 0x1
 11469 2f2b 52       		.byte	0x52
 11470 2f2c 03       		.uleb128 0x3
 11471 2f2d 91       		.byte	0x91
 11472 2f2e A87F     		.sleb128 -88
 11473 2f30 00       		.byte	0
 11474 2f31 2A       		.uleb128 0x2a
 11475 2f32 E8030000 		.4byte	.LVL204
 11476 2f36 663D0000 		.4byte	0x3d66
 11477 2f3a 512F0000 		.4byte	0x2f51
 11478 2f3e 2B       		.uleb128 0x2b
 11479 2f3f 01       		.uleb128 0x1
 11480 2f40 50       		.byte	0x50
 11481 2f41 02       		.uleb128 0x2
 11482 2f42 75       		.byte	0x75
 11483 2f43 00       		.sleb128 0
 11484 2f44 2B       		.uleb128 0x2b
 11485 2f45 01       		.uleb128 0x1
 11486 2f46 51       		.byte	0x51
 11487 2f47 02       		.uleb128 0x2
 11488 2f48 09       		.byte	0x9
 11489 2f49 94       		.byte	0x94
 11490 2f4a 2B       		.uleb128 0x2b
 11491 2f4b 01       		.uleb128 0x1
 11492 2f4c 52       		.byte	0x52
 11493 2f4d 02       		.uleb128 0x2
 11494 2f4e 08       		.byte	0x8
 11495 2f4f 74       		.byte	0x74
 11496 2f50 00       		.byte	0
 11497 2f51 2A       		.uleb128 0x2a
 11498 2f52 F8030000 		.4byte	.LVL207
 11499 2f56 39330000 		.4byte	0x3339
 11500 2f5a 652F0000 		.4byte	0x2f65
 11501 2f5e 2B       		.uleb128 0x2b
 11502 2f5f 01       		.uleb128 0x1
 11503 2f60 50       		.byte	0x50
 11504 2f61 02       		.uleb128 0x2
 11505 2f62 75       		.byte	0x75
 11506 2f63 00       		.sleb128 0
 11507 2f64 00       		.byte	0
 11508 2f65 2A       		.uleb128 0x2a
 11509 2f66 10040000 		.4byte	.LVL208
 11510 2f6a D73D0000 		.4byte	0x3dd7
 11511 2f6e 862F0000 		.4byte	0x2f86
 11512 2f72 2B       		.uleb128 0x2b
 11513 2f73 01       		.uleb128 0x1
 11514 2f74 50       		.byte	0x50
ARM GAS  /var/folders/3j/4xdnk5197cv_b7cw3n33qk7r0000gn/T//ccLoT9Qc.s 			page 203


 11515 2f75 02       		.uleb128 0x2
 11516 2f76 75       		.byte	0x75
 11517 2f77 00       		.sleb128 0
 11518 2f78 2B       		.uleb128 0x2b
 11519 2f79 01       		.uleb128 0x1
 11520 2f7a 51       		.byte	0x51
 11521 2f7b 02       		.uleb128 0x2
 11522 2f7c 09       		.byte	0x9
 11523 2f7d 90       		.byte	0x90
 11524 2f7e 2B       		.uleb128 0x2b
 11525 2f7f 01       		.uleb128 0x1
 11526 2f80 52       		.byte	0x52
 11527 2f81 03       		.uleb128 0x3
 11528 2f82 91       		.byte	0x91
 11529 2f83 A87F     		.sleb128 -88
 11530 2f85 00       		.byte	0
 11531 2f86 2A       		.uleb128 0x2a
 11532 2f87 34040000 		.4byte	.LVL210
 11533 2f8b 663D0000 		.4byte	0x3d66
 11534 2f8f A62F0000 		.4byte	0x2fa6
 11535 2f93 2B       		.uleb128 0x2b
 11536 2f94 01       		.uleb128 0x1
 11537 2f95 50       		.byte	0x50
 11538 2f96 02       		.uleb128 0x2
 11539 2f97 75       		.byte	0x75
 11540 2f98 00       		.sleb128 0
 11541 2f99 2B       		.uleb128 0x2b
 11542 2f9a 01       		.uleb128 0x1
 11543 2f9b 51       		.byte	0x51
 11544 2f9c 02       		.uleb128 0x2
 11545 2f9d 09       		.byte	0x9
 11546 2f9e 94       		.byte	0x94
 11547 2f9f 2B       		.uleb128 0x2b
 11548 2fa0 01       		.uleb128 0x1
 11549 2fa1 52       		.byte	0x52
 11550 2fa2 02       		.uleb128 0x2
 11551 2fa3 08       		.byte	0x8
 11552 2fa4 75       		.byte	0x75
 11553 2fa5 00       		.byte	0
 11554 2fa6 2A       		.uleb128 0x2a
 11555 2fa7 44040000 		.4byte	.LVL213
 11556 2fab 39330000 		.4byte	0x3339
 11557 2faf BA2F0000 		.4byte	0x2fba
 11558 2fb3 2B       		.uleb128 0x2b
 11559 2fb4 01       		.uleb128 0x1
 11560 2fb5 50       		.byte	0x50
 11561 2fb6 02       		.uleb128 0x2
 11562 2fb7 75       		.byte	0x75
 11563 2fb8 00       		.sleb128 0
 11564 2fb9 00       		.byte	0
 11565 2fba 2A       		.uleb128 0x2a
 11566 2fbb 5C040000 		.4byte	.LVL214
 11567 2fbf D73D0000 		.4byte	0x3dd7
 11568 2fc3 DB2F0000 		.4byte	0x2fdb
 11569 2fc7 2B       		.uleb128 0x2b
 11570 2fc8 01       		.uleb128 0x1
 11571 2fc9 50       		.byte	0x50
ARM GAS  /var/folders/3j/4xdnk5197cv_b7cw3n33qk7r0000gn/T//ccLoT9Qc.s 			page 204


 11572 2fca 02       		.uleb128 0x2
 11573 2fcb 75       		.byte	0x75
 11574 2fcc 00       		.sleb128 0
 11575 2fcd 2B       		.uleb128 0x2b
 11576 2fce 01       		.uleb128 0x1
 11577 2fcf 51       		.byte	0x51
 11578 2fd0 02       		.uleb128 0x2
 11579 2fd1 09       		.byte	0x9
 11580 2fd2 90       		.byte	0x90
 11581 2fd3 2B       		.uleb128 0x2b
 11582 2fd4 01       		.uleb128 0x1
 11583 2fd5 52       		.byte	0x52
 11584 2fd6 03       		.uleb128 0x3
 11585 2fd7 91       		.byte	0x91
 11586 2fd8 A87F     		.sleb128 -88
 11587 2fda 00       		.byte	0
 11588 2fdb 2A       		.uleb128 0x2a
 11589 2fdc 7C040000 		.4byte	.LVL216
 11590 2fe0 663D0000 		.4byte	0x3d66
 11591 2fe4 FB2F0000 		.4byte	0x2ffb
 11592 2fe8 2B       		.uleb128 0x2b
 11593 2fe9 01       		.uleb128 0x1
 11594 2fea 50       		.byte	0x50
 11595 2feb 02       		.uleb128 0x2
 11596 2fec 75       		.byte	0x75
 11597 2fed 00       		.sleb128 0
 11598 2fee 2B       		.uleb128 0x2b
 11599 2fef 01       		.uleb128 0x1
 11600 2ff0 51       		.byte	0x51
 11601 2ff1 02       		.uleb128 0x2
 11602 2ff2 09       		.byte	0x9
 11603 2ff3 94       		.byte	0x94
 11604 2ff4 2B       		.uleb128 0x2b
 11605 2ff5 01       		.uleb128 0x1
 11606 2ff6 52       		.byte	0x52
 11607 2ff7 02       		.uleb128 0x2
 11608 2ff8 08       		.byte	0x8
 11609 2ff9 76       		.byte	0x76
 11610 2ffa 00       		.byte	0
 11611 2ffb 2A       		.uleb128 0x2a
 11612 2ffc 8C040000 		.4byte	.LVL219
 11613 3000 39330000 		.4byte	0x3339
 11614 3004 0F300000 		.4byte	0x300f
 11615 3008 2B       		.uleb128 0x2b
 11616 3009 01       		.uleb128 0x1
 11617 300a 50       		.byte	0x50
 11618 300b 02       		.uleb128 0x2
 11619 300c 75       		.byte	0x75
 11620 300d 00       		.sleb128 0
 11621 300e 00       		.byte	0
 11622 300f 2A       		.uleb128 0x2a
 11623 3010 A4040000 		.4byte	.LVL220
 11624 3014 D73D0000 		.4byte	0x3dd7
 11625 3018 30300000 		.4byte	0x3030
 11626 301c 2B       		.uleb128 0x2b
 11627 301d 01       		.uleb128 0x1
 11628 301e 50       		.byte	0x50
ARM GAS  /var/folders/3j/4xdnk5197cv_b7cw3n33qk7r0000gn/T//ccLoT9Qc.s 			page 205


 11629 301f 02       		.uleb128 0x2
 11630 3020 75       		.byte	0x75
 11631 3021 00       		.sleb128 0
 11632 3022 2B       		.uleb128 0x2b
 11633 3023 01       		.uleb128 0x1
 11634 3024 51       		.byte	0x51
 11635 3025 02       		.uleb128 0x2
 11636 3026 09       		.byte	0x9
 11637 3027 90       		.byte	0x90
 11638 3028 2B       		.uleb128 0x2b
 11639 3029 01       		.uleb128 0x1
 11640 302a 52       		.byte	0x52
 11641 302b 03       		.uleb128 0x3
 11642 302c 91       		.byte	0x91
 11643 302d A87F     		.sleb128 -88
 11644 302f 00       		.byte	0
 11645 3030 2A       		.uleb128 0x2a
 11646 3031 D4040000 		.4byte	.LVL226
 11647 3035 663D0000 		.4byte	0x3d66
 11648 3039 4F300000 		.4byte	0x304f
 11649 303d 2B       		.uleb128 0x2b
 11650 303e 01       		.uleb128 0x1
 11651 303f 50       		.byte	0x50
 11652 3040 02       		.uleb128 0x2
 11653 3041 75       		.byte	0x75
 11654 3042 00       		.sleb128 0
 11655 3043 2B       		.uleb128 0x2b
 11656 3044 01       		.uleb128 0x1
 11657 3045 51       		.byte	0x51
 11658 3046 02       		.uleb128 0x2
 11659 3047 09       		.byte	0x9
 11660 3048 94       		.byte	0x94
 11661 3049 2B       		.uleb128 0x2b
 11662 304a 01       		.uleb128 0x1
 11663 304b 52       		.byte	0x52
 11664 304c 01       		.uleb128 0x1
 11665 304d 32       		.byte	0x32
 11666 304e 00       		.byte	0
 11667 304f 2A       		.uleb128 0x2a
 11668 3050 E0040000 		.4byte	.LVL228
 11669 3054 39330000 		.4byte	0x3339
 11670 3058 63300000 		.4byte	0x3063
 11671 305c 2B       		.uleb128 0x2b
 11672 305d 01       		.uleb128 0x1
 11673 305e 50       		.byte	0x50
 11674 305f 02       		.uleb128 0x2
 11675 3060 75       		.byte	0x75
 11676 3061 00       		.sleb128 0
 11677 3062 00       		.byte	0
 11678 3063 2A       		.uleb128 0x2a
 11679 3064 F8040000 		.4byte	.LVL230
 11680 3068 933D0000 		.4byte	0x3d93
 11681 306c 84300000 		.4byte	0x3084
 11682 3070 2B       		.uleb128 0x2b
 11683 3071 01       		.uleb128 0x1
 11684 3072 50       		.byte	0x50
 11685 3073 02       		.uleb128 0x2
ARM GAS  /var/folders/3j/4xdnk5197cv_b7cw3n33qk7r0000gn/T//ccLoT9Qc.s 			page 206


 11686 3074 75       		.byte	0x75
 11687 3075 00       		.sleb128 0
 11688 3076 2B       		.uleb128 0x2b
 11689 3077 01       		.uleb128 0x1
 11690 3078 51       		.byte	0x51
 11691 3079 02       		.uleb128 0x2
 11692 307a 09       		.byte	0x9
 11693 307b 90       		.byte	0x90
 11694 307c 2B       		.uleb128 0x2b
 11695 307d 01       		.uleb128 0x1
 11696 307e 52       		.byte	0x52
 11697 307f 03       		.uleb128 0x3
 11698 3080 91       		.byte	0x91
 11699 3081 A67F     		.sleb128 -90
 11700 3083 00       		.byte	0
 11701 3084 2A       		.uleb128 0x2a
 11702 3085 10050000 		.4byte	.LVL233
 11703 3089 663D0000 		.4byte	0x3d66
 11704 308d A4300000 		.4byte	0x30a4
 11705 3091 2B       		.uleb128 0x2b
 11706 3092 01       		.uleb128 0x1
 11707 3093 50       		.byte	0x50
 11708 3094 02       		.uleb128 0x2
 11709 3095 75       		.byte	0x75
 11710 3096 00       		.sleb128 0
 11711 3097 2B       		.uleb128 0x2b
 11712 3098 01       		.uleb128 0x1
 11713 3099 51       		.byte	0x51
 11714 309a 02       		.uleb128 0x2
 11715 309b 09       		.byte	0x9
 11716 309c 94       		.byte	0x94
 11717 309d 2B       		.uleb128 0x2b
 11718 309e 01       		.uleb128 0x1
 11719 309f 52       		.byte	0x52
 11720 30a0 02       		.uleb128 0x2
 11721 30a1 08       		.byte	0x8
 11722 30a2 7B       		.byte	0x7b
 11723 30a3 00       		.byte	0
 11724 30a4 2A       		.uleb128 0x2a
 11725 30a5 20050000 		.4byte	.LVL236
 11726 30a9 39330000 		.4byte	0x3339
 11727 30ad B8300000 		.4byte	0x30b8
 11728 30b1 2B       		.uleb128 0x2b
 11729 30b2 01       		.uleb128 0x1
 11730 30b3 50       		.byte	0x50
 11731 30b4 02       		.uleb128 0x2
 11732 30b5 75       		.byte	0x75
 11733 30b6 00       		.sleb128 0
 11734 30b7 00       		.byte	0
 11735 30b8 2A       		.uleb128 0x2a
 11736 30b9 38050000 		.4byte	.LVL239
 11737 30bd 933D0000 		.4byte	0x3d93
 11738 30c1 D9300000 		.4byte	0x30d9
 11739 30c5 2B       		.uleb128 0x2b
 11740 30c6 01       		.uleb128 0x1
 11741 30c7 50       		.byte	0x50
 11742 30c8 02       		.uleb128 0x2
ARM GAS  /var/folders/3j/4xdnk5197cv_b7cw3n33qk7r0000gn/T//ccLoT9Qc.s 			page 207


 11743 30c9 75       		.byte	0x75
 11744 30ca 00       		.sleb128 0
 11745 30cb 2B       		.uleb128 0x2b
 11746 30cc 01       		.uleb128 0x1
 11747 30cd 51       		.byte	0x51
 11748 30ce 02       		.uleb128 0x2
 11749 30cf 09       		.byte	0x9
 11750 30d0 90       		.byte	0x90
 11751 30d1 2B       		.uleb128 0x2b
 11752 30d2 01       		.uleb128 0x1
 11753 30d3 52       		.byte	0x52
 11754 30d4 03       		.uleb128 0x3
 11755 30d5 91       		.byte	0x91
 11756 30d6 A77F     		.sleb128 -89
 11757 30d8 00       		.byte	0
 11758 30d9 2A       		.uleb128 0x2a
 11759 30da 50050000 		.4byte	.LVL242
 11760 30de 663D0000 		.4byte	0x3d66
 11761 30e2 F9300000 		.4byte	0x30f9
 11762 30e6 2B       		.uleb128 0x2b
 11763 30e7 01       		.uleb128 0x1
 11764 30e8 50       		.byte	0x50
 11765 30e9 02       		.uleb128 0x2
 11766 30ea 75       		.byte	0x75
 11767 30eb 00       		.sleb128 0
 11768 30ec 2B       		.uleb128 0x2b
 11769 30ed 01       		.uleb128 0x1
 11770 30ee 51       		.byte	0x51
 11771 30ef 02       		.uleb128 0x2
 11772 30f0 09       		.byte	0x9
 11773 30f1 94       		.byte	0x94
 11774 30f2 2B       		.uleb128 0x2b
 11775 30f3 01       		.uleb128 0x1
 11776 30f4 52       		.byte	0x52
 11777 30f5 02       		.uleb128 0x2
 11778 30f6 08       		.byte	0x8
 11779 30f7 77       		.byte	0x77
 11780 30f8 00       		.byte	0
 11781 30f9 2A       		.uleb128 0x2a
 11782 30fa 60050000 		.4byte	.LVL245
 11783 30fe 39330000 		.4byte	0x3339
 11784 3102 0D310000 		.4byte	0x310d
 11785 3106 2B       		.uleb128 0x2b
 11786 3107 01       		.uleb128 0x1
 11787 3108 50       		.byte	0x50
 11788 3109 02       		.uleb128 0x2
 11789 310a 75       		.byte	0x75
 11790 310b 00       		.sleb128 0
 11791 310c 00       		.byte	0
 11792 310d 2A       		.uleb128 0x2a
 11793 310e 78050000 		.4byte	.LVL248
 11794 3112 D73D0000 		.4byte	0x3dd7
 11795 3116 2E310000 		.4byte	0x312e
 11796 311a 2B       		.uleb128 0x2b
 11797 311b 01       		.uleb128 0x1
 11798 311c 50       		.byte	0x50
 11799 311d 02       		.uleb128 0x2
ARM GAS  /var/folders/3j/4xdnk5197cv_b7cw3n33qk7r0000gn/T//ccLoT9Qc.s 			page 208


 11800 311e 75       		.byte	0x75
 11801 311f 00       		.sleb128 0
 11802 3120 2B       		.uleb128 0x2b
 11803 3121 01       		.uleb128 0x1
 11804 3122 51       		.byte	0x51
 11805 3123 02       		.uleb128 0x2
 11806 3124 09       		.byte	0x9
 11807 3125 90       		.byte	0x90
 11808 3126 2B       		.uleb128 0x2b
 11809 3127 01       		.uleb128 0x1
 11810 3128 52       		.byte	0x52
 11811 3129 03       		.uleb128 0x3
 11812 312a 91       		.byte	0x91
 11813 312b A87F     		.sleb128 -88
 11814 312d 00       		.byte	0
 11815 312e 2A       		.uleb128 0x2a
 11816 312f CC050000 		.4byte	.LVL251
 11817 3133 663D0000 		.4byte	0x3d66
 11818 3137 4E310000 		.4byte	0x314e
 11819 313b 2B       		.uleb128 0x2b
 11820 313c 01       		.uleb128 0x1
 11821 313d 50       		.byte	0x50
 11822 313e 02       		.uleb128 0x2
 11823 313f 75       		.byte	0x75
 11824 3140 00       		.sleb128 0
 11825 3141 2B       		.uleb128 0x2b
 11826 3142 01       		.uleb128 0x1
 11827 3143 51       		.byte	0x51
 11828 3144 02       		.uleb128 0x2
 11829 3145 09       		.byte	0x9
 11830 3146 94       		.byte	0x94
 11831 3147 2B       		.uleb128 0x2b
 11832 3148 01       		.uleb128 0x1
 11833 3149 52       		.byte	0x52
 11834 314a 02       		.uleb128 0x2
 11835 314b 08       		.byte	0x8
 11836 314c 78       		.byte	0x78
 11837 314d 00       		.byte	0
 11838 314e 2A       		.uleb128 0x2a
 11839 314f DC050000 		.4byte	.LVL254
 11840 3153 39330000 		.4byte	0x3339
 11841 3157 62310000 		.4byte	0x3162
 11842 315b 2B       		.uleb128 0x2b
 11843 315c 01       		.uleb128 0x1
 11844 315d 50       		.byte	0x50
 11845 315e 02       		.uleb128 0x2
 11846 315f 75       		.byte	0x75
 11847 3160 00       		.sleb128 0
 11848 3161 00       		.byte	0
 11849 3162 2A       		.uleb128 0x2a
 11850 3163 F4050000 		.4byte	.LVL257
 11851 3167 D73D0000 		.4byte	0x3dd7
 11852 316b 83310000 		.4byte	0x3183
 11853 316f 2B       		.uleb128 0x2b
 11854 3170 01       		.uleb128 0x1
 11855 3171 50       		.byte	0x50
 11856 3172 02       		.uleb128 0x2
ARM GAS  /var/folders/3j/4xdnk5197cv_b7cw3n33qk7r0000gn/T//ccLoT9Qc.s 			page 209


 11857 3173 75       		.byte	0x75
 11858 3174 00       		.sleb128 0
 11859 3175 2B       		.uleb128 0x2b
 11860 3176 01       		.uleb128 0x1
 11861 3177 51       		.byte	0x51
 11862 3178 02       		.uleb128 0x2
 11863 3179 09       		.byte	0x9
 11864 317a 90       		.byte	0x90
 11865 317b 2B       		.uleb128 0x2b
 11866 317c 01       		.uleb128 0x1
 11867 317d 52       		.byte	0x52
 11868 317e 03       		.uleb128 0x3
 11869 317f 91       		.byte	0x91
 11870 3180 A87F     		.sleb128 -88
 11871 3182 00       		.byte	0
 11872 3183 2A       		.uleb128 0x2a
 11873 3184 58060000 		.4byte	.LVL260
 11874 3188 663D0000 		.4byte	0x3d66
 11875 318c A3310000 		.4byte	0x31a3
 11876 3190 2B       		.uleb128 0x2b
 11877 3191 01       		.uleb128 0x1
 11878 3192 50       		.byte	0x50
 11879 3193 02       		.uleb128 0x2
 11880 3194 75       		.byte	0x75
 11881 3195 00       		.sleb128 0
 11882 3196 2B       		.uleb128 0x2b
 11883 3197 01       		.uleb128 0x1
 11884 3198 51       		.byte	0x51
 11885 3199 02       		.uleb128 0x2
 11886 319a 09       		.byte	0x9
 11887 319b 94       		.byte	0x94
 11888 319c 2B       		.uleb128 0x2b
 11889 319d 01       		.uleb128 0x1
 11890 319e 52       		.byte	0x52
 11891 319f 02       		.uleb128 0x2
 11892 31a0 08       		.byte	0x8
 11893 31a1 79       		.byte	0x79
 11894 31a2 00       		.byte	0
 11895 31a3 2A       		.uleb128 0x2a
 11896 31a4 68060000 		.4byte	.LVL263
 11897 31a8 39330000 		.4byte	0x3339
 11898 31ac B7310000 		.4byte	0x31b7
 11899 31b0 2B       		.uleb128 0x2b
 11900 31b1 01       		.uleb128 0x1
 11901 31b2 50       		.byte	0x50
 11902 31b3 02       		.uleb128 0x2
 11903 31b4 75       		.byte	0x75
 11904 31b5 00       		.sleb128 0
 11905 31b6 00       		.byte	0
 11906 31b7 2A       		.uleb128 0x2a
 11907 31b8 80060000 		.4byte	.LVL266
 11908 31bc D73D0000 		.4byte	0x3dd7
 11909 31c0 D8310000 		.4byte	0x31d8
 11910 31c4 2B       		.uleb128 0x2b
 11911 31c5 01       		.uleb128 0x1
 11912 31c6 50       		.byte	0x50
 11913 31c7 02       		.uleb128 0x2
ARM GAS  /var/folders/3j/4xdnk5197cv_b7cw3n33qk7r0000gn/T//ccLoT9Qc.s 			page 210


 11914 31c8 75       		.byte	0x75
 11915 31c9 00       		.sleb128 0
 11916 31ca 2B       		.uleb128 0x2b
 11917 31cb 01       		.uleb128 0x1
 11918 31cc 51       		.byte	0x51
 11919 31cd 02       		.uleb128 0x2
 11920 31ce 09       		.byte	0x9
 11921 31cf 90       		.byte	0x90
 11922 31d0 2B       		.uleb128 0x2b
 11923 31d1 01       		.uleb128 0x1
 11924 31d2 52       		.byte	0x52
 11925 31d3 03       		.uleb128 0x3
 11926 31d4 91       		.byte	0x91
 11927 31d5 A87F     		.sleb128 -88
 11928 31d7 00       		.byte	0
 11929 31d8 2A       		.uleb128 0x2a
 11930 31d9 D8060000 		.4byte	.LVL269
 11931 31dd 663D0000 		.4byte	0x3d66
 11932 31e1 F8310000 		.4byte	0x31f8
 11933 31e5 2B       		.uleb128 0x2b
 11934 31e6 01       		.uleb128 0x1
 11935 31e7 50       		.byte	0x50
 11936 31e8 02       		.uleb128 0x2
 11937 31e9 75       		.byte	0x75
 11938 31ea 00       		.sleb128 0
 11939 31eb 2B       		.uleb128 0x2b
 11940 31ec 01       		.uleb128 0x1
 11941 31ed 51       		.byte	0x51
 11942 31ee 02       		.uleb128 0x2
 11943 31ef 09       		.byte	0x9
 11944 31f0 94       		.byte	0x94
 11945 31f1 2B       		.uleb128 0x2b
 11946 31f2 01       		.uleb128 0x1
 11947 31f3 52       		.byte	0x52
 11948 31f4 02       		.uleb128 0x2
 11949 31f5 08       		.byte	0x8
 11950 31f6 7A       		.byte	0x7a
 11951 31f7 00       		.byte	0
 11952 31f8 2A       		.uleb128 0x2a
 11953 31f9 E8060000 		.4byte	.LVL272
 11954 31fd 39330000 		.4byte	0x3339
 11955 3201 0C320000 		.4byte	0x320c
 11956 3205 2B       		.uleb128 0x2b
 11957 3206 01       		.uleb128 0x1
 11958 3207 50       		.byte	0x50
 11959 3208 02       		.uleb128 0x2
 11960 3209 75       		.byte	0x75
 11961 320a 00       		.sleb128 0
 11962 320b 00       		.byte	0
 11963 320c 2A       		.uleb128 0x2a
 11964 320d 00070000 		.4byte	.LVL275
 11965 3211 D73D0000 		.4byte	0x3dd7
 11966 3215 2D320000 		.4byte	0x322d
 11967 3219 2B       		.uleb128 0x2b
 11968 321a 01       		.uleb128 0x1
 11969 321b 50       		.byte	0x50
 11970 321c 02       		.uleb128 0x2
ARM GAS  /var/folders/3j/4xdnk5197cv_b7cw3n33qk7r0000gn/T//ccLoT9Qc.s 			page 211


 11971 321d 75       		.byte	0x75
 11972 321e 00       		.sleb128 0
 11973 321f 2B       		.uleb128 0x2b
 11974 3220 01       		.uleb128 0x1
 11975 3221 51       		.byte	0x51
 11976 3222 02       		.uleb128 0x2
 11977 3223 09       		.byte	0x9
 11978 3224 90       		.byte	0x90
 11979 3225 2B       		.uleb128 0x2b
 11980 3226 01       		.uleb128 0x1
 11981 3227 52       		.byte	0x52
 11982 3228 03       		.uleb128 0x3
 11983 3229 91       		.byte	0x91
 11984 322a A87F     		.sleb128 -88
 11985 322c 00       		.byte	0
 11986 322d 2A       		.uleb128 0x2a
 11987 322e 64070000 		.4byte	.LVL280
 11988 3232 663D0000 		.4byte	0x3d66
 11989 3236 4D320000 		.4byte	0x324d
 11990 323a 2B       		.uleb128 0x2b
 11991 323b 01       		.uleb128 0x1
 11992 323c 50       		.byte	0x50
 11993 323d 02       		.uleb128 0x2
 11994 323e 75       		.byte	0x75
 11995 323f 00       		.sleb128 0
 11996 3240 2B       		.uleb128 0x2b
 11997 3241 01       		.uleb128 0x1
 11998 3242 51       		.byte	0x51
 11999 3243 02       		.uleb128 0x2
 12000 3244 09       		.byte	0x9
 12001 3245 94       		.byte	0x94
 12002 3246 2B       		.uleb128 0x2b
 12003 3247 01       		.uleb128 0x1
 12004 3248 52       		.byte	0x52
 12005 3249 02       		.uleb128 0x2
 12006 324a 08       		.byte	0x8
 12007 324b 6B       		.byte	0x6b
 12008 324c 00       		.byte	0
 12009 324d 2A       		.uleb128 0x2a
 12010 324e 70070000 		.4byte	.LVL282
 12011 3252 39330000 		.4byte	0x3339
 12012 3256 61320000 		.4byte	0x3261
 12013 325a 2B       		.uleb128 0x2b
 12014 325b 01       		.uleb128 0x1
 12015 325c 50       		.byte	0x50
 12016 325d 02       		.uleb128 0x2
 12017 325e 75       		.byte	0x75
 12018 325f 00       		.sleb128 0
 12019 3260 00       		.byte	0
 12020 3261 2A       		.uleb128 0x2a
 12021 3262 88070000 		.4byte	.LVL284
 12022 3266 D73D0000 		.4byte	0x3dd7
 12023 326a 82320000 		.4byte	0x3282
 12024 326e 2B       		.uleb128 0x2b
 12025 326f 01       		.uleb128 0x1
 12026 3270 50       		.byte	0x50
 12027 3271 02       		.uleb128 0x2
ARM GAS  /var/folders/3j/4xdnk5197cv_b7cw3n33qk7r0000gn/T//ccLoT9Qc.s 			page 212


 12028 3272 75       		.byte	0x75
 12029 3273 00       		.sleb128 0
 12030 3274 2B       		.uleb128 0x2b
 12031 3275 01       		.uleb128 0x1
 12032 3276 51       		.byte	0x51
 12033 3277 02       		.uleb128 0x2
 12034 3278 09       		.byte	0x9
 12035 3279 90       		.byte	0x90
 12036 327a 2B       		.uleb128 0x2b
 12037 327b 01       		.uleb128 0x1
 12038 327c 52       		.byte	0x52
 12039 327d 03       		.uleb128 0x3
 12040 327e 91       		.byte	0x91
 12041 327f A87F     		.sleb128 -88
 12042 3281 00       		.byte	0
 12043 3282 2A       		.uleb128 0x2a
 12044 3283 BC070000 		.4byte	.LVL287
 12045 3287 663D0000 		.4byte	0x3d66
 12046 328b A2320000 		.4byte	0x32a2
 12047 328f 2B       		.uleb128 0x2b
 12048 3290 01       		.uleb128 0x1
 12049 3291 50       		.byte	0x50
 12050 3292 02       		.uleb128 0x2
 12051 3293 75       		.byte	0x75
 12052 3294 00       		.sleb128 0
 12053 3295 2B       		.uleb128 0x2b
 12054 3296 01       		.uleb128 0x1
 12055 3297 51       		.byte	0x51
 12056 3298 02       		.uleb128 0x2
 12057 3299 09       		.byte	0x9
 12058 329a 94       		.byte	0x94
 12059 329b 2B       		.uleb128 0x2b
 12060 329c 01       		.uleb128 0x1
 12061 329d 52       		.byte	0x52
 12062 329e 02       		.uleb128 0x2
 12063 329f 08       		.byte	0x8
 12064 32a0 24       		.byte	0x24
 12065 32a1 00       		.byte	0
 12066 32a2 2A       		.uleb128 0x2a
 12067 32a3 CC070000 		.4byte	.LVL290
 12068 32a7 39330000 		.4byte	0x3339
 12069 32ab B6320000 		.4byte	0x32b6
 12070 32af 2B       		.uleb128 0x2b
 12071 32b0 01       		.uleb128 0x1
 12072 32b1 50       		.byte	0x50
 12073 32b2 02       		.uleb128 0x2
 12074 32b3 75       		.byte	0x75
 12075 32b4 00       		.sleb128 0
 12076 32b5 00       		.byte	0
 12077 32b6 2A       		.uleb128 0x2a
 12078 32b7 E4070000 		.4byte	.LVL293
 12079 32bb D73D0000 		.4byte	0x3dd7
 12080 32bf D7320000 		.4byte	0x32d7
 12081 32c3 2B       		.uleb128 0x2b
 12082 32c4 01       		.uleb128 0x1
 12083 32c5 50       		.byte	0x50
 12084 32c6 02       		.uleb128 0x2
ARM GAS  /var/folders/3j/4xdnk5197cv_b7cw3n33qk7r0000gn/T//ccLoT9Qc.s 			page 213


 12085 32c7 75       		.byte	0x75
 12086 32c8 00       		.sleb128 0
 12087 32c9 2B       		.uleb128 0x2b
 12088 32ca 01       		.uleb128 0x1
 12089 32cb 51       		.byte	0x51
 12090 32cc 02       		.uleb128 0x2
 12091 32cd 09       		.byte	0x9
 12092 32ce 90       		.byte	0x90
 12093 32cf 2B       		.uleb128 0x2b
 12094 32d0 01       		.uleb128 0x1
 12095 32d1 52       		.byte	0x52
 12096 32d2 03       		.uleb128 0x3
 12097 32d3 91       		.byte	0x91
 12098 32d4 A87F     		.sleb128 -88
 12099 32d6 00       		.byte	0
 12100 32d7 2A       		.uleb128 0x2a
 12101 32d8 1C080000 		.4byte	.LVL296
 12102 32dc 663D0000 		.4byte	0x3d66
 12103 32e0 F7320000 		.4byte	0x32f7
 12104 32e4 2B       		.uleb128 0x2b
 12105 32e5 01       		.uleb128 0x1
 12106 32e6 50       		.byte	0x50
 12107 32e7 02       		.uleb128 0x2
 12108 32e8 75       		.byte	0x75
 12109 32e9 00       		.sleb128 0
 12110 32ea 2B       		.uleb128 0x2b
 12111 32eb 01       		.uleb128 0x1
 12112 32ec 51       		.byte	0x51
 12113 32ed 02       		.uleb128 0x2
 12114 32ee 09       		.byte	0x9
 12115 32ef 94       		.byte	0x94
 12116 32f0 2B       		.uleb128 0x2b
 12117 32f1 01       		.uleb128 0x1
 12118 32f2 52       		.byte	0x52
 12119 32f3 02       		.uleb128 0x2
 12120 32f4 08       		.byte	0x8
 12121 32f5 25       		.byte	0x25
 12122 32f6 00       		.byte	0
 12123 32f7 2A       		.uleb128 0x2a
 12124 32f8 2C080000 		.4byte	.LVL299
 12125 32fc 39330000 		.4byte	0x3339
 12126 3300 0B330000 		.4byte	0x330b
 12127 3304 2B       		.uleb128 0x2b
 12128 3305 01       		.uleb128 0x1
 12129 3306 50       		.byte	0x50
 12130 3307 02       		.uleb128 0x2
 12131 3308 75       		.byte	0x75
 12132 3309 00       		.sleb128 0
 12133 330a 00       		.byte	0
 12134 330b 2C       		.uleb128 0x2c
 12135 330c 44080000 		.4byte	.LVL302
 12136 3310 D73D0000 		.4byte	0x3dd7
 12137 3314 2B       		.uleb128 0x2b
 12138 3315 01       		.uleb128 0x1
 12139 3316 50       		.byte	0x50
 12140 3317 02       		.uleb128 0x2
 12141 3318 75       		.byte	0x75
ARM GAS  /var/folders/3j/4xdnk5197cv_b7cw3n33qk7r0000gn/T//ccLoT9Qc.s 			page 214


 12142 3319 00       		.sleb128 0
 12143 331a 2B       		.uleb128 0x2b
 12144 331b 01       		.uleb128 0x1
 12145 331c 51       		.byte	0x51
 12146 331d 02       		.uleb128 0x2
 12147 331e 09       		.byte	0x9
 12148 331f 90       		.byte	0x90
 12149 3320 2B       		.uleb128 0x2b
 12150 3321 01       		.uleb128 0x1
 12151 3322 52       		.byte	0x52
 12152 3323 03       		.uleb128 0x3
 12153 3324 91       		.byte	0x91
 12154 3325 A87F     		.sleb128 -88
 12155 3327 00       		.byte	0
 12156 3328 00       		.byte	0
 12157 3329 06       		.uleb128 0x6
 12158 332a 47010000 		.4byte	0x147
 12159 332e 39330000 		.4byte	0x3339
 12160 3332 07       		.uleb128 0x7
 12161 3333 25000000 		.4byte	0x25
 12162 3337 12       		.byte	0x12
 12163 3338 00       		.byte	0
 12164 3339 3E       		.uleb128 0x3e
 12165 333a 2A0B0000 		.4byte	.LASF419
 12166 333e 01       		.byte	0x1
 12167 333f B2       		.byte	0xb2
 12168 3340 53010000 		.4byte	0x153
 12169 3344 00000000 		.4byte	.LFB9
 12170 3348 7C000000 		.4byte	.LFE9-.LFB9
 12171 334c 01       		.uleb128 0x1
 12172 334d 9C       		.byte	0x9c
 12173 334e E8330000 		.4byte	0x33e8
 12174 3352 3F       		.uleb128 0x3f
 12175 3353 44657600 		.ascii	"Dev\000"
 12176 3357 01       		.byte	0x1
 12177 3358 B2       		.byte	0xb2
 12178 3359 1A0F0000 		.4byte	0xf1a
 12179 335d 30280000 		.4byte	.LLST50
 12180 3361 41       		.uleb128 0x41
 12181 3362 12030000 		.4byte	.LASF243
 12182 3366 01       		.byte	0x1
 12183 3367 B4       		.byte	0xb4
 12184 3368 53010000 		.4byte	0x153
 12185 336c 4E280000 		.4byte	.LLST51
 12186 3370 42       		.uleb128 0x42
 12187 3371 D3110000 		.4byte	.LASF420
 12188 3375 01       		.byte	0x1
 12189 3376 B5       		.byte	0xb5
 12190 3377 C3000000 		.4byte	0xc3
 12191 337b 02       		.uleb128 0x2
 12192 337c 91       		.byte	0x91
 12193 337d 6F       		.sleb128 -17
 12194 337e 41       		.uleb128 0x41
 12195 337f 17060000 		.4byte	.LASF421
 12196 3383 01       		.byte	0x1
 12197 3384 B6       		.byte	0xb6
 12198 3385 EF000000 		.4byte	0xef
ARM GAS  /var/folders/3j/4xdnk5197cv_b7cw3n33qk7r0000gn/T//ccLoT9Qc.s 			page 215


 12199 3389 9E280000 		.4byte	.LLST52
 12200 338d 2A       		.uleb128 0x2a
 12201 338e 18000000 		.4byte	.LVL94
 12202 3392 663D0000 		.4byte	0x3d66
 12203 3396 AC330000 		.4byte	0x33ac
 12204 339a 2B       		.uleb128 0x2b
 12205 339b 01       		.uleb128 0x1
 12206 339c 50       		.byte	0x50
 12207 339d 02       		.uleb128 0x2
 12208 339e 76       		.byte	0x76
 12209 339f 00       		.sleb128 0
 12210 33a0 2B       		.uleb128 0x2b
 12211 33a1 01       		.uleb128 0x1
 12212 33a2 51       		.byte	0x51
 12213 33a3 02       		.uleb128 0x2
 12214 33a4 09       		.byte	0x9
 12215 33a5 83       		.byte	0x83
 12216 33a6 2B       		.uleb128 0x2b
 12217 33a7 01       		.uleb128 0x1
 12218 33a8 52       		.byte	0x52
 12219 33a9 01       		.uleb128 0x1
 12220 33aa 30       		.byte	0x30
 12221 33ab 00       		.byte	0
 12222 33ac 2A       		.uleb128 0x2a
 12223 33ad 40000000 		.4byte	.LVL99
 12224 33b1 933D0000 		.4byte	0x3d93
 12225 33b5 CC330000 		.4byte	0x33cc
 12226 33b9 2B       		.uleb128 0x2b
 12227 33ba 01       		.uleb128 0x1
 12228 33bb 50       		.byte	0x50
 12229 33bc 02       		.uleb128 0x2
 12230 33bd 76       		.byte	0x76
 12231 33be 00       		.sleb128 0
 12232 33bf 2B       		.uleb128 0x2b
 12233 33c0 01       		.uleb128 0x1
 12234 33c1 51       		.byte	0x51
 12235 33c2 02       		.uleb128 0x2
 12236 33c3 09       		.byte	0x9
 12237 33c4 83       		.byte	0x83
 12238 33c5 2B       		.uleb128 0x2b
 12239 33c6 01       		.uleb128 0x1
 12240 33c7 52       		.byte	0x52
 12241 33c8 02       		.uleb128 0x2
 12242 33c9 91       		.byte	0x91
 12243 33ca 67       		.sleb128 -25
 12244 33cb 00       		.byte	0
 12245 33cc 2C       		.uleb128 0x2c
 12246 33cd 64000000 		.4byte	.LVL102
 12247 33d1 663D0000 		.4byte	0x3d66
 12248 33d5 2B       		.uleb128 0x2b
 12249 33d6 01       		.uleb128 0x1
 12250 33d7 50       		.byte	0x50
 12251 33d8 02       		.uleb128 0x2
 12252 33d9 76       		.byte	0x76
 12253 33da 00       		.sleb128 0
 12254 33db 2B       		.uleb128 0x2b
 12255 33dc 01       		.uleb128 0x1
ARM GAS  /var/folders/3j/4xdnk5197cv_b7cw3n33qk7r0000gn/T//ccLoT9Qc.s 			page 216


 12256 33dd 51       		.byte	0x51
 12257 33de 02       		.uleb128 0x2
 12258 33df 09       		.byte	0x9
 12259 33e0 83       		.byte	0x83
 12260 33e1 2B       		.uleb128 0x2b
 12261 33e2 01       		.uleb128 0x1
 12262 33e3 52       		.byte	0x52
 12263 33e4 01       		.uleb128 0x1
 12264 33e5 31       		.byte	0x31
 12265 33e6 00       		.byte	0
 12266 33e7 00       		.byte	0
 12267 33e8 3E       		.uleb128 0x3e
 12268 33e9 F60F0000 		.4byte	.LASF422
 12269 33ed 01       		.byte	0x1
 12270 33ee 9B       		.byte	0x9b
 12271 33ef EF000000 		.4byte	0xef
 12272 33f3 00000000 		.4byte	.LFB8
 12273 33f7 68000000 		.4byte	.LFE8-.LFB8
 12274 33fb 01       		.uleb128 0x1
 12275 33fc 9C       		.byte	0x9c
 12276 33fd 58340000 		.4byte	0x3458
 12277 3401 3F       		.uleb128 0x3f
 12278 3402 6100     		.ascii	"a\000"
 12279 3404 01       		.byte	0x1
 12280 3405 9B       		.byte	0x9b
 12281 3406 EF000000 		.4byte	0xef
 12282 340a EA280000 		.4byte	.LLST46
 12283 340e 3F       		.uleb128 0x3f
 12284 340f 6200     		.ascii	"b\000"
 12285 3411 01       		.byte	0x1
 12286 3412 9B       		.byte	0x9b
 12287 3413 EF000000 		.4byte	0xef
 12288 3417 24290000 		.4byte	.LLST47
 12289 341b 44       		.uleb128 0x44
 12290 341c 72657300 		.ascii	"res\000"
 12291 3420 01       		.byte	0x1
 12292 3421 A7       		.byte	0xa7
 12293 3422 EF000000 		.4byte	0xef
 12294 3426 45290000 		.4byte	.LLST48
 12295 342a 45       		.uleb128 0x45
 12296 342b 58340000 		.4byte	0x3458
 12297 342f 18000000 		.4byte	.LBB134
 12298 3433 48000000 		.4byte	.LBE134-.LBB134
 12299 3437 01       		.byte	0x1
 12300 3438 AC       		.byte	0xac
 12301 3439 30       		.uleb128 0x30
 12302 343a 68340000 		.4byte	0x3468
 12303 343e 59290000 		.4byte	.LLST49
 12304 3442 36       		.uleb128 0x36
 12305 3443 18000000 		.4byte	.LBB135
 12306 3447 48000000 		.4byte	.LBE135-.LBB135
 12307 344b 32       		.uleb128 0x32
 12308 344c 68390000 		.4byte	0x3968
 12309 3450 32       		.uleb128 0x32
 12310 3451 71390000 		.4byte	0x3971
 12311 3455 00       		.byte	0
 12312 3456 00       		.byte	0
ARM GAS  /var/folders/3j/4xdnk5197cv_b7cw3n33qk7r0000gn/T//ccLoT9Qc.s 			page 217


 12313 3457 00       		.byte	0
 12314 3458 46       		.uleb128 0x46
 12315 3459 59110000 		.4byte	.LASF423
 12316 345d 01       		.byte	0x1
 12317 345e 7B       		.byte	0x7b
 12318 345f EF000000 		.4byte	0xef
 12319 3463 01       		.byte	0x1
 12320 3464 8A340000 		.4byte	0x348a
 12321 3468 47       		.uleb128 0x47
 12322 3469 6E756D00 		.ascii	"num\000"
 12323 346d 01       		.byte	0x1
 12324 346e 7B       		.byte	0x7b
 12325 346f EF000000 		.4byte	0xef
 12326 3473 48       		.uleb128 0x48
 12327 3474 72657300 		.ascii	"res\000"
 12328 3478 01       		.byte	0x1
 12329 3479 83       		.byte	0x83
 12330 347a EF000000 		.4byte	0xef
 12331 347e 48       		.uleb128 0x48
 12332 347f 62697400 		.ascii	"bit\000"
 12333 3483 01       		.byte	0x1
 12334 3484 84       		.byte	0x84
 12335 3485 EF000000 		.4byte	0xef
 12336 3489 00       		.byte	0
 12337 348a 46       		.uleb128 0x46
 12338 348b F5190000 		.4byte	.LASF424
 12339 348f 01       		.byte	0x1
 12340 3490 6C       		.byte	0x6c
 12341 3491 C3000000 		.4byte	0xc3
 12342 3495 01       		.byte	0x1
 12343 3496 B1340000 		.4byte	0x34b1
 12344 349a 49       		.uleb128 0x49
 12345 349b 17120000 		.4byte	.LASF392
 12346 349f 01       		.byte	0x1
 12347 34a0 6C       		.byte	0x6c
 12348 34a1 C3000000 		.4byte	0xc3
 12349 34a5 4A       		.uleb128 0x4a
 12350 34a6 19080000 		.4byte	.LASF366
 12351 34aa 01       		.byte	0x1
 12352 34ab 73       		.byte	0x73
 12353 34ac C3000000 		.4byte	0xc3
 12354 34b0 00       		.byte	0
 12355 34b1 46       		.uleb128 0x46
 12356 34b2 E0030000 		.4byte	.LASF425
 12357 34b6 01       		.byte	0x1
 12358 34b7 5E       		.byte	0x5e
 12359 34b8 C3000000 		.4byte	0xc3
 12360 34bc 01       		.byte	0x1
 12361 34bd D8340000 		.4byte	0x34d8
 12362 34c1 49       		.uleb128 0x49
 12363 34c2 19080000 		.4byte	.LASF366
 12364 34c6 01       		.byte	0x1
 12365 34c7 5E       		.byte	0x5e
 12366 34c8 C3000000 		.4byte	0xc3
 12367 34cc 4A       		.uleb128 0x4a
 12368 34cd 17120000 		.4byte	.LASF392
 12369 34d1 01       		.byte	0x1
ARM GAS  /var/folders/3j/4xdnk5197cv_b7cw3n33qk7r0000gn/T//ccLoT9Qc.s 			page 218


 12370 34d2 65       		.byte	0x65
 12371 34d3 C3000000 		.4byte	0xc3
 12372 34d7 00       		.byte	0
 12373 34d8 3E       		.uleb128 0x3e
 12374 34d9 26140000 		.4byte	.LASF426
 12375 34dd 01       		.byte	0x1
 12376 34de 3D       		.byte	0x3d
 12377 34df 53010000 		.4byte	0x153
 12378 34e3 00000000 		.4byte	.LFB4
 12379 34e7 60000000 		.4byte	.LFE4-.LFB4
 12380 34eb 01       		.uleb128 0x1
 12381 34ec 9C       		.byte	0x9c
 12382 34ed 57350000 		.4byte	0x3557
 12383 34f1 3F       		.uleb128 0x3f
 12384 34f2 44657600 		.ascii	"Dev\000"
 12385 34f6 01       		.byte	0x1
 12386 34f7 3D       		.byte	0x3d
 12387 34f8 1A0F0000 		.4byte	0xf1a
 12388 34fc 6C290000 		.4byte	.LLST36
 12389 3500 41       		.uleb128 0x41
 12390 3501 12030000 		.4byte	.LASF243
 12391 3505 01       		.byte	0x1
 12392 3506 3F       		.byte	0x3f
 12393 3507 53010000 		.4byte	0x153
 12394 350b 8A290000 		.4byte	.LLST37
 12395 350f 42       		.uleb128 0x42
 12396 3510 11110000 		.4byte	.LASF427
 12397 3514 01       		.byte	0x1
 12398 3515 40       		.byte	0x40
 12399 3516 C3000000 		.4byte	0xc3
 12400 351a 02       		.uleb128 0x2
 12401 351b 91       		.byte	0x91
 12402 351c 6F       		.sleb128 -17
 12403 351d 41       		.uleb128 0x41
 12404 351e 17060000 		.4byte	.LASF421
 12405 3522 01       		.byte	0x1
 12406 3523 41       		.byte	0x41
 12407 3524 EF000000 		.4byte	0xef
 12408 3528 B4290000 		.4byte	.LLST38
 12409 352c 2A       		.uleb128 0x2a
 12410 352d 3C000000 		.4byte	.LVL59
 12411 3531 C13D0000 		.4byte	0x3dc1
 12412 3535 40350000 		.4byte	0x3540
 12413 3539 2B       		.uleb128 0x2b
 12414 353a 01       		.uleb128 0x1
 12415 353b 50       		.byte	0x50
 12416 353c 02       		.uleb128 0x2
 12417 353d 75       		.byte	0x75
 12418 353e 00       		.sleb128 0
 12419 353f 00       		.byte	0
 12420 3540 2C       		.uleb128 0x2c
 12421 3541 48000000 		.4byte	.LVL60
 12422 3545 E23D0000 		.4byte	0x3de2
 12423 3549 2B       		.uleb128 0x2b
 12424 354a 01       		.uleb128 0x1
 12425 354b 50       		.byte	0x50
 12426 354c 02       		.uleb128 0x2
ARM GAS  /var/folders/3j/4xdnk5197cv_b7cw3n33qk7r0000gn/T//ccLoT9Qc.s 			page 219


 12427 354d 75       		.byte	0x75
 12428 354e 00       		.sleb128 0
 12429 354f 2B       		.uleb128 0x2b
 12430 3550 01       		.uleb128 0x1
 12431 3551 51       		.byte	0x51
 12432 3552 02       		.uleb128 0x2
 12433 3553 76       		.byte	0x76
 12434 3554 00       		.sleb128 0
 12435 3555 00       		.byte	0
 12436 3556 00       		.byte	0
 12437 3557 3E       		.uleb128 0x3e
 12438 3558 55040000 		.4byte	.LASF428
 12439 355c 01       		.byte	0x1
 12440 355d 2C       		.byte	0x2c
 12441 355e 53010000 		.4byte	0x153
 12442 3562 00000000 		.4byte	.LFB3
 12443 3566 34000000 		.4byte	.LFE3-.LFB3
 12444 356a 01       		.uleb128 0x1
 12445 356b 9C       		.byte	0x9c
 12446 356c D7350000 		.4byte	0x35d7
 12447 3570 40       		.uleb128 0x40
 12448 3571 2A120000 		.4byte	.LASF429
 12449 3575 01       		.byte	0x1
 12450 3576 2C       		.byte	0x2c
 12451 3577 3B060000 		.4byte	0x63b
 12452 357b 0C2A0000 		.4byte	.LLST30
 12453 357f 40       		.uleb128 0x40
 12454 3580 F5060000 		.4byte	.LASF430
 12455 3584 01       		.byte	0x1
 12456 3585 2C       		.byte	0x2c
 12457 3586 EF000000 		.4byte	0xef
 12458 358a 2D2A0000 		.4byte	.LLST31
 12459 358e 4B       		.uleb128 0x4b
 12460 358f 12030000 		.4byte	.LASF243
 12461 3593 01       		.byte	0x1
 12462 3594 2E       		.byte	0x2e
 12463 3595 53010000 		.4byte	0x153
 12464 3599 00       		.byte	0
 12465 359a 41       		.uleb128 0x41
 12466 359b E9070000 		.4byte	.LASF431
 12467 359f 01       		.byte	0x1
 12468 35a0 2F       		.byte	0x2f
 12469 35a1 C3000000 		.4byte	0xc3
 12470 35a5 4E2A0000 		.4byte	.LLST32
 12471 35a9 41       		.uleb128 0x41
 12472 35aa AF090000 		.4byte	.LASF432
 12473 35ae 01       		.byte	0x1
 12474 35af 30       		.byte	0x30
 12475 35b0 EF000000 		.4byte	0xef
 12476 35b4 612A0000 		.4byte	.LLST33
 12477 35b8 41       		.uleb128 0x41
 12478 35b9 C5100000 		.4byte	.LASF433
 12479 35bd 01       		.byte	0x1
 12480 35be 31       		.byte	0x31
 12481 35bf EF000000 		.4byte	0xef
 12482 35c3 8C2A0000 		.4byte	.LLST34
 12483 35c7 41       		.uleb128 0x41
ARM GAS  /var/folders/3j/4xdnk5197cv_b7cw3n33qk7r0000gn/T//ccLoT9Qc.s 			page 220


 12484 35c8 7B030000 		.4byte	.LASF434
 12485 35cc 01       		.byte	0x1
 12486 35cd 32       		.byte	0x32
 12487 35ce EF000000 		.4byte	0xef
 12488 35d2 CD2A0000 		.4byte	.LLST35
 12489 35d6 00       		.byte	0
 12490 35d7 4C       		.uleb128 0x4c
 12491 35d8 0D2A0000 		.4byte	0x2a0d
 12492 35dc 00000000 		.4byte	.LFB28
 12493 35e0 3C000000 		.4byte	.LFE28-.LFB28
 12494 35e4 01       		.uleb128 0x1
 12495 35e5 9C       		.byte	0x9c
 12496 35e6 0F360000 		.4byte	0x360f
 12497 35ea 30       		.uleb128 0x30
 12498 35eb 1E2A0000 		.4byte	0x2a1e
 12499 35ef 182B0000 		.4byte	.LLST0
 12500 35f3 4D       		.uleb128 0x4d
 12501 35f4 2A2A0000 		.4byte	0x2a2a
 12502 35f8 462B0000 		.4byte	.LLST1
 12503 35fc 4D       		.uleb128 0x4d
 12504 35fd 362A0000 		.4byte	0x2a36
 12505 3601 5E2B0000 		.4byte	.LLST2
 12506 3605 4D       		.uleb128 0x4d
 12507 3606 422A0000 		.4byte	0x2a42
 12508 360a 712B0000 		.4byte	.LLST3
 12509 360e 00       		.byte	0
 12510 360f 4E       		.uleb128 0x4e
 12511 3610 8B240000 		.4byte	0x248b
 12512 3614 00000000 		.4byte	.LFB29
 12513 3618 B4010000 		.4byte	.LFE29-.LFB29
 12514 361c 01       		.uleb128 0x1
 12515 361d 9C       		.byte	0x9c
 12516 361e 00390000 		.4byte	0x3900
 12517 3622 30       		.uleb128 0x30
 12518 3623 9C240000 		.4byte	0x249c
 12519 3627 9B2B0000 		.4byte	.LLST4
 12520 362b 30       		.uleb128 0x30
 12521 362c A8240000 		.4byte	0x24a8
 12522 3630 DA2B0000 		.4byte	.LLST5
 12523 3634 30       		.uleb128 0x30
 12524 3635 B4240000 		.4byte	0x24b4
 12525 3639 1F2C0000 		.4byte	.LLST6
 12526 363d 4D       		.uleb128 0x4d
 12527 363e C0240000 		.4byte	0x24c0
 12528 3642 5E2C0000 		.4byte	.LLST7
 12529 3646 4F       		.uleb128 0x4f
 12530 3647 CC240000 		.4byte	0x24cc
 12531 364b 02       		.uleb128 0x2
 12532 364c 91       		.byte	0x91
 12533 364d 55       		.sleb128 -43
 12534 364e 32       		.uleb128 0x32
 12535 364f D8240000 		.4byte	0x24d8
 12536 3653 4F       		.uleb128 0x4f
 12537 3654 E4240000 		.4byte	0x24e4
 12538 3658 02       		.uleb128 0x2
 12539 3659 91       		.byte	0x91
 12540 365a 56       		.sleb128 -42
ARM GAS  /var/folders/3j/4xdnk5197cv_b7cw3n33qk7r0000gn/T//ccLoT9Qc.s 			page 221


 12541 365b 4D       		.uleb128 0x4d
 12542 365c F0240000 		.4byte	0x24f0
 12543 3660 D42C0000 		.4byte	.LLST8
 12544 3664 32       		.uleb128 0x32
 12545 3665 FC240000 		.4byte	0x24fc
 12546 3669 4D       		.uleb128 0x4d
 12547 366a 08250000 		.4byte	0x2508
 12548 366e 6B2D0000 		.4byte	.LLST9
 12549 3672 32       		.uleb128 0x32
 12550 3673 14250000 		.4byte	0x2514
 12551 3677 4F       		.uleb128 0x4f
 12552 3678 20250000 		.4byte	0x2520
 12553 367c 02       		.uleb128 0x2
 12554 367d 91       		.byte	0x91
 12555 367e 58       		.sleb128 -40
 12556 367f 35       		.uleb128 0x35
 12557 3680 E3290000 		.4byte	0x29e3
 12558 3684 74000000 		.4byte	.LBB108
 12559 3688 10000000 		.4byte	.LBE108-.LBB108
 12560 368c 01       		.byte	0x1
 12561 368d 1203     		.2byte	0x312
 12562 368f A8360000 		.4byte	0x36a8
 12563 3693 33       		.uleb128 0x33
 12564 3694 F4290000 		.4byte	0x29f4
 12565 3698 36       		.uleb128 0x36
 12566 3699 74000000 		.4byte	.LBB109
 12567 369d 10000000 		.4byte	.LBE109-.LBB109
 12568 36a1 32       		.uleb128 0x32
 12569 36a2 002A0000 		.4byte	0x2a00
 12570 36a6 00       		.byte	0
 12571 36a7 00       		.byte	0
 12572 36a8 35       		.uleb128 0x35
 12573 36a9 89290000 		.4byte	0x2989
 12574 36ad A4000000 		.4byte	.LBB110
 12575 36b1 38000000 		.4byte	.LBE110-.LBB110
 12576 36b5 01       		.byte	0x1
 12577 36b6 2203     		.2byte	0x322
 12578 36b8 2D370000 		.4byte	0x372d
 12579 36bc 30       		.uleb128 0x30
 12580 36bd B2290000 		.4byte	0x29b2
 12581 36c1 992D0000 		.4byte	.LLST10
 12582 36c5 30       		.uleb128 0x30
 12583 36c6 A6290000 		.4byte	0x29a6
 12584 36ca AD2D0000 		.4byte	.LLST11
 12585 36ce 30       		.uleb128 0x30
 12586 36cf 9A290000 		.4byte	0x299a
 12587 36d3 C02D0000 		.4byte	.LLST12
 12588 36d7 36       		.uleb128 0x36
 12589 36d8 A4000000 		.4byte	.LBB111
 12590 36dc 38000000 		.4byte	.LBE111-.LBB111
 12591 36e0 32       		.uleb128 0x32
 12592 36e1 BE290000 		.4byte	0x29be
 12593 36e5 32       		.uleb128 0x32
 12594 36e6 CA290000 		.4byte	0x29ca
 12595 36ea 4D       		.uleb128 0x4d
 12596 36eb D6290000 		.4byte	0x29d6
 12597 36ef D32D0000 		.4byte	.LLST13
ARM GAS  /var/folders/3j/4xdnk5197cv_b7cw3n33qk7r0000gn/T//ccLoT9Qc.s 			page 222


 12598 36f3 34       		.uleb128 0x34
 12599 36f4 4F2A0000 		.4byte	0x2a4f
 12600 36f8 A4000000 		.4byte	.LBB112
 12601 36fc 00000000 		.4byte	.Ldebug_ranges0+0
 12602 3700 01       		.byte	0x1
 12603 3701 2502     		.2byte	0x225
 12604 3703 33       		.uleb128 0x33
 12605 3704 6C2A0000 		.4byte	0x2a6c
 12606 3708 33       		.uleb128 0x33
 12607 3709 602A0000 		.4byte	0x2a60
 12608 370d 31       		.uleb128 0x31
 12609 370e 00000000 		.4byte	.Ldebug_ranges0+0
 12610 3712 4D       		.uleb128 0x4d
 12611 3713 782A0000 		.4byte	0x2a78
 12612 3717 E72D0000 		.4byte	.LLST14
 12613 371b 4D       		.uleb128 0x4d
 12614 371c 842A0000 		.4byte	0x2a84
 12615 3720 172E0000 		.4byte	.LLST15
 12616 3724 32       		.uleb128 0x32
 12617 3725 902A0000 		.4byte	0x2a90
 12618 3729 00       		.byte	0
 12619 372a 00       		.byte	0
 12620 372b 00       		.byte	0
 12621 372c 00       		.byte	0
 12622 372d 2F       		.uleb128 0x2f
 12623 372e 0D2A0000 		.4byte	0x2a0d
 12624 3732 DC000000 		.4byte	.LBB116
 12625 3736 18000000 		.4byte	.Ldebug_ranges0+0x18
 12626 373a 01       		.byte	0x1
 12627 373b 2903     		.2byte	0x329
 12628 373d 75370000 		.4byte	0x3775
 12629 3741 30       		.uleb128 0x30
 12630 3742 1E2A0000 		.4byte	0x2a1e
 12631 3746 6B2D0000 		.4byte	.LLST9
 12632 374a 31       		.uleb128 0x31
 12633 374b 18000000 		.4byte	.Ldebug_ranges0+0x18
 12634 374f 4D       		.uleb128 0x4d
 12635 3750 2A2A0000 		.4byte	0x2a2a
 12636 3754 3B2E0000 		.4byte	.LLST17
 12637 3758 4D       		.uleb128 0x4d
 12638 3759 362A0000 		.4byte	0x2a36
 12639 375d 5B2E0000 		.4byte	.LLST18
 12640 3761 4D       		.uleb128 0x4d
 12641 3762 422A0000 		.4byte	0x2a42
 12642 3766 5B2E0000 		.4byte	.LLST18
 12643 376a 50       		.uleb128 0x50
 12644 376b A0010000 		.4byte	.LVL45
 12645 376f D7350000 		.4byte	0x35d7
 12646 3773 00       		.byte	0
 12647 3774 00       		.byte	0
 12648 3775 2F       		.uleb128 0x2f
 12649 3776 89290000 		.4byte	0x2989
 12650 377a 14010000 		.4byte	.LBB119
 12651 377e 30000000 		.4byte	.Ldebug_ranges0+0x30
 12652 3782 01       		.byte	0x1
 12653 3783 E302     		.2byte	0x2e3
 12654 3785 F6370000 		.4byte	0x37f6
ARM GAS  /var/folders/3j/4xdnk5197cv_b7cw3n33qk7r0000gn/T//ccLoT9Qc.s 			page 223


 12655 3789 30       		.uleb128 0x30
 12656 378a B2290000 		.4byte	0x29b2
 12657 378e 7B2E0000 		.4byte	.LLST20
 12658 3792 30       		.uleb128 0x30
 12659 3793 A6290000 		.4byte	0x29a6
 12660 3797 8F2E0000 		.4byte	.LLST21
 12661 379b 30       		.uleb128 0x30
 12662 379c 9A290000 		.4byte	0x299a
 12663 37a0 A22E0000 		.4byte	.LLST22
 12664 37a4 31       		.uleb128 0x31
 12665 37a5 30000000 		.4byte	.Ldebug_ranges0+0x30
 12666 37a9 32       		.uleb128 0x32
 12667 37aa BE290000 		.4byte	0x29be
 12668 37ae 32       		.uleb128 0x32
 12669 37af CA290000 		.4byte	0x29ca
 12670 37b3 4D       		.uleb128 0x4d
 12671 37b4 D6290000 		.4byte	0x29d6
 12672 37b8 B52E0000 		.4byte	.LLST23
 12673 37bc 34       		.uleb128 0x34
 12674 37bd 4F2A0000 		.4byte	0x2a4f
 12675 37c1 14010000 		.4byte	.LBB121
 12676 37c5 48000000 		.4byte	.Ldebug_ranges0+0x48
 12677 37c9 01       		.byte	0x1
 12678 37ca 2502     		.2byte	0x225
 12679 37cc 33       		.uleb128 0x33
 12680 37cd 6C2A0000 		.4byte	0x2a6c
 12681 37d1 33       		.uleb128 0x33
 12682 37d2 602A0000 		.4byte	0x2a60
 12683 37d6 31       		.uleb128 0x31
 12684 37d7 48000000 		.4byte	.Ldebug_ranges0+0x48
 12685 37db 4D       		.uleb128 0x4d
 12686 37dc 782A0000 		.4byte	0x2a78
 12687 37e0 C92E0000 		.4byte	.LLST24
 12688 37e4 4D       		.uleb128 0x4d
 12689 37e5 842A0000 		.4byte	0x2a84
 12690 37e9 E52E0000 		.4byte	.LLST25
 12691 37ed 32       		.uleb128 0x32
 12692 37ee 902A0000 		.4byte	0x2a90
 12693 37f2 00       		.byte	0
 12694 37f3 00       		.byte	0
 12695 37f4 00       		.byte	0
 12696 37f5 00       		.byte	0
 12697 37f6 2F       		.uleb128 0x2f
 12698 37f7 0D2A0000 		.4byte	0x2a0d
 12699 37fb 54010000 		.4byte	.LBB129
 12700 37ff 68000000 		.4byte	.Ldebug_ranges0+0x68
 12701 3803 01       		.byte	0x1
 12702 3804 E602     		.2byte	0x2e6
 12703 3806 3E380000 		.4byte	0x383e
 12704 380a 30       		.uleb128 0x30
 12705 380b 1E2A0000 		.4byte	0x2a1e
 12706 380f FB2E0000 		.4byte	.LLST26
 12707 3813 31       		.uleb128 0x31
 12708 3814 68000000 		.4byte	.Ldebug_ranges0+0x68
 12709 3818 4D       		.uleb128 0x4d
 12710 3819 2A2A0000 		.4byte	0x2a2a
 12711 381d 192F0000 		.4byte	.LLST27
ARM GAS  /var/folders/3j/4xdnk5197cv_b7cw3n33qk7r0000gn/T//ccLoT9Qc.s 			page 224


 12712 3821 4D       		.uleb128 0x4d
 12713 3822 362A0000 		.4byte	0x2a36
 12714 3826 392F0000 		.4byte	.LLST28
 12715 382a 4D       		.uleb128 0x4d
 12716 382b 422A0000 		.4byte	0x2a42
 12717 382f 392F0000 		.4byte	.LLST28
 12718 3833 50       		.uleb128 0x50
 12719 3834 98010000 		.4byte	.LVL43
 12720 3838 D7350000 		.4byte	0x35d7
 12721 383c 00       		.byte	0
 12722 383d 00       		.byte	0
 12723 383e 2A       		.uleb128 0x2a
 12724 383f 28000000 		.4byte	.LVL11
 12725 3843 873D0000 		.4byte	0x3d87
 12726 3847 58380000 		.4byte	0x3858
 12727 384b 2B       		.uleb128 0x2b
 12728 384c 01       		.uleb128 0x1
 12729 384d 50       		.byte	0x50
 12730 384e 02       		.uleb128 0x2
 12731 384f 78       		.byte	0x78
 12732 3850 00       		.sleb128 0
 12733 3851 2B       		.uleb128 0x2b
 12734 3852 01       		.uleb128 0x1
 12735 3853 51       		.byte	0x51
 12736 3854 02       		.uleb128 0x2
 12737 3855 91       		.byte	0x91
 12738 3856 50       		.sleb128 -48
 12739 3857 00       		.byte	0
 12740 3858 2A       		.uleb128 0x2a
 12741 3859 48000000 		.4byte	.LVL12
 12742 385d B53D0000 		.4byte	0x3db5
 12743 3861 77380000 		.4byte	0x3877
 12744 3865 2B       		.uleb128 0x2b
 12745 3866 01       		.uleb128 0x1
 12746 3867 50       		.byte	0x50
 12747 3868 02       		.uleb128 0x2
 12748 3869 78       		.byte	0x78
 12749 386a 00       		.sleb128 0
 12750 386b 2B       		.uleb128 0x2b
 12751 386c 01       		.uleb128 0x1
 12752 386d 51       		.byte	0x51
 12753 386e 01       		.uleb128 0x1
 12754 386f 30       		.byte	0x30
 12755 3870 2B       		.uleb128 0x2b
 12756 3871 01       		.uleb128 0x1
 12757 3872 52       		.byte	0x52
 12758 3873 02       		.uleb128 0x2
 12759 3874 75       		.byte	0x75
 12760 3875 00       		.sleb128 0
 12761 3876 00       		.byte	0
 12762 3877 2A       		.uleb128 0x2a
 12763 3878 6C000000 		.4byte	.LVL16
 12764 387c 713D0000 		.4byte	0x3d71
 12765 3880 97380000 		.4byte	0x3897
 12766 3884 2B       		.uleb128 0x2b
 12767 3885 01       		.uleb128 0x1
 12768 3886 50       		.byte	0x50
ARM GAS  /var/folders/3j/4xdnk5197cv_b7cw3n33qk7r0000gn/T//ccLoT9Qc.s 			page 225


 12769 3887 02       		.uleb128 0x2
 12770 3888 78       		.byte	0x78
 12771 3889 00       		.sleb128 0
 12772 388a 2B       		.uleb128 0x2b
 12773 388b 01       		.uleb128 0x1
 12774 388c 51       		.byte	0x51
 12775 388d 02       		.uleb128 0x2
 12776 388e 08       		.byte	0x8
 12777 388f 51       		.byte	0x51
 12778 3890 2B       		.uleb128 0x2b
 12779 3891 01       		.uleb128 0x1
 12780 3892 52       		.byte	0x52
 12781 3893 02       		.uleb128 0x2
 12782 3894 91       		.byte	0x91
 12783 3895 4E       		.sleb128 -50
 12784 3896 00       		.byte	0
 12785 3897 2A       		.uleb128 0x2a
 12786 3898 9C000000 		.4byte	.LVL19
 12787 389c B53D0000 		.4byte	0x3db5
 12788 38a0 B6380000 		.4byte	0x38b6
 12789 38a4 2B       		.uleb128 0x2b
 12790 38a5 01       		.uleb128 0x1
 12791 38a6 50       		.byte	0x50
 12792 38a7 02       		.uleb128 0x2
 12793 38a8 78       		.byte	0x78
 12794 38a9 00       		.sleb128 0
 12795 38aa 2B       		.uleb128 0x2b
 12796 38ab 01       		.uleb128 0x1
 12797 38ac 51       		.byte	0x51
 12798 38ad 01       		.uleb128 0x1
 12799 38ae 31       		.byte	0x31
 12800 38af 2B       		.uleb128 0x2b
 12801 38b0 01       		.uleb128 0x1
 12802 38b1 52       		.byte	0x52
 12803 38b2 02       		.uleb128 0x2
 12804 38b3 75       		.byte	0x75
 12805 38b4 00       		.sleb128 0
 12806 38b5 00       		.byte	0
 12807 38b6 2A       		.uleb128 0x2a
 12808 38b7 F4000000 		.4byte	.LVL26
 12809 38bb EE3D0000 		.4byte	0x3dee
 12810 38bf D0380000 		.4byte	0x38d0
 12811 38c3 2B       		.uleb128 0x2b
 12812 38c4 01       		.uleb128 0x1
 12813 38c5 50       		.byte	0x50
 12814 38c6 02       		.uleb128 0x2
 12815 38c7 78       		.byte	0x78
 12816 38c8 00       		.sleb128 0
 12817 38c9 2B       		.uleb128 0x2b
 12818 38ca 01       		.uleb128 0x1
 12819 38cb 51       		.byte	0x51
 12820 38cc 02       		.uleb128 0x2
 12821 38cd 08       		.byte	0x8
 12822 38ce 71       		.byte	0x71
 12823 38cf 00       		.byte	0
 12824 38d0 2A       		.uleb128 0x2a
 12825 38d1 14010000 		.4byte	.LVL32
ARM GAS  /var/folders/3j/4xdnk5197cv_b7cw3n33qk7r0000gn/T//ccLoT9Qc.s 			page 226


 12826 38d5 B53D0000 		.4byte	0x3db5
 12827 38d9 E9380000 		.4byte	0x38e9
 12828 38dd 2B       		.uleb128 0x2b
 12829 38de 01       		.uleb128 0x1
 12830 38df 51       		.byte	0x51
 12831 38e0 01       		.uleb128 0x1
 12832 38e1 30       		.byte	0x30
 12833 38e2 2B       		.uleb128 0x2b
 12834 38e3 01       		.uleb128 0x1
 12835 38e4 52       		.byte	0x52
 12836 38e5 02       		.uleb128 0x2
 12837 38e6 91       		.byte	0x91
 12838 38e7 4D       		.sleb128 -51
 12839 38e8 00       		.byte	0
 12840 38e9 2C       		.uleb128 0x2c
 12841 38ea 7C010000 		.4byte	.LVL39
 12842 38ee EE3D0000 		.4byte	0x3dee
 12843 38f2 2B       		.uleb128 0x2b
 12844 38f3 01       		.uleb128 0x1
 12845 38f4 50       		.byte	0x50
 12846 38f5 02       		.uleb128 0x2
 12847 38f6 78       		.byte	0x78
 12848 38f7 00       		.sleb128 0
 12849 38f8 2B       		.uleb128 0x2b
 12850 38f9 01       		.uleb128 0x1
 12851 38fa 51       		.byte	0x51
 12852 38fb 02       		.uleb128 0x2
 12853 38fc 08       		.byte	0x8
 12854 38fd 51       		.byte	0x51
 12855 38fe 00       		.byte	0
 12856 38ff 00       		.byte	0
 12857 3900 4C       		.uleb128 0x4c
 12858 3901 B1340000 		.4byte	0x34b1
 12859 3905 00000000 		.4byte	.LFB5
 12860 3909 10000000 		.4byte	.LFE5-.LFB5
 12861 390d 01       		.uleb128 0x1
 12862 390e 9C       		.byte	0x9c
 12863 390f 26390000 		.4byte	0x3926
 12864 3913 30       		.uleb128 0x30
 12865 3914 C1340000 		.4byte	0x34c1
 12866 3918 4D2F0000 		.4byte	.LLST39
 12867 391c 4D       		.uleb128 0x4d
 12868 391d CC340000 		.4byte	0x34cc
 12869 3921 6E2F0000 		.4byte	.LLST40
 12870 3925 00       		.byte	0
 12871 3926 4C       		.uleb128 0x4c
 12872 3927 8A340000 		.4byte	0x348a
 12873 392b 00000000 		.4byte	.LFB6
 12874 392f 10000000 		.4byte	.LFE6-.LFB6
 12875 3933 01       		.uleb128 0x1
 12876 3934 9C       		.byte	0x9c
 12877 3935 4C390000 		.4byte	0x394c
 12878 3939 30       		.uleb128 0x30
 12879 393a 9A340000 		.4byte	0x349a
 12880 393e 972F0000 		.4byte	.LLST41
 12881 3942 4D       		.uleb128 0x4d
 12882 3943 A5340000 		.4byte	0x34a5
ARM GAS  /var/folders/3j/4xdnk5197cv_b7cw3n33qk7r0000gn/T//ccLoT9Qc.s 			page 227


 12883 3947 B82F0000 		.4byte	.LLST42
 12884 394b 00       		.byte	0
 12885 394c 4C       		.uleb128 0x4c
 12886 394d 58340000 		.4byte	0x3458
 12887 3951 00000000 		.4byte	.LFB7
 12888 3955 54000000 		.4byte	.LFE7-.LFB7
 12889 3959 01       		.uleb128 0x1
 12890 395a 9C       		.byte	0x9c
 12891 395b 7B390000 		.4byte	0x397b
 12892 395f 30       		.uleb128 0x30
 12893 3960 68340000 		.4byte	0x3468
 12894 3964 E32F0000 		.4byte	.LLST43
 12895 3968 4D       		.uleb128 0x4d
 12896 3969 73340000 		.4byte	0x3473
 12897 396d 1A300000 		.4byte	.LLST44
 12898 3971 4D       		.uleb128 0x4d
 12899 3972 7E340000 		.4byte	0x347e
 12900 3976 45300000 		.4byte	.LLST45
 12901 397a 00       		.byte	0
 12902 397b 4C       		.uleb128 0x4c
 12903 397c 4F2A0000 		.4byte	0x2a4f
 12904 3980 00000000 		.4byte	.LFB11
 12905 3984 14000000 		.4byte	.LFE11-.LFB11
 12906 3988 01       		.uleb128 0x1
 12907 3989 9C       		.byte	0x9c
 12908 398a B8390000 		.4byte	0x39b8
 12909 398e 30       		.uleb128 0x30
 12910 398f 602A0000 		.4byte	0x2a60
 12911 3993 8B300000 		.4byte	.LLST65
 12912 3997 30       		.uleb128 0x30
 12913 3998 6C2A0000 		.4byte	0x2a6c
 12914 399c AC300000 		.4byte	.LLST66
 12915 39a0 51       		.uleb128 0x51
 12916 39a1 782A0000 		.4byte	0x2a78
 12917 39a5 7706     		.2byte	0x677
 12918 39a7 51       		.uleb128 0x51
 12919 39a8 842A0000 		.4byte	0x2a84
 12920 39ac 0009     		.2byte	0x900
 12921 39ae 4D       		.uleb128 0x4d
 12922 39af 902A0000 		.4byte	0x2a90
 12923 39b3 CD300000 		.4byte	.LLST67
 12924 39b7 00       		.byte	0
 12925 39b8 4C       		.uleb128 0x4c
 12926 39b9 0D2A0000 		.4byte	0x2a0d
 12927 39bd 00000000 		.4byte	.LFB12
 12928 39c1 0C000000 		.4byte	.LFE12-.LFB12
 12929 39c5 01       		.uleb128 0x1
 12930 39c6 9C       		.byte	0x9c
 12931 39c7 F8390000 		.4byte	0x39f8
 12932 39cb 30       		.uleb128 0x30
 12933 39cc 1E2A0000 		.4byte	0x2a1e
 12934 39d0 02310000 		.4byte	.LLST68
 12935 39d4 52       		.uleb128 0x52
 12936 39d5 2A2A0000 		.4byte	0x2a2a
 12937 39d9 00       		.byte	0
 12938 39da 52       		.uleb128 0x52
 12939 39db 362A0000 		.4byte	0x2a36
ARM GAS  /var/folders/3j/4xdnk5197cv_b7cw3n33qk7r0000gn/T//ccLoT9Qc.s 			page 228


 12940 39df 00       		.byte	0
 12941 39e0 52       		.uleb128 0x52
 12942 39e1 422A0000 		.4byte	0x2a42
 12943 39e5 00       		.byte	0
 12944 39e6 53       		.uleb128 0x53
 12945 39e7 0C000000 		.4byte	.LVL310
 12946 39eb D7350000 		.4byte	0x35d7
 12947 39ef 2B       		.uleb128 0x2b
 12948 39f0 01       		.uleb128 0x1
 12949 39f1 50       		.byte	0x50
 12950 39f2 03       		.uleb128 0x3
 12951 39f3 F3       		.byte	0xf3
 12952 39f4 01       		.uleb128 0x1
 12953 39f5 50       		.byte	0x50
 12954 39f6 00       		.byte	0
 12955 39f7 00       		.byte	0
 12956 39f8 4C       		.uleb128 0x4c
 12957 39f9 E3290000 		.4byte	0x29e3
 12958 39fd 00000000 		.4byte	.LFB13
 12959 3a01 14000000 		.4byte	.LFE13-.LFB13
 12960 3a05 01       		.uleb128 0x1
 12961 3a06 9C       		.byte	0x9c
 12962 3a07 1E3A0000 		.4byte	0x3a1e
 12963 3a0b 30       		.uleb128 0x30
 12964 3a0c F4290000 		.4byte	0x29f4
 12965 3a10 23310000 		.4byte	.LLST69
 12966 3a14 4D       		.uleb128 0x4d
 12967 3a15 002A0000 		.4byte	0x2a00
 12968 3a19 44310000 		.4byte	.LLST70
 12969 3a1d 00       		.byte	0
 12970 3a1e 4E       		.uleb128 0x4e
 12971 3a1f 89290000 		.4byte	0x2989
 12972 3a23 00000000 		.4byte	.LFB14
 12973 3a27 40000000 		.4byte	.LFE14-.LFB14
 12974 3a2b 01       		.uleb128 0x1
 12975 3a2c 9C       		.byte	0x9c
 12976 3a2d 943A0000 		.4byte	0x3a94
 12977 3a31 30       		.uleb128 0x30
 12978 3a32 9A290000 		.4byte	0x299a
 12979 3a36 8C310000 		.4byte	.LLST71
 12980 3a3a 30       		.uleb128 0x30
 12981 3a3b A6290000 		.4byte	0x29a6
 12982 3a3f AD310000 		.4byte	.LLST72
 12983 3a43 30       		.uleb128 0x30
 12984 3a44 B2290000 		.4byte	0x29b2
 12985 3a48 CE310000 		.4byte	.LLST73
 12986 3a4c 32       		.uleb128 0x32
 12987 3a4d BE290000 		.4byte	0x29be
 12988 3a51 4D       		.uleb128 0x4d
 12989 3a52 CA290000 		.4byte	0x29ca
 12990 3a56 EF310000 		.4byte	.LLST74
 12991 3a5a 4D       		.uleb128 0x4d
 12992 3a5b D6290000 		.4byte	0x29d6
 12993 3a5f 0E320000 		.4byte	.LLST75
 12994 3a63 34       		.uleb128 0x34
 12995 3a64 4F2A0000 		.4byte	0x2a4f
 12996 3a68 00000000 		.4byte	.LBB136
ARM GAS  /var/folders/3j/4xdnk5197cv_b7cw3n33qk7r0000gn/T//ccLoT9Qc.s 			page 229


 12997 3a6c 80000000 		.4byte	.Ldebug_ranges0+0x80
 12998 3a70 01       		.byte	0x1
 12999 3a71 2502     		.2byte	0x225
 13000 3a73 33       		.uleb128 0x33
 13001 3a74 6C2A0000 		.4byte	0x2a6c
 13002 3a78 33       		.uleb128 0x33
 13003 3a79 602A0000 		.4byte	0x2a60
 13004 3a7d 31       		.uleb128 0x31
 13005 3a7e 80000000 		.4byte	.Ldebug_ranges0+0x80
 13006 3a82 32       		.uleb128 0x32
 13007 3a83 A0390000 		.4byte	0x39a0
 13008 3a87 32       		.uleb128 0x32
 13009 3a88 A7390000 		.4byte	0x39a7
 13010 3a8c 32       		.uleb128 0x32
 13011 3a8d AE390000 		.4byte	0x39ae
 13012 3a91 00       		.byte	0
 13013 3a92 00       		.byte	0
 13014 3a93 00       		.byte	0
 13015 3a94 4C       		.uleb128 0x4c
 13016 3a95 2F290000 		.4byte	0x292f
 13017 3a99 00000000 		.4byte	.LFB15
 13018 3a9d 38000000 		.4byte	.LFE15-.LFB15
 13019 3aa1 01       		.uleb128 0x1
 13020 3aa2 9C       		.byte	0x9c
 13021 3aa3 083B0000 		.4byte	0x3b08
 13022 3aa7 30       		.uleb128 0x30
 13023 3aa8 40290000 		.4byte	0x2940
 13024 3aac 53320000 		.4byte	.LLST76
 13025 3ab0 54       		.uleb128 0x54
 13026 3ab1 4C290000 		.4byte	0x294c
 13027 3ab5 01       		.uleb128 0x1
 13028 3ab6 51       		.byte	0x51
 13029 3ab7 30       		.uleb128 0x30
 13030 3ab8 58290000 		.4byte	0x2958
 13031 3abc 74320000 		.4byte	.LLST77
 13032 3ac0 32       		.uleb128 0x32
 13033 3ac1 64290000 		.4byte	0x2964
 13034 3ac5 4D       		.uleb128 0x4d
 13035 3ac6 70290000 		.4byte	0x2970
 13036 3aca 95320000 		.4byte	.LLST78
 13037 3ace 4D       		.uleb128 0x4d
 13038 3acf 7C290000 		.4byte	0x297c
 13039 3ad3 E4320000 		.4byte	.LLST79
 13040 3ad7 34       		.uleb128 0x34
 13041 3ad8 4F2A0000 		.4byte	0x2a4f
 13042 3adc 00000000 		.4byte	.LBB140
 13043 3ae0 98000000 		.4byte	.Ldebug_ranges0+0x98
 13044 3ae4 01       		.byte	0x1
 13045 3ae5 3802     		.2byte	0x238
 13046 3ae7 33       		.uleb128 0x33
 13047 3ae8 6C2A0000 		.4byte	0x2a6c
 13048 3aec 33       		.uleb128 0x33
 13049 3aed 602A0000 		.4byte	0x2a60
 13050 3af1 31       		.uleb128 0x31
 13051 3af2 98000000 		.4byte	.Ldebug_ranges0+0x98
 13052 3af6 32       		.uleb128 0x32
 13053 3af7 A0390000 		.4byte	0x39a0
ARM GAS  /var/folders/3j/4xdnk5197cv_b7cw3n33qk7r0000gn/T//ccLoT9Qc.s 			page 230


 13054 3afb 32       		.uleb128 0x32
 13055 3afc A7390000 		.4byte	0x39a7
 13056 3b00 32       		.uleb128 0x32
 13057 3b01 AE390000 		.4byte	0x39ae
 13058 3b05 00       		.byte	0
 13059 3b06 00       		.byte	0
 13060 3b07 00       		.byte	0
 13061 3b08 4E       		.uleb128 0x4e
 13062 3b09 8B240000 		.4byte	0x248b
 13063 3b0d 00000000 		.4byte	.LFB17
 13064 3b11 A8000000 		.4byte	.LFE17-.LFB17
 13065 3b15 01       		.uleb128 0x1
 13066 3b16 9C       		.byte	0x9c
 13067 3b17 3D3C0000 		.4byte	0x3c3d
 13068 3b1b 30       		.uleb128 0x30
 13069 3b1c 9C240000 		.4byte	0x249c
 13070 3b20 5B330000 		.4byte	.LLST96
 13071 3b24 30       		.uleb128 0x30
 13072 3b25 A8240000 		.4byte	0x24a8
 13073 3b29 A0330000 		.4byte	.LLST97
 13074 3b2d 30       		.uleb128 0x30
 13075 3b2e B4240000 		.4byte	0x24b4
 13076 3b32 DA330000 		.4byte	.LLST98
 13077 3b36 4D       		.uleb128 0x4d
 13078 3b37 C0240000 		.4byte	0x24c0
 13079 3b3b 1F340000 		.4byte	.LLST99
 13080 3b3f 4F       		.uleb128 0x4f
 13081 3b40 CC240000 		.4byte	0x24cc
 13082 3b44 02       		.uleb128 0x2
 13083 3b45 91       		.byte	0x91
 13084 3b46 67       		.sleb128 -25
 13085 3b47 4D       		.uleb128 0x4d
 13086 3b48 D8240000 		.4byte	0x24d8
 13087 3b4c 60340000 		.4byte	.LLST100
 13088 3b50 32       		.uleb128 0x32
 13089 3b51 E4240000 		.4byte	0x24e4
 13090 3b55 32       		.uleb128 0x32
 13091 3b56 F0240000 		.4byte	0x24f0
 13092 3b5a 4D       		.uleb128 0x4d
 13093 3b5b FC240000 		.4byte	0x24fc
 13094 3b5f 73340000 		.4byte	.LLST101
 13095 3b63 32       		.uleb128 0x32
 13096 3b64 08250000 		.4byte	0x2508
 13097 3b68 32       		.uleb128 0x32
 13098 3b69 14250000 		.4byte	0x2514
 13099 3b6d 32       		.uleb128 0x32
 13100 3b6e 20250000 		.4byte	0x2520
 13101 3b72 35       		.uleb128 0x35
 13102 3b73 89290000 		.4byte	0x2989
 13103 3b77 38000000 		.4byte	.LBB180
 13104 3b7b 38000000 		.4byte	.LBE180-.LBB180
 13105 3b7f 01       		.byte	0x1
 13106 3b80 C602     		.2byte	0x2c6
 13107 3b82 EB3B0000 		.4byte	0x3beb
 13108 3b86 30       		.uleb128 0x30
 13109 3b87 B2290000 		.4byte	0x29b2
 13110 3b8b 86340000 		.4byte	.LLST102
ARM GAS  /var/folders/3j/4xdnk5197cv_b7cw3n33qk7r0000gn/T//ccLoT9Qc.s 			page 231


 13111 3b8f 30       		.uleb128 0x30
 13112 3b90 A6290000 		.4byte	0x29a6
 13113 3b94 9A340000 		.4byte	.LLST103
 13114 3b98 30       		.uleb128 0x30
 13115 3b99 9A290000 		.4byte	0x299a
 13116 3b9d BB340000 		.4byte	.LLST104
 13117 3ba1 36       		.uleb128 0x36
 13118 3ba2 38000000 		.4byte	.LBB181
 13119 3ba6 38000000 		.4byte	.LBE181-.LBB181
 13120 3baa 32       		.uleb128 0x32
 13121 3bab 4C3A0000 		.4byte	0x3a4c
 13122 3baf 32       		.uleb128 0x32
 13123 3bb0 513A0000 		.4byte	0x3a51
 13124 3bb4 32       		.uleb128 0x32
 13125 3bb5 5A3A0000 		.4byte	0x3a5a
 13126 3bb9 34       		.uleb128 0x34
 13127 3bba 4F2A0000 		.4byte	0x2a4f
 13128 3bbe 38000000 		.4byte	.LBB182
 13129 3bc2 50010000 		.4byte	.Ldebug_ranges0+0x150
 13130 3bc6 01       		.byte	0x1
 13131 3bc7 2502     		.2byte	0x225
 13132 3bc9 33       		.uleb128 0x33
 13133 3bca 6C2A0000 		.4byte	0x2a6c
 13134 3bce 33       		.uleb128 0x33
 13135 3bcf 602A0000 		.4byte	0x2a60
 13136 3bd3 31       		.uleb128 0x31
 13137 3bd4 50010000 		.4byte	.Ldebug_ranges0+0x150
 13138 3bd8 32       		.uleb128 0x32
 13139 3bd9 A0390000 		.4byte	0x39a0
 13140 3bdd 32       		.uleb128 0x32
 13141 3bde A7390000 		.4byte	0x39a7
 13142 3be2 32       		.uleb128 0x32
 13143 3be3 AE390000 		.4byte	0x39ae
 13144 3be7 00       		.byte	0
 13145 3be8 00       		.byte	0
 13146 3be9 00       		.byte	0
 13147 3bea 00       		.byte	0
 13148 3beb 2A       		.uleb128 0x2a
 13149 3bec 14000000 		.4byte	.LVL368
 13150 3bf0 0F360000 		.4byte	0x360f
 13151 3bf4 073C0000 		.4byte	0x3c07
 13152 3bf8 2B       		.uleb128 0x2b
 13153 3bf9 01       		.uleb128 0x1
 13154 3bfa 50       		.byte	0x50
 13155 3bfb 03       		.uleb128 0x3
 13156 3bfc F3       		.byte	0xf3
 13157 3bfd 01       		.uleb128 0x1
 13158 3bfe 50       		.byte	0x50
 13159 3bff 2B       		.uleb128 0x2b
 13160 3c00 01       		.uleb128 0x1
 13161 3c01 52       		.byte	0x52
 13162 3c02 03       		.uleb128 0x3
 13163 3c03 F3       		.byte	0xf3
 13164 3c04 01       		.uleb128 0x1
 13165 3c05 52       		.byte	0x52
 13166 3c06 00       		.byte	0
 13167 3c07 2A       		.uleb128 0x2a
ARM GAS  /var/folders/3j/4xdnk5197cv_b7cw3n33qk7r0000gn/T//ccLoT9Qc.s 			page 232


 13168 3c08 30000000 		.4byte	.LVL372
 13169 3c0c B53D0000 		.4byte	0x3db5
 13170 3c10 263C0000 		.4byte	0x3c26
 13171 3c14 2B       		.uleb128 0x2b
 13172 3c15 01       		.uleb128 0x1
 13173 3c16 50       		.byte	0x50
 13174 3c17 02       		.uleb128 0x2
 13175 3c18 77       		.byte	0x77
 13176 3c19 00       		.sleb128 0
 13177 3c1a 2B       		.uleb128 0x2b
 13178 3c1b 01       		.uleb128 0x1
 13179 3c1c 51       		.byte	0x51
 13180 3c1d 01       		.uleb128 0x1
 13181 3c1e 30       		.byte	0x30
 13182 3c1f 2B       		.uleb128 0x2b
 13183 3c20 01       		.uleb128 0x1
 13184 3c21 52       		.byte	0x52
 13185 3c22 02       		.uleb128 0x2
 13186 3c23 91       		.byte	0x91
 13187 3c24 5F       		.sleb128 -33
 13188 3c25 00       		.byte	0
 13189 3c26 2C       		.uleb128 0x2c
 13190 3c27 9C000000 		.4byte	.LVL383
 13191 3c2b 663D0000 		.4byte	0x3d66
 13192 3c2f 2B       		.uleb128 0x2b
 13193 3c30 01       		.uleb128 0x1
 13194 3c31 50       		.byte	0x50
 13195 3c32 02       		.uleb128 0x2
 13196 3c33 77       		.byte	0x77
 13197 3c34 00       		.sleb128 0
 13198 3c35 2B       		.uleb128 0x2b
 13199 3c36 01       		.uleb128 0x1
 13200 3c37 51       		.byte	0x51
 13201 3c38 02       		.uleb128 0x2
 13202 3c39 08       		.byte	0x8
 13203 3c3a 46       		.byte	0x46
 13204 3c3b 00       		.byte	0
 13205 3c3c 00       		.byte	0
 13206 3c3d 4C       		.uleb128 0x4c
 13207 3c3e 011A0000 		.4byte	0x1a01
 13208 3c42 00000000 		.4byte	.LFB23
 13209 3c46 58000000 		.4byte	.LFE23-.LFB23
 13210 3c4a 01       		.uleb128 0x1
 13211 3c4b 9C       		.byte	0x9c
 13212 3c4c F03C0000 		.4byte	0x3cf0
 13213 3c50 30       		.uleb128 0x30
 13214 3c51 121A0000 		.4byte	0x1a12
 13215 3c55 CE340000 		.4byte	.LLST142
 13216 3c59 30       		.uleb128 0x30
 13217 3c5a 1E1A0000 		.4byte	0x1a1e
 13218 3c5e EC340000 		.4byte	.LLST143
 13219 3c62 30       		.uleb128 0x30
 13220 3c63 2A1A0000 		.4byte	0x1a2a
 13221 3c67 0A350000 		.4byte	.LLST144
 13222 3c6b 4D       		.uleb128 0x4d
 13223 3c6c 361A0000 		.4byte	0x1a36
 13224 3c70 28350000 		.4byte	.LLST145
ARM GAS  /var/folders/3j/4xdnk5197cv_b7cw3n33qk7r0000gn/T//ccLoT9Qc.s 			page 233


 13225 3c74 4F       		.uleb128 0x4f
 13226 3c75 421A0000 		.4byte	0x1a42
 13227 3c79 02       		.uleb128 0x2
 13228 3c7a 91       		.byte	0x91
 13229 3c7b 6F       		.sleb128 -17
 13230 3c7c 32       		.uleb128 0x32
 13231 3c7d 4E1A0000 		.4byte	0x1a4e
 13232 3c81 32       		.uleb128 0x32
 13233 3c82 5A1A0000 		.4byte	0x1a5a
 13234 3c86 55       		.uleb128 0x55
 13235 3c87 011A0000 		.4byte	0x1a01
 13236 3c8b 38000000 		.4byte	.LBB204
 13237 3c8f 18000000 		.4byte	.LBE204-.LBB204
 13238 3c93 D93C0000 		.4byte	0x3cd9
 13239 3c97 30       		.uleb128 0x30
 13240 3c98 2A1A0000 		.4byte	0x1a2a
 13241 3c9c 47350000 		.4byte	.LLST146
 13242 3ca0 30       		.uleb128 0x30
 13243 3ca1 1E1A0000 		.4byte	0x1a1e
 13244 3ca5 5A350000 		.4byte	.LLST147
 13245 3ca9 30       		.uleb128 0x30
 13246 3caa 121A0000 		.4byte	0x1a12
 13247 3cae 6D350000 		.4byte	.LLST148
 13248 3cb2 36       		.uleb128 0x36
 13249 3cb3 38000000 		.4byte	.LBB205
 13250 3cb7 18000000 		.4byte	.LBE205-.LBB205
 13251 3cbb 32       		.uleb128 0x32
 13252 3cbc 6B3C0000 		.4byte	0x3c6b
 13253 3cc0 32       		.uleb128 0x32
 13254 3cc1 743C0000 		.4byte	0x3c74
 13255 3cc5 4D       		.uleb128 0x4d
 13256 3cc6 7C3C0000 		.4byte	0x3c7c
 13257 3cca 80350000 		.4byte	.LLST149
 13258 3cce 4D       		.uleb128 0x4d
 13259 3ccf 813C0000 		.4byte	0x3c81
 13260 3cd3 CF350000 		.4byte	.LLST150
 13261 3cd7 00       		.byte	0
 13262 3cd8 00       		.byte	0
 13263 3cd9 2C       		.uleb128 0x2c
 13264 3cda 24000000 		.4byte	.LVL554
 13265 3cde F93D0000 		.4byte	0x3df9
 13266 3ce2 2B       		.uleb128 0x2b
 13267 3ce3 01       		.uleb128 0x1
 13268 3ce4 50       		.byte	0x50
 13269 3ce5 02       		.uleb128 0x2
 13270 3ce6 75       		.byte	0x75
 13271 3ce7 00       		.sleb128 0
 13272 3ce8 2B       		.uleb128 0x2b
 13273 3ce9 01       		.uleb128 0x1
 13274 3cea 51       		.byte	0x51
 13275 3ceb 02       		.uleb128 0x2
 13276 3cec 91       		.byte	0x91
 13277 3ced 67       		.sleb128 -25
 13278 3cee 00       		.byte	0
 13279 3cef 00       		.byte	0
 13280 3cf0 4C       		.uleb128 0x4c
 13281 3cf1 B3190000 		.4byte	0x19b3
ARM GAS  /var/folders/3j/4xdnk5197cv_b7cw3n33qk7r0000gn/T//ccLoT9Qc.s 			page 234


 13282 3cf5 00000000 		.4byte	.LFB24
 13283 3cf9 38000000 		.4byte	.LFE24-.LFB24
 13284 3cfd 01       		.uleb128 0x1
 13285 3cfe 9C       		.byte	0x9c
 13286 3cff 4E3D0000 		.4byte	0x3d4e
 13287 3d03 30       		.uleb128 0x30
 13288 3d04 C4190000 		.4byte	0x19c4
 13289 3d08 E3350000 		.4byte	.LLST151
 13290 3d0c 30       		.uleb128 0x30
 13291 3d0d D0190000 		.4byte	0x19d0
 13292 3d11 04360000 		.4byte	.LLST152
 13293 3d15 30       		.uleb128 0x30
 13294 3d16 DC190000 		.4byte	0x19dc
 13295 3d1a 25360000 		.4byte	.LLST153
 13296 3d1e 4D       		.uleb128 0x4d
 13297 3d1f E8190000 		.4byte	0x19e8
 13298 3d23 43360000 		.4byte	.LLST154
 13299 3d27 4F       		.uleb128 0x4f
 13300 3d28 F4190000 		.4byte	0x19f4
 13301 3d2c 02       		.uleb128 0x2
 13302 3d2d 91       		.byte	0x91
 13303 3d2e 74       		.sleb128 -12
 13304 3d2f 2C       		.uleb128 0x2c
 13305 3d30 1C000000 		.4byte	.LVL563
 13306 3d34 011A0000 		.4byte	0x1a01
 13307 3d38 2B       		.uleb128 0x2b
 13308 3d39 01       		.uleb128 0x1
 13309 3d3a 50       		.byte	0x50
 13310 3d3b 03       		.uleb128 0x3
 13311 3d3c F3       		.byte	0xf3
 13312 3d3d 01       		.uleb128 0x1
 13313 3d3e 50       		.byte	0x50
 13314 3d3f 2B       		.uleb128 0x2b
 13315 3d40 01       		.uleb128 0x1
 13316 3d41 51       		.byte	0x51
 13317 3d42 03       		.uleb128 0x3
 13318 3d43 F3       		.byte	0xf3
 13319 3d44 01       		.uleb128 0x1
 13320 3d45 51       		.byte	0x51
 13321 3d46 2B       		.uleb128 0x2b
 13322 3d47 01       		.uleb128 0x1
 13323 3d48 52       		.byte	0x52
 13324 3d49 02       		.uleb128 0x2
 13325 3d4a 91       		.byte	0x91
 13326 3d4b 6C       		.sleb128 -20
 13327 3d4c 00       		.byte	0
 13328 3d4d 00       		.byte	0
 13329 3d4e 56       		.uleb128 0x56
 13330 3d4f 271C0000 		.4byte	.LASF435
 13331 3d53 271C0000 		.4byte	.LASF435
 13332 3d57 0D       		.byte	0xd
 13333 3d58 5A04     		.2byte	0x45a
 13334 3d5a 56       		.uleb128 0x56
 13335 3d5b CD120000 		.4byte	.LASF436
 13336 3d5f CD120000 		.4byte	.LASF436
 13337 3d63 0D       		.byte	0xd
 13338 3d64 8704     		.2byte	0x487
ARM GAS  /var/folders/3j/4xdnk5197cv_b7cw3n33qk7r0000gn/T//ccLoT9Qc.s 			page 235


 13339 3d66 57       		.uleb128 0x57
 13340 3d67 28000000 		.4byte	.LASF437
 13341 3d6b 28000000 		.4byte	.LASF437
 13342 3d6f 0B       		.byte	0xb
 13343 3d70 94       		.byte	0x94
 13344 3d71 57       		.uleb128 0x57
 13345 3d72 D7100000 		.4byte	.LASF438
 13346 3d76 D7100000 		.4byte	.LASF438
 13347 3d7a 0B       		.byte	0xb
 13348 3d7b BC       		.byte	0xbc
 13349 3d7c 57       		.uleb128 0x57
 13350 3d7d C7140000 		.4byte	.LASF439
 13351 3d81 C7140000 		.4byte	.LASF439
 13352 3d85 0B       		.byte	0xb
 13353 3d86 7F       		.byte	0x7f
 13354 3d87 56       		.uleb128 0x56
 13355 3d88 A40B0000 		.4byte	.LASF440
 13356 3d8c A40B0000 		.4byte	.LASF440
 13357 3d90 0D       		.byte	0xd
 13358 3d91 1A03     		.2byte	0x31a
 13359 3d93 57       		.uleb128 0x57
 13360 3d94 32100000 		.4byte	.LASF441
 13361 3d98 32100000 		.4byte	.LASF441
 13362 3d9c 0B       		.byte	0xb
 13363 3d9d B2       		.byte	0xb2
 13364 3d9e 56       		.uleb128 0x56
 13365 3d9f 560E0000 		.4byte	.LASF442
 13366 3da3 560E0000 		.4byte	.LASF442
 13367 3da7 0D       		.byte	0xd
 13368 3da8 A602     		.2byte	0x2a6
 13369 3daa 57       		.uleb128 0x57
 13370 3dab 37000000 		.4byte	.LASF443
 13371 3daf 37000000 		.4byte	.LASF443
 13372 3db3 0E       		.byte	0xe
 13373 3db4 41       		.byte	0x41
 13374 3db5 56       		.uleb128 0x56
 13375 3db6 D3090000 		.4byte	.LASF444
 13376 3dba D3090000 		.4byte	.LASF444
 13377 3dbe 0D       		.byte	0xd
 13378 3dbf CF02     		.2byte	0x2cf
 13379 3dc1 57       		.uleb128 0x57
 13380 3dc2 13100000 		.4byte	.LASF445
 13381 3dc6 13100000 		.4byte	.LASF445
 13382 3dca 0B       		.byte	0xb
 13383 3dcb E5       		.byte	0xe5
 13384 3dcc 57       		.uleb128 0x57
 13385 3dcd 99190000 		.4byte	.LASF446
 13386 3dd1 99190000 		.4byte	.LASF446
 13387 3dd5 0F       		.byte	0xf
 13388 3dd6 26       		.byte	0x26
 13389 3dd7 57       		.uleb128 0x57
 13390 3dd8 C3110000 		.4byte	.LASF447
 13391 3ddc C3110000 		.4byte	.LASF447
 13392 3de0 0B       		.byte	0xb
 13393 3de1 C6       		.byte	0xc6
 13394 3de2 56       		.uleb128 0x56
 13395 3de3 901B0000 		.4byte	.LASF448
ARM GAS  /var/folders/3j/4xdnk5197cv_b7cw3n33qk7r0000gn/T//ccLoT9Qc.s 			page 236


 13396 3de7 901B0000 		.4byte	.LASF448
 13397 3deb 0D       		.byte	0xd
 13398 3dec AA05     		.2byte	0x5aa
 13399 3dee 57       		.uleb128 0x57
 13400 3def 91130000 		.4byte	.LASF449
 13401 3df3 91130000 		.4byte	.LASF449
 13402 3df7 0B       		.byte	0xb
 13403 3df8 9E       		.byte	0x9e
 13404 3df9 56       		.uleb128 0x56
 13405 3dfa A0190000 		.4byte	.LASF450
 13406 3dfe A0190000 		.4byte	.LASF450
 13407 3e02 0D       		.byte	0xd
 13408 3e03 A403     		.2byte	0x3a4
 13409 3e05 00       		.byte	0
 13410              		.section	.debug_abbrev,"",%progbits
 13411              	.Ldebug_abbrev0:
 13412 0000 01       		.uleb128 0x1
 13413 0001 11       		.uleb128 0x11
 13414 0002 01       		.byte	0x1
 13415 0003 25       		.uleb128 0x25
 13416 0004 0E       		.uleb128 0xe
 13417 0005 13       		.uleb128 0x13
 13418 0006 0B       		.uleb128 0xb
 13419 0007 03       		.uleb128 0x3
 13420 0008 0E       		.uleb128 0xe
 13421 0009 1B       		.uleb128 0x1b
 13422 000a 0E       		.uleb128 0xe
 13423 000b 55       		.uleb128 0x55
 13424 000c 17       		.uleb128 0x17
 13425 000d 11       		.uleb128 0x11
 13426 000e 01       		.uleb128 0x1
 13427 000f 10       		.uleb128 0x10
 13428 0010 17       		.uleb128 0x17
 13429 0011 00       		.byte	0
 13430 0012 00       		.byte	0
 13431 0013 02       		.uleb128 0x2
 13432 0014 24       		.uleb128 0x24
 13433 0015 00       		.byte	0
 13434 0016 0B       		.uleb128 0xb
 13435 0017 0B       		.uleb128 0xb
 13436 0018 3E       		.uleb128 0x3e
 13437 0019 0B       		.uleb128 0xb
 13438 001a 03       		.uleb128 0x3
 13439 001b 0E       		.uleb128 0xe
 13440 001c 00       		.byte	0
 13441 001d 00       		.byte	0
 13442 001e 03       		.uleb128 0x3
 13443 001f 16       		.uleb128 0x16
 13444 0020 00       		.byte	0
 13445 0021 03       		.uleb128 0x3
 13446 0022 0E       		.uleb128 0xe
 13447 0023 3A       		.uleb128 0x3a
 13448 0024 0B       		.uleb128 0xb
 13449 0025 3B       		.uleb128 0x3b
 13450 0026 0B       		.uleb128 0xb
 13451 0027 49       		.uleb128 0x49
 13452 0028 13       		.uleb128 0x13
ARM GAS  /var/folders/3j/4xdnk5197cv_b7cw3n33qk7r0000gn/T//ccLoT9Qc.s 			page 237


 13453 0029 00       		.byte	0
 13454 002a 00       		.byte	0
 13455 002b 04       		.uleb128 0x4
 13456 002c 24       		.uleb128 0x24
 13457 002d 00       		.byte	0
 13458 002e 0B       		.uleb128 0xb
 13459 002f 0B       		.uleb128 0xb
 13460 0030 3E       		.uleb128 0x3e
 13461 0031 0B       		.uleb128 0xb
 13462 0032 03       		.uleb128 0x3
 13463 0033 08       		.uleb128 0x8
 13464 0034 00       		.byte	0
 13465 0035 00       		.byte	0
 13466 0036 05       		.uleb128 0x5
 13467 0037 26       		.uleb128 0x26
 13468 0038 00       		.byte	0
 13469 0039 49       		.uleb128 0x49
 13470 003a 13       		.uleb128 0x13
 13471 003b 00       		.byte	0
 13472 003c 00       		.byte	0
 13473 003d 06       		.uleb128 0x6
 13474 003e 01       		.uleb128 0x1
 13475 003f 01       		.byte	0x1
 13476 0040 49       		.uleb128 0x49
 13477 0041 13       		.uleb128 0x13
 13478 0042 01       		.uleb128 0x1
 13479 0043 13       		.uleb128 0x13
 13480 0044 00       		.byte	0
 13481 0045 00       		.byte	0
 13482 0046 07       		.uleb128 0x7
 13483 0047 21       		.uleb128 0x21
 13484 0048 00       		.byte	0
 13485 0049 49       		.uleb128 0x49
 13486 004a 13       		.uleb128 0x13
 13487 004b 2F       		.uleb128 0x2f
 13488 004c 0B       		.uleb128 0xb
 13489 004d 00       		.byte	0
 13490 004e 00       		.byte	0
 13491 004f 08       		.uleb128 0x8
 13492 0050 13       		.uleb128 0x13
 13493 0051 01       		.byte	0x1
 13494 0052 0B       		.uleb128 0xb
 13495 0053 0B       		.uleb128 0xb
 13496 0054 3A       		.uleb128 0x3a
 13497 0055 0B       		.uleb128 0xb
 13498 0056 3B       		.uleb128 0x3b
 13499 0057 0B       		.uleb128 0xb
 13500 0058 01       		.uleb128 0x1
 13501 0059 13       		.uleb128 0x13
 13502 005a 00       		.byte	0
 13503 005b 00       		.byte	0
 13504 005c 09       		.uleb128 0x9
 13505 005d 0D       		.uleb128 0xd
 13506 005e 00       		.byte	0
 13507 005f 03       		.uleb128 0x3
 13508 0060 0E       		.uleb128 0xe
 13509 0061 3A       		.uleb128 0x3a
ARM GAS  /var/folders/3j/4xdnk5197cv_b7cw3n33qk7r0000gn/T//ccLoT9Qc.s 			page 238


 13510 0062 0B       		.uleb128 0xb
 13511 0063 3B       		.uleb128 0x3b
 13512 0064 0B       		.uleb128 0xb
 13513 0065 49       		.uleb128 0x49
 13514 0066 13       		.uleb128 0x13
 13515 0067 38       		.uleb128 0x38
 13516 0068 0B       		.uleb128 0xb
 13517 0069 00       		.byte	0
 13518 006a 00       		.byte	0
 13519 006b 0A       		.uleb128 0xa
 13520 006c 0D       		.uleb128 0xd
 13521 006d 00       		.byte	0
 13522 006e 03       		.uleb128 0x3
 13523 006f 0E       		.uleb128 0xe
 13524 0070 3A       		.uleb128 0x3a
 13525 0071 0B       		.uleb128 0xb
 13526 0072 3B       		.uleb128 0x3b
 13527 0073 05       		.uleb128 0x5
 13528 0074 49       		.uleb128 0x49
 13529 0075 13       		.uleb128 0x13
 13530 0076 38       		.uleb128 0x38
 13531 0077 0B       		.uleb128 0xb
 13532 0078 00       		.byte	0
 13533 0079 00       		.byte	0
 13534 007a 0B       		.uleb128 0xb
 13535 007b 16       		.uleb128 0x16
 13536 007c 00       		.byte	0
 13537 007d 03       		.uleb128 0x3
 13538 007e 0E       		.uleb128 0xe
 13539 007f 3A       		.uleb128 0x3a
 13540 0080 0B       		.uleb128 0xb
 13541 0081 3B       		.uleb128 0x3b
 13542 0082 05       		.uleb128 0x5
 13543 0083 49       		.uleb128 0x49
 13544 0084 13       		.uleb128 0x13
 13545 0085 00       		.byte	0
 13546 0086 00       		.byte	0
 13547 0087 0C       		.uleb128 0xc
 13548 0088 13       		.uleb128 0x13
 13549 0089 01       		.byte	0x1
 13550 008a 0B       		.uleb128 0xb
 13551 008b 0B       		.uleb128 0xb
 13552 008c 3A       		.uleb128 0x3a
 13553 008d 0B       		.uleb128 0xb
 13554 008e 3B       		.uleb128 0x3b
 13555 008f 05       		.uleb128 0x5
 13556 0090 01       		.uleb128 0x1
 13557 0091 13       		.uleb128 0x13
 13558 0092 00       		.byte	0
 13559 0093 00       		.byte	0
 13560 0094 0D       		.uleb128 0xd
 13561 0095 13       		.uleb128 0x13
 13562 0096 01       		.byte	0x1
 13563 0097 0B       		.uleb128 0xb
 13564 0098 05       		.uleb128 0x5
 13565 0099 3A       		.uleb128 0x3a
 13566 009a 0B       		.uleb128 0xb
ARM GAS  /var/folders/3j/4xdnk5197cv_b7cw3n33qk7r0000gn/T//ccLoT9Qc.s 			page 239


 13567 009b 3B       		.uleb128 0x3b
 13568 009c 05       		.uleb128 0x5
 13569 009d 01       		.uleb128 0x1
 13570 009e 13       		.uleb128 0x13
 13571 009f 00       		.byte	0
 13572 00a0 00       		.byte	0
 13573 00a1 0E       		.uleb128 0xe
 13574 00a2 0D       		.uleb128 0xd
 13575 00a3 00       		.byte	0
 13576 00a4 03       		.uleb128 0x3
 13577 00a5 0E       		.uleb128 0xe
 13578 00a6 3A       		.uleb128 0x3a
 13579 00a7 0B       		.uleb128 0xb
 13580 00a8 3B       		.uleb128 0x3b
 13581 00a9 05       		.uleb128 0x5
 13582 00aa 49       		.uleb128 0x49
 13583 00ab 13       		.uleb128 0x13
 13584 00ac 38       		.uleb128 0x38
 13585 00ad 05       		.uleb128 0x5
 13586 00ae 00       		.byte	0
 13587 00af 00       		.byte	0
 13588 00b0 0F       		.uleb128 0xf
 13589 00b1 0F       		.uleb128 0xf
 13590 00b2 00       		.byte	0
 13591 00b3 0B       		.uleb128 0xb
 13592 00b4 0B       		.uleb128 0xb
 13593 00b5 49       		.uleb128 0x49
 13594 00b6 13       		.uleb128 0x13
 13595 00b7 00       		.byte	0
 13596 00b8 00       		.byte	0
 13597 00b9 10       		.uleb128 0x10
 13598 00ba 0F       		.uleb128 0xf
 13599 00bb 00       		.byte	0
 13600 00bc 0B       		.uleb128 0xb
 13601 00bd 0B       		.uleb128 0xb
 13602 00be 00       		.byte	0
 13603 00bf 00       		.byte	0
 13604 00c0 11       		.uleb128 0x11
 13605 00c1 13       		.uleb128 0x13
 13606 00c2 00       		.byte	0
 13607 00c3 03       		.uleb128 0x3
 13608 00c4 0E       		.uleb128 0xe
 13609 00c5 3C       		.uleb128 0x3c
 13610 00c6 19       		.uleb128 0x19
 13611 00c7 00       		.byte	0
 13612 00c8 00       		.byte	0
 13613 00c9 12       		.uleb128 0x12
 13614 00ca 17       		.uleb128 0x17
 13615 00cb 01       		.byte	0x1
 13616 00cc 0B       		.uleb128 0xb
 13617 00cd 0B       		.uleb128 0xb
 13618 00ce 3A       		.uleb128 0x3a
 13619 00cf 0B       		.uleb128 0xb
 13620 00d0 3B       		.uleb128 0x3b
 13621 00d1 0B       		.uleb128 0xb
 13622 00d2 01       		.uleb128 0x1
 13623 00d3 13       		.uleb128 0x13
ARM GAS  /var/folders/3j/4xdnk5197cv_b7cw3n33qk7r0000gn/T//ccLoT9Qc.s 			page 240


 13624 00d4 00       		.byte	0
 13625 00d5 00       		.byte	0
 13626 00d6 13       		.uleb128 0x13
 13627 00d7 0D       		.uleb128 0xd
 13628 00d8 00       		.byte	0
 13629 00d9 03       		.uleb128 0x3
 13630 00da 0E       		.uleb128 0xe
 13631 00db 3A       		.uleb128 0x3a
 13632 00dc 0B       		.uleb128 0xb
 13633 00dd 3B       		.uleb128 0x3b
 13634 00de 0B       		.uleb128 0xb
 13635 00df 49       		.uleb128 0x49
 13636 00e0 13       		.uleb128 0x13
 13637 00e1 00       		.byte	0
 13638 00e2 00       		.byte	0
 13639 00e3 14       		.uleb128 0x14
 13640 00e4 13       		.uleb128 0x13
 13641 00e5 01       		.byte	0x1
 13642 00e6 03       		.uleb128 0x3
 13643 00e7 0E       		.uleb128 0xe
 13644 00e8 0B       		.uleb128 0xb
 13645 00e9 0B       		.uleb128 0xb
 13646 00ea 3A       		.uleb128 0x3a
 13647 00eb 0B       		.uleb128 0xb
 13648 00ec 3B       		.uleb128 0x3b
 13649 00ed 0B       		.uleb128 0xb
 13650 00ee 01       		.uleb128 0x1
 13651 00ef 13       		.uleb128 0x13
 13652 00f0 00       		.byte	0
 13653 00f1 00       		.byte	0
 13654 00f2 15       		.uleb128 0x15
 13655 00f3 0D       		.uleb128 0xd
 13656 00f4 00       		.byte	0
 13657 00f5 03       		.uleb128 0x3
 13658 00f6 08       		.uleb128 0x8
 13659 00f7 3A       		.uleb128 0x3a
 13660 00f8 0B       		.uleb128 0xb
 13661 00f9 3B       		.uleb128 0x3b
 13662 00fa 0B       		.uleb128 0xb
 13663 00fb 49       		.uleb128 0x49
 13664 00fc 13       		.uleb128 0x13
 13665 00fd 38       		.uleb128 0x38
 13666 00fe 0B       		.uleb128 0xb
 13667 00ff 00       		.byte	0
 13668 0100 00       		.byte	0
 13669 0101 16       		.uleb128 0x16
 13670 0102 13       		.uleb128 0x13
 13671 0103 01       		.byte	0x1
 13672 0104 03       		.uleb128 0x3
 13673 0105 0E       		.uleb128 0xe
 13674 0106 0B       		.uleb128 0xb
 13675 0107 05       		.uleb128 0x5
 13676 0108 3A       		.uleb128 0x3a
 13677 0109 0B       		.uleb128 0xb
 13678 010a 3B       		.uleb128 0x3b
 13679 010b 0B       		.uleb128 0xb
 13680 010c 01       		.uleb128 0x1
ARM GAS  /var/folders/3j/4xdnk5197cv_b7cw3n33qk7r0000gn/T//ccLoT9Qc.s 			page 241


 13681 010d 13       		.uleb128 0x13
 13682 010e 00       		.byte	0
 13683 010f 00       		.byte	0
 13684 0110 17       		.uleb128 0x17
 13685 0111 0D       		.uleb128 0xd
 13686 0112 00       		.byte	0
 13687 0113 03       		.uleb128 0x3
 13688 0114 0E       		.uleb128 0xe
 13689 0115 3A       		.uleb128 0x3a
 13690 0116 0B       		.uleb128 0xb
 13691 0117 3B       		.uleb128 0x3b
 13692 0118 0B       		.uleb128 0xb
 13693 0119 49       		.uleb128 0x49
 13694 011a 13       		.uleb128 0x13
 13695 011b 38       		.uleb128 0x38
 13696 011c 05       		.uleb128 0x5
 13697 011d 00       		.byte	0
 13698 011e 00       		.byte	0
 13699 011f 18       		.uleb128 0x18
 13700 0120 15       		.uleb128 0x15
 13701 0121 00       		.byte	0
 13702 0122 27       		.uleb128 0x27
 13703 0123 19       		.uleb128 0x19
 13704 0124 00       		.byte	0
 13705 0125 00       		.byte	0
 13706 0126 19       		.uleb128 0x19
 13707 0127 15       		.uleb128 0x15
 13708 0128 01       		.byte	0x1
 13709 0129 27       		.uleb128 0x27
 13710 012a 19       		.uleb128 0x19
 13711 012b 49       		.uleb128 0x49
 13712 012c 13       		.uleb128 0x13
 13713 012d 01       		.uleb128 0x1
 13714 012e 13       		.uleb128 0x13
 13715 012f 00       		.byte	0
 13716 0130 00       		.byte	0
 13717 0131 1A       		.uleb128 0x1a
 13718 0132 05       		.uleb128 0x5
 13719 0133 00       		.byte	0
 13720 0134 49       		.uleb128 0x49
 13721 0135 13       		.uleb128 0x13
 13722 0136 00       		.byte	0
 13723 0137 00       		.byte	0
 13724 0138 1B       		.uleb128 0x1b
 13725 0139 13       		.uleb128 0x13
 13726 013a 01       		.byte	0x1
 13727 013b 03       		.uleb128 0x3
 13728 013c 0E       		.uleb128 0xe
 13729 013d 0B       		.uleb128 0xb
 13730 013e 05       		.uleb128 0x5
 13731 013f 3A       		.uleb128 0x3a
 13732 0140 0B       		.uleb128 0xb
 13733 0141 3B       		.uleb128 0x3b
 13734 0142 05       		.uleb128 0x5
 13735 0143 01       		.uleb128 0x1
 13736 0144 13       		.uleb128 0x13
 13737 0145 00       		.byte	0
ARM GAS  /var/folders/3j/4xdnk5197cv_b7cw3n33qk7r0000gn/T//ccLoT9Qc.s 			page 242


 13738 0146 00       		.byte	0
 13739 0147 1C       		.uleb128 0x1c
 13740 0148 13       		.uleb128 0x13
 13741 0149 01       		.byte	0x1
 13742 014a 03       		.uleb128 0x3
 13743 014b 0E       		.uleb128 0xe
 13744 014c 0B       		.uleb128 0xb
 13745 014d 0B       		.uleb128 0xb
 13746 014e 3A       		.uleb128 0x3a
 13747 014f 0B       		.uleb128 0xb
 13748 0150 3B       		.uleb128 0x3b
 13749 0151 05       		.uleb128 0x5
 13750 0152 01       		.uleb128 0x1
 13751 0153 13       		.uleb128 0x13
 13752 0154 00       		.byte	0
 13753 0155 00       		.byte	0
 13754 0156 1D       		.uleb128 0x1d
 13755 0157 17       		.uleb128 0x17
 13756 0158 01       		.byte	0x1
 13757 0159 0B       		.uleb128 0xb
 13758 015a 0B       		.uleb128 0xb
 13759 015b 3A       		.uleb128 0x3a
 13760 015c 0B       		.uleb128 0xb
 13761 015d 3B       		.uleb128 0x3b
 13762 015e 05       		.uleb128 0x5
 13763 015f 01       		.uleb128 0x1
 13764 0160 13       		.uleb128 0x13
 13765 0161 00       		.byte	0
 13766 0162 00       		.byte	0
 13767 0163 1E       		.uleb128 0x1e
 13768 0164 0D       		.uleb128 0xd
 13769 0165 00       		.byte	0
 13770 0166 03       		.uleb128 0x3
 13771 0167 0E       		.uleb128 0xe
 13772 0168 3A       		.uleb128 0x3a
 13773 0169 0B       		.uleb128 0xb
 13774 016a 3B       		.uleb128 0x3b
 13775 016b 05       		.uleb128 0x5
 13776 016c 49       		.uleb128 0x49
 13777 016d 13       		.uleb128 0x13
 13778 016e 00       		.byte	0
 13779 016f 00       		.byte	0
 13780 0170 1F       		.uleb128 0x1f
 13781 0171 15       		.uleb128 0x15
 13782 0172 01       		.byte	0x1
 13783 0173 27       		.uleb128 0x27
 13784 0174 19       		.uleb128 0x19
 13785 0175 01       		.uleb128 0x1
 13786 0176 13       		.uleb128 0x13
 13787 0177 00       		.byte	0
 13788 0178 00       		.byte	0
 13789 0179 20       		.uleb128 0x20
 13790 017a 34       		.uleb128 0x34
 13791 017b 00       		.byte	0
 13792 017c 03       		.uleb128 0x3
 13793 017d 0E       		.uleb128 0xe
 13794 017e 3A       		.uleb128 0x3a
ARM GAS  /var/folders/3j/4xdnk5197cv_b7cw3n33qk7r0000gn/T//ccLoT9Qc.s 			page 243


 13795 017f 0B       		.uleb128 0xb
 13796 0180 3B       		.uleb128 0x3b
 13797 0181 05       		.uleb128 0x5
 13798 0182 49       		.uleb128 0x49
 13799 0183 13       		.uleb128 0x13
 13800 0184 3F       		.uleb128 0x3f
 13801 0185 19       		.uleb128 0x19
 13802 0186 3C       		.uleb128 0x3c
 13803 0187 19       		.uleb128 0x19
 13804 0188 00       		.byte	0
 13805 0189 00       		.byte	0
 13806 018a 21       		.uleb128 0x21
 13807 018b 13       		.uleb128 0x13
 13808 018c 01       		.byte	0x1
 13809 018d 0B       		.uleb128 0xb
 13810 018e 05       		.uleb128 0x5
 13811 018f 3A       		.uleb128 0x3a
 13812 0190 0B       		.uleb128 0xb
 13813 0191 3B       		.uleb128 0x3b
 13814 0192 0B       		.uleb128 0xb
 13815 0193 01       		.uleb128 0x1
 13816 0194 13       		.uleb128 0x13
 13817 0195 00       		.byte	0
 13818 0196 00       		.byte	0
 13819 0197 22       		.uleb128 0x22
 13820 0198 34       		.uleb128 0x34
 13821 0199 00       		.byte	0
 13822 019a 03       		.uleb128 0x3
 13823 019b 0E       		.uleb128 0xe
 13824 019c 3A       		.uleb128 0x3a
 13825 019d 0B       		.uleb128 0xb
 13826 019e 3B       		.uleb128 0x3b
 13827 019f 0B       		.uleb128 0xb
 13828 01a0 49       		.uleb128 0x49
 13829 01a1 13       		.uleb128 0x13
 13830 01a2 3F       		.uleb128 0x3f
 13831 01a3 19       		.uleb128 0x19
 13832 01a4 3C       		.uleb128 0x3c
 13833 01a5 19       		.uleb128 0x19
 13834 01a6 00       		.byte	0
 13835 01a7 00       		.byte	0
 13836 01a8 23       		.uleb128 0x23
 13837 01a9 2E       		.uleb128 0x2e
 13838 01aa 01       		.byte	0x1
 13839 01ab 3F       		.uleb128 0x3f
 13840 01ac 19       		.uleb128 0x19
 13841 01ad 03       		.uleb128 0x3
 13842 01ae 0E       		.uleb128 0xe
 13843 01af 3A       		.uleb128 0x3a
 13844 01b0 0B       		.uleb128 0xb
 13845 01b1 3B       		.uleb128 0x3b
 13846 01b2 05       		.uleb128 0x5
 13847 01b3 27       		.uleb128 0x27
 13848 01b4 19       		.uleb128 0x19
 13849 01b5 49       		.uleb128 0x49
 13850 01b6 13       		.uleb128 0x13
 13851 01b7 11       		.uleb128 0x11
ARM GAS  /var/folders/3j/4xdnk5197cv_b7cw3n33qk7r0000gn/T//ccLoT9Qc.s 			page 244


 13852 01b8 01       		.uleb128 0x1
 13853 01b9 12       		.uleb128 0x12
 13854 01ba 06       		.uleb128 0x6
 13855 01bb 40       		.uleb128 0x40
 13856 01bc 18       		.uleb128 0x18
 13857 01bd 9642     		.uleb128 0x2116
 13858 01bf 19       		.uleb128 0x19
 13859 01c0 01       		.uleb128 0x1
 13860 01c1 13       		.uleb128 0x13
 13861 01c2 00       		.byte	0
 13862 01c3 00       		.byte	0
 13863 01c4 24       		.uleb128 0x24
 13864 01c5 05       		.uleb128 0x5
 13865 01c6 00       		.byte	0
 13866 01c7 03       		.uleb128 0x3
 13867 01c8 08       		.uleb128 0x8
 13868 01c9 3A       		.uleb128 0x3a
 13869 01ca 0B       		.uleb128 0xb
 13870 01cb 3B       		.uleb128 0x3b
 13871 01cc 05       		.uleb128 0x5
 13872 01cd 49       		.uleb128 0x49
 13873 01ce 13       		.uleb128 0x13
 13874 01cf 02       		.uleb128 0x2
 13875 01d0 17       		.uleb128 0x17
 13876 01d1 00       		.byte	0
 13877 01d2 00       		.byte	0
 13878 01d3 25       		.uleb128 0x25
 13879 01d4 05       		.uleb128 0x5
 13880 01d5 00       		.byte	0
 13881 01d6 03       		.uleb128 0x3
 13882 01d7 0E       		.uleb128 0xe
 13883 01d8 3A       		.uleb128 0x3a
 13884 01d9 0B       		.uleb128 0xb
 13885 01da 3B       		.uleb128 0x3b
 13886 01db 05       		.uleb128 0x5
 13887 01dc 49       		.uleb128 0x49
 13888 01dd 13       		.uleb128 0x13
 13889 01de 02       		.uleb128 0x2
 13890 01df 17       		.uleb128 0x17
 13891 01e0 00       		.byte	0
 13892 01e1 00       		.byte	0
 13893 01e2 26       		.uleb128 0x26
 13894 01e3 05       		.uleb128 0x5
 13895 01e4 00       		.byte	0
 13896 01e5 03       		.uleb128 0x3
 13897 01e6 0E       		.uleb128 0xe
 13898 01e7 3A       		.uleb128 0x3a
 13899 01e8 0B       		.uleb128 0xb
 13900 01e9 3B       		.uleb128 0x3b
 13901 01ea 05       		.uleb128 0x5
 13902 01eb 49       		.uleb128 0x49
 13903 01ec 13       		.uleb128 0x13
 13904 01ed 02       		.uleb128 0x2
 13905 01ee 18       		.uleb128 0x18
 13906 01ef 00       		.byte	0
 13907 01f0 00       		.byte	0
 13908 01f1 27       		.uleb128 0x27
ARM GAS  /var/folders/3j/4xdnk5197cv_b7cw3n33qk7r0000gn/T//ccLoT9Qc.s 			page 245


 13909 01f2 34       		.uleb128 0x34
 13910 01f3 00       		.byte	0
 13911 01f4 03       		.uleb128 0x3
 13912 01f5 0E       		.uleb128 0xe
 13913 01f6 3A       		.uleb128 0x3a
 13914 01f7 0B       		.uleb128 0xb
 13915 01f8 3B       		.uleb128 0x3b
 13916 01f9 05       		.uleb128 0x5
 13917 01fa 49       		.uleb128 0x49
 13918 01fb 13       		.uleb128 0x13
 13919 01fc 02       		.uleb128 0x2
 13920 01fd 17       		.uleb128 0x17
 13921 01fe 00       		.byte	0
 13922 01ff 00       		.byte	0
 13923 0200 28       		.uleb128 0x28
 13924 0201 34       		.uleb128 0x34
 13925 0202 00       		.byte	0
 13926 0203 03       		.uleb128 0x3
 13927 0204 0E       		.uleb128 0xe
 13928 0205 3A       		.uleb128 0x3a
 13929 0206 0B       		.uleb128 0xb
 13930 0207 3B       		.uleb128 0x3b
 13931 0208 05       		.uleb128 0x5
 13932 0209 49       		.uleb128 0x49
 13933 020a 13       		.uleb128 0x13
 13934 020b 02       		.uleb128 0x2
 13935 020c 18       		.uleb128 0x18
 13936 020d 00       		.byte	0
 13937 020e 00       		.byte	0
 13938 020f 29       		.uleb128 0x29
 13939 0210 34       		.uleb128 0x34
 13940 0211 00       		.byte	0
 13941 0212 03       		.uleb128 0x3
 13942 0213 0E       		.uleb128 0xe
 13943 0214 3A       		.uleb128 0x3a
 13944 0215 0B       		.uleb128 0xb
 13945 0216 3B       		.uleb128 0x3b
 13946 0217 05       		.uleb128 0x5
 13947 0218 49       		.uleb128 0x49
 13948 0219 13       		.uleb128 0x13
 13949 021a 00       		.byte	0
 13950 021b 00       		.byte	0
 13951 021c 2A       		.uleb128 0x2a
 13952 021d 898201   		.uleb128 0x4109
 13953 0220 01       		.byte	0x1
 13954 0221 11       		.uleb128 0x11
 13955 0222 01       		.uleb128 0x1
 13956 0223 31       		.uleb128 0x31
 13957 0224 13       		.uleb128 0x13
 13958 0225 01       		.uleb128 0x1
 13959 0226 13       		.uleb128 0x13
 13960 0227 00       		.byte	0
 13961 0228 00       		.byte	0
 13962 0229 2B       		.uleb128 0x2b
 13963 022a 8A8201   		.uleb128 0x410a
 13964 022d 00       		.byte	0
 13965 022e 02       		.uleb128 0x2
ARM GAS  /var/folders/3j/4xdnk5197cv_b7cw3n33qk7r0000gn/T//ccLoT9Qc.s 			page 246


 13966 022f 18       		.uleb128 0x18
 13967 0230 9142     		.uleb128 0x2111
 13968 0232 18       		.uleb128 0x18
 13969 0233 00       		.byte	0
 13970 0234 00       		.byte	0
 13971 0235 2C       		.uleb128 0x2c
 13972 0236 898201   		.uleb128 0x4109
 13973 0239 01       		.byte	0x1
 13974 023a 11       		.uleb128 0x11
 13975 023b 01       		.uleb128 0x1
 13976 023c 31       		.uleb128 0x31
 13977 023d 13       		.uleb128 0x13
 13978 023e 00       		.byte	0
 13979 023f 00       		.byte	0
 13980 0240 2D       		.uleb128 0x2d
 13981 0241 34       		.uleb128 0x34
 13982 0242 00       		.byte	0
 13983 0243 03       		.uleb128 0x3
 13984 0244 0E       		.uleb128 0xe
 13985 0245 3A       		.uleb128 0x3a
 13986 0246 0B       		.uleb128 0xb
 13987 0247 3B       		.uleb128 0x3b
 13988 0248 05       		.uleb128 0x5
 13989 0249 49       		.uleb128 0x49
 13990 024a 13       		.uleb128 0x13
 13991 024b 1C       		.uleb128 0x1c
 13992 024c 05       		.uleb128 0x5
 13993 024d 00       		.byte	0
 13994 024e 00       		.byte	0
 13995 024f 2E       		.uleb128 0x2e
 13996 0250 34       		.uleb128 0x34
 13997 0251 00       		.byte	0
 13998 0252 03       		.uleb128 0x3
 13999 0253 0E       		.uleb128 0xe
 14000 0254 3A       		.uleb128 0x3a
 14001 0255 0B       		.uleb128 0xb
 14002 0256 3B       		.uleb128 0x3b
 14003 0257 05       		.uleb128 0x5
 14004 0258 49       		.uleb128 0x49
 14005 0259 13       		.uleb128 0x13
 14006 025a 1C       		.uleb128 0x1c
 14007 025b 06       		.uleb128 0x6
 14008 025c 00       		.byte	0
 14009 025d 00       		.byte	0
 14010 025e 2F       		.uleb128 0x2f
 14011 025f 1D       		.uleb128 0x1d
 14012 0260 01       		.byte	0x1
 14013 0261 31       		.uleb128 0x31
 14014 0262 13       		.uleb128 0x13
 14015 0263 52       		.uleb128 0x52
 14016 0264 01       		.uleb128 0x1
 14017 0265 55       		.uleb128 0x55
 14018 0266 17       		.uleb128 0x17
 14019 0267 58       		.uleb128 0x58
 14020 0268 0B       		.uleb128 0xb
 14021 0269 59       		.uleb128 0x59
 14022 026a 05       		.uleb128 0x5
ARM GAS  /var/folders/3j/4xdnk5197cv_b7cw3n33qk7r0000gn/T//ccLoT9Qc.s 			page 247


 14023 026b 01       		.uleb128 0x1
 14024 026c 13       		.uleb128 0x13
 14025 026d 00       		.byte	0
 14026 026e 00       		.byte	0
 14027 026f 30       		.uleb128 0x30
 14028 0270 05       		.uleb128 0x5
 14029 0271 00       		.byte	0
 14030 0272 31       		.uleb128 0x31
 14031 0273 13       		.uleb128 0x13
 14032 0274 02       		.uleb128 0x2
 14033 0275 17       		.uleb128 0x17
 14034 0276 00       		.byte	0
 14035 0277 00       		.byte	0
 14036 0278 31       		.uleb128 0x31
 14037 0279 0B       		.uleb128 0xb
 14038 027a 01       		.byte	0x1
 14039 027b 55       		.uleb128 0x55
 14040 027c 17       		.uleb128 0x17
 14041 027d 00       		.byte	0
 14042 027e 00       		.byte	0
 14043 027f 32       		.uleb128 0x32
 14044 0280 34       		.uleb128 0x34
 14045 0281 00       		.byte	0
 14046 0282 31       		.uleb128 0x31
 14047 0283 13       		.uleb128 0x13
 14048 0284 00       		.byte	0
 14049 0285 00       		.byte	0
 14050 0286 33       		.uleb128 0x33
 14051 0287 05       		.uleb128 0x5
 14052 0288 00       		.byte	0
 14053 0289 31       		.uleb128 0x31
 14054 028a 13       		.uleb128 0x13
 14055 028b 00       		.byte	0
 14056 028c 00       		.byte	0
 14057 028d 34       		.uleb128 0x34
 14058 028e 1D       		.uleb128 0x1d
 14059 028f 01       		.byte	0x1
 14060 0290 31       		.uleb128 0x31
 14061 0291 13       		.uleb128 0x13
 14062 0292 52       		.uleb128 0x52
 14063 0293 01       		.uleb128 0x1
 14064 0294 55       		.uleb128 0x55
 14065 0295 17       		.uleb128 0x17
 14066 0296 58       		.uleb128 0x58
 14067 0297 0B       		.uleb128 0xb
 14068 0298 59       		.uleb128 0x59
 14069 0299 05       		.uleb128 0x5
 14070 029a 00       		.byte	0
 14071 029b 00       		.byte	0
 14072 029c 35       		.uleb128 0x35
 14073 029d 1D       		.uleb128 0x1d
 14074 029e 01       		.byte	0x1
 14075 029f 31       		.uleb128 0x31
 14076 02a0 13       		.uleb128 0x13
 14077 02a1 11       		.uleb128 0x11
 14078 02a2 01       		.uleb128 0x1
 14079 02a3 12       		.uleb128 0x12
ARM GAS  /var/folders/3j/4xdnk5197cv_b7cw3n33qk7r0000gn/T//ccLoT9Qc.s 			page 248


 14080 02a4 06       		.uleb128 0x6
 14081 02a5 58       		.uleb128 0x58
 14082 02a6 0B       		.uleb128 0xb
 14083 02a7 59       		.uleb128 0x59
 14084 02a8 05       		.uleb128 0x5
 14085 02a9 01       		.uleb128 0x1
 14086 02aa 13       		.uleb128 0x13
 14087 02ab 00       		.byte	0
 14088 02ac 00       		.byte	0
 14089 02ad 36       		.uleb128 0x36
 14090 02ae 0B       		.uleb128 0xb
 14091 02af 01       		.byte	0x1
 14092 02b0 11       		.uleb128 0x11
 14093 02b1 01       		.uleb128 0x1
 14094 02b2 12       		.uleb128 0x12
 14095 02b3 06       		.uleb128 0x6
 14096 02b4 00       		.byte	0
 14097 02b5 00       		.byte	0
 14098 02b6 37       		.uleb128 0x37
 14099 02b7 34       		.uleb128 0x34
 14100 02b8 00       		.byte	0
 14101 02b9 03       		.uleb128 0x3
 14102 02ba 0E       		.uleb128 0xe
 14103 02bb 3A       		.uleb128 0x3a
 14104 02bc 0B       		.uleb128 0xb
 14105 02bd 3B       		.uleb128 0x3b
 14106 02be 05       		.uleb128 0x5
 14107 02bf 49       		.uleb128 0x49
 14108 02c0 13       		.uleb128 0x13
 14109 02c1 1C       		.uleb128 0x1c
 14110 02c2 0B       		.uleb128 0xb
 14111 02c3 00       		.byte	0
 14112 02c4 00       		.byte	0
 14113 02c5 38       		.uleb128 0x38
 14114 02c6 2E       		.uleb128 0x2e
 14115 02c7 01       		.byte	0x1
 14116 02c8 3F       		.uleb128 0x3f
 14117 02c9 19       		.uleb128 0x19
 14118 02ca 03       		.uleb128 0x3
 14119 02cb 0E       		.uleb128 0xe
 14120 02cc 3A       		.uleb128 0x3a
 14121 02cd 0B       		.uleb128 0xb
 14122 02ce 3B       		.uleb128 0x3b
 14123 02cf 05       		.uleb128 0x5
 14124 02d0 27       		.uleb128 0x27
 14125 02d1 19       		.uleb128 0x19
 14126 02d2 49       		.uleb128 0x49
 14127 02d3 13       		.uleb128 0x13
 14128 02d4 20       		.uleb128 0x20
 14129 02d5 0B       		.uleb128 0xb
 14130 02d6 01       		.uleb128 0x1
 14131 02d7 13       		.uleb128 0x13
 14132 02d8 00       		.byte	0
 14133 02d9 00       		.byte	0
 14134 02da 39       		.uleb128 0x39
 14135 02db 05       		.uleb128 0x5
 14136 02dc 00       		.byte	0
ARM GAS  /var/folders/3j/4xdnk5197cv_b7cw3n33qk7r0000gn/T//ccLoT9Qc.s 			page 249


 14137 02dd 03       		.uleb128 0x3
 14138 02de 08       		.uleb128 0x8
 14139 02df 3A       		.uleb128 0x3a
 14140 02e0 0B       		.uleb128 0xb
 14141 02e1 3B       		.uleb128 0x3b
 14142 02e2 05       		.uleb128 0x5
 14143 02e3 49       		.uleb128 0x49
 14144 02e4 13       		.uleb128 0x13
 14145 02e5 00       		.byte	0
 14146 02e6 00       		.byte	0
 14147 02e7 3A       		.uleb128 0x3a
 14148 02e8 05       		.uleb128 0x5
 14149 02e9 00       		.byte	0
 14150 02ea 03       		.uleb128 0x3
 14151 02eb 0E       		.uleb128 0xe
 14152 02ec 3A       		.uleb128 0x3a
 14153 02ed 0B       		.uleb128 0xb
 14154 02ee 3B       		.uleb128 0x3b
 14155 02ef 05       		.uleb128 0x5
 14156 02f0 49       		.uleb128 0x49
 14157 02f1 13       		.uleb128 0x13
 14158 02f2 00       		.byte	0
 14159 02f3 00       		.byte	0
 14160 02f4 3B       		.uleb128 0x3b
 14161 02f5 2E       		.uleb128 0x2e
 14162 02f6 01       		.byte	0x1
 14163 02f7 3F       		.uleb128 0x3f
 14164 02f8 19       		.uleb128 0x19
 14165 02f9 03       		.uleb128 0x3
 14166 02fa 0E       		.uleb128 0xe
 14167 02fb 3A       		.uleb128 0x3a
 14168 02fc 0B       		.uleb128 0xb
 14169 02fd 3B       		.uleb128 0x3b
 14170 02fe 05       		.uleb128 0x5
 14171 02ff 27       		.uleb128 0x27
 14172 0300 19       		.uleb128 0x19
 14173 0301 49       		.uleb128 0x49
 14174 0302 13       		.uleb128 0x13
 14175 0303 11       		.uleb128 0x11
 14176 0304 01       		.uleb128 0x1
 14177 0305 12       		.uleb128 0x12
 14178 0306 06       		.uleb128 0x6
 14179 0307 40       		.uleb128 0x40
 14180 0308 18       		.uleb128 0x18
 14181 0309 9742     		.uleb128 0x2117
 14182 030b 19       		.uleb128 0x19
 14183 030c 01       		.uleb128 0x1
 14184 030d 13       		.uleb128 0x13
 14185 030e 00       		.byte	0
 14186 030f 00       		.byte	0
 14187 0310 3C       		.uleb128 0x3c
 14188 0311 34       		.uleb128 0x34
 14189 0312 00       		.byte	0
 14190 0313 03       		.uleb128 0x3
 14191 0314 08       		.uleb128 0x8
 14192 0315 3A       		.uleb128 0x3a
 14193 0316 0B       		.uleb128 0xb
ARM GAS  /var/folders/3j/4xdnk5197cv_b7cw3n33qk7r0000gn/T//ccLoT9Qc.s 			page 250


 14194 0317 3B       		.uleb128 0x3b
 14195 0318 05       		.uleb128 0x5
 14196 0319 49       		.uleb128 0x49
 14197 031a 13       		.uleb128 0x13
 14198 031b 00       		.byte	0
 14199 031c 00       		.byte	0
 14200 031d 3D       		.uleb128 0x3d
 14201 031e 34       		.uleb128 0x34
 14202 031f 00       		.byte	0
 14203 0320 03       		.uleb128 0x3
 14204 0321 08       		.uleb128 0x8
 14205 0322 3A       		.uleb128 0x3a
 14206 0323 0B       		.uleb128 0xb
 14207 0324 3B       		.uleb128 0x3b
 14208 0325 05       		.uleb128 0x5
 14209 0326 49       		.uleb128 0x49
 14210 0327 13       		.uleb128 0x13
 14211 0328 02       		.uleb128 0x2
 14212 0329 17       		.uleb128 0x17
 14213 032a 00       		.byte	0
 14214 032b 00       		.byte	0
 14215 032c 3E       		.uleb128 0x3e
 14216 032d 2E       		.uleb128 0x2e
 14217 032e 01       		.byte	0x1
 14218 032f 3F       		.uleb128 0x3f
 14219 0330 19       		.uleb128 0x19
 14220 0331 03       		.uleb128 0x3
 14221 0332 0E       		.uleb128 0xe
 14222 0333 3A       		.uleb128 0x3a
 14223 0334 0B       		.uleb128 0xb
 14224 0335 3B       		.uleb128 0x3b
 14225 0336 0B       		.uleb128 0xb
 14226 0337 27       		.uleb128 0x27
 14227 0338 19       		.uleb128 0x19
 14228 0339 49       		.uleb128 0x49
 14229 033a 13       		.uleb128 0x13
 14230 033b 11       		.uleb128 0x11
 14231 033c 01       		.uleb128 0x1
 14232 033d 12       		.uleb128 0x12
 14233 033e 06       		.uleb128 0x6
 14234 033f 40       		.uleb128 0x40
 14235 0340 18       		.uleb128 0x18
 14236 0341 9742     		.uleb128 0x2117
 14237 0343 19       		.uleb128 0x19
 14238 0344 01       		.uleb128 0x1
 14239 0345 13       		.uleb128 0x13
 14240 0346 00       		.byte	0
 14241 0347 00       		.byte	0
 14242 0348 3F       		.uleb128 0x3f
 14243 0349 05       		.uleb128 0x5
 14244 034a 00       		.byte	0
 14245 034b 03       		.uleb128 0x3
 14246 034c 08       		.uleb128 0x8
 14247 034d 3A       		.uleb128 0x3a
 14248 034e 0B       		.uleb128 0xb
 14249 034f 3B       		.uleb128 0x3b
 14250 0350 0B       		.uleb128 0xb
ARM GAS  /var/folders/3j/4xdnk5197cv_b7cw3n33qk7r0000gn/T//ccLoT9Qc.s 			page 251


 14251 0351 49       		.uleb128 0x49
 14252 0352 13       		.uleb128 0x13
 14253 0353 02       		.uleb128 0x2
 14254 0354 17       		.uleb128 0x17
 14255 0355 00       		.byte	0
 14256 0356 00       		.byte	0
 14257 0357 40       		.uleb128 0x40
 14258 0358 05       		.uleb128 0x5
 14259 0359 00       		.byte	0
 14260 035a 03       		.uleb128 0x3
 14261 035b 0E       		.uleb128 0xe
 14262 035c 3A       		.uleb128 0x3a
 14263 035d 0B       		.uleb128 0xb
 14264 035e 3B       		.uleb128 0x3b
 14265 035f 0B       		.uleb128 0xb
 14266 0360 49       		.uleb128 0x49
 14267 0361 13       		.uleb128 0x13
 14268 0362 02       		.uleb128 0x2
 14269 0363 17       		.uleb128 0x17
 14270 0364 00       		.byte	0
 14271 0365 00       		.byte	0
 14272 0366 41       		.uleb128 0x41
 14273 0367 34       		.uleb128 0x34
 14274 0368 00       		.byte	0
 14275 0369 03       		.uleb128 0x3
 14276 036a 0E       		.uleb128 0xe
 14277 036b 3A       		.uleb128 0x3a
 14278 036c 0B       		.uleb128 0xb
 14279 036d 3B       		.uleb128 0x3b
 14280 036e 0B       		.uleb128 0xb
 14281 036f 49       		.uleb128 0x49
 14282 0370 13       		.uleb128 0x13
 14283 0371 02       		.uleb128 0x2
 14284 0372 17       		.uleb128 0x17
 14285 0373 00       		.byte	0
 14286 0374 00       		.byte	0
 14287 0375 42       		.uleb128 0x42
 14288 0376 34       		.uleb128 0x34
 14289 0377 00       		.byte	0
 14290 0378 03       		.uleb128 0x3
 14291 0379 0E       		.uleb128 0xe
 14292 037a 3A       		.uleb128 0x3a
 14293 037b 0B       		.uleb128 0xb
 14294 037c 3B       		.uleb128 0x3b
 14295 037d 0B       		.uleb128 0xb
 14296 037e 49       		.uleb128 0x49
 14297 037f 13       		.uleb128 0x13
 14298 0380 02       		.uleb128 0x2
 14299 0381 18       		.uleb128 0x18
 14300 0382 00       		.byte	0
 14301 0383 00       		.byte	0
 14302 0384 43       		.uleb128 0x43
 14303 0385 34       		.uleb128 0x34
 14304 0386 00       		.byte	0
 14305 0387 03       		.uleb128 0x3
 14306 0388 0E       		.uleb128 0xe
 14307 0389 3A       		.uleb128 0x3a
ARM GAS  /var/folders/3j/4xdnk5197cv_b7cw3n33qk7r0000gn/T//ccLoT9Qc.s 			page 252


 14308 038a 0B       		.uleb128 0xb
 14309 038b 3B       		.uleb128 0x3b
 14310 038c 0B       		.uleb128 0xb
 14311 038d 49       		.uleb128 0x49
 14312 038e 13       		.uleb128 0x13
 14313 038f 1C       		.uleb128 0x1c
 14314 0390 05       		.uleb128 0x5
 14315 0391 00       		.byte	0
 14316 0392 00       		.byte	0
 14317 0393 44       		.uleb128 0x44
 14318 0394 34       		.uleb128 0x34
 14319 0395 00       		.byte	0
 14320 0396 03       		.uleb128 0x3
 14321 0397 08       		.uleb128 0x8
 14322 0398 3A       		.uleb128 0x3a
 14323 0399 0B       		.uleb128 0xb
 14324 039a 3B       		.uleb128 0x3b
 14325 039b 0B       		.uleb128 0xb
 14326 039c 49       		.uleb128 0x49
 14327 039d 13       		.uleb128 0x13
 14328 039e 02       		.uleb128 0x2
 14329 039f 17       		.uleb128 0x17
 14330 03a0 00       		.byte	0
 14331 03a1 00       		.byte	0
 14332 03a2 45       		.uleb128 0x45
 14333 03a3 1D       		.uleb128 0x1d
 14334 03a4 01       		.byte	0x1
 14335 03a5 31       		.uleb128 0x31
 14336 03a6 13       		.uleb128 0x13
 14337 03a7 11       		.uleb128 0x11
 14338 03a8 01       		.uleb128 0x1
 14339 03a9 12       		.uleb128 0x12
 14340 03aa 06       		.uleb128 0x6
 14341 03ab 58       		.uleb128 0x58
 14342 03ac 0B       		.uleb128 0xb
 14343 03ad 59       		.uleb128 0x59
 14344 03ae 0B       		.uleb128 0xb
 14345 03af 00       		.byte	0
 14346 03b0 00       		.byte	0
 14347 03b1 46       		.uleb128 0x46
 14348 03b2 2E       		.uleb128 0x2e
 14349 03b3 01       		.byte	0x1
 14350 03b4 3F       		.uleb128 0x3f
 14351 03b5 19       		.uleb128 0x19
 14352 03b6 03       		.uleb128 0x3
 14353 03b7 0E       		.uleb128 0xe
 14354 03b8 3A       		.uleb128 0x3a
 14355 03b9 0B       		.uleb128 0xb
 14356 03ba 3B       		.uleb128 0x3b
 14357 03bb 0B       		.uleb128 0xb
 14358 03bc 27       		.uleb128 0x27
 14359 03bd 19       		.uleb128 0x19
 14360 03be 49       		.uleb128 0x49
 14361 03bf 13       		.uleb128 0x13
 14362 03c0 20       		.uleb128 0x20
 14363 03c1 0B       		.uleb128 0xb
 14364 03c2 01       		.uleb128 0x1
ARM GAS  /var/folders/3j/4xdnk5197cv_b7cw3n33qk7r0000gn/T//ccLoT9Qc.s 			page 253


 14365 03c3 13       		.uleb128 0x13
 14366 03c4 00       		.byte	0
 14367 03c5 00       		.byte	0
 14368 03c6 47       		.uleb128 0x47
 14369 03c7 05       		.uleb128 0x5
 14370 03c8 00       		.byte	0
 14371 03c9 03       		.uleb128 0x3
 14372 03ca 08       		.uleb128 0x8
 14373 03cb 3A       		.uleb128 0x3a
 14374 03cc 0B       		.uleb128 0xb
 14375 03cd 3B       		.uleb128 0x3b
 14376 03ce 0B       		.uleb128 0xb
 14377 03cf 49       		.uleb128 0x49
 14378 03d0 13       		.uleb128 0x13
 14379 03d1 00       		.byte	0
 14380 03d2 00       		.byte	0
 14381 03d3 48       		.uleb128 0x48
 14382 03d4 34       		.uleb128 0x34
 14383 03d5 00       		.byte	0
 14384 03d6 03       		.uleb128 0x3
 14385 03d7 08       		.uleb128 0x8
 14386 03d8 3A       		.uleb128 0x3a
 14387 03d9 0B       		.uleb128 0xb
 14388 03da 3B       		.uleb128 0x3b
 14389 03db 0B       		.uleb128 0xb
 14390 03dc 49       		.uleb128 0x49
 14391 03dd 13       		.uleb128 0x13
 14392 03de 00       		.byte	0
 14393 03df 00       		.byte	0
 14394 03e0 49       		.uleb128 0x49
 14395 03e1 05       		.uleb128 0x5
 14396 03e2 00       		.byte	0
 14397 03e3 03       		.uleb128 0x3
 14398 03e4 0E       		.uleb128 0xe
 14399 03e5 3A       		.uleb128 0x3a
 14400 03e6 0B       		.uleb128 0xb
 14401 03e7 3B       		.uleb128 0x3b
 14402 03e8 0B       		.uleb128 0xb
 14403 03e9 49       		.uleb128 0x49
 14404 03ea 13       		.uleb128 0x13
 14405 03eb 00       		.byte	0
 14406 03ec 00       		.byte	0
 14407 03ed 4A       		.uleb128 0x4a
 14408 03ee 34       		.uleb128 0x34
 14409 03ef 00       		.byte	0
 14410 03f0 03       		.uleb128 0x3
 14411 03f1 0E       		.uleb128 0xe
 14412 03f2 3A       		.uleb128 0x3a
 14413 03f3 0B       		.uleb128 0xb
 14414 03f4 3B       		.uleb128 0x3b
 14415 03f5 0B       		.uleb128 0xb
 14416 03f6 49       		.uleb128 0x49
 14417 03f7 13       		.uleb128 0x13
 14418 03f8 00       		.byte	0
 14419 03f9 00       		.byte	0
 14420 03fa 4B       		.uleb128 0x4b
 14421 03fb 34       		.uleb128 0x34
ARM GAS  /var/folders/3j/4xdnk5197cv_b7cw3n33qk7r0000gn/T//ccLoT9Qc.s 			page 254


 14422 03fc 00       		.byte	0
 14423 03fd 03       		.uleb128 0x3
 14424 03fe 0E       		.uleb128 0xe
 14425 03ff 3A       		.uleb128 0x3a
 14426 0400 0B       		.uleb128 0xb
 14427 0401 3B       		.uleb128 0x3b
 14428 0402 0B       		.uleb128 0xb
 14429 0403 49       		.uleb128 0x49
 14430 0404 13       		.uleb128 0x13
 14431 0405 1C       		.uleb128 0x1c
 14432 0406 0B       		.uleb128 0xb
 14433 0407 00       		.byte	0
 14434 0408 00       		.byte	0
 14435 0409 4C       		.uleb128 0x4c
 14436 040a 2E       		.uleb128 0x2e
 14437 040b 01       		.byte	0x1
 14438 040c 31       		.uleb128 0x31
 14439 040d 13       		.uleb128 0x13
 14440 040e 11       		.uleb128 0x11
 14441 040f 01       		.uleb128 0x1
 14442 0410 12       		.uleb128 0x12
 14443 0411 06       		.uleb128 0x6
 14444 0412 40       		.uleb128 0x40
 14445 0413 18       		.uleb128 0x18
 14446 0414 9742     		.uleb128 0x2117
 14447 0416 19       		.uleb128 0x19
 14448 0417 01       		.uleb128 0x1
 14449 0418 13       		.uleb128 0x13
 14450 0419 00       		.byte	0
 14451 041a 00       		.byte	0
 14452 041b 4D       		.uleb128 0x4d
 14453 041c 34       		.uleb128 0x34
 14454 041d 00       		.byte	0
 14455 041e 31       		.uleb128 0x31
 14456 041f 13       		.uleb128 0x13
 14457 0420 02       		.uleb128 0x2
 14458 0421 17       		.uleb128 0x17
 14459 0422 00       		.byte	0
 14460 0423 00       		.byte	0
 14461 0424 4E       		.uleb128 0x4e
 14462 0425 2E       		.uleb128 0x2e
 14463 0426 01       		.byte	0x1
 14464 0427 31       		.uleb128 0x31
 14465 0428 13       		.uleb128 0x13
 14466 0429 11       		.uleb128 0x11
 14467 042a 01       		.uleb128 0x1
 14468 042b 12       		.uleb128 0x12
 14469 042c 06       		.uleb128 0x6
 14470 042d 40       		.uleb128 0x40
 14471 042e 18       		.uleb128 0x18
 14472 042f 9642     		.uleb128 0x2116
 14473 0431 19       		.uleb128 0x19
 14474 0432 01       		.uleb128 0x1
 14475 0433 13       		.uleb128 0x13
 14476 0434 00       		.byte	0
 14477 0435 00       		.byte	0
 14478 0436 4F       		.uleb128 0x4f
ARM GAS  /var/folders/3j/4xdnk5197cv_b7cw3n33qk7r0000gn/T//ccLoT9Qc.s 			page 255


 14479 0437 34       		.uleb128 0x34
 14480 0438 00       		.byte	0
 14481 0439 31       		.uleb128 0x31
 14482 043a 13       		.uleb128 0x13
 14483 043b 02       		.uleb128 0x2
 14484 043c 18       		.uleb128 0x18
 14485 043d 00       		.byte	0
 14486 043e 00       		.byte	0
 14487 043f 50       		.uleb128 0x50
 14488 0440 898201   		.uleb128 0x4109
 14489 0443 00       		.byte	0
 14490 0444 11       		.uleb128 0x11
 14491 0445 01       		.uleb128 0x1
 14492 0446 31       		.uleb128 0x31
 14493 0447 13       		.uleb128 0x13
 14494 0448 00       		.byte	0
 14495 0449 00       		.byte	0
 14496 044a 51       		.uleb128 0x51
 14497 044b 34       		.uleb128 0x34
 14498 044c 00       		.byte	0
 14499 044d 31       		.uleb128 0x31
 14500 044e 13       		.uleb128 0x13
 14501 044f 1C       		.uleb128 0x1c
 14502 0450 05       		.uleb128 0x5
 14503 0451 00       		.byte	0
 14504 0452 00       		.byte	0
 14505 0453 52       		.uleb128 0x52
 14506 0454 34       		.uleb128 0x34
 14507 0455 00       		.byte	0
 14508 0456 31       		.uleb128 0x31
 14509 0457 13       		.uleb128 0x13
 14510 0458 1C       		.uleb128 0x1c
 14511 0459 0B       		.uleb128 0xb
 14512 045a 00       		.byte	0
 14513 045b 00       		.byte	0
 14514 045c 53       		.uleb128 0x53
 14515 045d 898201   		.uleb128 0x4109
 14516 0460 01       		.byte	0x1
 14517 0461 11       		.uleb128 0x11
 14518 0462 01       		.uleb128 0x1
 14519 0463 9542     		.uleb128 0x2115
 14520 0465 19       		.uleb128 0x19
 14521 0466 31       		.uleb128 0x31
 14522 0467 13       		.uleb128 0x13
 14523 0468 00       		.byte	0
 14524 0469 00       		.byte	0
 14525 046a 54       		.uleb128 0x54
 14526 046b 05       		.uleb128 0x5
 14527 046c 00       		.byte	0
 14528 046d 31       		.uleb128 0x31
 14529 046e 13       		.uleb128 0x13
 14530 046f 02       		.uleb128 0x2
 14531 0470 18       		.uleb128 0x18
 14532 0471 00       		.byte	0
 14533 0472 00       		.byte	0
 14534 0473 55       		.uleb128 0x55
 14535 0474 0B       		.uleb128 0xb
ARM GAS  /var/folders/3j/4xdnk5197cv_b7cw3n33qk7r0000gn/T//ccLoT9Qc.s 			page 256


 14536 0475 01       		.byte	0x1
 14537 0476 31       		.uleb128 0x31
 14538 0477 13       		.uleb128 0x13
 14539 0478 11       		.uleb128 0x11
 14540 0479 01       		.uleb128 0x1
 14541 047a 12       		.uleb128 0x12
 14542 047b 06       		.uleb128 0x6
 14543 047c 01       		.uleb128 0x1
 14544 047d 13       		.uleb128 0x13
 14545 047e 00       		.byte	0
 14546 047f 00       		.byte	0
 14547 0480 56       		.uleb128 0x56
 14548 0481 2E       		.uleb128 0x2e
 14549 0482 00       		.byte	0
 14550 0483 3F       		.uleb128 0x3f
 14551 0484 19       		.uleb128 0x19
 14552 0485 3C       		.uleb128 0x3c
 14553 0486 19       		.uleb128 0x19
 14554 0487 6E       		.uleb128 0x6e
 14555 0488 0E       		.uleb128 0xe
 14556 0489 03       		.uleb128 0x3
 14557 048a 0E       		.uleb128 0xe
 14558 048b 3A       		.uleb128 0x3a
 14559 048c 0B       		.uleb128 0xb
 14560 048d 3B       		.uleb128 0x3b
 14561 048e 05       		.uleb128 0x5
 14562 048f 00       		.byte	0
 14563 0490 00       		.byte	0
 14564 0491 57       		.uleb128 0x57
 14565 0492 2E       		.uleb128 0x2e
 14566 0493 00       		.byte	0
 14567 0494 3F       		.uleb128 0x3f
 14568 0495 19       		.uleb128 0x19
 14569 0496 3C       		.uleb128 0x3c
 14570 0497 19       		.uleb128 0x19
 14571 0498 6E       		.uleb128 0x6e
 14572 0499 0E       		.uleb128 0xe
 14573 049a 03       		.uleb128 0x3
 14574 049b 0E       		.uleb128 0xe
 14575 049c 3A       		.uleb128 0x3a
 14576 049d 0B       		.uleb128 0xb
 14577 049e 3B       		.uleb128 0x3b
 14578 049f 0B       		.uleb128 0xb
 14579 04a0 00       		.byte	0
 14580 04a1 00       		.byte	0
 14581 04a2 00       		.byte	0
 14582              		.section	.debug_loc,"",%progbits
 14583              	.Ldebug_loc0:
 14584              	.LLST207:
 14585 0000 00000000 		.4byte	.LVL719
 14586 0004 74000000 		.4byte	.LVL725
 14587 0008 0100     		.2byte	0x1
 14588 000a 50       		.byte	0x50
 14589 000b 74000000 		.4byte	.LVL725
 14590 000f A4030000 		.4byte	.LFE27
 14591 0013 0100     		.2byte	0x1
 14592 0015 54       		.byte	0x54
ARM GAS  /var/folders/3j/4xdnk5197cv_b7cw3n33qk7r0000gn/T//ccLoT9Qc.s 			page 257


 14593 0016 00000000 		.4byte	0
 14594 001a 00000000 		.4byte	0
 14595              	.LLST208:
 14596 001e 00000000 		.4byte	.LVL719
 14597 0022 04000000 		.4byte	.LVL720
 14598 0026 0100     		.2byte	0x1
 14599 0028 51       		.byte	0x51
 14600 0029 04000000 		.4byte	.LVL720
 14601 002d A4030000 		.4byte	.LFE27
 14602 0031 0400     		.2byte	0x4
 14603 0033 F3       		.byte	0xf3
 14604 0034 01       		.uleb128 0x1
 14605 0035 51       		.byte	0x51
 14606 0036 9F       		.byte	0x9f
 14607 0037 00000000 		.4byte	0
 14608 003b 00000000 		.4byte	0
 14609              	.LLST209:
 14610 003f 00000000 		.4byte	.LVL719
 14611 0043 6C000000 		.4byte	.LVL724
 14612 0047 0100     		.2byte	0x1
 14613 0049 52       		.byte	0x52
 14614 004a 6C000000 		.4byte	.LVL724
 14615 004e 28010000 		.4byte	.LVL738
 14616 0052 0200     		.2byte	0x2
 14617 0054 7D       		.byte	0x7d
 14618 0055 00       		.sleb128 0
 14619 0056 28010000 		.4byte	.LVL738
 14620 005a 2C010000 		.4byte	.LVL739
 14621 005e 0300     		.2byte	0x3
 14622 0060 91       		.byte	0x91
 14623 0061 A87F     		.sleb128 -88
 14624 0063 2C010000 		.4byte	.LVL739
 14625 0067 A4030000 		.4byte	.LFE27
 14626 006b 0200     		.2byte	0x2
 14627 006d 7D       		.byte	0x7d
 14628 006e 00       		.sleb128 0
 14629 006f 00000000 		.4byte	0
 14630 0073 00000000 		.4byte	0
 14631              	.LLST210:
 14632 0077 00000000 		.4byte	.LVL719
 14633 007b 5C000000 		.4byte	.LVL722
 14634 007f 0100     		.2byte	0x1
 14635 0081 53       		.byte	0x53
 14636 0082 5C000000 		.4byte	.LVL722
 14637 0086 A4030000 		.4byte	.LFE27
 14638 008a 0400     		.2byte	0x4
 14639 008c F3       		.byte	0xf3
 14640 008d 01       		.uleb128 0x1
 14641 008e 53       		.byte	0x53
 14642 008f 9F       		.byte	0x9f
 14643 0090 00000000 		.4byte	0
 14644 0094 00000000 		.4byte	0
 14645              	.LLST211:
 14646 0098 00000000 		.4byte	.LVL719
 14647 009c 80000000 		.4byte	.LVL727
 14648 00a0 0200     		.2byte	0x2
 14649 00a2 30       		.byte	0x30
ARM GAS  /var/folders/3j/4xdnk5197cv_b7cw3n33qk7r0000gn/T//ccLoT9Qc.s 			page 258


 14650 00a3 9F       		.byte	0x9f
 14651 00a4 80000000 		.4byte	.LVL727
 14652 00a8 94000000 		.4byte	.LVL728
 14653 00ac 0100     		.2byte	0x1
 14654 00ae 50       		.byte	0x50
 14655 00af C8000000 		.4byte	.LVL732
 14656 00b3 CC000000 		.4byte	.LVL733
 14657 00b7 0100     		.2byte	0x1
 14658 00b9 50       		.byte	0x50
 14659 00ba 2C010000 		.4byte	.LVL739
 14660 00be 3C010000 		.4byte	.LVL740
 14661 00c2 0100     		.2byte	0x1
 14662 00c4 50       		.byte	0x50
 14663 00c5 40010000 		.4byte	.LVL741
 14664 00c9 5C010000 		.4byte	.LVL742
 14665 00cd 0100     		.2byte	0x1
 14666 00cf 50       		.byte	0x50
 14667 00d0 6C010000 		.4byte	.LVL744
 14668 00d4 A4010000 		.4byte	.LVL747
 14669 00d8 0100     		.2byte	0x1
 14670 00da 59       		.byte	0x59
 14671 00db A4010000 		.4byte	.LVL747
 14672 00df C0010000 		.4byte	.LVL748
 14673 00e3 0100     		.2byte	0x1
 14674 00e5 50       		.byte	0x50
 14675 00e6 C4010000 		.4byte	.LVL749
 14676 00ea CC010000 		.4byte	.LVL750
 14677 00ee 0100     		.2byte	0x1
 14678 00f0 50       		.byte	0x50
 14679 00f1 CC010000 		.4byte	.LVL750
 14680 00f5 0B020000 		.4byte	.LVL753-1
 14681 00f9 0100     		.2byte	0x1
 14682 00fb 53       		.byte	0x53
 14683 00fc 14020000 		.4byte	.LVL754
 14684 0100 30020000 		.4byte	.LVL755
 14685 0104 0100     		.2byte	0x1
 14686 0106 50       		.byte	0x50
 14687 0107 48020000 		.4byte	.LVL757
 14688 010b 88020000 		.4byte	.LVL759
 14689 010f 0100     		.2byte	0x1
 14690 0111 52       		.byte	0x52
 14691 0112 90020000 		.4byte	.LVL760
 14692 0116 98020000 		.4byte	.LVL761
 14693 011a 0100     		.2byte	0x1
 14694 011c 52       		.byte	0x52
 14695 011d A0020000 		.4byte	.LVL762
 14696 0121 AC020000 		.4byte	.LVL763
 14697 0125 0100     		.2byte	0x1
 14698 0127 50       		.byte	0x50
 14699 0128 B8020000 		.4byte	.LVL766
 14700 012c C0020000 		.4byte	.LVL767
 14701 0130 0100     		.2byte	0x1
 14702 0132 52       		.byte	0x52
 14703 0133 C8020000 		.4byte	.LVL768
 14704 0137 E4020000 		.4byte	.LVL769
 14705 013b 0100     		.2byte	0x1
 14706 013d 52       		.byte	0x52
ARM GAS  /var/folders/3j/4xdnk5197cv_b7cw3n33qk7r0000gn/T//ccLoT9Qc.s 			page 259


 14707 013e EC020000 		.4byte	.LVL770
 14708 0142 00030000 		.4byte	.LVL772
 14709 0146 0100     		.2byte	0x1
 14710 0148 50       		.byte	0x50
 14711 0149 04030000 		.4byte	.LVL773
 14712 014d 18030000 		.4byte	.LVL774
 14713 0151 0100     		.2byte	0x1
 14714 0153 50       		.byte	0x50
 14715 0154 1C030000 		.4byte	.LVL775
 14716 0158 30030000 		.4byte	.LVL776
 14717 015c 0100     		.2byte	0x1
 14718 015e 50       		.byte	0x50
 14719 015f 48030000 		.4byte	.LVL778
 14720 0163 58030000 		.4byte	.LVL779
 14721 0167 0100     		.2byte	0x1
 14722 0169 53       		.byte	0x53
 14723 016a 58030000 		.4byte	.LVL779
 14724 016e 70030000 		.4byte	.LVL780
 14725 0172 0100     		.2byte	0x1
 14726 0174 52       		.byte	0x52
 14727 0175 78030000 		.4byte	.LVL781
 14728 0179 94030000 		.4byte	.LVL783
 14729 017d 0100     		.2byte	0x1
 14730 017f 52       		.byte	0x52
 14731 0180 94030000 		.4byte	.LVL783
 14732 0184 A4030000 		.4byte	.LFE27
 14733 0188 0100     		.2byte	0x1
 14734 018a 50       		.byte	0x50
 14735 018b 00000000 		.4byte	0
 14736 018f 00000000 		.4byte	0
 14737              	.LLST212:
 14738 0193 00000000 		.4byte	.LVL719
 14739 0197 94000000 		.4byte	.LVL728
 14740 019b 0200     		.2byte	0x2
 14741 019d 30       		.byte	0x30
 14742 019e 9F       		.byte	0x9f
 14743 019f 94000000 		.4byte	.LVL728
 14744 01a3 E0000000 		.4byte	.LVL735
 14745 01a7 0100     		.2byte	0x1
 14746 01a9 56       		.byte	0x56
 14747 01aa 2C010000 		.4byte	.LVL739
 14748 01ae 84010000 		.4byte	.LVL745
 14749 01b2 0200     		.2byte	0x2
 14750 01b4 30       		.byte	0x30
 14751 01b5 9F       		.byte	0x9f
 14752 01b6 84010000 		.4byte	.LVL745
 14753 01ba EC020000 		.4byte	.LVL770
 14754 01be 0100     		.2byte	0x1
 14755 01c0 56       		.byte	0x56
 14756 01c1 EC020000 		.4byte	.LVL770
 14757 01c5 F4020000 		.4byte	.LVL771
 14758 01c9 0200     		.2byte	0x2
 14759 01cb 30       		.byte	0x30
 14760 01cc 9F       		.byte	0x9f
 14761 01cd F4020000 		.4byte	.LVL771
 14762 01d1 A4030000 		.4byte	.LFE27
 14763 01d5 0100     		.2byte	0x1
ARM GAS  /var/folders/3j/4xdnk5197cv_b7cw3n33qk7r0000gn/T//ccLoT9Qc.s 			page 260


 14764 01d7 56       		.byte	0x56
 14765 01d8 00000000 		.4byte	0
 14766 01dc 00000000 		.4byte	0
 14767              	.LLST213:
 14768 01e0 00000000 		.4byte	.LVL719
 14769 01e4 98000000 		.4byte	.LVL729
 14770 01e8 0200     		.2byte	0x2
 14771 01ea 30       		.byte	0x30
 14772 01eb 9F       		.byte	0x9f
 14773 01ec 98000000 		.4byte	.LVL729
 14774 01f0 AC000000 		.4byte	.LVL731
 14775 01f4 0100     		.2byte	0x1
 14776 01f6 58       		.byte	0x58
 14777 01f7 2C010000 		.4byte	.LVL739
 14778 01fb F0010000 		.4byte	.LVL752
 14779 01ff 0200     		.2byte	0x2
 14780 0201 30       		.byte	0x30
 14781 0202 9F       		.byte	0x9f
 14782 0203 F0010000 		.4byte	.LVL752
 14783 0207 EC020000 		.4byte	.LVL770
 14784 020b 0100     		.2byte	0x1
 14785 020d 58       		.byte	0x58
 14786 020e EC020000 		.4byte	.LVL770
 14787 0212 58030000 		.4byte	.LVL779
 14788 0216 0200     		.2byte	0x2
 14789 0218 30       		.byte	0x30
 14790 0219 9F       		.byte	0x9f
 14791 021a 58030000 		.4byte	.LVL779
 14792 021e 90030000 		.4byte	.LVL782
 14793 0222 0100     		.2byte	0x1
 14794 0224 58       		.byte	0x58
 14795 0225 94030000 		.4byte	.LVL783
 14796 0229 9C030000 		.4byte	.LVL784
 14797 022d 0100     		.2byte	0x1
 14798 022f 58       		.byte	0x58
 14799 0230 9C030000 		.4byte	.LVL784
 14800 0234 A4030000 		.4byte	.LFE27
 14801 0238 0200     		.2byte	0x2
 14802 023a 30       		.byte	0x30
 14803 023b 9F       		.byte	0x9f
 14804 023c 00000000 		.4byte	0
 14805 0240 00000000 		.4byte	0
 14806              	.LLST214:
 14807 0244 00000000 		.4byte	.LVL719
 14808 0248 9C000000 		.4byte	.LVL730
 14809 024c 0200     		.2byte	0x2
 14810 024e 30       		.byte	0x30
 14811 024f 9F       		.byte	0x9f
 14812 0250 2C010000 		.4byte	.LVL739
 14813 0254 58020000 		.4byte	.LVL758
 14814 0258 0200     		.2byte	0x2
 14815 025a 30       		.byte	0x30
 14816 025b 9F       		.byte	0x9f
 14817 025c 58020000 		.4byte	.LVL758
 14818 0260 A0020000 		.4byte	.LVL762
 14819 0264 0100     		.2byte	0x1
 14820 0266 59       		.byte	0x59
ARM GAS  /var/folders/3j/4xdnk5197cv_b7cw3n33qk7r0000gn/T//ccLoT9Qc.s 			page 261


 14821 0267 A0020000 		.4byte	.LVL762
 14822 026b B8020000 		.4byte	.LVL766
 14823 026f 0200     		.2byte	0x2
 14824 0271 30       		.byte	0x30
 14825 0272 9F       		.byte	0x9f
 14826 0273 B8020000 		.4byte	.LVL766
 14827 0277 EC020000 		.4byte	.LVL770
 14828 027b 0100     		.2byte	0x1
 14829 027d 59       		.byte	0x59
 14830 027e EC020000 		.4byte	.LVL770
 14831 0282 58030000 		.4byte	.LVL779
 14832 0286 0200     		.2byte	0x2
 14833 0288 30       		.byte	0x30
 14834 0289 9F       		.byte	0x9f
 14835 028a 58030000 		.4byte	.LVL779
 14836 028e 94030000 		.4byte	.LVL783
 14837 0292 0100     		.2byte	0x1
 14838 0294 59       		.byte	0x59
 14839 0295 94030000 		.4byte	.LVL783
 14840 0299 A4030000 		.4byte	.LFE27
 14841 029d 0200     		.2byte	0x2
 14842 029f 30       		.byte	0x30
 14843 02a0 9F       		.byte	0x9f
 14844 02a1 00000000 		.4byte	0
 14845 02a5 00000000 		.4byte	0
 14846              	.LLST215:
 14847 02a9 30020000 		.4byte	.LVL755
 14848 02ad 58020000 		.4byte	.LVL758
 14849 02b1 0100     		.2byte	0x1
 14850 02b3 5A       		.byte	0x5a
 14851 02b4 B4020000 		.4byte	.LVL765
 14852 02b8 B8020000 		.4byte	.LVL766
 14853 02bc 0100     		.2byte	0x1
 14854 02be 50       		.byte	0x50
 14855 02bf 00000000 		.4byte	0
 14856 02c3 00000000 		.4byte	0
 14857              	.LLST216:
 14858 02c7 D0000000 		.4byte	.LVL734
 14859 02cb E0000000 		.4byte	.LVL735
 14860 02cf 0B00     		.2byte	0xb
 14861 02d1 91       		.byte	0x91
 14862 02d2 B67F     		.sleb128 -74
 14863 02d4 94       		.byte	0x94
 14864 02d5 01       		.byte	0x1
 14865 02d6 30       		.byte	0x30
 14866 02d7 29       		.byte	0x29
 14867 02d8 76       		.byte	0x76
 14868 02d9 00       		.sleb128 0
 14869 02da 21       		.byte	0x21
 14870 02db 9F       		.byte	0x9f
 14871 02dc FC000000 		.4byte	.LVL736
 14872 02e0 1C010000 		.4byte	.LVL737
 14873 02e4 0100     		.2byte	0x1
 14874 02e6 53       		.byte	0x53
 14875 02e7 00000000 		.4byte	0
 14876 02eb 00000000 		.4byte	0
 14877              	.LLST217:
ARM GAS  /var/folders/3j/4xdnk5197cv_b7cw3n33qk7r0000gn/T//ccLoT9Qc.s 			page 262


 14878 02ef D8010000 		.4byte	.LVL751
 14879 02f3 F0010000 		.4byte	.LVL752
 14880 02f7 0100     		.2byte	0x1
 14881 02f9 52       		.byte	0x52
 14882 02fa 48030000 		.4byte	.LVL778
 14883 02fe 58030000 		.4byte	.LVL779
 14884 0302 0100     		.2byte	0x1
 14885 0304 52       		.byte	0x52
 14886 0305 00000000 		.4byte	0
 14887 0309 00000000 		.4byte	0
 14888              	.LLST172:
 14889 030d 00000000 		.4byte	.LVL624
 14890 0311 2F000000 		.4byte	.LVL627-1
 14891 0315 0100     		.2byte	0x1
 14892 0317 50       		.byte	0x50
 14893 0318 2F000000 		.4byte	.LVL627-1
 14894 031c 88040000 		.4byte	.LFE26
 14895 0320 0100     		.2byte	0x1
 14896 0322 54       		.byte	0x54
 14897 0323 00000000 		.4byte	0
 14898 0327 00000000 		.4byte	0
 14899              	.LLST173:
 14900 032b 00000000 		.4byte	.LVL624
 14901 032f 2F000000 		.4byte	.LVL627-1
 14902 0333 0100     		.2byte	0x1
 14903 0335 51       		.byte	0x51
 14904 0336 2F000000 		.4byte	.LVL627-1
 14905 033a A8020000 		.4byte	.LVL669
 14906 033e 0100     		.2byte	0x1
 14907 0340 55       		.byte	0x55
 14908 0341 A8020000 		.4byte	.LVL669
 14909 0345 40040000 		.4byte	.LVL714
 14910 0349 0400     		.2byte	0x4
 14911 034b F3       		.byte	0xf3
 14912 034c 01       		.uleb128 0x1
 14913 034d 51       		.byte	0x51
 14914 034e 9F       		.byte	0x9f
 14915 034f 40040000 		.4byte	.LVL714
 14916 0353 88040000 		.4byte	.LFE26
 14917 0357 0100     		.2byte	0x1
 14918 0359 55       		.byte	0x55
 14919 035a 00000000 		.4byte	0
 14920 035e 00000000 		.4byte	0
 14921              	.LLST174:
 14922 0362 00000000 		.4byte	.LVL624
 14923 0366 14000000 		.4byte	.LVL625
 14924 036a 0100     		.2byte	0x1
 14925 036c 52       		.byte	0x52
 14926 036d 14000000 		.4byte	.LVL625
 14927 0371 88040000 		.4byte	.LFE26
 14928 0375 0100     		.2byte	0x1
 14929 0377 5B       		.byte	0x5b
 14930 0378 00000000 		.4byte	0
 14931 037c 00000000 		.4byte	0
 14932              	.LLST175:
 14933 0380 00000000 		.4byte	.LVL624
 14934 0384 2F000000 		.4byte	.LVL627-1
ARM GAS  /var/folders/3j/4xdnk5197cv_b7cw3n33qk7r0000gn/T//ccLoT9Qc.s 			page 263


 14935 0388 0100     		.2byte	0x1
 14936 038a 53       		.byte	0x53
 14937 038b 2F000000 		.4byte	.LVL627-1
 14938 038f 88040000 		.4byte	.LFE26
 14939 0393 0300     		.2byte	0x3
 14940 0395 91       		.byte	0x91
 14941 0396 AC7F     		.sleb128 -84
 14942 0398 00000000 		.4byte	0
 14943 039c 00000000 		.4byte	0
 14944              	.LLST176:
 14945 03a0 7C000000 		.4byte	.LVL635
 14946 03a4 80000000 		.4byte	.LVL636
 14947 03a8 B600     		.2byte	0xb6
 14948 03aa 79       		.byte	0x79
 14949 03ab 8001     		.sleb128 128
 14950 03ad 38       		.byte	0x38
 14951 03ae 25       		.byte	0x25
 14952 03af 74       		.byte	0x74
 14953 03b0 E401     		.sleb128 228
 14954 03b2 06       		.byte	0x6
 14955 03b3 0A       		.byte	0xa
 14956 03b4 E803     		.2byte	0x3e8
 14957 03b6 1E       		.byte	0x1e
 14958 03b7 74       		.byte	0x74
 14959 03b8 E801     		.sleb128 232
 14960 03ba 94       		.byte	0x94
 14961 03bb 01       		.byte	0x1
 14962 03bc 08       		.byte	0x8
 14963 03bd FF       		.byte	0xff
 14964 03be 1A       		.byte	0x1a
 14965 03bf 0C       		.byte	0xc
 14966 03c0 002F3A00 		.4byte	0x3a2f00
 14967 03c4 1E       		.byte	0x1e
 14968 03c5 23       		.byte	0x23
 14969 03c6 F403     		.uleb128 0x1f4
 14970 03c8 F7       		.byte	0xf7
 14971 03c9 25       		.uleb128 0x25
 14972 03ca 0A       		.byte	0xa
 14973 03cb D007     		.2byte	0x7d0
 14974 03cd F7       		.byte	0xf7
 14975 03ce 25       		.uleb128 0x25
 14976 03cf 1B       		.byte	0x1b
 14977 03d0 F7       		.byte	0xf7
 14978 03d1 00       		.uleb128 0
 14979 03d2 22       		.byte	0x22
 14980 03d3 F7       		.byte	0xf7
 14981 03d4 25       		.uleb128 0x25
 14982 03d5 74       		.byte	0x74
 14983 03d6 E801     		.sleb128 232
 14984 03d8 94       		.byte	0x94
 14985 03d9 01       		.byte	0x1
 14986 03da 08       		.byte	0x8
 14987 03db FF       		.byte	0xff
 14988 03dc 1A       		.byte	0x1a
 14989 03dd 0C       		.byte	0xc
 14990 03de 002F3A00 		.4byte	0x3a2f00
 14991 03e2 1E       		.byte	0x1e
ARM GAS  /var/folders/3j/4xdnk5197cv_b7cw3n33qk7r0000gn/T//ccLoT9Qc.s 			page 264


 14992 03e3 23       		.byte	0x23
 14993 03e4 F403     		.uleb128 0x1f4
 14994 03e6 F7       		.byte	0xf7
 14995 03e7 25       		.uleb128 0x25
 14996 03e8 0A       		.byte	0xa
 14997 03e9 E803     		.2byte	0x3e8
 14998 03eb F7       		.byte	0xf7
 14999 03ec 25       		.uleb128 0x25
 15000 03ed 1B       		.byte	0x1b
 15001 03ee F7       		.byte	0xf7
 15002 03ef 00       		.uleb128 0
 15003 03f0 F7       		.byte	0xf7
 15004 03f1 25       		.uleb128 0x25
 15005 03f2 1B       		.byte	0x1b
 15006 03f3 F7       		.byte	0xf7
 15007 03f4 00       		.uleb128 0
 15008 03f5 74       		.byte	0x74
 15009 03f6 DC01     		.sleb128 220
 15010 03f8 06       		.byte	0x6
 15011 03f9 0A       		.byte	0xa
 15012 03fa E803     		.2byte	0x3e8
 15013 03fc 1E       		.byte	0x1e
 15014 03fd 76       		.byte	0x76
 15015 03fe 00       		.sleb128 0
 15016 03ff 08       		.byte	0x8
 15017 0400 FF       		.byte	0xff
 15018 0401 1A       		.byte	0x1a
 15019 0402 0C       		.byte	0xc
 15020 0403 002F3A00 		.4byte	0x3a2f00
 15021 0407 1E       		.byte	0x1e
 15022 0408 23       		.byte	0x23
 15023 0409 F403     		.uleb128 0x1f4
 15024 040b F7       		.byte	0xf7
 15025 040c 25       		.uleb128 0x25
 15026 040d 0A       		.byte	0xa
 15027 040e D007     		.2byte	0x7d0
 15028 0410 F7       		.byte	0xf7
 15029 0411 25       		.uleb128 0x25
 15030 0412 1B       		.byte	0x1b
 15031 0413 F7       		.byte	0xf7
 15032 0414 00       		.uleb128 0
 15033 0415 22       		.byte	0x22
 15034 0416 F7       		.byte	0xf7
 15035 0417 25       		.uleb128 0x25
 15036 0418 76       		.byte	0x76
 15037 0419 00       		.sleb128 0
 15038 041a 08       		.byte	0x8
 15039 041b FF       		.byte	0xff
 15040 041c 1A       		.byte	0x1a
 15041 041d 0C       		.byte	0xc
 15042 041e 002F3A00 		.4byte	0x3a2f00
 15043 0422 1E       		.byte	0x1e
 15044 0423 23       		.byte	0x23
 15045 0424 F403     		.uleb128 0x1f4
 15046 0426 F7       		.byte	0xf7
 15047 0427 25       		.uleb128 0x25
 15048 0428 0A       		.byte	0xa
ARM GAS  /var/folders/3j/4xdnk5197cv_b7cw3n33qk7r0000gn/T//ccLoT9Qc.s 			page 265


 15049 0429 E803     		.2byte	0x3e8
 15050 042b F7       		.byte	0xf7
 15051 042c 25       		.uleb128 0x25
 15052 042d 1B       		.byte	0x1b
 15053 042e F7       		.byte	0xf7
 15054 042f 00       		.uleb128 0
 15055 0430 F7       		.byte	0xf7
 15056 0431 25       		.uleb128 0x25
 15057 0432 1B       		.byte	0x1b
 15058 0433 F7       		.byte	0xf7
 15059 0434 00       		.uleb128 0
 15060 0435 22       		.byte	0x22
 15061 0436 3B       		.byte	0x3b
 15062 0437 24       		.byte	0x24
 15063 0438 73       		.byte	0x73
 15064 0439 00       		.sleb128 0
 15065 043a 1E       		.byte	0x1e
 15066 043b 23       		.byte	0x23
 15067 043c F403     		.uleb128 0x1f4
 15068 043e F7       		.byte	0xf7
 15069 043f 25       		.uleb128 0x25
 15070 0440 0A       		.byte	0xa
 15071 0441 E803     		.2byte	0x3e8
 15072 0443 F7       		.byte	0xf7
 15073 0444 25       		.uleb128 0x25
 15074 0445 1B       		.byte	0x1b
 15075 0446 F7       		.byte	0xf7
 15076 0447 00       		.uleb128 0
 15077 0448 0A       		.byte	0xa
 15078 0449 7706     		.2byte	0x677
 15079 044b 1E       		.byte	0x1e
 15080 044c 23       		.byte	0x23
 15081 044d F403     		.uleb128 0x1f4
 15082 044f F7       		.byte	0xf7
 15083 0450 25       		.uleb128 0x25
 15084 0451 0A       		.byte	0xa
 15085 0452 E803     		.2byte	0x3e8
 15086 0454 F7       		.byte	0xf7
 15087 0455 25       		.uleb128 0x25
 15088 0456 1B       		.byte	0x1b
 15089 0457 F7       		.byte	0xf7
 15090 0458 00       		.uleb128 0
 15091 0459 1E       		.byte	0x1e
 15092 045a 23       		.byte	0x23
 15093 045b 8001     		.uleb128 0x80
 15094 045d 38       		.byte	0x38
 15095 045e 25       		.byte	0x25
 15096 045f 9F       		.byte	0x9f
 15097 0460 80000000 		.4byte	.LVL636
 15098 0464 BC000000 		.4byte	.LVL637
 15099 0468 B800     		.2byte	0xb8
 15100 046a 79       		.byte	0x79
 15101 046b 8001     		.sleb128 128
 15102 046d 38       		.byte	0x38
 15103 046e 25       		.byte	0x25
 15104 046f 74       		.byte	0x74
 15105 0470 E401     		.sleb128 228
ARM GAS  /var/folders/3j/4xdnk5197cv_b7cw3n33qk7r0000gn/T//ccLoT9Qc.s 			page 266


 15106 0472 06       		.byte	0x6
 15107 0473 0A       		.byte	0xa
 15108 0474 E803     		.2byte	0x3e8
 15109 0476 1E       		.byte	0x1e
 15110 0477 74       		.byte	0x74
 15111 0478 E801     		.sleb128 232
 15112 047a 94       		.byte	0x94
 15113 047b 01       		.byte	0x1
 15114 047c 08       		.byte	0x8
 15115 047d FF       		.byte	0xff
 15116 047e 1A       		.byte	0x1a
 15117 047f 0C       		.byte	0xc
 15118 0480 002F3A00 		.4byte	0x3a2f00
 15119 0484 1E       		.byte	0x1e
 15120 0485 23       		.byte	0x23
 15121 0486 F403     		.uleb128 0x1f4
 15122 0488 F7       		.byte	0xf7
 15123 0489 25       		.uleb128 0x25
 15124 048a 0A       		.byte	0xa
 15125 048b D007     		.2byte	0x7d0
 15126 048d F7       		.byte	0xf7
 15127 048e 25       		.uleb128 0x25
 15128 048f 1B       		.byte	0x1b
 15129 0490 F7       		.byte	0xf7
 15130 0491 00       		.uleb128 0
 15131 0492 22       		.byte	0x22
 15132 0493 F7       		.byte	0xf7
 15133 0494 25       		.uleb128 0x25
 15134 0495 74       		.byte	0x74
 15135 0496 E801     		.sleb128 232
 15136 0498 94       		.byte	0x94
 15137 0499 01       		.byte	0x1
 15138 049a 08       		.byte	0x8
 15139 049b FF       		.byte	0xff
 15140 049c 1A       		.byte	0x1a
 15141 049d 0C       		.byte	0xc
 15142 049e 002F3A00 		.4byte	0x3a2f00
 15143 04a2 1E       		.byte	0x1e
 15144 04a3 23       		.byte	0x23
 15145 04a4 F403     		.uleb128 0x1f4
 15146 04a6 F7       		.byte	0xf7
 15147 04a7 25       		.uleb128 0x25
 15148 04a8 0A       		.byte	0xa
 15149 04a9 E803     		.2byte	0x3e8
 15150 04ab F7       		.byte	0xf7
 15151 04ac 25       		.uleb128 0x25
 15152 04ad 1B       		.byte	0x1b
 15153 04ae F7       		.byte	0xf7
 15154 04af 00       		.uleb128 0
 15155 04b0 F7       		.byte	0xf7
 15156 04b1 25       		.uleb128 0x25
 15157 04b2 1B       		.byte	0x1b
 15158 04b3 F7       		.byte	0xf7
 15159 04b4 00       		.uleb128 0
 15160 04b5 74       		.byte	0x74
 15161 04b6 DC01     		.sleb128 220
 15162 04b8 06       		.byte	0x6
ARM GAS  /var/folders/3j/4xdnk5197cv_b7cw3n33qk7r0000gn/T//ccLoT9Qc.s 			page 267


 15163 04b9 0A       		.byte	0xa
 15164 04ba E803     		.2byte	0x3e8
 15165 04bc 1E       		.byte	0x1e
 15166 04bd 76       		.byte	0x76
 15167 04be 00       		.sleb128 0
 15168 04bf 08       		.byte	0x8
 15169 04c0 FF       		.byte	0xff
 15170 04c1 1A       		.byte	0x1a
 15171 04c2 0C       		.byte	0xc
 15172 04c3 002F3A00 		.4byte	0x3a2f00
 15173 04c7 1E       		.byte	0x1e
 15174 04c8 23       		.byte	0x23
 15175 04c9 F403     		.uleb128 0x1f4
 15176 04cb F7       		.byte	0xf7
 15177 04cc 25       		.uleb128 0x25
 15178 04cd 0A       		.byte	0xa
 15179 04ce D007     		.2byte	0x7d0
 15180 04d0 F7       		.byte	0xf7
 15181 04d1 25       		.uleb128 0x25
 15182 04d2 1B       		.byte	0x1b
 15183 04d3 F7       		.byte	0xf7
 15184 04d4 00       		.uleb128 0
 15185 04d5 22       		.byte	0x22
 15186 04d6 F7       		.byte	0xf7
 15187 04d7 25       		.uleb128 0x25
 15188 04d8 76       		.byte	0x76
 15189 04d9 00       		.sleb128 0
 15190 04da 08       		.byte	0x8
 15191 04db FF       		.byte	0xff
 15192 04dc 1A       		.byte	0x1a
 15193 04dd 0C       		.byte	0xc
 15194 04de 002F3A00 		.4byte	0x3a2f00
 15195 04e2 1E       		.byte	0x1e
 15196 04e3 23       		.byte	0x23
 15197 04e4 F403     		.uleb128 0x1f4
 15198 04e6 F7       		.byte	0xf7
 15199 04e7 25       		.uleb128 0x25
 15200 04e8 0A       		.byte	0xa
 15201 04e9 E803     		.2byte	0x3e8
 15202 04eb F7       		.byte	0xf7
 15203 04ec 25       		.uleb128 0x25
 15204 04ed 1B       		.byte	0x1b
 15205 04ee F7       		.byte	0xf7
 15206 04ef 00       		.uleb128 0
 15207 04f0 F7       		.byte	0xf7
 15208 04f1 25       		.uleb128 0x25
 15209 04f2 1B       		.byte	0x1b
 15210 04f3 F7       		.byte	0xf7
 15211 04f4 00       		.uleb128 0
 15212 04f5 22       		.byte	0x22
 15213 04f6 3B       		.byte	0x3b
 15214 04f7 24       		.byte	0x24
 15215 04f8 91       		.byte	0x91
 15216 04f9 B87F     		.sleb128 -72
 15217 04fb 06       		.byte	0x6
 15218 04fc 1E       		.byte	0x1e
 15219 04fd 23       		.byte	0x23
ARM GAS  /var/folders/3j/4xdnk5197cv_b7cw3n33qk7r0000gn/T//ccLoT9Qc.s 			page 268


 15220 04fe F403     		.uleb128 0x1f4
 15221 0500 F7       		.byte	0xf7
 15222 0501 25       		.uleb128 0x25
 15223 0502 0A       		.byte	0xa
 15224 0503 E803     		.2byte	0x3e8
 15225 0505 F7       		.byte	0xf7
 15226 0506 25       		.uleb128 0x25
 15227 0507 1B       		.byte	0x1b
 15228 0508 F7       		.byte	0xf7
 15229 0509 00       		.uleb128 0
 15230 050a 0A       		.byte	0xa
 15231 050b 7706     		.2byte	0x677
 15232 050d 1E       		.byte	0x1e
 15233 050e 23       		.byte	0x23
 15234 050f F403     		.uleb128 0x1f4
 15235 0511 F7       		.byte	0xf7
 15236 0512 25       		.uleb128 0x25
 15237 0513 0A       		.byte	0xa
 15238 0514 E803     		.2byte	0x3e8
 15239 0516 F7       		.byte	0xf7
 15240 0517 25       		.uleb128 0x25
 15241 0518 1B       		.byte	0x1b
 15242 0519 F7       		.byte	0xf7
 15243 051a 00       		.uleb128 0
 15244 051b 1E       		.byte	0x1e
 15245 051c 23       		.byte	0x23
 15246 051d 8001     		.uleb128 0x80
 15247 051f 38       		.byte	0x38
 15248 0520 25       		.byte	0x25
 15249 0521 9F       		.byte	0x9f
 15250 0522 BC000000 		.4byte	.LVL637
 15251 0526 DB000000 		.4byte	.LVL638-1
 15252 052a BE00     		.2byte	0xbe
 15253 052c 79       		.byte	0x79
 15254 052d 8001     		.sleb128 128
 15255 052f 38       		.byte	0x38
 15256 0530 25       		.byte	0x25
 15257 0531 74       		.byte	0x74
 15258 0532 E401     		.sleb128 228
 15259 0534 06       		.byte	0x6
 15260 0535 0A       		.byte	0xa
 15261 0536 E803     		.2byte	0x3e8
 15262 0538 1E       		.byte	0x1e
 15263 0539 74       		.byte	0x74
 15264 053a E801     		.sleb128 232
 15265 053c 94       		.byte	0x94
 15266 053d 01       		.byte	0x1
 15267 053e 08       		.byte	0x8
 15268 053f FF       		.byte	0xff
 15269 0540 1A       		.byte	0x1a
 15270 0541 0C       		.byte	0xc
 15271 0542 002F3A00 		.4byte	0x3a2f00
 15272 0546 1E       		.byte	0x1e
 15273 0547 23       		.byte	0x23
 15274 0548 F403     		.uleb128 0x1f4
 15275 054a F7       		.byte	0xf7
 15276 054b 25       		.uleb128 0x25
ARM GAS  /var/folders/3j/4xdnk5197cv_b7cw3n33qk7r0000gn/T//ccLoT9Qc.s 			page 269


 15277 054c 0A       		.byte	0xa
 15278 054d D007     		.2byte	0x7d0
 15279 054f F7       		.byte	0xf7
 15280 0550 25       		.uleb128 0x25
 15281 0551 1B       		.byte	0x1b
 15282 0552 F7       		.byte	0xf7
 15283 0553 00       		.uleb128 0
 15284 0554 22       		.byte	0x22
 15285 0555 F7       		.byte	0xf7
 15286 0556 25       		.uleb128 0x25
 15287 0557 74       		.byte	0x74
 15288 0558 E801     		.sleb128 232
 15289 055a 94       		.byte	0x94
 15290 055b 01       		.byte	0x1
 15291 055c 08       		.byte	0x8
 15292 055d FF       		.byte	0xff
 15293 055e 1A       		.byte	0x1a
 15294 055f 0C       		.byte	0xc
 15295 0560 002F3A00 		.4byte	0x3a2f00
 15296 0564 1E       		.byte	0x1e
 15297 0565 23       		.byte	0x23
 15298 0566 F403     		.uleb128 0x1f4
 15299 0568 F7       		.byte	0xf7
 15300 0569 25       		.uleb128 0x25
 15301 056a 0A       		.byte	0xa
 15302 056b E803     		.2byte	0x3e8
 15303 056d F7       		.byte	0xf7
 15304 056e 25       		.uleb128 0x25
 15305 056f 1B       		.byte	0x1b
 15306 0570 F7       		.byte	0xf7
 15307 0571 00       		.uleb128 0
 15308 0572 F7       		.byte	0xf7
 15309 0573 25       		.uleb128 0x25
 15310 0574 1B       		.byte	0x1b
 15311 0575 F7       		.byte	0xf7
 15312 0576 00       		.uleb128 0
 15313 0577 74       		.byte	0x74
 15314 0578 DC01     		.sleb128 220
 15315 057a 06       		.byte	0x6
 15316 057b 0A       		.byte	0xa
 15317 057c E803     		.2byte	0x3e8
 15318 057e 1E       		.byte	0x1e
 15319 057f 74       		.byte	0x74
 15320 0580 E001     		.sleb128 224
 15321 0582 94       		.byte	0x94
 15322 0583 01       		.byte	0x1
 15323 0584 08       		.byte	0x8
 15324 0585 FF       		.byte	0xff
 15325 0586 1A       		.byte	0x1a
 15326 0587 0C       		.byte	0xc
 15327 0588 002F3A00 		.4byte	0x3a2f00
 15328 058c 1E       		.byte	0x1e
 15329 058d 23       		.byte	0x23
 15330 058e F403     		.uleb128 0x1f4
 15331 0590 F7       		.byte	0xf7
 15332 0591 25       		.uleb128 0x25
 15333 0592 0A       		.byte	0xa
ARM GAS  /var/folders/3j/4xdnk5197cv_b7cw3n33qk7r0000gn/T//ccLoT9Qc.s 			page 270


 15334 0593 D007     		.2byte	0x7d0
 15335 0595 F7       		.byte	0xf7
 15336 0596 25       		.uleb128 0x25
 15337 0597 1B       		.byte	0x1b
 15338 0598 F7       		.byte	0xf7
 15339 0599 00       		.uleb128 0
 15340 059a 22       		.byte	0x22
 15341 059b F7       		.byte	0xf7
 15342 059c 25       		.uleb128 0x25
 15343 059d 74       		.byte	0x74
 15344 059e E001     		.sleb128 224
 15345 05a0 94       		.byte	0x94
 15346 05a1 01       		.byte	0x1
 15347 05a2 08       		.byte	0x8
 15348 05a3 FF       		.byte	0xff
 15349 05a4 1A       		.byte	0x1a
 15350 05a5 0C       		.byte	0xc
 15351 05a6 002F3A00 		.4byte	0x3a2f00
 15352 05aa 1E       		.byte	0x1e
 15353 05ab 23       		.byte	0x23
 15354 05ac F403     		.uleb128 0x1f4
 15355 05ae F7       		.byte	0xf7
 15356 05af 25       		.uleb128 0x25
 15357 05b0 0A       		.byte	0xa
 15358 05b1 E803     		.2byte	0x3e8
 15359 05b3 F7       		.byte	0xf7
 15360 05b4 25       		.uleb128 0x25
 15361 05b5 1B       		.byte	0x1b
 15362 05b6 F7       		.byte	0xf7
 15363 05b7 00       		.uleb128 0
 15364 05b8 F7       		.byte	0xf7
 15365 05b9 25       		.uleb128 0x25
 15366 05ba 1B       		.byte	0x1b
 15367 05bb F7       		.byte	0xf7
 15368 05bc 00       		.uleb128 0
 15369 05bd 22       		.byte	0x22
 15370 05be 3B       		.byte	0x3b
 15371 05bf 24       		.byte	0x24
 15372 05c0 91       		.byte	0x91
 15373 05c1 B87F     		.sleb128 -72
 15374 05c3 06       		.byte	0x6
 15375 05c4 1E       		.byte	0x1e
 15376 05c5 23       		.byte	0x23
 15377 05c6 F403     		.uleb128 0x1f4
 15378 05c8 F7       		.byte	0xf7
 15379 05c9 25       		.uleb128 0x25
 15380 05ca 0A       		.byte	0xa
 15381 05cb E803     		.2byte	0x3e8
 15382 05cd F7       		.byte	0xf7
 15383 05ce 25       		.uleb128 0x25
 15384 05cf 1B       		.byte	0x1b
 15385 05d0 F7       		.byte	0xf7
 15386 05d1 00       		.uleb128 0
 15387 05d2 0A       		.byte	0xa
 15388 05d3 7706     		.2byte	0x677
 15389 05d5 1E       		.byte	0x1e
 15390 05d6 23       		.byte	0x23
ARM GAS  /var/folders/3j/4xdnk5197cv_b7cw3n33qk7r0000gn/T//ccLoT9Qc.s 			page 271


 15391 05d7 F403     		.uleb128 0x1f4
 15392 05d9 F7       		.byte	0xf7
 15393 05da 25       		.uleb128 0x25
 15394 05db 0A       		.byte	0xa
 15395 05dc E803     		.2byte	0x3e8
 15396 05de F7       		.byte	0xf7
 15397 05df 25       		.uleb128 0x25
 15398 05e0 1B       		.byte	0x1b
 15399 05e1 F7       		.byte	0xf7
 15400 05e2 00       		.uleb128 0
 15401 05e3 1E       		.byte	0x1e
 15402 05e4 23       		.byte	0x23
 15403 05e5 8001     		.uleb128 0x80
 15404 05e7 38       		.byte	0x38
 15405 05e8 25       		.byte	0x25
 15406 05e9 9F       		.byte	0x9f
 15407 05ea 40040000 		.4byte	.LVL714
 15408 05ee 48040000 		.4byte	.LVL715
 15409 05f2 B800     		.2byte	0xb8
 15410 05f4 79       		.byte	0x79
 15411 05f5 8001     		.sleb128 128
 15412 05f7 38       		.byte	0x38
 15413 05f8 25       		.byte	0x25
 15414 05f9 74       		.byte	0x74
 15415 05fa E401     		.sleb128 228
 15416 05fc 06       		.byte	0x6
 15417 05fd 0A       		.byte	0xa
 15418 05fe E803     		.2byte	0x3e8
 15419 0600 1E       		.byte	0x1e
 15420 0601 74       		.byte	0x74
 15421 0602 E801     		.sleb128 232
 15422 0604 94       		.byte	0x94
 15423 0605 01       		.byte	0x1
 15424 0606 08       		.byte	0x8
 15425 0607 FF       		.byte	0xff
 15426 0608 1A       		.byte	0x1a
 15427 0609 0C       		.byte	0xc
 15428 060a 002F3A00 		.4byte	0x3a2f00
 15429 060e 1E       		.byte	0x1e
 15430 060f 23       		.byte	0x23
 15431 0610 F403     		.uleb128 0x1f4
 15432 0612 F7       		.byte	0xf7
 15433 0613 25       		.uleb128 0x25
 15434 0614 0A       		.byte	0xa
 15435 0615 D007     		.2byte	0x7d0
 15436 0617 F7       		.byte	0xf7
 15437 0618 25       		.uleb128 0x25
 15438 0619 1B       		.byte	0x1b
 15439 061a F7       		.byte	0xf7
 15440 061b 00       		.uleb128 0
 15441 061c 22       		.byte	0x22
 15442 061d F7       		.byte	0xf7
 15443 061e 25       		.uleb128 0x25
 15444 061f 74       		.byte	0x74
 15445 0620 E801     		.sleb128 232
 15446 0622 94       		.byte	0x94
 15447 0623 01       		.byte	0x1
ARM GAS  /var/folders/3j/4xdnk5197cv_b7cw3n33qk7r0000gn/T//ccLoT9Qc.s 			page 272


 15448 0624 08       		.byte	0x8
 15449 0625 FF       		.byte	0xff
 15450 0626 1A       		.byte	0x1a
 15451 0627 0C       		.byte	0xc
 15452 0628 002F3A00 		.4byte	0x3a2f00
 15453 062c 1E       		.byte	0x1e
 15454 062d 23       		.byte	0x23
 15455 062e F403     		.uleb128 0x1f4
 15456 0630 F7       		.byte	0xf7
 15457 0631 25       		.uleb128 0x25
 15458 0632 0A       		.byte	0xa
 15459 0633 E803     		.2byte	0x3e8
 15460 0635 F7       		.byte	0xf7
 15461 0636 25       		.uleb128 0x25
 15462 0637 1B       		.byte	0x1b
 15463 0638 F7       		.byte	0xf7
 15464 0639 00       		.uleb128 0
 15465 063a F7       		.byte	0xf7
 15466 063b 25       		.uleb128 0x25
 15467 063c 1B       		.byte	0x1b
 15468 063d F7       		.byte	0xf7
 15469 063e 00       		.uleb128 0
 15470 063f 74       		.byte	0x74
 15471 0640 DC01     		.sleb128 220
 15472 0642 06       		.byte	0x6
 15473 0643 0A       		.byte	0xa
 15474 0644 E803     		.2byte	0x3e8
 15475 0646 1E       		.byte	0x1e
 15476 0647 76       		.byte	0x76
 15477 0648 00       		.sleb128 0
 15478 0649 08       		.byte	0x8
 15479 064a FF       		.byte	0xff
 15480 064b 1A       		.byte	0x1a
 15481 064c 0C       		.byte	0xc
 15482 064d 002F3A00 		.4byte	0x3a2f00
 15483 0651 1E       		.byte	0x1e
 15484 0652 23       		.byte	0x23
 15485 0653 F403     		.uleb128 0x1f4
 15486 0655 F7       		.byte	0xf7
 15487 0656 25       		.uleb128 0x25
 15488 0657 0A       		.byte	0xa
 15489 0658 D007     		.2byte	0x7d0
 15490 065a F7       		.byte	0xf7
 15491 065b 25       		.uleb128 0x25
 15492 065c 1B       		.byte	0x1b
 15493 065d F7       		.byte	0xf7
 15494 065e 00       		.uleb128 0
 15495 065f 22       		.byte	0x22
 15496 0660 F7       		.byte	0xf7
 15497 0661 25       		.uleb128 0x25
 15498 0662 76       		.byte	0x76
 15499 0663 00       		.sleb128 0
 15500 0664 08       		.byte	0x8
 15501 0665 FF       		.byte	0xff
 15502 0666 1A       		.byte	0x1a
 15503 0667 0C       		.byte	0xc
 15504 0668 002F3A00 		.4byte	0x3a2f00
ARM GAS  /var/folders/3j/4xdnk5197cv_b7cw3n33qk7r0000gn/T//ccLoT9Qc.s 			page 273


 15505 066c 1E       		.byte	0x1e
 15506 066d 23       		.byte	0x23
 15507 066e F403     		.uleb128 0x1f4
 15508 0670 F7       		.byte	0xf7
 15509 0671 25       		.uleb128 0x25
 15510 0672 0A       		.byte	0xa
 15511 0673 E803     		.2byte	0x3e8
 15512 0675 F7       		.byte	0xf7
 15513 0676 25       		.uleb128 0x25
 15514 0677 1B       		.byte	0x1b
 15515 0678 F7       		.byte	0xf7
 15516 0679 00       		.uleb128 0
 15517 067a F7       		.byte	0xf7
 15518 067b 25       		.uleb128 0x25
 15519 067c 1B       		.byte	0x1b
 15520 067d F7       		.byte	0xf7
 15521 067e 00       		.uleb128 0
 15522 067f 22       		.byte	0x22
 15523 0680 3B       		.byte	0x3b
 15524 0681 24       		.byte	0x24
 15525 0682 91       		.byte	0x91
 15526 0683 B87F     		.sleb128 -72
 15527 0685 06       		.byte	0x6
 15528 0686 1E       		.byte	0x1e
 15529 0687 23       		.byte	0x23
 15530 0688 F403     		.uleb128 0x1f4
 15531 068a F7       		.byte	0xf7
 15532 068b 25       		.uleb128 0x25
 15533 068c 0A       		.byte	0xa
 15534 068d E803     		.2byte	0x3e8
 15535 068f F7       		.byte	0xf7
 15536 0690 25       		.uleb128 0x25
 15537 0691 1B       		.byte	0x1b
 15538 0692 F7       		.byte	0xf7
 15539 0693 00       		.uleb128 0
 15540 0694 0A       		.byte	0xa
 15541 0695 7706     		.2byte	0x677
 15542 0697 1E       		.byte	0x1e
 15543 0698 23       		.byte	0x23
 15544 0699 F403     		.uleb128 0x1f4
 15545 069b F7       		.byte	0xf7
 15546 069c 25       		.uleb128 0x25
 15547 069d 0A       		.byte	0xa
 15548 069e E803     		.2byte	0x3e8
 15549 06a0 F7       		.byte	0xf7
 15550 06a1 25       		.uleb128 0x25
 15551 06a2 1B       		.byte	0x1b
 15552 06a3 F7       		.byte	0xf7
 15553 06a4 00       		.uleb128 0
 15554 06a5 1E       		.byte	0x1e
 15555 06a6 23       		.byte	0x23
 15556 06a7 8001     		.uleb128 0x80
 15557 06a9 38       		.byte	0x38
 15558 06aa 25       		.byte	0x25
 15559 06ab 9F       		.byte	0x9f
 15560 06ac 00000000 		.4byte	0
 15561 06b0 00000000 		.4byte	0
ARM GAS  /var/folders/3j/4xdnk5197cv_b7cw3n33qk7r0000gn/T//ccLoT9Qc.s 			page 274


 15562              	.LLST177:
 15563 06b4 58000000 		.4byte	.LVL633
 15564 06b8 DB000000 		.4byte	.LVL638-1
 15565 06bc 0300     		.2byte	0x3
 15566 06be 74       		.byte	0x74
 15567 06bf DC01     		.sleb128 220
 15568 06c1 F8000000 		.4byte	.LVL639
 15569 06c5 38030000 		.4byte	.LVL688
 15570 06c9 0100     		.2byte	0x1
 15571 06cb 56       		.byte	0x56
 15572 06cc 40040000 		.4byte	.LVL714
 15573 06d0 48040000 		.4byte	.LVL715
 15574 06d4 0300     		.2byte	0x3
 15575 06d6 74       		.byte	0x74
 15576 06d7 DC01     		.sleb128 220
 15577 06d9 5C040000 		.4byte	.LVL717
 15578 06dd 88040000 		.4byte	.LFE26
 15579 06e1 0100     		.2byte	0x1
 15580 06e3 56       		.byte	0x56
 15581 06e4 00000000 		.4byte	0
 15582 06e8 00000000 		.4byte	0
 15583              	.LLST178:
 15584 06ec 5C000000 		.4byte	.LVL634
 15585 06f0 DB000000 		.4byte	.LVL638-1
 15586 06f4 0300     		.2byte	0x3
 15587 06f6 74       		.byte	0x74
 15588 06f7 E401     		.sleb128 228
 15589 06f9 DB000000 		.4byte	.LVL638-1
 15590 06fd 38040000 		.4byte	.LVL713
 15591 0701 0300     		.2byte	0x3
 15592 0703 91       		.byte	0x91
 15593 0704 BC7F     		.sleb128 -68
 15594 0706 40040000 		.4byte	.LVL714
 15595 070a 48040000 		.4byte	.LVL715
 15596 070e 0300     		.2byte	0x3
 15597 0710 74       		.byte	0x74
 15598 0711 E401     		.sleb128 228
 15599 0713 5C040000 		.4byte	.LVL717
 15600 0717 88040000 		.4byte	.LFE26
 15601 071b 0300     		.2byte	0x3
 15602 071d 91       		.byte	0x91
 15603 071e BC7F     		.sleb128 -68
 15604 0720 00000000 		.4byte	0
 15605 0724 00000000 		.4byte	0
 15606              	.LLST179:
 15607 0728 14010000 		.4byte	.LVL640
 15608 072c 38040000 		.4byte	.LVL713
 15609 0730 0400     		.2byte	0x4
 15610 0732 0A       		.byte	0xa
 15611 0733 2003     		.2byte	0x320
 15612 0735 9F       		.byte	0x9f
 15613 0736 5C040000 		.4byte	.LVL717
 15614 073a 88040000 		.4byte	.LFE26
 15615 073e 0400     		.2byte	0x4
 15616 0740 0A       		.byte	0xa
 15617 0741 2003     		.2byte	0x320
 15618 0743 9F       		.byte	0x9f
ARM GAS  /var/folders/3j/4xdnk5197cv_b7cw3n33qk7r0000gn/T//ccLoT9Qc.s 			page 275


 15619 0744 00000000 		.4byte	0
 15620 0748 00000000 		.4byte	0
 15621              	.LLST180:
 15622 074c 94010000 		.4byte	.LVL645
 15623 0750 A8010000 		.4byte	.LVL647
 15624 0754 0100     		.2byte	0x1
 15625 0756 50       		.byte	0x50
 15626 0757 B4010000 		.4byte	.LVL648
 15627 075b C4010000 		.4byte	.LVL650
 15628 075f 0100     		.2byte	0x1
 15629 0761 53       		.byte	0x53
 15630 0762 C4010000 		.4byte	.LVL650
 15631 0766 38040000 		.4byte	.LVL713
 15632 076a 0300     		.2byte	0x3
 15633 076c 91       		.byte	0x91
 15634 076d B87F     		.sleb128 -72
 15635 076f 5C040000 		.4byte	.LVL717
 15636 0773 88040000 		.4byte	.LFE26
 15637 0777 0300     		.2byte	0x3
 15638 0779 91       		.byte	0x91
 15639 077a B87F     		.sleb128 -72
 15640 077c 00000000 		.4byte	0
 15641 0780 00000000 		.4byte	0
 15642              	.LLST181:
 15643 0784 30020000 		.4byte	.LVL656
 15644 0788 38040000 		.4byte	.LVL713
 15645 078c 0100     		.2byte	0x1
 15646 078e 59       		.byte	0x59
 15647 078f 5C040000 		.4byte	.LVL717
 15648 0793 88040000 		.4byte	.LFE26
 15649 0797 0100     		.2byte	0x1
 15650 0799 59       		.byte	0x59
 15651 079a 00000000 		.4byte	0
 15652 079e 00000000 		.4byte	0
 15653              	.LLST182:
 15654 07a2 3C020000 		.4byte	.LVL658
 15655 07a6 8C020000 		.4byte	.LVL667
 15656 07aa 0D00     		.2byte	0xd
 15657 07ac 73       		.byte	0x73
 15658 07ad 00       		.sleb128 0
 15659 07ae 0A       		.byte	0xa
 15660 07af FFFF     		.2byte	0xffff
 15661 07b1 1A       		.byte	0x1a
 15662 07b2 0C       		.byte	0xc
 15663 07b3 9A990600 		.4byte	0x6999a
 15664 07b7 1E       		.byte	0x1e
 15665 07b8 9F       		.byte	0x9f
 15666 07b9 8C020000 		.4byte	.LVL667
 15667 07bd A8020000 		.4byte	.LVL669
 15668 07c1 0F00     		.2byte	0xf
 15669 07c3 75       		.byte	0x75
 15670 07c4 08       		.sleb128 8
 15671 07c5 94       		.byte	0x94
 15672 07c6 02       		.byte	0x2
 15673 07c7 0A       		.byte	0xa
 15674 07c8 FFFF     		.2byte	0xffff
 15675 07ca 1A       		.byte	0x1a
ARM GAS  /var/folders/3j/4xdnk5197cv_b7cw3n33qk7r0000gn/T//ccLoT9Qc.s 			page 276


 15676 07cb 0C       		.byte	0xc
 15677 07cc 9A990600 		.4byte	0x6999a
 15678 07d0 1E       		.byte	0x1e
 15679 07d1 9F       		.byte	0x9f
 15680 07d2 A8020000 		.4byte	.LVL669
 15681 07d6 FF020000 		.4byte	.LVL683-1
 15682 07da 1200     		.2byte	0x12
 15683 07dc F3       		.byte	0xf3
 15684 07dd 01       		.uleb128 0x1
 15685 07de 51       		.byte	0x51
 15686 07df 23       		.byte	0x23
 15687 07e0 08       		.uleb128 0x8
 15688 07e1 94       		.byte	0x94
 15689 07e2 02       		.byte	0x2
 15690 07e3 0A       		.byte	0xa
 15691 07e4 FFFF     		.2byte	0xffff
 15692 07e6 1A       		.byte	0x1a
 15693 07e7 0C       		.byte	0xc
 15694 07e8 9A990600 		.4byte	0x6999a
 15695 07ec 1E       		.byte	0x1e
 15696 07ed 9F       		.byte	0x9f
 15697 07ee 5C040000 		.4byte	.LVL717
 15698 07f2 88040000 		.4byte	.LFE26
 15699 07f6 0D00     		.2byte	0xd
 15700 07f8 73       		.byte	0x73
 15701 07f9 00       		.sleb128 0
 15702 07fa 0A       		.byte	0xa
 15703 07fb FFFF     		.2byte	0xffff
 15704 07fd 1A       		.byte	0x1a
 15705 07fe 0C       		.byte	0xc
 15706 07ff 9A990600 		.4byte	0x6999a
 15707 0803 1E       		.byte	0x1e
 15708 0804 9F       		.byte	0x9f
 15709 0805 00000000 		.4byte	0
 15710 0809 00000000 		.4byte	0
 15711              	.LLST183:
 15712 080d 78020000 		.4byte	.LVL662
 15713 0811 38040000 		.4byte	.LVL713
 15714 0815 0100     		.2byte	0x1
 15715 0817 5A       		.byte	0x5a
 15716 0818 00000000 		.4byte	0
 15717 081c 00000000 		.4byte	0
 15718              	.LLST184:
 15719 0820 00030000 		.4byte	.LVL683
 15720 0824 14030000 		.4byte	.LVL684
 15721 0828 0100     		.2byte	0x1
 15722 082a 50       		.byte	0x50
 15723 082b 14030000 		.4byte	.LVL684
 15724 082f 20030000 		.4byte	.LVL685
 15725 0833 0100     		.2byte	0x1
 15726 0835 52       		.byte	0x52
 15727 0836 20030000 		.4byte	.LVL685
 15728 083a 2C030000 		.4byte	.LVL686
 15729 083e 0400     		.2byte	0x4
 15730 0840 72       		.byte	0x72
 15731 0841 8059     		.sleb128 -4992
 15732 0843 9F       		.byte	0x9f
ARM GAS  /var/folders/3j/4xdnk5197cv_b7cw3n33qk7r0000gn/T//ccLoT9Qc.s 			page 277


 15733 0844 2C030000 		.4byte	.LVL686
 15734 0848 30030000 		.4byte	.LVL687
 15735 084c 0100     		.2byte	0x1
 15736 084e 52       		.byte	0x52
 15737 084f 30030000 		.4byte	.LVL687
 15738 0853 38030000 		.4byte	.LVL688
 15739 0857 2300     		.2byte	0x23
 15740 0859 70       		.byte	0x70
 15741 085a 00       		.sleb128 0
 15742 085b 33       		.byte	0x33
 15743 085c 24       		.byte	0x24
 15744 085d 70       		.byte	0x70
 15745 085e 00       		.sleb128 0
 15746 085f 22       		.byte	0x22
 15747 0860 32       		.byte	0x32
 15748 0861 24       		.byte	0x24
 15749 0862 70       		.byte	0x70
 15750 0863 00       		.sleb128 0
 15751 0864 22       		.byte	0x22
 15752 0865 39       		.byte	0x39
 15753 0866 1E       		.byte	0x1e
 15754 0867 70       		.byte	0x70
 15755 0868 00       		.sleb128 0
 15756 0869 33       		.byte	0x33
 15757 086a 24       		.byte	0x24
 15758 086b 70       		.byte	0x70
 15759 086c 00       		.sleb128 0
 15760 086d 22       		.byte	0x22
 15761 086e 32       		.byte	0x32
 15762 086f 24       		.byte	0x24
 15763 0870 70       		.byte	0x70
 15764 0871 00       		.sleb128 0
 15765 0872 22       		.byte	0x22
 15766 0873 39       		.byte	0x39
 15767 0874 1E       		.byte	0x1e
 15768 0875 33       		.byte	0x33
 15769 0876 24       		.byte	0x24
 15770 0877 22       		.byte	0x22
 15771 0878 23       		.byte	0x23
 15772 0879 8827     		.uleb128 0x1388
 15773 087b 9F       		.byte	0x9f
 15774 087c 38030000 		.4byte	.LVL688
 15775 0880 A4030000 		.4byte	.LVL701
 15776 0884 0100     		.2byte	0x1
 15777 0886 56       		.byte	0x56
 15778 0887 A4030000 		.4byte	.LVL701
 15779 088b 38040000 		.4byte	.LVL713
 15780 088f 0400     		.2byte	0x4
 15781 0891 0A       		.byte	0xa
 15782 0892 00F0     		.2byte	0xf000
 15783 0894 9F       		.byte	0x9f
 15784 0895 00000000 		.4byte	0
 15785 0899 00000000 		.4byte	0
 15786              	.LLST185:
 15787 089d 3C020000 		.4byte	.LVL658
 15788 08a1 64020000 		.4byte	.LVL659
 15789 08a5 0500     		.2byte	0x5
ARM GAS  /var/folders/3j/4xdnk5197cv_b7cw3n33qk7r0000gn/T//ccLoT9Qc.s 			page 278


 15790 08a7 70       		.byte	0x70
 15791 08a8 00       		.sleb128 0
 15792 08a9 38       		.byte	0x38
 15793 08aa 24       		.byte	0x24
 15794 08ab 9F       		.byte	0x9f
 15795 08ac 64020000 		.4byte	.LVL659
 15796 08b0 6C020000 		.4byte	.LVL661
 15797 08b4 0100     		.2byte	0x1
 15798 08b6 50       		.byte	0x50
 15799 08b7 5C040000 		.4byte	.LVL717
 15800 08bb 88040000 		.4byte	.LFE26
 15801 08bf 0500     		.2byte	0x5
 15802 08c1 70       		.byte	0x70
 15803 08c2 00       		.sleb128 0
 15804 08c3 38       		.byte	0x38
 15805 08c4 24       		.byte	0x24
 15806 08c5 9F       		.byte	0x9f
 15807 08c6 00000000 		.4byte	0
 15808 08ca 00000000 		.4byte	0
 15809              	.LLST186:
 15810 08ce 2C000000 		.4byte	.LVL626
 15811 08d2 78010000 		.4byte	.LVL643
 15812 08d6 0900     		.2byte	0x9
 15813 08d8 78       		.byte	0x78
 15814 08d9 00       		.sleb128 0
 15815 08da 0A       		.byte	0xa
 15816 08db E803     		.2byte	0x3e8
 15817 08dd 1E       		.byte	0x1e
 15818 08de 40       		.byte	0x40
 15819 08df 25       		.byte	0x25
 15820 08e0 9F       		.byte	0x9f
 15821 08e1 40040000 		.4byte	.LVL714
 15822 08e5 5C040000 		.4byte	.LVL717
 15823 08e9 0900     		.2byte	0x9
 15824 08eb 78       		.byte	0x78
 15825 08ec 00       		.sleb128 0
 15826 08ed 0A       		.byte	0xa
 15827 08ee E803     		.2byte	0x3e8
 15828 08f0 1E       		.byte	0x1e
 15829 08f1 40       		.byte	0x40
 15830 08f2 25       		.byte	0x25
 15831 08f3 9F       		.byte	0x9f
 15832 08f4 00000000 		.4byte	0
 15833 08f8 00000000 		.4byte	0
 15834              	.LLST187:
 15835 08fc 50000000 		.4byte	.LVL631
 15836 0900 5C010000 		.4byte	.LVL642
 15837 0904 0D00     		.2byte	0xd
 15838 0906 79       		.byte	0x79
 15839 0907 00       		.sleb128 0
 15840 0908 0A       		.byte	0xa
 15841 0909 E803     		.2byte	0x3e8
 15842 090b 1E       		.byte	0x1e
 15843 090c 23       		.byte	0x23
 15844 090d 808002   		.uleb128 0x8000
 15845 0910 40       		.byte	0x40
 15846 0911 25       		.byte	0x25
ARM GAS  /var/folders/3j/4xdnk5197cv_b7cw3n33qk7r0000gn/T//ccLoT9Qc.s 			page 279


 15847 0912 9F       		.byte	0x9f
 15848 0913 5C010000 		.4byte	.LVL642
 15849 0917 90010000 		.4byte	.LVL644
 15850 091b 0E00     		.2byte	0xe
 15851 091d 71       		.byte	0x71
 15852 091e 807F     		.sleb128 -128
 15853 0920 0A       		.byte	0xa
 15854 0921 E803     		.2byte	0x3e8
 15855 0923 1E       		.byte	0x1e
 15856 0924 23       		.byte	0x23
 15857 0925 808002   		.uleb128 0x8000
 15858 0928 40       		.byte	0x40
 15859 0929 25       		.byte	0x25
 15860 092a 9F       		.byte	0x9f
 15861 092b 90010000 		.4byte	.LVL644
 15862 092f 38040000 		.4byte	.LVL713
 15863 0933 1200     		.2byte	0x12
 15864 0935 91       		.byte	0x91
 15865 0936 B07F     		.sleb128 -80
 15866 0938 06       		.byte	0x6
 15867 0939 08       		.byte	0x8
 15868 093a 80       		.byte	0x80
 15869 093b 1C       		.byte	0x1c
 15870 093c 0A       		.byte	0xa
 15871 093d E803     		.2byte	0x3e8
 15872 093f 1E       		.byte	0x1e
 15873 0940 23       		.byte	0x23
 15874 0941 808002   		.uleb128 0x8000
 15875 0944 40       		.byte	0x40
 15876 0945 25       		.byte	0x25
 15877 0946 9F       		.byte	0x9f
 15878 0947 40040000 		.4byte	.LVL714
 15879 094b 5C040000 		.4byte	.LVL717
 15880 094f 0D00     		.2byte	0xd
 15881 0951 79       		.byte	0x79
 15882 0952 00       		.sleb128 0
 15883 0953 0A       		.byte	0xa
 15884 0954 E803     		.2byte	0x3e8
 15885 0956 1E       		.byte	0x1e
 15886 0957 23       		.byte	0x23
 15887 0958 808002   		.uleb128 0x8000
 15888 095b 40       		.byte	0x40
 15889 095c 25       		.byte	0x25
 15890 095d 9F       		.byte	0x9f
 15891 095e 5C040000 		.4byte	.LVL717
 15892 0962 88040000 		.4byte	.LFE26
 15893 0966 1200     		.2byte	0x12
 15894 0968 91       		.byte	0x91
 15895 0969 B07F     		.sleb128 -80
 15896 096b 06       		.byte	0x6
 15897 096c 08       		.byte	0x8
 15898 096d 80       		.byte	0x80
 15899 096e 1C       		.byte	0x1c
 15900 096f 0A       		.byte	0xa
 15901 0970 E803     		.2byte	0x3e8
 15902 0972 1E       		.byte	0x1e
 15903 0973 23       		.byte	0x23
ARM GAS  /var/folders/3j/4xdnk5197cv_b7cw3n33qk7r0000gn/T//ccLoT9Qc.s 			page 280


 15904 0974 808002   		.uleb128 0x8000
 15905 0977 40       		.byte	0x40
 15906 0978 25       		.byte	0x25
 15907 0979 9F       		.byte	0x9f
 15908 097a 00000000 		.4byte	0
 15909 097e 00000000 		.4byte	0
 15910              	.LLST188:
 15911 0982 50000000 		.4byte	.LVL631
 15912 0986 DB000000 		.4byte	.LVL638-1
 15913 098a 1C00     		.2byte	0x1c
 15914 098c 91       		.byte	0x91
 15915 098d 48       		.sleb128 -56
 15916 098e 06       		.byte	0x6
 15917 098f 0A       		.byte	0xa
 15918 0990 E803     		.2byte	0x3e8
 15919 0992 1E       		.byte	0x1e
 15920 0993 12       		.byte	0x12
 15921 0994 40       		.byte	0x40
 15922 0995 4B       		.byte	0x4b
 15923 0996 24       		.byte	0x24
 15924 0997 22       		.byte	0x22
 15925 0998 49       		.byte	0x49
 15926 0999 41       		.byte	0x41
 15927 099a 24       		.byte	0x24
 15928 099b 16       		.byte	0x16
 15929 099c 14       		.byte	0x14
 15930 099d 40       		.byte	0x40
 15931 099e 4B       		.byte	0x4b
 15932 099f 24       		.byte	0x24
 15933 09a0 22       		.byte	0x22
 15934 09a1 2D       		.byte	0x2d
 15935 09a2 28       		.byte	0x28
 15936 09a3 0100     		.2byte	0x1
 15937 09a5 16       		.byte	0x16
 15938 09a6 13       		.byte	0x13
 15939 09a7 9F       		.byte	0x9f
 15940 09a8 40040000 		.4byte	.LVL714
 15941 09ac 5C040000 		.4byte	.LVL717
 15942 09b0 1C00     		.2byte	0x1c
 15943 09b2 91       		.byte	0x91
 15944 09b3 48       		.sleb128 -56
 15945 09b4 06       		.byte	0x6
 15946 09b5 0A       		.byte	0xa
 15947 09b6 E803     		.2byte	0x3e8
 15948 09b8 1E       		.byte	0x1e
 15949 09b9 12       		.byte	0x12
 15950 09ba 40       		.byte	0x40
 15951 09bb 4B       		.byte	0x4b
 15952 09bc 24       		.byte	0x24
 15953 09bd 22       		.byte	0x22
 15954 09be 49       		.byte	0x49
 15955 09bf 41       		.byte	0x41
 15956 09c0 24       		.byte	0x24
 15957 09c1 16       		.byte	0x16
 15958 09c2 14       		.byte	0x14
 15959 09c3 40       		.byte	0x40
 15960 09c4 4B       		.byte	0x4b
ARM GAS  /var/folders/3j/4xdnk5197cv_b7cw3n33qk7r0000gn/T//ccLoT9Qc.s 			page 281


 15961 09c5 24       		.byte	0x24
 15962 09c6 22       		.byte	0x22
 15963 09c7 2D       		.byte	0x2d
 15964 09c8 28       		.byte	0x28
 15965 09c9 0100     		.2byte	0x1
 15966 09cb 16       		.byte	0x16
 15967 09cc 13       		.byte	0x13
 15968 09cd 9F       		.byte	0x9f
 15969 09ce 00000000 		.4byte	0
 15970 09d2 00000000 		.4byte	0
 15971              	.LLST189:
 15972 09d6 00000000 		.4byte	.LVL624
 15973 09da 4C000000 		.4byte	.LVL630
 15974 09de 0200     		.2byte	0x2
 15975 09e0 30       		.byte	0x30
 15976 09e1 9F       		.byte	0x9f
 15977 09e2 50000000 		.4byte	.LVL631
 15978 09e6 54000000 		.4byte	.LVL632
 15979 09ea 0100     		.2byte	0x1
 15980 09ec 50       		.byte	0x50
 15981 09ed 00000000 		.4byte	0
 15982 09f1 00000000 		.4byte	0
 15983              	.LLST190:
 15984 09f5 3C020000 		.4byte	.LVL658
 15985 09f9 68020000 		.4byte	.LVL660
 15986 09fd 0D00     		.2byte	0xd
 15987 09ff 7A       		.byte	0x7a
 15988 0a00 00       		.sleb128 0
 15989 0a01 F7       		.byte	0xf7
 15990 0a02 25       		.uleb128 0x25
 15991 0a03 0A       		.byte	0xa
 15992 0a04 E803     		.2byte	0x3e8
 15993 0a06 F7       		.byte	0xf7
 15994 0a07 25       		.uleb128 0x25
 15995 0a08 1B       		.byte	0x1b
 15996 0a09 F7       		.byte	0xf7
 15997 0a0a 00       		.uleb128 0
 15998 0a0b 9F       		.byte	0x9f
 15999 0a0c 68020000 		.4byte	.LVL660
 16000 0a10 38040000 		.4byte	.LVL713
 16001 0a14 2B00     		.2byte	0x2b
 16002 0a16 91       		.byte	0x91
 16003 0a17 B07F     		.sleb128 -80
 16004 0a19 06       		.byte	0x6
 16005 0a1a 08       		.byte	0x8
 16006 0a1b 80       		.byte	0x80
 16007 0a1c 1C       		.byte	0x1c
 16008 0a1d 4F       		.byte	0x4f
 16009 0a1e 1E       		.byte	0x1e
 16010 0a1f 32       		.byte	0x32
 16011 0a20 24       		.byte	0x24
 16012 0a21 91       		.byte	0x91
 16013 0a22 B07F     		.sleb128 -80
 16014 0a24 06       		.byte	0x6
 16015 0a25 22       		.byte	0x22
 16016 0a26 08       		.byte	0x8
 16017 0a27 80       		.byte	0x80
ARM GAS  /var/folders/3j/4xdnk5197cv_b7cw3n33qk7r0000gn/T//ccLoT9Qc.s 			page 282


 16018 0a28 1C       		.byte	0x1c
 16019 0a29 33       		.byte	0x33
 16020 0a2a 24       		.byte	0x24
 16021 0a2b 23       		.byte	0x23
 16022 0a2c 808002   		.uleb128 0x8000
 16023 0a2f 40       		.byte	0x40
 16024 0a30 25       		.byte	0x25
 16025 0a31 40       		.byte	0x40
 16026 0a32 24       		.byte	0x24
 16027 0a33 23       		.byte	0x23
 16028 0a34 F403     		.uleb128 0x1f4
 16029 0a36 F7       		.byte	0xf7
 16030 0a37 25       		.uleb128 0x25
 16031 0a38 0A       		.byte	0xa
 16032 0a39 E803     		.2byte	0x3e8
 16033 0a3b F7       		.byte	0xf7
 16034 0a3c 25       		.uleb128 0x25
 16035 0a3d 1B       		.byte	0x1b
 16036 0a3e F7       		.byte	0xf7
 16037 0a3f 00       		.uleb128 0
 16038 0a40 9F       		.byte	0x9f
 16039 0a41 5C040000 		.4byte	.LVL717
 16040 0a45 60040000 		.4byte	.LVL718
 16041 0a49 0D00     		.2byte	0xd
 16042 0a4b 7A       		.byte	0x7a
 16043 0a4c 00       		.sleb128 0
 16044 0a4d F7       		.byte	0xf7
 16045 0a4e 25       		.uleb128 0x25
 16046 0a4f 0A       		.byte	0xa
 16047 0a50 E803     		.2byte	0x3e8
 16048 0a52 F7       		.byte	0xf7
 16049 0a53 25       		.uleb128 0x25
 16050 0a54 1B       		.byte	0x1b
 16051 0a55 F7       		.byte	0xf7
 16052 0a56 00       		.uleb128 0
 16053 0a57 9F       		.byte	0x9f
 16054 0a58 60040000 		.4byte	.LVL718
 16055 0a5c 88040000 		.4byte	.LFE26
 16056 0a60 2B00     		.2byte	0x2b
 16057 0a62 91       		.byte	0x91
 16058 0a63 B07F     		.sleb128 -80
 16059 0a65 06       		.byte	0x6
 16060 0a66 08       		.byte	0x8
 16061 0a67 80       		.byte	0x80
 16062 0a68 1C       		.byte	0x1c
 16063 0a69 4F       		.byte	0x4f
 16064 0a6a 1E       		.byte	0x1e
 16065 0a6b 32       		.byte	0x32
 16066 0a6c 24       		.byte	0x24
 16067 0a6d 91       		.byte	0x91
 16068 0a6e B07F     		.sleb128 -80
 16069 0a70 06       		.byte	0x6
 16070 0a71 22       		.byte	0x22
 16071 0a72 08       		.byte	0x8
 16072 0a73 80       		.byte	0x80
 16073 0a74 1C       		.byte	0x1c
 16074 0a75 33       		.byte	0x33
ARM GAS  /var/folders/3j/4xdnk5197cv_b7cw3n33qk7r0000gn/T//ccLoT9Qc.s 			page 283


 16075 0a76 24       		.byte	0x24
 16076 0a77 23       		.byte	0x23
 16077 0a78 808002   		.uleb128 0x8000
 16078 0a7b 40       		.byte	0x40
 16079 0a7c 25       		.byte	0x25
 16080 0a7d 40       		.byte	0x40
 16081 0a7e 24       		.byte	0x24
 16082 0a7f 23       		.byte	0x23
 16083 0a80 F403     		.uleb128 0x1f4
 16084 0a82 F7       		.byte	0xf7
 16085 0a83 25       		.uleb128 0x25
 16086 0a84 0A       		.byte	0xa
 16087 0a85 E803     		.2byte	0x3e8
 16088 0a87 F7       		.byte	0xf7
 16089 0a88 25       		.uleb128 0x25
 16090 0a89 1B       		.byte	0x1b
 16091 0a8a F7       		.byte	0xf7
 16092 0a8b 00       		.uleb128 0
 16093 0a8c 9F       		.byte	0x9f
 16094 0a8d 00000000 		.4byte	0
 16095 0a91 00000000 		.4byte	0
 16096              	.LLST191:
 16097 0a95 A0020000 		.4byte	.LVL668
 16098 0a99 A0030000 		.4byte	.LVL700
 16099 0a9d 1A00     		.2byte	0x1a
 16100 0a9f 7A       		.byte	0x7a
 16101 0aa0 00       		.sleb128 0
 16102 0aa1 0A       		.byte	0xa
 16103 0aa2 2003     		.2byte	0x320
 16104 0aa4 1E       		.byte	0x1e
 16105 0aa5 23       		.byte	0x23
 16106 0aa6 808002   		.uleb128 0x8000
 16107 0aa9 40       		.byte	0x40
 16108 0aaa 25       		.byte	0x25
 16109 0aab 7A       		.byte	0x7a
 16110 0aac 00       		.sleb128 0
 16111 0aad 0A       		.byte	0xa
 16112 0aae 2003     		.2byte	0x320
 16113 0ab0 1E       		.byte	0x1e
 16114 0ab1 23       		.byte	0x23
 16115 0ab2 808002   		.uleb128 0x8000
 16116 0ab5 40       		.byte	0x40
 16117 0ab6 25       		.byte	0x25
 16118 0ab7 1E       		.byte	0x1e
 16119 0ab8 9F       		.byte	0x9f
 16120 0ab9 A0030000 		.4byte	.LVL700
 16121 0abd A4030000 		.4byte	.LVL701
 16122 0ac1 0600     		.2byte	0x6
 16123 0ac3 76       		.byte	0x76
 16124 0ac4 00       		.sleb128 0
 16125 0ac5 76       		.byte	0x76
 16126 0ac6 00       		.sleb128 0
 16127 0ac7 1E       		.byte	0x1e
 16128 0ac8 9F       		.byte	0x9f
 16129 0ac9 A4030000 		.4byte	.LVL701
 16130 0acd 38040000 		.4byte	.LVL713
 16131 0ad1 0500     		.2byte	0x5
ARM GAS  /var/folders/3j/4xdnk5197cv_b7cw3n33qk7r0000gn/T//ccLoT9Qc.s 			page 284


 16132 0ad3 4F       		.byte	0x4f
 16133 0ad4 48       		.byte	0x48
 16134 0ad5 24       		.byte	0x24
 16135 0ad6 1F       		.byte	0x1f
 16136 0ad7 9F       		.byte	0x9f
 16137 0ad8 00000000 		.4byte	0
 16138 0adc 00000000 		.4byte	0
 16139              	.LLST192:
 16140 0ae0 A0020000 		.4byte	.LVL668
 16141 0ae4 B0020000 		.4byte	.LVL670
 16142 0ae8 0300     		.2byte	0x3
 16143 0aea 91       		.byte	0x91
 16144 0aeb B87F     		.sleb128 -72
 16145 0aed B0020000 		.4byte	.LVL670
 16146 0af1 B4020000 		.4byte	.LVL671
 16147 0af5 0600     		.2byte	0x6
 16148 0af7 73       		.byte	0x73
 16149 0af8 00       		.sleb128 0
 16150 0af9 73       		.byte	0x73
 16151 0afa 00       		.sleb128 0
 16152 0afb 1E       		.byte	0x1e
 16153 0afc 9F       		.byte	0x9f
 16154 0afd B4020000 		.4byte	.LVL671
 16155 0b01 A0030000 		.4byte	.LVL700
 16156 0b05 1600     		.2byte	0x16
 16157 0b07 91       		.byte	0x91
 16158 0b08 B87F     		.sleb128 -72
 16159 0b0a 06       		.byte	0x6
 16160 0b0b 23       		.byte	0x23
 16161 0b0c 808002   		.uleb128 0x8000
 16162 0b0f 40       		.byte	0x40
 16163 0b10 25       		.byte	0x25
 16164 0b11 91       		.byte	0x91
 16165 0b12 B87F     		.sleb128 -72
 16166 0b14 06       		.byte	0x6
 16167 0b15 23       		.byte	0x23
 16168 0b16 808002   		.uleb128 0x8000
 16169 0b19 40       		.byte	0x40
 16170 0b1a 25       		.byte	0x25
 16171 0b1b 1E       		.byte	0x1e
 16172 0b1c 9F       		.byte	0x9f
 16173 0b1d 00000000 		.4byte	0
 16174 0b21 00000000 		.4byte	0
 16175              	.LLST193:
 16176 0b25 B4020000 		.4byte	.LVL671
 16177 0b29 C8020000 		.4byte	.LVL674
 16178 0b2d 0100     		.2byte	0x1
 16179 0b2f 53       		.byte	0x53
 16180 0b30 00000000 		.4byte	0
 16181 0b34 00000000 		.4byte	0
 16182              	.LLST194:
 16183 0b38 E4020000 		.4byte	.LVL679
 16184 0b3c E8020000 		.4byte	.LVL680
 16185 0b40 0500     		.2byte	0x5
 16186 0b42 78       		.byte	0x78
 16187 0b43 00       		.sleb128 0
 16188 0b44 40       		.byte	0x40
ARM GAS  /var/folders/3j/4xdnk5197cv_b7cw3n33qk7r0000gn/T//ccLoT9Qc.s 			page 285


 16189 0b45 24       		.byte	0x24
 16190 0b46 9F       		.byte	0x9f
 16191 0b47 E8020000 		.4byte	.LVL680
 16192 0b4b F0020000 		.4byte	.LVL681
 16193 0b4f 0100     		.2byte	0x1
 16194 0b51 52       		.byte	0x52
 16195 0b52 F0020000 		.4byte	.LVL681
 16196 0b56 F4020000 		.4byte	.LVL682
 16197 0b5a 0300     		.2byte	0x3
 16198 0b5c 72       		.byte	0x72
 16199 0b5d 4E       		.sleb128 -50
 16200 0b5e 9F       		.byte	0x9f
 16201 0b5f 00000000 		.4byte	0
 16202 0b63 00000000 		.4byte	0
 16203              	.LLST195:
 16204 0b67 2C000000 		.4byte	.LVL626
 16205 0b6b 48000000 		.4byte	.LVL629
 16206 0b6f 0100     		.2byte	0x1
 16207 0b71 57       		.byte	0x57
 16208 0b72 48000000 		.4byte	.LVL629
 16209 0b76 7C000000 		.4byte	.LVL635
 16210 0b7a 0100     		.2byte	0x1
 16211 0b7c 59       		.byte	0x59
 16212 0b7d 7C000000 		.4byte	.LVL635
 16213 0b81 54010000 		.4byte	.LVL641
 16214 0b85 0800     		.2byte	0x8
 16215 0b87 79       		.byte	0x79
 16216 0b88 8001     		.sleb128 128
 16217 0b8a 0B       		.byte	0xb
 16218 0b8b 00FF     		.2byte	0xff00
 16219 0b8d 1A       		.byte	0x1a
 16220 0b8e 9F       		.byte	0x9f
 16221 0b8f 54010000 		.4byte	.LVL641
 16222 0b93 90010000 		.4byte	.LVL644
 16223 0b97 0700     		.2byte	0x7
 16224 0b99 71       		.byte	0x71
 16225 0b9a 00       		.sleb128 0
 16226 0b9b 0B       		.byte	0xb
 16227 0b9c 00FF     		.2byte	0xff00
 16228 0b9e 1A       		.byte	0x1a
 16229 0b9f 9F       		.byte	0x9f
 16230 0ba0 90010000 		.4byte	.LVL644
 16231 0ba4 38040000 		.4byte	.LVL713
 16232 0ba8 0900     		.2byte	0x9
 16233 0baa 91       		.byte	0x91
 16234 0bab B07F     		.sleb128 -80
 16235 0bad 06       		.byte	0x6
 16236 0bae 0B       		.byte	0xb
 16237 0baf 00FF     		.2byte	0xff00
 16238 0bb1 1A       		.byte	0x1a
 16239 0bb2 9F       		.byte	0x9f
 16240 0bb3 40040000 		.4byte	.LVL714
 16241 0bb7 54040000 		.4byte	.LVL716
 16242 0bbb 0800     		.2byte	0x8
 16243 0bbd 79       		.byte	0x79
 16244 0bbe 8001     		.sleb128 128
 16245 0bc0 0B       		.byte	0xb
ARM GAS  /var/folders/3j/4xdnk5197cv_b7cw3n33qk7r0000gn/T//ccLoT9Qc.s 			page 286


 16246 0bc1 00FF     		.2byte	0xff00
 16247 0bc3 1A       		.byte	0x1a
 16248 0bc4 9F       		.byte	0x9f
 16249 0bc5 5C040000 		.4byte	.LVL717
 16250 0bc9 88040000 		.4byte	.LFE26
 16251 0bcd 0900     		.2byte	0x9
 16252 0bcf 91       		.byte	0x91
 16253 0bd0 B07F     		.sleb128 -80
 16254 0bd2 06       		.byte	0x6
 16255 0bd3 0B       		.byte	0xb
 16256 0bd4 00FF     		.2byte	0xff00
 16257 0bd6 1A       		.byte	0x1a
 16258 0bd7 9F       		.byte	0x9f
 16259 0bd8 00000000 		.4byte	0
 16260 0bdc 00000000 		.4byte	0
 16261              	.LLST196:
 16262 0be0 5C000000 		.4byte	.LVL634
 16263 0be4 7C000000 		.4byte	.LVL635
 16264 0be8 0200     		.2byte	0x2
 16265 0bea 33       		.byte	0x33
 16266 0beb 9F       		.byte	0x9f
 16267 0bec 7C000000 		.4byte	.LVL635
 16268 0bf0 80000000 		.4byte	.LVL636
 16269 0bf4 0100     		.2byte	0x1
 16270 0bf6 53       		.byte	0x53
 16271 0bf7 80000000 		.4byte	.LVL636
 16272 0bfb B4010000 		.4byte	.LVL648
 16273 0bff 0300     		.2byte	0x3
 16274 0c01 91       		.byte	0x91
 16275 0c02 B87F     		.sleb128 -72
 16276 0c04 40040000 		.4byte	.LVL714
 16277 0c08 5C040000 		.4byte	.LVL717
 16278 0c0c 0300     		.2byte	0x3
 16279 0c0e 91       		.byte	0x91
 16280 0c0f B87F     		.sleb128 -72
 16281 0c11 00000000 		.4byte	0
 16282 0c15 00000000 		.4byte	0
 16283              	.LLST197:
 16284 0c19 7C000000 		.4byte	.LVL635
 16285 0c1d 80000000 		.4byte	.LVL636
 16286 0c21 AB00     		.2byte	0xab
 16287 0c23 74       		.byte	0x74
 16288 0c24 E401     		.sleb128 228
 16289 0c26 06       		.byte	0x6
 16290 0c27 0A       		.byte	0xa
 16291 0c28 E803     		.2byte	0x3e8
 16292 0c2a 1E       		.byte	0x1e
 16293 0c2b 74       		.byte	0x74
 16294 0c2c E801     		.sleb128 232
 16295 0c2e 94       		.byte	0x94
 16296 0c2f 01       		.byte	0x1
 16297 0c30 08       		.byte	0x8
 16298 0c31 FF       		.byte	0xff
 16299 0c32 1A       		.byte	0x1a
 16300 0c33 0C       		.byte	0xc
 16301 0c34 002F3A00 		.4byte	0x3a2f00
 16302 0c38 1E       		.byte	0x1e
ARM GAS  /var/folders/3j/4xdnk5197cv_b7cw3n33qk7r0000gn/T//ccLoT9Qc.s 			page 287


 16303 0c39 23       		.byte	0x23
 16304 0c3a F403     		.uleb128 0x1f4
 16305 0c3c F7       		.byte	0xf7
 16306 0c3d 25       		.uleb128 0x25
 16307 0c3e 0A       		.byte	0xa
 16308 0c3f D007     		.2byte	0x7d0
 16309 0c41 F7       		.byte	0xf7
 16310 0c42 25       		.uleb128 0x25
 16311 0c43 1B       		.byte	0x1b
 16312 0c44 F7       		.byte	0xf7
 16313 0c45 00       		.uleb128 0
 16314 0c46 22       		.byte	0x22
 16315 0c47 F7       		.byte	0xf7
 16316 0c48 25       		.uleb128 0x25
 16317 0c49 74       		.byte	0x74
 16318 0c4a E801     		.sleb128 232
 16319 0c4c 94       		.byte	0x94
 16320 0c4d 01       		.byte	0x1
 16321 0c4e 08       		.byte	0x8
 16322 0c4f FF       		.byte	0xff
 16323 0c50 1A       		.byte	0x1a
 16324 0c51 0C       		.byte	0xc
 16325 0c52 002F3A00 		.4byte	0x3a2f00
 16326 0c56 1E       		.byte	0x1e
 16327 0c57 23       		.byte	0x23
 16328 0c58 F403     		.uleb128 0x1f4
 16329 0c5a F7       		.byte	0xf7
 16330 0c5b 25       		.uleb128 0x25
 16331 0c5c 0A       		.byte	0xa
 16332 0c5d E803     		.2byte	0x3e8
 16333 0c5f F7       		.byte	0xf7
 16334 0c60 25       		.uleb128 0x25
 16335 0c61 1B       		.byte	0x1b
 16336 0c62 F7       		.byte	0xf7
 16337 0c63 00       		.uleb128 0
 16338 0c64 F7       		.byte	0xf7
 16339 0c65 25       		.uleb128 0x25
 16340 0c66 1B       		.byte	0x1b
 16341 0c67 F7       		.byte	0xf7
 16342 0c68 00       		.uleb128 0
 16343 0c69 74       		.byte	0x74
 16344 0c6a DC01     		.sleb128 220
 16345 0c6c 06       		.byte	0x6
 16346 0c6d 0A       		.byte	0xa
 16347 0c6e E803     		.2byte	0x3e8
 16348 0c70 1E       		.byte	0x1e
 16349 0c71 76       		.byte	0x76
 16350 0c72 00       		.sleb128 0
 16351 0c73 08       		.byte	0x8
 16352 0c74 FF       		.byte	0xff
 16353 0c75 1A       		.byte	0x1a
 16354 0c76 0C       		.byte	0xc
 16355 0c77 002F3A00 		.4byte	0x3a2f00
 16356 0c7b 1E       		.byte	0x1e
 16357 0c7c 23       		.byte	0x23
 16358 0c7d F403     		.uleb128 0x1f4
 16359 0c7f F7       		.byte	0xf7
ARM GAS  /var/folders/3j/4xdnk5197cv_b7cw3n33qk7r0000gn/T//ccLoT9Qc.s 			page 288


 16360 0c80 25       		.uleb128 0x25
 16361 0c81 0A       		.byte	0xa
 16362 0c82 D007     		.2byte	0x7d0
 16363 0c84 F7       		.byte	0xf7
 16364 0c85 25       		.uleb128 0x25
 16365 0c86 1B       		.byte	0x1b
 16366 0c87 F7       		.byte	0xf7
 16367 0c88 00       		.uleb128 0
 16368 0c89 22       		.byte	0x22
 16369 0c8a F7       		.byte	0xf7
 16370 0c8b 25       		.uleb128 0x25
 16371 0c8c 76       		.byte	0x76
 16372 0c8d 00       		.sleb128 0
 16373 0c8e 08       		.byte	0x8
 16374 0c8f FF       		.byte	0xff
 16375 0c90 1A       		.byte	0x1a
 16376 0c91 0C       		.byte	0xc
 16377 0c92 002F3A00 		.4byte	0x3a2f00
 16378 0c96 1E       		.byte	0x1e
 16379 0c97 23       		.byte	0x23
 16380 0c98 F403     		.uleb128 0x1f4
 16381 0c9a F7       		.byte	0xf7
 16382 0c9b 25       		.uleb128 0x25
 16383 0c9c 0A       		.byte	0xa
 16384 0c9d E803     		.2byte	0x3e8
 16385 0c9f F7       		.byte	0xf7
 16386 0ca0 25       		.uleb128 0x25
 16387 0ca1 1B       		.byte	0x1b
 16388 0ca2 F7       		.byte	0xf7
 16389 0ca3 00       		.uleb128 0
 16390 0ca4 F7       		.byte	0xf7
 16391 0ca5 25       		.uleb128 0x25
 16392 0ca6 1B       		.byte	0x1b
 16393 0ca7 F7       		.byte	0xf7
 16394 0ca8 00       		.uleb128 0
 16395 0ca9 22       		.byte	0x22
 16396 0caa 3B       		.byte	0x3b
 16397 0cab 24       		.byte	0x24
 16398 0cac 73       		.byte	0x73
 16399 0cad 00       		.sleb128 0
 16400 0cae 1E       		.byte	0x1e
 16401 0caf 23       		.byte	0x23
 16402 0cb0 F403     		.uleb128 0x1f4
 16403 0cb2 F7       		.byte	0xf7
 16404 0cb3 25       		.uleb128 0x25
 16405 0cb4 0A       		.byte	0xa
 16406 0cb5 E803     		.2byte	0x3e8
 16407 0cb7 F7       		.byte	0xf7
 16408 0cb8 25       		.uleb128 0x25
 16409 0cb9 1B       		.byte	0x1b
 16410 0cba F7       		.byte	0xf7
 16411 0cbb 00       		.uleb128 0
 16412 0cbc 0A       		.byte	0xa
 16413 0cbd 7706     		.2byte	0x677
 16414 0cbf 1E       		.byte	0x1e
 16415 0cc0 23       		.byte	0x23
 16416 0cc1 F403     		.uleb128 0x1f4
ARM GAS  /var/folders/3j/4xdnk5197cv_b7cw3n33qk7r0000gn/T//ccLoT9Qc.s 			page 289


 16417 0cc3 F7       		.byte	0xf7
 16418 0cc4 25       		.uleb128 0x25
 16419 0cc5 0A       		.byte	0xa
 16420 0cc6 E803     		.2byte	0x3e8
 16421 0cc8 F7       		.byte	0xf7
 16422 0cc9 25       		.uleb128 0x25
 16423 0cca 1B       		.byte	0x1b
 16424 0ccb F7       		.byte	0xf7
 16425 0ccc 00       		.uleb128 0
 16426 0ccd 9F       		.byte	0x9f
 16427 0cce 80000000 		.4byte	.LVL636
 16428 0cd2 BC000000 		.4byte	.LVL637
 16429 0cd6 AD00     		.2byte	0xad
 16430 0cd8 74       		.byte	0x74
 16431 0cd9 E401     		.sleb128 228
 16432 0cdb 06       		.byte	0x6
 16433 0cdc 0A       		.byte	0xa
 16434 0cdd E803     		.2byte	0x3e8
 16435 0cdf 1E       		.byte	0x1e
 16436 0ce0 74       		.byte	0x74
 16437 0ce1 E801     		.sleb128 232
 16438 0ce3 94       		.byte	0x94
 16439 0ce4 01       		.byte	0x1
 16440 0ce5 08       		.byte	0x8
 16441 0ce6 FF       		.byte	0xff
 16442 0ce7 1A       		.byte	0x1a
 16443 0ce8 0C       		.byte	0xc
 16444 0ce9 002F3A00 		.4byte	0x3a2f00
 16445 0ced 1E       		.byte	0x1e
 16446 0cee 23       		.byte	0x23
 16447 0cef F403     		.uleb128 0x1f4
 16448 0cf1 F7       		.byte	0xf7
 16449 0cf2 25       		.uleb128 0x25
 16450 0cf3 0A       		.byte	0xa
 16451 0cf4 D007     		.2byte	0x7d0
 16452 0cf6 F7       		.byte	0xf7
 16453 0cf7 25       		.uleb128 0x25
 16454 0cf8 1B       		.byte	0x1b
 16455 0cf9 F7       		.byte	0xf7
 16456 0cfa 00       		.uleb128 0
 16457 0cfb 22       		.byte	0x22
 16458 0cfc F7       		.byte	0xf7
 16459 0cfd 25       		.uleb128 0x25
 16460 0cfe 74       		.byte	0x74
 16461 0cff E801     		.sleb128 232
 16462 0d01 94       		.byte	0x94
 16463 0d02 01       		.byte	0x1
 16464 0d03 08       		.byte	0x8
 16465 0d04 FF       		.byte	0xff
 16466 0d05 1A       		.byte	0x1a
 16467 0d06 0C       		.byte	0xc
 16468 0d07 002F3A00 		.4byte	0x3a2f00
 16469 0d0b 1E       		.byte	0x1e
 16470 0d0c 23       		.byte	0x23
 16471 0d0d F403     		.uleb128 0x1f4
 16472 0d0f F7       		.byte	0xf7
 16473 0d10 25       		.uleb128 0x25
ARM GAS  /var/folders/3j/4xdnk5197cv_b7cw3n33qk7r0000gn/T//ccLoT9Qc.s 			page 290


 16474 0d11 0A       		.byte	0xa
 16475 0d12 E803     		.2byte	0x3e8
 16476 0d14 F7       		.byte	0xf7
 16477 0d15 25       		.uleb128 0x25
 16478 0d16 1B       		.byte	0x1b
 16479 0d17 F7       		.byte	0xf7
 16480 0d18 00       		.uleb128 0
 16481 0d19 F7       		.byte	0xf7
 16482 0d1a 25       		.uleb128 0x25
 16483 0d1b 1B       		.byte	0x1b
 16484 0d1c F7       		.byte	0xf7
 16485 0d1d 00       		.uleb128 0
 16486 0d1e 74       		.byte	0x74
 16487 0d1f DC01     		.sleb128 220
 16488 0d21 06       		.byte	0x6
 16489 0d22 0A       		.byte	0xa
 16490 0d23 E803     		.2byte	0x3e8
 16491 0d25 1E       		.byte	0x1e
 16492 0d26 76       		.byte	0x76
 16493 0d27 00       		.sleb128 0
 16494 0d28 08       		.byte	0x8
 16495 0d29 FF       		.byte	0xff
 16496 0d2a 1A       		.byte	0x1a
 16497 0d2b 0C       		.byte	0xc
 16498 0d2c 002F3A00 		.4byte	0x3a2f00
 16499 0d30 1E       		.byte	0x1e
 16500 0d31 23       		.byte	0x23
 16501 0d32 F403     		.uleb128 0x1f4
 16502 0d34 F7       		.byte	0xf7
 16503 0d35 25       		.uleb128 0x25
 16504 0d36 0A       		.byte	0xa
 16505 0d37 D007     		.2byte	0x7d0
 16506 0d39 F7       		.byte	0xf7
 16507 0d3a 25       		.uleb128 0x25
 16508 0d3b 1B       		.byte	0x1b
 16509 0d3c F7       		.byte	0xf7
 16510 0d3d 00       		.uleb128 0
 16511 0d3e 22       		.byte	0x22
 16512 0d3f F7       		.byte	0xf7
 16513 0d40 25       		.uleb128 0x25
 16514 0d41 76       		.byte	0x76
 16515 0d42 00       		.sleb128 0
 16516 0d43 08       		.byte	0x8
 16517 0d44 FF       		.byte	0xff
 16518 0d45 1A       		.byte	0x1a
 16519 0d46 0C       		.byte	0xc
 16520 0d47 002F3A00 		.4byte	0x3a2f00
 16521 0d4b 1E       		.byte	0x1e
 16522 0d4c 23       		.byte	0x23
 16523 0d4d F403     		.uleb128 0x1f4
 16524 0d4f F7       		.byte	0xf7
 16525 0d50 25       		.uleb128 0x25
 16526 0d51 0A       		.byte	0xa
 16527 0d52 E803     		.2byte	0x3e8
 16528 0d54 F7       		.byte	0xf7
 16529 0d55 25       		.uleb128 0x25
 16530 0d56 1B       		.byte	0x1b
ARM GAS  /var/folders/3j/4xdnk5197cv_b7cw3n33qk7r0000gn/T//ccLoT9Qc.s 			page 291


 16531 0d57 F7       		.byte	0xf7
 16532 0d58 00       		.uleb128 0
 16533 0d59 F7       		.byte	0xf7
 16534 0d5a 25       		.uleb128 0x25
 16535 0d5b 1B       		.byte	0x1b
 16536 0d5c F7       		.byte	0xf7
 16537 0d5d 00       		.uleb128 0
 16538 0d5e 22       		.byte	0x22
 16539 0d5f 3B       		.byte	0x3b
 16540 0d60 24       		.byte	0x24
 16541 0d61 91       		.byte	0x91
 16542 0d62 B87F     		.sleb128 -72
 16543 0d64 06       		.byte	0x6
 16544 0d65 1E       		.byte	0x1e
 16545 0d66 23       		.byte	0x23
 16546 0d67 F403     		.uleb128 0x1f4
 16547 0d69 F7       		.byte	0xf7
 16548 0d6a 25       		.uleb128 0x25
 16549 0d6b 0A       		.byte	0xa
 16550 0d6c E803     		.2byte	0x3e8
 16551 0d6e F7       		.byte	0xf7
 16552 0d6f 25       		.uleb128 0x25
 16553 0d70 1B       		.byte	0x1b
 16554 0d71 F7       		.byte	0xf7
 16555 0d72 00       		.uleb128 0
 16556 0d73 0A       		.byte	0xa
 16557 0d74 7706     		.2byte	0x677
 16558 0d76 1E       		.byte	0x1e
 16559 0d77 23       		.byte	0x23
 16560 0d78 F403     		.uleb128 0x1f4
 16561 0d7a F7       		.byte	0xf7
 16562 0d7b 25       		.uleb128 0x25
 16563 0d7c 0A       		.byte	0xa
 16564 0d7d E803     		.2byte	0x3e8
 16565 0d7f F7       		.byte	0xf7
 16566 0d80 25       		.uleb128 0x25
 16567 0d81 1B       		.byte	0x1b
 16568 0d82 F7       		.byte	0xf7
 16569 0d83 00       		.uleb128 0
 16570 0d84 9F       		.byte	0x9f
 16571 0d85 BC000000 		.4byte	.LVL637
 16572 0d89 DB000000 		.4byte	.LVL638-1
 16573 0d8d B300     		.2byte	0xb3
 16574 0d8f 74       		.byte	0x74
 16575 0d90 E401     		.sleb128 228
 16576 0d92 06       		.byte	0x6
 16577 0d93 0A       		.byte	0xa
 16578 0d94 E803     		.2byte	0x3e8
 16579 0d96 1E       		.byte	0x1e
 16580 0d97 74       		.byte	0x74
 16581 0d98 E801     		.sleb128 232
 16582 0d9a 94       		.byte	0x94
 16583 0d9b 01       		.byte	0x1
 16584 0d9c 08       		.byte	0x8
 16585 0d9d FF       		.byte	0xff
 16586 0d9e 1A       		.byte	0x1a
 16587 0d9f 0C       		.byte	0xc
ARM GAS  /var/folders/3j/4xdnk5197cv_b7cw3n33qk7r0000gn/T//ccLoT9Qc.s 			page 292


 16588 0da0 002F3A00 		.4byte	0x3a2f00
 16589 0da4 1E       		.byte	0x1e
 16590 0da5 23       		.byte	0x23
 16591 0da6 F403     		.uleb128 0x1f4
 16592 0da8 F7       		.byte	0xf7
 16593 0da9 25       		.uleb128 0x25
 16594 0daa 0A       		.byte	0xa
 16595 0dab D007     		.2byte	0x7d0
 16596 0dad F7       		.byte	0xf7
 16597 0dae 25       		.uleb128 0x25
 16598 0daf 1B       		.byte	0x1b
 16599 0db0 F7       		.byte	0xf7
 16600 0db1 00       		.uleb128 0
 16601 0db2 22       		.byte	0x22
 16602 0db3 F7       		.byte	0xf7
 16603 0db4 25       		.uleb128 0x25
 16604 0db5 74       		.byte	0x74
 16605 0db6 E801     		.sleb128 232
 16606 0db8 94       		.byte	0x94
 16607 0db9 01       		.byte	0x1
 16608 0dba 08       		.byte	0x8
 16609 0dbb FF       		.byte	0xff
 16610 0dbc 1A       		.byte	0x1a
 16611 0dbd 0C       		.byte	0xc
 16612 0dbe 002F3A00 		.4byte	0x3a2f00
 16613 0dc2 1E       		.byte	0x1e
 16614 0dc3 23       		.byte	0x23
 16615 0dc4 F403     		.uleb128 0x1f4
 16616 0dc6 F7       		.byte	0xf7
 16617 0dc7 25       		.uleb128 0x25
 16618 0dc8 0A       		.byte	0xa
 16619 0dc9 E803     		.2byte	0x3e8
 16620 0dcb F7       		.byte	0xf7
 16621 0dcc 25       		.uleb128 0x25
 16622 0dcd 1B       		.byte	0x1b
 16623 0dce F7       		.byte	0xf7
 16624 0dcf 00       		.uleb128 0
 16625 0dd0 F7       		.byte	0xf7
 16626 0dd1 25       		.uleb128 0x25
 16627 0dd2 1B       		.byte	0x1b
 16628 0dd3 F7       		.byte	0xf7
 16629 0dd4 00       		.uleb128 0
 16630 0dd5 74       		.byte	0x74
 16631 0dd6 DC01     		.sleb128 220
 16632 0dd8 06       		.byte	0x6
 16633 0dd9 0A       		.byte	0xa
 16634 0dda E803     		.2byte	0x3e8
 16635 0ddc 1E       		.byte	0x1e
 16636 0ddd 74       		.byte	0x74
 16637 0dde E001     		.sleb128 224
 16638 0de0 94       		.byte	0x94
 16639 0de1 01       		.byte	0x1
 16640 0de2 08       		.byte	0x8
 16641 0de3 FF       		.byte	0xff
 16642 0de4 1A       		.byte	0x1a
 16643 0de5 0C       		.byte	0xc
 16644 0de6 002F3A00 		.4byte	0x3a2f00
ARM GAS  /var/folders/3j/4xdnk5197cv_b7cw3n33qk7r0000gn/T//ccLoT9Qc.s 			page 293


 16645 0dea 1E       		.byte	0x1e
 16646 0deb 23       		.byte	0x23
 16647 0dec F403     		.uleb128 0x1f4
 16648 0dee F7       		.byte	0xf7
 16649 0def 25       		.uleb128 0x25
 16650 0df0 0A       		.byte	0xa
 16651 0df1 D007     		.2byte	0x7d0
 16652 0df3 F7       		.byte	0xf7
 16653 0df4 25       		.uleb128 0x25
 16654 0df5 1B       		.byte	0x1b
 16655 0df6 F7       		.byte	0xf7
 16656 0df7 00       		.uleb128 0
 16657 0df8 22       		.byte	0x22
 16658 0df9 F7       		.byte	0xf7
 16659 0dfa 25       		.uleb128 0x25
 16660 0dfb 74       		.byte	0x74
 16661 0dfc E001     		.sleb128 224
 16662 0dfe 94       		.byte	0x94
 16663 0dff 01       		.byte	0x1
 16664 0e00 08       		.byte	0x8
 16665 0e01 FF       		.byte	0xff
 16666 0e02 1A       		.byte	0x1a
 16667 0e03 0C       		.byte	0xc
 16668 0e04 002F3A00 		.4byte	0x3a2f00
 16669 0e08 1E       		.byte	0x1e
 16670 0e09 23       		.byte	0x23
 16671 0e0a F403     		.uleb128 0x1f4
 16672 0e0c F7       		.byte	0xf7
 16673 0e0d 25       		.uleb128 0x25
 16674 0e0e 0A       		.byte	0xa
 16675 0e0f E803     		.2byte	0x3e8
 16676 0e11 F7       		.byte	0xf7
 16677 0e12 25       		.uleb128 0x25
 16678 0e13 1B       		.byte	0x1b
 16679 0e14 F7       		.byte	0xf7
 16680 0e15 00       		.uleb128 0
 16681 0e16 F7       		.byte	0xf7
 16682 0e17 25       		.uleb128 0x25
 16683 0e18 1B       		.byte	0x1b
 16684 0e19 F7       		.byte	0xf7
 16685 0e1a 00       		.uleb128 0
 16686 0e1b 22       		.byte	0x22
 16687 0e1c 3B       		.byte	0x3b
 16688 0e1d 24       		.byte	0x24
 16689 0e1e 91       		.byte	0x91
 16690 0e1f B87F     		.sleb128 -72
 16691 0e21 06       		.byte	0x6
 16692 0e22 1E       		.byte	0x1e
 16693 0e23 23       		.byte	0x23
 16694 0e24 F403     		.uleb128 0x1f4
 16695 0e26 F7       		.byte	0xf7
 16696 0e27 25       		.uleb128 0x25
 16697 0e28 0A       		.byte	0xa
 16698 0e29 E803     		.2byte	0x3e8
 16699 0e2b F7       		.byte	0xf7
 16700 0e2c 25       		.uleb128 0x25
 16701 0e2d 1B       		.byte	0x1b
ARM GAS  /var/folders/3j/4xdnk5197cv_b7cw3n33qk7r0000gn/T//ccLoT9Qc.s 			page 294


 16702 0e2e F7       		.byte	0xf7
 16703 0e2f 00       		.uleb128 0
 16704 0e30 0A       		.byte	0xa
 16705 0e31 7706     		.2byte	0x677
 16706 0e33 1E       		.byte	0x1e
 16707 0e34 23       		.byte	0x23
 16708 0e35 F403     		.uleb128 0x1f4
 16709 0e37 F7       		.byte	0xf7
 16710 0e38 25       		.uleb128 0x25
 16711 0e39 0A       		.byte	0xa
 16712 0e3a E803     		.2byte	0x3e8
 16713 0e3c F7       		.byte	0xf7
 16714 0e3d 25       		.uleb128 0x25
 16715 0e3e 1B       		.byte	0x1b
 16716 0e3f F7       		.byte	0xf7
 16717 0e40 00       		.uleb128 0
 16718 0e41 9F       		.byte	0x9f
 16719 0e42 40040000 		.4byte	.LVL714
 16720 0e46 48040000 		.4byte	.LVL715
 16721 0e4a AD00     		.2byte	0xad
 16722 0e4c 74       		.byte	0x74
 16723 0e4d E401     		.sleb128 228
 16724 0e4f 06       		.byte	0x6
 16725 0e50 0A       		.byte	0xa
 16726 0e51 E803     		.2byte	0x3e8
 16727 0e53 1E       		.byte	0x1e
 16728 0e54 74       		.byte	0x74
 16729 0e55 E801     		.sleb128 232
 16730 0e57 94       		.byte	0x94
 16731 0e58 01       		.byte	0x1
 16732 0e59 08       		.byte	0x8
 16733 0e5a FF       		.byte	0xff
 16734 0e5b 1A       		.byte	0x1a
 16735 0e5c 0C       		.byte	0xc
 16736 0e5d 002F3A00 		.4byte	0x3a2f00
 16737 0e61 1E       		.byte	0x1e
 16738 0e62 23       		.byte	0x23
 16739 0e63 F403     		.uleb128 0x1f4
 16740 0e65 F7       		.byte	0xf7
 16741 0e66 25       		.uleb128 0x25
 16742 0e67 0A       		.byte	0xa
 16743 0e68 D007     		.2byte	0x7d0
 16744 0e6a F7       		.byte	0xf7
 16745 0e6b 25       		.uleb128 0x25
 16746 0e6c 1B       		.byte	0x1b
 16747 0e6d F7       		.byte	0xf7
 16748 0e6e 00       		.uleb128 0
 16749 0e6f 22       		.byte	0x22
 16750 0e70 F7       		.byte	0xf7
 16751 0e71 25       		.uleb128 0x25
 16752 0e72 74       		.byte	0x74
 16753 0e73 E801     		.sleb128 232
 16754 0e75 94       		.byte	0x94
 16755 0e76 01       		.byte	0x1
 16756 0e77 08       		.byte	0x8
 16757 0e78 FF       		.byte	0xff
 16758 0e79 1A       		.byte	0x1a
ARM GAS  /var/folders/3j/4xdnk5197cv_b7cw3n33qk7r0000gn/T//ccLoT9Qc.s 			page 295


 16759 0e7a 0C       		.byte	0xc
 16760 0e7b 002F3A00 		.4byte	0x3a2f00
 16761 0e7f 1E       		.byte	0x1e
 16762 0e80 23       		.byte	0x23
 16763 0e81 F403     		.uleb128 0x1f4
 16764 0e83 F7       		.byte	0xf7
 16765 0e84 25       		.uleb128 0x25
 16766 0e85 0A       		.byte	0xa
 16767 0e86 E803     		.2byte	0x3e8
 16768 0e88 F7       		.byte	0xf7
 16769 0e89 25       		.uleb128 0x25
 16770 0e8a 1B       		.byte	0x1b
 16771 0e8b F7       		.byte	0xf7
 16772 0e8c 00       		.uleb128 0
 16773 0e8d F7       		.byte	0xf7
 16774 0e8e 25       		.uleb128 0x25
 16775 0e8f 1B       		.byte	0x1b
 16776 0e90 F7       		.byte	0xf7
 16777 0e91 00       		.uleb128 0
 16778 0e92 74       		.byte	0x74
 16779 0e93 DC01     		.sleb128 220
 16780 0e95 06       		.byte	0x6
 16781 0e96 0A       		.byte	0xa
 16782 0e97 E803     		.2byte	0x3e8
 16783 0e99 1E       		.byte	0x1e
 16784 0e9a 76       		.byte	0x76
 16785 0e9b 00       		.sleb128 0
 16786 0e9c 08       		.byte	0x8
 16787 0e9d FF       		.byte	0xff
 16788 0e9e 1A       		.byte	0x1a
 16789 0e9f 0C       		.byte	0xc
 16790 0ea0 002F3A00 		.4byte	0x3a2f00
 16791 0ea4 1E       		.byte	0x1e
 16792 0ea5 23       		.byte	0x23
 16793 0ea6 F403     		.uleb128 0x1f4
 16794 0ea8 F7       		.byte	0xf7
 16795 0ea9 25       		.uleb128 0x25
 16796 0eaa 0A       		.byte	0xa
 16797 0eab D007     		.2byte	0x7d0
 16798 0ead F7       		.byte	0xf7
 16799 0eae 25       		.uleb128 0x25
 16800 0eaf 1B       		.byte	0x1b
 16801 0eb0 F7       		.byte	0xf7
 16802 0eb1 00       		.uleb128 0
 16803 0eb2 22       		.byte	0x22
 16804 0eb3 F7       		.byte	0xf7
 16805 0eb4 25       		.uleb128 0x25
 16806 0eb5 76       		.byte	0x76
 16807 0eb6 00       		.sleb128 0
 16808 0eb7 08       		.byte	0x8
 16809 0eb8 FF       		.byte	0xff
 16810 0eb9 1A       		.byte	0x1a
 16811 0eba 0C       		.byte	0xc
 16812 0ebb 002F3A00 		.4byte	0x3a2f00
 16813 0ebf 1E       		.byte	0x1e
 16814 0ec0 23       		.byte	0x23
 16815 0ec1 F403     		.uleb128 0x1f4
ARM GAS  /var/folders/3j/4xdnk5197cv_b7cw3n33qk7r0000gn/T//ccLoT9Qc.s 			page 296


 16816 0ec3 F7       		.byte	0xf7
 16817 0ec4 25       		.uleb128 0x25
 16818 0ec5 0A       		.byte	0xa
 16819 0ec6 E803     		.2byte	0x3e8
 16820 0ec8 F7       		.byte	0xf7
 16821 0ec9 25       		.uleb128 0x25
 16822 0eca 1B       		.byte	0x1b
 16823 0ecb F7       		.byte	0xf7
 16824 0ecc 00       		.uleb128 0
 16825 0ecd F7       		.byte	0xf7
 16826 0ece 25       		.uleb128 0x25
 16827 0ecf 1B       		.byte	0x1b
 16828 0ed0 F7       		.byte	0xf7
 16829 0ed1 00       		.uleb128 0
 16830 0ed2 22       		.byte	0x22
 16831 0ed3 3B       		.byte	0x3b
 16832 0ed4 24       		.byte	0x24
 16833 0ed5 91       		.byte	0x91
 16834 0ed6 B87F     		.sleb128 -72
 16835 0ed8 06       		.byte	0x6
 16836 0ed9 1E       		.byte	0x1e
 16837 0eda 23       		.byte	0x23
 16838 0edb F403     		.uleb128 0x1f4
 16839 0edd F7       		.byte	0xf7
 16840 0ede 25       		.uleb128 0x25
 16841 0edf 0A       		.byte	0xa
 16842 0ee0 E803     		.2byte	0x3e8
 16843 0ee2 F7       		.byte	0xf7
 16844 0ee3 25       		.uleb128 0x25
 16845 0ee4 1B       		.byte	0x1b
 16846 0ee5 F7       		.byte	0xf7
 16847 0ee6 00       		.uleb128 0
 16848 0ee7 0A       		.byte	0xa
 16849 0ee8 7706     		.2byte	0x677
 16850 0eea 1E       		.byte	0x1e
 16851 0eeb 23       		.byte	0x23
 16852 0eec F403     		.uleb128 0x1f4
 16853 0eee F7       		.byte	0xf7
 16854 0eef 25       		.uleb128 0x25
 16855 0ef0 0A       		.byte	0xa
 16856 0ef1 E803     		.2byte	0x3e8
 16857 0ef3 F7       		.byte	0xf7
 16858 0ef4 25       		.uleb128 0x25
 16859 0ef5 1B       		.byte	0x1b
 16860 0ef6 F7       		.byte	0xf7
 16861 0ef7 00       		.uleb128 0
 16862 0ef8 9F       		.byte	0x9f
 16863 0ef9 00000000 		.4byte	0
 16864 0efd 00000000 		.4byte	0
 16865              	.LLST198:
 16866 0f01 5C000000 		.4byte	.LVL634
 16867 0f05 BC000000 		.4byte	.LVL637
 16868 0f09 0100     		.2byte	0x1
 16869 0f0b 56       		.byte	0x56
 16870 0f0c BC000000 		.4byte	.LVL637
 16871 0f10 DB000000 		.4byte	.LVL638-1
 16872 0f14 0300     		.2byte	0x3
ARM GAS  /var/folders/3j/4xdnk5197cv_b7cw3n33qk7r0000gn/T//ccLoT9Qc.s 			page 297


 16873 0f16 74       		.byte	0x74
 16874 0f17 E001     		.sleb128 224
 16875 0f19 40040000 		.4byte	.LVL714
 16876 0f1d 5C040000 		.4byte	.LVL717
 16877 0f21 0100     		.2byte	0x1
 16878 0f23 56       		.byte	0x56
 16879 0f24 00000000 		.4byte	0
 16880 0f28 00000000 		.4byte	0
 16881              	.LLST199:
 16882 0f2c 5C000000 		.4byte	.LVL634
 16883 0f30 DB000000 		.4byte	.LVL638-1
 16884 0f34 0300     		.2byte	0x3
 16885 0f36 74       		.byte	0x74
 16886 0f37 E801     		.sleb128 232
 16887 0f39 40040000 		.4byte	.LVL714
 16888 0f3d 48040000 		.4byte	.LVL715
 16889 0f41 0300     		.2byte	0x3
 16890 0f43 74       		.byte	0x74
 16891 0f44 E801     		.sleb128 232
 16892 0f46 00000000 		.4byte	0
 16893 0f4a 00000000 		.4byte	0
 16894              	.LLST200:
 16895 0f4e 2C000000 		.4byte	.LVL626
 16896 0f52 4C000000 		.4byte	.LVL630
 16897 0f56 0600     		.2byte	0x6
 16898 0f58 F2       		.byte	0xf2
 16899 0f59 A6140000 		.4byte	.Ldebug_info0+5286
 16900 0f5d 00       		.sleb128 0
 16901 0f5e 00000000 		.4byte	0
 16902 0f62 00000000 		.4byte	0
 16903              	.LLST201:
 16904 0f66 2C000000 		.4byte	.LVL626
 16905 0f6a 2F000000 		.4byte	.LVL627-1
 16906 0f6e 0100     		.2byte	0x1
 16907 0f70 51       		.byte	0x51
 16908 0f71 2F000000 		.4byte	.LVL627-1
 16909 0f75 4C000000 		.4byte	.LVL630
 16910 0f79 0100     		.2byte	0x1
 16911 0f7b 55       		.byte	0x55
 16912 0f7c 00000000 		.4byte	0
 16913 0f80 00000000 		.4byte	0
 16914              	.LLST202:
 16915 0f84 2C000000 		.4byte	.LVL626
 16916 0f88 2F000000 		.4byte	.LVL627-1
 16917 0f8c 0100     		.2byte	0x1
 16918 0f8e 50       		.byte	0x50
 16919 0f8f 2F000000 		.4byte	.LVL627-1
 16920 0f93 4C000000 		.4byte	.LVL630
 16921 0f97 0100     		.2byte	0x1
 16922 0f99 54       		.byte	0x54
 16923 0f9a 00000000 		.4byte	0
 16924 0f9e 00000000 		.4byte	0
 16925              	.LLST203:
 16926 0fa2 C4010000 		.4byte	.LVL650
 16927 0fa6 E0010000 		.4byte	.LVL655
 16928 0faa 0100     		.2byte	0x1
 16929 0fac 59       		.byte	0x59
ARM GAS  /var/folders/3j/4xdnk5197cv_b7cw3n33qk7r0000gn/T//ccLoT9Qc.s 			page 298


 16930 0fad 00000000 		.4byte	0
 16931 0fb1 00000000 		.4byte	0
 16932              	.LLST204:
 16933 0fb5 B4020000 		.4byte	.LVL671
 16934 0fb9 E4020000 		.4byte	.LVL679
 16935 0fbd 0100     		.2byte	0x1
 16936 0fbf 53       		.byte	0x53
 16937 0fc0 00000000 		.4byte	0
 16938 0fc4 00000000 		.4byte	0
 16939              	.LLST205:
 16940 0fc8 50030000 		.4byte	.LVL690
 16941 0fcc A0030000 		.4byte	.LVL700
 16942 0fd0 0100     		.2byte	0x1
 16943 0fd2 50       		.byte	0x50
 16944 0fd3 00000000 		.4byte	0
 16945 0fd7 00000000 		.4byte	0
 16946              	.LLST206:
 16947 0fdb A4030000 		.4byte	.LVL701
 16948 0fdf F8030000 		.4byte	.LVL712
 16949 0fe3 0100     		.2byte	0x1
 16950 0fe5 56       		.byte	0x56
 16951 0fe6 00000000 		.4byte	0
 16952 0fea 00000000 		.4byte	0
 16953              	.LLST155:
 16954 0fee 00000000 		.4byte	.LVL565
 16955 0ff2 0C000000 		.4byte	.LVL567
 16956 0ff6 0100     		.2byte	0x1
 16957 0ff8 50       		.byte	0x50
 16958 0ff9 0C000000 		.4byte	.LVL567
 16959 0ffd C8010000 		.4byte	.LFE25
 16960 1001 0400     		.2byte	0x4
 16961 1003 F3       		.byte	0xf3
 16962 1004 01       		.uleb128 0x1
 16963 1005 50       		.byte	0x50
 16964 1006 9F       		.byte	0x9f
 16965 1007 00000000 		.4byte	0
 16966 100b 00000000 		.4byte	0
 16967              	.LLST156:
 16968 100f 00000000 		.4byte	.LVL565
 16969 1013 3C000000 		.4byte	.LVL573
 16970 1017 0100     		.2byte	0x1
 16971 1019 51       		.byte	0x51
 16972 101a 3C000000 		.4byte	.LVL573
 16973 101e C8010000 		.4byte	.LFE25
 16974 1022 0400     		.2byte	0x4
 16975 1024 F3       		.byte	0xf3
 16976 1025 01       		.uleb128 0x1
 16977 1026 51       		.byte	0x51
 16978 1027 9F       		.byte	0x9f
 16979 1028 00000000 		.4byte	0
 16980 102c 00000000 		.4byte	0
 16981              	.LLST157:
 16982 1030 00000000 		.4byte	.LVL565
 16983 1034 47000000 		.4byte	.LVL576-1
 16984 1038 0100     		.2byte	0x1
 16985 103a 52       		.byte	0x52
 16986 103b 47000000 		.4byte	.LVL576-1
ARM GAS  /var/folders/3j/4xdnk5197cv_b7cw3n33qk7r0000gn/T//ccLoT9Qc.s 			page 299


 16987 103f 54000000 		.4byte	.LVL579
 16988 1043 0100     		.2byte	0x1
 16989 1045 57       		.byte	0x57
 16990 1046 54000000 		.4byte	.LVL579
 16991 104a C8010000 		.4byte	.LFE25
 16992 104e 0400     		.2byte	0x4
 16993 1050 F3       		.byte	0xf3
 16994 1051 01       		.uleb128 0x1
 16995 1052 52       		.byte	0x52
 16996 1053 9F       		.byte	0x9f
 16997 1054 00000000 		.4byte	0
 16998 1058 00000000 		.4byte	0
 16999              	.LLST158:
 17000 105c 00000000 		.4byte	.LVL565
 17001 1060 47000000 		.4byte	.LVL576-1
 17002 1064 0100     		.2byte	0x1
 17003 1066 53       		.byte	0x53
 17004 1067 47000000 		.4byte	.LVL576-1
 17005 106b C8010000 		.4byte	.LFE25
 17006 106f 0100     		.2byte	0x1
 17007 1071 5A       		.byte	0x5a
 17008 1072 00000000 		.4byte	0
 17009 1076 00000000 		.4byte	0
 17010              	.LLST159:
 17011 107a 00000000 		.4byte	.LVL565
 17012 107e A0000000 		.4byte	.LVL584
 17013 1082 0200     		.2byte	0x2
 17014 1084 91       		.byte	0x91
 17015 1085 04       		.sleb128 4
 17016 1086 00000000 		.4byte	0
 17017 108a 00000000 		.4byte	0
 17018              	.LLST160:
 17019 108e 08000000 		.4byte	.LVL566
 17020 1092 47000000 		.4byte	.LVL576-1
 17021 1096 0100     		.2byte	0x1
 17022 1098 5C       		.byte	0x5c
 17023 1099 00000000 		.4byte	0
 17024 109d 00000000 		.4byte	0
 17025              	.LLST161:
 17026 10a1 08000000 		.4byte	.LVL566
 17027 10a5 0C000000 		.4byte	.LVL567
 17028 10a9 0300     		.2byte	0x3
 17029 10ab 70       		.byte	0x70
 17030 10ac D802     		.sleb128 344
 17031 10ae 0C000000 		.4byte	.LVL567
 17032 10b2 40000000 		.4byte	.LVL574
 17033 10b6 0100     		.2byte	0x1
 17034 10b8 50       		.byte	0x50
 17035 10b9 40000000 		.4byte	.LVL574
 17036 10bd 47000000 		.4byte	.LVL576-1
 17037 10c1 0600     		.2byte	0x6
 17038 10c3 F3       		.byte	0xf3
 17039 10c4 01       		.uleb128 0x1
 17040 10c5 50       		.byte	0x50
 17041 10c6 23       		.byte	0x23
 17042 10c7 D802     		.uleb128 0x158
 17043 10c9 00000000 		.4byte	0
ARM GAS  /var/folders/3j/4xdnk5197cv_b7cw3n33qk7r0000gn/T//ccLoT9Qc.s 			page 300


 17044 10cd 00000000 		.4byte	0
 17045              	.LLST162:
 17046 10d1 A8000000 		.4byte	.LVL586
 17047 10d5 AC000000 		.4byte	.LVL587
 17048 10d9 0600     		.2byte	0x6
 17049 10db 73       		.byte	0x73
 17050 10dc 00       		.sleb128 0
 17051 10dd 70       		.byte	0x70
 17052 10de 00       		.sleb128 0
 17053 10df 22       		.byte	0x22
 17054 10e0 9F       		.byte	0x9f
 17055 10e1 AC000000 		.4byte	.LVL587
 17056 10e5 B0000000 		.4byte	.LVL588
 17057 10e9 0600     		.2byte	0x6
 17058 10eb 70       		.byte	0x70
 17059 10ec 00       		.sleb128 0
 17060 10ed 73       		.byte	0x73
 17061 10ee 00       		.sleb128 0
 17062 10ef 22       		.byte	0x22
 17063 10f0 9F       		.byte	0x9f
 17064 10f1 B0000000 		.4byte	.LVL588
 17065 10f5 B7000000 		.4byte	.LVL589-1
 17066 10f9 0100     		.2byte	0x1
 17067 10fb 50       		.byte	0x50
 17068 10fc B8000000 		.4byte	.LVL589
 17069 1100 CC000000 		.4byte	.LVL592
 17070 1104 0100     		.2byte	0x1
 17071 1106 50       		.byte	0x50
 17072 1107 D4000000 		.4byte	.LVL593
 17073 110b D8000000 		.4byte	.LVL594
 17074 110f 0600     		.2byte	0x6
 17075 1111 77       		.byte	0x77
 17076 1112 00       		.sleb128 0
 17077 1113 70       		.byte	0x70
 17078 1114 00       		.sleb128 0
 17079 1115 1E       		.byte	0x1e
 17080 1116 9F       		.byte	0x9f
 17081 1117 D8000000 		.4byte	.LVL594
 17082 111b E0000000 		.4byte	.LVL595
 17083 111f 0100     		.2byte	0x1
 17084 1121 50       		.byte	0x50
 17085 1122 E0000000 		.4byte	.LVL595
 17086 1126 E4000000 		.4byte	.LVL596
 17087 112a 0400     		.2byte	0x4
 17088 112c 70       		.byte	0x70
 17089 112d 8C7C     		.sleb128 -500
 17090 112f 9F       		.byte	0x9f
 17091 1130 E4000000 		.4byte	.LVL596
 17092 1134 E8000000 		.4byte	.LVL597
 17093 1138 0800     		.2byte	0x8
 17094 113a 71       		.byte	0x71
 17095 113b 00       		.sleb128 0
 17096 113c 36       		.byte	0x36
 17097 113d 25       		.byte	0x25
 17098 113e 77       		.byte	0x77
 17099 113f 00       		.sleb128 0
 17100 1140 1E       		.byte	0x1e
ARM GAS  /var/folders/3j/4xdnk5197cv_b7cw3n33qk7r0000gn/T//ccLoT9Qc.s 			page 301


 17101 1141 9F       		.byte	0x9f
 17102 1142 E8000000 		.4byte	.LVL597
 17103 1146 EC000000 		.4byte	.LVL598
 17104 114a 0500     		.2byte	0x5
 17105 114c 71       		.byte	0x71
 17106 114d 00       		.sleb128 0
 17107 114e 34       		.byte	0x34
 17108 114f 24       		.byte	0x24
 17109 1150 9F       		.byte	0x9f
 17110 1151 EC000000 		.4byte	.LVL598
 17111 1155 4F010000 		.4byte	.LVL609-1
 17112 1159 0100     		.2byte	0x1
 17113 115b 51       		.byte	0x51
 17114 115c 00000000 		.4byte	0
 17115 1160 00000000 		.4byte	0
 17116              	.LLST163:
 17117 1164 30000000 		.4byte	.LVL571
 17118 1168 3C000000 		.4byte	.LVL573
 17119 116c 0200     		.2byte	0x2
 17120 116e 30       		.byte	0x30
 17121 116f 9F       		.byte	0x9f
 17122 1170 3C000000 		.4byte	.LVL573
 17123 1174 40000000 		.4byte	.LVL574
 17124 1178 0800     		.2byte	0x8
 17125 117a 72       		.byte	0x72
 17126 117b 00       		.sleb128 0
 17127 117c 31       		.byte	0x31
 17128 117d 25       		.byte	0x25
 17129 117e 71       		.byte	0x71
 17130 117f 00       		.sleb128 0
 17131 1180 22       		.byte	0x22
 17132 1181 9F       		.byte	0x9f
 17133 1182 40000000 		.4byte	.LVL574
 17134 1186 47000000 		.4byte	.LVL576-1
 17135 118a 0100     		.2byte	0x1
 17136 118c 50       		.byte	0x50
 17137 118d 47000000 		.4byte	.LVL576-1
 17138 1191 48000000 		.4byte	.LVL576
 17139 1195 0B00     		.2byte	0xb
 17140 1197 77       		.byte	0x77
 17141 1198 00       		.sleb128 0
 17142 1199 31       		.byte	0x31
 17143 119a 25       		.byte	0x25
 17144 119b F3       		.byte	0xf3
 17145 119c 01       		.uleb128 0x1
 17146 119d 51       		.byte	0x51
 17147 119e 3A       		.byte	0x3a
 17148 119f 24       		.byte	0x24
 17149 11a0 22       		.byte	0x22
 17150 11a1 9F       		.byte	0x9f
 17151 11a2 48000000 		.4byte	.LVL576
 17152 11a6 4C000000 		.4byte	.LVL577
 17153 11aa 0100     		.2byte	0x1
 17154 11ac 50       		.byte	0x50
 17155 11ad 4C000000 		.4byte	.LVL577
 17156 11b1 50000000 		.4byte	.LVL578
 17157 11b5 0600     		.2byte	0x6
ARM GAS  /var/folders/3j/4xdnk5197cv_b7cw3n33qk7r0000gn/T//ccLoT9Qc.s 			page 302


 17158 11b7 70       		.byte	0x70
 17159 11b8 00       		.sleb128 0
 17160 11b9 70       		.byte	0x70
 17161 11ba 00       		.sleb128 0
 17162 11bb 1E       		.byte	0x1e
 17163 11bc 9F       		.byte	0x9f
 17164 11bd 50000000 		.4byte	.LVL578
 17165 11c1 58000000 		.4byte	.LVL580
 17166 11c5 0100     		.2byte	0x1
 17167 11c7 50       		.byte	0x50
 17168 11c8 58000000 		.4byte	.LVL580
 17169 11cc C8010000 		.4byte	.LFE25
 17170 11d0 0100     		.2byte	0x1
 17171 11d2 57       		.byte	0x57
 17172 11d3 00000000 		.4byte	0
 17173 11d7 00000000 		.4byte	0
 17174              	.LLST164:
 17175 11db 58000000 		.4byte	.LVL580
 17176 11df 84000000 		.4byte	.LVL581
 17177 11e3 0600     		.2byte	0x6
 17178 11e5 7A       		.byte	0x7a
 17179 11e6 00       		.sleb128 0
 17180 11e7 74       		.byte	0x74
 17181 11e8 00       		.sleb128 0
 17182 11e9 1E       		.byte	0x1e
 17183 11ea 9F       		.byte	0x9f
 17184 11eb 84000000 		.4byte	.LVL581
 17185 11ef 90000000 		.4byte	.LVL582
 17186 11f3 0100     		.2byte	0x1
 17187 11f5 50       		.byte	0x50
 17188 11f6 90000000 		.4byte	.LVL582
 17189 11fa 98000000 		.4byte	.LVL583
 17190 11fe 0500     		.2byte	0x5
 17191 1200 70       		.byte	0x70
 17192 1201 80807E   		.sleb128 -32768
 17193 1204 9F       		.byte	0x9f
 17194 1205 98000000 		.4byte	.LVL583
 17195 1209 AC000000 		.4byte	.LVL587
 17196 120d 0100     		.2byte	0x1
 17197 120f 50       		.byte	0x50
 17198 1210 AC000000 		.4byte	.LVL587
 17199 1214 14010000 		.4byte	.LVL602
 17200 1218 1800     		.2byte	0x18
 17201 121a 7A       		.byte	0x7a
 17202 121b 00       		.sleb128 0
 17203 121c 74       		.byte	0x74
 17204 121d 00       		.sleb128 0
 17205 121e 1E       		.byte	0x1e
 17206 121f 23       		.byte	0x23
 17207 1220 808002   		.uleb128 0x8000
 17208 1223 40       		.byte	0x40
 17209 1224 25       		.byte	0x25
 17210 1225 7A       		.byte	0x7a
 17211 1226 00       		.sleb128 0
 17212 1227 74       		.byte	0x74
 17213 1228 00       		.sleb128 0
 17214 1229 1E       		.byte	0x1e
ARM GAS  /var/folders/3j/4xdnk5197cv_b7cw3n33qk7r0000gn/T//ccLoT9Qc.s 			page 303


 17215 122a 23       		.byte	0x23
 17216 122b 808002   		.uleb128 0x8000
 17217 122e 40       		.byte	0x40
 17218 122f 25       		.byte	0x25
 17219 1230 1E       		.byte	0x1e
 17220 1231 9F       		.byte	0x9f
 17221 1232 14010000 		.4byte	.LVL602
 17222 1236 C8010000 		.4byte	.LFE25
 17223 123a 1A00     		.2byte	0x1a
 17224 123c 7A       		.byte	0x7a
 17225 123d 00       		.sleb128 0
 17226 123e 91       		.byte	0x91
 17227 123f 78       		.sleb128 -8
 17228 1240 06       		.byte	0x6
 17229 1241 1E       		.byte	0x1e
 17230 1242 23       		.byte	0x23
 17231 1243 808002   		.uleb128 0x8000
 17232 1246 40       		.byte	0x40
 17233 1247 25       		.byte	0x25
 17234 1248 7A       		.byte	0x7a
 17235 1249 00       		.sleb128 0
 17236 124a 91       		.byte	0x91
 17237 124b 78       		.sleb128 -8
 17238 124c 06       		.byte	0x6
 17239 124d 1E       		.byte	0x1e
 17240 124e 23       		.byte	0x23
 17241 124f 808002   		.uleb128 0x8000
 17242 1252 40       		.byte	0x40
 17243 1253 25       		.byte	0x25
 17244 1254 1E       		.byte	0x1e
 17245 1255 9F       		.byte	0x9f
 17246 1256 00000000 		.4byte	0
 17247 125a 00000000 		.4byte	0
 17248              	.LLST165:
 17249 125e A0000000 		.4byte	.LVL584
 17250 1262 B7000000 		.4byte	.LVL589-1
 17251 1266 0100     		.2byte	0x1
 17252 1268 53       		.byte	0x53
 17253 1269 00000000 		.4byte	0
 17254 126d 00000000 		.4byte	0
 17255              	.LLST166:
 17256 1271 08000000 		.4byte	.LVL566
 17257 1275 0C000000 		.4byte	.LVL567
 17258 1279 0800     		.2byte	0x8
 17259 127b 70       		.byte	0x70
 17260 127c D802     		.sleb128 344
 17261 127e 06       		.byte	0x6
 17262 127f 7C       		.byte	0x7c
 17263 1280 00       		.sleb128 0
 17264 1281 1E       		.byte	0x1e
 17265 1282 9F       		.byte	0x9f
 17266 1283 0C000000 		.4byte	.LVL567
 17267 1287 14000000 		.4byte	.LVL568
 17268 128b 0600     		.2byte	0x6
 17269 128d 70       		.byte	0x70
 17270 128e 00       		.sleb128 0
 17271 128f 7C       		.byte	0x7c
ARM GAS  /var/folders/3j/4xdnk5197cv_b7cw3n33qk7r0000gn/T//ccLoT9Qc.s 			page 304


 17272 1290 00       		.sleb128 0
 17273 1291 1E       		.byte	0x1e
 17274 1292 9F       		.byte	0x9f
 17275 1293 14000000 		.4byte	.LVL568
 17276 1297 18000000 		.4byte	.LVL569
 17277 129b 0100     		.2byte	0x1
 17278 129d 56       		.byte	0x56
 17279 129e 18000000 		.4byte	.LVL569
 17280 12a2 1C000000 		.4byte	.LVL570
 17281 12a6 0400     		.2byte	0x4
 17282 12a8 76       		.byte	0x76
 17283 12a9 807F     		.sleb128 -128
 17284 12ab 9F       		.byte	0x9f
 17285 12ac 1C000000 		.4byte	.LVL570
 17286 12b0 C8010000 		.4byte	.LFE25
 17287 12b4 0100     		.2byte	0x1
 17288 12b6 56       		.byte	0x56
 17289 12b7 00000000 		.4byte	0
 17290 12bb 00000000 		.4byte	0
 17291              	.LLST167:
 17292 12bf 58010000 		.4byte	.LVL610
 17293 12c3 5C010000 		.4byte	.LVL611
 17294 12c7 0100     		.2byte	0x1
 17295 12c9 50       		.byte	0x50
 17296 12ca A8010000 		.4byte	.LVL622
 17297 12ce B0010000 		.4byte	.LVL623
 17298 12d2 0100     		.2byte	0x1
 17299 12d4 50       		.byte	0x50
 17300 12d5 00000000 		.4byte	0
 17301 12d9 00000000 		.4byte	0
 17302              	.LLST168:
 17303 12dd 00010000 		.4byte	.LVL600
 17304 12e1 1C010000 		.4byte	.LVL603
 17305 12e5 0100     		.2byte	0x1
 17306 12e7 52       		.byte	0x52
 17307 12e8 1C010000 		.4byte	.LVL603
 17308 12ec C8010000 		.4byte	.LFE25
 17309 12f0 0500     		.2byte	0x5
 17310 12f2 76       		.byte	0x76
 17311 12f3 20       		.sleb128 32
 17312 12f4 36       		.byte	0x36
 17313 12f5 25       		.byte	0x25
 17314 12f6 9F       		.byte	0x9f
 17315 12f7 00000000 		.4byte	0
 17316 12fb 00000000 		.4byte	0
 17317              	.LLST169:
 17318 12ff 38000000 		.4byte	.LVL572
 17319 1303 3C000000 		.4byte	.LVL573
 17320 1307 0500     		.2byte	0x5
 17321 1309 71       		.byte	0x71
 17322 130a 00       		.sleb128 0
 17323 130b 3A       		.byte	0x3a
 17324 130c 24       		.byte	0x24
 17325 130d 9F       		.byte	0x9f
 17326 130e 3C000000 		.4byte	.LVL573
 17327 1312 44000000 		.4byte	.LVL575
 17328 1316 0100     		.2byte	0x1
ARM GAS  /var/folders/3j/4xdnk5197cv_b7cw3n33qk7r0000gn/T//ccLoT9Qc.s 			page 305


 17329 1318 51       		.byte	0x51
 17330 1319 44000000 		.4byte	.LVL575
 17331 131d 58000000 		.4byte	.LVL580
 17332 1321 0600     		.2byte	0x6
 17333 1323 F3       		.byte	0xf3
 17334 1324 01       		.uleb128 0x1
 17335 1325 51       		.byte	0x51
 17336 1326 3A       		.byte	0x3a
 17337 1327 24       		.byte	0x24
 17338 1328 9F       		.byte	0x9f
 17339 1329 00000000 		.4byte	0
 17340 132d 00000000 		.4byte	0
 17341              	.LLST170:
 17342 1331 00010000 		.4byte	.LVL600
 17343 1335 38010000 		.4byte	.LVL608
 17344 1339 0100     		.2byte	0x1
 17345 133b 52       		.byte	0x52
 17346 133c 00000000 		.4byte	0
 17347 1340 00000000 		.4byte	0
 17348              	.LLST171:
 17349 1344 58010000 		.4byte	.LVL610
 17350 1348 5C010000 		.4byte	.LVL611
 17351 134c 0100     		.2byte	0x1
 17352 134e 50       		.byte	0x50
 17353 134f 6C010000 		.4byte	.LVL614
 17354 1353 94010000 		.4byte	.LVL621
 17355 1357 0100     		.2byte	0x1
 17356 1359 51       		.byte	0x51
 17357 135a A8010000 		.4byte	.LVL622
 17358 135e B0010000 		.4byte	.LVL623
 17359 1362 0100     		.2byte	0x1
 17360 1364 50       		.byte	0x50
 17361 1365 B0010000 		.4byte	.LVL623
 17362 1369 C8010000 		.4byte	.LFE25
 17363 136d 0100     		.2byte	0x1
 17364 136f 51       		.byte	0x51
 17365 1370 00000000 		.4byte	0
 17366 1374 00000000 		.4byte	0
 17367              	.LLST132:
 17368 1378 00000000 		.4byte	.LVL525
 17369 137c 28000000 		.4byte	.LVL526
 17370 1380 0100     		.2byte	0x1
 17371 1382 50       		.byte	0x50
 17372 1383 28000000 		.4byte	.LVL526
 17373 1387 6C010000 		.4byte	.LVL550
 17374 138b 0100     		.2byte	0x1
 17375 138d 56       		.byte	0x56
 17376 138e 6C010000 		.4byte	.LVL550
 17377 1392 70010000 		.4byte	.LVL551
 17378 1396 0100     		.2byte	0x1
 17379 1398 50       		.byte	0x50
 17380 1399 70010000 		.4byte	.LVL551
 17381 139d 74010000 		.4byte	.LFE22
 17382 13a1 0400     		.2byte	0x4
 17383 13a3 F3       		.byte	0xf3
 17384 13a4 01       		.uleb128 0x1
 17385 13a5 50       		.byte	0x50
ARM GAS  /var/folders/3j/4xdnk5197cv_b7cw3n33qk7r0000gn/T//ccLoT9Qc.s 			page 306


 17386 13a6 9F       		.byte	0x9f
 17387 13a7 00000000 		.4byte	0
 17388 13ab 00000000 		.4byte	0
 17389              	.LLST133:
 17390 13af 00000000 		.4byte	.LVL525
 17391 13b3 28000000 		.4byte	.LVL526
 17392 13b7 0100     		.2byte	0x1
 17393 13b9 51       		.byte	0x51
 17394 13ba 28000000 		.4byte	.LVL526
 17395 13be 6C010000 		.4byte	.LVL550
 17396 13c2 0100     		.2byte	0x1
 17397 13c4 55       		.byte	0x55
 17398 13c5 6C010000 		.4byte	.LVL550
 17399 13c9 74010000 		.4byte	.LFE22
 17400 13cd 0100     		.2byte	0x1
 17401 13cf 51       		.byte	0x51
 17402 13d0 00000000 		.4byte	0
 17403 13d4 00000000 		.4byte	0
 17404              	.LLST134:
 17405 13d8 00000000 		.4byte	.LVL525
 17406 13dc AC000000 		.4byte	.LVL535
 17407 13e0 0200     		.2byte	0x2
 17408 13e2 30       		.byte	0x30
 17409 13e3 9F       		.byte	0x9f
 17410 13e4 AC000000 		.4byte	.LVL535
 17411 13e8 D0000000 		.4byte	.LVL536
 17412 13ec 0100     		.2byte	0x1
 17413 13ee 50       		.byte	0x50
 17414 13ef D0000000 		.4byte	.LVL536
 17415 13f3 74010000 		.4byte	.LFE22
 17416 13f7 0200     		.2byte	0x2
 17417 13f9 30       		.byte	0x30
 17418 13fa 9F       		.byte	0x9f
 17419 13fb 00000000 		.4byte	0
 17420 13ff 00000000 		.4byte	0
 17421              	.LLST135:
 17422 1403 00000000 		.4byte	.LVL525
 17423 1407 28000000 		.4byte	.LVL526
 17424 140b 0200     		.2byte	0x2
 17425 140d 30       		.byte	0x30
 17426 140e 9F       		.byte	0x9f
 17427 140f 28000000 		.4byte	.LVL526
 17428 1413 30000000 		.4byte	.LVL527
 17429 1417 0100     		.2byte	0x1
 17430 1419 54       		.byte	0x54
 17431 141a 38000000 		.4byte	.LVL528
 17432 141e 44000000 		.4byte	.LVL529
 17433 1422 0100     		.2byte	0x1
 17434 1424 5C       		.byte	0x5c
 17435 1425 50000000 		.4byte	.LVL530
 17436 1429 70000000 		.4byte	.LVL532
 17437 142d 0300     		.2byte	0x3
 17438 142f 7C       		.byte	0x7c
 17439 1430 01       		.sleb128 1
 17440 1431 9F       		.byte	0x9f
 17441 1432 70000000 		.4byte	.LVL532
 17442 1436 8C000000 		.4byte	.LVL534
ARM GAS  /var/folders/3j/4xdnk5197cv_b7cw3n33qk7r0000gn/T//ccLoT9Qc.s 			page 307


 17443 143a 0100     		.2byte	0x1
 17444 143c 5C       		.byte	0x5c
 17445 143d AC000000 		.4byte	.LVL535
 17446 1441 D0000000 		.4byte	.LVL536
 17447 1445 0100     		.2byte	0x1
 17448 1447 54       		.byte	0x54
 17449 1448 D0000000 		.4byte	.LVL536
 17450 144c D4000000 		.4byte	.LVL537
 17451 1450 0300     		.2byte	0x3
 17452 1452 7C       		.byte	0x7c
 17453 1453 01       		.sleb128 1
 17454 1454 9F       		.byte	0x9f
 17455 1455 D4000000 		.4byte	.LVL537
 17456 1459 F0000000 		.4byte	.LVL539
 17457 145d 0300     		.2byte	0x3
 17458 145f 7C       		.byte	0x7c
 17459 1460 03       		.sleb128 3
 17460 1461 9F       		.byte	0x9f
 17461 1462 F8000000 		.4byte	.LVL540
 17462 1466 FC000000 		.4byte	.LVL541
 17463 146a 0300     		.2byte	0x3
 17464 146c 7C       		.byte	0x7c
 17465 146d 01       		.sleb128 1
 17466 146e 9F       		.byte	0x9f
 17467 146f FC000000 		.4byte	.LVL541
 17468 1473 18010000 		.4byte	.LVL543
 17469 1477 0300     		.2byte	0x3
 17470 1479 7C       		.byte	0x7c
 17471 147a 03       		.sleb128 3
 17472 147b 9F       		.byte	0x9f
 17473 147c 24010000 		.4byte	.LVL544
 17474 1480 28010000 		.4byte	.LVL545
 17475 1484 0300     		.2byte	0x3
 17476 1486 7C       		.byte	0x7c
 17477 1487 01       		.sleb128 1
 17478 1488 9F       		.byte	0x9f
 17479 1489 28010000 		.4byte	.LVL545
 17480 148d 48010000 		.4byte	.LVL547
 17481 1491 0300     		.2byte	0x3
 17482 1493 7C       		.byte	0x7c
 17483 1494 03       		.sleb128 3
 17484 1495 9F       		.byte	0x9f
 17485 1496 48010000 		.4byte	.LVL547
 17486 149a 4C010000 		.4byte	.LVL548
 17487 149e 0300     		.2byte	0x3
 17488 14a0 7C       		.byte	0x7c
 17489 14a1 01       		.sleb128 1
 17490 14a2 9F       		.byte	0x9f
 17491 14a3 4C010000 		.4byte	.LVL548
 17492 14a7 6C010000 		.4byte	.LVL550
 17493 14ab 0300     		.2byte	0x3
 17494 14ad 7C       		.byte	0x7c
 17495 14ae 03       		.sleb128 3
 17496 14af 9F       		.byte	0x9f
 17497 14b0 6C010000 		.4byte	.LVL550
 17498 14b4 74010000 		.4byte	.LFE22
 17499 14b8 0200     		.2byte	0x2
ARM GAS  /var/folders/3j/4xdnk5197cv_b7cw3n33qk7r0000gn/T//ccLoT9Qc.s 			page 308


 17500 14ba 30       		.byte	0x30
 17501 14bb 9F       		.byte	0x9f
 17502 14bc 00000000 		.4byte	0
 17503 14c0 00000000 		.4byte	0
 17504              	.LLST136:
 17505 14c4 D4000000 		.4byte	.LVL537
 17506 14c8 E4000000 		.4byte	.LVL538
 17507 14cc 0200     		.2byte	0x2
 17508 14ce 73       		.byte	0x73
 17509 14cf 01       		.sleb128 1
 17510 14d0 E4000000 		.4byte	.LVL538
 17511 14d4 F0000000 		.4byte	.LVL539
 17512 14d8 0100     		.2byte	0x1
 17513 14da 50       		.byte	0x50
 17514 14db FC000000 		.4byte	.LVL541
 17515 14df 0C010000 		.4byte	.LVL542
 17516 14e3 0200     		.2byte	0x2
 17517 14e5 73       		.byte	0x73
 17518 14e6 01       		.sleb128 1
 17519 14e7 0C010000 		.4byte	.LVL542
 17520 14eb 18010000 		.4byte	.LVL543
 17521 14ef 0100     		.2byte	0x1
 17522 14f1 50       		.byte	0x50
 17523 14f2 28010000 		.4byte	.LVL545
 17524 14f6 38010000 		.4byte	.LVL546
 17525 14fa 0200     		.2byte	0x2
 17526 14fc 73       		.byte	0x73
 17527 14fd 01       		.sleb128 1
 17528 14fe 38010000 		.4byte	.LVL546
 17529 1502 48010000 		.4byte	.LVL547
 17530 1506 0100     		.2byte	0x1
 17531 1508 50       		.byte	0x50
 17532 1509 4C010000 		.4byte	.LVL548
 17533 150d 5C010000 		.4byte	.LVL549
 17534 1511 0200     		.2byte	0x2
 17535 1513 73       		.byte	0x73
 17536 1514 01       		.sleb128 1
 17537 1515 5C010000 		.4byte	.LVL549
 17538 1519 6C010000 		.4byte	.LVL550
 17539 151d 0100     		.2byte	0x1
 17540 151f 50       		.byte	0x50
 17541 1520 00000000 		.4byte	0
 17542 1524 00000000 		.4byte	0
 17543              	.LLST137:
 17544 1528 D4000000 		.4byte	.LVL537
 17545 152c E4000000 		.4byte	.LVL538
 17546 1530 0200     		.2byte	0x2
 17547 1532 73       		.byte	0x73
 17548 1533 02       		.sleb128 2
 17549 1534 FC000000 		.4byte	.LVL541
 17550 1538 0C010000 		.4byte	.LVL542
 17551 153c 0200     		.2byte	0x2
 17552 153e 73       		.byte	0x73
 17553 153f 02       		.sleb128 2
 17554 1540 28010000 		.4byte	.LVL545
 17555 1544 38010000 		.4byte	.LVL546
 17556 1548 0200     		.2byte	0x2
ARM GAS  /var/folders/3j/4xdnk5197cv_b7cw3n33qk7r0000gn/T//ccLoT9Qc.s 			page 309


 17557 154a 73       		.byte	0x73
 17558 154b 02       		.sleb128 2
 17559 154c 4C010000 		.4byte	.LVL548
 17560 1550 5C010000 		.4byte	.LVL549
 17561 1554 0200     		.2byte	0x2
 17562 1556 73       		.byte	0x73
 17563 1557 02       		.sleb128 2
 17564 1558 00000000 		.4byte	0
 17565 155c 00000000 		.4byte	0
 17566              	.LLST138:
 17567 1560 50000000 		.4byte	.LVL530
 17568 1564 70000000 		.4byte	.LVL532
 17569 1568 0500     		.2byte	0x5
 17570 156a 75       		.byte	0x75
 17571 156b 00       		.sleb128 0
 17572 156c 7C       		.byte	0x7c
 17573 156d 00       		.sleb128 0
 17574 156e 22       		.byte	0x22
 17575 156f D0000000 		.4byte	.LVL536
 17576 1573 E4000000 		.4byte	.LVL538
 17577 1577 0500     		.2byte	0x5
 17578 1579 75       		.byte	0x75
 17579 157a 00       		.sleb128 0
 17580 157b 7C       		.byte	0x7c
 17581 157c 00       		.sleb128 0
 17582 157d 22       		.byte	0x22
 17583 157e F8000000 		.4byte	.LVL540
 17584 1582 0C010000 		.4byte	.LVL542
 17585 1586 0500     		.2byte	0x5
 17586 1588 75       		.byte	0x75
 17587 1589 00       		.sleb128 0
 17588 158a 7C       		.byte	0x7c
 17589 158b 00       		.sleb128 0
 17590 158c 22       		.byte	0x22
 17591 158d 24010000 		.4byte	.LVL544
 17592 1591 38010000 		.4byte	.LVL546
 17593 1595 0500     		.2byte	0x5
 17594 1597 75       		.byte	0x75
 17595 1598 00       		.sleb128 0
 17596 1599 7C       		.byte	0x7c
 17597 159a 00       		.sleb128 0
 17598 159b 22       		.byte	0x22
 17599 159c 48010000 		.4byte	.LVL547
 17600 15a0 5C010000 		.4byte	.LVL549
 17601 15a4 0500     		.2byte	0x5
 17602 15a6 75       		.byte	0x75
 17603 15a7 00       		.sleb128 0
 17604 15a8 7C       		.byte	0x7c
 17605 15a9 00       		.sleb128 0
 17606 15aa 22       		.byte	0x22
 17607 15ab 00000000 		.4byte	0
 17608 15af 00000000 		.4byte	0
 17609              	.LLST139:
 17610 15b3 38000000 		.4byte	.LVL528
 17611 15b7 44000000 		.4byte	.LVL529
 17612 15bb 0100     		.2byte	0x1
 17613 15bd 53       		.byte	0x53
ARM GAS  /var/folders/3j/4xdnk5197cv_b7cw3n33qk7r0000gn/T//ccLoT9Qc.s 			page 310


 17614 15be 50000000 		.4byte	.LVL530
 17615 15c2 54000000 		.4byte	.LVL531
 17616 15c6 0100     		.2byte	0x1
 17617 15c8 53       		.byte	0x53
 17618 15c9 70000000 		.4byte	.LVL532
 17619 15cd AB000000 		.4byte	.LVL535-1
 17620 15d1 0100     		.2byte	0x1
 17621 15d3 53       		.byte	0x53
 17622 15d4 00000000 		.4byte	0
 17623 15d8 00000000 		.4byte	0
 17624              	.LLST140:
 17625 15dc 84000000 		.4byte	.LVL533
 17626 15e0 AB000000 		.4byte	.LVL535-1
 17627 15e4 0100     		.2byte	0x1
 17628 15e6 51       		.byte	0x51
 17629 15e7 00000000 		.4byte	0
 17630 15eb 00000000 		.4byte	0
 17631              	.LLST141:
 17632 15ef D4000000 		.4byte	.LVL537
 17633 15f3 E4000000 		.4byte	.LVL538
 17634 15f7 1200     		.2byte	0x12
 17635 15f9 73       		.byte	0x73
 17636 15fa 01       		.sleb128 1
 17637 15fb 94       		.byte	0x94
 17638 15fc 01       		.byte	0x1
 17639 15fd 08       		.byte	0x8
 17640 15fe FF       		.byte	0xff
 17641 15ff 1A       		.byte	0x1a
 17642 1600 38       		.byte	0x38
 17643 1601 24       		.byte	0x24
 17644 1602 73       		.byte	0x73
 17645 1603 02       		.sleb128 2
 17646 1604 94       		.byte	0x94
 17647 1605 01       		.byte	0x1
 17648 1606 08       		.byte	0x8
 17649 1607 FF       		.byte	0xff
 17650 1608 1A       		.byte	0x1a
 17651 1609 22       		.byte	0x22
 17652 160a 9F       		.byte	0x9f
 17653 160b FC000000 		.4byte	.LVL541
 17654 160f 0C010000 		.4byte	.LVL542
 17655 1613 1200     		.2byte	0x12
 17656 1615 73       		.byte	0x73
 17657 1616 01       		.sleb128 1
 17658 1617 94       		.byte	0x94
 17659 1618 01       		.byte	0x1
 17660 1619 08       		.byte	0x8
 17661 161a FF       		.byte	0xff
 17662 161b 1A       		.byte	0x1a
 17663 161c 38       		.byte	0x38
 17664 161d 24       		.byte	0x24
 17665 161e 73       		.byte	0x73
 17666 161f 02       		.sleb128 2
 17667 1620 94       		.byte	0x94
 17668 1621 01       		.byte	0x1
 17669 1622 08       		.byte	0x8
 17670 1623 FF       		.byte	0xff
ARM GAS  /var/folders/3j/4xdnk5197cv_b7cw3n33qk7r0000gn/T//ccLoT9Qc.s 			page 311


 17671 1624 1A       		.byte	0x1a
 17672 1625 22       		.byte	0x22
 17673 1626 9F       		.byte	0x9f
 17674 1627 28010000 		.4byte	.LVL545
 17675 162b 38010000 		.4byte	.LVL546
 17676 162f 1200     		.2byte	0x12
 17677 1631 73       		.byte	0x73
 17678 1632 01       		.sleb128 1
 17679 1633 94       		.byte	0x94
 17680 1634 01       		.byte	0x1
 17681 1635 08       		.byte	0x8
 17682 1636 FF       		.byte	0xff
 17683 1637 1A       		.byte	0x1a
 17684 1638 38       		.byte	0x38
 17685 1639 24       		.byte	0x24
 17686 163a 73       		.byte	0x73
 17687 163b 02       		.sleb128 2
 17688 163c 94       		.byte	0x94
 17689 163d 01       		.byte	0x1
 17690 163e 08       		.byte	0x8
 17691 163f FF       		.byte	0xff
 17692 1640 1A       		.byte	0x1a
 17693 1641 22       		.byte	0x22
 17694 1642 9F       		.byte	0x9f
 17695 1643 4C010000 		.4byte	.LVL548
 17696 1647 5C010000 		.4byte	.LVL549
 17697 164b 1200     		.2byte	0x12
 17698 164d 73       		.byte	0x73
 17699 164e 01       		.sleb128 1
 17700 164f 94       		.byte	0x94
 17701 1650 01       		.byte	0x1
 17702 1651 08       		.byte	0x8
 17703 1652 FF       		.byte	0xff
 17704 1653 1A       		.byte	0x1a
 17705 1654 38       		.byte	0x38
 17706 1655 24       		.byte	0x24
 17707 1656 73       		.byte	0x73
 17708 1657 02       		.sleb128 2
 17709 1658 94       		.byte	0x94
 17710 1659 01       		.byte	0x1
 17711 165a 08       		.byte	0x8
 17712 165b FF       		.byte	0xff
 17713 165c 1A       		.byte	0x1a
 17714 165d 22       		.byte	0x22
 17715 165e 9F       		.byte	0x9f
 17716 165f 00000000 		.4byte	0
 17717 1663 00000000 		.4byte	0
 17718              	.LLST129:
 17719 1667 00000000 		.4byte	.LVL509
 17720 166b 2B000000 		.4byte	.LVL511-1
 17721 166f 0100     		.2byte	0x1
 17722 1671 50       		.byte	0x50
 17723 1672 2B000000 		.4byte	.LVL511-1
 17724 1676 7C010000 		.4byte	.LFE21
 17725 167a 0100     		.2byte	0x1
 17726 167c 56       		.byte	0x56
 17727 167d 00000000 		.4byte	0
ARM GAS  /var/folders/3j/4xdnk5197cv_b7cw3n33qk7r0000gn/T//ccLoT9Qc.s 			page 312


 17728 1681 00000000 		.4byte	0
 17729              	.LLST130:
 17730 1685 00000000 		.4byte	.LVL509
 17731 1689 20000000 		.4byte	.LVL510
 17732 168d 0100     		.2byte	0x1
 17733 168f 51       		.byte	0x51
 17734 1690 20000000 		.4byte	.LVL510
 17735 1694 7C010000 		.4byte	.LFE21
 17736 1698 0100     		.2byte	0x1
 17737 169a 54       		.byte	0x54
 17738 169b 00000000 		.4byte	0
 17739 169f 00000000 		.4byte	0
 17740              	.LLST131:
 17741 16a3 00000000 		.4byte	.LVL509
 17742 16a7 2C000000 		.4byte	.LVL511
 17743 16ab 0200     		.2byte	0x2
 17744 16ad 30       		.byte	0x30
 17745 16ae 9F       		.byte	0x9f
 17746 16af 2C000000 		.4byte	.LVL511
 17747 16b3 58000000 		.4byte	.LVL512
 17748 16b7 0100     		.2byte	0x1
 17749 16b9 50       		.byte	0x50
 17750 16ba 74000000 		.4byte	.LVL513
 17751 16be 88000000 		.4byte	.LVL514
 17752 16c2 0100     		.2byte	0x1
 17753 16c4 50       		.byte	0x50
 17754 16c5 B0000000 		.4byte	.LVL515
 17755 16c9 BC000000 		.4byte	.LVL516
 17756 16cd 0100     		.2byte	0x1
 17757 16cf 50       		.byte	0x50
 17758 16d0 C0000000 		.4byte	.LVL517
 17759 16d4 C4000000 		.4byte	.LVL518
 17760 16d8 0100     		.2byte	0x1
 17761 16da 50       		.byte	0x50
 17762 16db 18010000 		.4byte	.LVL519
 17763 16df 1C010000 		.4byte	.LVL520
 17764 16e3 0200     		.2byte	0x2
 17765 16e5 30       		.byte	0x30
 17766 16e6 9F       		.byte	0x9f
 17767 16e7 2C010000 		.4byte	.LVL521
 17768 16eb 44010000 		.4byte	.LVL522
 17769 16ef 0100     		.2byte	0x1
 17770 16f1 50       		.byte	0x50
 17771 16f2 74010000 		.4byte	.LVL524
 17772 16f6 7C010000 		.4byte	.LFE21
 17773 16fa 0200     		.2byte	0x2
 17774 16fc 30       		.byte	0x30
 17775 16fd 9F       		.byte	0x9f
 17776 16fe 00000000 		.4byte	0
 17777 1702 00000000 		.4byte	0
 17778              	.LLST121:
 17779 1706 00000000 		.4byte	.LVL479
 17780 170a 33000000 		.4byte	.LVL484-1
 17781 170e 0100     		.2byte	0x1
 17782 1710 50       		.byte	0x50
 17783 1711 33000000 		.4byte	.LVL484-1
 17784 1715 9C000000 		.4byte	.LVL489
ARM GAS  /var/folders/3j/4xdnk5197cv_b7cw3n33qk7r0000gn/T//ccLoT9Qc.s 			page 313


 17785 1719 0100     		.2byte	0x1
 17786 171b 57       		.byte	0x57
 17787 171c 9C000000 		.4byte	.LVL489
 17788 1720 A8000000 		.4byte	.LVL490
 17789 1724 0400     		.2byte	0x4
 17790 1726 F3       		.byte	0xf3
 17791 1727 01       		.uleb128 0x1
 17792 1728 50       		.byte	0x50
 17793 1729 9F       		.byte	0x9f
 17794 172a A8000000 		.4byte	.LVL490
 17795 172e 6C010000 		.4byte	.LVL506
 17796 1732 0100     		.2byte	0x1
 17797 1734 57       		.byte	0x57
 17798 1735 6C010000 		.4byte	.LVL506
 17799 1739 74010000 		.4byte	.LVL507
 17800 173d 0400     		.2byte	0x4
 17801 173f F3       		.byte	0xf3
 17802 1740 01       		.uleb128 0x1
 17803 1741 50       		.byte	0x50
 17804 1742 9F       		.byte	0x9f
 17805 1743 74010000 		.4byte	.LVL507
 17806 1747 80010000 		.4byte	.LFE20
 17807 174b 0100     		.2byte	0x1
 17808 174d 57       		.byte	0x57
 17809 174e 00000000 		.4byte	0
 17810 1752 00000000 		.4byte	0
 17811              	.LLST122:
 17812 1756 00000000 		.4byte	.LVL479
 17813 175a 2C000000 		.4byte	.LVL483
 17814 175e 0100     		.2byte	0x1
 17815 1760 51       		.byte	0x51
 17816 1761 2C000000 		.4byte	.LVL483
 17817 1765 9C000000 		.4byte	.LVL489
 17818 1769 0100     		.2byte	0x1
 17819 176b 54       		.byte	0x54
 17820 176c 9C000000 		.4byte	.LVL489
 17821 1770 A8000000 		.4byte	.LVL490
 17822 1774 0400     		.2byte	0x4
 17823 1776 F3       		.byte	0xf3
 17824 1777 01       		.uleb128 0x1
 17825 1778 51       		.byte	0x51
 17826 1779 9F       		.byte	0x9f
 17827 177a A8000000 		.4byte	.LVL490
 17828 177e 6C010000 		.4byte	.LVL506
 17829 1782 0100     		.2byte	0x1
 17830 1784 54       		.byte	0x54
 17831 1785 6C010000 		.4byte	.LVL506
 17832 1789 74010000 		.4byte	.LVL507
 17833 178d 0400     		.2byte	0x4
 17834 178f F3       		.byte	0xf3
 17835 1790 01       		.uleb128 0x1
 17836 1791 51       		.byte	0x51
 17837 1792 9F       		.byte	0x9f
 17838 1793 74010000 		.4byte	.LVL507
 17839 1797 80010000 		.4byte	.LFE20
 17840 179b 0100     		.2byte	0x1
 17841 179d 54       		.byte	0x54
ARM GAS  /var/folders/3j/4xdnk5197cv_b7cw3n33qk7r0000gn/T//ccLoT9Qc.s 			page 314


 17842 179e 00000000 		.4byte	0
 17843 17a2 00000000 		.4byte	0
 17844              	.LLST123:
 17845 17a6 00000000 		.4byte	.LVL479
 17846 17aa 34000000 		.4byte	.LVL484
 17847 17ae 0200     		.2byte	0x2
 17848 17b0 30       		.byte	0x30
 17849 17b1 9F       		.byte	0x9f
 17850 17b2 34000000 		.4byte	.LVL484
 17851 17b6 68000000 		.4byte	.LVL485
 17852 17ba 0100     		.2byte	0x1
 17853 17bc 50       		.byte	0x50
 17854 17bd A8000000 		.4byte	.LVL490
 17855 17c1 B4000000 		.4byte	.LVL491
 17856 17c5 0100     		.2byte	0x1
 17857 17c7 50       		.byte	0x50
 17858 17c8 B8000000 		.4byte	.LVL492
 17859 17cc BC000000 		.4byte	.LVL493
 17860 17d0 0100     		.2byte	0x1
 17861 17d2 50       		.byte	0x50
 17862 17d3 E4000000 		.4byte	.LVL495
 17863 17d7 1C010000 		.4byte	.LVL499
 17864 17db 0200     		.2byte	0x2
 17865 17dd 30       		.byte	0x30
 17866 17de 9F       		.byte	0x9f
 17867 17df 2C010000 		.4byte	.LVL500
 17868 17e3 44010000 		.4byte	.LVL503
 17869 17e7 0100     		.2byte	0x1
 17870 17e9 50       		.byte	0x50
 17871 17ea 54010000 		.4byte	.LVL504
 17872 17ee 6C010000 		.4byte	.LVL506
 17873 17f2 0200     		.2byte	0x2
 17874 17f4 30       		.byte	0x30
 17875 17f5 9F       		.byte	0x9f
 17876 17f6 74010000 		.4byte	.LVL507
 17877 17fa 80010000 		.4byte	.LFE20
 17878 17fe 0100     		.2byte	0x1
 17879 1800 50       		.byte	0x50
 17880 1801 00000000 		.4byte	0
 17881 1805 00000000 		.4byte	0
 17882              	.LLST124:
 17883 1809 28000000 		.4byte	.LVL482
 17884 180d 2C000000 		.4byte	.LVL483
 17885 1811 0400     		.2byte	0x4
 17886 1813 71       		.byte	0x71
 17887 1814 CA69     		.sleb128 -2870
 17888 1816 9F       		.byte	0x9f
 17889 1817 2C000000 		.4byte	.LVL483
 17890 181b 68000000 		.4byte	.LVL485
 17891 181f 0400     		.2byte	0x4
 17892 1821 74       		.byte	0x74
 17893 1822 CA69     		.sleb128 -2870
 17894 1824 9F       		.byte	0x9f
 17895 1825 80000000 		.4byte	.LVL486
 17896 1829 9C000000 		.4byte	.LVL489
 17897 182d 0400     		.2byte	0x4
 17898 182f 75       		.byte	0x75
ARM GAS  /var/folders/3j/4xdnk5197cv_b7cw3n33qk7r0000gn/T//ccLoT9Qc.s 			page 315


 17899 1830 DA7B     		.sleb128 -550
 17900 1832 9F       		.byte	0x9f
 17901 1833 A8000000 		.4byte	.LVL490
 17902 1837 E4000000 		.4byte	.LVL495
 17903 183b 0400     		.2byte	0x4
 17904 183d 74       		.byte	0x74
 17905 183e CA69     		.sleb128 -2870
 17906 1840 9F       		.byte	0x9f
 17907 1841 E4000000 		.4byte	.LVL495
 17908 1845 1C010000 		.4byte	.LVL499
 17909 1849 0100     		.2byte	0x1
 17910 184b 55       		.byte	0x55
 17911 184c 3C010000 		.4byte	.LVL502
 17912 1850 44010000 		.4byte	.LVL503
 17913 1854 0600     		.2byte	0x6
 17914 1856 75       		.byte	0x75
 17915 1857 00       		.sleb128 0
 17916 1858 73       		.byte	0x73
 17917 1859 00       		.sleb128 0
 17918 185a 1C       		.byte	0x1c
 17919 185b 9F       		.byte	0x9f
 17920 185c 54010000 		.4byte	.LVL504
 17921 1860 6C010000 		.4byte	.LVL506
 17922 1864 0100     		.2byte	0x1
 17923 1866 55       		.byte	0x55
 17924 1867 74010000 		.4byte	.LVL507
 17925 186b 78010000 		.4byte	.LVL508
 17926 186f 0600     		.2byte	0x6
 17927 1871 75       		.byte	0x75
 17928 1872 00       		.sleb128 0
 17929 1873 73       		.byte	0x73
 17930 1874 00       		.sleb128 0
 17931 1875 1C       		.byte	0x1c
 17932 1876 9F       		.byte	0x9f
 17933 1877 00000000 		.4byte	0
 17934 187b 00000000 		.4byte	0
 17935              	.LLST125:
 17936 187f 20000000 		.4byte	.LVL481
 17937 1883 68000000 		.4byte	.LVL485
 17938 1887 0200     		.2byte	0x2
 17939 1889 30       		.byte	0x30
 17940 188a 9F       		.byte	0x9f
 17941 188b A8000000 		.4byte	.LVL490
 17942 188f D8000000 		.4byte	.LVL494
 17943 1893 0200     		.2byte	0x2
 17944 1895 30       		.byte	0x30
 17945 1896 9F       		.byte	0x9f
 17946 1897 D8000000 		.4byte	.LVL494
 17947 189b E4000000 		.4byte	.LVL495
 17948 189f 0100     		.2byte	0x1
 17949 18a1 53       		.byte	0x53
 17950 18a2 04010000 		.4byte	.LVL496
 17951 18a6 14010000 		.4byte	.LVL498
 17952 18aa 0100     		.2byte	0x1
 17953 18ac 53       		.byte	0x53
 17954 18ad 34010000 		.4byte	.LVL501
 17955 18b1 44010000 		.4byte	.LVL503
ARM GAS  /var/folders/3j/4xdnk5197cv_b7cw3n33qk7r0000gn/T//ccLoT9Qc.s 			page 316


 17956 18b5 0100     		.2byte	0x1
 17957 18b7 53       		.byte	0x53
 17958 18b8 64010000 		.4byte	.LVL505
 17959 18bc 6C010000 		.4byte	.LVL506
 17960 18c0 0100     		.2byte	0x1
 17961 18c2 53       		.byte	0x53
 17962 18c3 74010000 		.4byte	.LVL507
 17963 18c7 80010000 		.4byte	.LFE20
 17964 18cb 0100     		.2byte	0x1
 17965 18cd 53       		.byte	0x53
 17966 18ce 00000000 		.4byte	0
 17967 18d2 00000000 		.4byte	0
 17968              	.LLST126:
 17969 18d6 80000000 		.4byte	.LVL486
 17970 18da 98000000 		.4byte	.LVL488
 17971 18de 0400     		.2byte	0x4
 17972 18e0 75       		.byte	0x75
 17973 18e1 DA7B     		.sleb128 -550
 17974 18e3 9F       		.byte	0x9f
 17975 18e4 00000000 		.4byte	0
 17976 18e8 00000000 		.4byte	0
 17977              	.LLST127:
 17978 18ec 80000000 		.4byte	.LVL486
 17979 18f0 98000000 		.4byte	.LVL488
 17980 18f4 0200     		.2byte	0x2
 17981 18f6 34       		.byte	0x34
 17982 18f7 9F       		.byte	0x9f
 17983 18f8 00000000 		.4byte	0
 17984 18fc 00000000 		.4byte	0
 17985              	.LLST128:
 17986 1900 80000000 		.4byte	.LVL486
 17987 1904 98000000 		.4byte	.LVL488
 17988 1908 0100     		.2byte	0x1
 17989 190a 57       		.byte	0x57
 17990 190b 00000000 		.4byte	0
 17991 190f 00000000 		.4byte	0
 17992              	.LLST117:
 17993 1913 00000000 		.4byte	.LVL470
 17994 1917 27000000 		.4byte	.LVL473-1
 17995 191b 0100     		.2byte	0x1
 17996 191d 50       		.byte	0x50
 17997 191e 27000000 		.4byte	.LVL473-1
 17998 1922 48000000 		.4byte	.LVL474
 17999 1926 0400     		.2byte	0x4
 18000 1928 F3       		.byte	0xf3
 18001 1929 01       		.uleb128 0x1
 18002 192a 50       		.byte	0x50
 18003 192b 9F       		.byte	0x9f
 18004 192c 48000000 		.4byte	.LVL474
 18005 1930 4C000000 		.4byte	.LVL475
 18006 1934 0100     		.2byte	0x1
 18007 1936 50       		.byte	0x50
 18008 1937 4C000000 		.4byte	.LVL475
 18009 193b 54000000 		.4byte	.LVL476
 18010 193f 0400     		.2byte	0x4
 18011 1941 F3       		.byte	0xf3
 18012 1942 01       		.uleb128 0x1
ARM GAS  /var/folders/3j/4xdnk5197cv_b7cw3n33qk7r0000gn/T//ccLoT9Qc.s 			page 317


 18013 1943 50       		.byte	0x50
 18014 1944 9F       		.byte	0x9f
 18015 1945 54000000 		.4byte	.LVL476
 18016 1949 5F000000 		.4byte	.LVL478-1
 18017 194d 0100     		.2byte	0x1
 18018 194f 50       		.byte	0x50
 18019 1950 5F000000 		.4byte	.LVL478-1
 18020 1954 64000000 		.4byte	.LFE19
 18021 1958 0400     		.2byte	0x4
 18022 195a F3       		.byte	0xf3
 18023 195b 01       		.uleb128 0x1
 18024 195c 50       		.byte	0x50
 18025 195d 9F       		.byte	0x9f
 18026 195e 00000000 		.4byte	0
 18027 1962 00000000 		.4byte	0
 18028              	.LLST118:
 18029 1966 00000000 		.4byte	.LVL470
 18030 196a 08000000 		.4byte	.LVL471
 18031 196e 0100     		.2byte	0x1
 18032 1970 51       		.byte	0x51
 18033 1971 08000000 		.4byte	.LVL471
 18034 1975 64000000 		.4byte	.LFE19
 18035 1979 0400     		.2byte	0x4
 18036 197b F3       		.byte	0xf3
 18037 197c 01       		.uleb128 0x1
 18038 197d 51       		.byte	0x51
 18039 197e 9F       		.byte	0x9f
 18040 197f 00000000 		.4byte	0
 18041 1983 00000000 		.4byte	0
 18042              	.LLST119:
 18043 1987 00000000 		.4byte	.LVL470
 18044 198b 20000000 		.4byte	.LVL472
 18045 198f 0100     		.2byte	0x1
 18046 1991 52       		.byte	0x52
 18047 1992 20000000 		.4byte	.LVL472
 18048 1996 48000000 		.4byte	.LVL474
 18049 199a 0100     		.2byte	0x1
 18050 199c 54       		.byte	0x54
 18051 199d 48000000 		.4byte	.LVL474
 18052 19a1 4C000000 		.4byte	.LVL475
 18053 19a5 0100     		.2byte	0x1
 18054 19a7 52       		.byte	0x52
 18055 19a8 4C000000 		.4byte	.LVL475
 18056 19ac 54000000 		.4byte	.LVL476
 18057 19b0 0100     		.2byte	0x1
 18058 19b2 54       		.byte	0x54
 18059 19b3 54000000 		.4byte	.LVL476
 18060 19b7 58000000 		.4byte	.LVL477
 18061 19bb 0100     		.2byte	0x1
 18062 19bd 52       		.byte	0x52
 18063 19be 58000000 		.4byte	.LVL477
 18064 19c2 64000000 		.4byte	.LFE19
 18065 19c6 0100     		.2byte	0x1
 18066 19c8 54       		.byte	0x54
 18067 19c9 00000000 		.4byte	0
 18068 19cd 00000000 		.4byte	0
 18069              	.LLST120:
ARM GAS  /var/folders/3j/4xdnk5197cv_b7cw3n33qk7r0000gn/T//ccLoT9Qc.s 			page 318


 18070 19d1 00000000 		.4byte	.LVL470
 18071 19d5 28000000 		.4byte	.LVL473
 18072 19d9 0200     		.2byte	0x2
 18073 19db 30       		.byte	0x30
 18074 19dc 9F       		.byte	0x9f
 18075 19dd 28000000 		.4byte	.LVL473
 18076 19e1 48000000 		.4byte	.LVL474
 18077 19e5 0100     		.2byte	0x1
 18078 19e7 50       		.byte	0x50
 18079 19e8 48000000 		.4byte	.LVL474
 18080 19ec 4C000000 		.4byte	.LVL475
 18081 19f0 0200     		.2byte	0x2
 18082 19f2 30       		.byte	0x30
 18083 19f3 9F       		.byte	0x9f
 18084 19f4 54000000 		.4byte	.LVL476
 18085 19f8 60000000 		.4byte	.LVL478
 18086 19fc 0200     		.2byte	0x2
 18087 19fe 30       		.byte	0x30
 18088 19ff 9F       		.byte	0x9f
 18089 1a00 60000000 		.4byte	.LVL478
 18090 1a04 64000000 		.4byte	.LFE19
 18091 1a08 0100     		.2byte	0x1
 18092 1a0a 50       		.byte	0x50
 18093 1a0b 00000000 		.4byte	0
 18094 1a0f 00000000 		.4byte	0
 18095              	.LLST105:
 18096 1a13 00000000 		.4byte	.LVL385
 18097 1a17 64000000 		.4byte	.LVL387
 18098 1a1b 0100     		.2byte	0x1
 18099 1a1d 50       		.byte	0x50
 18100 1a1e 64000000 		.4byte	.LVL387
 18101 1a22 C4000000 		.4byte	.LVL397
 18102 1a26 0100     		.2byte	0x1
 18103 1a28 55       		.byte	0x55
 18104 1a29 C4000000 		.4byte	.LVL397
 18105 1a2d F8000000 		.4byte	.LVL398
 18106 1a31 0100     		.2byte	0x1
 18107 1a33 50       		.byte	0x50
 18108 1a34 F8000000 		.4byte	.LVL398
 18109 1a38 24010000 		.4byte	.LVL403
 18110 1a3c 0100     		.2byte	0x1
 18111 1a3e 55       		.byte	0x55
 18112 1a3f 24010000 		.4byte	.LVL403
 18113 1a43 2F010000 		.4byte	.LVL405-1
 18114 1a47 0100     		.2byte	0x1
 18115 1a49 50       		.byte	0x50
 18116 1a4a 2F010000 		.4byte	.LVL405-1
 18117 1a4e 50010000 		.4byte	.LVL408
 18118 1a52 0100     		.2byte	0x1
 18119 1a54 55       		.byte	0x55
 18120 1a55 50010000 		.4byte	.LVL408
 18121 1a59 54010000 		.4byte	.LVL409
 18122 1a5d 0100     		.2byte	0x1
 18123 1a5f 50       		.byte	0x50
 18124 1a60 54010000 		.4byte	.LVL409
 18125 1a64 5C010000 		.4byte	.LVL410
 18126 1a68 0400     		.2byte	0x4
ARM GAS  /var/folders/3j/4xdnk5197cv_b7cw3n33qk7r0000gn/T//ccLoT9Qc.s 			page 319


 18127 1a6a F3       		.byte	0xf3
 18128 1a6b 01       		.uleb128 0x1
 18129 1a6c 50       		.byte	0x50
 18130 1a6d 9F       		.byte	0x9f
 18131 1a6e 5C010000 		.4byte	.LVL410
 18132 1a72 E4010000 		.4byte	.LVL423
 18133 1a76 0100     		.2byte	0x1
 18134 1a78 55       		.byte	0x55
 18135 1a79 E4010000 		.4byte	.LVL423
 18136 1a7d EF010000 		.4byte	.LVL426-1
 18137 1a81 0100     		.2byte	0x1
 18138 1a83 50       		.byte	0x50
 18139 1a84 EF010000 		.4byte	.LVL426-1
 18140 1a88 88020000 		.4byte	.LVL443
 18141 1a8c 0100     		.2byte	0x1
 18142 1a8e 55       		.byte	0x55
 18143 1a8f 88020000 		.4byte	.LVL443
 18144 1a93 93020000 		.4byte	.LVL446-1
 18145 1a97 0100     		.2byte	0x1
 18146 1a99 50       		.byte	0x50
 18147 1a9a 93020000 		.4byte	.LVL446-1
 18148 1a9e F0020000 		.4byte	.LVL456
 18149 1aa2 0100     		.2byte	0x1
 18150 1aa4 55       		.byte	0x55
 18151 1aa5 F0020000 		.4byte	.LVL456
 18152 1aa9 FB020000 		.4byte	.LVL459-1
 18153 1aad 0100     		.2byte	0x1
 18154 1aaf 50       		.byte	0x50
 18155 1ab0 FB020000 		.4byte	.LVL459-1
 18156 1ab4 28030000 		.4byte	.LVL463
 18157 1ab8 0100     		.2byte	0x1
 18158 1aba 55       		.byte	0x55
 18159 1abb 28030000 		.4byte	.LVL463
 18160 1abf 33030000 		.4byte	.LVL466-1
 18161 1ac3 0100     		.2byte	0x1
 18162 1ac5 50       		.byte	0x50
 18163 1ac6 33030000 		.4byte	.LVL466-1
 18164 1aca 60030000 		.4byte	.LFE18
 18165 1ace 0100     		.2byte	0x1
 18166 1ad0 55       		.byte	0x55
 18167 1ad1 00000000 		.4byte	0
 18168 1ad5 00000000 		.4byte	0
 18169              	.LLST106:
 18170 1ad9 00000000 		.4byte	.LVL385
 18171 1add 64000000 		.4byte	.LVL387
 18172 1ae1 0100     		.2byte	0x1
 18173 1ae3 51       		.byte	0x51
 18174 1ae4 64000000 		.4byte	.LVL387
 18175 1ae8 C4000000 		.4byte	.LVL397
 18176 1aec 0400     		.2byte	0x4
 18177 1aee F3       		.byte	0xf3
 18178 1aef 01       		.uleb128 0x1
 18179 1af0 51       		.byte	0x51
 18180 1af1 9F       		.byte	0x9f
 18181 1af2 C4000000 		.4byte	.LVL397
 18182 1af6 F8000000 		.4byte	.LVL398
 18183 1afa 0100     		.2byte	0x1
ARM GAS  /var/folders/3j/4xdnk5197cv_b7cw3n33qk7r0000gn/T//ccLoT9Qc.s 			page 320


 18184 1afc 51       		.byte	0x51
 18185 1afd F8000000 		.4byte	.LVL398
 18186 1b01 24010000 		.4byte	.LVL403
 18187 1b05 0400     		.2byte	0x4
 18188 1b07 F3       		.byte	0xf3
 18189 1b08 01       		.uleb128 0x1
 18190 1b09 51       		.byte	0x51
 18191 1b0a 9F       		.byte	0x9f
 18192 1b0b 24010000 		.4byte	.LVL403
 18193 1b0f 2C010000 		.4byte	.LVL404
 18194 1b13 0100     		.2byte	0x1
 18195 1b15 51       		.byte	0x51
 18196 1b16 2C010000 		.4byte	.LVL404
 18197 1b1a 50010000 		.4byte	.LVL408
 18198 1b1e 0400     		.2byte	0x4
 18199 1b20 F3       		.byte	0xf3
 18200 1b21 01       		.uleb128 0x1
 18201 1b22 51       		.byte	0x51
 18202 1b23 9F       		.byte	0x9f
 18203 1b24 50010000 		.4byte	.LVL408
 18204 1b28 5C010000 		.4byte	.LVL410
 18205 1b2c 0100     		.2byte	0x1
 18206 1b2e 51       		.byte	0x51
 18207 1b2f 5C010000 		.4byte	.LVL410
 18208 1b33 E4010000 		.4byte	.LVL423
 18209 1b37 0400     		.2byte	0x4
 18210 1b39 F3       		.byte	0xf3
 18211 1b3a 01       		.uleb128 0x1
 18212 1b3b 51       		.byte	0x51
 18213 1b3c 9F       		.byte	0x9f
 18214 1b3d E4010000 		.4byte	.LVL423
 18215 1b41 EC010000 		.4byte	.LVL425
 18216 1b45 0100     		.2byte	0x1
 18217 1b47 51       		.byte	0x51
 18218 1b48 EC010000 		.4byte	.LVL425
 18219 1b4c 88020000 		.4byte	.LVL443
 18220 1b50 0400     		.2byte	0x4
 18221 1b52 F3       		.byte	0xf3
 18222 1b53 01       		.uleb128 0x1
 18223 1b54 51       		.byte	0x51
 18224 1b55 9F       		.byte	0x9f
 18225 1b56 88020000 		.4byte	.LVL443
 18226 1b5a 90020000 		.4byte	.LVL445
 18227 1b5e 0100     		.2byte	0x1
 18228 1b60 51       		.byte	0x51
 18229 1b61 90020000 		.4byte	.LVL445
 18230 1b65 F0020000 		.4byte	.LVL456
 18231 1b69 0400     		.2byte	0x4
 18232 1b6b F3       		.byte	0xf3
 18233 1b6c 01       		.uleb128 0x1
 18234 1b6d 51       		.byte	0x51
 18235 1b6e 9F       		.byte	0x9f
 18236 1b6f F0020000 		.4byte	.LVL456
 18237 1b73 F8020000 		.4byte	.LVL458
 18238 1b77 0100     		.2byte	0x1
 18239 1b79 51       		.byte	0x51
 18240 1b7a F8020000 		.4byte	.LVL458
ARM GAS  /var/folders/3j/4xdnk5197cv_b7cw3n33qk7r0000gn/T//ccLoT9Qc.s 			page 321


 18241 1b7e 28030000 		.4byte	.LVL463
 18242 1b82 0400     		.2byte	0x4
 18243 1b84 F3       		.byte	0xf3
 18244 1b85 01       		.uleb128 0x1
 18245 1b86 51       		.byte	0x51
 18246 1b87 9F       		.byte	0x9f
 18247 1b88 28030000 		.4byte	.LVL463
 18248 1b8c 30030000 		.4byte	.LVL465
 18249 1b90 0100     		.2byte	0x1
 18250 1b92 51       		.byte	0x51
 18251 1b93 30030000 		.4byte	.LVL465
 18252 1b97 60030000 		.4byte	.LFE18
 18253 1b9b 0400     		.2byte	0x4
 18254 1b9d F3       		.byte	0xf3
 18255 1b9e 01       		.uleb128 0x1
 18256 1b9f 51       		.byte	0x51
 18257 1ba0 9F       		.byte	0x9f
 18258 1ba1 00000000 		.4byte	0
 18259 1ba5 00000000 		.4byte	0
 18260              	.LLST107:
 18261 1ba9 00000000 		.4byte	.LVL385
 18262 1bad 40000000 		.4byte	.LVL386
 18263 1bb1 0100     		.2byte	0x1
 18264 1bb3 52       		.byte	0x52
 18265 1bb4 40000000 		.4byte	.LVL386
 18266 1bb8 C4000000 		.4byte	.LVL397
 18267 1bbc 0400     		.2byte	0x4
 18268 1bbe F3       		.byte	0xf3
 18269 1bbf 01       		.uleb128 0x1
 18270 1bc0 52       		.byte	0x52
 18271 1bc1 9F       		.byte	0x9f
 18272 1bc2 C4000000 		.4byte	.LVL397
 18273 1bc6 F8000000 		.4byte	.LVL398
 18274 1bca 0100     		.2byte	0x1
 18275 1bcc 52       		.byte	0x52
 18276 1bcd F8000000 		.4byte	.LVL398
 18277 1bd1 50010000 		.4byte	.LVL408
 18278 1bd5 0400     		.2byte	0x4
 18279 1bd7 F3       		.byte	0xf3
 18280 1bd8 01       		.uleb128 0x1
 18281 1bd9 52       		.byte	0x52
 18282 1bda 9F       		.byte	0x9f
 18283 1bdb 50010000 		.4byte	.LVL408
 18284 1bdf 5C010000 		.4byte	.LVL410
 18285 1be3 0100     		.2byte	0x1
 18286 1be5 52       		.byte	0x52
 18287 1be6 5C010000 		.4byte	.LVL410
 18288 1bea E4010000 		.4byte	.LVL423
 18289 1bee 0400     		.2byte	0x4
 18290 1bf0 F3       		.byte	0xf3
 18291 1bf1 01       		.uleb128 0x1
 18292 1bf2 52       		.byte	0x52
 18293 1bf3 9F       		.byte	0x9f
 18294 1bf4 E4010000 		.4byte	.LVL423
 18295 1bf8 E8010000 		.4byte	.LVL424
 18296 1bfc 0100     		.2byte	0x1
 18297 1bfe 52       		.byte	0x52
ARM GAS  /var/folders/3j/4xdnk5197cv_b7cw3n33qk7r0000gn/T//ccLoT9Qc.s 			page 322


 18298 1bff E8010000 		.4byte	.LVL424
 18299 1c03 88020000 		.4byte	.LVL443
 18300 1c07 0400     		.2byte	0x4
 18301 1c09 F3       		.byte	0xf3
 18302 1c0a 01       		.uleb128 0x1
 18303 1c0b 52       		.byte	0x52
 18304 1c0c 9F       		.byte	0x9f
 18305 1c0d 88020000 		.4byte	.LVL443
 18306 1c11 8C020000 		.4byte	.LVL444
 18307 1c15 0100     		.2byte	0x1
 18308 1c17 52       		.byte	0x52
 18309 1c18 8C020000 		.4byte	.LVL444
 18310 1c1c F0020000 		.4byte	.LVL456
 18311 1c20 0400     		.2byte	0x4
 18312 1c22 F3       		.byte	0xf3
 18313 1c23 01       		.uleb128 0x1
 18314 1c24 52       		.byte	0x52
 18315 1c25 9F       		.byte	0x9f
 18316 1c26 F0020000 		.4byte	.LVL456
 18317 1c2a F4020000 		.4byte	.LVL457
 18318 1c2e 0100     		.2byte	0x1
 18319 1c30 52       		.byte	0x52
 18320 1c31 F4020000 		.4byte	.LVL457
 18321 1c35 28030000 		.4byte	.LVL463
 18322 1c39 0400     		.2byte	0x4
 18323 1c3b F3       		.byte	0xf3
 18324 1c3c 01       		.uleb128 0x1
 18325 1c3d 52       		.byte	0x52
 18326 1c3e 9F       		.byte	0x9f
 18327 1c3f 28030000 		.4byte	.LVL463
 18328 1c43 2C030000 		.4byte	.LVL464
 18329 1c47 0100     		.2byte	0x1
 18330 1c49 52       		.byte	0x52
 18331 1c4a 2C030000 		.4byte	.LVL464
 18332 1c4e 60030000 		.4byte	.LFE18
 18333 1c52 0400     		.2byte	0x4
 18334 1c54 F3       		.byte	0xf3
 18335 1c55 01       		.uleb128 0x1
 18336 1c56 52       		.byte	0x52
 18337 1c57 9F       		.byte	0x9f
 18338 1c58 00000000 		.4byte	0
 18339 1c5c 00000000 		.4byte	0
 18340              	.LLST108:
 18341 1c60 00000000 		.4byte	.LVL385
 18342 1c64 80000000 		.4byte	.LVL389
 18343 1c68 0200     		.2byte	0x2
 18344 1c6a 30       		.byte	0x30
 18345 1c6b 9F       		.byte	0x9f
 18346 1c6c 80000000 		.4byte	.LVL389
 18347 1c70 84000000 		.4byte	.LVL390
 18348 1c74 0100     		.2byte	0x1
 18349 1c76 50       		.byte	0x50
 18350 1c77 88000000 		.4byte	.LVL391
 18351 1c7b 9C000000 		.4byte	.LVL393
 18352 1c7f 0100     		.2byte	0x1
 18353 1c81 50       		.byte	0x50
 18354 1c82 A0000000 		.4byte	.LVL394
ARM GAS  /var/folders/3j/4xdnk5197cv_b7cw3n33qk7r0000gn/T//ccLoT9Qc.s 			page 323


 18355 1c86 A4000000 		.4byte	.LVL395
 18356 1c8a 0100     		.2byte	0x1
 18357 1c8c 50       		.byte	0x50
 18358 1c8d BC000000 		.4byte	.LVL396
 18359 1c91 C4000000 		.4byte	.LVL397
 18360 1c95 0100     		.2byte	0x1
 18361 1c97 50       		.byte	0x50
 18362 1c98 C4000000 		.4byte	.LVL397
 18363 1c9c F8000000 		.4byte	.LVL398
 18364 1ca0 0200     		.2byte	0x2
 18365 1ca2 30       		.byte	0x30
 18366 1ca3 9F       		.byte	0x9f
 18367 1ca4 14010000 		.4byte	.LVL400
 18368 1ca8 18010000 		.4byte	.LVL401
 18369 1cac 0100     		.2byte	0x1
 18370 1cae 50       		.byte	0x50
 18371 1caf 1C010000 		.4byte	.LVL402
 18372 1cb3 24010000 		.4byte	.LVL403
 18373 1cb7 0100     		.2byte	0x1
 18374 1cb9 50       		.byte	0x50
 18375 1cba 24010000 		.4byte	.LVL403
 18376 1cbe 30010000 		.4byte	.LVL405
 18377 1cc2 0200     		.2byte	0x2
 18378 1cc4 30       		.byte	0x30
 18379 1cc5 9F       		.byte	0x9f
 18380 1cc6 40010000 		.4byte	.LVL406
 18381 1cca 48010000 		.4byte	.LVL407
 18382 1cce 0100     		.2byte	0x1
 18383 1cd0 50       		.byte	0x50
 18384 1cd1 50010000 		.4byte	.LVL408
 18385 1cd5 5C010000 		.4byte	.LVL410
 18386 1cd9 0200     		.2byte	0x2
 18387 1cdb 30       		.byte	0x30
 18388 1cdc 9F       		.byte	0x9f
 18389 1cdd 6C010000 		.4byte	.LVL411
 18390 1ce1 70010000 		.4byte	.LVL412
 18391 1ce5 0100     		.2byte	0x1
 18392 1ce7 50       		.byte	0x50
 18393 1ce8 98010000 		.4byte	.LVL415
 18394 1cec 9C010000 		.4byte	.LVL416
 18395 1cf0 0100     		.2byte	0x1
 18396 1cf2 50       		.byte	0x50
 18397 1cf3 B0010000 		.4byte	.LVL417
 18398 1cf7 B4010000 		.4byte	.LVL418
 18399 1cfb 0100     		.2byte	0x1
 18400 1cfd 50       		.byte	0x50
 18401 1cfe C8010000 		.4byte	.LVL420
 18402 1d02 CC010000 		.4byte	.LVL421
 18403 1d06 0100     		.2byte	0x1
 18404 1d08 50       		.byte	0x50
 18405 1d09 E0010000 		.4byte	.LVL422
 18406 1d0d E4010000 		.4byte	.LVL423
 18407 1d11 0100     		.2byte	0x1
 18408 1d13 50       		.byte	0x50
 18409 1d14 E4010000 		.4byte	.LVL423
 18410 1d18 F0010000 		.4byte	.LVL426
 18411 1d1c 0200     		.2byte	0x2
ARM GAS  /var/folders/3j/4xdnk5197cv_b7cw3n33qk7r0000gn/T//ccLoT9Qc.s 			page 324


 18412 1d1e 30       		.byte	0x30
 18413 1d1f 9F       		.byte	0x9f
 18414 1d20 08020000 		.4byte	.LVL428
 18415 1d24 1C020000 		.4byte	.LVL430
 18416 1d28 0100     		.2byte	0x1
 18417 1d2a 56       		.byte	0x56
 18418 1d2b 2C020000 		.4byte	.LVL432
 18419 1d2f 34020000 		.4byte	.LVL433
 18420 1d33 0100     		.2byte	0x1
 18421 1d35 56       		.byte	0x56
 18422 1d36 48020000 		.4byte	.LVL435
 18423 1d3a 4C020000 		.4byte	.LVL436
 18424 1d3e 0100     		.2byte	0x1
 18425 1d40 56       		.byte	0x56
 18426 1d41 5C020000 		.4byte	.LVL438
 18427 1d45 60020000 		.4byte	.LVL439
 18428 1d49 0100     		.2byte	0x1
 18429 1d4b 56       		.byte	0x56
 18430 1d4c 74020000 		.4byte	.LVL441
 18431 1d50 7C020000 		.4byte	.LVL442
 18432 1d54 0100     		.2byte	0x1
 18433 1d56 56       		.byte	0x56
 18434 1d57 7C020000 		.4byte	.LVL442
 18435 1d5b 88020000 		.4byte	.LVL443
 18436 1d5f 0100     		.2byte	0x1
 18437 1d61 50       		.byte	0x50
 18438 1d62 88020000 		.4byte	.LVL443
 18439 1d66 94020000 		.4byte	.LVL446
 18440 1d6a 0200     		.2byte	0x2
 18441 1d6c 30       		.byte	0x30
 18442 1d6d 9F       		.byte	0x9f
 18443 1d6e AC020000 		.4byte	.LVL448
 18444 1d72 C0020000 		.4byte	.LVL450
 18445 1d76 0100     		.2byte	0x1
 18446 1d78 56       		.byte	0x56
 18447 1d79 D0020000 		.4byte	.LVL452
 18448 1d7d D8020000 		.4byte	.LVL453
 18449 1d81 0100     		.2byte	0x1
 18450 1d83 56       		.byte	0x56
 18451 1d84 E8020000 		.4byte	.LVL455
 18452 1d88 F0020000 		.4byte	.LVL456
 18453 1d8c 0100     		.2byte	0x1
 18454 1d8e 56       		.byte	0x56
 18455 1d8f F0020000 		.4byte	.LVL456
 18456 1d93 FC020000 		.4byte	.LVL459
 18457 1d97 0200     		.2byte	0x2
 18458 1d99 30       		.byte	0x30
 18459 1d9a 9F       		.byte	0x9f
 18460 1d9b 14030000 		.4byte	.LVL461
 18461 1d9f 28030000 		.4byte	.LVL463
 18462 1da3 0100     		.2byte	0x1
 18463 1da5 56       		.byte	0x56
 18464 1da6 28030000 		.4byte	.LVL463
 18465 1daa 34030000 		.4byte	.LVL466
 18466 1dae 0200     		.2byte	0x2
 18467 1db0 30       		.byte	0x30
 18468 1db1 9F       		.byte	0x9f
ARM GAS  /var/folders/3j/4xdnk5197cv_b7cw3n33qk7r0000gn/T//ccLoT9Qc.s 			page 325


 18469 1db2 4C030000 		.4byte	.LVL468
 18470 1db6 60030000 		.4byte	.LFE18
 18471 1dba 0100     		.2byte	0x1
 18472 1dbc 56       		.byte	0x56
 18473 1dbd 00000000 		.4byte	0
 18474 1dc1 00000000 		.4byte	0
 18475              	.LLST109:
 18476 1dc5 94000000 		.4byte	.LVL392
 18477 1dc9 9F000000 		.4byte	.LVL394-1
 18478 1dcd 0200     		.2byte	0x2
 18479 1dcf 75       		.byte	0x75
 18480 1dd0 14       		.sleb128 20
 18481 1dd1 00000000 		.4byte	0
 18482 1dd5 00000000 		.4byte	0
 18483              	.LLST110:
 18484 1dd9 64000000 		.4byte	.LVL387
 18485 1ddd 7C000000 		.4byte	.LVL388
 18486 1de1 0100     		.2byte	0x1
 18487 1de3 54       		.byte	0x54
 18488 1de4 F8000000 		.4byte	.LVL398
 18489 1de8 10010000 		.4byte	.LVL399
 18490 1dec 0100     		.2byte	0x1
 18491 1dee 54       		.byte	0x54
 18492 1def 00000000 		.4byte	0
 18493 1df3 00000000 		.4byte	0
 18494              	.LLST111:
 18495 1df7 74010000 		.4byte	.LVL413
 18496 1dfb 83010000 		.4byte	.LVL414-1
 18497 1dff 0200     		.2byte	0x2
 18498 1e01 91       		.byte	0x91
 18499 1e02 54       		.sleb128 -44
 18500 1e03 00000000 		.4byte	0
 18501 1e07 00000000 		.4byte	0
 18502              	.LLST112:
 18503 1e0b 74010000 		.4byte	.LVL413
 18504 1e0f 84010000 		.4byte	.LVL414
 18505 1e13 0200     		.2byte	0x2
 18506 1e15 34       		.byte	0x34
 18507 1e16 9F       		.byte	0x9f
 18508 1e17 00000000 		.4byte	0
 18509 1e1b 00000000 		.4byte	0
 18510              	.LLST113:
 18511 1e1f 74010000 		.4byte	.LVL413
 18512 1e23 84010000 		.4byte	.LVL414
 18513 1e27 0100     		.2byte	0x1
 18514 1e29 55       		.byte	0x55
 18515 1e2a 00000000 		.4byte	0
 18516 1e2e 00000000 		.4byte	0
 18517              	.LLST114:
 18518 1e32 B8010000 		.4byte	.LVL419
 18519 1e36 C7010000 		.4byte	.LVL420-1
 18520 1e3a 0200     		.2byte	0x2
 18521 1e3c 91       		.byte	0x91
 18522 1e3d 58       		.sleb128 -40
 18523 1e3e 00000000 		.4byte	0
 18524 1e42 00000000 		.4byte	0
 18525              	.LLST115:
ARM GAS  /var/folders/3j/4xdnk5197cv_b7cw3n33qk7r0000gn/T//ccLoT9Qc.s 			page 326


 18526 1e46 B8010000 		.4byte	.LVL419
 18527 1e4a C8010000 		.4byte	.LVL420
 18528 1e4e 0200     		.2byte	0x2
 18529 1e50 33       		.byte	0x33
 18530 1e51 9F       		.byte	0x9f
 18531 1e52 00000000 		.4byte	0
 18532 1e56 00000000 		.4byte	0
 18533              	.LLST116:
 18534 1e5a B8010000 		.4byte	.LVL419
 18535 1e5e C8010000 		.4byte	.LVL420
 18536 1e62 0100     		.2byte	0x1
 18537 1e64 55       		.byte	0x55
 18538 1e65 00000000 		.4byte	0
 18539 1e69 00000000 		.4byte	0
 18540              	.LLST80:
 18541 1e6d 00000000 		.4byte	.LVL323
 18542 1e71 34000000 		.4byte	.LVL326
 18543 1e75 0100     		.2byte	0x1
 18544 1e77 50       		.byte	0x50
 18545 1e78 34000000 		.4byte	.LVL326
 18546 1e7c 44000000 		.4byte	.LVL328
 18547 1e80 0100     		.2byte	0x1
 18548 1e82 56       		.byte	0x56
 18549 1e83 44000000 		.4byte	.LVL328
 18550 1e87 4F000000 		.4byte	.LVL331-1
 18551 1e8b 0100     		.2byte	0x1
 18552 1e8d 50       		.byte	0x50
 18553 1e8e 4F000000 		.4byte	.LVL331-1
 18554 1e92 88000000 		.4byte	.LVL334
 18555 1e96 0100     		.2byte	0x1
 18556 1e98 56       		.byte	0x56
 18557 1e99 88000000 		.4byte	.LVL334
 18558 1e9d B0000000 		.4byte	.LVL336
 18559 1ea1 0400     		.2byte	0x4
 18560 1ea3 F3       		.byte	0xf3
 18561 1ea4 01       		.uleb128 0x1
 18562 1ea5 50       		.byte	0x50
 18563 1ea6 9F       		.byte	0x9f
 18564 1ea7 B0000000 		.4byte	.LVL336
 18565 1eab F8000000 		.4byte	.LVL342
 18566 1eaf 0100     		.2byte	0x1
 18567 1eb1 56       		.byte	0x56
 18568 1eb2 F8000000 		.4byte	.LVL342
 18569 1eb6 20010000 		.4byte	.LVL344
 18570 1eba 0400     		.2byte	0x4
 18571 1ebc F3       		.byte	0xf3
 18572 1ebd 01       		.uleb128 0x1
 18573 1ebe 50       		.byte	0x50
 18574 1ebf 9F       		.byte	0x9f
 18575 1ec0 20010000 		.4byte	.LVL344
 18576 1ec4 2B010000 		.4byte	.LVL347-1
 18577 1ec8 0100     		.2byte	0x1
 18578 1eca 50       		.byte	0x50
 18579 1ecb 2B010000 		.4byte	.LVL347-1
 18580 1ecf 3C020000 		.4byte	.LFE16
 18581 1ed3 0100     		.2byte	0x1
 18582 1ed5 56       		.byte	0x56
ARM GAS  /var/folders/3j/4xdnk5197cv_b7cw3n33qk7r0000gn/T//ccLoT9Qc.s 			page 327


 18583 1ed6 00000000 		.4byte	0
 18584 1eda 00000000 		.4byte	0
 18585              	.LLST81:
 18586 1ede 00000000 		.4byte	.LVL323
 18587 1ee2 38000000 		.4byte	.LVL327
 18588 1ee6 0100     		.2byte	0x1
 18589 1ee8 51       		.byte	0x51
 18590 1ee9 38000000 		.4byte	.LVL327
 18591 1eed 44000000 		.4byte	.LVL328
 18592 1ef1 0400     		.2byte	0x4
 18593 1ef3 F3       		.byte	0xf3
 18594 1ef4 01       		.uleb128 0x1
 18595 1ef5 51       		.byte	0x51
 18596 1ef6 9F       		.byte	0x9f
 18597 1ef7 44000000 		.4byte	.LVL328
 18598 1efb 48000000 		.4byte	.LVL329
 18599 1eff 0100     		.2byte	0x1
 18600 1f01 51       		.byte	0x51
 18601 1f02 48000000 		.4byte	.LVL329
 18602 1f06 B0000000 		.4byte	.LVL336
 18603 1f0a 0400     		.2byte	0x4
 18604 1f0c F3       		.byte	0xf3
 18605 1f0d 01       		.uleb128 0x1
 18606 1f0e 51       		.byte	0x51
 18607 1f0f 9F       		.byte	0x9f
 18608 1f10 B0000000 		.4byte	.LVL336
 18609 1f14 B4000000 		.4byte	.LVL337
 18610 1f18 0100     		.2byte	0x1
 18611 1f1a 51       		.byte	0x51
 18612 1f1b B4000000 		.4byte	.LVL337
 18613 1f1f 20010000 		.4byte	.LVL344
 18614 1f23 0400     		.2byte	0x4
 18615 1f25 F3       		.byte	0xf3
 18616 1f26 01       		.uleb128 0x1
 18617 1f27 51       		.byte	0x51
 18618 1f28 9F       		.byte	0x9f
 18619 1f29 20010000 		.4byte	.LVL344
 18620 1f2d 28010000 		.4byte	.LVL346
 18621 1f31 0100     		.2byte	0x1
 18622 1f33 51       		.byte	0x51
 18623 1f34 28010000 		.4byte	.LVL346
 18624 1f38 3C020000 		.4byte	.LFE16
 18625 1f3c 0400     		.2byte	0x4
 18626 1f3e F3       		.byte	0xf3
 18627 1f3f 01       		.uleb128 0x1
 18628 1f40 51       		.byte	0x51
 18629 1f41 9F       		.byte	0x9f
 18630 1f42 00000000 		.4byte	0
 18631 1f46 00000000 		.4byte	0
 18632              	.LLST82:
 18633 1f4a 00000000 		.4byte	.LVL323
 18634 1f4e 38000000 		.4byte	.LVL327
 18635 1f52 0100     		.2byte	0x1
 18636 1f54 52       		.byte	0x52
 18637 1f55 38000000 		.4byte	.LVL327
 18638 1f59 44000000 		.4byte	.LVL328
 18639 1f5d 0100     		.2byte	0x1
ARM GAS  /var/folders/3j/4xdnk5197cv_b7cw3n33qk7r0000gn/T//ccLoT9Qc.s 			page 328


 18640 1f5f 55       		.byte	0x55
 18641 1f60 44000000 		.4byte	.LVL328
 18642 1f64 4C000000 		.4byte	.LVL330
 18643 1f68 0100     		.2byte	0x1
 18644 1f6a 52       		.byte	0x52
 18645 1f6b 4C000000 		.4byte	.LVL330
 18646 1f6f B0000000 		.4byte	.LVL336
 18647 1f73 0100     		.2byte	0x1
 18648 1f75 55       		.byte	0x55
 18649 1f76 B0000000 		.4byte	.LVL336
 18650 1f7a B7000000 		.4byte	.LVL338-1
 18651 1f7e 0100     		.2byte	0x1
 18652 1f80 52       		.byte	0x52
 18653 1f81 B7000000 		.4byte	.LVL338-1
 18654 1f85 20010000 		.4byte	.LVL344
 18655 1f89 0100     		.2byte	0x1
 18656 1f8b 55       		.byte	0x55
 18657 1f8c 20010000 		.4byte	.LVL344
 18658 1f90 24010000 		.4byte	.LVL345
 18659 1f94 0100     		.2byte	0x1
 18660 1f96 52       		.byte	0x52
 18661 1f97 24010000 		.4byte	.LVL345
 18662 1f9b 3C020000 		.4byte	.LFE16
 18663 1f9f 0100     		.2byte	0x1
 18664 1fa1 55       		.byte	0x55
 18665 1fa2 00000000 		.4byte	0
 18666 1fa6 00000000 		.4byte	0
 18667              	.LLST83:
 18668 1faa 00000000 		.4byte	.LVL323
 18669 1fae 38000000 		.4byte	.LVL327
 18670 1fb2 0200     		.2byte	0x2
 18671 1fb4 30       		.byte	0x30
 18672 1fb5 9F       		.byte	0x9f
 18673 1fb6 38000000 		.4byte	.LVL327
 18674 1fba 44000000 		.4byte	.LVL328
 18675 1fbe 0100     		.2byte	0x1
 18676 1fc0 50       		.byte	0x50
 18677 1fc1 44000000 		.4byte	.LVL328
 18678 1fc5 50000000 		.4byte	.LVL331
 18679 1fc9 0200     		.2byte	0x2
 18680 1fcb 30       		.byte	0x30
 18681 1fcc 9F       		.byte	0x9f
 18682 1fcd 50000000 		.4byte	.LVL331
 18683 1fd1 54000000 		.4byte	.LVL332
 18684 1fd5 0100     		.2byte	0x1
 18685 1fd7 50       		.byte	0x50
 18686 1fd8 68000000 		.4byte	.LVL333
 18687 1fdc B0000000 		.4byte	.LVL336
 18688 1fe0 0100     		.2byte	0x1
 18689 1fe2 50       		.byte	0x50
 18690 1fe3 B0000000 		.4byte	.LVL336
 18691 1fe7 D8000000 		.4byte	.LVL339
 18692 1feb 0200     		.2byte	0x2
 18693 1fed 30       		.byte	0x30
 18694 1fee 9F       		.byte	0x9f
 18695 1fef D8000000 		.4byte	.LVL339
 18696 1ff3 DC000000 		.4byte	.LVL340
ARM GAS  /var/folders/3j/4xdnk5197cv_b7cw3n33qk7r0000gn/T//ccLoT9Qc.s 			page 329


 18697 1ff7 0100     		.2byte	0x1
 18698 1ff9 50       		.byte	0x50
 18699 1ffa E0000000 		.4byte	.LVL341
 18700 1ffe 20010000 		.4byte	.LVL344
 18701 2002 0100     		.2byte	0x1
 18702 2004 50       		.byte	0x50
 18703 2005 20010000 		.4byte	.LVL344
 18704 2009 2C010000 		.4byte	.LVL347
 18705 200d 0200     		.2byte	0x2
 18706 200f 30       		.byte	0x30
 18707 2010 9F       		.byte	0x9f
 18708 2011 2C010000 		.4byte	.LVL347
 18709 2015 30010000 		.4byte	.LVL348
 18710 2019 0100     		.2byte	0x1
 18711 201b 50       		.byte	0x50
 18712 201c 44010000 		.4byte	.LVL349
 18713 2020 48010000 		.4byte	.LVL350
 18714 2024 0100     		.2byte	0x1
 18715 2026 50       		.byte	0x50
 18716 2027 5C010000 		.4byte	.LVL351
 18717 202b AC010000 		.4byte	.LVL355
 18718 202f 0100     		.2byte	0x1
 18719 2031 50       		.byte	0x50
 18720 2032 AC010000 		.4byte	.LVL355
 18721 2036 B4010000 		.4byte	.LVL356
 18722 203a 0200     		.2byte	0x2
 18723 203c 30       		.byte	0x30
 18724 203d 9F       		.byte	0x9f
 18725 203e C4010000 		.4byte	.LVL357
 18726 2042 C8010000 		.4byte	.LVL358
 18727 2046 0100     		.2byte	0x1
 18728 2048 50       		.byte	0x50
 18729 2049 E8010000 		.4byte	.LVL360
 18730 204d F0010000 		.4byte	.LVL361
 18731 2051 0100     		.2byte	0x1
 18732 2053 50       		.byte	0x50
 18733 2054 1C020000 		.4byte	.LVL364
 18734 2058 3C020000 		.4byte	.LFE16
 18735 205c 0100     		.2byte	0x1
 18736 205e 50       		.byte	0x50
 18737 205f 00000000 		.4byte	0
 18738 2063 00000000 		.4byte	0
 18739              	.LLST84:
 18740 2067 18000000 		.4byte	.LVL324
 18741 206b 38000000 		.4byte	.LVL327
 18742 206f 0200     		.2byte	0x2
 18743 2071 30       		.byte	0x30
 18744 2072 9F       		.byte	0x9f
 18745 2073 38000000 		.4byte	.LVL327
 18746 2077 44000000 		.4byte	.LVL328
 18747 207b 0100     		.2byte	0x1
 18748 207d 54       		.byte	0x54
 18749 207e 44000000 		.4byte	.LVL328
 18750 2082 A4000000 		.4byte	.LVL335
 18751 2086 0200     		.2byte	0x2
 18752 2088 30       		.byte	0x30
 18753 2089 9F       		.byte	0x9f
ARM GAS  /var/folders/3j/4xdnk5197cv_b7cw3n33qk7r0000gn/T//ccLoT9Qc.s 			page 330


 18754 208a A4000000 		.4byte	.LVL335
 18755 208e B0000000 		.4byte	.LVL336
 18756 2092 0100     		.2byte	0x1
 18757 2094 54       		.byte	0x54
 18758 2095 B0000000 		.4byte	.LVL336
 18759 2099 14010000 		.4byte	.LVL343
 18760 209d 0200     		.2byte	0x2
 18761 209f 30       		.byte	0x30
 18762 20a0 9F       		.byte	0x9f
 18763 20a1 14010000 		.4byte	.LVL343
 18764 20a5 20010000 		.4byte	.LVL344
 18765 20a9 0100     		.2byte	0x1
 18766 20ab 54       		.byte	0x54
 18767 20ac 20010000 		.4byte	.LVL344
 18768 20b0 A8010000 		.4byte	.LVL354
 18769 20b4 0200     		.2byte	0x2
 18770 20b6 30       		.byte	0x30
 18771 20b7 9F       		.byte	0x9f
 18772 20b8 AC010000 		.4byte	.LVL355
 18773 20bc 3C020000 		.4byte	.LFE16
 18774 20c0 0200     		.2byte	0x2
 18775 20c2 30       		.byte	0x30
 18776 20c3 9F       		.byte	0x9f
 18777 20c4 00000000 		.4byte	0
 18778 20c8 00000000 		.4byte	0
 18779              	.LLST85:
 18780 20cc 68000000 		.4byte	.LVL333
 18781 20d0 B0000000 		.4byte	.LVL336
 18782 20d4 0A00     		.2byte	0xa
 18783 20d6 91       		.byte	0x91
 18784 20d7 53       		.sleb128 -45
 18785 20d8 94       		.byte	0x94
 18786 20d9 01       		.byte	0x1
 18787 20da 08       		.byte	0x8
 18788 20db FF       		.byte	0xff
 18789 20dc 1A       		.byte	0x1a
 18790 20dd 23       		.byte	0x23
 18791 20de 01       		.uleb128 0x1
 18792 20df 9F       		.byte	0x9f
 18793 20e0 00000000 		.4byte	0
 18794 20e4 00000000 		.4byte	0
 18795              	.LLST86:
 18796 20e8 B8000000 		.4byte	.LVL338
 18797 20ec E0000000 		.4byte	.LVL341
 18798 20f0 0200     		.2byte	0x2
 18799 20f2 30       		.byte	0x30
 18800 20f3 9F       		.byte	0x9f
 18801 20f4 78010000 		.4byte	.LVL352
 18802 20f8 88010000 		.4byte	.LVL353
 18803 20fc 1500     		.2byte	0x15
 18804 20fe 7E       		.byte	0x7e
 18805 20ff 00       		.sleb128 0
 18806 2100 08       		.byte	0x8
 18807 2101 FF       		.byte	0xff
 18808 2102 1A       		.byte	0x1a
 18809 2103 0A       		.byte	0xa
 18810 2104 FFFF     		.2byte	0xffff
ARM GAS  /var/folders/3j/4xdnk5197cv_b7cw3n33qk7r0000gn/T//ccLoT9Qc.s 			page 331


 18811 2106 1A       		.byte	0x1a
 18812 2107 7E       		.byte	0x7e
 18813 2108 00       		.sleb128 0
 18814 2109 38       		.byte	0x38
 18815 210a 25       		.byte	0x25
 18816 210b 0A       		.byte	0xa
 18817 210c FFFF     		.2byte	0xffff
 18818 210e 1A       		.byte	0x1a
 18819 210f 24       		.byte	0x24
 18820 2110 23       		.byte	0x23
 18821 2111 01       		.uleb128 0x1
 18822 2112 9F       		.byte	0x9f
 18823 2113 88010000 		.4byte	.LVL353
 18824 2117 AC010000 		.4byte	.LVL355
 18825 211b 1900     		.2byte	0x19
 18826 211d 91       		.byte	0x91
 18827 211e 54       		.sleb128 -44
 18828 211f 94       		.byte	0x94
 18829 2120 02       		.byte	0x2
 18830 2121 08       		.byte	0x8
 18831 2122 FF       		.byte	0xff
 18832 2123 1A       		.byte	0x1a
 18833 2124 0A       		.byte	0xa
 18834 2125 FFFF     		.2byte	0xffff
 18835 2127 1A       		.byte	0x1a
 18836 2128 91       		.byte	0x91
 18837 2129 54       		.sleb128 -44
 18838 212a 94       		.byte	0x94
 18839 212b 02       		.byte	0x2
 18840 212c 38       		.byte	0x38
 18841 212d 25       		.byte	0x25
 18842 212e 0A       		.byte	0xa
 18843 212f FFFF     		.2byte	0xffff
 18844 2131 1A       		.byte	0x1a
 18845 2132 24       		.byte	0x24
 18846 2133 23       		.byte	0x23
 18847 2134 01       		.uleb128 0x1
 18848 2135 9F       		.byte	0x9f
 18849 2136 AC010000 		.4byte	.LVL355
 18850 213a B4010000 		.4byte	.LVL356
 18851 213e 0200     		.2byte	0x2
 18852 2140 30       		.byte	0x30
 18853 2141 9F       		.byte	0x9f
 18854 2142 D8010000 		.4byte	.LVL359
 18855 2146 04020000 		.4byte	.LVL362
 18856 214a 0200     		.2byte	0x2
 18857 214c 30       		.byte	0x30
 18858 214d 9F       		.byte	0x9f
 18859 214e 04020000 		.4byte	.LVL362
 18860 2152 0C020000 		.4byte	.LVL363
 18861 2156 0100     		.2byte	0x1
 18862 2158 54       		.byte	0x54
 18863 2159 00000000 		.4byte	0
 18864 215d 00000000 		.4byte	0
 18865              	.LLST87:
 18866 2161 1C000000 		.4byte	.LVL325
 18867 2165 E0000000 		.4byte	.LVL341
ARM GAS  /var/folders/3j/4xdnk5197cv_b7cw3n33qk7r0000gn/T//ccLoT9Qc.s 			page 332


 18868 2169 0200     		.2byte	0x2
 18869 216b 30       		.byte	0x30
 18870 216c 9F       		.byte	0x9f
 18871 216d 20010000 		.4byte	.LVL344
 18872 2171 20020000 		.4byte	.LVL365
 18873 2175 0200     		.2byte	0x2
 18874 2177 30       		.byte	0x30
 18875 2178 9F       		.byte	0x9f
 18876 2179 20020000 		.4byte	.LVL365
 18877 217d 28020000 		.4byte	.LVL366
 18878 2181 1500     		.2byte	0x15
 18879 2183 73       		.byte	0x73
 18880 2184 00       		.sleb128 0
 18881 2185 08       		.byte	0x8
 18882 2186 FF       		.byte	0xff
 18883 2187 1A       		.byte	0x1a
 18884 2188 0A       		.byte	0xa
 18885 2189 FFFF     		.2byte	0xffff
 18886 218b 1A       		.byte	0x1a
 18887 218c 73       		.byte	0x73
 18888 218d 00       		.sleb128 0
 18889 218e 38       		.byte	0x38
 18890 218f 25       		.byte	0x25
 18891 2190 0A       		.byte	0xa
 18892 2191 FFFF     		.2byte	0xffff
 18893 2193 1A       		.byte	0x1a
 18894 2194 24       		.byte	0x24
 18895 2195 23       		.byte	0x23
 18896 2196 01       		.uleb128 0x1
 18897 2197 9F       		.byte	0x9f
 18898 2198 28020000 		.4byte	.LVL366
 18899 219c 3C020000 		.4byte	.LFE16
 18900 21a0 1900     		.2byte	0x19
 18901 21a2 91       		.byte	0x91
 18902 21a3 56       		.sleb128 -42
 18903 21a4 94       		.byte	0x94
 18904 21a5 02       		.byte	0x2
 18905 21a6 08       		.byte	0x8
 18906 21a7 FF       		.byte	0xff
 18907 21a8 1A       		.byte	0x1a
 18908 21a9 0A       		.byte	0xa
 18909 21aa FFFF     		.2byte	0xffff
 18910 21ac 1A       		.byte	0x1a
 18911 21ad 91       		.byte	0x91
 18912 21ae 56       		.sleb128 -42
 18913 21af 94       		.byte	0x94
 18914 21b0 02       		.byte	0x2
 18915 21b1 38       		.byte	0x38
 18916 21b2 25       		.byte	0x25
 18917 21b3 0A       		.byte	0xa
 18918 21b4 FFFF     		.2byte	0xffff
 18919 21b6 1A       		.byte	0x1a
 18920 21b7 24       		.byte	0x24
 18921 21b8 23       		.byte	0x23
 18922 21b9 01       		.uleb128 0x1
 18923 21ba 9F       		.byte	0x9f
 18924 21bb 00000000 		.4byte	0
ARM GAS  /var/folders/3j/4xdnk5197cv_b7cw3n33qk7r0000gn/T//ccLoT9Qc.s 			page 333


 18925 21bf 00000000 		.4byte	0
 18926              	.LLST88:
 18927 21c3 68000000 		.4byte	.LVL333
 18928 21c7 A4000000 		.4byte	.LVL335
 18929 21cb 0200     		.2byte	0x2
 18930 21cd 91       		.byte	0x91
 18931 21ce 52       		.sleb128 -46
 18932 21cf 00000000 		.4byte	0
 18933 21d3 00000000 		.4byte	0
 18934              	.LLST89:
 18935 21d7 68000000 		.4byte	.LVL333
 18936 21db A4000000 		.4byte	.LVL335
 18937 21df 0A00     		.2byte	0xa
 18938 21e1 91       		.byte	0x91
 18939 21e2 53       		.sleb128 -45
 18940 21e3 94       		.byte	0x94
 18941 21e4 01       		.byte	0x1
 18942 21e5 08       		.byte	0x8
 18943 21e6 FF       		.byte	0xff
 18944 21e7 1A       		.byte	0x1a
 18945 21e8 23       		.byte	0x23
 18946 21e9 01       		.uleb128 0x1
 18947 21ea 9F       		.byte	0x9f
 18948 21eb 00000000 		.4byte	0
 18949 21ef 00000000 		.4byte	0
 18950              	.LLST90:
 18951 21f3 68000000 		.4byte	.LVL333
 18952 21f7 88000000 		.4byte	.LVL334
 18953 21fb 0100     		.2byte	0x1
 18954 21fd 56       		.byte	0x56
 18955 21fe 88000000 		.4byte	.LVL334
 18956 2202 A4000000 		.4byte	.LVL335
 18957 2206 0400     		.2byte	0x4
 18958 2208 F3       		.byte	0xf3
 18959 2209 01       		.uleb128 0x1
 18960 220a 50       		.byte	0x50
 18961 220b 9F       		.byte	0x9f
 18962 220c 00000000 		.4byte	0
 18963 2210 00000000 		.4byte	0
 18964              	.LLST91:
 18965 2214 E0000000 		.4byte	.LVL341
 18966 2218 14010000 		.4byte	.LVL343
 18967 221c 0200     		.2byte	0x2
 18968 221e 77       		.byte	0x77
 18969 221f 00       		.sleb128 0
 18970 2220 00000000 		.4byte	0
 18971 2224 00000000 		.4byte	0
 18972              	.LLST92:
 18973 2228 E0000000 		.4byte	.LVL341
 18974 222c F8000000 		.4byte	.LVL342
 18975 2230 0100     		.2byte	0x1
 18976 2232 56       		.byte	0x56
 18977 2233 F8000000 		.4byte	.LVL342
 18978 2237 14010000 		.4byte	.LVL343
 18979 223b 0400     		.2byte	0x4
 18980 223d F3       		.byte	0xf3
 18981 223e 01       		.uleb128 0x1
ARM GAS  /var/folders/3j/4xdnk5197cv_b7cw3n33qk7r0000gn/T//ccLoT9Qc.s 			page 334


 18982 223f 50       		.byte	0x50
 18983 2240 9F       		.byte	0x9f
 18984 2241 00000000 		.4byte	0
 18985 2245 00000000 		.4byte	0
 18986              	.LLST93:
 18987 2249 78010000 		.4byte	.LVL352
 18988 224d A8010000 		.4byte	.LVL354
 18989 2251 0200     		.2byte	0x2
 18990 2253 91       		.byte	0x91
 18991 2254 52       		.sleb128 -46
 18992 2255 00000000 		.4byte	0
 18993 2259 00000000 		.4byte	0
 18994              	.LLST94:
 18995 225d 78010000 		.4byte	.LVL352
 18996 2261 88010000 		.4byte	.LVL353
 18997 2265 1500     		.2byte	0x15
 18998 2267 7E       		.byte	0x7e
 18999 2268 00       		.sleb128 0
 19000 2269 08       		.byte	0x8
 19001 226a FF       		.byte	0xff
 19002 226b 1A       		.byte	0x1a
 19003 226c 0A       		.byte	0xa
 19004 226d FFFF     		.2byte	0xffff
 19005 226f 1A       		.byte	0x1a
 19006 2270 7E       		.byte	0x7e
 19007 2271 00       		.sleb128 0
 19008 2272 38       		.byte	0x38
 19009 2273 25       		.byte	0x25
 19010 2274 0A       		.byte	0xa
 19011 2275 FFFF     		.2byte	0xffff
 19012 2277 1A       		.byte	0x1a
 19013 2278 24       		.byte	0x24
 19014 2279 23       		.byte	0x23
 19015 227a 01       		.uleb128 0x1
 19016 227b 9F       		.byte	0x9f
 19017 227c 88010000 		.4byte	.LVL353
 19018 2280 A8010000 		.4byte	.LVL354
 19019 2284 1900     		.2byte	0x19
 19020 2286 91       		.byte	0x91
 19021 2287 54       		.sleb128 -44
 19022 2288 94       		.byte	0x94
 19023 2289 02       		.byte	0x2
 19024 228a 08       		.byte	0x8
 19025 228b FF       		.byte	0xff
 19026 228c 1A       		.byte	0x1a
 19027 228d 0A       		.byte	0xa
 19028 228e FFFF     		.2byte	0xffff
 19029 2290 1A       		.byte	0x1a
 19030 2291 91       		.byte	0x91
 19031 2292 54       		.sleb128 -44
 19032 2293 94       		.byte	0x94
 19033 2294 02       		.byte	0x2
 19034 2295 38       		.byte	0x38
 19035 2296 25       		.byte	0x25
 19036 2297 0A       		.byte	0xa
 19037 2298 FFFF     		.2byte	0xffff
 19038 229a 1A       		.byte	0x1a
ARM GAS  /var/folders/3j/4xdnk5197cv_b7cw3n33qk7r0000gn/T//ccLoT9Qc.s 			page 335


 19039 229b 24       		.byte	0x24
 19040 229c 23       		.byte	0x23
 19041 229d 01       		.uleb128 0x1
 19042 229e 9F       		.byte	0x9f
 19043 229f 00000000 		.4byte	0
 19044 22a3 00000000 		.4byte	0
 19045              	.LLST95:
 19046 22a7 78010000 		.4byte	.LVL352
 19047 22ab A8010000 		.4byte	.LVL354
 19048 22af 0100     		.2byte	0x1
 19049 22b1 56       		.byte	0x56
 19050 22b2 00000000 		.4byte	0
 19051 22b6 00000000 		.4byte	0
 19052              	.LLST53:
 19053 22ba 00000000 		.4byte	.LVL105
 19054 22be 24000000 		.4byte	.LVL107
 19055 22c2 0100     		.2byte	0x1
 19056 22c4 50       		.byte	0x50
 19057 22c5 24000000 		.4byte	.LVL107
 19058 22c9 30000000 		.4byte	.LVL108
 19059 22cd 0400     		.2byte	0x4
 19060 22cf F3       		.byte	0xf3
 19061 22d0 01       		.uleb128 0x1
 19062 22d1 50       		.byte	0x50
 19063 22d2 9F       		.byte	0x9f
 19064 22d3 30000000 		.4byte	.LVL108
 19065 22d7 43000000 		.4byte	.LVL110-1
 19066 22db 0100     		.2byte	0x1
 19067 22dd 50       		.byte	0x50
 19068 22de 43000000 		.4byte	.LVL110-1
 19069 22e2 68080000 		.4byte	.LFE10
 19070 22e6 0100     		.2byte	0x1
 19071 22e8 55       		.byte	0x55
 19072 22e9 00000000 		.4byte	0
 19073 22ed 00000000 		.4byte	0
 19074              	.LLST54:
 19075 22f1 00000000 		.4byte	.LVL105
 19076 22f5 24000000 		.4byte	.LVL107
 19077 22f9 0100     		.2byte	0x1
 19078 22fb 51       		.byte	0x51
 19079 22fc 24000000 		.4byte	.LVL107
 19080 2300 30000000 		.4byte	.LVL108
 19081 2304 0400     		.2byte	0x4
 19082 2306 F3       		.byte	0xf3
 19083 2307 01       		.uleb128 0x1
 19084 2308 51       		.byte	0x51
 19085 2309 9F       		.byte	0x9f
 19086 230a 30000000 		.4byte	.LVL108
 19087 230e 3C000000 		.4byte	.LVL109
 19088 2312 0100     		.2byte	0x1
 19089 2314 51       		.byte	0x51
 19090 2315 3C000000 		.4byte	.LVL109
 19091 2319 68080000 		.4byte	.LFE10
 19092 231d 0400     		.2byte	0x4
 19093 231f F3       		.byte	0xf3
 19094 2320 01       		.uleb128 0x1
 19095 2321 51       		.byte	0x51
ARM GAS  /var/folders/3j/4xdnk5197cv_b7cw3n33qk7r0000gn/T//ccLoT9Qc.s 			page 336


 19096 2322 9F       		.byte	0x9f
 19097 2323 00000000 		.4byte	0
 19098 2327 00000000 		.4byte	0
 19099              	.LLST55:
 19100 232b 00000000 		.4byte	.LVL105
 19101 232f 24000000 		.4byte	.LVL107
 19102 2333 0200     		.2byte	0x2
 19103 2335 30       		.byte	0x30
 19104 2336 9F       		.byte	0x9f
 19105 2337 30000000 		.4byte	.LVL108
 19106 233b 4C000000 		.4byte	.LVL111
 19107 233f 0200     		.2byte	0x2
 19108 2341 30       		.byte	0x30
 19109 2342 9F       		.byte	0x9f
 19110 2343 4C000000 		.4byte	.LVL111
 19111 2347 60000000 		.4byte	.LVL113
 19112 234b 0100     		.2byte	0x1
 19113 234d 58       		.byte	0x58
 19114 234e 70000000 		.4byte	.LVL115
 19115 2352 78000000 		.4byte	.LVL116
 19116 2356 0100     		.2byte	0x1
 19117 2358 58       		.byte	0x58
 19118 2359 88000000 		.4byte	.LVL118
 19119 235d 8C000000 		.4byte	.LVL119
 19120 2361 0100     		.2byte	0x1
 19121 2363 58       		.byte	0x58
 19122 2364 A4000000 		.4byte	.LVL121
 19123 2368 A8000000 		.4byte	.LVL122
 19124 236c 0100     		.2byte	0x1
 19125 236e 58       		.byte	0x58
 19126 236f BC000000 		.4byte	.LVL124
 19127 2373 C4000000 		.4byte	.LVL125
 19128 2377 0100     		.2byte	0x1
 19129 2379 58       		.byte	0x58
 19130 237a D4000000 		.4byte	.LVL127
 19131 237e E0000000 		.4byte	.LVL128
 19132 2382 0100     		.2byte	0x1
 19133 2384 58       		.byte	0x58
 19134 2385 EC000000 		.4byte	.LVL130
 19135 2389 F0000000 		.4byte	.LVL131
 19136 238d 0100     		.2byte	0x1
 19137 238f 58       		.byte	0x58
 19138 2390 FC000000 		.4byte	.LVL133
 19139 2394 00010000 		.4byte	.LVL134
 19140 2398 0100     		.2byte	0x1
 19141 239a 58       		.byte	0x58
 19142 239b 14010000 		.4byte	.LVL136
 19143 239f 20010000 		.4byte	.LVL137
 19144 23a3 0100     		.2byte	0x1
 19145 23a5 58       		.byte	0x58
 19146 23a6 20010000 		.4byte	.LVL137
 19147 23aa 8C010000 		.4byte	.LVL141
 19148 23ae 0100     		.2byte	0x1
 19149 23b0 54       		.byte	0x54
 19150 23b1 9C010000 		.4byte	.LVL143
 19151 23b5 A4010000 		.4byte	.LVL144
 19152 23b9 0100     		.2byte	0x1
ARM GAS  /var/folders/3j/4xdnk5197cv_b7cw3n33qk7r0000gn/T//ccLoT9Qc.s 			page 337


 19153 23bb 54       		.byte	0x54
 19154 23bc B8010000 		.4byte	.LVL146
 19155 23c0 BC010000 		.4byte	.LVL147
 19156 23c4 0100     		.2byte	0x1
 19157 23c6 54       		.byte	0x54
 19158 23c7 D0010000 		.4byte	.LVL149
 19159 23cb D8010000 		.4byte	.LVL150
 19160 23cf 0100     		.2byte	0x1
 19161 23d1 54       		.byte	0x54
 19162 23d2 E8010000 		.4byte	.LVL152
 19163 23d6 F0010000 		.4byte	.LVL153
 19164 23da 0100     		.2byte	0x1
 19165 23dc 54       		.byte	0x54
 19166 23dd 00020000 		.4byte	.LVL155
 19167 23e1 08020000 		.4byte	.LVL156
 19168 23e5 0100     		.2byte	0x1
 19169 23e7 54       		.byte	0x54
 19170 23e8 18020000 		.4byte	.LVL158
 19171 23ec 1C020000 		.4byte	.LVL159
 19172 23f0 0100     		.2byte	0x1
 19173 23f2 54       		.byte	0x54
 19174 23f3 30020000 		.4byte	.LVL161
 19175 23f7 34020000 		.4byte	.LVL162
 19176 23fb 0100     		.2byte	0x1
 19177 23fd 54       		.byte	0x54
 19178 23fe 38020000 		.4byte	.LVL163
 19179 2402 2C030000 		.4byte	.LVL180
 19180 2406 0100     		.2byte	0x1
 19181 2408 54       		.byte	0x54
 19182 2409 2C030000 		.4byte	.LVL180
 19183 240d 3C030000 		.4byte	.LVL182
 19184 2411 0600     		.2byte	0x6
 19185 2413 74       		.byte	0x74
 19186 2414 00       		.sleb128 0
 19187 2415 78       		.byte	0x78
 19188 2416 00       		.sleb128 0
 19189 2417 21       		.byte	0x21
 19190 2418 9F       		.byte	0x9f
 19191 2419 50030000 		.4byte	.LVL184
 19192 241d 5C030000 		.4byte	.LVL185
 19193 2421 0100     		.2byte	0x1
 19194 2423 54       		.byte	0x54
 19195 2424 68030000 		.4byte	.LVL187
 19196 2428 6C030000 		.4byte	.LVL188
 19197 242c 0100     		.2byte	0x1
 19198 242e 54       		.byte	0x54
 19199 242f 78030000 		.4byte	.LVL190
 19200 2433 80030000 		.4byte	.LVL191
 19201 2437 0100     		.2byte	0x1
 19202 2439 54       		.byte	0x54
 19203 243a 90030000 		.4byte	.LVL193
 19204 243e 9C030000 		.4byte	.LVL194
 19205 2442 0100     		.2byte	0x1
 19206 2444 54       		.byte	0x54
 19207 2445 A8030000 		.4byte	.LVL196
 19208 2449 AC030000 		.4byte	.LVL197
 19209 244d 0100     		.2byte	0x1
ARM GAS  /var/folders/3j/4xdnk5197cv_b7cw3n33qk7r0000gn/T//ccLoT9Qc.s 			page 338


 19210 244f 54       		.byte	0x54
 19211 2450 B8030000 		.4byte	.LVL199
 19212 2454 BC030000 		.4byte	.LVL200
 19213 2458 0100     		.2byte	0x1
 19214 245a 54       		.byte	0x54
 19215 245b D0030000 		.4byte	.LVL202
 19216 245f DC030000 		.4byte	.LVL203
 19217 2463 0100     		.2byte	0x1
 19218 2465 54       		.byte	0x54
 19219 2466 EC030000 		.4byte	.LVL205
 19220 246a F0030000 		.4byte	.LVL206
 19221 246e 0100     		.2byte	0x1
 19222 2470 54       		.byte	0x54
 19223 2471 38040000 		.4byte	.LVL211
 19224 2475 3C040000 		.4byte	.LVL212
 19225 2479 0100     		.2byte	0x1
 19226 247b 54       		.byte	0x54
 19227 247c 80040000 		.4byte	.LVL217
 19228 2480 84040000 		.4byte	.LVL218
 19229 2484 0100     		.2byte	0x1
 19230 2486 54       		.byte	0x54
 19231 2487 B4040000 		.4byte	.LVL221
 19232 248b B8040000 		.4byte	.LVL222
 19233 248f 0100     		.2byte	0x1
 19234 2491 54       		.byte	0x54
 19235 2492 BC040000 		.4byte	.LVL223
 19236 2496 D8040000 		.4byte	.LVL227
 19237 249a 0100     		.2byte	0x1
 19238 249c 54       		.byte	0x54
 19239 249d D8040000 		.4byte	.LVL227
 19240 24a1 E8040000 		.4byte	.LVL229
 19241 24a5 0600     		.2byte	0x6
 19242 24a7 74       		.byte	0x74
 19243 24a8 00       		.sleb128 0
 19244 24a9 79       		.byte	0x79
 19245 24aa 00       		.sleb128 0
 19246 24ab 21       		.byte	0x21
 19247 24ac 9F       		.byte	0x9f
 19248 24ad FC040000 		.4byte	.LVL231
 19249 24b1 08050000 		.4byte	.LVL232
 19250 24b5 0100     		.2byte	0x1
 19251 24b7 54       		.byte	0x54
 19252 24b8 14050000 		.4byte	.LVL234
 19253 24bc 18050000 		.4byte	.LVL235
 19254 24c0 0100     		.2byte	0x1
 19255 24c2 54       		.byte	0x54
 19256 24c3 24050000 		.4byte	.LVL237
 19257 24c7 2C050000 		.4byte	.LVL238
 19258 24cb 0100     		.2byte	0x1
 19259 24cd 54       		.byte	0x54
 19260 24ce 3C050000 		.4byte	.LVL240
 19261 24d2 48050000 		.4byte	.LVL241
 19262 24d6 0100     		.2byte	0x1
 19263 24d8 54       		.byte	0x54
 19264 24d9 54050000 		.4byte	.LVL243
 19265 24dd 58050000 		.4byte	.LVL244
 19266 24e1 0100     		.2byte	0x1
ARM GAS  /var/folders/3j/4xdnk5197cv_b7cw3n33qk7r0000gn/T//ccLoT9Qc.s 			page 339


 19267 24e3 54       		.byte	0x54
 19268 24e4 64050000 		.4byte	.LVL246
 19269 24e8 68050000 		.4byte	.LVL247
 19270 24ec 0100     		.2byte	0x1
 19271 24ee 54       		.byte	0x54
 19272 24ef 80050000 		.4byte	.LVL249
 19273 24f3 84050000 		.4byte	.LVL250
 19274 24f7 0100     		.2byte	0x1
 19275 24f9 54       		.byte	0x54
 19276 24fa D0050000 		.4byte	.LVL252
 19277 24fe D4050000 		.4byte	.LVL253
 19278 2502 0100     		.2byte	0x1
 19279 2504 54       		.byte	0x54
 19280 2505 E0050000 		.4byte	.LVL255
 19281 2509 E8050000 		.4byte	.LVL256
 19282 250d 0100     		.2byte	0x1
 19283 250f 54       		.byte	0x54
 19284 2510 24060000 		.4byte	.LVL258
 19285 2514 2C060000 		.4byte	.LVL259
 19286 2518 0100     		.2byte	0x1
 19287 251a 54       		.byte	0x54
 19288 251b 5C060000 		.4byte	.LVL261
 19289 251f 60060000 		.4byte	.LVL262
 19290 2523 0100     		.2byte	0x1
 19291 2525 54       		.byte	0x54
 19292 2526 6C060000 		.4byte	.LVL264
 19293 252a 74060000 		.4byte	.LVL265
 19294 252e 0100     		.2byte	0x1
 19295 2530 54       		.byte	0x54
 19296 2531 A0060000 		.4byte	.LVL267
 19297 2535 AC060000 		.4byte	.LVL268
 19298 2539 0100     		.2byte	0x1
 19299 253b 54       		.byte	0x54
 19300 253c DC060000 		.4byte	.LVL270
 19301 2540 E0060000 		.4byte	.LVL271
 19302 2544 0100     		.2byte	0x1
 19303 2546 54       		.byte	0x54
 19304 2547 EC060000 		.4byte	.LVL273
 19305 254b F4060000 		.4byte	.LVL274
 19306 254f 0100     		.2byte	0x1
 19307 2551 54       		.byte	0x54
 19308 2552 1C070000 		.4byte	.LVL276
 19309 2556 24070000 		.4byte	.LVL277
 19310 255a 0100     		.2byte	0x1
 19311 255c 54       		.byte	0x54
 19312 255d 38070000 		.4byte	.LVL278
 19313 2561 68070000 		.4byte	.LVL281
 19314 2565 0100     		.2byte	0x1
 19315 2567 54       		.byte	0x54
 19316 2568 68070000 		.4byte	.LVL281
 19317 256c 78070000 		.4byte	.LVL283
 19318 2570 0600     		.2byte	0x6
 19319 2572 74       		.byte	0x74
 19320 2573 00       		.sleb128 0
 19321 2574 78       		.byte	0x78
 19322 2575 00       		.sleb128 0
 19323 2576 21       		.byte	0x21
ARM GAS  /var/folders/3j/4xdnk5197cv_b7cw3n33qk7r0000gn/T//ccLoT9Qc.s 			page 340


 19324 2577 9F       		.byte	0x9f
 19325 2578 90070000 		.4byte	.LVL285
 19326 257c A8070000 		.4byte	.LVL286
 19327 2580 0100     		.2byte	0x1
 19328 2582 54       		.byte	0x54
 19329 2583 C0070000 		.4byte	.LVL288
 19330 2587 C4070000 		.4byte	.LVL289
 19331 258b 0100     		.2byte	0x1
 19332 258d 54       		.byte	0x54
 19333 258e D0070000 		.4byte	.LVL291
 19334 2592 D8070000 		.4byte	.LVL292
 19335 2596 0100     		.2byte	0x1
 19336 2598 54       		.byte	0x54
 19337 2599 EC070000 		.4byte	.LVL294
 19338 259d FC070000 		.4byte	.LVL295
 19339 25a1 0100     		.2byte	0x1
 19340 25a3 54       		.byte	0x54
 19341 25a4 20080000 		.4byte	.LVL297
 19342 25a8 24080000 		.4byte	.LVL298
 19343 25ac 0100     		.2byte	0x1
 19344 25ae 54       		.byte	0x54
 19345 25af 30080000 		.4byte	.LVL300
 19346 25b3 38080000 		.4byte	.LVL301
 19347 25b7 0100     		.2byte	0x1
 19348 25b9 54       		.byte	0x54
 19349 25ba 4C080000 		.4byte	.LVL303
 19350 25be 54080000 		.4byte	.LVL304
 19351 25c2 0100     		.2byte	0x1
 19352 25c4 54       		.byte	0x54
 19353 25c5 5C080000 		.4byte	.LVL305
 19354 25c9 68080000 		.4byte	.LFE10
 19355 25cd 0100     		.2byte	0x1
 19356 25cf 54       		.byte	0x54
 19357 25d0 00000000 		.4byte	0
 19358 25d4 00000000 		.4byte	0
 19359              	.LLST56:
 19360 25d8 00000000 		.4byte	.LVL105
 19361 25dc 24000000 		.4byte	.LVL107
 19362 25e0 0200     		.2byte	0x2
 19363 25e2 30       		.byte	0x30
 19364 25e3 9F       		.byte	0x9f
 19365 25e4 30000000 		.4byte	.LVL108
 19366 25e8 40010000 		.4byte	.LVL138
 19367 25ec 0200     		.2byte	0x2
 19368 25ee 30       		.byte	0x30
 19369 25ef 9F       		.byte	0x9f
 19370 25f0 40010000 		.4byte	.LVL138
 19371 25f4 54070000 		.4byte	.LVL279
 19372 25f8 0300     		.2byte	0x3
 19373 25fa 91       		.byte	0x91
 19374 25fb 987F     		.sleb128 -104
 19375 25fd 54070000 		.4byte	.LVL279
 19376 2601 C0070000 		.4byte	.LVL288
 19377 2605 0200     		.2byte	0x2
 19378 2607 30       		.byte	0x30
 19379 2608 9F       		.byte	0x9f
 19380 2609 00000000 		.4byte	0
ARM GAS  /var/folders/3j/4xdnk5197cv_b7cw3n33qk7r0000gn/T//ccLoT9Qc.s 			page 341


 19381 260d 00000000 		.4byte	0
 19382              	.LLST57:
 19383 2611 00000000 		.4byte	.LVL105
 19384 2615 24000000 		.4byte	.LVL107
 19385 2619 0200     		.2byte	0x2
 19386 261b 30       		.byte	0x30
 19387 261c 9F       		.byte	0x9f
 19388 261d 30000000 		.4byte	.LVL108
 19389 2621 40010000 		.4byte	.LVL138
 19390 2625 0200     		.2byte	0x2
 19391 2627 30       		.byte	0x30
 19392 2628 9F       		.byte	0x9f
 19393 2629 40010000 		.4byte	.LVL138
 19394 262d 54070000 		.4byte	.LVL279
 19395 2631 0300     		.2byte	0x3
 19396 2633 91       		.byte	0x91
 19397 2634 9C7F     		.sleb128 -100
 19398 2636 54070000 		.4byte	.LVL279
 19399 263a C0070000 		.4byte	.LVL288
 19400 263e 0200     		.2byte	0x2
 19401 2640 30       		.byte	0x30
 19402 2641 9F       		.byte	0x9f
 19403 2642 00000000 		.4byte	0
 19404 2646 00000000 		.4byte	0
 19405              	.LLST58:
 19406 264a 1C000000 		.4byte	.LVL106
 19407 264e C4020000 		.4byte	.LVL171
 19408 2652 0200     		.2byte	0x2
 19409 2654 30       		.byte	0x30
 19410 2655 9F       		.byte	0x9f
 19411 2656 C4020000 		.4byte	.LVL171
 19412 265a C8020000 		.4byte	.LVL172
 19413 265e 0400     		.2byte	0x4
 19414 2660 78       		.byte	0x78
 19415 2661 804E     		.sleb128 -6400
 19416 2663 9F       		.byte	0x9f
 19417 2664 C8020000 		.4byte	.LVL172
 19418 2668 D0020000 		.4byte	.LVL173
 19419 266c 0100     		.2byte	0x1
 19420 266e 58       		.byte	0x58
 19421 266f F8020000 		.4byte	.LVL174
 19422 2673 68080000 		.4byte	.LFE10
 19423 2677 0200     		.2byte	0x2
 19424 2679 30       		.byte	0x30
 19425 267a 9F       		.byte	0x9f
 19426 267b 00000000 		.4byte	0
 19427 267f 00000000 		.4byte	0
 19428              	.LLST59:
 19429 2683 1C000000 		.4byte	.LVL106
 19430 2687 C4020000 		.4byte	.LVL171
 19431 268b 0200     		.2byte	0x2
 19432 268d 30       		.byte	0x30
 19433 268e 9F       		.byte	0x9f
 19434 268f C4020000 		.4byte	.LVL171
 19435 2693 C8020000 		.4byte	.LVL172
 19436 2697 0B00     		.2byte	0xb
 19437 2699 78       		.byte	0x78
ARM GAS  /var/folders/3j/4xdnk5197cv_b7cw3n33qk7r0000gn/T//ccLoT9Qc.s 			page 342


 19438 269a 804E     		.sleb128 -6400
 19439 269c 0A       		.byte	0xa
 19440 269d E803     		.2byte	0x3e8
 19441 269f 1E       		.byte	0x1e
 19442 26a0 34       		.byte	0x34
 19443 26a1 25       		.byte	0x25
 19444 26a2 1F       		.byte	0x1f
 19445 26a3 9F       		.byte	0x9f
 19446 26a4 C8020000 		.4byte	.LVL172
 19447 26a8 D0020000 		.4byte	.LVL173
 19448 26ac 0A00     		.2byte	0xa
 19449 26ae 78       		.byte	0x78
 19450 26af 00       		.sleb128 0
 19451 26b0 0A       		.byte	0xa
 19452 26b1 E803     		.2byte	0x3e8
 19453 26b3 1E       		.byte	0x1e
 19454 26b4 34       		.byte	0x34
 19455 26b5 25       		.byte	0x25
 19456 26b6 1F       		.byte	0x1f
 19457 26b7 9F       		.byte	0x9f
 19458 26b8 F8020000 		.4byte	.LVL174
 19459 26bc 68080000 		.4byte	.LFE10
 19460 26c0 0200     		.2byte	0x2
 19461 26c2 30       		.byte	0x30
 19462 26c3 9F       		.byte	0x9f
 19463 26c4 00000000 		.4byte	0
 19464 26c8 00000000 		.4byte	0
 19465              	.LLST60:
 19466 26cc 1C000000 		.4byte	.LVL106
 19467 26d0 24000000 		.4byte	.LVL107
 19468 26d4 0200     		.2byte	0x2
 19469 26d6 30       		.byte	0x30
 19470 26d7 9F       		.byte	0x9f
 19471 26d8 30000000 		.4byte	.LVL108
 19472 26dc 74010000 		.4byte	.LVL139
 19473 26e0 0200     		.2byte	0x2
 19474 26e2 30       		.byte	0x30
 19475 26e3 9F       		.byte	0x9f
 19476 26e4 74010000 		.4byte	.LVL139
 19477 26e8 C8020000 		.4byte	.LVL172
 19478 26ec 0100     		.2byte	0x1
 19479 26ee 58       		.byte	0x58
 19480 26ef C8020000 		.4byte	.LVL172
 19481 26f3 D0020000 		.4byte	.LVL173
 19482 26f7 0400     		.2byte	0x4
 19483 26f9 78       		.byte	0x78
 19484 26fa 8032     		.sleb128 6400
 19485 26fc 9F       		.byte	0x9f
 19486 26fd F8020000 		.4byte	.LVL174
 19487 2701 18030000 		.4byte	.LVL178
 19488 2705 0100     		.2byte	0x1
 19489 2707 58       		.byte	0x58
 19490 2708 18030000 		.4byte	.LVL178
 19491 270c B4040000 		.4byte	.LVL221
 19492 2710 0200     		.2byte	0x2
 19493 2712 30       		.byte	0x30
 19494 2713 9F       		.byte	0x9f
ARM GAS  /var/folders/3j/4xdnk5197cv_b7cw3n33qk7r0000gn/T//ccLoT9Qc.s 			page 343


 19495 2714 B4040000 		.4byte	.LVL221
 19496 2718 C4040000 		.4byte	.LVL225
 19497 271c 0100     		.2byte	0x1
 19498 271e 58       		.byte	0x58
 19499 271f C4040000 		.4byte	.LVL225
 19500 2723 68080000 		.4byte	.LFE10
 19501 2727 0200     		.2byte	0x2
 19502 2729 30       		.byte	0x30
 19503 272a 9F       		.byte	0x9f
 19504 272b 00000000 		.4byte	0
 19505 272f 00000000 		.4byte	0
 19506              	.LLST61:
 19507 2733 1C000000 		.4byte	.LVL106
 19508 2737 24000000 		.4byte	.LVL107
 19509 273b 0200     		.2byte	0x2
 19510 273d 30       		.byte	0x30
 19511 273e 9F       		.byte	0x9f
 19512 273f 30000000 		.4byte	.LVL108
 19513 2743 74010000 		.4byte	.LVL139
 19514 2747 0200     		.2byte	0x2
 19515 2749 30       		.byte	0x30
 19516 274a 9F       		.byte	0x9f
 19517 274b 74010000 		.4byte	.LVL139
 19518 274f B0020000 		.4byte	.LVL169
 19519 2753 0100     		.2byte	0x1
 19520 2755 5A       		.byte	0x5a
 19521 2756 F8020000 		.4byte	.LVL174
 19522 275a 18030000 		.4byte	.LVL178
 19523 275e 0100     		.2byte	0x1
 19524 2760 5A       		.byte	0x5a
 19525 2761 18030000 		.4byte	.LVL178
 19526 2765 2C040000 		.4byte	.LVL209
 19527 2769 0200     		.2byte	0x2
 19528 276b 30       		.byte	0x30
 19529 276c 9F       		.byte	0x9f
 19530 276d 2C040000 		.4byte	.LVL209
 19531 2771 74040000 		.4byte	.LVL215
 19532 2775 0100     		.2byte	0x1
 19533 2777 58       		.byte	0x58
 19534 2778 74040000 		.4byte	.LVL215
 19535 277c C4040000 		.4byte	.LVL225
 19536 2780 0100     		.2byte	0x1
 19537 2782 5A       		.byte	0x5a
 19538 2783 C4040000 		.4byte	.LVL225
 19539 2787 68080000 		.4byte	.LFE10
 19540 278b 0200     		.2byte	0x2
 19541 278d 30       		.byte	0x30
 19542 278e 9F       		.byte	0x9f
 19543 278f 00000000 		.4byte	0
 19544 2793 00000000 		.4byte	0
 19545              	.LLST62:
 19546 2797 08030000 		.4byte	.LVL175
 19547 279b 10030000 		.4byte	.LVL176
 19548 279f 0400     		.2byte	0x4
 19549 27a1 75       		.byte	0x75
 19550 27a2 F301     		.sleb128 243
 19551 27a4 9F       		.byte	0x9f
ARM GAS  /var/folders/3j/4xdnk5197cv_b7cw3n33qk7r0000gn/T//ccLoT9Qc.s 			page 344


 19552 27a5 10030000 		.4byte	.LVL176
 19553 27a9 13030000 		.4byte	.LVL177-1
 19554 27ad 0100     		.2byte	0x1
 19555 27af 50       		.byte	0x50
 19556 27b0 13030000 		.4byte	.LVL177-1
 19557 27b4 18030000 		.4byte	.LVL178
 19558 27b8 0400     		.2byte	0x4
 19559 27ba 75       		.byte	0x75
 19560 27bb F301     		.sleb128 243
 19561 27bd 9F       		.byte	0x9f
 19562 27be 00000000 		.4byte	0
 19563 27c2 00000000 		.4byte	0
 19564              	.LLST63:
 19565 27c6 1C000000 		.4byte	.LVL106
 19566 27ca C0020000 		.4byte	.LVL170
 19567 27ce 0200     		.2byte	0x2
 19568 27d0 30       		.byte	0x30
 19569 27d1 9F       		.byte	0x9f
 19570 27d2 F8020000 		.4byte	.LVL174
 19571 27d6 68080000 		.4byte	.LFE10
 19572 27da 0200     		.2byte	0x2
 19573 27dc 30       		.byte	0x30
 19574 27dd 9F       		.byte	0x9f
 19575 27de 00000000 		.4byte	0
 19576 27e2 00000000 		.4byte	0
 19577              	.LLST64:
 19578 27e6 68020000 		.4byte	.LVL164
 19579 27ea 70020000 		.4byte	.LVL165
 19580 27ee 0200     		.2byte	0x2
 19581 27f0 30       		.byte	0x30
 19582 27f1 9F       		.byte	0x9f
 19583 27f2 70020000 		.4byte	.LVL165
 19584 27f6 74020000 		.4byte	.LVL166
 19585 27fa 0800     		.2byte	0x8
 19586 27fc 72       		.byte	0x72
 19587 27fd 00       		.sleb128 0
 19588 27fe 91       		.byte	0x91
 19589 27ff 7C       		.sleb128 -4
 19590 2800 1C       		.byte	0x1c
 19591 2801 23       		.byte	0x23
 19592 2802 49       		.uleb128 0x49
 19593 2803 9F       		.byte	0x9f
 19594 2804 74020000 		.4byte	.LVL166
 19595 2808 78020000 		.4byte	.LVL167
 19596 280c 0800     		.2byte	0x8
 19597 280e 72       		.byte	0x72
 19598 280f 00       		.sleb128 0
 19599 2810 91       		.byte	0x91
 19600 2811 7C       		.sleb128 -4
 19601 2812 1C       		.byte	0x1c
 19602 2813 23       		.byte	0x23
 19603 2814 48       		.uleb128 0x48
 19604 2815 9F       		.byte	0x9f
 19605 2816 78020000 		.4byte	.LVL167
 19606 281a 80020000 		.4byte	.LVL168
 19607 281e 0800     		.2byte	0x8
 19608 2820 72       		.byte	0x72
ARM GAS  /var/folders/3j/4xdnk5197cv_b7cw3n33qk7r0000gn/T//ccLoT9Qc.s 			page 345


 19609 2821 00       		.sleb128 0
 19610 2822 91       		.byte	0x91
 19611 2823 7C       		.sleb128 -4
 19612 2824 1C       		.byte	0x1c
 19613 2825 23       		.byte	0x23
 19614 2826 49       		.uleb128 0x49
 19615 2827 9F       		.byte	0x9f
 19616 2828 00000000 		.4byte	0
 19617 282c 00000000 		.4byte	0
 19618              	.LLST50:
 19619 2830 00000000 		.4byte	.LVL93
 19620 2834 17000000 		.4byte	.LVL94-1
 19621 2838 0100     		.2byte	0x1
 19622 283a 50       		.byte	0x50
 19623 283b 17000000 		.4byte	.LVL94-1
 19624 283f 7C000000 		.4byte	.LFE9
 19625 2843 0100     		.2byte	0x1
 19626 2845 56       		.byte	0x56
 19627 2846 00000000 		.4byte	0
 19628 284a 00000000 		.4byte	0
 19629              	.LLST51:
 19630 284e 00000000 		.4byte	.LVL93
 19631 2852 18000000 		.4byte	.LVL94
 19632 2856 0200     		.2byte	0x2
 19633 2858 30       		.byte	0x30
 19634 2859 9F       		.byte	0x9f
 19635 285a 18000000 		.4byte	.LVL94
 19636 285e 3C000000 		.4byte	.LVL98
 19637 2862 0100     		.2byte	0x1
 19638 2864 50       		.byte	0x50
 19639 2865 48000000 		.4byte	.LVL100
 19640 2869 54000000 		.4byte	.LVL101
 19641 286d 0100     		.2byte	0x1
 19642 286f 50       		.byte	0x50
 19643 2870 54000000 		.4byte	.LVL101
 19644 2874 64000000 		.4byte	.LVL102
 19645 2878 0100     		.2byte	0x1
 19646 287a 55       		.byte	0x55
 19647 287b 64000000 		.4byte	.LVL102
 19648 287f 68000000 		.4byte	.LVL103
 19649 2883 0600     		.2byte	0x6
 19650 2885 70       		.byte	0x70
 19651 2886 00       		.sleb128 0
 19652 2887 75       		.byte	0x75
 19653 2888 00       		.sleb128 0
 19654 2889 21       		.byte	0x21
 19655 288a 9F       		.byte	0x9f
 19656 288b 74000000 		.4byte	.LVL104
 19657 288f 7C000000 		.4byte	.LFE9
 19658 2893 0100     		.2byte	0x1
 19659 2895 50       		.byte	0x50
 19660 2896 00000000 		.4byte	0
 19661 289a 00000000 		.4byte	0
 19662              	.LLST52:
 19663 289e 28000000 		.4byte	.LVL95
 19664 28a2 2C000000 		.4byte	.LVL96
 19665 28a6 0700     		.2byte	0x7
ARM GAS  /var/folders/3j/4xdnk5197cv_b7cw3n33qk7r0000gn/T//ccLoT9Qc.s 			page 346


 19666 28a8 0A       		.byte	0xa
 19667 28a9 D107     		.2byte	0x7d1
 19668 28ab 74       		.byte	0x74
 19669 28ac 00       		.sleb128 0
 19670 28ad 1C       		.byte	0x1c
 19671 28ae 9F       		.byte	0x9f
 19672 28af 2C000000 		.4byte	.LVL96
 19673 28b3 40000000 		.4byte	.LVL99
 19674 28b7 0700     		.2byte	0x7
 19675 28b9 0A       		.byte	0xa
 19676 28ba D007     		.2byte	0x7d0
 19677 28bc 74       		.byte	0x74
 19678 28bd 00       		.sleb128 0
 19679 28be 1C       		.byte	0x1c
 19680 28bf 9F       		.byte	0x9f
 19681 28c0 40000000 		.4byte	.LVL99
 19682 28c4 54000000 		.4byte	.LVL101
 19683 28c8 0700     		.2byte	0x7
 19684 28ca 0A       		.byte	0xa
 19685 28cb D107     		.2byte	0x7d1
 19686 28cd 74       		.byte	0x74
 19687 28ce 00       		.sleb128 0
 19688 28cf 1C       		.byte	0x1c
 19689 28d0 9F       		.byte	0x9f
 19690 28d1 74000000 		.4byte	.LVL104
 19691 28d5 7C000000 		.4byte	.LFE9
 19692 28d9 0700     		.2byte	0x7
 19693 28db 0A       		.byte	0xa
 19694 28dc D007     		.2byte	0x7d0
 19695 28de 74       		.byte	0x74
 19696 28df 00       		.sleb128 0
 19697 28e0 1C       		.byte	0x1c
 19698 28e1 9F       		.byte	0x9f
 19699 28e2 00000000 		.4byte	0
 19700 28e6 00000000 		.4byte	0
 19701              	.LLST46:
 19702 28ea 00000000 		.4byte	.LVL80
 19703 28ee 3C000000 		.4byte	.LVL86
 19704 28f2 0100     		.2byte	0x1
 19705 28f4 50       		.byte	0x50
 19706 28f5 3C000000 		.4byte	.LVL86
 19707 28f9 5C000000 		.4byte	.LVL91
 19708 28fd 0400     		.2byte	0x4
 19709 28ff F3       		.byte	0xf3
 19710 2900 01       		.uleb128 0x1
 19711 2901 50       		.byte	0x50
 19712 2902 9F       		.byte	0x9f
 19713 2903 5C000000 		.4byte	.LVL91
 19714 2907 60000000 		.4byte	.LVL92
 19715 290b 0100     		.2byte	0x1
 19716 290d 50       		.byte	0x50
 19717 290e 60000000 		.4byte	.LVL92
 19718 2912 68000000 		.4byte	.LFE8
 19719 2916 0400     		.2byte	0x4
 19720 2918 F3       		.byte	0xf3
 19721 2919 01       		.uleb128 0x1
 19722 291a 50       		.byte	0x50
ARM GAS  /var/folders/3j/4xdnk5197cv_b7cw3n33qk7r0000gn/T//ccLoT9Qc.s 			page 347


 19723 291b 9F       		.byte	0x9f
 19724 291c 00000000 		.4byte	0
 19725 2920 00000000 		.4byte	0
 19726              	.LLST47:
 19727 2924 00000000 		.4byte	.LVL80
 19728 2928 14000000 		.4byte	.LVL81
 19729 292c 0100     		.2byte	0x1
 19730 292e 51       		.byte	0x51
 19731 292f 14000000 		.4byte	.LVL81
 19732 2933 68000000 		.4byte	.LFE8
 19733 2937 0400     		.2byte	0x4
 19734 2939 F3       		.byte	0xf3
 19735 293a 01       		.uleb128 0x1
 19736 293b 51       		.byte	0x51
 19737 293c 9F       		.byte	0x9f
 19738 293d 00000000 		.4byte	0
 19739 2941 00000000 		.4byte	0
 19740              	.LLST48:
 19741 2945 00000000 		.4byte	.LVL80
 19742 2949 60000000 		.4byte	.LVL92
 19743 294d 0200     		.2byte	0x2
 19744 294f 30       		.byte	0x30
 19745 2950 9F       		.byte	0x9f
 19746 2951 00000000 		.4byte	0
 19747 2955 00000000 		.4byte	0
 19748              	.LLST49:
 19749 2959 18000000 		.4byte	.LVL82
 19750 295d 5C000000 		.4byte	.LVL91
 19751 2961 0100     		.2byte	0x1
 19752 2963 51       		.byte	0x51
 19753 2964 00000000 		.4byte	0
 19754 2968 00000000 		.4byte	0
 19755              	.LLST36:
 19756 296c 00000000 		.4byte	.LVL55
 19757 2970 20000000 		.4byte	.LVL57
 19758 2974 0100     		.2byte	0x1
 19759 2976 50       		.byte	0x50
 19760 2977 20000000 		.4byte	.LVL57
 19761 297b 60000000 		.4byte	.LFE4
 19762 297f 0100     		.2byte	0x1
 19763 2981 55       		.byte	0x55
 19764 2982 00000000 		.4byte	0
 19765 2986 00000000 		.4byte	0
 19766              	.LLST37:
 19767 298a 00000000 		.4byte	.LVL55
 19768 298e 20000000 		.4byte	.LVL57
 19769 2992 0200     		.2byte	0x2
 19770 2994 30       		.byte	0x30
 19771 2995 9F       		.byte	0x9f
 19772 2996 48000000 		.4byte	.LVL60
 19773 299a 4C000000 		.4byte	.LVL61
 19774 299e 0100     		.2byte	0x1
 19775 29a0 50       		.byte	0x50
 19776 29a1 50000000 		.4byte	.LVL62
 19777 29a5 58000000 		.4byte	.LVL63
 19778 29a9 0100     		.2byte	0x1
 19779 29ab 50       		.byte	0x50
ARM GAS  /var/folders/3j/4xdnk5197cv_b7cw3n33qk7r0000gn/T//ccLoT9Qc.s 			page 348


 19780 29ac 00000000 		.4byte	0
 19781 29b0 00000000 		.4byte	0
 19782              	.LLST38:
 19783 29b4 1C000000 		.4byte	.LVL56
 19784 29b8 20000000 		.4byte	.LVL57
 19785 29bc 0200     		.2byte	0x2
 19786 29be 30       		.byte	0x30
 19787 29bf 9F       		.byte	0x9f
 19788 29c0 20000000 		.4byte	.LVL57
 19789 29c4 30000000 		.4byte	.LVL58
 19790 29c8 0700     		.2byte	0x7
 19791 29ca 0A       		.byte	0xa
 19792 29cb D107     		.2byte	0x7d1
 19793 29cd 74       		.byte	0x74
 19794 29ce 00       		.sleb128 0
 19795 29cf 1C       		.byte	0x1c
 19796 29d0 9F       		.byte	0x9f
 19797 29d1 30000000 		.4byte	.LVL58
 19798 29d5 48000000 		.4byte	.LVL60
 19799 29d9 0700     		.2byte	0x7
 19800 29db 0A       		.byte	0xa
 19801 29dc D007     		.2byte	0x7d0
 19802 29de 74       		.byte	0x74
 19803 29df 00       		.sleb128 0
 19804 29e0 1C       		.byte	0x1c
 19805 29e1 9F       		.byte	0x9f
 19806 29e2 48000000 		.4byte	.LVL60
 19807 29e6 50000000 		.4byte	.LVL62
 19808 29ea 0700     		.2byte	0x7
 19809 29ec 0A       		.byte	0xa
 19810 29ed D107     		.2byte	0x7d1
 19811 29ef 74       		.byte	0x74
 19812 29f0 00       		.sleb128 0
 19813 29f1 1C       		.byte	0x1c
 19814 29f2 9F       		.byte	0x9f
 19815 29f3 58000000 		.4byte	.LVL63
 19816 29f7 60000000 		.4byte	.LFE4
 19817 29fb 0700     		.2byte	0x7
 19818 29fd 0A       		.byte	0xa
 19819 29fe D007     		.2byte	0x7d0
 19820 2a00 74       		.byte	0x74
 19821 2a01 00       		.sleb128 0
 19822 2a02 1C       		.byte	0x1c
 19823 2a03 9F       		.byte	0x9f
 19824 2a04 00000000 		.4byte	0
 19825 2a08 00000000 		.4byte	0
 19826              	.LLST30:
 19827 2a0c 00000000 		.4byte	.LVL47
 19828 2a10 14000000 		.4byte	.LVL50
 19829 2a14 0100     		.2byte	0x1
 19830 2a16 50       		.byte	0x50
 19831 2a17 14000000 		.4byte	.LVL50
 19832 2a1b 34000000 		.4byte	.LFE3
 19833 2a1f 0400     		.2byte	0x4
 19834 2a21 F3       		.byte	0xf3
 19835 2a22 01       		.uleb128 0x1
 19836 2a23 50       		.byte	0x50
ARM GAS  /var/folders/3j/4xdnk5197cv_b7cw3n33qk7r0000gn/T//ccLoT9Qc.s 			page 349


 19837 2a24 9F       		.byte	0x9f
 19838 2a25 00000000 		.4byte	0
 19839 2a29 00000000 		.4byte	0
 19840              	.LLST31:
 19841 2a2d 00000000 		.4byte	.LVL47
 19842 2a31 14000000 		.4byte	.LVL50
 19843 2a35 0100     		.2byte	0x1
 19844 2a37 51       		.byte	0x51
 19845 2a38 14000000 		.4byte	.LVL50
 19846 2a3c 34000000 		.4byte	.LFE3
 19847 2a40 0400     		.2byte	0x4
 19848 2a42 F3       		.byte	0xf3
 19849 2a43 01       		.uleb128 0x1
 19850 2a44 51       		.byte	0x51
 19851 2a45 9F       		.byte	0x9f
 19852 2a46 00000000 		.4byte	0
 19853 2a4a 00000000 		.4byte	0
 19854              	.LLST32:
 19855 2a4e 18000000 		.4byte	.LVL51
 19856 2a52 2C000000 		.4byte	.LVL54
 19857 2a56 0100     		.2byte	0x1
 19858 2a58 52       		.byte	0x52
 19859 2a59 00000000 		.4byte	0
 19860 2a5d 00000000 		.4byte	0
 19861              	.LLST33:
 19862 2a61 14000000 		.4byte	.LVL50
 19863 2a65 1C000000 		.4byte	.LVL52
 19864 2a69 0800     		.2byte	0x8
 19865 2a6b F3       		.byte	0xf3
 19866 2a6c 01       		.uleb128 0x1
 19867 2a6d 50       		.byte	0x50
 19868 2a6e 20       		.byte	0x20
 19869 2a6f 70       		.byte	0x70
 19870 2a70 00       		.sleb128 0
 19871 2a71 22       		.byte	0x22
 19872 2a72 9F       		.byte	0x9f
 19873 2a73 1C000000 		.4byte	.LVL52
 19874 2a77 2C000000 		.4byte	.LVL54
 19875 2a7b 0700     		.2byte	0x7
 19876 2a7d 70       		.byte	0x70
 19877 2a7e 00       		.sleb128 0
 19878 2a7f F3       		.byte	0xf3
 19879 2a80 01       		.uleb128 0x1
 19880 2a81 50       		.byte	0x50
 19881 2a82 1C       		.byte	0x1c
 19882 2a83 9F       		.byte	0x9f
 19883 2a84 00000000 		.4byte	0
 19884 2a88 00000000 		.4byte	0
 19885              	.LLST34:
 19886 2a8c 00000000 		.4byte	.LVL47
 19887 2a90 04000000 		.4byte	.LVL48
 19888 2a94 0500     		.2byte	0x5
 19889 2a96 71       		.byte	0x71
 19890 2a97 00       		.sleb128 0
 19891 2a98 31       		.byte	0x31
 19892 2a99 25       		.byte	0x25
 19893 2a9a 9F       		.byte	0x9f
ARM GAS  /var/folders/3j/4xdnk5197cv_b7cw3n33qk7r0000gn/T//ccLoT9Qc.s 			page 350


 19894 2a9b 04000000 		.4byte	.LVL48
 19895 2a9f 10000000 		.4byte	.LVL49
 19896 2aa3 0100     		.2byte	0x1
 19897 2aa5 5C       		.byte	0x5c
 19898 2aa6 10000000 		.4byte	.LVL49
 19899 2aaa 14000000 		.4byte	.LVL50
 19900 2aae 0500     		.2byte	0x5
 19901 2ab0 71       		.byte	0x71
 19902 2ab1 00       		.sleb128 0
 19903 2ab2 31       		.byte	0x31
 19904 2ab3 25       		.byte	0x25
 19905 2ab4 9F       		.byte	0x9f
 19906 2ab5 14000000 		.4byte	.LVL50
 19907 2ab9 34000000 		.4byte	.LFE3
 19908 2abd 0600     		.2byte	0x6
 19909 2abf F3       		.byte	0xf3
 19910 2ac0 01       		.uleb128 0x1
 19911 2ac1 51       		.byte	0x51
 19912 2ac2 31       		.byte	0x31
 19913 2ac3 25       		.byte	0x25
 19914 2ac4 9F       		.byte	0x9f
 19915 2ac5 00000000 		.4byte	0
 19916 2ac9 00000000 		.4byte	0
 19917              	.LLST35:
 19918 2acd 00000000 		.4byte	.LVL47
 19919 2ad1 14000000 		.4byte	.LVL50
 19920 2ad5 0200     		.2byte	0x2
 19921 2ad7 30       		.byte	0x30
 19922 2ad8 9F       		.byte	0x9f
 19923 2ad9 14000000 		.4byte	.LVL50
 19924 2add 18000000 		.4byte	.LVL51
 19925 2ae1 0900     		.2byte	0x9
 19926 2ae3 73       		.byte	0x73
 19927 2ae4 00       		.sleb128 0
 19928 2ae5 F3       		.byte	0xf3
 19929 2ae6 01       		.uleb128 0x1
 19930 2ae7 50       		.byte	0x50
 19931 2ae8 1C       		.byte	0x1c
 19932 2ae9 23       		.byte	0x23
 19933 2aea 01       		.uleb128 0x1
 19934 2aeb 9F       		.byte	0x9f
 19935 2aec 18000000 		.4byte	.LVL51
 19936 2af0 28000000 		.4byte	.LVL53
 19937 2af4 0700     		.2byte	0x7
 19938 2af6 73       		.byte	0x73
 19939 2af7 00       		.sleb128 0
 19940 2af8 F3       		.byte	0xf3
 19941 2af9 01       		.uleb128 0x1
 19942 2afa 50       		.byte	0x50
 19943 2afb 1C       		.byte	0x1c
 19944 2afc 9F       		.byte	0x9f
 19945 2afd 28000000 		.4byte	.LVL53
 19946 2b01 2C000000 		.4byte	.LVL54
 19947 2b05 0900     		.2byte	0x9
 19948 2b07 73       		.byte	0x73
 19949 2b08 00       		.sleb128 0
 19950 2b09 F3       		.byte	0xf3
ARM GAS  /var/folders/3j/4xdnk5197cv_b7cw3n33qk7r0000gn/T//ccLoT9Qc.s 			page 351


 19951 2b0a 01       		.uleb128 0x1
 19952 2b0b 50       		.byte	0x50
 19953 2b0c 1C       		.byte	0x1c
 19954 2b0d 23       		.byte	0x23
 19955 2b0e 01       		.uleb128 0x1
 19956 2b0f 9F       		.byte	0x9f
 19957 2b10 00000000 		.4byte	0
 19958 2b14 00000000 		.4byte	0
 19959              	.LLST0:
 19960 2b18 00000000 		.4byte	.LVL0
 19961 2b1c 04000000 		.4byte	.LVL1
 19962 2b20 0100     		.2byte	0x1
 19963 2b22 50       		.byte	0x50
 19964 2b23 04000000 		.4byte	.LVL1
 19965 2b27 10000000 		.4byte	.LVL2
 19966 2b2b 0300     		.2byte	0x3
 19967 2b2d 70       		.byte	0x70
 19968 2b2e 01       		.sleb128 1
 19969 2b2f 9F       		.byte	0x9f
 19970 2b30 10000000 		.4byte	.LVL2
 19971 2b34 3C000000 		.4byte	.LFE28
 19972 2b38 0400     		.2byte	0x4
 19973 2b3a F3       		.byte	0xf3
 19974 2b3b 01       		.uleb128 0x1
 19975 2b3c 50       		.byte	0x50
 19976 2b3d 9F       		.byte	0x9f
 19977 2b3e 00000000 		.4byte	0
 19978 2b42 00000000 		.4byte	0
 19979              	.LLST1:
 19980 2b46 30000000 		.4byte	.LVL7
 19981 2b4a 34000000 		.4byte	.LVL8
 19982 2b4e 0600     		.2byte	0x6
 19983 2b50 70       		.byte	0x70
 19984 2b51 00       		.sleb128 0
 19985 2b52 73       		.byte	0x73
 19986 2b53 00       		.sleb128 0
 19987 2b54 22       		.byte	0x22
 19988 2b55 9F       		.byte	0x9f
 19989 2b56 00000000 		.4byte	0
 19990 2b5a 00000000 		.4byte	0
 19991              	.LLST2:
 19992 2b5e 04000000 		.4byte	.LVL1
 19993 2b62 34000000 		.4byte	.LVL8
 19994 2b66 0100     		.2byte	0x1
 19995 2b68 50       		.byte	0x50
 19996 2b69 00000000 		.4byte	0
 19997 2b6d 00000000 		.4byte	0
 19998              	.LLST3:
 19999 2b71 04000000 		.4byte	.LVL1
 20000 2b75 10000000 		.4byte	.LVL2
 20001 2b79 0200     		.2byte	0x2
 20002 2b7b 30       		.byte	0x30
 20003 2b7c 9F       		.byte	0x9f
 20004 2b7d 10000000 		.4byte	.LVL2
 20005 2b81 1C000000 		.4byte	.LVL4
 20006 2b85 0100     		.2byte	0x1
 20007 2b87 53       		.byte	0x53
ARM GAS  /var/folders/3j/4xdnk5197cv_b7cw3n33qk7r0000gn/T//ccLoT9Qc.s 			page 352


 20008 2b88 24000000 		.4byte	.LVL5
 20009 2b8c 2C000000 		.4byte	.LVL6
 20010 2b90 0100     		.2byte	0x1
 20011 2b92 53       		.byte	0x53
 20012 2b93 00000000 		.4byte	0
 20013 2b97 00000000 		.4byte	0
 20014              	.LLST4:
 20015 2b9b 00000000 		.4byte	.LVL9
 20016 2b9f 27000000 		.4byte	.LVL11-1
 20017 2ba3 0100     		.2byte	0x1
 20018 2ba5 50       		.byte	0x50
 20019 2ba6 27000000 		.4byte	.LVL11-1
 20020 2baa 08010000 		.4byte	.LVL29
 20021 2bae 0100     		.2byte	0x1
 20022 2bb0 58       		.byte	0x58
 20023 2bb1 08010000 		.4byte	.LVL29
 20024 2bb5 13010000 		.4byte	.LVL32-1
 20025 2bb9 0100     		.2byte	0x1
 20026 2bbb 50       		.byte	0x50
 20027 2bbc 13010000 		.4byte	.LVL32-1
 20028 2bc0 A8010000 		.4byte	.LVL46
 20029 2bc4 0100     		.2byte	0x1
 20030 2bc6 58       		.byte	0x58
 20031 2bc7 A8010000 		.4byte	.LVL46
 20032 2bcb B4010000 		.4byte	.LFE29
 20033 2bcf 0100     		.2byte	0x1
 20034 2bd1 50       		.byte	0x50
 20035 2bd2 00000000 		.4byte	0
 20036 2bd6 00000000 		.4byte	0
 20037              	.LLST5:
 20038 2bda 00000000 		.4byte	.LVL9
 20039 2bde 24000000 		.4byte	.LVL10
 20040 2be2 0100     		.2byte	0x1
 20041 2be4 51       		.byte	0x51
 20042 2be5 24000000 		.4byte	.LVL10
 20043 2be9 08010000 		.4byte	.LVL29
 20044 2bed 0400     		.2byte	0x4
 20045 2bef F3       		.byte	0xf3
 20046 2bf0 01       		.uleb128 0x1
 20047 2bf1 51       		.byte	0x51
 20048 2bf2 9F       		.byte	0x9f
 20049 2bf3 08010000 		.4byte	.LVL29
 20050 2bf7 10010000 		.4byte	.LVL31
 20051 2bfb 0100     		.2byte	0x1
 20052 2bfd 51       		.byte	0x51
 20053 2bfe 10010000 		.4byte	.LVL31
 20054 2c02 A8010000 		.4byte	.LVL46
 20055 2c06 0400     		.2byte	0x4
 20056 2c08 F3       		.byte	0xf3
 20057 2c09 01       		.uleb128 0x1
 20058 2c0a 51       		.byte	0x51
 20059 2c0b 9F       		.byte	0x9f
 20060 2c0c A8010000 		.4byte	.LVL46
 20061 2c10 B4010000 		.4byte	.LFE29
 20062 2c14 0100     		.2byte	0x1
 20063 2c16 51       		.byte	0x51
 20064 2c17 00000000 		.4byte	0
ARM GAS  /var/folders/3j/4xdnk5197cv_b7cw3n33qk7r0000gn/T//ccLoT9Qc.s 			page 353


 20065 2c1b 00000000 		.4byte	0
 20066              	.LLST6:
 20067 2c1f 00000000 		.4byte	.LVL9
 20068 2c23 27000000 		.4byte	.LVL11-1
 20069 2c27 0100     		.2byte	0x1
 20070 2c29 52       		.byte	0x52
 20071 2c2a 27000000 		.4byte	.LVL11-1
 20072 2c2e 08010000 		.4byte	.LVL29
 20073 2c32 0100     		.2byte	0x1
 20074 2c34 57       		.byte	0x57
 20075 2c35 08010000 		.4byte	.LVL29
 20076 2c39 0C010000 		.4byte	.LVL30
 20077 2c3d 0100     		.2byte	0x1
 20078 2c3f 52       		.byte	0x52
 20079 2c40 0C010000 		.4byte	.LVL30
 20080 2c44 A8010000 		.4byte	.LVL46
 20081 2c48 0100     		.2byte	0x1
 20082 2c4a 57       		.byte	0x57
 20083 2c4b A8010000 		.4byte	.LVL46
 20084 2c4f B4010000 		.4byte	.LFE29
 20085 2c53 0100     		.2byte	0x1
 20086 2c55 52       		.byte	0x52
 20087 2c56 00000000 		.4byte	0
 20088 2c5a 00000000 		.4byte	0
 20089              	.LLST7:
 20090 2c5e 48000000 		.4byte	.LVL12
 20091 2c62 50000000 		.4byte	.LVL13
 20092 2c66 0100     		.2byte	0x1
 20093 2c68 50       		.byte	0x50
 20094 2c69 50000000 		.4byte	.LVL13
 20095 2c6d 5C000000 		.4byte	.LVL14
 20096 2c71 0100     		.2byte	0x1
 20097 2c73 54       		.byte	0x54
 20098 2c74 5C000000 		.4byte	.LVL14
 20099 2c78 68000000 		.4byte	.LVL15
 20100 2c7c 0100     		.2byte	0x1
 20101 2c7e 50       		.byte	0x50
 20102 2c7f 6C000000 		.4byte	.LVL16
 20103 2c83 8C000000 		.4byte	.LVL18
 20104 2c87 0100     		.2byte	0x1
 20105 2c89 50       		.byte	0x50
 20106 2c8a 9C000000 		.4byte	.LVL19
 20107 2c8e AC000000 		.4byte	.LVL21
 20108 2c92 0100     		.2byte	0x1
 20109 2c94 50       		.byte	0x50
 20110 2c95 F4000000 		.4byte	.LVL26
 20111 2c99 FC000000 		.4byte	.LVL27
 20112 2c9d 0100     		.2byte	0x1
 20113 2c9f 50       		.byte	0x50
 20114 2ca0 00010000 		.4byte	.LVL28
 20115 2ca4 08010000 		.4byte	.LVL29
 20116 2ca8 0100     		.2byte	0x1
 20117 2caa 54       		.byte	0x54
 20118 2cab 1C010000 		.4byte	.LVL33
 20119 2caf 7C010000 		.4byte	.LVL39
 20120 2cb3 0100     		.2byte	0x1
 20121 2cb5 54       		.byte	0x54
ARM GAS  /var/folders/3j/4xdnk5197cv_b7cw3n33qk7r0000gn/T//ccLoT9Qc.s 			page 354


 20122 2cb6 7C010000 		.4byte	.LVL39
 20123 2cba 88010000 		.4byte	.LVL40
 20124 2cbe 0100     		.2byte	0x1
 20125 2cc0 50       		.byte	0x50
 20126 2cc1 8C010000 		.4byte	.LVL41
 20127 2cc5 9C010000 		.4byte	.LVL44
 20128 2cc9 0100     		.2byte	0x1
 20129 2ccb 54       		.byte	0x54
 20130 2ccc 00000000 		.4byte	0
 20131 2cd0 00000000 		.4byte	0
 20132              	.LLST8:
 20133 2cd4 28000000 		.4byte	.LVL11
 20134 2cd8 50000000 		.4byte	.LVL13
 20135 2cdc 0200     		.2byte	0x2
 20136 2cde 30       		.byte	0x30
 20137 2cdf 9F       		.byte	0x9f
 20138 2ce0 5C000000 		.4byte	.LVL14
 20139 2ce4 88000000 		.4byte	.LVL17
 20140 2ce8 0200     		.2byte	0x2
 20141 2cea 30       		.byte	0x30
 20142 2ceb 9F       		.byte	0x9f
 20143 2cec 88000000 		.4byte	.LVL17
 20144 2cf0 8C000000 		.4byte	.LVL18
 20145 2cf4 0100     		.2byte	0x1
 20146 2cf6 56       		.byte	0x56
 20147 2cf7 34010000 		.4byte	.LVL34
 20148 2cfb 3C010000 		.4byte	.LVL35
 20149 2cff 2700     		.2byte	0x27
 20150 2d01 77       		.byte	0x77
 20151 2d02 00       		.sleb128 0
 20152 2d03 0A       		.byte	0xa
 20153 2d04 E803     		.2byte	0x3e8
 20154 2d06 1E       		.byte	0x1e
 20155 2d07 72       		.byte	0x72
 20156 2d08 00       		.sleb128 0
 20157 2d09 F7       		.byte	0xf7
 20158 2d0a 25       		.uleb128 0x25
 20159 2d0b 0A       		.byte	0xa
 20160 2d0c D007     		.2byte	0x7d0
 20161 2d0e F7       		.byte	0xf7
 20162 2d0f 25       		.uleb128 0x25
 20163 2d10 1B       		.byte	0x1b
 20164 2d11 F7       		.byte	0xf7
 20165 2d12 00       		.uleb128 0
 20166 2d13 22       		.byte	0x22
 20167 2d14 F7       		.byte	0xf7
 20168 2d15 25       		.uleb128 0x25
 20169 2d16 72       		.byte	0x72
 20170 2d17 00       		.sleb128 0
 20171 2d18 F7       		.byte	0xf7
 20172 2d19 25       		.uleb128 0x25
 20173 2d1a 0A       		.byte	0xa
 20174 2d1b E803     		.2byte	0x3e8
 20175 2d1d F7       		.byte	0xf7
 20176 2d1e 25       		.uleb128 0x25
 20177 2d1f 1B       		.byte	0x1b
 20178 2d20 F7       		.byte	0xf7
ARM GAS  /var/folders/3j/4xdnk5197cv_b7cw3n33qk7r0000gn/T//ccLoT9Qc.s 			page 355


 20179 2d21 00       		.uleb128 0
 20180 2d22 F7       		.byte	0xf7
 20181 2d23 25       		.uleb128 0x25
 20182 2d24 1B       		.byte	0x1b
 20183 2d25 F7       		.byte	0xf7
 20184 2d26 00       		.uleb128 0
 20185 2d27 9F       		.byte	0x9f
 20186 2d28 3C010000 		.4byte	.LVL35
 20187 2d2c 4F010000 		.4byte	.LVL36-1
 20188 2d30 3100     		.2byte	0x31
 20189 2d32 77       		.byte	0x77
 20190 2d33 00       		.sleb128 0
 20191 2d34 0A       		.byte	0xa
 20192 2d35 E803     		.2byte	0x3e8
 20193 2d37 1E       		.byte	0x1e
 20194 2d38 73       		.byte	0x73
 20195 2d39 00       		.sleb128 0
 20196 2d3a 38       		.byte	0x38
 20197 2d3b 24       		.byte	0x24
 20198 2d3c 23       		.byte	0x23
 20199 2d3d F403     		.uleb128 0x1f4
 20200 2d3f F7       		.byte	0xf7
 20201 2d40 25       		.uleb128 0x25
 20202 2d41 0A       		.byte	0xa
 20203 2d42 D007     		.2byte	0x7d0
 20204 2d44 F7       		.byte	0xf7
 20205 2d45 25       		.uleb128 0x25
 20206 2d46 1B       		.byte	0x1b
 20207 2d47 F7       		.byte	0xf7
 20208 2d48 00       		.uleb128 0
 20209 2d49 22       		.byte	0x22
 20210 2d4a F7       		.byte	0xf7
 20211 2d4b 25       		.uleb128 0x25
 20212 2d4c 73       		.byte	0x73
 20213 2d4d 00       		.sleb128 0
 20214 2d4e 38       		.byte	0x38
 20215 2d4f 24       		.byte	0x24
 20216 2d50 23       		.byte	0x23
 20217 2d51 F403     		.uleb128 0x1f4
 20218 2d53 F7       		.byte	0xf7
 20219 2d54 25       		.uleb128 0x25
 20220 2d55 0A       		.byte	0xa
 20221 2d56 E803     		.2byte	0x3e8
 20222 2d58 F7       		.byte	0xf7
 20223 2d59 25       		.uleb128 0x25
 20224 2d5a 1B       		.byte	0x1b
 20225 2d5b F7       		.byte	0xf7
 20226 2d5c 00       		.uleb128 0
 20227 2d5d F7       		.byte	0xf7
 20228 2d5e 25       		.uleb128 0x25
 20229 2d5f 1B       		.byte	0x1b
 20230 2d60 F7       		.byte	0xf7
 20231 2d61 00       		.uleb128 0
 20232 2d62 9F       		.byte	0x9f
 20233 2d63 00000000 		.4byte	0
 20234 2d67 00000000 		.4byte	0
 20235              	.LLST9:
ARM GAS  /var/folders/3j/4xdnk5197cv_b7cw3n33qk7r0000gn/T//ccLoT9Qc.s 			page 356


 20236 2d6b DC000000 		.4byte	.LVL23
 20237 2d6f E0000000 		.4byte	.LVL24
 20238 2d73 0600     		.2byte	0x6
 20239 2d75 70       		.byte	0x70
 20240 2d76 00       		.sleb128 0
 20241 2d77 76       		.byte	0x76
 20242 2d78 00       		.sleb128 0
 20243 2d79 22       		.byte	0x22
 20244 2d7a 9F       		.byte	0x9f
 20245 2d7b E0000000 		.4byte	.LVL24
 20246 2d7f E8000000 		.4byte	.LVL25
 20247 2d83 0100     		.2byte	0x1
 20248 2d85 50       		.byte	0x50
 20249 2d86 9C010000 		.4byte	.LVL44
 20250 2d8a 9F010000 		.4byte	.LVL45-1
 20251 2d8e 0100     		.2byte	0x1
 20252 2d90 50       		.byte	0x50
 20253 2d91 00000000 		.4byte	0
 20254 2d95 00000000 		.4byte	0
 20255              	.LLST10:
 20256 2d99 A4000000 		.4byte	.LVL20
 20257 2d9d C0000000 		.4byte	.LVL22
 20258 2da1 0200     		.2byte	0x2
 20259 2da3 75       		.byte	0x75
 20260 2da4 00       		.sleb128 0
 20261 2da5 00000000 		.4byte	0
 20262 2da9 00000000 		.4byte	0
 20263              	.LLST11:
 20264 2dad A4000000 		.4byte	.LVL20
 20265 2db1 C0000000 		.4byte	.LVL22
 20266 2db5 0100     		.2byte	0x1
 20267 2db7 57       		.byte	0x57
 20268 2db8 00000000 		.4byte	0
 20269 2dbc 00000000 		.4byte	0
 20270              	.LLST12:
 20271 2dc0 A4000000 		.4byte	.LVL20
 20272 2dc4 C0000000 		.4byte	.LVL22
 20273 2dc8 0100     		.2byte	0x1
 20274 2dca 58       		.byte	0x58
 20275 2dcb 00000000 		.4byte	0
 20276 2dcf 00000000 		.4byte	0
 20277              	.LLST13:
 20278 2dd3 A4000000 		.4byte	.LVL20
 20279 2dd7 C0000000 		.4byte	.LVL22
 20280 2ddb 0200     		.2byte	0x2
 20281 2ddd 30       		.byte	0x30
 20282 2dde 9F       		.byte	0x9f
 20283 2ddf 00000000 		.4byte	0
 20284 2de3 00000000 		.4byte	0
 20285              	.LLST14:
 20286 2de7 A4000000 		.4byte	.LVL20
 20287 2deb 08010000 		.4byte	.LVL29
 20288 2def 0A00     		.2byte	0xa
 20289 2df1 9E       		.byte	0x9e
 20290 2df2 08       		.uleb128 0x8
 20291 2df3 77060000 		.8byte	0x677
 20291      00000000 
ARM GAS  /var/folders/3j/4xdnk5197cv_b7cw3n33qk7r0000gn/T//ccLoT9Qc.s 			page 357


 20292 2dfb 9C010000 		.4byte	.LVL44
 20293 2dff A8010000 		.4byte	.LVL46
 20294 2e03 0A00     		.2byte	0xa
 20295 2e05 9E       		.byte	0x9e
 20296 2e06 08       		.uleb128 0x8
 20297 2e07 77060000 		.8byte	0x677
 20297      00000000 
 20298 2e0f 00000000 		.4byte	0
 20299 2e13 00000000 		.4byte	0
 20300              	.LLST15:
 20301 2e17 A4000000 		.4byte	.LVL20
 20302 2e1b 08010000 		.4byte	.LVL29
 20303 2e1f 0400     		.2byte	0x4
 20304 2e21 0A       		.byte	0xa
 20305 2e22 0009     		.2byte	0x900
 20306 2e24 9F       		.byte	0x9f
 20307 2e25 9C010000 		.4byte	.LVL44
 20308 2e29 A8010000 		.4byte	.LVL46
 20309 2e2d 0400     		.2byte	0x4
 20310 2e2f 0A       		.byte	0xa
 20311 2e30 0009     		.2byte	0x900
 20312 2e32 9F       		.byte	0x9f
 20313 2e33 00000000 		.4byte	0
 20314 2e37 00000000 		.4byte	0
 20315              	.LLST17:
 20316 2e3b DC000000 		.4byte	.LVL23
 20317 2e3f E8000000 		.4byte	.LVL25
 20318 2e43 0200     		.2byte	0x2
 20319 2e45 30       		.byte	0x30
 20320 2e46 9F       		.byte	0x9f
 20321 2e47 9C010000 		.4byte	.LVL44
 20322 2e4b A8010000 		.4byte	.LVL46
 20323 2e4f 0200     		.2byte	0x2
 20324 2e51 30       		.byte	0x30
 20325 2e52 9F       		.byte	0x9f
 20326 2e53 00000000 		.4byte	0
 20327 2e57 00000000 		.4byte	0
 20328              	.LLST18:
 20329 2e5b DC000000 		.4byte	.LVL23
 20330 2e5f 08010000 		.4byte	.LVL29
 20331 2e63 0200     		.2byte	0x2
 20332 2e65 30       		.byte	0x30
 20333 2e66 9F       		.byte	0x9f
 20334 2e67 9C010000 		.4byte	.LVL44
 20335 2e6b A8010000 		.4byte	.LVL46
 20336 2e6f 0200     		.2byte	0x2
 20337 2e71 30       		.byte	0x30
 20338 2e72 9F       		.byte	0x9f
 20339 2e73 00000000 		.4byte	0
 20340 2e77 00000000 		.4byte	0
 20341              	.LLST20:
 20342 2e7b 1C010000 		.4byte	.LVL33
 20343 2e7f 34010000 		.4byte	.LVL34
 20344 2e83 0200     		.2byte	0x2
 20345 2e85 91       		.byte	0x91
 20346 2e86 4D       		.sleb128 -51
 20347 2e87 00000000 		.4byte	0
ARM GAS  /var/folders/3j/4xdnk5197cv_b7cw3n33qk7r0000gn/T//ccLoT9Qc.s 			page 358


 20348 2e8b 00000000 		.4byte	0
 20349              	.LLST21:
 20350 2e8f 1C010000 		.4byte	.LVL33
 20351 2e93 34010000 		.4byte	.LVL34
 20352 2e97 0100     		.2byte	0x1
 20353 2e99 57       		.byte	0x57
 20354 2e9a 00000000 		.4byte	0
 20355 2e9e 00000000 		.4byte	0
 20356              	.LLST22:
 20357 2ea2 1C010000 		.4byte	.LVL33
 20358 2ea6 34010000 		.4byte	.LVL34
 20359 2eaa 0100     		.2byte	0x1
 20360 2eac 58       		.byte	0x58
 20361 2ead 00000000 		.4byte	0
 20362 2eb1 00000000 		.4byte	0
 20363              	.LLST23:
 20364 2eb5 1C010000 		.4byte	.LVL33
 20365 2eb9 34010000 		.4byte	.LVL34
 20366 2ebd 0200     		.2byte	0x2
 20367 2ebf 30       		.byte	0x30
 20368 2ec0 9F       		.byte	0x9f
 20369 2ec1 00000000 		.4byte	0
 20370 2ec5 00000000 		.4byte	0
 20371              	.LLST24:
 20372 2ec9 1C010000 		.4byte	.LVL33
 20373 2ecd 9C010000 		.4byte	.LVL44
 20374 2ed1 0A00     		.2byte	0xa
 20375 2ed3 9E       		.byte	0x9e
 20376 2ed4 08       		.uleb128 0x8
 20377 2ed5 77060000 		.8byte	0x677
 20377      00000000 
 20378 2edd 00000000 		.4byte	0
 20379 2ee1 00000000 		.4byte	0
 20380              	.LLST25:
 20381 2ee5 1C010000 		.4byte	.LVL33
 20382 2ee9 9C010000 		.4byte	.LVL44
 20383 2eed 0400     		.2byte	0x4
 20384 2eef 0A       		.byte	0xa
 20385 2ef0 0009     		.2byte	0x900
 20386 2ef2 9F       		.byte	0x9f
 20387 2ef3 00000000 		.4byte	0
 20388 2ef7 00000000 		.4byte	0
 20389              	.LLST26:
 20390 2efb 54010000 		.4byte	.LVL37
 20391 2eff 5C010000 		.4byte	.LVL38
 20392 2f03 0100     		.2byte	0x1
 20393 2f05 50       		.byte	0x50
 20394 2f06 94010000 		.4byte	.LVL42
 20395 2f0a 97010000 		.4byte	.LVL43-1
 20396 2f0e 0100     		.2byte	0x1
 20397 2f10 50       		.byte	0x50
 20398 2f11 00000000 		.4byte	0
 20399 2f15 00000000 		.4byte	0
 20400              	.LLST27:
 20401 2f19 54010000 		.4byte	.LVL37
 20402 2f1d 5C010000 		.4byte	.LVL38
 20403 2f21 0200     		.2byte	0x2
ARM GAS  /var/folders/3j/4xdnk5197cv_b7cw3n33qk7r0000gn/T//ccLoT9Qc.s 			page 359


 20404 2f23 30       		.byte	0x30
 20405 2f24 9F       		.byte	0x9f
 20406 2f25 94010000 		.4byte	.LVL42
 20407 2f29 9C010000 		.4byte	.LVL44
 20408 2f2d 0200     		.2byte	0x2
 20409 2f2f 30       		.byte	0x30
 20410 2f30 9F       		.byte	0x9f
 20411 2f31 00000000 		.4byte	0
 20412 2f35 00000000 		.4byte	0
 20413              	.LLST28:
 20414 2f39 54010000 		.4byte	.LVL37
 20415 2f3d 9C010000 		.4byte	.LVL44
 20416 2f41 0200     		.2byte	0x2
 20417 2f43 30       		.byte	0x30
 20418 2f44 9F       		.byte	0x9f
 20419 2f45 00000000 		.4byte	0
 20420 2f49 00000000 		.4byte	0
 20421              	.LLST39:
 20422 2f4d 00000000 		.4byte	.LVL64
 20423 2f51 04000000 		.4byte	.LVL65
 20424 2f55 0100     		.2byte	0x1
 20425 2f57 50       		.byte	0x50
 20426 2f58 04000000 		.4byte	.LVL65
 20427 2f5c 10000000 		.4byte	.LFE5
 20428 2f60 0400     		.2byte	0x4
 20429 2f62 F3       		.byte	0xf3
 20430 2f63 01       		.uleb128 0x1
 20431 2f64 50       		.byte	0x50
 20432 2f65 9F       		.byte	0x9f
 20433 2f66 00000000 		.4byte	0
 20434 2f6a 00000000 		.4byte	0
 20435              	.LLST40:
 20436 2f6e 00000000 		.4byte	.LVL64
 20437 2f72 04000000 		.4byte	.LVL65
 20438 2f76 0500     		.2byte	0x5
 20439 2f78 70       		.byte	0x70
 20440 2f79 01       		.sleb128 1
 20441 2f7a 31       		.byte	0x31
 20442 2f7b 24       		.byte	0x24
 20443 2f7c 9F       		.byte	0x9f
 20444 2f7d 04000000 		.4byte	.LVL65
 20445 2f81 10000000 		.4byte	.LFE5
 20446 2f85 0800     		.2byte	0x8
 20447 2f87 F3       		.byte	0xf3
 20448 2f88 01       		.uleb128 0x1
 20449 2f89 50       		.byte	0x50
 20450 2f8a 23       		.byte	0x23
 20451 2f8b 01       		.uleb128 0x1
 20452 2f8c 31       		.byte	0x31
 20453 2f8d 24       		.byte	0x24
 20454 2f8e 9F       		.byte	0x9f
 20455 2f8f 00000000 		.4byte	0
 20456 2f93 00000000 		.4byte	0
 20457              	.LLST41:
 20458 2f97 00000000 		.4byte	.LVL66
 20459 2f9b 04000000 		.4byte	.LVL67
 20460 2f9f 0100     		.2byte	0x1
ARM GAS  /var/folders/3j/4xdnk5197cv_b7cw3n33qk7r0000gn/T//ccLoT9Qc.s 			page 360


 20461 2fa1 50       		.byte	0x50
 20462 2fa2 04000000 		.4byte	.LVL67
 20463 2fa6 10000000 		.4byte	.LFE6
 20464 2faa 0400     		.2byte	0x4
 20465 2fac F3       		.byte	0xf3
 20466 2fad 01       		.uleb128 0x1
 20467 2fae 50       		.byte	0x50
 20468 2faf 9F       		.byte	0x9f
 20469 2fb0 00000000 		.4byte	0
 20470 2fb4 00000000 		.4byte	0
 20471              	.LLST42:
 20472 2fb8 00000000 		.4byte	.LVL66
 20473 2fbc 04000000 		.4byte	.LVL67
 20474 2fc0 0700     		.2byte	0x7
 20475 2fc2 70       		.byte	0x70
 20476 2fc3 00       		.sleb128 0
 20477 2fc4 31       		.byte	0x31
 20478 2fc5 25       		.byte	0x25
 20479 2fc6 31       		.byte	0x31
 20480 2fc7 1C       		.byte	0x1c
 20481 2fc8 9F       		.byte	0x9f
 20482 2fc9 04000000 		.4byte	.LVL67
 20483 2fcd 10000000 		.4byte	.LFE6
 20484 2fd1 0800     		.2byte	0x8
 20485 2fd3 F3       		.byte	0xf3
 20486 2fd4 01       		.uleb128 0x1
 20487 2fd5 50       		.byte	0x50
 20488 2fd6 31       		.byte	0x31
 20489 2fd7 25       		.byte	0x25
 20490 2fd8 31       		.byte	0x31
 20491 2fd9 1C       		.byte	0x1c
 20492 2fda 9F       		.byte	0x9f
 20493 2fdb 00000000 		.4byte	0
 20494 2fdf 00000000 		.4byte	0
 20495              	.LLST43:
 20496 2fe3 00000000 		.4byte	.LVL68
 20497 2fe7 34000000 		.4byte	.LVL74
 20498 2feb 0100     		.2byte	0x1
 20499 2fed 50       		.byte	0x50
 20500 2fee 34000000 		.4byte	.LVL74
 20501 2ff2 44000000 		.4byte	.LVL77
 20502 2ff6 0100     		.2byte	0x1
 20503 2ff8 50       		.byte	0x50
 20504 2ff9 48000000 		.4byte	.LVL78
 20505 2ffd 50000000 		.4byte	.LVL79
 20506 3001 0100     		.2byte	0x1
 20507 3003 50       		.byte	0x50
 20508 3004 50000000 		.4byte	.LVL79
 20509 3008 54000000 		.4byte	.LFE7
 20510 300c 0400     		.2byte	0x4
 20511 300e F3       		.byte	0xf3
 20512 300f 01       		.uleb128 0x1
 20513 3010 50       		.byte	0x50
 20514 3011 9F       		.byte	0x9f
 20515 3012 00000000 		.4byte	0
 20516 3016 00000000 		.4byte	0
 20517              	.LLST44:
ARM GAS  /var/folders/3j/4xdnk5197cv_b7cw3n33qk7r0000gn/T//ccLoT9Qc.s 			page 361


 20518 301a 00000000 		.4byte	.LVL68
 20519 301e 24000000 		.4byte	.LVL72
 20520 3022 0200     		.2byte	0x2
 20521 3024 30       		.byte	0x30
 20522 3025 9F       		.byte	0x9f
 20523 3026 24000000 		.4byte	.LVL72
 20524 302a 48000000 		.4byte	.LVL78
 20525 302e 0100     		.2byte	0x1
 20526 3030 52       		.byte	0x52
 20527 3031 48000000 		.4byte	.LVL78
 20528 3035 54000000 		.4byte	.LFE7
 20529 3039 0200     		.2byte	0x2
 20530 303b 30       		.byte	0x30
 20531 303c 9F       		.byte	0x9f
 20532 303d 00000000 		.4byte	0
 20533 3041 00000000 		.4byte	0
 20534              	.LLST45:
 20535 3045 00000000 		.4byte	.LVL68
 20536 3049 0C000000 		.4byte	.LVL69
 20537 304d 0400     		.2byte	0x4
 20538 304f 40       		.byte	0x40
 20539 3050 4A       		.byte	0x4a
 20540 3051 24       		.byte	0x24
 20541 3052 9F       		.byte	0x9f
 20542 3053 0C000000 		.4byte	.LVL69
 20543 3057 20000000 		.4byte	.LVL71
 20544 305b 0100     		.2byte	0x1
 20545 305d 53       		.byte	0x53
 20546 305e 24000000 		.4byte	.LVL72
 20547 3062 38000000 		.4byte	.LVL75
 20548 3066 0100     		.2byte	0x1
 20549 3068 53       		.byte	0x53
 20550 3069 38000000 		.4byte	.LVL75
 20551 306d 3C000000 		.4byte	.LVL76
 20552 3071 0500     		.2byte	0x5
 20553 3073 73       		.byte	0x73
 20554 3074 00       		.sleb128 0
 20555 3075 32       		.byte	0x32
 20556 3076 25       		.byte	0x25
 20557 3077 9F       		.byte	0x9f
 20558 3078 3C000000 		.4byte	.LVL76
 20559 307c 54000000 		.4byte	.LFE7
 20560 3080 0100     		.2byte	0x1
 20561 3082 53       		.byte	0x53
 20562 3083 00000000 		.4byte	0
 20563 3087 00000000 		.4byte	0
 20564              	.LLST65:
 20565 308b 00000000 		.4byte	.LVL306
 20566 308f 04000000 		.4byte	.LVL307
 20567 3093 0100     		.2byte	0x1
 20568 3095 50       		.byte	0x50
 20569 3096 04000000 		.4byte	.LVL307
 20570 309a 14000000 		.4byte	.LFE11
 20571 309e 0400     		.2byte	0x4
 20572 30a0 F3       		.byte	0xf3
 20573 30a1 01       		.uleb128 0x1
 20574 30a2 50       		.byte	0x50
ARM GAS  /var/folders/3j/4xdnk5197cv_b7cw3n33qk7r0000gn/T//ccLoT9Qc.s 			page 362


 20575 30a3 9F       		.byte	0x9f
 20576 30a4 00000000 		.4byte	0
 20577 30a8 00000000 		.4byte	0
 20578              	.LLST66:
 20579 30ac 00000000 		.4byte	.LVL306
 20580 30b0 08000000 		.4byte	.LVL308
 20581 30b4 0100     		.2byte	0x1
 20582 30b6 51       		.byte	0x51
 20583 30b7 08000000 		.4byte	.LVL308
 20584 30bb 14000000 		.4byte	.LFE11
 20585 30bf 0400     		.2byte	0x4
 20586 30c1 F3       		.byte	0xf3
 20587 30c2 01       		.uleb128 0x1
 20588 30c3 51       		.byte	0x51
 20589 30c4 9F       		.byte	0x9f
 20590 30c5 00000000 		.4byte	0
 20591 30c9 00000000 		.4byte	0
 20592              	.LLST67:
 20593 30cd 00000000 		.4byte	.LVL306
 20594 30d1 08000000 		.4byte	.LVL308
 20595 30d5 0C00     		.2byte	0xc
 20596 30d7 71       		.byte	0x71
 20597 30d8 00       		.sleb128 0
 20598 30d9 08       		.byte	0x8
 20599 30da FF       		.byte	0xff
 20600 30db 1A       		.byte	0x1a
 20601 30dc 0C       		.byte	0xc
 20602 30dd 002F3A00 		.4byte	0x3a2f00
 20603 30e1 1E       		.byte	0x1e
 20604 30e2 9F       		.byte	0x9f
 20605 30e3 08000000 		.4byte	.LVL308
 20606 30e7 14000000 		.4byte	.LFE11
 20607 30eb 0D00     		.2byte	0xd
 20608 30ed F3       		.byte	0xf3
 20609 30ee 01       		.uleb128 0x1
 20610 30ef 51       		.byte	0x51
 20611 30f0 08       		.byte	0x8
 20612 30f1 FF       		.byte	0xff
 20613 30f2 1A       		.byte	0x1a
 20614 30f3 0C       		.byte	0xc
 20615 30f4 002F3A00 		.4byte	0x3a2f00
 20616 30f8 1E       		.byte	0x1e
 20617 30f9 9F       		.byte	0x9f
 20618 30fa 00000000 		.4byte	0
 20619 30fe 00000000 		.4byte	0
 20620              	.LLST68:
 20621 3102 00000000 		.4byte	.LVL309
 20622 3106 0B000000 		.4byte	.LVL310-1
 20623 310a 0100     		.2byte	0x1
 20624 310c 50       		.byte	0x50
 20625 310d 0B000000 		.4byte	.LVL310-1
 20626 3111 0C000000 		.4byte	.LFE12
 20627 3115 0400     		.2byte	0x4
 20628 3117 F3       		.byte	0xf3
 20629 3118 01       		.uleb128 0x1
 20630 3119 50       		.byte	0x50
 20631 311a 9F       		.byte	0x9f
ARM GAS  /var/folders/3j/4xdnk5197cv_b7cw3n33qk7r0000gn/T//ccLoT9Qc.s 			page 363


 20632 311b 00000000 		.4byte	0
 20633 311f 00000000 		.4byte	0
 20634              	.LLST69:
 20635 3123 00000000 		.4byte	.LVL311
 20636 3127 08000000 		.4byte	.LVL312
 20637 312b 0100     		.2byte	0x1
 20638 312d 50       		.byte	0x50
 20639 312e 08000000 		.4byte	.LVL312
 20640 3132 14000000 		.4byte	.LFE13
 20641 3136 0400     		.2byte	0x4
 20642 3138 F3       		.byte	0xf3
 20643 3139 01       		.uleb128 0x1
 20644 313a 50       		.byte	0x50
 20645 313b 9F       		.byte	0x9f
 20646 313c 00000000 		.4byte	0
 20647 3140 00000000 		.4byte	0
 20648              	.LLST70:
 20649 3144 00000000 		.4byte	.LVL311
 20650 3148 08000000 		.4byte	.LVL312
 20651 314c 1500     		.2byte	0x15
 20652 314e 70       		.byte	0x70
 20653 314f 00       		.sleb128 0
 20654 3150 08       		.byte	0x8
 20655 3151 FF       		.byte	0xff
 20656 3152 1A       		.byte	0x1a
 20657 3153 0A       		.byte	0xa
 20658 3154 FFFF     		.2byte	0xffff
 20659 3156 1A       		.byte	0x1a
 20660 3157 70       		.byte	0x70
 20661 3158 00       		.sleb128 0
 20662 3159 38       		.byte	0x38
 20663 315a 25       		.byte	0x25
 20664 315b 0A       		.byte	0xa
 20665 315c FFFF     		.2byte	0xffff
 20666 315e 1A       		.byte	0x1a
 20667 315f 24       		.byte	0x24
 20668 3160 23       		.byte	0x23
 20669 3161 01       		.uleb128 0x1
 20670 3162 9F       		.byte	0x9f
 20671 3163 08000000 		.4byte	.LVL312
 20672 3167 14000000 		.4byte	.LFE13
 20673 316b 1700     		.2byte	0x17
 20674 316d F3       		.byte	0xf3
 20675 316e 01       		.uleb128 0x1
 20676 316f 50       		.byte	0x50
 20677 3170 08       		.byte	0x8
 20678 3171 FF       		.byte	0xff
 20679 3172 1A       		.byte	0x1a
 20680 3173 0A       		.byte	0xa
 20681 3174 FFFF     		.2byte	0xffff
 20682 3176 1A       		.byte	0x1a
 20683 3177 F3       		.byte	0xf3
 20684 3178 01       		.uleb128 0x1
 20685 3179 50       		.byte	0x50
 20686 317a 38       		.byte	0x38
 20687 317b 25       		.byte	0x25
 20688 317c 0A       		.byte	0xa
ARM GAS  /var/folders/3j/4xdnk5197cv_b7cw3n33qk7r0000gn/T//ccLoT9Qc.s 			page 364


 20689 317d FFFF     		.2byte	0xffff
 20690 317f 1A       		.byte	0x1a
 20691 3180 24       		.byte	0x24
 20692 3181 23       		.byte	0x23
 20693 3182 01       		.uleb128 0x1
 20694 3183 9F       		.byte	0x9f
 20695 3184 00000000 		.4byte	0
 20696 3188 00000000 		.4byte	0
 20697              	.LLST71:
 20698 318c 00000000 		.4byte	.LVL313
 20699 3190 2C000000 		.4byte	.LVL318
 20700 3194 0100     		.2byte	0x1
 20701 3196 50       		.byte	0x50
 20702 3197 2C000000 		.4byte	.LVL318
 20703 319b 40000000 		.4byte	.LFE14
 20704 319f 0400     		.2byte	0x4
 20705 31a1 F3       		.byte	0xf3
 20706 31a2 01       		.uleb128 0x1
 20707 31a3 50       		.byte	0x50
 20708 31a4 9F       		.byte	0x9f
 20709 31a5 00000000 		.4byte	0
 20710 31a9 00000000 		.4byte	0
 20711              	.LLST72:
 20712 31ad 00000000 		.4byte	.LVL313
 20713 31b1 28000000 		.4byte	.LVL317
 20714 31b5 0100     		.2byte	0x1
 20715 31b7 51       		.byte	0x51
 20716 31b8 28000000 		.4byte	.LVL317
 20717 31bc 40000000 		.4byte	.LFE14
 20718 31c0 0400     		.2byte	0x4
 20719 31c2 F3       		.byte	0xf3
 20720 31c3 01       		.uleb128 0x1
 20721 31c4 51       		.byte	0x51
 20722 31c5 9F       		.byte	0x9f
 20723 31c6 00000000 		.4byte	0
 20724 31ca 00000000 		.4byte	0
 20725              	.LLST73:
 20726 31ce 00000000 		.4byte	.LVL313
 20727 31d2 08000000 		.4byte	.LVL314
 20728 31d6 0100     		.2byte	0x1
 20729 31d8 52       		.byte	0x52
 20730 31d9 08000000 		.4byte	.LVL314
 20731 31dd 40000000 		.4byte	.LFE14
 20732 31e1 0400     		.2byte	0x4
 20733 31e3 F3       		.byte	0xf3
 20734 31e4 01       		.uleb128 0x1
 20735 31e5 52       		.byte	0x52
 20736 31e6 9F       		.byte	0x9f
 20737 31e7 00000000 		.4byte	0
 20738 31eb 00000000 		.4byte	0
 20739              	.LLST74:
 20740 31ef 18000000 		.4byte	.LVL315
 20741 31f3 24000000 		.4byte	.LVL316
 20742 31f7 0D00     		.2byte	0xd
 20743 31f9 72       		.byte	0x72
 20744 31fa 00       		.sleb128 0
 20745 31fb F7       		.byte	0xf7
ARM GAS  /var/folders/3j/4xdnk5197cv_b7cw3n33qk7r0000gn/T//ccLoT9Qc.s 			page 365


 20746 31fc 25       		.uleb128 0x25
 20747 31fd 0A       		.byte	0xa
 20748 31fe E803     		.2byte	0x3e8
 20749 3200 F7       		.byte	0xf7
 20750 3201 25       		.uleb128 0x25
 20751 3202 1B       		.byte	0x1b
 20752 3203 F7       		.byte	0xf7
 20753 3204 00       		.uleb128 0
 20754 3205 9F       		.byte	0x9f
 20755 3206 00000000 		.4byte	0
 20756 320a 00000000 		.4byte	0
 20757              	.LLST75:
 20758 320e 00000000 		.4byte	.LVL313
 20759 3212 18000000 		.4byte	.LVL315
 20760 3216 0200     		.2byte	0x2
 20761 3218 30       		.byte	0x30
 20762 3219 9F       		.byte	0x9f
 20763 321a 18000000 		.4byte	.LVL315
 20764 321e 24000000 		.4byte	.LVL316
 20765 3222 2700     		.2byte	0x27
 20766 3224 71       		.byte	0x71
 20767 3225 00       		.sleb128 0
 20768 3226 0A       		.byte	0xa
 20769 3227 E803     		.2byte	0x3e8
 20770 3229 1E       		.byte	0x1e
 20771 322a 72       		.byte	0x72
 20772 322b 00       		.sleb128 0
 20773 322c F7       		.byte	0xf7
 20774 322d 25       		.uleb128 0x25
 20775 322e 0A       		.byte	0xa
 20776 322f D007     		.2byte	0x7d0
 20777 3231 F7       		.byte	0xf7
 20778 3232 25       		.uleb128 0x25
 20779 3233 1B       		.byte	0x1b
 20780 3234 F7       		.byte	0xf7
 20781 3235 00       		.uleb128 0
 20782 3236 22       		.byte	0x22
 20783 3237 F7       		.byte	0xf7
 20784 3238 25       		.uleb128 0x25
 20785 3239 72       		.byte	0x72
 20786 323a 00       		.sleb128 0
 20787 323b F7       		.byte	0xf7
 20788 323c 25       		.uleb128 0x25
 20789 323d 0A       		.byte	0xa
 20790 323e E803     		.2byte	0x3e8
 20791 3240 F7       		.byte	0xf7
 20792 3241 25       		.uleb128 0x25
 20793 3242 1B       		.byte	0x1b
 20794 3243 F7       		.byte	0xf7
 20795 3244 00       		.uleb128 0
 20796 3245 F7       		.byte	0xf7
 20797 3246 25       		.uleb128 0x25
 20798 3247 1B       		.byte	0x1b
 20799 3248 F7       		.byte	0xf7
 20800 3249 00       		.uleb128 0
 20801 324a 9F       		.byte	0x9f
 20802 324b 00000000 		.4byte	0
ARM GAS  /var/folders/3j/4xdnk5197cv_b7cw3n33qk7r0000gn/T//ccLoT9Qc.s 			page 366


 20803 324f 00000000 		.4byte	0
 20804              	.LLST76:
 20805 3253 00000000 		.4byte	.LVL320
 20806 3257 10000000 		.4byte	.LVL322
 20807 325b 0100     		.2byte	0x1
 20808 325d 50       		.byte	0x50
 20809 325e 10000000 		.4byte	.LVL322
 20810 3262 38000000 		.4byte	.LFE15
 20811 3266 0400     		.2byte	0x4
 20812 3268 F3       		.byte	0xf3
 20813 3269 01       		.uleb128 0x1
 20814 326a 50       		.byte	0x50
 20815 326b 9F       		.byte	0x9f
 20816 326c 00000000 		.4byte	0
 20817 3270 00000000 		.4byte	0
 20818              	.LLST77:
 20819 3274 00000000 		.4byte	.LVL320
 20820 3278 08000000 		.4byte	.LVL321
 20821 327c 0100     		.2byte	0x1
 20822 327e 52       		.byte	0x52
 20823 327f 08000000 		.4byte	.LVL321
 20824 3283 38000000 		.4byte	.LFE15
 20825 3287 0400     		.2byte	0x4
 20826 3289 F3       		.byte	0xf3
 20827 328a 01       		.uleb128 0x1
 20828 328b 52       		.byte	0x52
 20829 328c 9F       		.byte	0x9f
 20830 328d 00000000 		.4byte	0
 20831 3291 00000000 		.4byte	0
 20832              	.LLST78:
 20833 3295 00000000 		.4byte	.LVL320
 20834 3299 08000000 		.4byte	.LVL321
 20835 329d 1900     		.2byte	0x19
 20836 329f 72       		.byte	0x72
 20837 32a0 00       		.sleb128 0
 20838 32a1 08       		.byte	0x8
 20839 32a2 FF       		.byte	0xff
 20840 32a3 1A       		.byte	0x1a
 20841 32a4 0C       		.byte	0xc
 20842 32a5 002F3A00 		.4byte	0x3a2f00
 20843 32a9 1E       		.byte	0x1e
 20844 32aa 23       		.byte	0x23
 20845 32ab F403     		.uleb128 0x1f4
 20846 32ad F7       		.byte	0xf7
 20847 32ae 25       		.uleb128 0x25
 20848 32af 0A       		.byte	0xa
 20849 32b0 E803     		.2byte	0x3e8
 20850 32b2 F7       		.byte	0xf7
 20851 32b3 25       		.uleb128 0x25
 20852 32b4 1B       		.byte	0x1b
 20853 32b5 F7       		.byte	0xf7
 20854 32b6 00       		.uleb128 0
 20855 32b7 9F       		.byte	0x9f
 20856 32b8 08000000 		.4byte	.LVL321
 20857 32bc 38000000 		.4byte	.LFE15
 20858 32c0 1A00     		.2byte	0x1a
 20859 32c2 F3       		.byte	0xf3
ARM GAS  /var/folders/3j/4xdnk5197cv_b7cw3n33qk7r0000gn/T//ccLoT9Qc.s 			page 367


 20860 32c3 01       		.uleb128 0x1
 20861 32c4 52       		.byte	0x52
 20862 32c5 08       		.byte	0x8
 20863 32c6 FF       		.byte	0xff
 20864 32c7 1A       		.byte	0x1a
 20865 32c8 0C       		.byte	0xc
 20866 32c9 002F3A00 		.4byte	0x3a2f00
 20867 32cd 1E       		.byte	0x1e
 20868 32ce 23       		.byte	0x23
 20869 32cf F403     		.uleb128 0x1f4
 20870 32d1 F7       		.byte	0xf7
 20871 32d2 25       		.uleb128 0x25
 20872 32d3 0A       		.byte	0xa
 20873 32d4 E803     		.2byte	0x3e8
 20874 32d6 F7       		.byte	0xf7
 20875 32d7 25       		.uleb128 0x25
 20876 32d8 1B       		.byte	0x1b
 20877 32d9 F7       		.byte	0xf7
 20878 32da 00       		.uleb128 0
 20879 32db 9F       		.byte	0x9f
 20880 32dc 00000000 		.4byte	0
 20881 32e0 00000000 		.4byte	0
 20882              	.LLST79:
 20883 32e4 00000000 		.4byte	.LVL320
 20884 32e8 08000000 		.4byte	.LVL321
 20885 32ec 2D00     		.2byte	0x2d
 20886 32ee 72       		.byte	0x72
 20887 32ef 00       		.sleb128 0
 20888 32f0 08       		.byte	0x8
 20889 32f1 FF       		.byte	0xff
 20890 32f2 1A       		.byte	0x1a
 20891 32f3 0C       		.byte	0xc
 20892 32f4 002F3A00 		.4byte	0x3a2f00
 20893 32f8 1E       		.byte	0x1e
 20894 32f9 23       		.byte	0x23
 20895 32fa F403     		.uleb128 0x1f4
 20896 32fc F7       		.byte	0xf7
 20897 32fd 25       		.uleb128 0x25
 20898 32fe 0A       		.byte	0xa
 20899 32ff E803     		.2byte	0x3e8
 20900 3301 F7       		.byte	0xf7
 20901 3302 25       		.uleb128 0x25
 20902 3303 1B       		.byte	0x1b
 20903 3304 F7       		.byte	0xf7
 20904 3305 00       		.uleb128 0
 20905 3306 71       		.byte	0x71
 20906 3307 00       		.sleb128 0
 20907 3308 0A       		.byte	0xa
 20908 3309 FFFF     		.2byte	0xffff
 20909 330b 1A       		.byte	0x1a
 20910 330c 1E       		.byte	0x1e
 20911 330d 23       		.byte	0x23
 20912 330e F403     		.uleb128 0x1f4
 20913 3310 F7       		.byte	0xf7
 20914 3311 25       		.uleb128 0x25
 20915 3312 0A       		.byte	0xa
 20916 3313 E803     		.2byte	0x3e8
ARM GAS  /var/folders/3j/4xdnk5197cv_b7cw3n33qk7r0000gn/T//ccLoT9Qc.s 			page 368


 20917 3315 F7       		.byte	0xf7
 20918 3316 25       		.uleb128 0x25
 20919 3317 1B       		.byte	0x1b
 20920 3318 F7       		.byte	0xf7
 20921 3319 00       		.uleb128 0
 20922 331a 9F       		.byte	0x9f
 20923 331b 08000000 		.4byte	.LVL321
 20924 331f 38000000 		.4byte	.LFE15
 20925 3323 2E00     		.2byte	0x2e
 20926 3325 F3       		.byte	0xf3
 20927 3326 01       		.uleb128 0x1
 20928 3327 52       		.byte	0x52
 20929 3328 08       		.byte	0x8
 20930 3329 FF       		.byte	0xff
 20931 332a 1A       		.byte	0x1a
 20932 332b 0C       		.byte	0xc
 20933 332c 002F3A00 		.4byte	0x3a2f00
 20934 3330 1E       		.byte	0x1e
 20935 3331 23       		.byte	0x23
 20936 3332 F403     		.uleb128 0x1f4
 20937 3334 F7       		.byte	0xf7
 20938 3335 25       		.uleb128 0x25
 20939 3336 0A       		.byte	0xa
 20940 3337 E803     		.2byte	0x3e8
 20941 3339 F7       		.byte	0xf7
 20942 333a 25       		.uleb128 0x25
 20943 333b 1B       		.byte	0x1b
 20944 333c F7       		.byte	0xf7
 20945 333d 00       		.uleb128 0
 20946 333e 71       		.byte	0x71
 20947 333f 00       		.sleb128 0
 20948 3340 0A       		.byte	0xa
 20949 3341 FFFF     		.2byte	0xffff
 20950 3343 1A       		.byte	0x1a
 20951 3344 1E       		.byte	0x1e
 20952 3345 23       		.byte	0x23
 20953 3346 F403     		.uleb128 0x1f4
 20954 3348 F7       		.byte	0xf7
 20955 3349 25       		.uleb128 0x25
 20956 334a 0A       		.byte	0xa
 20957 334b E803     		.2byte	0x3e8
 20958 334d F7       		.byte	0xf7
 20959 334e 25       		.uleb128 0x25
 20960 334f 1B       		.byte	0x1b
 20961 3350 F7       		.byte	0xf7
 20962 3351 00       		.uleb128 0
 20963 3352 9F       		.byte	0x9f
 20964 3353 00000000 		.4byte	0
 20965 3357 00000000 		.4byte	0
 20966              	.LLST96:
 20967 335b 00000000 		.4byte	.LVL367
 20968 335f 13000000 		.4byte	.LVL368-1
 20969 3363 0100     		.2byte	0x1
 20970 3365 50       		.byte	0x50
 20971 3366 13000000 		.4byte	.LVL368-1
 20972 336a 1C000000 		.4byte	.LVL369
 20973 336e 0400     		.2byte	0x4
ARM GAS  /var/folders/3j/4xdnk5197cv_b7cw3n33qk7r0000gn/T//ccLoT9Qc.s 			page 369


 20974 3370 F3       		.byte	0xf3
 20975 3371 01       		.uleb128 0x1
 20976 3372 50       		.byte	0x50
 20977 3373 9F       		.byte	0x9f
 20978 3374 1C000000 		.4byte	.LVL369
 20979 3378 2F000000 		.4byte	.LVL372-1
 20980 337c 0100     		.2byte	0x1
 20981 337e 50       		.byte	0x50
 20982 337f 2F000000 		.4byte	.LVL372-1
 20983 3383 A4000000 		.4byte	.LVL384
 20984 3387 0100     		.2byte	0x1
 20985 3389 57       		.byte	0x57
 20986 338a A4000000 		.4byte	.LVL384
 20987 338e A8000000 		.4byte	.LFE17
 20988 3392 0400     		.2byte	0x4
 20989 3394 F3       		.byte	0xf3
 20990 3395 01       		.uleb128 0x1
 20991 3396 50       		.byte	0x50
 20992 3397 9F       		.byte	0x9f
 20993 3398 00000000 		.4byte	0
 20994 339c 00000000 		.4byte	0
 20995              	.LLST97:
 20996 33a0 00000000 		.4byte	.LVL367
 20997 33a4 13000000 		.4byte	.LVL368-1
 20998 33a8 0100     		.2byte	0x1
 20999 33aa 51       		.byte	0x51
 21000 33ab 13000000 		.4byte	.LVL368-1
 21001 33af 1C000000 		.4byte	.LVL369
 21002 33b3 0400     		.2byte	0x4
 21003 33b5 F3       		.byte	0xf3
 21004 33b6 01       		.uleb128 0x1
 21005 33b7 51       		.byte	0x51
 21006 33b8 9F       		.byte	0x9f
 21007 33b9 1C000000 		.4byte	.LVL369
 21008 33bd 24000000 		.4byte	.LVL370
 21009 33c1 0100     		.2byte	0x1
 21010 33c3 51       		.byte	0x51
 21011 33c4 24000000 		.4byte	.LVL370
 21012 33c8 A8000000 		.4byte	.LFE17
 21013 33cc 0400     		.2byte	0x4
 21014 33ce F3       		.byte	0xf3
 21015 33cf 01       		.uleb128 0x1
 21016 33d0 51       		.byte	0x51
 21017 33d1 9F       		.byte	0x9f
 21018 33d2 00000000 		.4byte	0
 21019 33d6 00000000 		.4byte	0
 21020              	.LLST98:
 21021 33da 00000000 		.4byte	.LVL367
 21022 33de 13000000 		.4byte	.LVL368-1
 21023 33e2 0100     		.2byte	0x1
 21024 33e4 52       		.byte	0x52
 21025 33e5 13000000 		.4byte	.LVL368-1
 21026 33e9 1C000000 		.4byte	.LVL369
 21027 33ed 0400     		.2byte	0x4
 21028 33ef F3       		.byte	0xf3
 21029 33f0 01       		.uleb128 0x1
 21030 33f1 52       		.byte	0x52
ARM GAS  /var/folders/3j/4xdnk5197cv_b7cw3n33qk7r0000gn/T//ccLoT9Qc.s 			page 370


 21031 33f2 9F       		.byte	0x9f
 21032 33f3 1C000000 		.4byte	.LVL369
 21033 33f7 28000000 		.4byte	.LVL371
 21034 33fb 0100     		.2byte	0x1
 21035 33fd 52       		.byte	0x52
 21036 33fe 28000000 		.4byte	.LVL371
 21037 3402 60000000 		.4byte	.LVL378
 21038 3406 0100     		.2byte	0x1
 21039 3408 56       		.byte	0x56
 21040 3409 60000000 		.4byte	.LVL378
 21041 340d A8000000 		.4byte	.LFE17
 21042 3411 0400     		.2byte	0x4
 21043 3413 F3       		.byte	0xf3
 21044 3414 01       		.uleb128 0x1
 21045 3415 52       		.byte	0x52
 21046 3416 9F       		.byte	0x9f
 21047 3417 00000000 		.4byte	0
 21048 341b 00000000 		.4byte	0
 21049              	.LLST99:
 21050 341f 00000000 		.4byte	.LVL367
 21051 3423 14000000 		.4byte	.LVL368
 21052 3427 0200     		.2byte	0x2
 21053 3429 30       		.byte	0x30
 21054 342a 9F       		.byte	0x9f
 21055 342b 14000000 		.4byte	.LVL368
 21056 342f 1C000000 		.4byte	.LVL369
 21057 3433 0100     		.2byte	0x1
 21058 3435 50       		.byte	0x50
 21059 3436 1C000000 		.4byte	.LVL369
 21060 343a 30000000 		.4byte	.LVL372
 21061 343e 0200     		.2byte	0x2
 21062 3440 30       		.byte	0x30
 21063 3441 9F       		.byte	0x9f
 21064 3442 30000000 		.4byte	.LVL372
 21065 3446 34000000 		.4byte	.LVL373
 21066 344a 0100     		.2byte	0x1
 21067 344c 50       		.byte	0x50
 21068 344d 9C000000 		.4byte	.LVL383
 21069 3451 A8000000 		.4byte	.LFE17
 21070 3455 0100     		.2byte	0x1
 21071 3457 50       		.byte	0x50
 21072 3458 00000000 		.4byte	0
 21073 345c 00000000 		.4byte	0
 21074              	.LLST100:
 21075 3460 84000000 		.4byte	.LVL381
 21076 3464 9B000000 		.4byte	.LVL383-1
 21077 3468 0100     		.2byte	0x1
 21078 346a 52       		.byte	0x52
 21079 346b 00000000 		.4byte	0
 21080 346f 00000000 		.4byte	0
 21081              	.LLST101:
 21082 3473 70000000 		.4byte	.LVL379
 21083 3477 80000000 		.4byte	.LVL380
 21084 347b 0100     		.2byte	0x1
 21085 347d 50       		.byte	0x50
 21086 347e 00000000 		.4byte	0
 21087 3482 00000000 		.4byte	0
ARM GAS  /var/folders/3j/4xdnk5197cv_b7cw3n33qk7r0000gn/T//ccLoT9Qc.s 			page 371


 21088              	.LLST102:
 21089 3486 38000000 		.4byte	.LVL374
 21090 348a 6F000000 		.4byte	.LVL379-1
 21091 348e 0200     		.2byte	0x2
 21092 3490 91       		.byte	0x91
 21093 3491 5F       		.sleb128 -33
 21094 3492 00000000 		.4byte	0
 21095 3496 00000000 		.4byte	0
 21096              	.LLST103:
 21097 349a 38000000 		.4byte	.LVL374
 21098 349e 60000000 		.4byte	.LVL378
 21099 34a2 0100     		.2byte	0x1
 21100 34a4 56       		.byte	0x56
 21101 34a5 60000000 		.4byte	.LVL378
 21102 34a9 70000000 		.4byte	.LVL379
 21103 34ad 0400     		.2byte	0x4
 21104 34af F3       		.byte	0xf3
 21105 34b0 01       		.uleb128 0x1
 21106 34b1 52       		.byte	0x52
 21107 34b2 9F       		.byte	0x9f
 21108 34b3 00000000 		.4byte	0
 21109 34b7 00000000 		.4byte	0
 21110              	.LLST104:
 21111 34bb 38000000 		.4byte	.LVL374
 21112 34bf 70000000 		.4byte	.LVL379
 21113 34c3 0100     		.2byte	0x1
 21114 34c5 57       		.byte	0x57
 21115 34c6 00000000 		.4byte	0
 21116 34ca 00000000 		.4byte	0
 21117              	.LLST142:
 21118 34ce 00000000 		.4byte	.LVL552
 21119 34d2 23000000 		.4byte	.LVL554-1
 21120 34d6 0100     		.2byte	0x1
 21121 34d8 50       		.byte	0x50
 21122 34d9 23000000 		.4byte	.LVL554-1
 21123 34dd 58000000 		.4byte	.LFE23
 21124 34e1 0100     		.2byte	0x1
 21125 34e3 55       		.byte	0x55
 21126 34e4 00000000 		.4byte	0
 21127 34e8 00000000 		.4byte	0
 21128              	.LLST143:
 21129 34ec 00000000 		.4byte	.LVL552
 21130 34f0 18000000 		.4byte	.LVL553
 21131 34f4 0100     		.2byte	0x1
 21132 34f6 51       		.byte	0x51
 21133 34f7 18000000 		.4byte	.LVL553
 21134 34fb 58000000 		.4byte	.LFE23
 21135 34ff 0100     		.2byte	0x1
 21136 3501 56       		.byte	0x56
 21137 3502 00000000 		.4byte	0
 21138 3506 00000000 		.4byte	0
 21139              	.LLST144:
 21140 350a 00000000 		.4byte	.LVL552
 21141 350e 23000000 		.4byte	.LVL554-1
 21142 3512 0100     		.2byte	0x1
 21143 3514 52       		.byte	0x52
 21144 3515 23000000 		.4byte	.LVL554-1
ARM GAS  /var/folders/3j/4xdnk5197cv_b7cw3n33qk7r0000gn/T//ccLoT9Qc.s 			page 372


 21145 3519 58000000 		.4byte	.LFE23
 21146 351d 0100     		.2byte	0x1
 21147 351f 54       		.byte	0x54
 21148 3520 00000000 		.4byte	0
 21149 3524 00000000 		.4byte	0
 21150              	.LLST145:
 21151 3528 00000000 		.4byte	.LVL552
 21152 352c 24000000 		.4byte	.LVL554
 21153 3530 0200     		.2byte	0x2
 21154 3532 30       		.byte	0x30
 21155 3533 9F       		.byte	0x9f
 21156 3534 24000000 		.4byte	.LVL554
 21157 3538 28000000 		.4byte	.LVL555
 21158 353c 0100     		.2byte	0x1
 21159 353e 50       		.byte	0x50
 21160 353f 00000000 		.4byte	0
 21161 3543 00000000 		.4byte	0
 21162              	.LLST146:
 21163 3547 38000000 		.4byte	.LVL556
 21164 354b 50000000 		.4byte	.LVL560
 21165 354f 0100     		.2byte	0x1
 21166 3551 54       		.byte	0x54
 21167 3552 00000000 		.4byte	0
 21168 3556 00000000 		.4byte	0
 21169              	.LLST147:
 21170 355a 38000000 		.4byte	.LVL556
 21171 355e 50000000 		.4byte	.LVL560
 21172 3562 0100     		.2byte	0x1
 21173 3564 56       		.byte	0x56
 21174 3565 00000000 		.4byte	0
 21175 3569 00000000 		.4byte	0
 21176              	.LLST148:
 21177 356d 38000000 		.4byte	.LVL556
 21178 3571 50000000 		.4byte	.LVL560
 21179 3575 0100     		.2byte	0x1
 21180 3577 55       		.byte	0x55
 21181 3578 00000000 		.4byte	0
 21182 357c 00000000 		.4byte	0
 21183              	.LLST149:
 21184 3580 38000000 		.4byte	.LVL556
 21185 3584 44000000 		.4byte	.LVL557
 21186 3588 0D00     		.2byte	0xd
 21187 358a 76       		.byte	0x76
 21188 358b 14       		.sleb128 20
 21189 358c 94       		.byte	0x94
 21190 358d 02       		.byte	0x2
 21191 358e 0A       		.byte	0xa
 21192 358f FFFF     		.2byte	0xffff
 21193 3591 1A       		.byte	0x1a
 21194 3592 75       		.byte	0x75
 21195 3593 20       		.sleb128 32
 21196 3594 06       		.byte	0x6
 21197 3595 1E       		.byte	0x1e
 21198 3596 9F       		.byte	0x9f
 21199 3597 44000000 		.4byte	.LVL557
 21200 359b 48000000 		.4byte	.LVL558
 21201 359f 0100     		.2byte	0x1
ARM GAS  /var/folders/3j/4xdnk5197cv_b7cw3n33qk7r0000gn/T//ccLoT9Qc.s 			page 373


 21202 35a1 53       		.byte	0x53
 21203 35a2 48000000 		.4byte	.LVL558
 21204 35a6 4C000000 		.4byte	.LVL559
 21205 35aa 0400     		.2byte	0x4
 21206 35ac 73       		.byte	0x73
 21207 35ad 807F     		.sleb128 -128
 21208 35af 9F       		.byte	0x9f
 21209 35b0 4C000000 		.4byte	.LVL559
 21210 35b4 50000000 		.4byte	.LVL560
 21211 35b8 0D00     		.2byte	0xd
 21212 35ba 76       		.byte	0x76
 21213 35bb 14       		.sleb128 20
 21214 35bc 94       		.byte	0x94
 21215 35bd 02       		.byte	0x2
 21216 35be 0A       		.byte	0xa
 21217 35bf FFFF     		.2byte	0xffff
 21218 35c1 1A       		.byte	0x1a
 21219 35c2 75       		.byte	0x75
 21220 35c3 20       		.sleb128 32
 21221 35c4 06       		.byte	0x6
 21222 35c5 1E       		.byte	0x1e
 21223 35c6 9F       		.byte	0x9f
 21224 35c7 00000000 		.4byte	0
 21225 35cb 00000000 		.4byte	0
 21226              	.LLST150:
 21227 35cf 38000000 		.4byte	.LVL556
 21228 35d3 50000000 		.4byte	.LVL560
 21229 35d7 0200     		.2byte	0x2
 21230 35d9 75       		.byte	0x75
 21231 35da 20       		.sleb128 32
 21232 35db 00000000 		.4byte	0
 21233 35df 00000000 		.4byte	0
 21234              	.LLST151:
 21235 35e3 00000000 		.4byte	.LVL561
 21236 35e7 1B000000 		.4byte	.LVL563-1
 21237 35eb 0100     		.2byte	0x1
 21238 35ed 50       		.byte	0x50
 21239 35ee 1B000000 		.4byte	.LVL563-1
 21240 35f2 38000000 		.4byte	.LFE24
 21241 35f6 0400     		.2byte	0x4
 21242 35f8 F3       		.byte	0xf3
 21243 35f9 01       		.uleb128 0x1
 21244 35fa 50       		.byte	0x50
 21245 35fb 9F       		.byte	0x9f
 21246 35fc 00000000 		.4byte	0
 21247 3600 00000000 		.4byte	0
 21248              	.LLST152:
 21249 3604 00000000 		.4byte	.LVL561
 21250 3608 1B000000 		.4byte	.LVL563-1
 21251 360c 0100     		.2byte	0x1
 21252 360e 51       		.byte	0x51
 21253 360f 1B000000 		.4byte	.LVL563-1
 21254 3613 38000000 		.4byte	.LFE24
 21255 3617 0400     		.2byte	0x4
 21256 3619 F3       		.byte	0xf3
 21257 361a 01       		.uleb128 0x1
 21258 361b 51       		.byte	0x51
ARM GAS  /var/folders/3j/4xdnk5197cv_b7cw3n33qk7r0000gn/T//ccLoT9Qc.s 			page 374


 21259 361c 9F       		.byte	0x9f
 21260 361d 00000000 		.4byte	0
 21261 3621 00000000 		.4byte	0
 21262              	.LLST153:
 21263 3625 00000000 		.4byte	.LVL561
 21264 3629 14000000 		.4byte	.LVL562
 21265 362d 0100     		.2byte	0x1
 21266 362f 52       		.byte	0x52
 21267 3630 14000000 		.4byte	.LVL562
 21268 3634 38000000 		.4byte	.LFE24
 21269 3638 0100     		.2byte	0x1
 21270 363a 54       		.byte	0x54
 21271 363b 00000000 		.4byte	0
 21272 363f 00000000 		.4byte	0
 21273              	.LLST154:
 21274 3643 00000000 		.4byte	.LVL561
 21275 3647 1C000000 		.4byte	.LVL563
 21276 364b 0200     		.2byte	0x2
 21277 364d 30       		.byte	0x30
 21278 364e 9F       		.byte	0x9f
 21279 364f 1C000000 		.4byte	.LVL563
 21280 3653 20000000 		.4byte	.LVL564
 21281 3657 0100     		.2byte	0x1
 21282 3659 50       		.byte	0x50
 21283 365a 00000000 		.4byte	0
 21284 365e 00000000 		.4byte	0
 21285              		.section	.debug_aranges,"",%progbits
 21286 0000 EC000000 		.4byte	0xec
 21287 0004 0200     		.2byte	0x2
 21288 0006 00000000 		.4byte	.Ldebug_info0
 21289 000a 04       		.byte	0x4
 21290 000b 00       		.byte	0
 21291 000c 0000     		.2byte	0
 21292 000e 0000     		.2byte	0
 21293 0010 00000000 		.4byte	.LFB28
 21294 0014 3C000000 		.4byte	.LFE28-.LFB28
 21295 0018 00000000 		.4byte	.LFB29
 21296 001c B4010000 		.4byte	.LFE29-.LFB29
 21297 0020 00000000 		.4byte	.LFB3
 21298 0024 34000000 		.4byte	.LFE3-.LFB3
 21299 0028 00000000 		.4byte	.LFB4
 21300 002c 60000000 		.4byte	.LFE4-.LFB4
 21301 0030 00000000 		.4byte	.LFB5
 21302 0034 10000000 		.4byte	.LFE5-.LFB5
 21303 0038 00000000 		.4byte	.LFB6
 21304 003c 10000000 		.4byte	.LFE6-.LFB6
 21305 0040 00000000 		.4byte	.LFB7
 21306 0044 54000000 		.4byte	.LFE7-.LFB7
 21307 0048 00000000 		.4byte	.LFB8
 21308 004c 68000000 		.4byte	.LFE8-.LFB8
 21309 0050 00000000 		.4byte	.LFB9
 21310 0054 7C000000 		.4byte	.LFE9-.LFB9
 21311 0058 00000000 		.4byte	.LFB10
 21312 005c 68080000 		.4byte	.LFE10-.LFB10
 21313 0060 00000000 		.4byte	.LFB11
 21314 0064 14000000 		.4byte	.LFE11-.LFB11
 21315 0068 00000000 		.4byte	.LFB12
ARM GAS  /var/folders/3j/4xdnk5197cv_b7cw3n33qk7r0000gn/T//ccLoT9Qc.s 			page 375


 21316 006c 0C000000 		.4byte	.LFE12-.LFB12
 21317 0070 00000000 		.4byte	.LFB13
 21318 0074 14000000 		.4byte	.LFE13-.LFB13
 21319 0078 00000000 		.4byte	.LFB14
 21320 007c 40000000 		.4byte	.LFE14-.LFB14
 21321 0080 00000000 		.4byte	.LFB15
 21322 0084 38000000 		.4byte	.LFE15-.LFB15
 21323 0088 00000000 		.4byte	.LFB16
 21324 008c 3C020000 		.4byte	.LFE16-.LFB16
 21325 0090 00000000 		.4byte	.LFB17
 21326 0094 A8000000 		.4byte	.LFE17-.LFB17
 21327 0098 00000000 		.4byte	.LFB18
 21328 009c 60030000 		.4byte	.LFE18-.LFB18
 21329 00a0 00000000 		.4byte	.LFB19
 21330 00a4 64000000 		.4byte	.LFE19-.LFB19
 21331 00a8 00000000 		.4byte	.LFB20
 21332 00ac 80010000 		.4byte	.LFE20-.LFB20
 21333 00b0 00000000 		.4byte	.LFB21
 21334 00b4 7C010000 		.4byte	.LFE21-.LFB21
 21335 00b8 00000000 		.4byte	.LFB22
 21336 00bc 74010000 		.4byte	.LFE22-.LFB22
 21337 00c0 00000000 		.4byte	.LFB23
 21338 00c4 58000000 		.4byte	.LFE23-.LFB23
 21339 00c8 00000000 		.4byte	.LFB24
 21340 00cc 38000000 		.4byte	.LFE24-.LFB24
 21341 00d0 00000000 		.4byte	.LFB25
 21342 00d4 C8010000 		.4byte	.LFE25-.LFB25
 21343 00d8 00000000 		.4byte	.LFB26
 21344 00dc 88040000 		.4byte	.LFE26-.LFB26
 21345 00e0 00000000 		.4byte	.LFB27
 21346 00e4 A4030000 		.4byte	.LFE27-.LFB27
 21347 00e8 00000000 		.4byte	0
 21348 00ec 00000000 		.4byte	0
 21349              		.section	.debug_ranges,"",%progbits
 21350              	.Ldebug_ranges0:
 21351 0000 A4000000 		.4byte	.LBB112
 21352 0004 A8000000 		.4byte	.LBE112
 21353 0008 AC000000 		.4byte	.LBB115
 21354 000c BC000000 		.4byte	.LBE115
 21355 0010 00000000 		.4byte	0
 21356 0014 00000000 		.4byte	0
 21357 0018 DC000000 		.4byte	.LBB116
 21358 001c E8000000 		.4byte	.LBE116
 21359 0020 9C010000 		.4byte	.LBB133
 21360 0024 A8010000 		.4byte	.LBE133
 21361 0028 00000000 		.4byte	0
 21362 002c 00000000 		.4byte	0
 21363 0030 14010000 		.4byte	.LBB119
 21364 0034 18010000 		.4byte	.LBE119
 21365 0038 1C010000 		.4byte	.LBB128
 21366 003c 54010000 		.4byte	.LBE128
 21367 0040 00000000 		.4byte	0
 21368 0044 00000000 		.4byte	0
 21369 0048 14010000 		.4byte	.LBB121
 21370 004c 18010000 		.4byte	.LBE121
 21371 0050 1C010000 		.4byte	.LBB125
 21372 0054 28010000 		.4byte	.LBE125
ARM GAS  /var/folders/3j/4xdnk5197cv_b7cw3n33qk7r0000gn/T//ccLoT9Qc.s 			page 376


 21373 0058 2C010000 		.4byte	.LBB126
 21374 005c 30010000 		.4byte	.LBE126
 21375 0060 00000000 		.4byte	0
 21376 0064 00000000 		.4byte	0
 21377 0068 54010000 		.4byte	.LBB129
 21378 006c 5C010000 		.4byte	.LBE129
 21379 0070 94010000 		.4byte	.LBB132
 21380 0074 9C010000 		.4byte	.LBE132
 21381 0078 00000000 		.4byte	0
 21382 007c 00000000 		.4byte	0
 21383 0080 00000000 		.4byte	.LBB136
 21384 0084 0C000000 		.4byte	.LBE136
 21385 0088 10000000 		.4byte	.LBB139
 21386 008c 14000000 		.4byte	.LBE139
 21387 0090 00000000 		.4byte	0
 21388 0094 00000000 		.4byte	0
 21389 0098 00000000 		.4byte	.LBB140
 21390 009c 0C000000 		.4byte	.LBE140
 21391 00a0 10000000 		.4byte	.LBB143
 21392 00a4 14000000 		.4byte	.LBE143
 21393 00a8 00000000 		.4byte	0
 21394 00ac 00000000 		.4byte	0
 21395 00b0 68000000 		.4byte	.LBB144
 21396 00b4 88000000 		.4byte	.LBE144
 21397 00b8 8C000000 		.4byte	.LBB155
 21398 00bc 90000000 		.4byte	.LBE155
 21399 00c0 94000000 		.4byte	.LBB157
 21400 00c4 A4000000 		.4byte	.LBE157
 21401 00c8 00000000 		.4byte	0
 21402 00cc 00000000 		.4byte	0
 21403 00d0 68000000 		.4byte	.LBB146
 21404 00d4 6C000000 		.4byte	.LBE146
 21405 00d8 70000000 		.4byte	.LBB149
 21406 00dc 80000000 		.4byte	.LBE149
 21407 00e0 00000000 		.4byte	0
 21408 00e4 00000000 		.4byte	0
 21409 00e8 88000000 		.4byte	.LBB152
 21410 00ec 8C000000 		.4byte	.LBE152
 21411 00f0 90000000 		.4byte	.LBB156
 21412 00f4 94000000 		.4byte	.LBE156
 21413 00f8 00000000 		.4byte	0
 21414 00fc 00000000 		.4byte	0
 21415 0100 E0000000 		.4byte	.LBB160
 21416 0104 E4000000 		.4byte	.LBE160
 21417 0108 E8000000 		.4byte	.LBB163
 21418 010c F8000000 		.4byte	.LBE163
 21419 0110 00000000 		.4byte	0
 21420 0114 00000000 		.4byte	0
 21421 0118 5C010000 		.4byte	.LBB164
 21422 011c 74010000 		.4byte	.LBE164
 21423 0120 78010000 		.4byte	.LBB172
 21424 0124 80010000 		.4byte	.LBE172
 21425 0128 90010000 		.4byte	.LBB175
 21426 012c AC010000 		.4byte	.LBE175
 21427 0130 00000000 		.4byte	0
 21428 0134 00000000 		.4byte	0
 21429 0138 5C010000 		.4byte	.LBB166
ARM GAS  /var/folders/3j/4xdnk5197cv_b7cw3n33qk7r0000gn/T//ccLoT9Qc.s 			page 377


 21430 013c 60010000 		.4byte	.LBE166
 21431 0140 64010000 		.4byte	.LBB169
 21432 0144 74010000 		.4byte	.LBE169
 21433 0148 00000000 		.4byte	0
 21434 014c 00000000 		.4byte	0
 21435 0150 38000000 		.4byte	.LBB182
 21436 0154 3C000000 		.4byte	.LBE182
 21437 0158 40000000 		.4byte	.LBB185
 21438 015c 50000000 		.4byte	.LBE185
 21439 0160 00000000 		.4byte	0
 21440 0164 00000000 		.4byte	0
 21441 0168 64000000 		.4byte	.LBB186
 21442 016c 6C000000 		.4byte	.LBE186
 21443 0170 78000000 		.4byte	.LBB191
 21444 0174 7C000000 		.4byte	.LBE191
 21445 0178 F8000000 		.4byte	.LBB192
 21446 017c 00010000 		.4byte	.LBE192
 21447 0180 0C010000 		.4byte	.LBB193
 21448 0184 10010000 		.4byte	.LBE193
 21449 0188 00000000 		.4byte	0
 21450 018c 00000000 		.4byte	0
 21451 0190 B8000000 		.4byte	.LBB206
 21452 0194 BC000000 		.4byte	.LBE206
 21453 0198 00010000 		.4byte	.LBB210
 21454 019c 38010000 		.4byte	.LBE210
 21455 01a0 5C010000 		.4byte	.LBB217
 21456 01a4 60010000 		.4byte	.LBE217
 21457 01a8 00000000 		.4byte	0
 21458 01ac 00000000 		.4byte	0
 21459 01b0 50010000 		.4byte	.LBB211
 21460 01b4 54010000 		.4byte	.LBE211
 21461 01b8 58010000 		.4byte	.LBB216
 21462 01bc 5C010000 		.4byte	.LBE216
 21463 01c0 60010000 		.4byte	.LBB218
 21464 01c4 9C010000 		.4byte	.LBE218
 21465 01c8 A8010000 		.4byte	.LBB219
 21466 01cc C8010000 		.4byte	.LBE219
 21467 01d0 00000000 		.4byte	0
 21468 01d4 00000000 		.4byte	0
 21469 01d8 10000000 		.4byte	.LBB220
 21470 01dc 14000000 		.4byte	.LBE220
 21471 01e0 2C000000 		.4byte	.LBB224
 21472 01e4 38000000 		.4byte	.LBE224
 21473 01e8 44000000 		.4byte	.LBB225
 21474 01ec 4C000000 		.4byte	.LBE225
 21475 01f0 00000000 		.4byte	0
 21476 01f4 00000000 		.4byte	0
 21477 01f8 88000000 		.4byte	.LBB226
 21478 01fc AC000000 		.4byte	.LBE226
 21479 0200 B4000000 		.4byte	.LBB250
 21480 0204 B8000000 		.4byte	.LBE250
 21481 0208 BC000000 		.4byte	.LBB252
 21482 020c C4000000 		.4byte	.LBE252
 21483 0210 C8000000 		.4byte	.LBB253
 21484 0214 DC000000 		.4byte	.LBE253
 21485 0218 EC000000 		.4byte	.LBB255
 21486 021c F0000000 		.4byte	.LBE255
ARM GAS  /var/folders/3j/4xdnk5197cv_b7cw3n33qk7r0000gn/T//ccLoT9Qc.s 			page 378


 21487 0220 00000000 		.4byte	0
 21488 0224 00000000 		.4byte	0
 21489 0228 88000000 		.4byte	.LBB228
 21490 022c 8C000000 		.4byte	.LBE228
 21491 0230 90000000 		.4byte	.LBB231
 21492 0234 A0000000 		.4byte	.LBE231
 21493 0238 00000000 		.4byte	0
 21494 023c 00000000 		.4byte	0
 21495 0240 B0000000 		.4byte	.LBB236
 21496 0244 B4000000 		.4byte	.LBE236
 21497 0248 B8000000 		.4byte	.LBB251
 21498 024c BC000000 		.4byte	.LBE251
 21499 0250 DC000000 		.4byte	.LBB254
 21500 0254 EC000000 		.4byte	.LBE254
 21501 0258 F0000000 		.4byte	.LBB256
 21502 025c F4000000 		.4byte	.LBE256
 21503 0260 F8000000 		.4byte	.LBB257
 21504 0264 14010000 		.4byte	.LBE257
 21505 0268 00000000 		.4byte	0
 21506 026c 00000000 		.4byte	0
 21507 0270 B0000000 		.4byte	.LBB238
 21508 0274 B4000000 		.4byte	.LBE238
 21509 0278 B8000000 		.4byte	.LBB243
 21510 027c BC000000 		.4byte	.LBE243
 21511 0280 DC000000 		.4byte	.LBB244
 21512 0284 E0000000 		.4byte	.LBE244
 21513 0288 E4000000 		.4byte	.LBB245
 21514 028c E8000000 		.4byte	.LBE245
 21515 0290 00000000 		.4byte	0
 21516 0294 00000000 		.4byte	0
 21517 0298 98010000 		.4byte	.LBB258
 21518 029c A4010000 		.4byte	.LBE258
 21519 02a0 B4010000 		.4byte	.LBB261
 21520 02a4 E0010000 		.4byte	.LBE261
 21521 02a8 00000000 		.4byte	0
 21522 02ac 00000000 		.4byte	0
 21523 02b0 A4020000 		.4byte	.LBB262
 21524 02b4 A8020000 		.4byte	.LBE262
 21525 02b8 B4020000 		.4byte	.LBB265
 21526 02bc E4020000 		.4byte	.LBE265
 21527 02c0 00000000 		.4byte	0
 21528 02c4 00000000 		.4byte	0
 21529 02c8 00000000 		.4byte	.LFB28
 21530 02cc 3C000000 		.4byte	.LFE28
 21531 02d0 00000000 		.4byte	.LFB29
 21532 02d4 B4010000 		.4byte	.LFE29
 21533 02d8 00000000 		.4byte	.LFB3
 21534 02dc 34000000 		.4byte	.LFE3
 21535 02e0 00000000 		.4byte	.LFB4
 21536 02e4 60000000 		.4byte	.LFE4
 21537 02e8 00000000 		.4byte	.LFB5
 21538 02ec 10000000 		.4byte	.LFE5
 21539 02f0 00000000 		.4byte	.LFB6
 21540 02f4 10000000 		.4byte	.LFE6
 21541 02f8 00000000 		.4byte	.LFB7
 21542 02fc 54000000 		.4byte	.LFE7
 21543 0300 00000000 		.4byte	.LFB8
ARM GAS  /var/folders/3j/4xdnk5197cv_b7cw3n33qk7r0000gn/T//ccLoT9Qc.s 			page 379


 21544 0304 68000000 		.4byte	.LFE8
 21545 0308 00000000 		.4byte	.LFB9
 21546 030c 7C000000 		.4byte	.LFE9
 21547 0310 00000000 		.4byte	.LFB10
 21548 0314 68080000 		.4byte	.LFE10
 21549 0318 00000000 		.4byte	.LFB11
 21550 031c 14000000 		.4byte	.LFE11
 21551 0320 00000000 		.4byte	.LFB12
 21552 0324 0C000000 		.4byte	.LFE12
 21553 0328 00000000 		.4byte	.LFB13
 21554 032c 14000000 		.4byte	.LFE13
 21555 0330 00000000 		.4byte	.LFB14
 21556 0334 40000000 		.4byte	.LFE14
 21557 0338 00000000 		.4byte	.LFB15
 21558 033c 38000000 		.4byte	.LFE15
 21559 0340 00000000 		.4byte	.LFB16
 21560 0344 3C020000 		.4byte	.LFE16
 21561 0348 00000000 		.4byte	.LFB17
 21562 034c A8000000 		.4byte	.LFE17
 21563 0350 00000000 		.4byte	.LFB18
 21564 0354 60030000 		.4byte	.LFE18
 21565 0358 00000000 		.4byte	.LFB19
 21566 035c 64000000 		.4byte	.LFE19
 21567 0360 00000000 		.4byte	.LFB20
 21568 0364 80010000 		.4byte	.LFE20
 21569 0368 00000000 		.4byte	.LFB21
 21570 036c 7C010000 		.4byte	.LFE21
 21571 0370 00000000 		.4byte	.LFB22
 21572 0374 74010000 		.4byte	.LFE22
 21573 0378 00000000 		.4byte	.LFB23
 21574 037c 58000000 		.4byte	.LFE23
 21575 0380 00000000 		.4byte	.LFB24
 21576 0384 38000000 		.4byte	.LFE24
 21577 0388 00000000 		.4byte	.LFB25
 21578 038c C8010000 		.4byte	.LFE25
 21579 0390 00000000 		.4byte	.LFB26
 21580 0394 88040000 		.4byte	.LFE26
 21581 0398 00000000 		.4byte	.LFB27
 21582 039c A4030000 		.4byte	.LFE27
 21583 03a0 00000000 		.4byte	0
 21584 03a4 00000000 		.4byte	0
 21585              		.section	.debug_line,"",%progbits
 21586              	.Ldebug_line0:
 21587 0000 9A0D0000 		.section	.debug_str,"MS",%progbits,1
 21587      02008002 
 21587      00000201 
 21587      FB0E0D00 
 21587      01010101 
 21588              	.LASF403:
 21589 0000 6D735F62 		.ascii	"ms_byte\000"
 21589      79746500 
 21590              	.LASF380:
 21591 0008 50726552 		.ascii	"PreRangeEncodedTimeOut\000"
 21591      616E6765 
 21591      456E636F 
 21591      64656454 
 21591      696D654F 
ARM GAS  /var/folders/3j/4xdnk5197cv_b7cw3n33qk7r0000gn/T//ccLoT9Qc.s 			page 380


 21592              	.LASF326:
 21593 001f 646D6178 		.ascii	"dmaxDark\000"
 21593      4461726B 
 21593      00
 21594              	.LASF437:
 21595 0028 564C3533 		.ascii	"VL53L0X_WrByte\000"
 21595      4C30585F 
 21595      57724279 
 21595      746500
 21596              	.LASF443:
 21597 0037 564C3533 		.ascii	"VL53L0X_perform_phase_calibration\000"
 21597      4C30585F 
 21597      70657266 
 21597      6F726D5F 
 21597      70686173 
 21598              	.LASF239:
 21599 0059 44657669 		.ascii	"DeviceRangeStatus\000"
 21599      63655261 
 21599      6E676553 
 21599      74617475 
 21599      7300
 21600              	.LASF385:
 21601 006b 6765745F 		.ascii	"get_sequence_step_timeout\000"
 21601      73657175 
 21601      656E6365 
 21601      5F737465 
 21601      705F7469 
 21602              	.LASF394:
 21603 0085 6D616372 		.ascii	"macro_period_ns\000"
 21603      6F5F7065 
 21603      72696F64 
 21603      5F6E7300 
 21604              	.LASF85:
 21605 0095 52656665 		.ascii	"ReferenceSpadType\000"
 21605      72656E63 
 21605      65537061 
 21605      64547970 
 21605      6500
 21606              	.LASF53:
 21607 00a7 5369676E 		.ascii	"SignalRateRtnMegaCps\000"
 21607      616C5261 
 21607      74655274 
 21607      6E4D6567 
 21607      61437073 
 21608              	.LASF134:
 21609 00bc 5F6D6178 		.ascii	"_maxwds\000"
 21609      77647300 
 21610              	.LASF88:
 21611 00c4 50617274 		.ascii	"PartUIDLower\000"
 21611      5549444C 
 21611      6F776572 
 21611      00
 21612              	.LASF451:
 21613 00d1 474E5520 		.ascii	"GNU C11 7.3.1 20180622 (release) [ARM/embedded-7-br"
 21613      43313120 
 21613      372E332E 
 21613      31203230 
ARM GAS  /var/folders/3j/4xdnk5197cv_b7cw3n33qk7r0000gn/T//ccLoT9Qc.s 			page 381


 21613      31383036 
 21614 0104 616E6368 		.ascii	"anch revision 261907] -mcpu=arm1176jz-s -mno-thumb-"
 21614      20726576 
 21614      6973696F 
 21614      6E203236 
 21614      31393037 
 21615 0137 696E7465 		.ascii	"interwork -ggdb -O2 -fomit-frame-pointer -ffunction"
 21615      72776F72 
 21615      6B202D67 
 21615      67646220 
 21615      2D4F3220 
 21616 016a 2D736563 		.ascii	"-sections -fdata-sections\000"
 21616      74696F6E 
 21616      73202D66 
 21616      64617461 
 21616      2D736563 
 21617              	.LASF237:
 21618 0184 564C3533 		.ascii	"VL53L0X_DEV\000"
 21618      4C30585F 
 21618      44455600 
 21619              	.LASF148:
 21620 0190 5F6F6E5F 		.ascii	"_on_exit_args\000"
 21620      65786974 
 21620      5F617267 
 21620      7300
 21621              	.LASF33:
 21622 019e 48697374 		.ascii	"HistogramMode\000"
 21622      6F677261 
 21622      6D4D6F64 
 21622      6500
 21623              	.LASF384:
 21624 01ac 46696E61 		.ascii	"FinalRangeEncodedTimeOut\000"
 21624      6C52616E 
 21624      6765456E 
 21624      636F6465 
 21624      6454696D 
 21625              	.LASF215:
 21626 01c5 5F776374 		.ascii	"_wctomb_state\000"
 21626      6F6D625F 
 21626      73746174 
 21626      6500
 21627              	.LASF375:
 21628 01d3 7365745F 		.ascii	"set_sequence_step_timeout\000"
 21628      73657175 
 21628      656E6365 
 21628      5F737465 
 21628      705F7469 
 21629              	.LASF367:
 21630 01ed 564C3533 		.ascii	"VL53L0X_set_vcsel_pulse_period\000"
 21630      4C30585F 
 21630      7365745F 
 21630      76637365 
 21630      6C5F7075 
 21631              	.LASF327:
 21632 020c 646D6178 		.ascii	"dmaxAmbient\000"
 21632      416D6269 
 21632      656E7400 
ARM GAS  /var/folders/3j/4xdnk5197cv_b7cw3n33qk7r0000gn/T//ccLoT9Qc.s 			page 382


 21633              	.LASF36:
 21634 0218 5854616C 		.ascii	"XTalkCompensationEnable\000"
 21634      6B436F6D 
 21634      70656E73 
 21634      6174696F 
 21634      6E456E61 
 21635              	.LASF286:
 21636 0230 7854616C 		.ascii	"xTalkCorrection\000"
 21636      6B436F72 
 21636      72656374 
 21636      696F6E00 
 21637              	.LASF76:
 21638 0240 50726552 		.ascii	"PreRangeVcselPulsePeriod\000"
 21638      616E6765 
 21638      56637365 
 21638      6C50756C 
 21638      73655065 
 21639              	.LASF212:
 21640 0259 5F723438 		.ascii	"_r48\000"
 21640      00
 21641              	.LASF339:
 21642 025e 7054756E 		.ascii	"pTuningSettingBuffer\000"
 21642      696E6753 
 21642      65747469 
 21642      6E674275 
 21642      66666572 
 21643              	.LASF331:
 21644 0273 70746F74 		.ascii	"ptotal_signal_rate_mcps\000"
 21644      616C5F73 
 21644      69676E61 
 21644      6C5F7261 
 21644      74655F6D 
 21645              	.LASF352:
 21646 028b 456E644F 		.ascii	"EndOverheadMicroSeconds\000"
 21646      76657268 
 21646      6561644D 
 21646      6963726F 
 21646      5365636F 
 21647              	.LASF139:
 21648 02a3 5F5F746D 		.ascii	"__tm_sec\000"
 21648      5F736563 
 21648      00
 21649              	.LASF247:
 21650 02ac 52616E67 		.ascii	"RangeIgnoreThresholdflag\000"
 21650      6549676E 
 21650      6F726554 
 21650      68726573 
 21650      686F6C64 
 21651              	.LASF217:
 21652 02c5 5F736967 		.ascii	"_signal_buf\000"
 21652      6E616C5F 
 21652      62756600 
 21653              	.LASF0:
 21654 02d1 756E7369 		.ascii	"unsigned int\000"
 21654      676E6564 
 21654      20696E74 
 21654      00
ARM GAS  /var/folders/3j/4xdnk5197cv_b7cw3n33qk7r0000gn/T//ccLoT9Qc.s 			page 383


 21655              	.LASF37:
 21656 02de 5854616C 		.ascii	"XTalkCompensationRangeMilliMeter\000"
 21656      6B436F6D 
 21656      70656E73 
 21656      6174696F 
 21656      6E52616E 
 21657              	.LASF306:
 21658 02ff 70726552 		.ascii	"preRangeVcselPCLKS\000"
 21658      616E6765 
 21658      56637365 
 21658      6C50434C 
 21658      4B5300
 21659              	.LASF243:
 21660 0312 53746174 		.ascii	"Status\000"
 21660      757300
 21661              	.LASF245:
 21662 0319 5369676D 		.ascii	"SigmaLimitflag\000"
 21662      614C696D 
 21662      6974666C 
 21662      616700
 21663              	.LASF338:
 21664 0328 564C3533 		.ascii	"VL53L0X_load_tuning_settings\000"
 21664      4C30585F 
 21664      6C6F6164 
 21664      5F74756E 
 21664      696E675F 
 21665              	.LASF31:
 21666 0345 564C3533 		.ascii	"VL53L0X_PowerModes\000"
 21666      4C30585F 
 21666      506F7765 
 21666      724D6F64 
 21666      657300
 21667              	.LASF83:
 21668 0358 50726F64 		.ascii	"ProductId\000"
 21668      75637449 
 21668      6400
 21669              	.LASF40:
 21670 0362 4C696D69 		.ascii	"LimitChecksEnable\000"
 21670      74436865 
 21670      636B7345 
 21670      6E61626C 
 21670      6500
 21671              	.LASF160:
 21672 0374 5F666C61 		.ascii	"_flags\000"
 21672      677300
 21673              	.LASF434:
 21674 037b 696E6465 		.ascii	"index\000"
 21674      7800
 21675              	.LASF65:
 21676 0381 4572726F 		.ascii	"ErrorStatus\000"
 21676      72537461 
 21676      74757300 
 21677              	.LASF54:
 21678 038d 416D6269 		.ascii	"AmbientRateRtnMegaCps\000"
 21678      656E7452 
 21678      61746552 
 21678      746E4D65 
ARM GAS  /var/folders/3j/4xdnk5197cv_b7cw3n33qk7r0000gn/T//ccLoT9Qc.s 			page 384


 21678      67614370 
 21679              	.LASF9:
 21680 03a3 5F5F696E 		.ascii	"__int32_t\000"
 21680      7433325F 
 21680      7400
 21681              	.LASF323:
 21682 03ad 7369676D 		.ascii	"sigmaEstSqTmp\000"
 21682      61457374 
 21682      5371546D 
 21682      7000
 21683              	.LASF177:
 21684 03bb 5F657272 		.ascii	"_errno\000"
 21684      6E6F00
 21685              	.LASF349:
 21686 03c2 46696E61 		.ascii	"FinalRangeTimeoutMicroSeconds\000"
 21686      6C52616E 
 21686      67655469 
 21686      6D656F75 
 21686      744D6963 
 21687              	.LASF425:
 21688 03e0 564C3533 		.ascii	"VL53L0X_decode_vcsel_period\000"
 21688      4C30585F 
 21688      6465636F 
 21688      64655F76 
 21688      6373656C 
 21689              	.LASF274:
 21690 03fc 76637365 		.ascii	"vcselTotalEventsRtn\000"
 21690      6C546F74 
 21690      616C4576 
 21690      656E7473 
 21690      52746E00 
 21691              	.LASF289:
 21692 0410 7854616C 		.ascii	"xTalkCompRate_mcps\000"
 21692      6B436F6D 
 21692      70526174 
 21692      655F6D63 
 21692      707300
 21693              	.LASF229:
 21694 0423 5F5F6C6F 		.ascii	"__locale_t\000"
 21694      63616C65 
 21694      5F7400
 21695              	.LASF174:
 21696 042e 5F6D6273 		.ascii	"_mbstate\000"
 21696      74617465 
 21696      00
 21697              	.LASF333:
 21698 0437 564C3533 		.ascii	"VL53L0X_get_total_signal_rate\000"
 21698      4C30585F 
 21698      6765745F 
 21698      746F7461 
 21698      6C5F7369 
 21699              	.LASF428:
 21700 0455 564C3533 		.ascii	"VL53L0X_reverse_bytes\000"
 21700      4C30585F 
 21700      72657665 
 21700      7273655F 
 21700      62797465 
ARM GAS  /var/folders/3j/4xdnk5197cv_b7cw3n33qk7r0000gn/T//ccLoT9Qc.s 			page 385


 21701              	.LASF250:
 21702 046b 5369676E 		.ascii	"SignalRefClipLimitCheckEnable\000"
 21702      616C5265 
 21702      66436C69 
 21702      704C696D 
 21702      69744368 
 21703              	.LASF164:
 21704 0489 5F726561 		.ascii	"_read\000"
 21704      6400
 21705              	.LASF405:
 21706 048f 504C4C5F 		.ascii	"PLL_period_ps\000"
 21706      70657269 
 21706      6F645F70 
 21706      7300
 21707              	.LASF399:
 21708 049d 656E636F 		.ascii	"encoded_timeout\000"
 21708      6465645F 
 21708      74696D65 
 21708      6F757400 
 21709              	.LASF132:
 21710 04ad 5F5F554C 		.ascii	"__ULong\000"
 21710      6F6E6700 
 21711              	.LASF388:
 21712 04b5 54696D65 		.ascii	"TimeoutMicroSeconds\000"
 21712      6F75744D 
 21712      6963726F 
 21712      5365636F 
 21712      6E647300 
 21713              	.LASF219:
 21714 04c9 5F6D6272 		.ascii	"_mbrlen_state\000"
 21714      6C656E5F 
 21714      73746174 
 21714      6500
 21715              	.LASF391:
 21716 04d7 74696D65 		.ascii	"timeout_period_mclks\000"
 21716      6F75745F 
 21716      70657269 
 21716      6F645F6D 
 21716      636C6B73 
 21717              	.LASF236:
 21718 04ec 564C3533 		.ascii	"VL53L0X_Dev_t\000"
 21718      4C30585F 
 21718      4465765F 
 21718      7400
 21719              	.LASF324:
 21720 04fa 7369676E 		.ascii	"signalLimitTmp\000"
 21720      616C4C69 
 21720      6D697454 
 21720      6D7000
 21721              	.LASF305:
 21722 0509 66696E61 		.ascii	"finalRangeVcselPCLKS\000"
 21722      6C52616E 
 21722      67655663 
 21722      73656C50 
 21722      434C4B53 
 21723              	.LASF43:
 21724 051e 57726170 		.ascii	"WrapAroundCheckEnable\000"
ARM GAS  /var/folders/3j/4xdnk5197cv_b7cw3n33qk7r0000gn/T//ccLoT9Qc.s 			page 386


 21724      41726F75 
 21724      6E644368 
 21724      65636B45 
 21724      6E61626C 
 21725              	.LASF102:
 21726 0534 506F7765 		.ascii	"PowerMode\000"
 21726      724D6F64 
 21726      6500
 21727              	.LASF393:
 21728 053e 6D616372 		.ascii	"macro_period_ps\000"
 21728      6F5F7065 
 21728      72696F64 
 21728      5F707300 
 21729              	.LASF41:
 21730 054e 4C696D69 		.ascii	"LimitChecksStatus\000"
 21730      74436865 
 21730      636B7353 
 21730      74617475 
 21730      7300
 21731              	.LASF264:
 21732 0560 63416D62 		.ascii	"cAmbientEffectiveWidth_centi_ns\000"
 21732      69656E74 
 21732      45666665 
 21732      63746976 
 21732      65576964 
 21733              	.LASF52:
 21734 0580 52616E67 		.ascii	"RangeDMaxMilliMeter\000"
 21734      65444D61 
 21734      784D696C 
 21734      6C694D65 
 21734      74657200 
 21735              	.LASF293:
 21736 0594 73717231 		.ascii	"sqr1\000"
 21736      00
 21737              	.LASF294:
 21738 0599 73717232 		.ascii	"sqr2\000"
 21738      00
 21739              	.LASF124:
 21740 059e 5F66706F 		.ascii	"_fpos_t\000"
 21740      735F7400 
 21741              	.LASF230:
 21742 05a6 5F696D70 		.ascii	"_impure_ptr\000"
 21742      7572655F 
 21742      70747200 
 21743              	.LASF155:
 21744 05b2 5F666E73 		.ascii	"_fns\000"
 21744      00
 21745              	.LASF82:
 21746 05b7 52657669 		.ascii	"Revision\000"
 21746      73696F6E 
 21746      00
 21747              	.LASF163:
 21748 05c0 5F636F6F 		.ascii	"_cookie\000"
 21748      6B696500 
 21749              	.LASF415:
 21750 05c8 5369676E 		.ascii	"SignalRateMeasFixed1104_400_mm\000"
 21750      616C5261 
ARM GAS  /var/folders/3j/4xdnk5197cv_b7cw3n33qk7r0000gn/T//ccLoT9Qc.s 			page 387


 21750      74654D65 
 21750      61734669 
 21750      78656431 
 21751              	.LASF231:
 21752 05e7 5F676C6F 		.ascii	"_global_impure_ptr\000"
 21752      62616C5F 
 21752      696D7075 
 21752      72655F70 
 21752      747200
 21753              	.LASF92:
 21754 05fa 50617274 		.ascii	"Part2PartOffsetNVMMicroMeter\000"
 21754      32506172 
 21754      744F6666 
 21754      7365744E 
 21754      564D4D69 
 21755              	.LASF421:
 21756 0617 4C6F6F70 		.ascii	"LoopNb\000"
 21756      4E6200
 21757              	.LASF137:
 21758 061e 5F426967 		.ascii	"_Bigint\000"
 21758      696E7400 
 21759              	.LASF145:
 21760 0626 5F5F746D 		.ascii	"__tm_wday\000"
 21760      5F776461 
 21760      7900
 21761              	.LASF278:
 21762 0630 66696E61 		.ascii	"finalRangeIntegrationTimeMilliSecs\000"
 21762      6C52616E 
 21762      6765496E 
 21762      74656772 
 21762      6174696F 
 21763              	.LASF279:
 21764 0653 7369676D 		.ascii	"sigmaEstimateP1\000"
 21764      61457374 
 21764      696D6174 
 21764      65503100 
 21765              	.LASF280:
 21766 0663 7369676D 		.ascii	"sigmaEstimateP2\000"
 21766      61457374 
 21766      696D6174 
 21766      65503200 
 21767              	.LASF281:
 21768 0673 7369676D 		.ascii	"sigmaEstimateP3\000"
 21768      61457374 
 21768      696D6174 
 21768      65503300 
 21769              	.LASF187:
 21770 0683 5F726573 		.ascii	"_result\000"
 21770      756C7400 
 21771              	.LASF24:
 21772 068b 46697850 		.ascii	"FixPoint1616_t\000"
 21772      6F696E74 
 21772      31363136 
 21772      5F7400
 21773              	.LASF90:
 21774 069a 564C3533 		.ascii	"VL53L0X_DeviceSpecificParameters_t\000"
 21774      4C30585F 
ARM GAS  /var/folders/3j/4xdnk5197cv_b7cw3n33qk7r0000gn/T//ccLoT9Qc.s 			page 388


 21774      44657669 
 21774      63655370 
 21774      65636966 
 21775              	.LASF21:
 21776 06bd 75696E74 		.ascii	"uint32_t\000"
 21776      33325F74 
 21776      00
 21777              	.LASF16:
 21778 06c6 696E7438 		.ascii	"int8_t\000"
 21778      5F7400
 21779              	.LASF141:
 21780 06cd 5F5F746D 		.ascii	"__tm_hour\000"
 21780      5F686F75 
 21780      7200
 21781              	.LASF355:
 21782 06d7 4473734F 		.ascii	"DssOverheadMicroSeconds\000"
 21782      76657268 
 21782      6561644D 
 21782      6963726F 
 21782      5365636F 
 21783              	.LASF257:
 21784 06ef 54656D70 		.ascii	"Temp8\000"
 21784      3800
 21785              	.LASF430:
 21786 06f5 73697A65 		.ascii	"size\000"
 21786      00
 21787              	.LASF319:
 21788 06fa 6D696E53 		.ascii	"minSignalNeeded_p2\000"
 21788      69676E61 
 21788      6C4E6565 
 21788      6465645F 
 21788      703200
 21789              	.LASF263:
 21790 070d 6350756C 		.ascii	"cPulseEffectiveWidth_centi_ns\000"
 21790      73654566 
 21790      66656374 
 21790      69766557 
 21790      69647468 
 21791              	.LASF128:
 21792 072b 5F5F636F 		.ascii	"__count\000"
 21792      756E7400 
 21793              	.LASF248:
 21794 0733 5369676D 		.ascii	"SigmaLimitCheckEnable\000"
 21794      614C696D 
 21794      69744368 
 21794      65636B45 
 21794      6E61626C 
 21795              	.LASF452:
 21796 0749 2E2E2F2F 		.ascii	"..//VL53L0X_Api/core/src/vl53l0x_api_core.c\000"
 21796      564C3533 
 21796      4C30585F 
 21796      4170692F 
 21796      636F7265 
 21797              	.LASF61:
 21798 0775 48697374 		.ascii	"HistogramType\000"
 21798      6F677261 
 21798      6D547970 
ARM GAS  /var/folders/3j/4xdnk5197cv_b7cw3n33qk7r0000gn/T//ccLoT9Qc.s 			page 389


 21798      6500
 21799              	.LASF371:
 21800 0783 4D696E46 		.ascii	"MinFinalVcselPeriodPCLK\000"
 21800      696E616C 
 21800      56637365 
 21800      6C506572 
 21800      696F6450 
 21801              	.LASF270:
 21802 079b 63544F46 		.ascii	"cTOF_per_mm_ps\000"
 21802      5F706572 
 21802      5F6D6D5F 
 21802      707300
 21803              	.LASF140:
 21804 07aa 5F5F746D 		.ascii	"__tm_min\000"
 21804      5F6D696E 
 21804      00
 21805              	.LASF44:
 21806 07b3 564C3533 		.ascii	"VL53L0X_DeviceParameters_t\000"
 21806      4C30585F 
 21806      44657669 
 21806      63655061 
 21806      72616D65 
 21807              	.LASF225:
 21808 07ce 5F6E6578 		.ascii	"_nextf\000"
 21808      746600
 21809              	.LASF25:
 21810 07d5 564C3533 		.ascii	"VL53L0X_DeviceError\000"
 21810      4C30585F 
 21810      44657669 
 21810      63654572 
 21810      726F7200 
 21811              	.LASF431:
 21812 07e9 74656D70 		.ascii	"tempData\000"
 21812      44617461 
 21812      00
 21813              	.LASF104:
 21814 07f2 74617267 		.ascii	"targetRefRate\000"
 21814      65745265 
 21814      66526174 
 21814      6500
 21815              	.LASF262:
 21816 0800 70446D61 		.ascii	"pDmax_mm\000"
 21816      785F6D6D 
 21816      00
 21817              	.LASF18:
 21818 0809 696E7431 		.ascii	"int16_t\000"
 21818      365F7400 
 21819              	.LASF202:
 21820 0811 5F72616E 		.ascii	"_rand48\000"
 21820      64343800 
 21821              	.LASF366:
 21822 0819 76637365 		.ascii	"vcsel_period_reg\000"
 21822      6C5F7065 
 21822      72696F64 
 21822      5F726567 
 21822      00
 21823              	.LASF188:
ARM GAS  /var/folders/3j/4xdnk5197cv_b7cw3n33qk7r0000gn/T//ccLoT9Qc.s 			page 390


 21824 082a 5F726573 		.ascii	"_result_k\000"
 21824      756C745F 
 21824      6B00
 21825              	.LASF93:
 21826 0834 50617274 		.ascii	"Part2PartOffsetAdjustmentNVMMicroMeter\000"
 21826      32506172 
 21826      744F6666 
 21826      73657441 
 21826      646A7573 
 21827              	.LASF15:
 21828 085b 6C6F6E67 		.ascii	"long long unsigned int\000"
 21828      206C6F6E 
 21828      6720756E 
 21828      7369676E 
 21828      65642069 
 21829              	.LASF46:
 21830 0872 416D6254 		.ascii	"AmbTuningWindowFactor_K\000"
 21830      756E696E 
 21830      6757696E 
 21830      646F7746 
 21830      6163746F 
 21831              	.LASF208:
 21832 088a 5F617363 		.ascii	"_asctime_buf\000"
 21832      74696D65 
 21832      5F627566 
 21832      00
 21833              	.LASF159:
 21834 0897 5F5F7346 		.ascii	"__sFILE\000"
 21834      494C4500 
 21835              	.LASF136:
 21836 089f 5F776473 		.ascii	"_wds\000"
 21836      00
 21837              	.LASF275:
 21838 08a4 66696E61 		.ascii	"finalRangeTimeoutMicroSecs\000"
 21838      6C52616E 
 21838      67655469 
 21838      6D656F75 
 21838      744D6963 
 21839              	.LASF341:
 21840 08bf 53656C65 		.ascii	"SelectParam\000"
 21840      63745061 
 21840      72616D00 
 21841              	.LASF354:
 21842 08cb 5463634F 		.ascii	"TccOverheadMicroSeconds\000"
 21842      76657268 
 21842      6561644D 
 21842      6963726F 
 21842      5365636F 
 21843              	.LASF309:
 21844 08e3 70646D61 		.ascii	"pdmax_mm\000"
 21844      785F6D6D 
 21844      00
 21845              	.LASF70:
 21846 08ec 4F736346 		.ascii	"OscFrequencyMHz\000"
 21846      72657175 
 21846      656E6379 
 21846      4D487A00 
ARM GAS  /var/folders/3j/4xdnk5197cv_b7cw3n33qk7r0000gn/T//ccLoT9Qc.s 			page 391


 21847              	.LASF7:
 21848 08fc 5F5F7569 		.ascii	"__uint16_t\000"
 21848      6E743136 
 21848      5F7400
 21849              	.LASF376:
 21850 0907 53657175 		.ascii	"SequenceStepId\000"
 21850      656E6365 
 21850      53746570 
 21850      496400
 21851              	.LASF296:
 21852 0916 73717274 		.ascii	"sqrtResult_centi_ns\000"
 21852      52657375 
 21852      6C745F63 
 21852      656E7469 
 21852      5F6E7300 
 21853              	.LASF198:
 21854 092a 5F5F4649 		.ascii	"__FILE\000"
 21854      4C4500
 21855              	.LASF417:
 21856 0931 5369676E 		.ascii	"SignalRateMeasFixed400mmFix\000"
 21856      616C5261 
 21856      74654D65 
 21856      61734669 
 21856      78656434 
 21857              	.LASF397:
 21858 094d 74696D65 		.ascii	"timeout_period_us\000"
 21858      6F75745F 
 21858      70657269 
 21858      6F645F75 
 21858      7300
 21859              	.LASF171:
 21860 095f 5F6F6666 		.ascii	"_offset\000"
 21860      73657400 
 21861              	.LASF314:
 21862 0967 63416D62 		.ascii	"cAmbEffWidthDMax_ns\000"
 21862      45666657 
 21862      69647468 
 21862      444D6178 
 21862      5F6E7300 
 21863              	.LASF67:
 21864 097b 52656653 		.ascii	"RefSpadEnables\000"
 21864      70616445 
 21864      6E61626C 
 21864      657300
 21865              	.LASF109:
 21866 098a 55736549 		.ascii	"UseInternalTuningSettings\000"
 21866      6E746572 
 21866      6E616C54 
 21866      756E696E 
 21866      67536574 
 21867              	.LASF182:
 21868 09a4 5F656D65 		.ascii	"_emergency\000"
 21868      7267656E 
 21868      637900
 21869              	.LASF432:
 21870 09af 6D697272 		.ascii	"mirrorIndex\000"
 21870      6F72496E 
ARM GAS  /var/folders/3j/4xdnk5197cv_b7cw3n33qk7r0000gn/T//ccLoT9Qc.s 			page 392


 21870      64657800 
 21871              	.LASF110:
 21872 09bb 4C696E65 		.ascii	"LinearityCorrectiveGain\000"
 21872      61726974 
 21872      79436F72 
 21872      72656374 
 21872      69766547 
 21873              	.LASF444:
 21874 09d3 564C3533 		.ascii	"VL53L0X_GetVcselPulsePeriod\000"
 21874      4C30585F 
 21874      47657456 
 21874      6373656C 
 21874      50756C73 
 21875              	.LASF379:
 21876 09ef 4D737263 		.ascii	"MsrcEncodedTimeOut\000"
 21876      456E636F 
 21876      64656454 
 21876      696D654F 
 21876      757400
 21877              	.LASF55:
 21878 0a02 45666665 		.ascii	"EffectiveSpadRtnCount\000"
 21878      63746976 
 21878      65537061 
 21878      6452746E 
 21878      436F756E 
 21879              	.LASF395:
 21880 0a18 61637475 		.ascii	"actual_timeout_period_us\000"
 21880      616C5F74 
 21880      696D656F 
 21880      75745F70 
 21880      6572696F 
 21881              	.LASF413:
 21882 0a31 44697374 		.ascii	"DistMeasTgtFixed1104_mm\000"
 21882      4D656173 
 21882      54677446 
 21882      69786564 
 21882      31313034 
 21883              	.LASF98:
 21884 0a49 53706164 		.ascii	"SpadData\000"
 21884      44617461 
 21884      00
 21885              	.LASF35:
 21886 0a52 496E7465 		.ascii	"InterMeasurementPeriodMilliSeconds\000"
 21886      724D6561 
 21886      73757265 
 21886      6D656E74 
 21886      50657269 
 21887              	.LASF396:
 21888 0a75 564C3533 		.ascii	"VL53L0X_calc_timeout_mclks\000"
 21888      4C30585F 
 21888      63616C63 
 21888      5F74696D 
 21888      656F7574 
 21889              	.LASF84:
 21890 0a90 52656665 		.ascii	"ReferenceSpadCount\000"
 21890      72656E63 
 21890      65537061 
ARM GAS  /var/folders/3j/4xdnk5197cv_b7cw3n33qk7r0000gn/T//ccLoT9Qc.s 			page 393


 21890      64436F75 
 21890      6E7400
 21891              	.LASF411:
 21892 0aa3 4F666673 		.ascii	"OffsetFixed1104_mm\000"
 21892      65744669 
 21892      78656431 
 21892      3130345F 
 21892      6D6D00
 21893              	.LASF238:
 21894 0ab6 7375626F 		.ascii	"suboptarg\000"
 21894      70746172 
 21894      6700
 21895              	.LASF146:
 21896 0ac0 5F5F746D 		.ascii	"__tm_yday\000"
 21896      5F796461 
 21896      7900
 21897              	.LASF181:
 21898 0aca 5F696E63 		.ascii	"_inc\000"
 21898      00
 21899              	.LASF154:
 21900 0acf 5F696E64 		.ascii	"_ind\000"
 21900      00
 21901              	.LASF81:
 21902 0ad4 4D6F6475 		.ascii	"ModuleId\000"
 21902      6C654964 
 21902      00
 21903              	.LASF60:
 21904 0add 48697374 		.ascii	"HistogramData\000"
 21904      6F677261 
 21904      6D446174 
 21904      6100
 21905              	.LASF42:
 21906 0aeb 4C696D69 		.ascii	"LimitChecksValue\000"
 21906      74436865 
 21906      636B7356 
 21906      616C7565 
 21906      00
 21907              	.LASF240:
 21908 0afc 5369676E 		.ascii	"SignalRate\000"
 21908      616C5261 
 21908      746500
 21909              	.LASF267:
 21910 0b07 63536967 		.ascii	"cSigmaEstMax\000"
 21910      6D614573 
 21910      744D6178 
 21910      00
 21911              	.LASF235:
 21912 0b14 636F6D6D 		.ascii	"comms_speed_khz\000"
 21912      735F7370 
 21912      6565645F 
 21912      6B687A00 
 21913              	.LASF115:
 21914 0b24 5463634F 		.ascii	"TccOn\000"
 21914      6E00
 21915              	.LASF419:
 21916 0b2a 564C3533 		.ascii	"VL53L0X_device_read_strobe\000"
 21916      4C30585F 
ARM GAS  /var/folders/3j/4xdnk5197cv_b7cw3n33qk7r0000gn/T//ccLoT9Qc.s 			page 394


 21916      64657669 
 21916      63655F72 
 21916      6561645F 
 21917              	.LASF221:
 21918 0b45 5F6D6273 		.ascii	"_mbsrtowcs_state\000"
 21918      72746F77 
 21918      63735F73 
 21918      74617465 
 21918      00
 21919              	.LASF14:
 21920 0b56 5F5F7569 		.ascii	"__uint64_t\000"
 21920      6E743634 
 21920      5F7400
 21921              	.LASF302:
 21922 0b61 66696E61 		.ascii	"finalRangeMacroPCLKS\000"
 21922      6C52616E 
 21922      67654D61 
 21922      63726F50 
 21922      434C4B53 
 21923              	.LASF401:
 21924 0b76 564C3533 		.ascii	"VL53L0X_encode_timeout\000"
 21924      4C30585F 
 21924      656E636F 
 21924      64655F74 
 21924      696D656F 
 21925              	.LASF39:
 21926 0b8d 52616E67 		.ascii	"RangeOffsetMicroMeters\000"
 21926      654F6666 
 21926      7365744D 
 21926      6963726F 
 21926      4D657465 
 21927              	.LASF440:
 21928 0ba4 564C3533 		.ascii	"VL53L0X_GetSequenceStepEnables\000"
 21928      4C30585F 
 21928      47657453 
 21928      65717565 
 21928      6E636553 
 21929              	.LASF111:
 21930 0bc3 446D6178 		.ascii	"DmaxCalRangeMilliMeter\000"
 21930      43616C52 
 21930      616E6765 
 21930      4D696C6C 
 21930      694D6574 
 21931              	.LASF297:
 21932 0bda 73717274 		.ascii	"sqrtResult\000"
 21932      52657375 
 21932      6C7400
 21933              	.LASF129:
 21934 0be5 5F5F7661 		.ascii	"__value\000"
 21934      6C756500 
 21935              	.LASF378:
 21936 0bed 43757272 		.ascii	"CurrentVCSELPulsePeriodPClk\000"
 21936      656E7456 
 21936      4353454C 
 21936      50756C73 
 21936      65506572 
 21937              	.LASF78:
ARM GAS  /var/folders/3j/4xdnk5197cv_b7cw3n33qk7r0000gn/T//ccLoT9Qc.s 			page 395


 21938 0c09 5369676D 		.ascii	"SigmaEstEffPulseWidth\000"
 21938      61457374 
 21938      45666650 
 21938      756C7365 
 21938      57696474 
 21939              	.LASF189:
 21940 0c1f 5F703573 		.ascii	"_p5s\000"
 21940      00
 21941              	.LASF276:
 21942 0c24 70726552 		.ascii	"preRangeTimeoutMicroSecs\000"
 21942      616E6765 
 21942      54696D65 
 21942      6F75744D 
 21942      6963726F 
 21943              	.LASF242:
 21944 0c3d 7050616C 		.ascii	"pPalRangeStatus\000"
 21944      52616E67 
 21944      65537461 
 21944      74757300 
 21945              	.LASF103:
 21946 0c4d 53746F70 		.ascii	"StopVariable\000"
 21946      56617269 
 21946      61626C65 
 21946      00
 21947              	.LASF91:
 21948 0c5a 444D6178 		.ascii	"DMaxData\000"
 21948      44617461 
 21948      00
 21949              	.LASF50:
 21950 0c63 4D656173 		.ascii	"MeasurementTimeUsec\000"
 21950      7572656D 
 21950      656E7454 
 21950      696D6555 
 21950      73656300 
 21951              	.LASF213:
 21952 0c77 5F6D626C 		.ascii	"_mblen_state\000"
 21952      656E5F73 
 21952      74617465 
 21952      00
 21953              	.LASF350:
 21954 0c84 4D737263 		.ascii	"MsrcDccTccTimeoutMicroSeconds\000"
 21954      44636354 
 21954      63635469 
 21954      6D656F75 
 21954      744D6963 
 21955              	.LASF418:
 21956 0ca2 4E766D52 		.ascii	"NvmRefGoodSpadMap\000"
 21956      6566476F 
 21956      6F645370 
 21956      61644D61 
 21956      7000
 21957              	.LASF27:
 21958 0cb4 63686172 		.ascii	"char\000"
 21958      00
 21959              	.LASF357:
 21960 0cb9 46696E61 		.ascii	"FinalRangeOverheadMicroSeconds\000"
 21960      6C52616E 
ARM GAS  /var/folders/3j/4xdnk5197cv_b7cw3n33qk7r0000gn/T//ccLoT9Qc.s 			page 396


 21960      67654F76 
 21960      65726865 
 21960      61644D69 
 21961              	.LASF142:
 21962 0cd8 5F5F746D 		.ascii	"__tm_mday\000"
 21962      5F6D6461 
 21962      7900
 21963              	.LASF195:
 21964 0ce2 5F736967 		.ascii	"_sig_func\000"
 21964      5F66756E 
 21964      6300
 21965              	.LASF220:
 21966 0cec 5F6D6272 		.ascii	"_mbrtowc_state\000"
 21966      746F7763 
 21966      5F737461 
 21966      746500
 21967              	.LASF194:
 21968 0cfb 5F617465 		.ascii	"_atexit0\000"
 21968      78697430 
 21968      00
 21969              	.LASF80:
 21970 0d04 52656164 		.ascii	"ReadDataFromDeviceDone\000"
 21970      44617461 
 21970      46726F6D 
 21970      44657669 
 21970      6365446F 
 21971              	.LASF34:
 21972 0d1b 4D656173 		.ascii	"MeasurementTimingBudgetMicroSeconds\000"
 21972      7572656D 
 21972      656E7454 
 21972      696D696E 
 21972      67427564 
 21973              	.LASF253:
 21974 0d3f 5369676E 		.ascii	"SignalRefClipValue\000"
 21974      616C5265 
 21974      66436C69 
 21974      7056616C 
 21974      756500
 21975              	.LASF269:
 21976 0d52 63416D62 		.ascii	"cAmbToSignalRatioMax\000"
 21976      546F5369 
 21976      676E616C 
 21976      52617469 
 21976      6F4D6178 
 21977              	.LASF95:
 21978 0d67 4C617374 		.ascii	"LastRangeMeasure\000"
 21978      52616E67 
 21978      654D6561 
 21978      73757265 
 21978      00
 21979              	.LASF288:
 21980 0d78 7065616B 		.ascii	"peakSignalRate_kcps\000"
 21980      5369676E 
 21980      616C5261 
 21980      74655F6B 
 21980      63707300 
 21981              	.LASF277:
ARM GAS  /var/folders/3j/4xdnk5197cv_b7cw3n33qk7r0000gn/T//ccLoT9Qc.s 			page 397


 21982 0d8c 44657669 		.ascii	"DeviceRangeStatusInternal\000"
 21982      63655261 
 21982      6E676553 
 21982      74617475 
 21982      73496E74 
 21983              	.LASF63:
 21984 0da6 42756666 		.ascii	"BufferSize\000"
 21984      65725369 
 21984      7A6500
 21985              	.LASF317:
 21986 0db1 6D696E53 		.ascii	"minSignalNeeded\000"
 21986      69676E61 
 21986      6C4E6565 
 21986      64656400 
 21987              	.LASF131:
 21988 0dc1 5F666C6F 		.ascii	"_flock_t\000"
 21988      636B5F74 
 21988      00
 21989              	.LASF416:
 21990 0dca 50726F64 		.ascii	"ProductId_tmp\000"
 21990      75637449 
 21990      645F746D 
 21990      7000
 21991              	.LASF69:
 21992 0dd8 564C3533 		.ascii	"VL53L0X_SpadData_t\000"
 21992      4C30585F 
 21992      53706164 
 21992      44617461 
 21992      5F7400
 21993              	.LASF336:
 21994 0deb 7874616C 		.ascii	"xtalkCompEnable\000"
 21994      6B436F6D 
 21994      70456E61 
 21994      626C6500 
 21995              	.LASF298:
 21996 0dfb 746F7461 		.ascii	"totalSignalRate_mcps\000"
 21996      6C536967 
 21996      6E616C52 
 21996      6174655F 
 21996      6D637073 
 21997              	.LASF126:
 21998 0e10 5F5F7763 		.ascii	"__wch\000"
 21998      6800
 21999              	.LASF201:
 22000 0e16 5F696F62 		.ascii	"_iobs\000"
 22000      7300
 22001              	.LASF17:
 22002 0e1c 75696E74 		.ascii	"uint8_t\000"
 22002      385F7400 
 22003              	.LASF241:
 22004 0e24 7052616E 		.ascii	"pRangingMeasurementData\000"
 22004      67696E67 
 22004      4D656173 
 22004      7572656D 
 22004      656E7444 
 22005              	.LASF26:
 22006 0e3c 564C3533 		.ascii	"VL53L0X_GpioFunctionality\000"
ARM GAS  /var/folders/3j/4xdnk5197cv_b7cw3n33qk7r0000gn/T//ccLoT9Qc.s 			page 398


 22006      4C30585F 
 22006      4770696F 
 22006      46756E63 
 22006      74696F6E 
 22007              	.LASF442:
 22008 0e56 564C3533 		.ascii	"VL53L0X_SetMeasurementTimingBudgetMicroSeconds\000"
 22008      4C30585F 
 22008      5365744D 
 22008      65617375 
 22008      72656D65 
 22009              	.LASF167:
 22010 0e85 5F636C6F 		.ascii	"_close\000"
 22010      736500
 22011              	.LASF185:
 22012 0e8c 5F5F7364 		.ascii	"__sdidinit\000"
 22012      6964696E 
 22012      697400
 22013              	.LASF360:
 22014 0e97 46696E61 		.ascii	"FinalRangeTimingBudgetMicroSeconds\000"
 22014      6C52616E 
 22014      67655469 
 22014      6D696E67 
 22014      42756467 
 22015              	.LASF272:
 22016 0eba 634D6178 		.ascii	"cMaxXTalk_kcps\000"
 22016      5854616C 
 22016      6B5F6B63 
 22016      707300
 22017              	.LASF249:
 22018 0ec9 5369676E 		.ascii	"SignalRateFinalRangeLimitCheckEnable\000"
 22018      616C5261 
 22018      74654669 
 22018      6E616C52 
 22018      616E6765 
 22019              	.LASF30:
 22020 0eee 564C3533 		.ascii	"VL53L0X_HistogramModes\000"
 22020      4C30585F 
 22020      48697374 
 22020      6F677261 
 22020      6D4D6F64 
 22021              	.LASF178:
 22022 0f05 5F737464 		.ascii	"_stdin\000"
 22022      696E00
 22023              	.LASF210:
 22024 0f0c 5F67616D 		.ascii	"_gamma_signgam\000"
 22024      6D615F73 
 22024      69676E67 
 22024      616D00
 22025              	.LASF58:
 22026 0f1b 52616E67 		.ascii	"RangeStatus\000"
 22026      65537461 
 22026      74757300 
 22027              	.LASF62:
 22028 0f27 46697273 		.ascii	"FirstBin\000"
 22028      7442696E 
 22028      00
 22029              	.LASF13:
ARM GAS  /var/folders/3j/4xdnk5197cv_b7cw3n33qk7r0000gn/T//ccLoT9Qc.s 			page 399


 22030 0f30 6C6F6E67 		.ascii	"long long int\000"
 22030      206C6F6E 
 22030      6720696E 
 22030      7400
 22031              	.LASF370:
 22032 0f3e 4D617850 		.ascii	"MaxPreVcselPeriodPCLK\000"
 22032      72655663 
 22032      73656C50 
 22032      6572696F 
 22032      6450434C 
 22033              	.LASF118:
 22034 0f54 50726552 		.ascii	"PreRangeOn\000"
 22034      616E6765 
 22034      4F6E00
 22035              	.LASF29:
 22036 0f5f 564C3533 		.ascii	"VL53L0X_DeviceModes\000"
 22036      4C30585F 
 22036      44657669 
 22036      63654D6F 
 22036      64657300 
 22037              	.LASF157:
 22038 0f73 5F626173 		.ascii	"_base\000"
 22038      6500
 22039              	.LASF190:
 22040 0f79 5F667265 		.ascii	"_freelist\000"
 22040      656C6973 
 22040      7400
 22041              	.LASF342:
 22042 0f83 4E756D62 		.ascii	"NumberOfWrites\000"
 22042      65724F66 
 22042      57726974 
 22042      657300
 22043              	.LASF204:
 22044 0f92 5F6D756C 		.ascii	"_mult\000"
 22044      7400
 22045              	.LASF117:
 22046 0f98 4473734F 		.ascii	"DssOn\000"
 22046      6E00
 22047              	.LASF86:
 22048 0f9e 52656653 		.ascii	"RefSpadsInitialised\000"
 22048      70616473 
 22048      496E6974 
 22048      69616C69 
 22048      73656400 
 22049              	.LASF119:
 22050 0fb2 46696E61 		.ascii	"FinalRangeOn\000"
 22050      6C52616E 
 22050      67654F6E 
 22050      00
 22051              	.LASF344:
 22052 0fbf 6C6F6361 		.ascii	"localBuffer\000"
 22052      6C427566 
 22052      66657200 
 22053              	.LASF222:
 22054 0fcb 5F776372 		.ascii	"_wcrtomb_state\000"
 22054      746F6D62 
 22054      5F737461 
ARM GAS  /var/folders/3j/4xdnk5197cv_b7cw3n33qk7r0000gn/T//ccLoT9Qc.s 			page 400


 22054      746500
 22055              	.LASF260:
 22056 0fda 564C3533 		.ascii	"VL53L0X_calc_sigma_estimate\000"
 22056      4C30585F 
 22056      63616C63 
 22056      5F736967 
 22056      6D615F65 
 22057              	.LASF422:
 22058 0ff6 564C3533 		.ascii	"VL53L0X_quadrature_sum\000"
 22058      4C30585F 
 22058      71756164 
 22058      72617475 
 22058      72655F73 
 22059              	.LASF161:
 22060 100d 5F66696C 		.ascii	"_file\000"
 22060      6500
 22061              	.LASF445:
 22062 1013 564C3533 		.ascii	"VL53L0X_PollingDelay\000"
 22062      4C30585F 
 22062      506F6C6C 
 22062      696E6744 
 22062      656C6179 
 22063              	.LASF5:
 22064 1028 5F5F696E 		.ascii	"__int16_t\000"
 22064      7431365F 
 22064      7400
 22065              	.LASF441:
 22066 1032 564C3533 		.ascii	"VL53L0X_RdByte\000"
 22066      4C30585F 
 22066      52644279 
 22066      746500
 22067              	.LASF348:
 22068 1041 53636865 		.ascii	"SchedulerSequenceSteps\000"
 22068      64756C65 
 22068      72536571 
 22068      75656E63 
 22068      65537465 
 22069              	.LASF295:
 22070 1058 73717253 		.ascii	"sqrSum\000"
 22070      756D00
 22071              	.LASF265:
 22072 105f 6344666C 		.ascii	"cDfltFinalRangeIntegrationTimeMilliSecs\000"
 22072      7446696E 
 22072      616C5261 
 22072      6E676549 
 22072      6E746567 
 22073              	.LASF186:
 22074 1087 5F5F636C 		.ascii	"__cleanup\000"
 22074      65616E75 
 22074      7000
 22075              	.LASF346:
 22076 1091 564C3533 		.ascii	"VL53L0X_get_measurement_timing_budget_micro_seconds"
 22076      4C30585F 
 22076      6765745F 
 22076      6D656173 
 22076      7572656D 
 22077 10c4 00       		.ascii	"\000"
ARM GAS  /var/folders/3j/4xdnk5197cv_b7cw3n33qk7r0000gn/T//ccLoT9Qc.s 			page 401


 22078              	.LASF433:
 22079 10c5 6D696464 		.ascii	"middle\000"
 22079      6C6500
 22080              	.LASF130:
 22081 10cc 5F6D6273 		.ascii	"_mbstate_t\000"
 22081      74617465 
 22081      5F7400
 22082              	.LASF438:
 22083 10d7 564C3533 		.ascii	"VL53L0X_RdWord\000"
 22083      4C30585F 
 22083      5264576F 
 22083      726400
 22084              	.LASF389:
 22085 10e6 4D737263 		.ascii	"MsrcTimeOutMClks\000"
 22085      54696D65 
 22085      4F75744D 
 22085      436C6B73 
 22085      00
 22086              	.LASF47:
 22087 10f7 52657453 		.ascii	"RetSignalAt0mm\000"
 22087      69676E61 
 22087      6C417430 
 22087      6D6D00
 22088              	.LASF147:
 22089 1106 5F5F746D 		.ascii	"__tm_isdst\000"
 22089      5F697364 
 22089      737400
 22090              	.LASF427:
 22091 1111 4E657744 		.ascii	"NewDataReady\000"
 22091      61746152 
 22091      65616479 
 22091      00
 22092              	.LASF223:
 22093 111e 5F776373 		.ascii	"_wcsrtombs_state\000"
 22093      72746F6D 
 22093      62735F73 
 22093      74617465 
 22093      00
 22094              	.LASF312:
 22095 112f 63536967 		.ascii	"cSigmaEstRef\000"
 22095      6D614573 
 22095      74526566 
 22095      00
 22096              	.LASF356:
 22097 113c 50726552 		.ascii	"PreRangeOverheadMicroSeconds\000"
 22097      616E6765 
 22097      4F766572 
 22097      68656164 
 22097      4D696372 
 22098              	.LASF423:
 22099 1159 564C3533 		.ascii	"VL53L0X_isqrt\000"
 22099      4C30585F 
 22099      69737172 
 22099      7400
 22100              	.LASF224:
 22101 1167 5F685F65 		.ascii	"_h_errno\000"
 22101      72726E6F 
ARM GAS  /var/folders/3j/4xdnk5197cv_b7cw3n33qk7r0000gn/T//ccLoT9Qc.s 			page 402


 22101      00
 22102              	.LASF303:
 22103 1170 70726552 		.ascii	"preRangeMacroPCLKS\000"
 22103      616E6765 
 22103      4D616372 
 22103      6F50434C 
 22103      4B5300
 22104              	.LASF368:
 22105 1183 56435345 		.ascii	"VCSELPulsePeriodPCLK\000"
 22105      4C50756C 
 22105      73655065 
 22105      72696F64 
 22105      50434C4B 
 22106              	.LASF412:
 22107 1198 4F666673 		.ascii	"OffsetMicroMeters\000"
 22107      65744D69 
 22107      63726F4D 
 22107      65746572 
 22107      7300
 22108              	.LASF45:
 22109 11aa 564C3533 		.ascii	"VL53L0X_State\000"
 22109      4C30585F 
 22109      53746174 
 22109      6500
 22110              	.LASF362:
 22111 11b8 53756254 		.ascii	"SubTimeout\000"
 22111      696D656F 
 22111      757400
 22112              	.LASF447:
 22113 11c3 564C3533 		.ascii	"VL53L0X_RdDWord\000"
 22113      4C30585F 
 22113      52644457 
 22113      6F726400 
 22114              	.LASF420:
 22115 11d3 7374726F 		.ascii	"strobe\000"
 22115      626500
 22116              	.LASF48:
 22117 11da 564C3533 		.ascii	"VL53L0X_DMaxData_t\000"
 22117      4C30585F 
 22117      444D6178 
 22117      44617461 
 22117      5F7400
 22118              	.LASF2:
 22119 11ed 5F5F696E 		.ascii	"__int8_t\000"
 22119      74385F74 
 22119      00
 22120              	.LASF120:
 22121 11f6 564C3533 		.ascii	"VL53L0X_SchedulerSequenceSteps_t\000"
 22121      4C30585F 
 22121      53636865 
 22121      64756C65 
 22121      72536571 
 22122              	.LASF392:
 22123 1217 76637365 		.ascii	"vcsel_period_pclks\000"
 22123      6C5F7065 
 22123      72696F64 
 22123      5F70636C 
ARM GAS  /var/folders/3j/4xdnk5197cv_b7cw3n33qk7r0000gn/T//ccLoT9Qc.s 			page 403


 22123      6B7300
 22124              	.LASF429:
 22125 122a 64617461 		.ascii	"data\000"
 22125      00
 22126              	.LASF282:
 22127 122f 64656C74 		.ascii	"deltaT_ps\000"
 22127      61545F70 
 22127      7300
 22128              	.LASF143:
 22129 1239 5F5F746D 		.ascii	"__tm_mon\000"
 22129      5F6D6F6E 
 22129      00
 22130              	.LASF32:
 22131 1242 44657669 		.ascii	"DeviceMode\000"
 22131      63654D6F 
 22131      646500
 22132              	.LASF334:
 22133 124d 564C3533 		.ascii	"VL53L0X_get_total_xtalk_rate\000"
 22133      4C30585F 
 22133      6765745F 
 22133      746F7461 
 22133      6C5F7874 
 22134              	.LASF38:
 22135 126a 5854616C 		.ascii	"XTalkCompensationRateMegaCps\000"
 22135      6B436F6D 
 22135      70656E73 
 22135      6174696F 
 22135      6E526174 
 22136              	.LASF121:
 22137 1287 564C3533 		.ascii	"VL53L0X_SequenceStepId\000"
 22137      4C30585F 
 22137      53657175 
 22137      656E6365 
 22137      53746570 
 22138              	.LASF23:
 22139 129e 6C6F6E67 		.ascii	"long double\000"
 22139      20646F75 
 22139      626C6500 
 22140              	.LASF307:
 22141 12aa 564C3533 		.ascii	"VL53L0X_calc_dmax\000"
 22141      4C30585F 
 22141      63616C63 
 22141      5F646D61 
 22141      7800
 22142              	.LASF122:
 22143 12bc 5F4C4F43 		.ascii	"_LOCK_T\000"
 22143      4B5F5400 
 22144              	.LASF19:
 22145 12c4 75696E74 		.ascii	"uint16_t\000"
 22145      31365F74 
 22145      00
 22146              	.LASF436:
 22147 12cd 564C3533 		.ascii	"VL53L0X_GetLimitCheckValue\000"
 22147      4C30585F 
 22147      4765744C 
 22147      696D6974 
 22147      43686563 
ARM GAS  /var/folders/3j/4xdnk5197cv_b7cw3n33qk7r0000gn/T//ccLoT9Qc.s 			page 404


 22148              	.LASF59:
 22149 12e8 564C3533 		.ascii	"VL53L0X_RangingMeasurementData_t\000"
 22149      4C30585F 
 22149      52616E67 
 22149      696E674D 
 22149      65617375 
 22150              	.LASF165:
 22151 1309 5F777269 		.ascii	"_write\000"
 22151      746500
 22152              	.LASF299:
 22153 1310 636F7272 		.ascii	"correctedSignalRate_mcps\000"
 22153      65637465 
 22153      64536967 
 22153      6E616C52 
 22153      6174655F 
 22154              	.LASF246:
 22155 1329 5369676E 		.ascii	"SignalRefClipflag\000"
 22155      616C5265 
 22155      66436C69 
 22155      70666C61 
 22155      6700
 22156              	.LASF373:
 22157 133b 4D737263 		.ascii	"MsrcTimeoutMicroSeconds\000"
 22157      54696D65 
 22157      6F75744D 
 22157      6963726F 
 22157      5365636F 
 22158              	.LASF407:
 22159 1353 564C3533 		.ascii	"VL53L0X_get_info_from_device\000"
 22159      4C30585F 
 22159      6765745F 
 22159      696E666F 
 22159      5F66726F 
 22160              	.LASF353:
 22161 1370 4D737263 		.ascii	"MsrcOverheadMicroSeconds\000"
 22161      4F766572 
 22161      68656164 
 22161      4D696372 
 22161      6F536563 
 22162              	.LASF402:
 22163 1389 6C735F62 		.ascii	"ls_byte\000"
 22163      79746500 
 22164              	.LASF449:
 22165 1391 564C3533 		.ascii	"VL53L0X_WrWord\000"
 22165      4C30585F 
 22165      5772576F 
 22165      726400
 22166              	.LASF99:
 22167 13a0 53657175 		.ascii	"SequenceConfig\000"
 22167      656E6365 
 22167      436F6E66 
 22167      696700
 22168              	.LASF153:
 22169 13af 5F617465 		.ascii	"_atexit\000"
 22169      78697400 
 22170              	.LASF176:
 22171 13b7 5F726565 		.ascii	"_reent\000"
ARM GAS  /var/folders/3j/4xdnk5197cv_b7cw3n33qk7r0000gn/T//ccLoT9Qc.s 			page 405


 22171      6E7400
 22172              	.LASF453:
 22173 13be 2F557365 		.ascii	"/Users/kevinmalmsten/development_raspberry_pi/Chibi"
 22173      72732F6B 
 22173      6576696E 
 22173      6D616C6D 
 22173      7374656E 
 22174 13f1 4F532D42 		.ascii	"OS-Backup/__Backup_System\000"
 22174      61636B75 
 22174      702F5F5F 
 22174      4261636B 
 22174      75705F53 
 22175              	.LASF291:
 22176 140b 64696666 		.ascii	"diff1_mcps\000"
 22176      315F6D63 
 22176      707300
 22177              	.LASF252:
 22178 1416 5369676D 		.ascii	"SigmaLimitValue\000"
 22178      614C696D 
 22178      69745661 
 22178      6C756500 
 22179              	.LASF426:
 22180 1426 564C3533 		.ascii	"VL53L0X_measurement_poll_for_completion\000"
 22180      4C30585F 
 22180      6D656173 
 22180      7572656D 
 22180      656E745F 
 22181              	.LASF268:
 22182 144e 63536967 		.ascii	"cSigmaEstRtnMax\000"
 22182      6D614573 
 22182      7452746E 
 22182      4D617800 
 22183              	.LASF328:
 22184 145e 646D6178 		.ascii	"dmaxDarkTmp\000"
 22184      4461726B 
 22184      546D7000 
 22185              	.LASF6:
 22186 146a 73686F72 		.ascii	"short int\000"
 22186      7420696E 
 22186      7400
 22187              	.LASF315:
 22188 1474 646D6178 		.ascii	"dmaxCalRange_mm\000"
 22188      43616C52 
 22188      616E6765 
 22188      5F6D6D00 
 22189              	.LASF287:
 22190 1484 616D6269 		.ascii	"ambientRate_kcps\000"
 22190      656E7452 
 22190      6174655F 
 22190      6B637073 
 22190      00
 22191              	.LASF365:
 22192 1495 70564353 		.ascii	"pVCSELPulsePeriodPCLK\000"
 22192      454C5075 
 22192      6C736550 
 22192      6572696F 
 22192      6450434C 
ARM GAS  /var/folders/3j/4xdnk5197cv_b7cw3n33qk7r0000gn/T//ccLoT9Qc.s 			page 406


 22193              	.LASF10:
 22194 14ab 6C6F6E67 		.ascii	"long int\000"
 22194      20696E74 
 22194      00
 22195              	.LASF406:
 22196 14b4 6D616372 		.ascii	"macro_period_vclks\000"
 22196      6F5F7065 
 22196      72696F64 
 22196      5F76636C 
 22196      6B7300
 22197              	.LASF439:
 22198 14c7 564C3533 		.ascii	"VL53L0X_WriteMulti\000"
 22198      4C30585F 
 22198      57726974 
 22198      654D756C 
 22198      746900
 22199              	.LASF87:
 22200 14da 50617274 		.ascii	"PartUIDUpper\000"
 22200      55494455 
 22200      70706572 
 22200      00
 22201              	.LASF106:
 22202 14e7 5369676E 		.ascii	"SignalEstimate\000"
 22202      616C4573 
 22202      74696D61 
 22202      746500
 22203              	.LASF387:
 22204 14f6 456E636F 		.ascii	"EncodedTimeOutByte\000"
 22204      64656454 
 22204      696D654F 
 22204      75744279 
 22204      746500
 22205              	.LASF381:
 22206 1509 50726552 		.ascii	"PreRangeTimeOutMClks\000"
 22206      616E6765 
 22206      54696D65 
 22206      4F75744D 
 22206      436C6B73 
 22207              	.LASF233:
 22208 151e 49326344 		.ascii	"I2cDevAddr\000"
 22208      65764164 
 22208      647200
 22209              	.LASF197:
 22210 1529 5F5F7366 		.ascii	"__sf\000"
 22210      00
 22211              	.LASF135:
 22212 152e 5F736967 		.ascii	"_sign\000"
 22212      6E00
 22213              	.LASF301:
 22214 1534 76637365 		.ascii	"vcselWidth\000"
 22214      6C576964 
 22214      746800
 22215              	.LASF410:
 22216 153f 546D7044 		.ascii	"TmpDWord\000"
 22216      576F7264 
 22216      00
 22217              	.LASF271:
ARM GAS  /var/folders/3j/4xdnk5197cv_b7cw3n33qk7r0000gn/T//ccLoT9Qc.s 			page 407


 22218 1548 63313642 		.ascii	"c16BitRoundingParam\000"
 22218      6974526F 
 22218      756E6469 
 22218      6E675061 
 22218      72616D00 
 22219              	.LASF363:
 22220 155c 564C3533 		.ascii	"VL53L0X_get_vcsel_pulse_period\000"
 22220      4C30585F 
 22220      6765745F 
 22220      76637365 
 22220      6C5F7075 
 22221              	.LASF347:
 22222 157b 704D6561 		.ascii	"pMeasurementTimingBudgetMicroSeconds\000"
 22222      73757265 
 22222      6D656E74 
 22222      54696D69 
 22222      6E674275 
 22223              	.LASF172:
 22224 15a0 5F646174 		.ascii	"_data\000"
 22224      6100
 22225              	.LASF107:
 22226 15a6 4C617374 		.ascii	"LastSignalRefMcps\000"
 22226      5369676E 
 22226      616C5265 
 22226      664D6370 
 22226      7300
 22227              	.LASF127:
 22228 15b8 5F5F7763 		.ascii	"__wchb\000"
 22228      686200
 22229              	.LASF22:
 22230 15bf 75696E74 		.ascii	"uint64_t\000"
 22230      36345F74 
 22230      00
 22231              	.LASF311:
 22232 15c8 63536967 		.ascii	"cSignalLimit\000"
 22232      6E616C4C 
 22232      696D6974 
 22232      00
 22233              	.LASF73:
 22234 15d5 46696E61 		.ascii	"FinalRangeTimeoutMicroSecs\000"
 22234      6C52616E 
 22234      67655469 
 22234      6D656F75 
 22234      744D6963 
 22235              	.LASF285:
 22236 15f0 7369676D 		.ascii	"sigmaEstimate\000"
 22236      61457374 
 22236      696D6174 
 22236      6500
 22237              	.LASF144:
 22238 15fe 5F5F746D 		.ascii	"__tm_year\000"
 22238      5F796561 
 22238      7200
 22239              	.LASF56:
 22240 1608 5A6F6E65 		.ascii	"ZoneId\000"
 22240      496400
 22241              	.LASF361:
ARM GAS  /var/folders/3j/4xdnk5197cv_b7cw3n33qk7r0000gn/T//ccLoT9Qc.s 			page 408


 22242 160f 634D696E 		.ascii	"cMinTimingBudgetMicroSeconds\000"
 22242      54696D69 
 22242      6E674275 
 22242      64676574 
 22242      4D696372 
 22243              	.LASF414:
 22244 162c 44697374 		.ascii	"DistMeasFixed1104_400_mm\000"
 22244      4D656173 
 22244      46697865 
 22244      64313130 
 22244      345F3430 
 22245              	.LASF358:
 22246 1645 50726552 		.ascii	"PreRangeTimeoutMicroSeconds\000"
 22246      616E6765 
 22246      54696D65 
 22246      6F75744D 
 22246      6963726F 
 22247              	.LASF313:
 22248 1661 63416D62 		.ascii	"cAmbEffWidthSigmaEst_ns\000"
 22248      45666657 
 22248      69647468 
 22248      5369676D 
 22248      61457374 
 22249              	.LASF209:
 22250 1679 5F6C6F63 		.ascii	"_localtime_buf\000"
 22250      616C7469 
 22250      6D655F62 
 22250      756600
 22251              	.LASF259:
 22252 1688 564C3533 		.ascii	"VL53L0X_get_pal_range_status\000"
 22252      4C30585F 
 22252      6765745F 
 22252      70616C5F 
 22252      72616E67 
 22253              	.LASF227:
 22254 16a5 5F756E75 		.ascii	"_unused\000"
 22254      73656400 
 22255              	.LASF3:
 22256 16ad 5F5F7569 		.ascii	"__uint8_t\000"
 22256      6E74385F 
 22256      7400
 22257              	.LASF193:
 22258 16b7 5F6E6577 		.ascii	"_new\000"
 22258      00
 22259              	.LASF364:
 22260 16bc 56637365 		.ascii	"VcselPeriodType\000"
 22260      6C506572 
 22260      696F6454 
 22260      79706500 
 22261              	.LASF191:
 22262 16cc 5F637674 		.ascii	"_cvtlen\000"
 22262      6C656E00 
 22263              	.LASF68:
 22264 16d4 52656647 		.ascii	"RefGoodSpadMap\000"
 22264      6F6F6453 
 22264      7061644D 
 22264      617000
ARM GAS  /var/folders/3j/4xdnk5197cv_b7cw3n33qk7r0000gn/T//ccLoT9Qc.s 			page 409


 22265              	.LASF216:
 22266 16e3 5F6C3634 		.ascii	"_l64a_buf\000"
 22266      615F6275 
 22266      6600
 22267              	.LASF28:
 22268 16ed 564C3533 		.ascii	"VL53L0X_Error\000"
 22268      4C30585F 
 22268      4572726F 
 22268      7200
 22269              	.LASF351:
 22270 16fb 53746172 		.ascii	"StartOverheadMicroSeconds\000"
 22270      744F7665 
 22270      72686561 
 22270      644D6963 
 22270      726F5365 
 22271              	.LASF292:
 22272 1715 64696666 		.ascii	"diff2_mcps\000"
 22272      325F6D63 
 22272      707300
 22273              	.LASF345:
 22274 1720 54656D70 		.ascii	"Temp16\000"
 22274      313600
 22275              	.LASF234:
 22276 1727 636F6D6D 		.ascii	"comms_type\000"
 22276      735F7479 
 22276      706500
 22277              	.LASF372:
 22278 1732 4D617846 		.ascii	"MaxFinalVcselPeriodPCLK\000"
 22278      696E616C 
 22278      56637365 
 22278      6C506572 
 22278      696F6450 
 22279              	.LASF310:
 22280 174a 63536967 		.ascii	"cSigmaLimit\000"
 22280      6D614C69 
 22280      6D697400 
 22281              	.LASF369:
 22282 1756 4D696E50 		.ascii	"MinPreVcselPeriodPCLK\000"
 22282      72655663 
 22282      73656C50 
 22282      6572696F 
 22282      6450434C 
 22283              	.LASF170:
 22284 176c 5F626C6B 		.ascii	"_blksize\000"
 22284      73697A65 
 22284      00
 22285              	.LASF138:
 22286 1775 5F5F746D 		.ascii	"__tm\000"
 22286      00
 22287              	.LASF386:
 22288 177a 7054696D 		.ascii	"pTimeOutMicroSecs\000"
 22288      654F7574 
 22288      4D696372 
 22288      6F536563 
 22288      7300
 22289              	.LASF173:
 22290 178c 5F6C6F63 		.ascii	"_lock\000"
ARM GAS  /var/folders/3j/4xdnk5197cv_b7cw3n33qk7r0000gn/T//ccLoT9Qc.s 			page 410


 22290      6B00
 22291              	.LASF251:
 22292 1792 52616E67 		.ascii	"RangeIgnoreThresholdLimitCheckEnable\000"
 22292      6549676E 
 22292      6F726554 
 22292      68726573 
 22292      686F6C64 
 22293              	.LASF304:
 22294 17b7 7065616B 		.ascii	"peakVcselDuration_us\000"
 22294      56637365 
 22294      6C447572 
 22294      6174696F 
 22294      6E5F7573 
 22295              	.LASF94:
 22296 17cc 43757272 		.ascii	"CurrentParameters\000"
 22296      656E7450 
 22296      6172616D 
 22296      65746572 
 22296      7300
 22297              	.LASF12:
 22298 17de 6C6F6E67 		.ascii	"long unsigned int\000"
 22298      20756E73 
 22298      69676E65 
 22298      6420696E 
 22298      7400
 22299              	.LASF97:
 22300 17f0 44657669 		.ascii	"DeviceSpecificParameters\000"
 22300      63655370 
 22300      65636966 
 22300      69635061 
 22300      72616D65 
 22301              	.LASF200:
 22302 1809 5F6E696F 		.ascii	"_niobs\000"
 22302      627300
 22303              	.LASF125:
 22304 1810 77696E74 		.ascii	"wint_t\000"
 22304      5F7400
 22305              	.LASF108:
 22306 1817 7054756E 		.ascii	"pTuningSettingsPointer\000"
 22306      696E6753 
 22306      65747469 
 22306      6E677350 
 22306      6F696E74 
 22307              	.LASF258:
 22308 182e 446D6178 		.ascii	"Dmax_mm\000"
 22308      5F6D6D00 
 22309              	.LASF329:
 22310 1836 7369676D 		.ascii	"sigmaEstP2Tmp\000"
 22310      61457374 
 22310      5032546D 
 22310      7000
 22311              	.LASF20:
 22312 1844 696E7433 		.ascii	"int32_t\000"
 22312      325F7400 
 22313              	.LASF316:
 22314 184c 646D6178 		.ascii	"dmaxCalSignalRateRtn_mcps\000"
 22314      43616C53 
ARM GAS  /var/folders/3j/4xdnk5197cv_b7cw3n33qk7r0000gn/T//ccLoT9Qc.s 			page 411


 22314      69676E61 
 22314      6C526174 
 22314      6552746E 
 22315              	.LASF150:
 22316 1866 5F64736F 		.ascii	"_dso_handle\000"
 22316      5F68616E 
 22316      646C6500 
 22317              	.LASF409:
 22318 1872 62797465 		.ascii	"byte\000"
 22318      00
 22319              	.LASF228:
 22320 1877 5F5F6C6F 		.ascii	"__lock\000"
 22320      636B00
 22321              	.LASF340:
 22322 187e 496E6465 		.ascii	"Index\000"
 22322      7800
 22323              	.LASF284:
 22324 1884 7369676D 		.ascii	"sigmaEstRtn\000"
 22324      61457374 
 22324      52746E00 
 22325              	.LASF79:
 22326 1890 5369676D 		.ascii	"SigmaEstEffAmbWidth\000"
 22326      61457374 
 22326      45666641 
 22326      6D625769 
 22326      64746800 
 22327              	.LASF300:
 22328 18a4 7369676D 		.ascii	"sigmaEstRef\000"
 22328      61457374 
 22328      52656600 
 22329              	.LASF179:
 22330 18b0 5F737464 		.ascii	"_stdout\000"
 22330      6F757400 
 22331              	.LASF192:
 22332 18b8 5F637674 		.ascii	"_cvtbuf\000"
 22332      62756600 
 22333              	.LASF4:
 22334 18c0 756E7369 		.ascii	"unsigned char\000"
 22334      676E6564 
 22334      20636861 
 22334      7200
 22335              	.LASF64:
 22336 18ce 4E756D62 		.ascii	"NumberOfBins\000"
 22336      65724F66 
 22336      42696E73 
 22336      00
 22337              	.LASF75:
 22338 18db 50726552 		.ascii	"PreRangeTimeoutMicroSecs\000"
 22338      616E6765 
 22338      54696D65 
 22338      6F75744D 
 22338      6963726F 
 22339              	.LASF408:
 22340 18f4 6F707469 		.ascii	"option\000"
 22340      6F6E00
 22341              	.LASF11:
 22342 18fb 5F5F7569 		.ascii	"__uint32_t\000"
ARM GAS  /var/folders/3j/4xdnk5197cv_b7cw3n33qk7r0000gn/T//ccLoT9Qc.s 			page 412


 22342      6E743332 
 22342      5F7400
 22343              	.LASF112:
 22344 1906 446D6178 		.ascii	"DmaxCalSignalRateRtnMegaCps\000"
 22344      43616C53 
 22344      69676E61 
 22344      6C526174 
 22344      6552746E 
 22345              	.LASF74:
 22346 1922 46696E61 		.ascii	"FinalRangeVcselPulsePeriod\000"
 22346      6C52616E 
 22346      67655663 
 22346      73656C50 
 22346      756C7365 
 22347              	.LASF218:
 22348 193d 5F676574 		.ascii	"_getdate_err\000"
 22348      64617465 
 22348      5F657272 
 22348      00
 22349              	.LASF162:
 22350 194a 5F6C6266 		.ascii	"_lbfsize\000"
 22350      73697A65 
 22350      00
 22351              	.LASF337:
 22352 1953 7874616C 		.ascii	"xtalkPerSpadMegaCps\000"
 22352      6B506572 
 22352      53706164 
 22352      4D656761 
 22352      43707300 
 22353              	.LASF113:
 22354 1967 564C3533 		.ascii	"VL53L0X_DevData_t\000"
 22354      4C30585F 
 22354      44657644 
 22354      6174615F 
 22354      7400
 22355              	.LASF332:
 22356 1979 746F7461 		.ascii	"totalXtalkMegaCps\000"
 22356      6C587461 
 22356      6C6B4D65 
 22356      67614370 
 22356      7300
 22357              	.LASF151:
 22358 198b 5F666E74 		.ascii	"_fntypes\000"
 22358      79706573 
 22358      00
 22359              	.LASF205:
 22360 1994 5F616464 		.ascii	"_add\000"
 22360      00
 22361              	.LASF446:
 22362 1999 73747263 		.ascii	"strcpy\000"
 22362      707900
 22363              	.LASF450:
 22364 19a0 564C3533 		.ascii	"VL53L0X_GetXTalkCompensationEnable\000"
 22364      4C30585F 
 22364      47657458 
 22364      54616C6B 
 22364      436F6D70 
ARM GAS  /var/folders/3j/4xdnk5197cv_b7cw3n33qk7r0000gn/T//ccLoT9Qc.s 			page 413


 22365              	.LASF335:
 22366 19c3 70746F74 		.ascii	"ptotal_xtalk_rate_mcps\000"
 22366      616C5F78 
 22366      74616C6B 
 22366      5F726174 
 22366      655F6D63 
 22367              	.LASF244:
 22368 19da 4E6F6E65 		.ascii	"NoneFlag\000"
 22368      466C6167 
 22368      00
 22369              	.LASF255:
 22370 19e3 5369676E 		.ascii	"SignalRatePerSpad\000"
 22370      616C5261 
 22370      74655065 
 22370      72537061 
 22370      6400
 22371              	.LASF424:
 22372 19f5 564C3533 		.ascii	"VL53L0X_encode_vcsel_period\000"
 22372      4C30585F 
 22372      656E636F 
 22372      64655F76 
 22372      6373656C 
 22373              	.LASF283:
 22374 1a11 70774D75 		.ascii	"pwMult\000"
 22374      6C7400
 22375              	.LASF156:
 22376 1a18 5F5F7362 		.ascii	"__sbuf\000"
 22376      756600
 22377              	.LASF359:
 22378 1a1f 564C3533 		.ascii	"VL53L0X_set_measurement_timing_budget_micro_seconds"
 22378      4C30585F 
 22378      7365745F 
 22378      6D656173 
 22378      7572656D 
 22379 1a52 00       		.ascii	"\000"
 22380              	.LASF72:
 22381 1a53 50696E30 		.ascii	"Pin0GpioFunctionality\000"
 22381      4770696F 
 22381      46756E63 
 22381      74696F6E 
 22381      616C6974 
 22382              	.LASF199:
 22383 1a69 5F676C75 		.ascii	"_glue\000"
 22383      6500
 22384              	.LASF322:
 22385 1a6f 7369676D 		.ascii	"sigmaLimitTmp\000"
 22385      614C696D 
 22385      6974546D 
 22385      7000
 22386              	.LASF404:
 22387 1a7d 564C3533 		.ascii	"VL53L0X_calc_macro_period_ps\000"
 22387      4C30585F 
 22387      63616C63 
 22387      5F6D6163 
 22387      726F5F70 
 22388              	.LASF325:
 22389 1a9a 5369676E 		.ascii	"SignalAt0mm\000"
ARM GAS  /var/folders/3j/4xdnk5197cv_b7cw3n33qk7r0000gn/T//ccLoT9Qc.s 			page 414


 22389      616C4174 
 22389      306D6D00 
 22390              	.LASF273:
 22391 1aa6 63506C6C 		.ascii	"cPllPeriod_ps\000"
 22391      50657269 
 22391      6F645F70 
 22391      7300
 22392              	.LASF330:
 22393 1ab4 7369676E 		.ascii	"signalRateTemp_mcps\000"
 22393      616C5261 
 22393      74655465 
 22393      6D705F6D 
 22393      63707300 
 22394              	.LASF196:
 22395 1ac8 5F5F7367 		.ascii	"__sglue\000"
 22395      6C756500 
 22396              	.LASF207:
 22397 1ad0 5F737472 		.ascii	"_strtok_last\000"
 22397      746F6B5F 
 22397      6C617374 
 22397      00
 22398              	.LASF214:
 22399 1add 5F6D6274 		.ascii	"_mbtowc_state\000"
 22399      6F77635F 
 22399      73746174 
 22399      6500
 22400              	.LASF390:
 22401 1aeb 564C3533 		.ascii	"VL53L0X_calc_timeout_us\000"
 22401      4C30585F 
 22401      63616C63 
 22401      5F74696D 
 22401      656F7574 
 22402              	.LASF374:
 22403 1b03 50686173 		.ascii	"PhaseCalInt\000"
 22403      6543616C 
 22403      496E7400 
 22404              	.LASF184:
 22405 1b0f 5F6C6F63 		.ascii	"_locale\000"
 22405      616C6500 
 22406              	.LASF114:
 22407 1b17 564C3533 		.ascii	"VL53L0X_VcselPeriod\000"
 22407      4C30585F 
 22407      56637365 
 22407      6C506572 
 22407      696F6400 
 22408              	.LASF149:
 22409 1b2b 5F666E61 		.ascii	"_fnargs\000"
 22409      72677300 
 22410              	.LASF1:
 22411 1b33 7369676E 		.ascii	"signed char\000"
 22411      65642063 
 22411      68617200 
 22412              	.LASF400:
 22413 1b3f 74696D65 		.ascii	"timeout_macro_clks\000"
 22413      6F75745F 
 22413      6D616372 
 22413      6F5F636C 
ARM GAS  /var/folders/3j/4xdnk5197cv_b7cw3n33qk7r0000gn/T//ccLoT9Qc.s 			page 415


 22413      6B7300
 22414              	.LASF96:
 22415 1b52 4C617374 		.ascii	"LastHistogramMeasure\000"
 22415      48697374 
 22415      6F677261 
 22415      6D4D6561 
 22415      73757265 
 22416              	.LASF8:
 22417 1b67 73686F72 		.ascii	"short unsigned int\000"
 22417      7420756E 
 22417      7369676E 
 22417      65642069 
 22417      6E7400
 22418              	.LASF100:
 22419 1b7a 52616E67 		.ascii	"RangeFractionalEnable\000"
 22419      65467261 
 22419      6374696F 
 22419      6E616C45 
 22419      6E61626C 
 22420              	.LASF448:
 22421 1b90 564C3533 		.ascii	"VL53L0X_GetMeasurementDataReady\000"
 22421      4C30585F 
 22421      4765744D 
 22421      65617375 
 22421      72656D65 
 22422              	.LASF290:
 22423 1bb0 7854616C 		.ascii	"xTalkCompRate_kcps\000"
 22423      6B436F6D 
 22423      70526174 
 22423      655F6B63 
 22423      707300
 22424              	.LASF51:
 22425 1bc3 52616E67 		.ascii	"RangeMilliMeter\000"
 22425      654D696C 
 22425      6C694D65 
 22425      74657200 
 22426              	.LASF105:
 22427 1bd3 5369676D 		.ascii	"SigmaEstimate\000"
 22427      61457374 
 22427      696D6174 
 22427      6500
 22428              	.LASF266:
 22429 1be1 63566373 		.ascii	"cVcselPulseWidth_ps\000"
 22429      656C5075 
 22429      6C736557 
 22429      69647468 
 22429      5F707300 
 22430              	.LASF77:
 22431 1bf5 5369676D 		.ascii	"SigmaEstRefArray\000"
 22431      61457374 
 22431      52656641 
 22431      72726179 
 22431      00
 22432              	.LASF116:
 22433 1c06 4D737263 		.ascii	"MsrcOn\000"
 22433      4F6E00
 22434              	.LASF158:
ARM GAS  /var/folders/3j/4xdnk5197cv_b7cw3n33qk7r0000gn/T//ccLoT9Qc.s 			page 416


 22435 1c0d 5F73697A 		.ascii	"_size\000"
 22435      6500
 22436              	.LASF57:
 22437 1c13 52616E67 		.ascii	"RangeFractionalPart\000"
 22437      65467261 
 22437      6374696F 
 22437      6E616C50 
 22437      61727400 
 22438              	.LASF435:
 22439 1c27 564C3533 		.ascii	"VL53L0X_GetLimitCheckEnable\000"
 22439      4C30585F 
 22439      4765744C 
 22439      696D6974 
 22439      43686563 
 22440              	.LASF343:
 22441 1c43 41646472 		.ascii	"Address\000"
 22441      65737300 
 22442              	.LASF123:
 22443 1c4b 5F6F6666 		.ascii	"_off_t\000"
 22443      5F7400
 22444              	.LASF71:
 22445 1c52 4C617374 		.ascii	"LastEncodedTimeout\000"
 22445      456E636F 
 22445      64656454 
 22445      696D656F 
 22445      757400
 22446              	.LASF169:
 22447 1c65 5F6E6275 		.ascii	"_nbuf\000"
 22447      6600
 22448              	.LASF206:
 22449 1c6b 5F756E75 		.ascii	"_unused_rand\000"
 22449      7365645F 
 22449      72616E64 
 22449      00
 22450              	.LASF398:
 22451 1c78 564C3533 		.ascii	"VL53L0X_decode_timeout\000"
 22451      4C30585F 
 22451      6465636F 
 22451      64655F74 
 22451      696D656F 
 22452              	.LASF382:
 22453 1c8f 4D737263 		.ascii	"MsrcRangeTimeOutMClks\000"
 22453      52616E67 
 22453      6554696D 
 22453      654F7574 
 22453      4D436C6B 
 22454              	.LASF256:
 22455 1ca5 746D7057 		.ascii	"tmpWord\000"
 22455      6F726400 
 22456              	.LASF254:
 22457 1cad 52616E67 		.ascii	"RangeIgnoreThresholdValue\000"
 22457      6549676E 
 22457      6F726554 
 22457      68726573 
 22457      686F6C64 
 22458              	.LASF183:
 22459 1cc7 5F756E73 		.ascii	"_unspecified_locale_info\000"
ARM GAS  /var/folders/3j/4xdnk5197cv_b7cw3n33qk7r0000gn/T//ccLoT9Qc.s 			page 417


 22459      70656369 
 22459      66696564 
 22459      5F6C6F63 
 22459      616C655F 
 22460              	.LASF318:
 22461 1ce0 6D696E53 		.ascii	"minSignalNeeded_p1\000"
 22461      69676E61 
 22461      6C4E6565 
 22461      6465645F 
 22461      703100
 22462              	.LASF175:
 22463 1cf3 5F666C61 		.ascii	"_flags2\000"
 22463      67733200 
 22464              	.LASF320:
 22465 1cfb 6D696E53 		.ascii	"minSignalNeeded_p3\000"
 22465      69676E61 
 22465      6C4E6565 
 22465      6465645F 
 22465      703300
 22466              	.LASF321:
 22467 1d0e 6D696E53 		.ascii	"minSignalNeeded_p4\000"
 22467      69676E61 
 22467      6C4E6565 
 22467      6465645F 
 22467      703400
 22468              	.LASF152:
 22469 1d21 5F69735F 		.ascii	"_is_cxa\000"
 22469      63786100 
 22470              	.LASF261:
 22471 1d29 70536967 		.ascii	"pSigmaEstimate\000"
 22471      6D614573 
 22471      74696D61 
 22471      746500
 22472              	.LASF101:
 22473 1d38 50616C53 		.ascii	"PalState\000"
 22473      74617465 
 22473      00
 22474              	.LASF49:
 22475 1d41 54696D65 		.ascii	"TimeStamp\000"
 22475      5374616D 
 22475      7000
 22476              	.LASF203:
 22477 1d4b 5F736565 		.ascii	"_seed\000"
 22477      6400
 22478              	.LASF211:
 22479 1d51 5F72616E 		.ascii	"_rand_next\000"
 22479      645F6E65 
 22479      787400
 22480              	.LASF383:
 22481 1d5c 46696E61 		.ascii	"FinalRangeTimeOutMClks\000"
 22481      6C52616E 
 22481      67655469 
 22481      6D654F75 
 22481      744D436C 
 22482              	.LASF66:
 22483 1d73 564C3533 		.ascii	"VL53L0X_HistogramMeasurementData_t\000"
 22483      4C30585F 
ARM GAS  /var/folders/3j/4xdnk5197cv_b7cw3n33qk7r0000gn/T//ccLoT9Qc.s 			page 418


 22483      48697374 
 22483      6F677261 
 22483      6D4D6561 
 22484              	.LASF232:
 22485 1d96 44617461 		.ascii	"Data\000"
 22485      00
 22486              	.LASF166:
 22487 1d9b 5F736565 		.ascii	"_seek\000"
 22487      6B00
 22488              	.LASF133:
 22489 1da1 5F6E6578 		.ascii	"_next\000"
 22489      7400
 22490              	.LASF377:
 22491 1da7 54696D65 		.ascii	"TimeOutMicroSecs\000"
 22491      4F75744D 
 22491      6963726F 
 22491      53656373 
 22491      00
 22492              	.LASF180:
 22493 1db8 5F737464 		.ascii	"_stderr\000"
 22493      65727200 
 22494              	.LASF226:
 22495 1dc0 5F6E6D61 		.ascii	"_nmalloc\000"
 22495      6C6C6F63 
 22495      00
 22496              	.LASF168:
 22497 1dc9 5F756275 		.ascii	"_ubuf\000"
 22497      6600
 22498              	.LASF89:
 22499 1dcf 5369676E 		.ascii	"SignalRateMeasFixed400mm\000"
 22499      616C5261 
 22499      74654D65 
 22499      61734669 
 22499      78656434 
 22500              	.LASF308:
 22501 1de8 746F7461 		.ascii	"totalCorrSignalRate_mcps\000"
 22501      6C436F72 
 22501      72536967 
 22501      6E616C52 
 22501      6174655F 
 22502              		.ident	"GCC: (GNU Tools for Arm Embedded Processors 7-2018-q2-update) 7.3.1 20180622 (release) [AR
ARM GAS  /var/folders/3j/4xdnk5197cv_b7cw3n33qk7r0000gn/T//ccLoT9Qc.s 			page 419


DEFINED SYMBOLS
                            *ABS*:0000000000000000 vl53l0x_api_core.c
/var/folders/3j/4xdnk5197cv_b7cw3n33qk7r0000gn/T//ccLoT9Qc.s:16     .text.VL53L0X_encode_timeout.part.0:0000000000000000 $a
/var/folders/3j/4xdnk5197cv_b7cw3n33qk7r0000gn/T//ccLoT9Qc.s:21     .text.VL53L0X_encode_timeout.part.0:0000000000000000 VL53L0X_encode_timeout.part.0
/var/folders/3j/4xdnk5197cv_b7cw3n33qk7r0000gn/T//ccLoT9Qc.s:71     .text.set_sequence_step_timeout.part.1:0000000000000000 $a
/var/folders/3j/4xdnk5197cv_b7cw3n33qk7r0000gn/T//ccLoT9Qc.s:76     .text.set_sequence_step_timeout.part.1:0000000000000000 set_sequence_step_timeout.part.1
/var/folders/3j/4xdnk5197cv_b7cw3n33qk7r0000gn/T//ccLoT9Qc.s:374    .text.set_sequence_step_timeout.part.1:00000000000001b0 $d
/var/folders/3j/4xdnk5197cv_b7cw3n33qk7r0000gn/T//ccLoT9Qc.s:379    .text.VL53L0X_reverse_bytes:0000000000000000 $a
/var/folders/3j/4xdnk5197cv_b7cw3n33qk7r0000gn/T//ccLoT9Qc.s:385    .text.VL53L0X_reverse_bytes:0000000000000000 VL53L0X_reverse_bytes
/var/folders/3j/4xdnk5197cv_b7cw3n33qk7r0000gn/T//ccLoT9Qc.s:427    .text.VL53L0X_measurement_poll_for_completion:0000000000000000 $a
/var/folders/3j/4xdnk5197cv_b7cw3n33qk7r0000gn/T//ccLoT9Qc.s:433    .text.VL53L0X_measurement_poll_for_completion:0000000000000000 VL53L0X_measurement_poll_for_completion
/var/folders/3j/4xdnk5197cv_b7cw3n33qk7r0000gn/T//ccLoT9Qc.s:502    .text.VL53L0X_decode_vcsel_period:0000000000000000 $a
/var/folders/3j/4xdnk5197cv_b7cw3n33qk7r0000gn/T//ccLoT9Qc.s:508    .text.VL53L0X_decode_vcsel_period:0000000000000000 VL53L0X_decode_vcsel_period
/var/folders/3j/4xdnk5197cv_b7cw3n33qk7r0000gn/T//ccLoT9Qc.s:527    .text.VL53L0X_encode_vcsel_period:0000000000000000 $a
/var/folders/3j/4xdnk5197cv_b7cw3n33qk7r0000gn/T//ccLoT9Qc.s:533    .text.VL53L0X_encode_vcsel_period:0000000000000000 VL53L0X_encode_vcsel_period
/var/folders/3j/4xdnk5197cv_b7cw3n33qk7r0000gn/T//ccLoT9Qc.s:552    .text.VL53L0X_isqrt:0000000000000000 $a
/var/folders/3j/4xdnk5197cv_b7cw3n33qk7r0000gn/T//ccLoT9Qc.s:558    .text.VL53L0X_isqrt:0000000000000000 VL53L0X_isqrt
/var/folders/3j/4xdnk5197cv_b7cw3n33qk7r0000gn/T//ccLoT9Qc.s:620    .text.VL53L0X_quadrature_sum:0000000000000000 $a
/var/folders/3j/4xdnk5197cv_b7cw3n33qk7r0000gn/T//ccLoT9Qc.s:626    .text.VL53L0X_quadrature_sum:0000000000000000 VL53L0X_quadrature_sum
/var/folders/3j/4xdnk5197cv_b7cw3n33qk7r0000gn/T//ccLoT9Qc.s:697    .text.VL53L0X_quadrature_sum:0000000000000064 $d
/var/folders/3j/4xdnk5197cv_b7cw3n33qk7r0000gn/T//ccLoT9Qc.s:702    .text.VL53L0X_device_read_strobe:0000000000000000 $a
/var/folders/3j/4xdnk5197cv_b7cw3n33qk7r0000gn/T//ccLoT9Qc.s:708    .text.VL53L0X_device_read_strobe:0000000000000000 VL53L0X_device_read_strobe
/var/folders/3j/4xdnk5197cv_b7cw3n33qk7r0000gn/T//ccLoT9Qc.s:789    .text.VL53L0X_get_info_from_device:0000000000000000 $a
/var/folders/3j/4xdnk5197cv_b7cw3n33qk7r0000gn/T//ccLoT9Qc.s:795    .text.VL53L0X_get_info_from_device:0000000000000000 VL53L0X_get_info_from_device
/var/folders/3j/4xdnk5197cv_b7cw3n33qk7r0000gn/T//ccLoT9Qc.s:1948   .text.VL53L0X_calc_macro_period_ps:0000000000000000 $a
/var/folders/3j/4xdnk5197cv_b7cw3n33qk7r0000gn/T//ccLoT9Qc.s:1954   .text.VL53L0X_calc_macro_period_ps:0000000000000000 VL53L0X_calc_macro_period_ps
/var/folders/3j/4xdnk5197cv_b7cw3n33qk7r0000gn/T//ccLoT9Qc.s:1975   .text.VL53L0X_encode_timeout:0000000000000000 $a
/var/folders/3j/4xdnk5197cv_b7cw3n33qk7r0000gn/T//ccLoT9Qc.s:1981   .text.VL53L0X_encode_timeout:0000000000000000 VL53L0X_encode_timeout
/var/folders/3j/4xdnk5197cv_b7cw3n33qk7r0000gn/T//ccLoT9Qc.s:1998   .text.VL53L0X_decode_timeout:0000000000000000 $a
/var/folders/3j/4xdnk5197cv_b7cw3n33qk7r0000gn/T//ccLoT9Qc.s:2004   .text.VL53L0X_decode_timeout:0000000000000000 VL53L0X_decode_timeout
/var/folders/3j/4xdnk5197cv_b7cw3n33qk7r0000gn/T//ccLoT9Qc.s:2025   .text.VL53L0X_calc_timeout_mclks:0000000000000000 $a
/var/folders/3j/4xdnk5197cv_b7cw3n33qk7r0000gn/T//ccLoT9Qc.s:2031   .text.VL53L0X_calc_timeout_mclks:0000000000000000 VL53L0X_calc_timeout_mclks
/var/folders/3j/4xdnk5197cv_b7cw3n33qk7r0000gn/T//ccLoT9Qc.s:2085   .text.VL53L0X_calc_timeout_mclks:000000000000003c $d
/var/folders/3j/4xdnk5197cv_b7cw3n33qk7r0000gn/T//ccLoT9Qc.s:2090   .text.VL53L0X_calc_timeout_us:0000000000000000 $a
/var/folders/3j/4xdnk5197cv_b7cw3n33qk7r0000gn/T//ccLoT9Qc.s:2096   .text.VL53L0X_calc_timeout_us:0000000000000000 VL53L0X_calc_timeout_us
/var/folders/3j/4xdnk5197cv_b7cw3n33qk7r0000gn/T//ccLoT9Qc.s:2137   .text.VL53L0X_calc_timeout_us:0000000000000034 $d
/var/folders/3j/4xdnk5197cv_b7cw3n33qk7r0000gn/T//ccLoT9Qc.s:2142   .text.get_sequence_step_timeout:0000000000000000 $a
/var/folders/3j/4xdnk5197cv_b7cw3n33qk7r0000gn/T//ccLoT9Qc.s:2148   .text.get_sequence_step_timeout:0000000000000000 get_sequence_step_timeout
/var/folders/3j/4xdnk5197cv_b7cw3n33qk7r0000gn/T//ccLoT9Qc.s:2516   .text.get_sequence_step_timeout:0000000000000238 $d
/var/folders/3j/4xdnk5197cv_b7cw3n33qk7r0000gn/T//ccLoT9Qc.s:2523   .text.set_sequence_step_timeout:0000000000000000 $a
/var/folders/3j/4xdnk5197cv_b7cw3n33qk7r0000gn/T//ccLoT9Qc.s:2529   .text.set_sequence_step_timeout:0000000000000000 set_sequence_step_timeout
/var/folders/3j/4xdnk5197cv_b7cw3n33qk7r0000gn/T//ccLoT9Qc.s:2644   .text.set_sequence_step_timeout:00000000000000a4 $d
/var/folders/3j/4xdnk5197cv_b7cw3n33qk7r0000gn/T//ccLoT9Qc.s:2649   .text.VL53L0X_set_vcsel_pulse_period:0000000000000000 $a
/var/folders/3j/4xdnk5197cv_b7cw3n33qk7r0000gn/T//ccLoT9Qc.s:2655   .text.VL53L0X_set_vcsel_pulse_period:0000000000000000 VL53L0X_set_vcsel_pulse_period
/var/folders/3j/4xdnk5197cv_b7cw3n33qk7r0000gn/T//ccLoT9Qc.s:3130   .text.VL53L0X_get_vcsel_pulse_period:0000000000000000 $a
/var/folders/3j/4xdnk5197cv_b7cw3n33qk7r0000gn/T//ccLoT9Qc.s:3136   .text.VL53L0X_get_vcsel_pulse_period:0000000000000000 VL53L0X_get_vcsel_pulse_period
/var/folders/3j/4xdnk5197cv_b7cw3n33qk7r0000gn/T//ccLoT9Qc.s:3213   .text.VL53L0X_set_measurement_timing_budget_micro_seconds:0000000000000000 $a
/var/folders/3j/4xdnk5197cv_b7cw3n33qk7r0000gn/T//ccLoT9Qc.s:3219   .text.VL53L0X_set_measurement_timing_budget_micro_seconds:0000000000000000 VL53L0X_set_measurement_timing_budget_micro_seconds
/var/folders/3j/4xdnk5197cv_b7cw3n33qk7r0000gn/T//ccLoT9Qc.s:3426   .text.VL53L0X_set_measurement_timing_budget_micro_seconds:000000000000017c $d
/var/folders/3j/4xdnk5197cv_b7cw3n33qk7r0000gn/T//ccLoT9Qc.s:3431   .text.VL53L0X_get_measurement_timing_budget_micro_seconds:0000000000000000 $a
/var/folders/3j/4xdnk5197cv_b7cw3n33qk7r0000gn/T//ccLoT9Qc.s:3437   .text.VL53L0X_get_measurement_timing_budget_micro_seconds:0000000000000000 VL53L0X_get_measurement_timing_budget_micro_seconds
/var/folders/3j/4xdnk5197cv_b7cw3n33qk7r0000gn/T//ccLoT9Qc.s:3630   .text.VL53L0X_get_measurement_timing_budget_micro_seconds:0000000000000178 $d
/var/folders/3j/4xdnk5197cv_b7cw3n33qk7r0000gn/T//ccLoT9Qc.s:3635   .text.VL53L0X_load_tuning_settings:0000000000000000 $a
/var/folders/3j/4xdnk5197cv_b7cw3n33qk7r0000gn/T//ccLoT9Qc.s:3641   .text.VL53L0X_load_tuning_settings:0000000000000000 VL53L0X_load_tuning_settings
/var/folders/3j/4xdnk5197cv_b7cw3n33qk7r0000gn/T//ccLoT9Qc.s:3708   .text.VL53L0X_load_tuning_settings:0000000000000060 $d
/var/folders/3j/4xdnk5197cv_b7cw3n33qk7r0000gn/T//ccLoT9Qc.s:3715   .text.VL53L0X_load_tuning_settings:0000000000000070 $a
/var/folders/3j/4xdnk5197cv_b7cw3n33qk7r0000gn/T//ccLoT9Qc.s:3851   .text.VL53L0X_get_total_xtalk_rate:0000000000000000 $a
ARM GAS  /var/folders/3j/4xdnk5197cv_b7cw3n33qk7r0000gn/T//ccLoT9Qc.s 			page 420


/var/folders/3j/4xdnk5197cv_b7cw3n33qk7r0000gn/T//ccLoT9Qc.s:3857   .text.VL53L0X_get_total_xtalk_rate:0000000000000000 VL53L0X_get_total_xtalk_rate
/var/folders/3j/4xdnk5197cv_b7cw3n33qk7r0000gn/T//ccLoT9Qc.s:3925   .text.VL53L0X_get_total_signal_rate:0000000000000000 $a
/var/folders/3j/4xdnk5197cv_b7cw3n33qk7r0000gn/T//ccLoT9Qc.s:3931   .text.VL53L0X_get_total_signal_rate:0000000000000000 VL53L0X_get_total_signal_rate
/var/folders/3j/4xdnk5197cv_b7cw3n33qk7r0000gn/T//ccLoT9Qc.s:3973   .text.VL53L0X_calc_dmax:0000000000000000 $a
/var/folders/3j/4xdnk5197cv_b7cw3n33qk7r0000gn/T//ccLoT9Qc.s:3979   .text.VL53L0X_calc_dmax:0000000000000000 VL53L0X_calc_dmax
/var/folders/3j/4xdnk5197cv_b7cw3n33qk7r0000gn/T//ccLoT9Qc.s:4278   .text.VL53L0X_calc_dmax:00000000000001b8 $d
/var/folders/3j/4xdnk5197cv_b7cw3n33qk7r0000gn/T//ccLoT9Qc.s:4289   .text.VL53L0X_calc_sigma_estimate:0000000000000000 $a
/var/folders/3j/4xdnk5197cv_b7cw3n33qk7r0000gn/T//ccLoT9Qc.s:4295   .text.VL53L0X_calc_sigma_estimate:0000000000000000 VL53L0X_calc_sigma_estimate
/var/folders/3j/4xdnk5197cv_b7cw3n33qk7r0000gn/T//ccLoT9Qc.s:4975   .text.VL53L0X_calc_sigma_estimate:0000000000000468 $d
/var/folders/3j/4xdnk5197cv_b7cw3n33qk7r0000gn/T//ccLoT9Qc.s:4987   .text.VL53L0X_get_pal_range_status:0000000000000000 $a
/var/folders/3j/4xdnk5197cv_b7cw3n33qk7r0000gn/T//ccLoT9Qc.s:4993   .text.VL53L0X_get_pal_range_status:0000000000000000 VL53L0X_get_pal_range_status

UNDEFINED SYMBOLS
__aeabi_uidiv
VL53L0X_GetSequenceStepEnables
VL53L0X_GetVcselPulsePeriod
VL53L0X_RdWord
VL53L0X_WrWord
VL53L0X_PollingDelay
VL53L0X_GetMeasurementDataReady
VL53L0X_WrByte
VL53L0X_RdByte
strcpy
VL53L0X_RdDWord
VL53L0X_SetMeasurementTimingBudgetMicroSeconds
VL53L0X_perform_phase_calibration
VL53L0X_WriteMulti
VL53L0X_GetXTalkCompensationEnable
__aeabi_idiv
VL53L0X_GetLimitCheckEnable
VL53L0X_GetLimitCheckValue
