ARM GAS  /var/folders/3j/4xdnk5197cv_b7cw3n33qk7r0000gn/T//ccfSc7Hc.s 			page 1


   1              		.cpu arm1176jz-s
   2              		.eabi_attribute 20, 1
   3              		.eabi_attribute 21, 1
   4              		.eabi_attribute 23, 3
   5              		.eabi_attribute 24, 1
   6              		.eabi_attribute 25, 1
   7              		.eabi_attribute 26, 1
   8              		.eabi_attribute 30, 2
   9              		.eabi_attribute 34, 1
  10              		.eabi_attribute 18, 4
  11              		.file	"vl53l0x_platform_log.c"
  12              		.text
  13              	.Ltext0:
  14              		.cfi_sections	.debug_frame
  15              		.section	.text.VL53L0X_trace_config,"ax",%progbits
  16              		.align	2
  17              		.global	VL53L0X_trace_config
  18              		.syntax unified
  19              		.arm
  20              		.fpu softvfp
  21              		.type	VL53L0X_trace_config, %function
  22              	VL53L0X_trace_config:
  23              	.LFB3:
  24              		.file 1 "..//VL53L0X_Api/platform/src/vl53l0x_platform_log.c"
  25              		.loc 1 46 0
  26              		.cfi_startproc
  27              		@ args = 0, pretend = 0, frame = 0
  28              		@ frame_needed = 0, uses_anonymous_args = 0
  29              	.LVL0:
  30 0000 F0472DE9 		push	{r4, r5, r6, r7, r8, r9, r10, lr}
  31              		.cfi_def_cfa_offset 32
  32              		.cfi_offset 4, -32
  33              		.cfi_offset 5, -28
  34              		.cfi_offset 6, -24
  35              		.cfi_offset 7, -20
  36              		.cfi_offset 8, -16
  37              		.cfi_offset 9, -12
  38              		.cfi_offset 10, -8
  39              		.cfi_offset 14, -4
  40              		.loc 1 49 0
  41 0004 C8609FE5 		ldr	r6, .L18
  42              		.loc 1 46 0
  43 0008 0070A0E1 		mov	r7, r0
  44              		.loc 1 49 0
  45 000c 000096E5 		ldr	r0, [r6]
  46              	.LVL1:
  47              		.loc 1 46 0
  48 0010 0180A0E1 		mov	r8, r1
  49              		.loc 1 49 0
  50 0014 000050E3 		cmp	r0, #0
  51              		.loc 1 46 0
  52 0018 0290A0E1 		mov	r9, r2
  53 001c 03A0A0E1 		mov	r10, r3
  54              		.loc 1 49 0
  55 0020 0D00000A 		beq	.L2
  56 0024 AC509FE5 		ldr	r5, .L18+4
  57              		.loc 1 49 0 is_stmt 0 discriminator 1
ARM GAS  /var/folders/3j/4xdnk5197cv_b7cw3n33qk7r0000gn/T//ccfSc7Hc.s 			page 2


  58 0028 070050E1 		cmp	r0, r7
  59 002c 004095E5 		ldr	r4, [r5]
  60 0030 0D00000A 		beq	.L3
  61              	.LBB2:
  62              		.loc 1 51 0 is_stmt 1
  63 0034 000054E3 		cmp	r4, #0
  64 0038 0400000A 		beq	.L4
  65              		.loc 1 53 0
  66 003c 0400A0E1 		mov	r0, r4
  67 0040 FEFFFFEB 		bl	fclose
  68              	.LVL2:
  69              		.loc 1 54 0
  70 0044 0030A0E3 		mov	r3, #0
  71 0048 000096E5 		ldr	r0, [r6]
  72 004c 003085E5 		str	r3, [r5]
  73              	.L4:
  74              		.loc 1 56 0
  75 0050 FEFFFFEB 		bl	free
  76              	.LVL3:
  77              		.loc 1 57 0
  78 0054 0030A0E3 		mov	r3, #0
  79 0058 003086E5 		str	r3, [r6]
  80              	.L2:
  81              	.LBE2:
  82              		.loc 1 60 0
  83 005c 000057E3 		cmp	r7, #0
  84 0060 0300000A 		beq	.L7
  85 0064 6C509FE5 		ldr	r5, .L18+4
  86 0068 004095E5 		ldr	r4, [r5]
  87              	.L3:
  88              		.loc 1 60 0 is_stmt 0 discriminator 1
  89 006c 000054E3 		cmp	r4, #0
  90 0070 0700000A 		beq	.L17
  91              	.L7:
  92              		.loc 1 47 0 is_stmt 1
  93 0074 0000A0E3 		mov	r0, #0
  94              	.L6:
  95              	.LVL4:
  96              		.loc 1 74 0
  97 0078 5C309FE5 		ldr	r3, .L18+8
  98              		.loc 1 75 0
  99 007c 5C209FE5 		ldr	r2, .L18+12
 100              		.loc 1 74 0
 101 0080 00A083E5 		str	r10, [r3]
 102              		.loc 1 76 0
 103 0084 58309FE5 		ldr	r3, .L18+16
 104              		.loc 1 75 0
 105 0088 009082E5 		str	r9, [r2]
 106              		.loc 1 76 0
 107 008c 008083E5 		str	r8, [r3]
 108              		.loc 1 79 0
 109 0090 F087BDE8 		pop	{r4, r5, r6, r7, r8, r9, r10, pc}
 110              	.LVL5:
 111              	.L17:
 112              		.loc 1 62 0
 113 0094 4C109FE5 		ldr	r1, .L18+20
 114 0098 0700A0E1 		mov	r0, r7
ARM GAS  /var/folders/3j/4xdnk5197cv_b7cw3n33qk7r0000gn/T//ccfSc7Hc.s 			page 3


 115 009c FEFFFFEB 		bl	fopen
 116              	.LVL6:
 117              		.loc 1 66 0
 118 00a0 000050E3 		cmp	r0, #0
 119              		.loc 1 62 0
 120 00a4 000085E5 		str	r0, [r5]
 121              		.loc 1 71 0
 122 00a8 0100A003 		moveq	r0, #1
 123              		.loc 1 66 0
 124 00ac F1FFFF0A 		beq	.L6
 125              	.LBB3:
 126              		.loc 1 68 0
 127 00b0 0700A0E1 		mov	r0, r7
 128 00b4 FEFFFFEB 		bl	strlen
 129              	.LVL7:
 130 00b8 010080E2 		add	r0, r0, #1
 131 00bc FEFFFFEB 		bl	malloc
 132              	.LVL8:
 133              		.loc 1 69 0
 134 00c0 0710A0E1 		mov	r1, r7
 135              		.loc 1 68 0
 136 00c4 000086E5 		str	r0, [r6]
 137              		.loc 1 69 0
 138 00c8 FEFFFFEB 		bl	strcpy
 139              	.LVL9:
 140              	.LBE3:
 141              		.loc 1 47 0
 142 00cc 0400A0E1 		mov	r0, r4
 143 00d0 E8FFFFEA 		b	.L6
 144              	.L19:
 145              		.align	2
 146              	.L18:
 147 00d4 00000000 		.word	.LANCHOR0
 148 00d8 00000000 		.word	.LANCHOR1
 149 00dc 00000000 		.word	.LANCHOR2
 150 00e0 00000000 		.word	.LANCHOR3
 151 00e4 00000000 		.word	.LANCHOR4
 152 00e8 00000000 		.word	.LC0
 153              		.cfi_endproc
 154              	.LFE3:
 155              		.size	VL53L0X_trace_config, .-VL53L0X_trace_config
 156              		.section	.text.trace_print_module_function,"ax",%progbits
 157              		.align	2
 158              		.global	trace_print_module_function
 159              		.syntax unified
 160              		.arm
 161              		.fpu softvfp
 162              		.type	trace_print_module_function, %function
 163              	trace_print_module_function:
 164              	.LFB4:
 165              		.loc 1 82 0
 166              		.cfi_startproc
 167              		@ args = 4, pretend = 4, frame = 264
 168              		@ frame_needed = 0, uses_anonymous_args = 1
 169              	.LVL10:
 170 0000 04302DE5 		str	r3, [sp, #-4]!
 171              		.cfi_def_cfa_offset 4
ARM GAS  /var/folders/3j/4xdnk5197cv_b7cw3n33qk7r0000gn/T//ccfSc7Hc.s 			page 4


 172              		.cfi_offset 3, -4
 173              		.loc 1 83 0
 174 0004 90309FE5 		ldr	r3, .L30
 175              		.loc 1 82 0
 176 0008 04E02DE5 		str	lr, [sp, #-4]!
 177              		.cfi_def_cfa_offset 8
 178              		.cfi_offset 14, -8
 179              		.loc 1 83 0
 180 000c 003093E5 		ldr	r3, [r3]
 181              		.loc 1 82 0
 182 0010 42DF4DE2 		sub	sp, sp, #264
 183              		.cfi_def_cfa_offset 272
 184              		.loc 1 83 0
 185 0014 010053E1 		cmp	r3, r1
 186 0018 1400003A 		bcc	.L21
 187              		.loc 1 83 0 is_stmt 0 discriminator 1
 188 001c 7C309FE5 		ldr	r3, .L30+4
 189 0020 003093E5 		ldr	r3, [r3]
 190 0024 030010E1 		tst	r0, r3
 191 0028 1000000A 		beq	.L21
 192              	.L22:
 193              	.LBB4:
 194              		.loc 1 89 0 is_stmt 1
 195 002c 11CE8DE2 		add	ip, sp, #272
 196              		.loc 1 90 0
 197 0030 0C30A0E1 		mov	r3, ip
 198 0034 08008DE2 		add	r0, sp, #8
 199              	.LVL11:
 200 0038 0C219DE5 		ldr	r2, [sp, #268]
 201              	.LVL12:
 202 003c 011CA0E3 		mov	r1, #256
 203              	.LVL13:
 204              		.loc 1 89 0
 205 0040 04C08DE5 		str	ip, [sp, #4]
 206              		.loc 1 90 0
 207 0044 FEFFFFEB 		bl	vsnprintf
 208              	.LVL14:
 209              		.loc 1 93 0
 210 0048 54309FE5 		ldr	r3, .L30+8
 211 004c 000093E5 		ldr	r0, [r3]
 212 0050 000050E3 		cmp	r0, #0
 213 0054 0A00000A 		beq	.L24
 214              		.loc 1 94 0
 215 0058 08108DE2 		add	r1, sp, #8
 216 005c FEFFFFEB 		bl	fprintf
 217              	.LVL15:
 218              	.L20:
 219              	.LBE4:
 220              		.loc 1 98 0
 221 0060 42DF8DE2 		add	sp, sp, #264
 222              		.cfi_remember_state
 223              		.cfi_def_cfa_offset 8
 224              		@ sp needed
 225 0064 04E09DE4 		ldr	lr, [sp], #4
 226              		.cfi_restore 14
 227              		.cfi_def_cfa_offset 4
 228 0068 04D08DE2 		add	sp, sp, #4
ARM GAS  /var/folders/3j/4xdnk5197cv_b7cw3n33qk7r0000gn/T//ccfSc7Hc.s 			page 5


 229              		.cfi_restore 3
 230              		.cfi_def_cfa_offset 0
 231 006c 1EFF2FE1 		bx	lr
 232              	.LVL16:
 233              	.L21:
 234              		.cfi_restore_state
 235              		.loc 1 84 0
 236 0070 30309FE5 		ldr	r3, .L30+12
 237 0074 003093E5 		ldr	r3, [r3]
 238 0078 030012E1 		tst	r2, r3
 239 007c EAFFFF1A 		bne	.L22
 240 0080 F6FFFFEA 		b	.L20
 241              	.LVL17:
 242              	.L24:
 243              	.LBB5:
 244              		.loc 1 96 0
 245 0084 08008DE2 		add	r0, sp, #8
 246 0088 FEFFFFEB 		bl	printf
 247              	.LVL18:
 248              	.LBE5:
 249              		.loc 1 98 0
 250 008c 42DF8DE2 		add	sp, sp, #264
 251              		.cfi_def_cfa_offset 8
 252              		@ sp needed
 253 0090 04E09DE4 		ldr	lr, [sp], #4
 254              		.cfi_restore 14
 255              		.cfi_def_cfa_offset 4
 256 0094 04D08DE2 		add	sp, sp, #4
 257              		.cfi_restore 3
 258              		.cfi_def_cfa_offset 0
 259 0098 1EFF2FE1 		bx	lr
 260              	.L31:
 261              		.align	2
 262              	.L30:
 263 009c 00000000 		.word	.LANCHOR3
 264 00a0 00000000 		.word	.LANCHOR4
 265 00a4 00000000 		.word	.LANCHOR1
 266 00a8 00000000 		.word	.LANCHOR2
 267              		.cfi_endproc
 268              	.LFE4:
 269              		.size	trace_print_module_function, .-trace_print_module_function
 270              		.global	_trace_functions
 271              		.global	_trace_modules
 272              		.global	_trace_level
 273              		.global	_tracefile
 274              		.global	_trace_filename
 275              		.comm	debug_string,256,4
 276              		.section	.bss._trace_filename,"aw",%nobits
 277              		.align	2
 278              		.set	.LANCHOR0,. + 0
 279              		.type	_trace_filename, %object
 280              		.size	_trace_filename, 4
 281              	_trace_filename:
 282 0000 00000000 		.space	4
 283              		.section	.bss._trace_functions,"aw",%nobits
 284              		.align	2
 285              		.set	.LANCHOR2,. + 0
ARM GAS  /var/folders/3j/4xdnk5197cv_b7cw3n33qk7r0000gn/T//ccfSc7Hc.s 			page 6


 286              		.type	_trace_functions, %object
 287              		.size	_trace_functions, 4
 288              	_trace_functions:
 289 0000 00000000 		.space	4
 290              		.section	.bss._trace_modules,"aw",%nobits
 291              		.align	2
 292              		.set	.LANCHOR4,. + 0
 293              		.type	_trace_modules, %object
 294              		.size	_trace_modules, 4
 295              	_trace_modules:
 296 0000 00000000 		.space	4
 297              		.section	.bss._tracefile,"aw",%nobits
 298              		.align	2
 299              		.set	.LANCHOR1,. + 0
 300              		.type	_tracefile, %object
 301              		.size	_tracefile, 4
 302              	_tracefile:
 303 0000 00000000 		.space	4
 304              		.section	.data._trace_level,"aw",%progbits
 305              		.align	2
 306              		.set	.LANCHOR3,. + 0
 307              		.type	_trace_level, %object
 308              		.size	_trace_level, 4
 309              	_trace_level:
 310 0000 02000000 		.word	2
 311              		.section	.rodata.VL53L0X_trace_config.str1.4,"aMS",%progbits,1
 312              		.align	2
 313              	.LC0:
 314 0000 772B00   		.ascii	"w+\000"
 315              		.text
 316              	.Letext0:
 317              		.file 2 "/usr/local/Cellar/gcc-arm-none-eabi/20180627/arm-none-eabi/include/machine/_default_types
 318              		.file 3 "/usr/local/Cellar/gcc-arm-none-eabi/20180627/lib/gcc/arm-none-eabi/7.3.1/include/stdarg.h
 319              		.file 4 "/usr/local/Cellar/gcc-arm-none-eabi/20180627/arm-none-eabi/include/stdio.h"
 320              		.file 5 "/usr/local/Cellar/gcc-arm-none-eabi/20180627/arm-none-eabi/include/sys/lock.h"
 321              		.file 6 "/usr/local/Cellar/gcc-arm-none-eabi/20180627/arm-none-eabi/include/sys/_types.h"
 322              		.file 7 "/usr/local/Cellar/gcc-arm-none-eabi/20180627/lib/gcc/arm-none-eabi/7.3.1/include/stddef.h
 323              		.file 8 "/usr/local/Cellar/gcc-arm-none-eabi/20180627/arm-none-eabi/include/sys/reent.h"
 324              		.file 9 "<built-in>"
 325              		.file 10 "/usr/local/Cellar/gcc-arm-none-eabi/20180627/arm-none-eabi/include/sys/_stdint.h"
 326              		.file 11 "..//VL53L0X_Api/platform/inc/vl53l0x_platform_log.h"
 327              		.file 12 "/usr/local/Cellar/gcc-arm-none-eabi/20180627/arm-none-eabi/include/string.h"