ARM GAS  /var/folders/3j/4xdnk5197cv_b7cw3n33qk7r0000gn/T//ccSq9Yz5.s 			page 1


   1              		.cpu arm1176jz-s
   2              		.eabi_attribute 20, 1
   3              		.eabi_attribute 21, 1
   4              		.eabi_attribute 23, 3
   5              		.eabi_attribute 24, 1
   6              		.eabi_attribute 25, 1
   7              		.eabi_attribute 26, 1
   8              		.eabi_attribute 30, 2
   9              		.eabi_attribute 34, 1
  10              		.eabi_attribute 18, 4
  11              		.file	"vl53l0x_api_calibration.c"
  12              		.text
  13              	.Ltext0:
  14              		.cfi_sections	.debug_frame
  15              		.global	__aeabi_uidiv
  16              		.section	.text.VL53L0X_perform_xtalk_calibration,"ax",%progbits
  17              		.align	2
  18              		.global	VL53L0X_perform_xtalk_calibration
  19              		.syntax unified
  20              		.arm
  21              		.fpu softvfp
  22              		.type	VL53L0X_perform_xtalk_calibration, %function
  23              	VL53L0X_perform_xtalk_calibration:
  24              	.LFB3:
  25              		.file 1 "..//VL53L0X_Api/core/src/vl53l0x_api_calibration.c"
  26              		.loc 1 54 0
  27              		.cfi_startproc
  28              		@ args = 0, pretend = 0, frame = 40
  29              		@ frame_needed = 0, uses_anonymous_args = 0
  30              	.LVL0:
  31 0000 F04F2DE9 		push	{r4, r5, r6, r7, r8, r9, r10, fp, lr}
  32              		.cfi_def_cfa_offset 36
  33              		.cfi_offset 4, -36
  34              		.cfi_offset 5, -32
  35              		.cfi_offset 6, -28
  36              		.cfi_offset 7, -24
  37              		.cfi_offset 8, -20
  38              		.cfi_offset 9, -16
  39              		.cfi_offset 10, -12
  40              		.cfi_offset 11, -8
  41              		.cfi_offset 14, -4
  42              		.loc 1 70 0
  43 0004 009051E2 		subs	r9, r1, #0
  44              		.loc 1 54 0
  45 0008 2CD04DE2 		sub	sp, sp, #44
  46              		.cfi_def_cfa_offset 80
  47              		.loc 1 71 0
  48 000c 0300E003 		mvneq	r0, #3
  49              	.LVL1:
  50              		.loc 1 70 0
  51 0010 0100001A 		bne	.L19
  52              	.LVL2:
  53              	.L13:
  54              		.loc 1 188 0
  55 0014 2CD08DE2 		add	sp, sp, #44
  56              		.cfi_remember_state
  57              		.cfi_def_cfa_offset 36
ARM GAS  /var/folders/3j/4xdnk5197cv_b7cw3n33qk7r0000gn/T//ccSq9Yz5.s 			page 2


  58              		@ sp needed
  59 0018 F08FBDE8 		pop	{r4, r5, r6, r7, r8, r9, r10, fp, pc}
  60              	.LVL3:
  61              	.L19:
  62              		.cfi_restore_state
  63              		.loc 1 75 0
  64 001c 0010A0E3 		mov	r1, #0
  65              	.LVL4:
  66 0020 0040A0E1 		mov	r4, r0
  67 0024 02A0A0E1 		mov	r10, r2
  68 0028 FEFFFFEB 		bl	VL53L0X_SetXTalkCompensationEnable
  69              	.LVL5:
  70              		.loc 1 78 0
  71 002c 000050E3 		cmp	r0, #0
  72              	.LVL6:
  73 0030 F7FFFF1A 		bne	.L13
  74              		.loc 1 79 0
  75 0034 0020A0E1 		mov	r2, r0
  76 0038 0310A0E3 		mov	r1, #3
  77 003c 0400A0E1 		mov	r0, r4
  78 0040 FEFFFFEB 		bl	VL53L0X_SetLimitCheckEnable
  79              	.LVL7:
  80              		.loc 1 84 0
  81 0044 000050E3 		cmp	r0, #0
  82              	.LVL8:
  83 0048 F1FFFF1A 		bne	.L13
  84              		.loc 1 88 0
  85 004c 0050A0E1 		mov	r5, r0
  86 0050 32B0A0E3 		mov	fp, #50
  87              		.loc 1 87 0
  88 0054 0080A0E1 		mov	r8, r0
  89              		.loc 1 86 0
  90 0058 0070A0E1 		mov	r7, r0
  91              		.loc 1 85 0
  92 005c 0060A0E1 		mov	r6, r0
  93 0060 0D0000EA 		b	.L5
  94              	.LVL9:
  95              	.L21:
  96              		.loc 1 97 0
  97 0064 2420DDE5 		ldrb	r2, [sp, #36]	@ zero_extendqisi2
  98 0068 000052E3 		cmp	r2, #0
  99 006c 0800001A 		bne	.L4
 100              		.loc 1 98 0
 101 0070 B411DDE1 		ldrh	r1, [sp, #20]
 102              		.loc 1 102 0
 103 0074 B022DDE1 		ldrh	r2, [sp, #32]
 104              		.loc 1 98 0
 105 0078 016086E0 		add	r6, r6, r1
 106              	.LVL10:
 107              		.loc 1 100 0
 108 007c 18109DE5 		ldr	r1, [sp, #24]
 109              		.loc 1 102 0
 110 0080 227487E0 		add	r7, r7, r2, lsr #8
 111              	.LVL11:
 112              		.loc 1 105 0
 113 0084 015085E2 		add	r5, r5, #1
 114              	.LVL12:
ARM GAS  /var/folders/3j/4xdnk5197cv_b7cw3n33qk7r0000gn/T//ccSq9Yz5.s 			page 3


 115              		.loc 1 98 0
 116 0088 7660FFE6 		uxth	r6, r6
 117              	.LVL13:
 118              		.loc 1 102 0
 119 008c 7770FFE6 		uxth	r7, r7
 120              		.loc 1 100 0
 121 0090 018088E0 		add	r8, r8, r1
 122              	.LVL14:
 123              	.L4:
 124              		.loc 1 89 0 discriminator 2
 125 0094 FFB013E2 		ands	fp, r3, #255
 126              	.LVL15:
 127 0098 0900000A 		beq	.L20
 128              	.LVL16:
 129              	.L5:
 130              		.loc 1 90 0
 131 009c 0C108DE2 		add	r1, sp, #12
 132 00a0 0400A0E1 		mov	r0, r4
 133 00a4 FEFFFFEB 		bl	VL53L0X_PerformSingleRangingMeasurement
 134              	.LVL17:
 135              		.loc 1 93 0
 136 00a8 000050E3 		cmp	r0, #0
 137              	.LVL18:
 138 00ac 01304BE2 		sub	r3, fp, #1
 139 00b0 EBFFFF0A 		beq	.L21
 140              	.LVL19:
 141              		.loc 1 111 0
 142 00b4 000055E3 		cmp	r5, #0
 143 00b8 0500E003 		mvneq	r0, #5
 144              	.LVL20:
 145              		.loc 1 188 0
 146 00bc 2CD08DE2 		add	sp, sp, #44
 147              		.cfi_remember_state
 148              		.cfi_def_cfa_offset 36
 149              		@ sp needed
 150 00c0 F08FBDE8 		pop	{r4, r5, r6, r7, r8, r9, r10, fp, pc}
 151              	.LVL21:
 152              	.L20:
 153              		.cfi_restore_state
 154              		.loc 1 110 0
 155 00c4 000055E3 		cmp	r5, #0
 156              		.loc 1 111 0
 157 00c8 0500E003 		mvneq	r0, #5
 158              		.loc 1 110 0
 159 00cc D0FFFF0A 		beq	.L13
 160              	.LVL22:
 161              		.loc 1 119 0
 162 00d0 0608A0E1 		lsl	r0, r6, #16
 163 00d4 0510A0E1 		mov	r1, r5
 164 00d8 FEFFFFEB 		bl	__aeabi_uidiv
 165              	.LVL23:
 166              		.loc 1 121 0
 167 00dc 0510A0E1 		mov	r1, r5
 168              		.loc 1 119 0
 169 00e0 0060A0E1 		mov	r6, r0
 170              	.LVL24:
 171              		.loc 1 121 0
ARM GAS  /var/folders/3j/4xdnk5197cv_b7cw3n33qk7r0000gn/T//ccSq9Yz5.s 			page 4


 172 00e4 0708A0E1 		lsl	r0, r7, #16
 173              	.LVL25:
 174              		.loc 1 141 0
 175 00e8 027989E2 		add	r7, r9, #32768
 176              	.LVL26:
 177              		.loc 1 121 0
 178 00ec FEFFFFEB 		bl	__aeabi_uidiv
 179              	.LVL27:
 180              		.loc 1 144 0
 181 00f0 2778B0E1 		lsrs	r7, r7, #16
 182 00f4 0110A003 		moveq	r1, #1
 183 00f8 0010A013 		movne	r1, #0
 184              		.loc 1 135 0
 185 00fc 020980E2 		add	r0, r0, #32768
 186              	.LVL28:
 187              		.loc 1 144 0
 188 0100 060059E1 		cmp	r9, r6
 189 0104 0190A081 		movhi	r9, r1
 190 0108 01908193 		orrls	r9, r1, #1
 191              	.LVL29:
 192              		.loc 1 143 0
 193 010c 2038B0E1 		lsrs	r3, r0, #16
 194              	.LVL30:
 195              		.loc 1 144 0
 196 0110 0190A003 		moveq	r9, #1
 197 0114 000059E3 		cmp	r9, #0
 198 0118 0A00000A 		beq	.L22
 199              	.LVL31:
 200              	.L7:
 201              		.loc 1 174 0
 202 011c 00B08AE5 		str	fp, [r10]
 203              		.loc 1 178 0
 204 0120 0110A0E3 		mov	r1, #1
 205 0124 0400A0E1 		mov	r0, r4
 206 0128 FEFFFFEB 		bl	VL53L0X_SetXTalkCompensationEnable
 207              	.LVL32:
 208              		.loc 1 181 0
 209 012c 000050E3 		cmp	r0, #0
 210              	.LVL33:
 211 0130 B7FFFF1A 		bne	.L13
 212              		.loc 1 182 0
 213 0134 0B10A0E1 		mov	r1, fp
 214 0138 0400A0E1 		mov	r0, r4
 215 013c FEFFFFEB 		bl	VL53L0X_SetXTalkCompensationRateMegaCps
 216              	.LVL34:
 217              		.loc 1 188 0
 218 0140 2CD08DE2 		add	sp, sp, #44
 219              		.cfi_remember_state
 220              		.cfi_def_cfa_offset 36
 221              		@ sp needed
 222 0144 F08FBDE8 		pop	{r4, r5, r6, r7, r8, r9, r10, fp, pc}
 223              	.LVL35:
 224              	.L22:
 225              		.cfi_restore_state
 226              		.loc 1 118 0
 227 0148 0510A0E1 		mov	r1, r5
 228 014c 0800A0E1 		mov	r0, r8
ARM GAS  /var/folders/3j/4xdnk5197cv_b7cw3n33qk7r0000gn/T//ccSq9Yz5.s 			page 5


 229 0150 04308DE5 		str	r3, [sp, #4]
 230 0154 FEFFFFEB 		bl	__aeabi_uidiv
 231              	.LVL36:
 232              		.loc 1 158 0
 233 0158 04309DE5 		ldr	r3, [sp, #4]
 234 015c 0310A0E1 		mov	r1, r3
 235 0160 FEFFFFEB 		bl	__aeabi_uidiv
 236              	.LVL37:
 237              		.loc 1 167 0
 238 0164 0710A0E1 		mov	r1, r7
 239              		.loc 1 158 0
 240 0168 0050A0E1 		mov	r5, r0
 241              	.LVL38:
 242              		.loc 1 167 0
 243 016c 0600A0E1 		mov	r0, r6
 244              	.LVL39:
 245 0170 FEFFFFEB 		bl	__aeabi_uidiv
 246              	.LVL40:
 247              		.loc 1 166 0
 248 0174 01B860E2 		rsb	fp, r0, #65536
 249 0178 950B0BE0 		mul	fp, r5, fp
 250              		.loc 1 171 0
 251 017c 02B98BE2 		add	fp, fp, #32768
 252              		.loc 1 170 0
 253 0180 2BB8A0E1 		lsr	fp, fp, #16
 254              	.LVL41:
 255 0184 E4FFFFEA 		b	.L7
 256              		.cfi_endproc
 257              	.LFE3:
 258              		.size	VL53L0X_perform_xtalk_calibration, .-VL53L0X_perform_xtalk_calibration
 259              		.section	.text.VL53L0X_perform_offset_calibration,"ax",%progbits
 260              		.align	2
 261              		.global	VL53L0X_perform_offset_calibration
 262              		.syntax unified
 263              		.arm
 264              		.fpu softvfp
 265              		.type	VL53L0X_perform_offset_calibration, %function
 266              	VL53L0X_perform_offset_calibration:
 267              	.LFB4:
 268              		.loc 1 193 0
 269              		.cfi_startproc
 270              		@ args = 0, pretend = 0, frame = 32
 271              		@ frame_needed = 0, uses_anonymous_args = 0
 272              	.LVL42:
 273 0000 F0432DE9 		push	{r4, r5, r6, r7, r8, r9, lr}
 274              		.cfi_def_cfa_offset 28
 275              		.cfi_offset 4, -28
 276              		.cfi_offset 5, -24
 277              		.cfi_offset 6, -20
 278              		.cfi_offset 7, -16
 279              		.cfi_offset 8, -12
 280              		.cfi_offset 9, -8
 281              		.cfi_offset 14, -4
 282              		.loc 1 204 0
 283 0004 007051E2 		subs	r7, r1, #0
 284              		.loc 1 193 0
 285 0008 24D04DE2 		sub	sp, sp, #36
ARM GAS  /var/folders/3j/4xdnk5197cv_b7cw3n33qk7r0000gn/T//ccSq9Yz5.s 			page 6


 286              		.cfi_def_cfa_offset 64
 287              		.loc 1 205 0
 288 000c 0300E003 		mvneq	r0, #3
 289              	.LVL43:
 290              		.loc 1 204 0
 291 0010 0100001A 		bne	.L40
 292              	.LVL44:
 293              	.L32:
 294              		.loc 1 286 0
 295 0014 24D08DE2 		add	sp, sp, #36
 296              		.cfi_remember_state
 297              		.cfi_def_cfa_offset 28
 298              		@ sp needed
 299 0018 F083BDE8 		pop	{r4, r5, r6, r7, r8, r9, pc}
 300              	.LVL45:
 301              	.L40:
 302              		.cfi_restore_state
 303              		.loc 1 208 0
 304 001c 0010A0E3 		mov	r1, #0
 305              	.LVL46:
 306 0020 0050A0E1 		mov	r5, r0
 307 0024 0280A0E1 		mov	r8, r2
 308 0028 FEFFFFEB 		bl	VL53L0X_SetOffsetCalibrationDataMicroMeter
 309              	.LVL47:
 310              		.loc 1 212 0
 311 002c 000050E3 		cmp	r0, #0
 312              	.LVL48:
 313 0030 F7FFFF1A 		bne	.L32
 314              		.loc 1 213 0
 315 0034 0010A0E1 		mov	r1, r0
 316 0038 03208DE2 		add	r2, sp, #3
 317 003c 0500A0E1 		mov	r0, r5
 318 0040 FEFFFFEB 		bl	VL53L0X_GetSequenceStepEnable
 319              	.LVL49:
 320              		.loc 1 218 0
 321 0044 000050E3 		cmp	r0, #0
 322              	.LVL50:
 323 0048 F1FFFF1A 		bne	.L32
 324              		.loc 1 219 0
 325 004c 0020A0E1 		mov	r2, r0
 326 0050 0010A0E1 		mov	r1, r0
 327 0054 0500A0E1 		mov	r0, r5
 328 0058 FEFFFFEB 		bl	VL53L0X_SetSequenceStepEnable
 329              	.LVL51:
 330              		.loc 1 224 0
 331 005c 000050E3 		cmp	r0, #0
 332              	.LVL52:
 333 0060 EBFFFF1A 		bne	.L32
 334              		.loc 1 225 0
 335 0064 0020A0E1 		mov	r2, r0
 336 0068 0310A0E3 		mov	r1, #3
 337 006c 0500A0E1 		mov	r0, r5
 338 0070 FEFFFFEB 		bl	VL53L0X_SetLimitCheckEnable
 339              	.LVL53:
 340              		.loc 1 229 0
 341 0074 000050E3 		cmp	r0, #0
 342              	.LVL54:
ARM GAS  /var/folders/3j/4xdnk5197cv_b7cw3n33qk7r0000gn/T//ccSq9Yz5.s 			page 7


 343 0078 E5FFFF1A 		bne	.L32
 344              		.loc 1 231 0
 345 007c 0060A0E1 		mov	r6, r0
 346 0080 3240A0E3 		mov	r4, #50
 347              		.loc 1 230 0
 348 0084 0090A0E1 		mov	r9, r0
 349 0088 070000EA 		b	.L27
 350              	.LVL55:
 351              	.L42:
 352              		.loc 1 240 0
 353 008c 1C30DDE5 		ldrb	r3, [sp, #28]	@ zero_extendqisi2
 354 0090 000053E3 		cmp	r3, #0
 355              		.loc 1 241 0
 356 0094 BC30DD01 		ldrheq	r3, [sp, #12]
 357              		.loc 1 243 0
 358 0098 01608602 		addeq	r6, r6, #1
 359              	.LVL56:
 360              		.loc 1 241 0
 361 009c 03308900 		addeq	r3, r9, r3
 362 00a0 7390FF06 		uxtheq	r9, r3
 363              	.LVL57:
 364              		.loc 1 232 0
 365 00a4 014054E2 		subs	r4, r4, #1
 366              	.LVL58:
 367 00a8 0800000A 		beq	.L41
 368              	.LVL59:
 369              	.L27:
 370              		.loc 1 233 0
 371 00ac 04108DE2 		add	r1, sp, #4
 372 00b0 0500A0E1 		mov	r0, r5
 373 00b4 FEFFFFEB 		bl	VL53L0X_PerformSingleRangingMeasurement
 374              	.LVL60:
 375              		.loc 1 236 0
 376 00b8 000050E3 		cmp	r0, #0
 377              	.LVL61:
 378 00bc F2FFFF0A 		beq	.L42
 379              	.LVL62:
 380              		.loc 1 249 0
 381 00c0 000056E3 		cmp	r6, #0
 382 00c4 0500E003 		mvneq	r0, #5
 383              	.LVL63:
 384              		.loc 1 286 0
 385 00c8 24D08DE2 		add	sp, sp, #36
 386              		.cfi_remember_state
 387              		.cfi_def_cfa_offset 28
 388              		@ sp needed
 389 00cc F083BDE8 		pop	{r4, r5, r6, r7, r8, r9, pc}
 390              	.LVL64:
 391              	.L41:
 392              		.cfi_restore_state
 393              		.loc 1 248 0
 394 00d0 000056E3 		cmp	r6, #0
 395 00d4 1900000A 		beq	.L43
 396              	.LVL65:
 397              		.loc 1 255 0
 398 00d8 0610A0E1 		mov	r1, r6
 399 00dc 0908A0E1 		lsl	r0, r9, #16
ARM GAS  /var/folders/3j/4xdnk5197cv_b7cw3n33qk7r0000gn/T//ccSq9Yz5.s 			page 8


 400 00e0 FEFFFFEB 		bl	__aeabi_uidiv
 401              	.LVL66:
 402              		.loc 1 263 0
 403 00e4 027987E2 		add	r7, r7, #32768
 404              	.LVL67:
 405 00e8 2778A0E1 		lsr	r7, r7, #16
 406              	.LVL68:
 407              		.loc 1 258 0
 408 00ec 020980E2 		add	r0, r0, #32768
 409              		.loc 1 265 0
 410 00f0 200847E0 		sub	r0, r7, r0, lsr #16
 411              		.loc 1 266 0
 412 00f4 803260E0 		rsb	r3, r0, r0, lsl #5
 413 00f8 030180E0 		add	r0, r0, r3, lsl #2
 414 00fc 8001A0E1 		lsl	r0, r0, #3
 415              		.loc 1 265 0
 416 0100 000088E5 		str	r0, [r8]
 417              		.loc 1 270 0
 418 0104 240085E5 		str	r0, [r5, #36]
 419              		.loc 1 272 0
 420 0108 001098E5 		ldr	r1, [r8]
 421 010c 0500A0E1 		mov	r0, r5
 422 0110 FEFFFFEB 		bl	VL53L0X_SetOffsetCalibrationDataMicroMeter
 423              	.LVL69:
 424              		.loc 1 279 0
 425 0114 000050E3 		cmp	r0, #0
 426              	.LVL70:
 427 0118 BDFFFF1A 		bne	.L32
 428              		.loc 1 280 0
 429 011c 0330DDE5 		ldrb	r3, [sp, #3]	@ zero_extendqisi2
 430 0120 000053E3 		cmp	r3, #0
 431 0124 BAFFFF0A 		beq	.L32
 432              		.loc 1 281 0
 433 0128 0410A0E1 		mov	r1, r4
 434 012c 0500A0E1 		mov	r0, r5
 435 0130 0120A0E3 		mov	r2, #1
 436 0134 FEFFFFEB 		bl	VL53L0X_SetSequenceStepEnable
 437              	.LVL71:
 438              		.loc 1 286 0
 439 0138 24D08DE2 		add	sp, sp, #36
 440              		.cfi_remember_state
 441              		.cfi_def_cfa_offset 28
 442              		@ sp needed
 443 013c F083BDE8 		pop	{r4, r5, r6, r7, r8, r9, pc}
 444              	.LVL72:
 445              	.L43:
 446              		.cfi_restore_state
 447              		.loc 1 249 0
 448 0140 0500E0E3 		mvn	r0, #5
 449 0144 B2FFFFEA 		b	.L32
 450              		.cfi_endproc
 451              	.LFE4:
 452              		.size	VL53L0X_perform_offset_calibration, .-VL53L0X_perform_offset_calibration
 453              		.section	.text.VL53L0X_set_offset_calibration_data_micro_meter,"ax",%progbits
 454              		.align	2
 455              		.global	VL53L0X_set_offset_calibration_data_micro_meter
 456              		.syntax unified
ARM GAS  /var/folders/3j/4xdnk5197cv_b7cw3n33qk7r0000gn/T//ccSq9Yz5.s 			page 9


 457              		.arm
 458              		.fpu softvfp
 459              		.type	VL53L0X_set_offset_calibration_data_micro_meter, %function
 460              	VL53L0X_set_offset_calibration_data_micro_meter:
 461              	.LFB5:
 462              		.loc 1 291 0
 463              		.cfi_startproc
 464              		@ args = 0, pretend = 0, frame = 0
 465              		@ frame_needed = 0, uses_anonymous_args = 0
 466              		@ link register save eliminated.
 467              	.LVL73:
 468              		.loc 1 300 0
 469 0000 44309FE5 		ldr	r3, .L52
 470 0004 030051E1 		cmp	r1, r3
 471 0008 40209FC5 		ldrgt	r2, .L52+4
 472 000c 020000CA 		bgt	.L48
 473              		.loc 1 302 0
 474 0010 7D0A71E3 		cmn	r1, #512000
 475 0014 022BA0B3 		movlt	r2, #2048
 476 0018 010000AA 		bge	.L51
 477              	.L48:
 478              		.loc 1 318 0
 479 001c 2810A0E3 		mov	r1, #40
 480              	.LVL74:
 481 0020 FEFFFFEA 		b	VL53L0X_WrWord
 482              	.LVL75:
 483              	.L51:
 484 0024 28209FE5 		ldr	r2, .L52+8
 485              		.loc 1 309 0
 486 0028 000051E3 		cmp	r1, #0
 487 002c 9122C3E0 		smull	r2, r3, r1, r2
 488 0030 C11FA0E1 		asr	r1, r1, #31
 489              	.LVL76:
 490 0034 431261E0 		rsb	r1, r1, r3, asr #4
 491 0038 012A81B2 		addlt	r2, r1, #4096
 492 003c 7120FFA6 		uxthge	r2, r1
 493 0040 7220FFB6 		uxthlt	r2, r2
 494              		.loc 1 318 0
 495 0044 2810A0E3 		mov	r1, #40
 496 0048 FEFFFFEA 		b	VL53L0X_WrWord
 497              	.LVL77:
 498              	.L53:
 499              		.align	2
 500              	.L52:
 501 004c 18CC0700 		.word	511000
 502 0050 FC070000 		.word	2044
 503 0054 D34D6210 		.word	274877907
 504              		.cfi_endproc
 505              	.LFE5:
 506              		.size	VL53L0X_set_offset_calibration_data_micro_meter, .-VL53L0X_set_offset_calibration_data_micro
 507              		.section	.text.VL53L0X_get_offset_calibration_data_micro_meter,"ax",%progbits
 508              		.align	2
 509              		.global	VL53L0X_get_offset_calibration_data_micro_meter
 510              		.syntax unified
 511              		.arm
 512              		.fpu softvfp
 513              		.type	VL53L0X_get_offset_calibration_data_micro_meter, %function
ARM GAS  /var/folders/3j/4xdnk5197cv_b7cw3n33qk7r0000gn/T//ccSq9Yz5.s 			page 10


 514              	VL53L0X_get_offset_calibration_data_micro_meter:
 515              	.LFB6:
 516              		.loc 1 328 0
 517              		.cfi_startproc
 518              		@ args = 0, pretend = 0, frame = 8
 519              		@ frame_needed = 0, uses_anonymous_args = 0
 520              	.LVL78:
 521 0000 10402DE9 		push	{r4, lr}
 522              		.cfi_def_cfa_offset 8
 523              		.cfi_offset 4, -8
 524              		.cfi_offset 14, -4
 525 0004 08D04DE2 		sub	sp, sp, #8
 526              		.cfi_def_cfa_offset 16
 527              		.loc 1 328 0
 528 0008 0140A0E1 		mov	r4, r1
 529              		.loc 1 336 0
 530 000c 06208DE2 		add	r2, sp, #6
 531 0010 2810A0E3 		mov	r1, #40
 532              	.LVL79:
 533 0014 FEFFFFEB 		bl	VL53L0X_RdWord
 534              	.LVL80:
 535              		.loc 1 340 0
 536 0018 000050E3 		cmp	r0, #0
 537              	.LVL81:
 538 001c 0800001A 		bne	.L55
 539              		.loc 1 341 0
 540 0020 B630DDE1 		ldrh	r3, [sp, #6]
 541 0024 033AA0E1 		lsl	r3, r3, #20
 542 0028 233AA0E1 		lsr	r3, r3, #20
 543              	.LVL82:
 544              		.loc 1 344 0
 545 002c 020B53E3 		cmp	r3, #2048
 546              		.loc 1 346 0
 547 0030 013A4322 		subcs	r3, r3, #4096
 548              	.LVL83:
 549              		.loc 1 350 0
 550 0034 832263E0 		rsb	r2, r3, r3, lsl #5
 551 0038 023183E0 		add	r3, r3, r2, lsl #2
 552 003c 8330A0E1 		lsl	r3, r3, #1
 553              		.loc 1 349 0
 554 0040 003084E5 		str	r3, [r4]
 555              	.LVL84:
 556              	.L55:
 557              		.loc 1 355 0
 558 0044 08D08DE2 		add	sp, sp, #8
 559              		.cfi_def_cfa_offset 8
 560              		@ sp needed
 561 0048 1080BDE8 		pop	{r4, pc}
 562              		.cfi_endproc
 563              	.LFE6:
 564              		.size	VL53L0X_get_offset_calibration_data_micro_meter, .-VL53L0X_get_offset_calibration_data_micro
 565              		.section	.text.VL53L0X_apply_offset_adjustment,"ax",%progbits
 566              		.align	2
 567              		.global	VL53L0X_apply_offset_adjustment
 568              		.syntax unified
 569              		.arm
 570              		.fpu softvfp
ARM GAS  /var/folders/3j/4xdnk5197cv_b7cw3n33qk7r0000gn/T//ccSq9Yz5.s 			page 11


 571              		.type	VL53L0X_apply_offset_adjustment, %function
 572              	VL53L0X_apply_offset_adjustment:
 573              	.LFB7:
 574              		.loc 1 359 0
 575              		.cfi_startproc
 576              		@ args = 0, pretend = 0, frame = 8
 577              		@ frame_needed = 0, uses_anonymous_args = 0
 578              	.LVL85:
 579 0000 30402DE9 		push	{r4, r5, lr}
 580              		.cfi_def_cfa_offset 12
 581              		.cfi_offset 4, -12
 582              		.cfi_offset 5, -8
 583              		.cfi_offset 14, -4
 584              		.loc 1 366 0
 585 0004 0710A0E3 		mov	r1, #7
 586              		.loc 1 359 0
 587 0008 0CD04DE2 		sub	sp, sp, #12
 588              		.cfi_def_cfa_offset 24
 589              		.loc 1 359 0
 590 000c 0040A0E1 		mov	r4, r0
 591              		.loc 1 366 0
 592 0010 FEFFFFEB 		bl	VL53L0X_get_info_from_device
 593              	.LVL86:
 594              		.loc 1 369 0
 595 0014 000050E3 		cmp	r0, #0
 596              	.LVL87:
 597 0018 0100000A 		beq	.L61
 598              	.L59:
 599              	.LVL88:
 600              		.loc 1 396 0
 601 001c 0CD08DE2 		add	sp, sp, #12
 602              		.cfi_remember_state
 603              		.cfi_def_cfa_offset 12
 604              		@ sp needed
 605 0020 3080BDE8 		pop	{r4, r5, pc}
 606              	.LVL89:
 607              	.L61:
 608              		.cfi_restore_state
 609              		.loc 1 370 0
 610 0024 04108DE2 		add	r1, sp, #4
 611 0028 0400A0E1 		mov	r0, r4
 612 002c FEFFFFEB 		bl	VL53L0X_GetOffsetCalibrationDataMicroMeter
 613              	.LVL90:
 614              		.loc 1 375 0
 615 0030 000050E3 		cmp	r0, #0
 616              	.LVL91:
 617 0034 F8FFFF1A 		bne	.L59
 618              		.loc 1 378 0
 619 0038 04309DE5 		ldr	r3, [sp, #4]
 620              		.loc 1 381 0
 621 003c 0C5094E5 		ldr	r5, [r4, #12]
 622              		.loc 1 378 0
 623 0040 083084E5 		str	r3, [r4, #8]
 624              		.loc 1 381 0
 625 0044 055083E0 		add	r5, r3, r5
 626              	.LVL92:
 627              		.loc 1 385 0
ARM GAS  /var/folders/3j/4xdnk5197cv_b7cw3n33qk7r0000gn/T//ccSq9Yz5.s 			page 12


 628 0048 0510A0E1 		mov	r1, r5
 629 004c 0400A0E1 		mov	r0, r4
 630 0050 FEFFFFEB 		bl	VL53L0X_SetOffsetCalibrationDataMicroMeter
 631              	.LVL93:
 632              		.loc 1 389 0
 633 0054 000050E3 		cmp	r0, #0
 634              	.LVL94:
 635              		.loc 1 390 0
 636 0058 24508405 		streq	r5, [r4, #36]
 637              	.LVL95:
 638              		.loc 1 396 0
 639 005c 0CD08DE2 		add	sp, sp, #12
 640              		.cfi_def_cfa_offset 12
 641              		@ sp needed
 642 0060 3080BDE8 		pop	{r4, r5, pc}
 643              		.cfi_endproc
 644              	.LFE7:
 645              		.size	VL53L0X_apply_offset_adjustment, .-VL53L0X_apply_offset_adjustment
 646              		.section	.text.get_next_good_spad,"ax",%progbits
 647              		.align	2
 648              		.global	get_next_good_spad
 649              		.syntax unified
 650              		.arm
 651              		.fpu softvfp
 652              		.type	get_next_good_spad, %function
 653              	get_next_good_spad:
 654              	.LFB8:
 655              		.loc 1 400 0
 656              		.cfi_startproc
 657              		@ args = 0, pretend = 0, frame = 0
 658              		@ frame_needed = 0, uses_anonymous_args = 0
 659              	.LVL96:
 660              		.loc 1 417 0
 661 0000 00C0E0E3 		mvn	ip, #0
 662              		.loc 1 400 0
 663 0004 30402DE9 		push	{r4, r5, lr}
 664              		.cfi_def_cfa_offset 12
 665              		.cfi_offset 4, -12
 666              		.cfi_offset 5, -8
 667              		.cfi_offset 14, -4
 668              		.loc 1 419 0
 669 0008 A251A0E1 		lsr	r5, r2, #3
 670              	.LVL97:
 671              		.loc 1 422 0
 672 000c 010055E1 		cmp	r5, r1
 673              		.loc 1 417 0
 674 0010 00C083E5 		str	ip, [r3]
 675              	.LVL98:
 676              		.loc 1 422 0
 677 0014 3080BD28 		popcs	{r4, r5, pc}
 678 0018 0540A0E1 		mov	r4, r5
 679 001c 0CC085E0 		add	ip, r5, ip
 680 0020 072002E2 		and	r2, r2, #7
 681              	.LVL99:
 682 0024 0C0080E0 		add	r0, r0, ip
 683              	.LVL100:
 684              	.L67:
ARM GAS  /var/folders/3j/4xdnk5197cv_b7cw3n33qk7r0000gn/T//ccSq9Yz5.s 			page 13


 685              		.loc 1 427 0
 686 0028 040055E1 		cmp	r5, r4
 687              		.loc 1 431 0
 688 002c 02E0A001 		moveq	lr, r2
 689              		.loc 1 424 0
 690 0030 00E0A013 		movne	lr, #0
 691              		.loc 1 425 0
 692 0034 01C0F0E5 		ldrb	ip, [r0, #1]!	@ zero_extendqisi2
 693              	.LVL101:
 694              		.loc 1 430 0
 695 0038 5CC2A001 		asreq	ip, ip, r2
 696              	.LVL102:
 697 003c 7CC0EF06 		uxtbeq	ip, ip
 698              	.LVL103:
 699              	.L66:
 700              		.loc 1 435 0
 701 0040 01001CE3 		tst	ip, #1
 702 0044 0700001A 		bne	.L72
 703              		.loc 1 441 0
 704 0048 01E08EE2 		add	lr, lr, #1
 705              	.LVL104:
 706              		.loc 1 434 0
 707 004c 08005EE3 		cmp	lr, #8
 708              		.loc 1 440 0
 709 0050 ACC0A0E1 		lsr	ip, ip, #1
 710              	.LVL105:
 711              		.loc 1 434 0
 712 0054 F9FFFF1A 		bne	.L66
 713              	.LVL106:
 714              		.loc 1 423 0
 715 0058 014084E2 		add	r4, r4, #1
 716              	.LVL107:
 717              		.loc 1 422 0
 718 005c 040051E1 		cmp	r1, r4
 719 0060 F0FFFF1A 		bne	.L67
 720 0064 3080BDE8 		pop	{r4, r5, pc}
 721              	.L72:
 722              	.LVL108:
 723              		.loc 1 437 0
 724 0068 84E18EE0 		add	lr, lr, r4, lsl #3
 725              	.LVL109:
 726 006c 00E083E5 		str	lr, [r3]
 727              	.LVL110:
 728 0070 3080BDE8 		pop	{r4, r5, pc}
 729              		.cfi_endproc
 730              	.LFE8:
 731              		.size	get_next_good_spad, .-get_next_good_spad
 732              		.section	.text.is_aperture,"ax",%progbits
 733              		.align	2
 734              		.global	is_aperture
 735              		.syntax unified
 736              		.arm
 737              		.fpu softvfp
 738              		.type	is_aperture, %function
 739              	is_aperture:
 740              	.LFB9:
 741              		.loc 1 448 0
ARM GAS  /var/folders/3j/4xdnk5197cv_b7cw3n33qk7r0000gn/T//ccSq9Yz5.s 			page 14


 742              		.cfi_startproc
 743              		@ args = 0, pretend = 0, frame = 0
 744              		@ frame_needed = 0, uses_anonymous_args = 0
 745              		@ link register save eliminated.
 746              	.LVL111:
 747              		.loc 1 456 0
 748 0000 10309FE5 		ldr	r3, .L74
 749              		.loc 1 455 0
 750 0004 2003A0E1 		lsr	r0, r0, #6
 751              	.LVL112:
 752              		.loc 1 456 0
 753 0008 000193E7 		ldr	r0, [r3, r0, lsl #2]
 754              	.LVL113:
 755              		.loc 1 460 0
 756 000c 000090E2 		adds	r0, r0, #0
 757 0010 0100A013 		movne	r0, #1
 758 0014 1EFF2FE1 		bx	lr
 759              	.L75:
 760              		.align	2
 761              	.L74:
 762 0018 00000000 		.word	.LANCHOR0
 763              		.cfi_endproc
 764              	.LFE9:
 765              		.size	is_aperture, .-is_aperture
 766              		.section	.text.enable_spad_bit,"ax",%progbits
 767              		.align	2
 768              		.global	enable_spad_bit
 769              		.syntax unified
 770              		.arm
 771              		.fpu softvfp
 772              		.type	enable_spad_bit, %function
 773              	enable_spad_bit:
 774              	.LFB10:
 775              		.loc 1 465 0
 776              		.cfi_startproc
 777              		@ args = 0, pretend = 0, frame = 0
 778              		@ frame_needed = 0, uses_anonymous_args = 0
 779              	.LVL114:
 780              		.loc 1 473 0
 781 0000 A20151E1 		cmp	r1, r2, lsr #3
 782              	.LVL115:
 783 0004 0800009A 		bls	.L78
 784              		.loc 1 465 0
 785 0008 04E02DE5 		str	lr, [sp, #-4]!
 786              		.cfi_def_cfa_offset 4
 787              		.cfi_offset 14, -4
 788              		.loc 1 476 0
 789 000c 01E0A0E3 		mov	lr, #1
 790 0010 0010A0E1 		mov	r1, r0
 791              	.LVL116:
 792 0014 A231D0E7 		ldrb	r3, [r0, r2, lsr #3]	@ zero_extendqisi2
 793 0018 07C002E2 		and	ip, r2, #7
 794              	.LVL117:
 795 001c 1E3C83E1 		orr	r3, r3, lr, lsl ip
 796              		.loc 1 466 0
 797 0020 0000A0E3 		mov	r0, #0
 798              	.LVL118:
ARM GAS  /var/folders/3j/4xdnk5197cv_b7cw3n33qk7r0000gn/T//ccSq9Yz5.s 			page 15


 799              		.loc 1 476 0
 800 0024 A231C1E7 		strb	r3, [r1, r2, lsr #3]
 801              	.LVL119:
 802              		.loc 1 479 0
 803 0028 04F09DE4 		ldr	pc, [sp], #4
 804              	.LVL120:
 805              	.L78:
 806              		.cfi_def_cfa_offset 0
 807              		.cfi_restore 14
 808              		.loc 1 474 0
 809 002c 3100E0E3 		mvn	r0, #49
 810              	.LVL121:
 811              		.loc 1 479 0
 812 0030 1EFF2FE1 		bx	lr
 813              		.cfi_endproc
 814              	.LFE10:
 815              		.size	enable_spad_bit, .-enable_spad_bit
 816              		.section	.text.count_enabled_spads,"ax",%progbits
 817              		.align	2
 818              		.global	count_enabled_spads
 819              		.syntax unified
 820              		.arm
 821              		.fpu softvfp
 822              		.type	count_enabled_spads, %function
 823              	count_enabled_spads:
 824              	.LFB11:
 825              		.loc 1 484 0
 826              		.cfi_startproc
 827              		@ args = 4, pretend = 0, frame = 0
 828              		@ frame_needed = 0, uses_anonymous_args = 0
 829              	.LVL122:
 830              		.loc 1 505 0
 831 0000 00C0A0E3 		mov	ip, #0
 832              		.loc 1 484 0
 833 0004 F04F2DE9 		push	{r4, r5, r6, r7, r8, r9, r10, fp, lr}
 834              		.cfi_def_cfa_offset 36
 835              		.cfi_offset 4, -36
 836              		.cfi_offset 5, -32
 837              		.cfi_offset 6, -28
 838              		.cfi_offset 7, -24
 839              		.cfi_offset 8, -20
 840              		.cfi_offset 9, -16
 841              		.cfi_offset 10, -12
 842              		.cfi_offset 11, -8
 843              		.cfi_offset 14, -4
 844              		.loc 1 498 0
 845 0008 A281A0E1 		lsr	r8, r2, #3
 846              	.LVL123:
 847              		.loc 1 485 0
 848 000c 010058E1 		cmp	r8, r1
 849              		.loc 1 492 0
 850 0010 0C40A0E1 		mov	r4, ip
 851              		.loc 1 485 0
 852 0014 31B0E023 		mvncs	fp, #49
 853 0018 0CB0A031 		movcc	fp, ip
 854              		.loc 1 508 0
 855 001c 0C50A0E1 		mov	r5, ip
ARM GAS  /var/folders/3j/4xdnk5197cv_b7cw3n33qk7r0000gn/T//ccSq9Yz5.s 			page 16


 856              		.loc 1 519 0
 857 0020 0190A0E3 		mov	r9, #1
 858              		.loc 1 484 0
 859 0024 24609DE5 		ldr	r6, [sp, #36]
 860              		.loc 1 508 0
 861 0028 018048E2 		sub	r8, r8, #1
 862              	.LVL124:
 863              		.loc 1 505 0
 864 002c 00C083E5 		str	ip, [r3]
 865              		.loc 1 499 0
 866 0030 07A002E2 		and	r10, r2, #7
 867              	.LVL125:
 868 0034 017040E2 		sub	r7, r0, #1
 869              	.LVL126:
 870              	.L90:
 871              		.loc 1 511 0
 872 0038 0010A0E3 		mov	r1, #0
 873              		.loc 1 509 0
 874 003c 01C0F7E5 		ldrb	ip, [r7, #1]!	@ zero_extendqisi2
 875              	.LVL127:
 876              	.L89:
 877              		.loc 1 512 0
 878 0040 01001CE3 		tst	ip, #1
 879 0044 0900000A 		beq	.L85
 880              		.loc 1 513 0
 881 0048 00E093E5 		ldr	lr, [r3]
 882              		.loc 1 515 0
 883 004c 000054E3 		cmp	r4, #0
 884              		.loc 1 513 0
 885 0050 01E08EE2 		add	lr, lr, #1
 886 0054 00E083E5 		str	lr, [r3]
 887              		.loc 1 515 0
 888 0058 0300001A 		bne	.L104
 889              		.loc 1 517 0
 890 005c 010055E3 		cmp	r5, #1
 891 0060 03005193 		cmpls	r1, #3
 892              		.loc 1 516 0
 893 0064 0090C685 		strbhi	r9, [r6]
 894              		.loc 1 518 0
 895 0068 0040C695 		strbls	r4, [r6]
 896              	.L104:
 897              		.loc 1 519 0
 898 006c 0140A0E3 		mov	r4, #1
 899              	.LVL128:
 900              	.L85:
 901              		.loc 1 511 0 discriminator 2
 902 0070 011081E2 		add	r1, r1, #1
 903              	.LVL129:
 904 0074 090051E3 		cmp	r1, #9
 905              		.loc 1 522 0 discriminator 2
 906 0078 ACC0A0E1 		lsr	ip, ip, #1
 907              	.LVL130:
 908              		.loc 1 511 0 discriminator 2
 909 007c EFFFFF1A 		bne	.L89
 910              		.loc 1 508 0 discriminator 2
 911 0080 015085E2 		add	r5, r5, #1
 912              	.LVL131:
ARM GAS  /var/folders/3j/4xdnk5197cv_b7cw3n33qk7r0000gn/T//ccSq9Yz5.s 			page 17


 913 0084 050058E1 		cmp	r8, r5
 914 0088 EAFFFF2A 		bcs	.L90
 915              	.LVL132:
 916              		.loc 1 531 0
 917 008c 0010A0E3 		mov	r1, #0
 918 0090 A201D0E7 		ldrb	r0, [r0, r2, lsr #3]	@ zero_extendqisi2
 919              	.LVL133:
 920 0094 010000E2 		and	r0, r0, #1
 921              	.LVL134:
 922              	.L92:
 923              		.loc 1 532 0
 924 0098 000050E3 		cmp	r0, #0
 925              		.loc 1 533 0
 926 009c 00209315 		ldrne	r2, [r3]
 927              		.loc 1 531 0
 928 00a0 011081E2 		add	r1, r1, #1
 929              	.LVL135:
 930              		.loc 1 533 0
 931 00a4 01208212 		addne	r2, r2, #1
 932 00a8 00208315 		strne	r2, [r3]
 933              		.loc 1 531 0
 934 00ac 01005AE1 		cmp	r10, r1
 935 00b0 F8FFFF2A 		bcs	.L92
 936              		.loc 1 537 0
 937 00b4 0B00A0E1 		mov	r0, fp
 938 00b8 F08FBDE8 		pop	{r4, r5, r6, r7, r8, r9, r10, fp, pc}
 939              		.cfi_endproc
 940              	.LFE11:
 941              		.size	count_enabled_spads, .-count_enabled_spads
 942              		.section	.text.set_ref_spad_map,"ax",%progbits
 943              		.align	2
 944              		.global	set_ref_spad_map
 945              		.syntax unified
 946              		.arm
 947              		.fpu softvfp
 948              		.type	set_ref_spad_map, %function
 949              	set_ref_spad_map:
 950              	.LFB12:
 951              		.loc 1 540 0
 952              		.cfi_startproc
 953              		@ args = 0, pretend = 0, frame = 0
 954              		@ frame_needed = 0, uses_anonymous_args = 0
 955              		@ link register save eliminated.
 956              	.LVL136:
 957              		.loc 1 541 0
 958 0000 0120A0E1 		mov	r2, r1
 959 0004 0630A0E3 		mov	r3, #6
 960 0008 B010A0E3 		mov	r1, #176
 961              	.LVL137:
 962 000c FEFFFFEA 		b	VL53L0X_WriteMulti
 963              	.LVL138:
 964              		.cfi_endproc
 965              	.LFE12:
 966              		.size	set_ref_spad_map, .-set_ref_spad_map
 967              		.section	.text.get_ref_spad_map,"ax",%progbits
 968              		.align	2
 969              		.global	get_ref_spad_map
ARM GAS  /var/folders/3j/4xdnk5197cv_b7cw3n33qk7r0000gn/T//ccSq9Yz5.s 			page 18


 970              		.syntax unified
 971              		.arm
 972              		.fpu softvfp
 973              		.type	get_ref_spad_map, %function
 974              	get_ref_spad_map:
 975              	.LFB13:
 976              		.loc 1 548 0
 977              		.cfi_startproc
 978              		@ args = 0, pretend = 0, frame = 0
 979              		@ frame_needed = 0, uses_anonymous_args = 0
 980              		@ link register save eliminated.
 981              	.LVL139:
 982              		.loc 1 549 0
 983 0000 0120A0E1 		mov	r2, r1
 984 0004 0630A0E3 		mov	r3, #6
 985 0008 B010A0E3 		mov	r1, #176
 986              	.LVL140:
 987 000c FEFFFFEA 		b	VL53L0X_ReadMulti
 988              	.LVL141:
 989              		.cfi_endproc
 990              	.LFE13:
 991              		.size	get_ref_spad_map, .-get_ref_spad_map
 992              		.section	.text.enable_ref_spads,"ax",%progbits
 993              		.align	2
 994              		.global	enable_ref_spads
 995              		.syntax unified
 996              		.arm
 997              		.fpu softvfp
 998              		.type	enable_ref_spads, %function
 999              	enable_ref_spads:
 1000              	.LFB14:
 1001              		.loc 1 565 0
 1002              		.cfi_startproc
 1003              		@ args = 20, pretend = 0, frame = 24
 1004              		@ frame_needed = 0, uses_anonymous_args = 0
 1005              	.LVL142:
 1006 0000 F04F2DE9 		push	{r4, r5, r6, r7, r8, r9, r10, fp, lr}
 1007              		.cfi_def_cfa_offset 36
 1008              		.cfi_offset 4, -36
 1009              		.cfi_offset 5, -32
 1010              		.cfi_offset 6, -28
 1011              		.cfi_offset 7, -24
 1012              		.cfi_offset 8, -20
 1013              		.cfi_offset 9, -16
 1014              		.cfi_offset 10, -12
 1015              		.cfi_offset 11, -8
 1016              		.cfi_offset 14, -4
 1017 0004 1CD04DE2 		sub	sp, sp, #28
 1018              		.cfi_def_cfa_offset 64
 1019              		.loc 1 565 0
 1020 0008 4C809DE5 		ldr	r8, [sp, #76]
 1021 000c 48609DE5 		ldr	r6, [sp, #72]
 1022              		.loc 1 584 0
 1023 0010 000058E3 		cmp	r8, #0
 1024              		.loc 1 565 0
 1025 0014 04008DE5 		str	r0, [sp, #4]
 1026              	.LVL143:
ARM GAS  /var/folders/3j/4xdnk5197cv_b7cw3n33qk7r0000gn/T//ccSq9Yz5.s 			page 19


 1027 0018 0370A0E1 		mov	r7, r3
 1028              		.loc 1 569 0
 1029 001c 0C608DE5 		str	r6, [sp, #12]
 1030              	.LVL144:
 1031              		.loc 1 565 0
 1032 0020 40509DE5 		ldr	r5, [sp, #64]
 1033              		.loc 1 584 0
 1034 0024 2300000A 		beq	.L108
 1035 0028 01A0A0E1 		mov	r10, r1
 1036 002c 0290A0E1 		mov	r9, r2
 1037 0030 0040A0E3 		mov	r4, #0
 1038              	.LBB24:
 1039              	.LBB25:
 1040              		.loc 1 456 0
 1041 0034 FCB09FE5 		ldr	fp, .L131
 1042 0038 0D0000EA 		b	.L111
 1043              	.LVL145:
 1044              	.L130:
 1045 003c 02219BE7 		ldr	r2, [fp, r2, lsl #2]
 1046              	.LBE25:
 1047              	.LBE24:
 1048              	.LBB27:
 1049              	.LBB28:
 1050              		.loc 1 472 0
 1051 0040 071003E2 		and	r1, r3, #7
 1052              	.LVL146:
 1053              	.LBE28:
 1054              	.LBE27:
 1055              		.loc 1 594 0
 1056 0044 002092E2 		adds	r2, r2, #0
 1057 0048 0120A013 		movne	r2, #1
 1058 004c 0A0052E1 		cmp	r2, r10
 1059 0050 1300001A 		bne	.L109
 1060              	.LBB31:
 1061              	.LBB29:
 1062              		.loc 1 473 0 discriminator 2
 1063 0054 A30155E1 		cmp	r5, r3, lsr #3
 1064              		.loc 1 476 0 discriminator 2
 1065 0058 0100A083 		movhi	r0, #1
 1066 005c A321D787 		ldrbhi	r2, [r7, r3, lsr #3]	@ zero_extendqisi2
 1067              	.LBE29:
 1068              	.LBE31:
 1069              		.loc 1 603 0 discriminator 2
 1070 0060 016083E2 		add	r6, r3, #1
 1071              	.LVL147:
 1072              	.LBB32:
 1073              	.LBB30:
 1074              		.loc 1 476 0 discriminator 2
 1075 0064 10218281 		orrhi	r2, r2, r0, lsl r1
 1076 0068 A321C787 		strbhi	r2, [r7, r3, lsr #3]
 1077              	.LBE30:
 1078              	.LBE32:
 1079              		.loc 1 584 0 discriminator 2
 1080 006c 040058E1 		cmp	r8, r4
 1081 0070 1000000A 		beq	.L108
 1082              	.LVL148:
 1083              	.L111:
ARM GAS  /var/folders/3j/4xdnk5197cv_b7cw3n33qk7r0000gn/T//ccSq9Yz5.s 			page 20


 1084              		.loc 1 585 0
 1085 0074 0C308DE2 		add	r3, sp, #12
 1086 0078 0620A0E1 		mov	r2, r6
 1087 007c 0510A0E1 		mov	r1, r5
 1088 0080 0900A0E1 		mov	r0, r9
 1089 0084 FEFFFFEB 		bl	get_next_good_spad
 1090              	.LVL149:
 1091              		.loc 1 588 0
 1092 0088 0C309DE5 		ldr	r3, [sp, #12]
 1093              	.LVL150:
 1094              		.loc 1 594 0
 1095 008c 44209DE5 		ldr	r2, [sp, #68]
 1096              		.loc 1 588 0
 1097 0090 010073E3 		cmn	r3, #1
 1098              		.loc 1 594 0
 1099 0094 022083E0 		add	r2, r3, r2
 1100              		.loc 1 584 0
 1101 0098 014084E2 		add	r4, r4, #1
 1102              	.LVL151:
 1103              	.LBB33:
 1104              	.LBB26:
 1105              		.loc 1 455 0
 1106 009c 2223A0E1 		lsr	r2, r2, #6
 1107              	.LBE26:
 1108              	.LBE33:
 1109              		.loc 1 588 0
 1110 00a0 E5FFFF1A 		bne	.L130
 1111              	.LVL152:
 1112              	.L109:
 1113              		.loc 1 605 0
 1114 00a4 3100E0E3 		mvn	r0, #49
 1115 00a8 50309DE5 		ldr	r3, [sp, #80]
 1116              	.LVL153:
 1117 00ac 006083E5 		str	r6, [r3]
 1118              	.LVL154:
 1119              	.L118:
 1120              		.loc 1 626 0
 1121 00b0 1CD08DE2 		add	sp, sp, #28
 1122              		.cfi_remember_state
 1123              		.cfi_def_cfa_offset 36
 1124              		@ sp needed
 1125 00b4 F08FBDE8 		pop	{r4, r5, r6, r7, r8, r9, r10, fp, pc}
 1126              	.LVL155:
 1127              	.L108:
 1128              		.cfi_restore_state
 1129              		.loc 1 605 0
 1130 00b8 50309DE5 		ldr	r3, [sp, #80]
 1131              	.LBB34:
 1132              	.LBB35:
 1133              		.loc 1 541 0
 1134 00bc 0720A0E1 		mov	r2, r7
 1135              	.LBE35:
 1136              	.LBE34:
 1137              		.loc 1 605 0
 1138 00c0 006083E5 		str	r6, [r3]
 1139              	.LVL156:
 1140              	.LBB37:
ARM GAS  /var/folders/3j/4xdnk5197cv_b7cw3n33qk7r0000gn/T//ccSq9Yz5.s 			page 21


 1141              	.LBB36:
 1142              		.loc 1 541 0
 1143 00c4 B010A0E3 		mov	r1, #176
 1144 00c8 0630A0E3 		mov	r3, #6
 1145 00cc 04009DE5 		ldr	r0, [sp, #4]
 1146 00d0 FEFFFFEB 		bl	VL53L0X_WriteMulti
 1147              	.LVL157:
 1148              	.LBE36:
 1149              	.LBE37:
 1150              		.loc 1 611 0
 1151 00d4 000050E3 		cmp	r0, #0
 1152              	.LVL158:
 1153 00d8 F4FFFF1A 		bne	.L118
 1154              	.LVL159:
 1155              	.LBB38:
 1156              	.LBB39:
 1157              		.loc 1 549 0
 1158 00dc 04009DE5 		ldr	r0, [sp, #4]
 1159 00e0 0630A0E3 		mov	r3, #6
 1160 00e4 10208DE2 		add	r2, sp, #16
 1161              	.LVL160:
 1162 00e8 B010A0E3 		mov	r1, #176
 1163 00ec FEFFFFEB 		bl	VL53L0X_ReadMulti
 1164              	.LVL161:
 1165              	.LBE39:
 1166              	.LBE38:
 1167              		.loc 1 617 0
 1168 00f0 000055E3 		cmp	r5, #0
 1169 00f4 EDFFFF0A 		beq	.L118
 1170              		.loc 1 618 0
 1171 00f8 1020DDE5 		ldrb	r2, [sp, #16]	@ zero_extendqisi2
 1172 00fc 0030D7E5 		ldrb	r3, [r7]	@ zero_extendqisi2
 1173 0100 030052E1 		cmp	r2, r3
 1174 0104 0800001A 		bne	.L117
 1175 0108 055087E0 		add	r5, r7, r5
 1176 010c 11308DE2 		add	r3, sp, #17
 1177 0110 017087E2 		add	r7, r7, #1
 1178              	.LVL162:
 1179              	.L113:
 1180              		.loc 1 617 0
 1181 0114 050057E1 		cmp	r7, r5
 1182 0118 E4FFFF0A 		beq	.L118
 1183              		.loc 1 618 0
 1184 011c 0110D7E4 		ldrb	r1, [r7], #1	@ zero_extendqisi2
 1185              	.LVL163:
 1186 0120 0120D3E4 		ldrb	r2, [r3], #1	@ zero_extendqisi2
 1187 0124 020051E1 		cmp	r1, r2
 1188 0128 F9FFFF0A 		beq	.L113
 1189              	.LVL164:
 1190              	.L117:
 1191              		.loc 1 619 0
 1192 012c 3100E0E3 		mvn	r0, #49
 1193              		.loc 1 626 0
 1194 0130 1CD08DE2 		add	sp, sp, #28
 1195              		.cfi_def_cfa_offset 36
 1196              		@ sp needed
 1197 0134 F08FBDE8 		pop	{r4, r5, r6, r7, r8, r9, r10, fp, pc}
ARM GAS  /var/folders/3j/4xdnk5197cv_b7cw3n33qk7r0000gn/T//ccSq9Yz5.s 			page 22


 1198              	.LVL165:
 1199              	.L132:
 1200              		.align	2
 1201              	.L131:
 1202 0138 00000000 		.word	.LANCHOR0
 1203              		.cfi_endproc
 1204              	.LFE14:
 1205              		.size	enable_ref_spads, .-enable_ref_spads
 1206              		.section	.text.perform_ref_signal_measurement,"ax",%progbits
 1207              		.align	2
 1208              		.global	perform_ref_signal_measurement
 1209              		.syntax unified
 1210              		.arm
 1211              		.fpu softvfp
 1212              		.type	perform_ref_signal_measurement, %function
 1213              	perform_ref_signal_measurement:
 1214              	.LFB15:
 1215              		.loc 1 631 0
 1216              		.cfi_startproc
 1217              		@ args = 0, pretend = 0, frame = 32
 1218              		@ frame_needed = 0, uses_anonymous_args = 0
 1219              	.LVL166:
 1220 0000 70402DE9 		push	{r4, r5, r6, lr}
 1221              		.cfi_def_cfa_offset 16
 1222              		.cfi_offset 4, -16
 1223              		.cfi_offset 5, -12
 1224              		.cfi_offset 6, -8
 1225              		.cfi_offset 14, -4
 1226              		.loc 1 647 0
 1227 0004 C020A0E3 		mov	r2, #192
 1228              		.loc 1 631 0
 1229 0008 20D04DE2 		sub	sp, sp, #32
 1230              		.cfi_def_cfa_offset 48
 1231              		.loc 1 631 0
 1232 000c 0160A0E1 		mov	r6, r1
 1233              		.loc 1 647 0
 1234 0010 0110A0E3 		mov	r1, #1
 1235              	.LVL167:
 1236              		.loc 1 631 0
 1237 0014 0040A0E1 		mov	r4, r0
 1238              		.loc 1 641 0
 1239 0018 3051D0E5 		ldrb	r5, [r0, #304]	@ zero_extendqisi2
 1240              	.LVL168:
 1241              		.loc 1 647 0
 1242 001c FEFFFFEB 		bl	VL53L0X_WrByte
 1243              	.LVL169:
 1244              		.loc 1 650 0
 1245 0020 000050E3 		cmp	r0, #0
 1246              	.LVL170:
 1247 0024 0100000A 		beq	.L136
 1248              	.L134:
 1249              	.LVL171:
 1250              		.loc 1 674 0
 1251 0028 20D08DE2 		add	sp, sp, #32
 1252              		.cfi_remember_state
 1253              		.cfi_def_cfa_offset 16
 1254              		@ sp needed
ARM GAS  /var/folders/3j/4xdnk5197cv_b7cw3n33qk7r0000gn/T//ccSq9Yz5.s 			page 23


 1255 002c 7080BDE8 		pop	{r4, r5, r6, pc}
 1256              	.LVL172:
 1257              	.L136:
 1258              		.cfi_restore_state
 1259              		.loc 1 651 0
 1260 0030 04108DE2 		add	r1, sp, #4
 1261 0034 0400A0E1 		mov	r0, r4
 1262 0038 FEFFFFEB 		bl	VL53L0X_PerformSingleRangingMeasurement
 1263              	.LVL173:
 1264              		.loc 1 654 0
 1265 003c 000050E3 		cmp	r0, #0
 1266              	.LVL174:
 1267 0040 F8FFFF1A 		bne	.L134
 1268              		.loc 1 655 0
 1269 0044 0120A0E3 		mov	r2, #1
 1270 0048 FF10A0E3 		mov	r1, #255
 1271 004c 0400A0E1 		mov	r0, r4
 1272 0050 FEFFFFEB 		bl	VL53L0X_WrByte
 1273              	.LVL175:
 1274              		.loc 1 657 0
 1275 0054 000050E3 		cmp	r0, #0
 1276              	.LVL176:
 1277 0058 F2FFFF1A 		bne	.L134
 1278              		.loc 1 658 0
 1279 005c 0620A0E1 		mov	r2, r6
 1280 0060 B610A0E3 		mov	r1, #182
 1281 0064 0400A0E1 		mov	r0, r4
 1282 0068 FEFFFFEB 		bl	VL53L0X_RdWord
 1283              	.LVL177:
 1284              		.loc 1 662 0
 1285 006c 000050E3 		cmp	r0, #0
 1286              	.LVL178:
 1287 0070 ECFFFF1A 		bne	.L134
 1288              		.loc 1 663 0
 1289 0074 0020A0E1 		mov	r2, r0
 1290 0078 FF10A0E3 		mov	r1, #255
 1291 007c 0400A0E1 		mov	r0, r4
 1292 0080 FEFFFFEB 		bl	VL53L0X_WrByte
 1293              	.LVL179:
 1294              		.loc 1 665 0
 1295 0084 000050E3 		cmp	r0, #0
 1296              	.LVL180:
 1297 0088 E6FFFF1A 		bne	.L134
 1298              		.loc 1 667 0
 1299 008c 0520A0E1 		mov	r2, r5
 1300 0090 0110A0E3 		mov	r1, #1
 1301 0094 0400A0E1 		mov	r0, r4
 1302 0098 FEFFFFEB 		bl	VL53L0X_WrByte
 1303              	.LVL181:
 1304              		.loc 1 669 0
 1305 009c 000050E3 		cmp	r0, #0
 1306              	.LVL182:
 1307              		.loc 1 670 0
 1308 00a0 3051C405 		strbeq	r5, [r4, #304]
 1309              	.LVL183:
 1310              		.loc 1 674 0
 1311 00a4 20D08DE2 		add	sp, sp, #32
ARM GAS  /var/folders/3j/4xdnk5197cv_b7cw3n33qk7r0000gn/T//ccSq9Yz5.s 			page 24


 1312              		.cfi_def_cfa_offset 16
 1313              		@ sp needed
 1314 00a8 7080BDE8 		pop	{r4, r5, r6, pc}
 1315              		.cfi_endproc
 1316              	.LFE15:
 1317              		.size	perform_ref_signal_measurement, .-perform_ref_signal_measurement
 1318              		.section	.text.VL53L0X_set_reference_spads,"ax",%progbits
 1319              		.align	2
 1320              		.global	VL53L0X_set_reference_spads
 1321              		.syntax unified
 1322              		.arm
 1323              		.fpu softvfp
 1324              		.type	VL53L0X_set_reference_spads, %function
 1325              	VL53L0X_set_reference_spads:
 1326              	.LFB17:
 1327              		.loc 1 945 0
 1328              		.cfi_startproc
 1329              		@ args = 0, pretend = 0, frame = 8
 1330              		@ frame_needed = 0, uses_anonymous_args = 0
 1331              	.LVL184:
 1332 0000 70402DE9 		push	{r4, r5, r6, lr}
 1333              		.cfi_def_cfa_offset 16
 1334              		.cfi_offset 4, -16
 1335              		.cfi_offset 5, -12
 1336              		.cfi_offset 6, -8
 1337              		.cfi_offset 14, -4
 1338 0004 0160A0E1 		mov	r6, r1
 1339 0008 20D04DE2 		sub	sp, sp, #32
 1340              		.cfi_def_cfa_offset 48
 1341              		.loc 1 945 0
 1342 000c 0250A0E1 		mov	r5, r2
 1343              		.loc 1 961 0
 1344 0010 FF10A0E3 		mov	r1, #255
 1345              	.LVL185:
 1346 0014 0120A0E3 		mov	r2, #1
 1347              	.LVL186:
 1348              		.loc 1 945 0
 1349 0018 0040A0E1 		mov	r4, r0
 1350              		.loc 1 961 0
 1351 001c FEFFFFEB 		bl	VL53L0X_WrByte
 1352              	.LVL187:
 1353              		.loc 1 963 0
 1354 0020 002050E2 		subs	r2, r0, #0
 1355 0024 2700000A 		beq	.L152
 1356              	.LVL188:
 1357              	.L139:
 1358              		.loc 1 980 0 discriminator 1
 1359 0028 0030A0E3 		mov	r3, #0
 1360 002c 4A2F84E2 		add	r2, r4, #296
 1361              		.loc 1 982 0 discriminator 1
 1362 0030 030055E1 		cmp	r5, r3
 1363              		.loc 1 980 0 discriminator 1
 1364 0034 243184E5 		str	r3, [r4, #292]
 1365 0038 B030C2E1 		strh	r3, [r2]	@ movhi
 1366              	.LVL189:
 1367              		.loc 1 947 0 discriminator 1
 1368 003c 0530A001 		moveq	r3, r5
ARM GAS  /var/folders/3j/4xdnk5197cv_b7cw3n33qk7r0000gn/T//ccSq9Yz5.s 			page 25


 1369              		.loc 1 982 0 discriminator 1
 1370 0040 0400000A 		beq	.L141
 1371              	.LVL190:
 1372              	.LBB40:
 1373              	.LBB41:
 1374              		.loc 1 456 0
 1375 0044 D0C09FE5 		ldr	ip, .L153
 1376 0048 08009CE5 		ldr	r0, [ip, #8]
 1377 004c 030050E1 		cmp	r0, r3
 1378              	.LBE41:
 1379              	.LBE40:
 1380              		.loc 1 986 0
 1381 0050 0130A003 		moveq	r3, #1
 1382              	.LBB45:
 1383              	.LBB42:
 1384              		.loc 1 456 0
 1385 0054 1500000A 		beq	.L142
 1386              	.LVL191:
 1387              	.L141:
 1388              	.LBE42:
 1389              	.LBE45:
 1390              		.loc 1 989 0
 1391 0058 B4C0A0E3 		mov	ip, #180
 1392 005c 0600A0E3 		mov	r0, #6
 1393 0060 1C108DE2 		add	r1, sp, #28
 1394 0064 08308DE5 		str	r3, [sp, #8]
 1395 0068 01108DE8 		stm	sp, {r0, ip}
 1396 006c 493F84E2 		add	r3, r4, #292
 1397              	.LVL192:
 1398 0070 10108DE5 		str	r1, [sp, #16]
 1399 0074 0C608DE5 		str	r6, [sp, #12]
 1400 0078 022082E2 		add	r2, r2, #2
 1401 007c 0510A0E1 		mov	r1, r5
 1402 0080 0400A0E1 		mov	r0, r4
 1403 0084 FEFFFFEB 		bl	enable_ref_spads
 1404              	.LVL193:
 1405              		.loc 1 999 0
 1406 0088 000050E3 		cmp	r0, #0
 1407              	.LVL194:
 1408              		.loc 1 1000 0
 1409 008c 0130A003 		moveq	r3, #1
 1410              		.loc 1 1001 0
 1411 0090 1361C405 		strbeq	r6, [r4, #275]
 1412              		.loc 1 1003 0
 1413 0094 1451C405 		strbeq	r5, [r4, #276]
 1414              		.loc 1 1000 0
 1415 0098 1531C405 		strbeq	r3, [r4, #277]
 1416              		.loc 1 1008 0
 1417 009c 20D08DE2 		add	sp, sp, #32
 1418              		.cfi_remember_state
 1419              		.cfi_def_cfa_offset 16
 1420              		@ sp needed
 1421 00a0 7080BDE8 		pop	{r4, r5, r6, pc}
 1422              	.LVL195:
 1423              	.L143:
 1424              		.cfi_restore_state
 1425              		.loc 1 984 0
ARM GAS  /var/folders/3j/4xdnk5197cv_b7cw3n33qk7r0000gn/T//ccSq9Yz5.s 			page 26


 1426 00a4 2C0053E3 		cmp	r3, #44
 1427 00a8 EAFFFF0A 		beq	.L141
 1428 00ac 01019CE7 		ldr	r0, [ip, r1, lsl #2]
 1429              	.LVL196:
 1430              	.L142:
 1431 00b0 B61083E2 		add	r1, r3, #182
 1432              	.LBB46:
 1433              	.LBB43:
 1434              		.loc 1 456 0
 1435 00b4 000050E3 		cmp	r0, #0
 1436 00b8 2113A0E1 		lsr	r1, r1, #6
 1437              	.LBE43:
 1438              	.LBE46:
 1439              		.loc 1 986 0
 1440 00bc 013083E2 		add	r3, r3, #1
 1441              	.LVL197:
 1442              	.LBB47:
 1443              	.LBB44:
 1444              		.loc 1 456 0
 1445 00c0 F7FFFF0A 		beq	.L143
 1446 00c4 E3FFFFEA 		b	.L141
 1447              	.LVL198:
 1448              	.L152:
 1449              	.LBE44:
 1450              	.LBE47:
 1451              		.loc 1 964 0
 1452 00c8 4F10A0E3 		mov	r1, #79
 1453 00cc 0400A0E1 		mov	r0, r4
 1454              	.LVL199:
 1455 00d0 FEFFFFEB 		bl	VL53L0X_WrByte
 1456              	.LVL200:
 1457              		.loc 1 967 0
 1458 00d4 000050E3 		cmp	r0, #0
 1459 00d8 D2FFFF1A 		bne	.L139
 1460              		.loc 1 968 0
 1461 00dc 2C20A0E3 		mov	r2, #44
 1462 00e0 4E10A0E3 		mov	r1, #78
 1463 00e4 0400A0E1 		mov	r0, r4
 1464              	.LVL201:
 1465 00e8 FEFFFFEB 		bl	VL53L0X_WrByte
 1466              	.LVL202:
 1467              		.loc 1 971 0
 1468 00ec 002050E2 		subs	r2, r0, #0
 1469 00f0 CCFFFF1A 		bne	.L139
 1470              		.loc 1 972 0
 1471 00f4 FF10A0E3 		mov	r1, #255
 1472 00f8 0400A0E1 		mov	r0, r4
 1473              	.LVL203:
 1474 00fc FEFFFFEB 		bl	VL53L0X_WrByte
 1475              	.LVL204:
 1476              		.loc 1 974 0
 1477 0100 000050E3 		cmp	r0, #0
 1478 0104 C7FFFF1A 		bne	.L139
 1479              		.loc 1 975 0
 1480 0108 B420A0E3 		mov	r2, #180
 1481 010c B610A0E3 		mov	r1, #182
 1482 0110 0400A0E1 		mov	r0, r4
ARM GAS  /var/folders/3j/4xdnk5197cv_b7cw3n33qk7r0000gn/T//ccSq9Yz5.s 			page 27


 1483              	.LVL205:
 1484 0114 FEFFFFEB 		bl	VL53L0X_WrByte
 1485              	.LVL206:
 1486 0118 C2FFFFEA 		b	.L139
 1487              	.L154:
 1488              		.align	2
 1489              	.L153:
 1490 011c 00000000 		.word	.LANCHOR0
 1491              		.cfi_endproc
 1492              	.LFE17:
 1493              		.size	VL53L0X_set_reference_spads, .-VL53L0X_set_reference_spads
 1494              		.section	.text.VL53L0X_get_reference_spads,"ax",%progbits
 1495              		.align	2
 1496              		.global	VL53L0X_get_reference_spads
 1497              		.syntax unified
 1498              		.arm
 1499              		.fpu softvfp
 1500              		.type	VL53L0X_get_reference_spads, %function
 1501              	VL53L0X_get_reference_spads:
 1502              	.LFB18:
 1503              		.loc 1 1012 0
 1504              		.cfi_startproc
 1505              		@ args = 0, pretend = 0, frame = 16
 1506              		@ frame_needed = 0, uses_anonymous_args = 0
 1507              	.LVL207:
 1508              		.loc 1 1019 0
 1509 0000 0030A0E3 		mov	r3, #0
 1510              		.loc 1 1012 0
 1511 0004 70402DE9 		push	{r4, r5, r6, lr}
 1512              		.cfi_def_cfa_offset 16
 1513              		.cfi_offset 4, -16
 1514              		.cfi_offset 5, -12
 1515              		.cfi_offset 6, -8
 1516              		.cfi_offset 14, -4
 1517              		.loc 1 1024 0
 1518 0008 15E1D0E5 		ldrb	lr, [r0, #277]	@ zero_extendqisi2
 1519              		.loc 1 1012 0
 1520 000c 18D04DE2 		sub	sp, sp, #24
 1521              		.cfi_def_cfa_offset 40
 1522              		.loc 1 1024 0
 1523 0010 01005EE3 		cmp	lr, #1
 1524              		.loc 1 1012 0
 1525 0014 0040A0E1 		mov	r4, r0
 1526              		.loc 1 1019 0
 1527 0018 0B30CDE5 		strb	r3, [sp, #11]
 1528              	.LVL208:
 1529              		.loc 1 1024 0
 1530 001c 0900000A 		beq	.L159
 1531              	.LVL209:
 1532 0020 0260A0E1 		mov	r6, r2
 1533 0024 0150A0E1 		mov	r5, r1
 1534              	.LBB48:
 1535              	.LBB49:
 1536              		.loc 1 549 0
 1537 0028 10208DE2 		add	r2, sp, #16
 1538              	.LVL210:
 1539 002c 0630A0E3 		mov	r3, #6
ARM GAS  /var/folders/3j/4xdnk5197cv_b7cw3n33qk7r0000gn/T//ccSq9Yz5.s 			page 28


 1540 0030 B010A0E3 		mov	r1, #176
 1541              	.LVL211:
 1542 0034 FEFFFFEB 		bl	VL53L0X_ReadMulti
 1543              	.LVL212:
 1544              	.LBE49:
 1545              	.LBE48:
 1546              		.loc 1 1035 0
 1547 0038 000050E3 		cmp	r0, #0
 1548 003c 0800000A 		beq	.L160
 1549              	.L157:
 1550              	.LVL213:
 1551              		.loc 1 1062 0
 1552 0040 18D08DE2 		add	sp, sp, #24
 1553              		.cfi_remember_state
 1554              		.cfi_def_cfa_offset 16
 1555              		@ sp needed
 1556 0044 7080BDE8 		pop	{r4, r5, r6, pc}
 1557              	.LVL214:
 1558              	.L159:
 1559              		.cfi_restore_state
 1560              		.loc 1 1026 0
 1561 0048 13E1D0E5 		ldrb	lr, [r0, #275]	@ zero_extendqisi2
 1562              		.loc 1 1013 0
 1563 004c 0300A0E1 		mov	r0, r3
 1564              	.LVL215:
 1565              		.loc 1 1026 0
 1566 0050 00E081E5 		str	lr, [r1]
 1567              	.LVL216:
 1568              		.loc 1 1028 0
 1569 0054 1431D4E5 		ldrb	r3, [r4, #276]	@ zero_extendqisi2
 1570 0058 0030C2E5 		strb	r3, [r2]
 1571              	.LVL217:
 1572              		.loc 1 1062 0
 1573 005c 18D08DE2 		add	sp, sp, #24
 1574              		.cfi_remember_state
 1575              		.cfi_def_cfa_offset 16
 1576              		@ sp needed
 1577 0060 7080BDE8 		pop	{r4, r5, r6, pc}
 1578              	.LVL218:
 1579              	.L160:
 1580              		.cfi_restore_state
 1581              		.loc 1 1039 0
 1582 0064 0B308DE2 		add	r3, sp, #11
 1583 0068 00308DE5 		str	r3, [sp]
 1584 006c 10008DE2 		add	r0, sp, #16
 1585 0070 0C308DE2 		add	r3, sp, #12
 1586 0074 2C20A0E3 		mov	r2, #44
 1587 0078 0610A0E3 		mov	r1, #6
 1588 007c FEFFFFEB 		bl	count_enabled_spads
 1589              	.LVL219:
 1590              		.loc 1 1045 0
 1591 0080 000050E3 		cmp	r0, #0
 1592              	.LVL220:
 1593 0084 EDFFFF1A 		bne	.L157
 1594              		.loc 1 1050 0
 1595 0088 0110A0E3 		mov	r1, #1
 1596              		.loc 1 1047 0
ARM GAS  /var/folders/3j/4xdnk5197cv_b7cw3n33qk7r0000gn/T//ccSq9Yz5.s 			page 29


 1597 008c 0C209DE5 		ldr	r2, [sp, #12]
 1598              		.loc 1 1048 0
 1599 0090 0B30DDE5 		ldrb	r3, [sp, #11]	@ zero_extendqisi2
 1600              		.loc 1 1047 0
 1601 0094 002085E5 		str	r2, [r5]
 1602              		.loc 1 1048 0
 1603 0098 0030C6E5 		strb	r3, [r6]
 1604              		.loc 1 1052 0
 1605 009c 1321C4E5 		strb	r2, [r4, #275]
 1606              		.loc 1 1055 0
 1607 00a0 1431C4E5 		strb	r3, [r4, #276]
 1608              		.loc 1 1050 0
 1609 00a4 1511C4E5 		strb	r1, [r4, #277]
 1610              	.LVL221:
 1611              		.loc 1 1062 0
 1612 00a8 18D08DE2 		add	sp, sp, #24
 1613              		.cfi_def_cfa_offset 16
 1614              		@ sp needed
 1615 00ac 7080BDE8 		pop	{r4, r5, r6, pc}
 1616              		.cfi_endproc
 1617              	.LFE18:
 1618              		.size	VL53L0X_get_reference_spads, .-VL53L0X_get_reference_spads
 1619              		.section	.text.VL53L0X_perform_single_ref_calibration,"ax",%progbits
 1620              		.align	2
 1621              		.global	VL53L0X_perform_single_ref_calibration
 1622              		.syntax unified
 1623              		.arm
 1624              		.fpu softvfp
 1625              		.type	VL53L0X_perform_single_ref_calibration, %function
 1626              	VL53L0X_perform_single_ref_calibration:
 1627              	.LFB19:
 1628              		.loc 1 1067 0
 1629              		.cfi_startproc
 1630              		@ args = 0, pretend = 0, frame = 0
 1631              		@ frame_needed = 0, uses_anonymous_args = 0
 1632              	.LVL222:
 1633              		.loc 1 1071 0
 1634 0000 012081E3 		orr	r2, r1, #1
 1635              		.loc 1 1067 0
 1636 0004 10402DE9 		push	{r4, lr}
 1637              		.cfi_def_cfa_offset 8
 1638              		.cfi_offset 4, -8
 1639              		.cfi_offset 14, -4
 1640              		.loc 1 1071 0
 1641 0008 0010A0E3 		mov	r1, #0
 1642              	.LVL223:
 1643              		.loc 1 1067 0
 1644 000c 0040A0E1 		mov	r4, r0
 1645              	.LVL224:
 1646              		.loc 1 1071 0
 1647 0010 FEFFFFEB 		bl	VL53L0X_WrByte
 1648              	.LVL225:
 1649              		.loc 1 1075 0
 1650 0014 002050E2 		subs	r2, r0, #0
 1651 0018 0100000A 		beq	.L164
 1652              	.L162:
 1653              	.LVL226:
ARM GAS  /var/folders/3j/4xdnk5197cv_b7cw3n33qk7r0000gn/T//ccSq9Yz5.s 			page 30


 1654              		.loc 1 1085 0
 1655 001c 0200A0E1 		mov	r0, r2
 1656 0020 1080BDE8 		pop	{r4, pc}
 1657              	.LVL227:
 1658              	.L164:
 1659              		.loc 1 1076 0
 1660 0024 0400A0E1 		mov	r0, r4
 1661              	.LVL228:
 1662 0028 FEFFFFEB 		bl	VL53L0X_measurement_poll_for_completion
 1663              	.LVL229:
 1664              		.loc 1 1078 0
 1665 002c 002050E2 		subs	r2, r0, #0
 1666 0030 F9FFFF1A 		bne	.L162
 1667              		.loc 1 1079 0
 1668 0034 0210A0E1 		mov	r1, r2
 1669 0038 0400A0E1 		mov	r0, r4
 1670              	.LVL230:
 1671 003c FEFFFFEB 		bl	VL53L0X_ClearInterruptMask
 1672              	.LVL231:
 1673              		.loc 1 1081 0
 1674 0040 002050E2 		subs	r2, r0, #0
 1675 0044 F4FFFF1A 		bne	.L162
 1676              	.LVL232:
 1677              	.LBB52:
 1678              	.LBB53:
 1679              		.loc 1 1082 0
 1680 0048 0400A0E1 		mov	r0, r4
 1681              	.LVL233:
 1682              	.LBE53:
 1683              	.LBE52:
 1684              		.loc 1 1085 0
 1685 004c 1040BDE8 		pop	{r4, lr}
 1686              		.cfi_restore 14
 1687              		.cfi_restore 4
 1688              		.cfi_def_cfa_offset 0
 1689              	.LVL234:
 1690              	.LBB55:
 1691              	.LBB54:
 1692              		.loc 1 1082 0
 1693 0050 0210A0E1 		mov	r1, r2
 1694 0054 FEFFFFEA 		b	VL53L0X_WrByte
 1695              	.LVL235:
 1696              	.LBE54:
 1697              	.LBE55:
 1698              		.cfi_endproc
 1699              	.LFE19:
 1700              		.size	VL53L0X_perform_single_ref_calibration, .-VL53L0X_perform_single_ref_calibration
 1701              		.section	.text.VL53L0X_ref_calibration_io,"ax",%progbits
 1702              		.align	2
 1703              		.global	VL53L0X_ref_calibration_io
 1704              		.syntax unified
 1705              		.arm
 1706              		.fpu softvfp
 1707              		.type	VL53L0X_ref_calibration_io, %function
 1708              	VL53L0X_ref_calibration_io:
 1709              	.LFB20:
 1710              		.loc 1 1092 0
ARM GAS  /var/folders/3j/4xdnk5197cv_b7cw3n33qk7r0000gn/T//ccSq9Yz5.s 			page 31


 1711              		.cfi_startproc
 1712              		@ args = 16, pretend = 0, frame = 8
 1713              		@ frame_needed = 0, uses_anonymous_args = 0
 1714              	.LVL236:
 1715 0000 F04F2DE9 		push	{r4, r5, r6, r7, r8, r9, r10, fp, lr}
 1716              		.cfi_def_cfa_offset 36
 1717              		.cfi_offset 4, -36
 1718              		.cfi_offset 5, -32
 1719              		.cfi_offset 6, -28
 1720              		.cfi_offset 7, -24
 1721              		.cfi_offset 8, -20
 1722              		.cfi_offset 9, -16
 1723              		.cfi_offset 10, -12
 1724              		.cfi_offset 11, -8
 1725              		.cfi_offset 14, -4
 1726              		.loc 1 1094 0
 1727 0004 0040A0E3 		mov	r4, #0
 1728              		.loc 1 1092 0
 1729 0008 0CD04DE2 		sub	sp, sp, #12
 1730              		.cfi_def_cfa_offset 48
 1731              		.loc 1 1092 0
 1732 000c 01B0A0E1 		mov	fp, r1
 1733 0010 02A0A0E1 		mov	r10, r2
 1734              		.loc 1 1097 0
 1735 0014 FF10A0E3 		mov	r1, #255
 1736              	.LVL237:
 1737 0018 0120A0E3 		mov	r2, #1
 1738              	.LVL238:
 1739              		.loc 1 1092 0
 1740 001c 0050A0E1 		mov	r5, r0
 1741 0020 0390A0E1 		mov	r9, r3
 1742              		.loc 1 1094 0
 1743 0024 0740CDE5 		strb	r4, [sp, #7]
 1744              		.loc 1 1092 0
 1745 0028 3880DDE5 		ldrb	r8, [sp, #56]	@ zero_extendqisi2
 1746 002c 3C70DDE5 		ldrb	r7, [sp, #60]	@ zero_extendqisi2
 1747              		.loc 1 1097 0
 1748 0030 FEFFFFEB 		bl	VL53L0X_WrByte
 1749              	.LVL239:
 1750              		.loc 1 1098 0
 1751 0034 0420A0E1 		mov	r2, r4
 1752 0038 0410A0E1 		mov	r1, r4
 1753              		.loc 1 1097 0
 1754 003c 0060A0E1 		mov	r6, r0
 1755              	.LVL240:
 1756              		.loc 1 1098 0
 1757 0040 0500A0E1 		mov	r0, r5
 1758 0044 FEFFFFEB 		bl	VL53L0X_WrByte
 1759              	.LVL241:
 1760              		.loc 1 1099 0
 1761 0048 0420A0E1 		mov	r2, r4
 1762 004c FF10A0E3 		mov	r1, #255
 1763              		.loc 1 1098 0
 1764 0050 004086E1 		orr	r4, r6, r0
 1765              		.loc 1 1099 0
 1766 0054 0500A0E1 		mov	r0, r5
 1767 0058 FEFFFFEB 		bl	VL53L0X_WrByte
ARM GAS  /var/folders/3j/4xdnk5197cv_b7cw3n33qk7r0000gn/T//ccSq9Yz5.s 			page 32


 1768              	.LVL242:
 1769              		.loc 1 1098 0
 1770 005c 7440AFE6 		sxtb	r4, r4
 1771              	.LVL243:
 1772              		.loc 1 1099 0
 1773 0060 004084E1 		orr	r4, r4, r0
 1774              	.LVL244:
 1775              		.loc 1 1101 0
 1776 0064 00005BE3 		cmp	fp, #0
 1777              		.loc 1 1099 0
 1778 0068 7440AFE6 		sxtb	r4, r4
 1779              	.LVL245:
 1780              		.loc 1 1101 0
 1781 006c 1B00000A 		beq	.L166
 1782              		.loc 1 1102 0
 1783 0070 000058E3 		cmp	r8, #0
 1784 0074 2500001A 		bne	.L183
 1785              		.loc 1 1104 0
 1786 0078 000057E3 		cmp	r7, #0
 1787 007c 2B00001A 		bne	.L184
 1788              	.L168:
 1789              		.loc 1 1113 0
 1790 0080 0120A0E3 		mov	r2, #1
 1791 0084 FF10A0E3 		mov	r1, #255
 1792 0088 0500A0E1 		mov	r0, r5
 1793 008c FEFFFFEB 		bl	VL53L0X_WrByte
 1794              	.LVL246:
 1795              		.loc 1 1114 0
 1796 0090 0120A0E3 		mov	r2, #1
 1797              		.loc 1 1113 0
 1798 0094 004084E1 		orr	r4, r4, r0
 1799              	.LVL247:
 1800              		.loc 1 1114 0
 1801 0098 0010A0E3 		mov	r1, #0
 1802 009c 0500A0E1 		mov	r0, r5
 1803 00a0 FEFFFFEB 		bl	VL53L0X_WrByte
 1804              	.LVL248:
 1805              		.loc 1 1113 0
 1806 00a4 7440AFE6 		sxtb	r4, r4
 1807              	.LVL249:
 1808              		.loc 1 1115 0
 1809 00a8 0020A0E3 		mov	r2, #0
 1810              		.loc 1 1114 0
 1811 00ac 004084E1 		orr	r4, r4, r0
 1812              	.LVL250:
 1813              		.loc 1 1115 0
 1814 00b0 FF10A0E3 		mov	r1, #255
 1815 00b4 0500A0E1 		mov	r0, r5
 1816 00b8 FEFFFFEB 		bl	VL53L0X_WrByte
 1817              	.LVL251:
 1818              		.loc 1 1114 0
 1819 00bc 7440AFE6 		sxtb	r4, r4
 1820              	.LVL252:
 1821              		.loc 1 1117 0
 1822 00c0 0730DDE5 		ldrb	r3, [sp, #7]	@ zero_extendqisi2
 1823              		.loc 1 1115 0
 1824 00c4 000084E1 		orr	r0, r4, r0
ARM GAS  /var/folders/3j/4xdnk5197cv_b7cw3n33qk7r0000gn/T//ccSq9Yz5.s 			page 33


 1825              	.LVL253:
 1826              		.loc 1 1117 0
 1827 00c8 34209DE5 		ldr	r2, [sp, #52]
 1828 00cc 1030C3E3 		bic	r3, r3, #16
 1829              		.loc 1 1120 0
 1830 00d0 7000AFE6 		sxtb	r0, r0
 1831              		.loc 1 1117 0
 1832 00d4 0030C2E5 		strb	r3, [r2]
 1833              		.loc 1 1120 0
 1834 00d8 0CD08DE2 		add	sp, sp, #12
 1835              		.cfi_remember_state
 1836              		.cfi_def_cfa_offset 36
 1837              		@ sp needed
 1838 00dc F08FBDE8 		pop	{r4, r5, r6, r7, r8, r9, r10, fp, pc}
 1839              	.LVL254:
 1840              	.L166:
 1841              		.cfi_restore_state
 1842              		.loc 1 1107 0
 1843 00e0 000058E3 		cmp	r8, #0
 1844 00e4 1800001A 		bne	.L185
 1845              		.loc 1 1109 0
 1846 00e8 000057E3 		cmp	r7, #0
 1847 00ec E3FFFF0A 		beq	.L168
 1848              	.L186:
 1849              		.loc 1 1110 0
 1850 00f0 0930A0E1 		mov	r3, r9
 1851 00f4 8020A0E3 		mov	r2, #128
 1852 00f8 EE10A0E3 		mov	r1, #238
 1853 00fc 0500A0E1 		mov	r0, r5
 1854 0100 FEFFFFEB 		bl	VL53L0X_UpdateByte
 1855              	.LVL255:
 1856 0104 004084E1 		orr	r4, r4, r0
 1857              	.LVL256:
 1858 0108 7440AFE6 		sxtb	r4, r4
 1859              	.LVL257:
 1860 010c DBFFFFEA 		b	.L168
 1861              	.L183:
 1862              		.loc 1 1103 0
 1863 0110 30209DE5 		ldr	r2, [sp, #48]
 1864 0114 CB10A0E3 		mov	r1, #203
 1865 0118 0500A0E1 		mov	r0, r5
 1866 011c FEFFFFEB 		bl	VL53L0X_RdByte
 1867              	.LVL258:
 1868              		.loc 1 1104 0
 1869 0120 000057E3 		cmp	r7, #0
 1870              		.loc 1 1103 0
 1871 0124 004084E1 		orr	r4, r4, r0
 1872              	.LVL259:
 1873 0128 7440AFE6 		sxtb	r4, r4
 1874              	.LVL260:
 1875              		.loc 1 1104 0
 1876 012c D3FFFF0A 		beq	.L168
 1877              	.L184:
 1878              		.loc 1 1105 0
 1879 0130 07208DE2 		add	r2, sp, #7
 1880 0134 EE10A0E3 		mov	r1, #238
 1881 0138 0500A0E1 		mov	r0, r5
ARM GAS  /var/folders/3j/4xdnk5197cv_b7cw3n33qk7r0000gn/T//ccSq9Yz5.s 			page 34


 1882 013c FEFFFFEB 		bl	VL53L0X_RdByte
 1883              	.LVL261:
 1884 0140 004084E1 		orr	r4, r4, r0
 1885              	.LVL262:
 1886 0144 7440AFE6 		sxtb	r4, r4
 1887              	.LVL263:
 1888 0148 CCFFFFEA 		b	.L168
 1889              	.L185:
 1890              		.loc 1 1108 0
 1891 014c 0A20A0E1 		mov	r2, r10
 1892 0150 CB10A0E3 		mov	r1, #203
 1893 0154 0500A0E1 		mov	r0, r5
 1894 0158 FEFFFFEB 		bl	VL53L0X_WrByte
 1895              	.LVL264:
 1896              		.loc 1 1109 0
 1897 015c 000057E3 		cmp	r7, #0
 1898              		.loc 1 1108 0
 1899 0160 004084E1 		orr	r4, r4, r0
 1900              	.LVL265:
 1901 0164 7440AFE6 		sxtb	r4, r4
 1902              	.LVL266:
 1903              		.loc 1 1109 0
 1904 0168 C4FFFF0A 		beq	.L168
 1905 016c DFFFFFEA 		b	.L186
 1906              		.cfi_endproc
 1907              	.LFE20:
 1908              		.size	VL53L0X_ref_calibration_io, .-VL53L0X_ref_calibration_io
 1909              		.section	.text.VL53L0X_perform_vhv_calibration,"ax",%progbits
 1910              		.align	2
 1911              		.global	VL53L0X_perform_vhv_calibration
 1912              		.syntax unified
 1913              		.arm
 1914              		.fpu softvfp
 1915              		.type	VL53L0X_perform_vhv_calibration, %function
 1916              	VL53L0X_perform_vhv_calibration:
 1917              	.LFB21:
 1918              		.loc 1 1126 0
 1919              		.cfi_startproc
 1920              		@ args = 0, pretend = 0, frame = 8
 1921              		@ frame_needed = 0, uses_anonymous_args = 0
 1922              	.LVL267:
 1923 0000 F0432DE9 		push	{r4, r5, r6, r7, r8, r9, lr}
 1924              		.cfi_def_cfa_offset 28
 1925              		.cfi_offset 4, -28
 1926              		.cfi_offset 5, -24
 1927              		.cfi_offset 6, -20
 1928              		.cfi_offset 7, -16
 1929              		.cfi_offset 8, -12
 1930              		.cfi_offset 9, -8
 1931              		.cfi_offset 14, -4
 1932 0004 0290A0E1 		mov	r9, r2
 1933              		.loc 1 1141 0
 1934 0008 0120A0E3 		mov	r2, #1
 1935              	.LVL268:
 1936              		.loc 1 1131 0
 1937 000c 00C0A0E3 		mov	ip, #0
 1938              		.loc 1 1137 0
ARM GAS  /var/folders/3j/4xdnk5197cv_b7cw3n33qk7r0000gn/T//ccSq9Yz5.s 			page 35


 1939 0010 004053E2 		subs	r4, r3, #0
 1940              		.loc 1 1126 0
 1941 0014 1CD04DE2 		sub	sp, sp, #28
 1942              		.cfi_def_cfa_offset 56
 1943              		.loc 1 1126 0
 1944 0018 0160A0E1 		mov	r6, r1
 1945              		.loc 1 1141 0
 1946 001c 0210A0E1 		mov	r1, r2
 1947              	.LVL269:
 1948              		.loc 1 1138 0
 1949 0020 3081D015 		ldrbne	r8, [r0, #304]	@ zero_extendqisi2
 1950              	.LVL270:
 1951              		.loc 1 1128 0
 1952 0024 0480A001 		moveq	r8, r4
 1953              	.LVL271:
 1954              		.loc 1 1126 0
 1955 0028 0050A0E1 		mov	r5, r0
 1956              		.loc 1 1131 0
 1957 002c 17C0CDE5 		strb	ip, [sp, #23]
 1958              		.loc 1 1141 0
 1959 0030 FEFFFFEB 		bl	VL53L0X_WrByte
 1960              	.LVL272:
 1961              		.loc 1 1143 0
 1962 0034 000050E3 		cmp	r0, #0
 1963              		.loc 1 1141 0
 1964 0038 0070A0E1 		mov	r7, r0
 1965              	.LVL273:
 1966              		.loc 1 1143 0
 1967 003c 0F00000A 		beq	.L200
 1968              	.L189:
 1969              		.loc 1 1153 0
 1970 0040 0030A0E3 		mov	r3, #0
 1971 0044 0030C6E5 		strb	r3, [r6]
 1972              	.L190:
 1973              		.loc 1 1156 0
 1974 0048 004094E2 		adds	r4, r4, #0
 1975 004c 0140A013 		movne	r4, #1
 1976 0050 000050E3 		cmp	r0, #0
 1977 0054 0040A013 		movne	r4, #0
 1978 0058 000054E3 		cmp	r4, #0
 1979 005c 0500000A 		beq	.L191
 1980              		.loc 1 1158 0
 1981 0060 0820A0E1 		mov	r2, r8
 1982 0064 0110A0E3 		mov	r1, #1
 1983 0068 0500A0E1 		mov	r0, r5
 1984              	.LVL274:
 1985 006c FEFFFFEB 		bl	VL53L0X_WrByte
 1986              	.LVL275:
 1987              		.loc 1 1160 0
 1988 0070 000050E3 		cmp	r0, #0
 1989              	.LVL276:
 1990              		.loc 1 1161 0
 1991 0074 3081C505 		strbeq	r8, [r5, #304]
 1992              	.L191:
 1993              	.LVL277:
 1994              		.loc 1 1166 0
 1995 0078 1CD08DE2 		add	sp, sp, #28
ARM GAS  /var/folders/3j/4xdnk5197cv_b7cw3n33qk7r0000gn/T//ccSq9Yz5.s 			page 36


 1996              		.cfi_remember_state
 1997              		.cfi_def_cfa_offset 28
 1998              		@ sp needed
 1999 007c F083BDE8 		pop	{r4, r5, r6, r7, r8, r9, pc}
 2000              	.LVL278:
 2001              	.L200:
 2002              		.cfi_restore_state
 2003              		.loc 1 1144 0
 2004 0080 4010A0E3 		mov	r1, #64
 2005 0084 0500A0E1 		mov	r0, r5
 2006              	.LVL279:
 2007 0088 FEFFFFEB 		bl	VL53L0X_perform_single_ref_calibration
 2008              	.LVL280:
 2009              		.loc 1 1147 0
 2010 008c 000050E3 		cmp	r0, #0
 2011 0090 01005903 		cmpeq	r9, #1
 2012 0094 E9FFFF1A 		bne	.L189
 2013              		.loc 1 1148 0
 2014 0098 0110A0E3 		mov	r1, #1
 2015 009c 17308DE2 		add	r3, sp, #23
 2016 00a0 04308DE5 		str	r3, [sp, #4]
 2017 00a4 0C708DE5 		str	r7, [sp, #12]
 2018 00a8 00608DE5 		str	r6, [sp]
 2019 00ac 08108DE5 		str	r1, [sp, #8]
 2020 00b0 0730A0E1 		mov	r3, r7
 2021 00b4 0720A0E1 		mov	r2, r7
 2022 00b8 0500A0E1 		mov	r0, r5
 2023              	.LVL281:
 2024 00bc FEFFFFEB 		bl	VL53L0X_ref_calibration_io
 2025              	.LVL282:
 2026 00c0 E0FFFFEA 		b	.L190
 2027              		.cfi_endproc
 2028              	.LFE21:
 2029              		.size	VL53L0X_perform_vhv_calibration, .-VL53L0X_perform_vhv_calibration
 2030              		.section	.text.VL53L0X_perform_phase_calibration,"ax",%progbits
 2031              		.align	2
 2032              		.global	VL53L0X_perform_phase_calibration
 2033              		.syntax unified
 2034              		.arm
 2035              		.fpu softvfp
 2036              		.type	VL53L0X_perform_phase_calibration, %function
 2037              	VL53L0X_perform_phase_calibration:
 2038              	.LFB22:
 2039              		.loc 1 1171 0
 2040              		.cfi_startproc
 2041              		@ args = 0, pretend = 0, frame = 8
 2042              		@ frame_needed = 0, uses_anonymous_args = 0
 2043              	.LVL283:
 2044 0000 F0432DE9 		push	{r4, r5, r6, r7, r8, r9, lr}
 2045              		.cfi_def_cfa_offset 28
 2046              		.cfi_offset 4, -28
 2047              		.cfi_offset 5, -24
 2048              		.cfi_offset 6, -20
 2049              		.cfi_offset 7, -16
 2050              		.cfi_offset 8, -12
 2051              		.cfi_offset 9, -8
 2052              		.cfi_offset 14, -4
ARM GAS  /var/folders/3j/4xdnk5197cv_b7cw3n33qk7r0000gn/T//ccSq9Yz5.s 			page 37


 2053              		.loc 1 1182 0
 2054 0004 004053E2 		subs	r4, r3, #0
 2055              		.loc 1 1171 0
 2056 0008 1CD04DE2 		sub	sp, sp, #28
 2057              		.cfi_def_cfa_offset 56
 2058              		.loc 1 1171 0
 2059 000c 0160A0E1 		mov	r6, r1
 2060 0010 0290A0E1 		mov	r9, r2
 2061              		.loc 1 1186 0
 2062 0014 0110A0E3 		mov	r1, #1
 2063              	.LVL284:
 2064 0018 0220A0E3 		mov	r2, #2
 2065              	.LVL285:
 2066              		.loc 1 1183 0
 2067 001c 3081D015 		ldrbne	r8, [r0, #304]	@ zero_extendqisi2
 2068              	.LVL286:
 2069              		.loc 1 1173 0
 2070 0020 0480A001 		moveq	r8, r4
 2071              	.LVL287:
 2072              		.loc 1 1171 0
 2073 0024 0050A0E1 		mov	r5, r0
 2074              		.loc 1 1186 0
 2075 0028 FEFFFFEB 		bl	VL53L0X_WrByte
 2076              	.LVL288:
 2077              		.loc 1 1188 0
 2078 002c 000050E3 		cmp	r0, #0
 2079              		.loc 1 1186 0
 2080 0030 0070A0E1 		mov	r7, r0
 2081              	.LVL289:
 2082              		.loc 1 1188 0
 2083 0034 0F00000A 		beq	.L214
 2084              	.L203:
 2085              		.loc 1 1198 0
 2086 0038 0030A0E3 		mov	r3, #0
 2087 003c 0030C6E5 		strb	r3, [r6]
 2088              	.L204:
 2089              		.loc 1 1201 0
 2090 0040 004094E2 		adds	r4, r4, #0
 2091 0044 0140A013 		movne	r4, #1
 2092 0048 000050E3 		cmp	r0, #0
 2093 004c 0040A013 		movne	r4, #0
 2094 0050 000054E3 		cmp	r4, #0
 2095 0054 0500000A 		beq	.L205
 2096              		.loc 1 1203 0
 2097 0058 0820A0E1 		mov	r2, r8
 2098 005c 0110A0E3 		mov	r1, #1
 2099 0060 0500A0E1 		mov	r0, r5
 2100              	.LVL290:
 2101 0064 FEFFFFEB 		bl	VL53L0X_WrByte
 2102              	.LVL291:
 2103              		.loc 1 1205 0
 2104 0068 000050E3 		cmp	r0, #0
 2105              	.LVL292:
 2106              		.loc 1 1206 0
 2107 006c 3081C505 		strbeq	r8, [r5, #304]
 2108              	.L205:
 2109              	.LVL293:
ARM GAS  /var/folders/3j/4xdnk5197cv_b7cw3n33qk7r0000gn/T//ccSq9Yz5.s 			page 38


 2110              		.loc 1 1211 0
 2111 0070 1CD08DE2 		add	sp, sp, #28
 2112              		.cfi_remember_state
 2113              		.cfi_def_cfa_offset 28
 2114              		@ sp needed
 2115 0074 F083BDE8 		pop	{r4, r5, r6, r7, r8, r9, pc}
 2116              	.LVL294:
 2117              	.L214:
 2118              		.cfi_restore_state
 2119              		.loc 1 1189 0
 2120 0078 0010A0E1 		mov	r1, r0
 2121 007c 0500A0E1 		mov	r0, r5
 2122              	.LVL295:
 2123 0080 FEFFFFEB 		bl	VL53L0X_perform_single_ref_calibration
 2124              	.LVL296:
 2125              		.loc 1 1192 0
 2126 0084 000050E3 		cmp	r0, #0
 2127 0088 01005903 		cmpeq	r9, #1
 2128 008c E9FFFF1A 		bne	.L203
 2129              		.loc 1 1193 0
 2130 0090 0110A0E3 		mov	r1, #1
 2131 0094 17308DE2 		add	r3, sp, #23
 2132 0098 00308DE5 		str	r3, [sp]
 2133 009c F460CDE1 		strd	r6, [sp, #4]
 2134 00a0 0C108DE5 		str	r1, [sp, #12]
 2135 00a4 0730A0E1 		mov	r3, r7
 2136 00a8 0720A0E1 		mov	r2, r7
 2137 00ac 0500A0E1 		mov	r0, r5
 2138              	.LVL297:
 2139 00b0 FEFFFFEB 		bl	VL53L0X_ref_calibration_io
 2140              	.LVL298:
 2141 00b4 E1FFFFEA 		b	.L204
 2142              		.cfi_endproc
 2143              	.LFE22:
 2144              		.size	VL53L0X_perform_phase_calibration, .-VL53L0X_perform_phase_calibration
 2145              		.section	.text.VL53L0X_perform_ref_calibration,"ax",%progbits
 2146              		.align	2
 2147              		.global	VL53L0X_perform_ref_calibration
 2148              		.syntax unified
 2149              		.arm
 2150              		.fpu softvfp
 2151              		.type	VL53L0X_perform_ref_calibration, %function
 2152              	VL53L0X_perform_ref_calibration:
 2153              	.LFB23:
 2154              		.loc 1 1215 0
 2155              		.cfi_startproc
 2156              		@ args = 0, pretend = 0, frame = 0
 2157              		@ frame_needed = 0, uses_anonymous_args = 0
 2158              	.LVL299:
 2159 0000 F0412DE9 		push	{r4, r5, r6, r7, r8, lr}
 2160              		.cfi_def_cfa_offset 24
 2161              		.cfi_offset 4, -24
 2162              		.cfi_offset 5, -20
 2163              		.cfi_offset 6, -16
 2164              		.cfi_offset 7, -12
 2165              		.cfi_offset 8, -8
 2166              		.cfi_offset 14, -4
ARM GAS  /var/folders/3j/4xdnk5197cv_b7cw3n33qk7r0000gn/T//ccSq9Yz5.s 			page 39


 2167              		.loc 1 1215 0
 2168 0004 0350A0E1 		mov	r5, r3
 2169 0008 0270A0E1 		mov	r7, r2
 2170              		.loc 1 1227 0
 2171 000c 0030A0E3 		mov	r3, #0
 2172              	.LVL300:
 2173 0010 0520A0E1 		mov	r2, r5
 2174              	.LVL301:
 2175              		.loc 1 1215 0
 2176 0014 0040A0E1 		mov	r4, r0
 2177              		.loc 1 1223 0
 2178 0018 3061D0E5 		ldrb	r6, [r0, #304]	@ zero_extendqisi2
 2179              	.LVL302:
 2180              		.loc 1 1227 0
 2181 001c FEFFFFEB 		bl	VL53L0X_perform_vhv_calibration
 2182              	.LVL303:
 2183              		.loc 1 1231 0
 2184 0020 000050E3 		cmp	r0, #0
 2185              	.LVL304:
 2186 0024 F081BD18 		popne	{r4, r5, r6, r7, r8, pc}
 2187              		.loc 1 1232 0
 2188 0028 0030A0E1 		mov	r3, r0
 2189 002c 0520A0E1 		mov	r2, r5
 2190 0030 0710A0E1 		mov	r1, r7
 2191 0034 0400A0E1 		mov	r0, r4
 2192 0038 FEFFFFEB 		bl	VL53L0X_perform_phase_calibration
 2193              	.LVL305:
 2194              		.loc 1 1236 0
 2195 003c 000050E3 		cmp	r0, #0
 2196              	.LVL306:
 2197 0040 F081BD18 		popne	{r4, r5, r6, r7, r8, pc}
 2198              		.loc 1 1238 0
 2199 0044 0620A0E1 		mov	r2, r6
 2200 0048 0110A0E3 		mov	r1, #1
 2201 004c 0400A0E1 		mov	r0, r4
 2202 0050 FEFFFFEB 		bl	VL53L0X_WrByte
 2203              	.LVL307:
 2204              		.loc 1 1240 0
 2205 0054 000050E3 		cmp	r0, #0
 2206              	.LVL308:
 2207              		.loc 1 1241 0
 2208 0058 3061C405 		strbeq	r6, [r4, #304]
 2209              	.LVL309:
 2210              		.loc 1 1246 0
 2211 005c F081BDE8 		pop	{r4, r5, r6, r7, r8, pc}
 2212              		.cfi_endproc
 2213              	.LFE23:
 2214              		.size	VL53L0X_perform_ref_calibration, .-VL53L0X_perform_ref_calibration
 2215              		.section	.text.VL53L0X_perform_ref_spad_management,"ax",%progbits
 2216              		.align	2
 2217              		.global	VL53L0X_perform_ref_spad_management
 2218              		.syntax unified
 2219              		.arm
 2220              		.fpu softvfp
 2221              		.type	VL53L0X_perform_ref_spad_management, %function
 2222              	VL53L0X_perform_ref_spad_management:
 2223              	.LFB16:
ARM GAS  /var/folders/3j/4xdnk5197cv_b7cw3n33qk7r0000gn/T//ccSq9Yz5.s 			page 40


 2224              		.loc 1 679 0
 2225              		.cfi_startproc
 2226              		@ args = 0, pretend = 0, frame = 48
 2227              		@ frame_needed = 0, uses_anonymous_args = 0
 2228              	.LVL310:
 2229              		.loc 1 686 0
 2230 0000 0030A0E3 		mov	r3, #0
 2231              		.loc 1 679 0
 2232 0004 F04F2DE9 		push	{r4, r5, r6, r7, r8, r9, r10, fp, lr}
 2233              		.cfi_def_cfa_offset 36
 2234              		.cfi_offset 4, -36
 2235              		.cfi_offset 5, -32
 2236              		.cfi_offset 6, -28
 2237              		.cfi_offset 7, -24
 2238              		.cfi_offset 8, -20
 2239              		.cfi_offset 9, -16
 2240              		.cfi_offset 10, -12
 2241              		.cfi_offset 11, -8
 2242              		.cfi_offset 14, -4
 2243              		.loc 1 724 0
 2244 0008 4FCF80E2 		add	ip, r0, #316
 2245              		.loc 1 679 0
 2246 000c 4CD04DE2 		sub	sp, sp, #76
 2247              		.cfi_def_cfa_offset 112
 2248              		.loc 1 735 0
 2249 0010 4A9F80E2 		add	r9, r0, #296
 2250              		.loc 1 724 0
 2251 0014 B070DCE1 		ldrh	r7, [ip]
 2252              		.loc 1 679 0
 2253 0018 20108DE5 		str	r1, [sp, #32]
 2254 001c 24208DE5 		str	r2, [sp, #36]
 2255              		.loc 1 735 0
 2256 0020 243180E5 		str	r3, [r0, #292]
 2257              		.loc 1 738 0
 2258 0024 0120A0E3 		mov	r2, #1
 2259              	.LVL311:
 2260              		.loc 1 735 0
 2261 0028 B030C9E1 		strh	r3, [r9]	@ movhi
 2262              		.loc 1 738 0
 2263 002c FF10A0E3 		mov	r1, #255
 2264              	.LVL312:
 2265              		.loc 1 679 0
 2266 0030 0050A0E1 		mov	r5, r0
 2267              		.loc 1 686 0
 2268 0034 38308DE5 		str	r3, [sp, #56]
 2269              		.loc 1 687 0
 2270 0038 3C308DE5 		str	r3, [sp, #60]
 2271              	.LVL313:
 2272              		.loc 1 696 0
 2273 003c 3430CDE5 		strb	r3, [sp, #52]
 2274              		.loc 1 697 0
 2275 0040 3530CDE5 		strb	r3, [sp, #53]
 2276              	.LVL314:
 2277              		.loc 1 738 0
 2278 0044 FEFFFFEB 		bl	VL53L0X_WrByte
 2279              	.LVL315:
 2280              		.loc 1 740 0
ARM GAS  /var/folders/3j/4xdnk5197cv_b7cw3n33qk7r0000gn/T//ccSq9Yz5.s 			page 41


 2281 0048 006050E2 		subs	r6, r0, #0
 2282 004c 0200000A 		beq	.L239
 2283              	.LVL316:
 2284              	.L219:
 2285              		.loc 1 941 0
 2286 0050 0600A0E1 		mov	r0, r6
 2287 0054 4CD08DE2 		add	sp, sp, #76
 2288              		.cfi_remember_state
 2289              		.cfi_def_cfa_offset 36
 2290              		@ sp needed
 2291 0058 F08FBDE8 		pop	{r4, r5, r6, r7, r8, r9, r10, fp, pc}
 2292              	.LVL317:
 2293              	.L239:
 2294              		.cfi_restore_state
 2295              		.loc 1 741 0
 2296 005c 0620A0E1 		mov	r2, r6
 2297 0060 4F10A0E3 		mov	r1, #79
 2298 0064 0500A0E1 		mov	r0, r5
 2299              	.LVL318:
 2300 0068 FEFFFFEB 		bl	VL53L0X_WrByte
 2301              	.LVL319:
 2302              		.loc 1 744 0
 2303 006c 006050E2 		subs	r6, r0, #0
 2304 0070 F6FFFF1A 		bne	.L219
 2305              		.loc 1 745 0
 2306 0074 2C20A0E3 		mov	r2, #44
 2307 0078 4E10A0E3 		mov	r1, #78
 2308 007c 0500A0E1 		mov	r0, r5
 2309              	.LVL320:
 2310 0080 FEFFFFEB 		bl	VL53L0X_WrByte
 2311              	.LVL321:
 2312              		.loc 1 748 0
 2313 0084 006050E2 		subs	r6, r0, #0
 2314 0088 F0FFFF1A 		bne	.L219
 2315              		.loc 1 749 0
 2316 008c 0620A0E1 		mov	r2, r6
 2317 0090 FF10A0E3 		mov	r1, #255
 2318 0094 0500A0E1 		mov	r0, r5
 2319              	.LVL322:
 2320 0098 FEFFFFEB 		bl	VL53L0X_WrByte
 2321              	.LVL323:
 2322              		.loc 1 751 0
 2323 009c 006050E2 		subs	r6, r0, #0
 2324 00a0 EAFFFF1A 		bne	.L219
 2325              		.loc 1 752 0
 2326 00a4 B420A0E3 		mov	r2, #180
 2327 00a8 B610A0E3 		mov	r1, #182
 2328 00ac 0500A0E1 		mov	r0, r5
 2329              	.LVL324:
 2330 00b0 FEFFFFEB 		bl	VL53L0X_WrByte
 2331              	.LVL325:
 2332              		.loc 1 757 0
 2333 00b4 006050E2 		subs	r6, r0, #0
 2334 00b8 E4FFFF1A 		bne	.L219
 2335              		.loc 1 758 0
 2336 00bc 0620A0E1 		mov	r2, r6
 2337 00c0 8010A0E3 		mov	r1, #128
ARM GAS  /var/folders/3j/4xdnk5197cv_b7cw3n33qk7r0000gn/T//ccSq9Yz5.s 			page 42


 2338 00c4 0500A0E1 		mov	r0, r5
 2339              	.LVL326:
 2340 00c8 FEFFFFEB 		bl	VL53L0X_WrByte
 2341              	.LVL327:
 2342              		.loc 1 762 0
 2343 00cc 006050E2 		subs	r6, r0, #0
 2344 00d0 DEFFFF1A 		bne	.L219
 2345              		.loc 1 763 0
 2346 00d4 0630A0E1 		mov	r3, r6
 2347 00d8 35208DE2 		add	r2, sp, #53
 2348 00dc 34108DE2 		add	r1, sp, #52
 2349 00e0 0500A0E1 		mov	r0, r5
 2350              	.LVL328:
 2351 00e4 FEFFFFEB 		bl	VL53L0X_perform_ref_calibration
 2352              	.LVL329:
 2353              		.loc 1 766 0
 2354 00e8 006050E2 		subs	r6, r0, #0
 2355 00ec D7FFFF1A 		bne	.L219
 2356              		.loc 1 771 0
 2357 00f0 0300A0E3 		mov	r0, #3
 2358              	.LVL330:
 2359 00f4 B420A0E3 		mov	r2, #180
 2360 00f8 0630A0E3 		mov	r3, #6
 2361              		.loc 1 769 0
 2362 00fc 48B08DE2 		add	fp, sp, #72
 2363 0100 10602BE5 		str	r6, [fp, #-16]!
 2364              		.loc 1 773 0
 2365 0104 02A089E2 		add	r10, r9, #2
 2366              		.loc 1 774 0
 2367 0108 498F85E2 		add	r8, r5, #292
 2368              		.loc 1 771 0
 2369 010c 08608DE5 		str	r6, [sp, #8]
 2370 0110 0610A0E1 		mov	r1, r6
 2371 0114 0C008DE5 		str	r0, [sp, #12]
 2372 0118 04208DE5 		str	r2, [sp, #4]
 2373 011c 00308DE5 		str	r3, [sp]
 2374 0120 10B08DE5 		str	fp, [sp, #16]
 2375 0124 0A20A0E1 		mov	r2, r10
 2376 0128 0830A0E1 		mov	r3, r8
 2377 012c 0500A0E1 		mov	r0, r5
 2378 0130 FEFFFFEB 		bl	enable_ref_spads
 2379              	.LVL331:
 2380              		.loc 1 782 0
 2381 0134 006050E2 		subs	r6, r0, #0
 2382 0138 C4FFFF1A 		bne	.L219
 2383              		.loc 1 785 0
 2384 013c 36108DE2 		add	r1, sp, #54
 2385 0140 0500A0E1 		mov	r0, r5
 2386              	.LVL332:
 2387              		.loc 1 783 0
 2388 0144 38409DE5 		ldr	r4, [sp, #56]
 2389              	.LVL333:
 2390              		.loc 1 785 0
 2391 0148 FEFFFFEB 		bl	perform_ref_signal_measurement
 2392              	.LVL334:
 2393              		.loc 1 787 0
 2394 014c 006050E2 		subs	r6, r0, #0
ARM GAS  /var/folders/3j/4xdnk5197cv_b7cw3n33qk7r0000gn/T//ccSq9Yz5.s 			page 43


 2395 0150 BEFFFF1A 		bne	.L219
 2396              		.loc 1 788 0 discriminator 1
 2397 0154 B633DDE1 		ldrh	r3, [sp, #54]
 2398              		.loc 1 787 0 discriminator 1
 2399 0158 070053E1 		cmp	r3, r7
 2400 015c 2200009A 		bls	.L226
 2401              	.LVL335:
 2402              		.loc 1 797 0
 2403 0160 B43084E2 		add	r3, r4, #180
 2404              	.LBB56:
 2405              	.LBB57:
 2406              		.loc 1 456 0
 2407 0164 60129FE5 		ldr	r1, .L242
 2408              		.loc 1 455 0
 2409 0168 2333A0E1 		lsr	r3, r3, #6
 2410              		.loc 1 456 0
 2411 016c 032191E7 		ldr	r2, [r1, r3, lsl #2]
 2412              	.LBE57:
 2413              	.LBE56:
 2414              		.loc 1 793 0
 2415 0170 0030A0E3 		mov	r3, #0
 2416              		.loc 1 798 0
 2417 0174 2B0054E3 		cmp	r4, #43
 2418 0178 03005291 		cmpls	r2, r3
 2419              		.loc 1 793 0
 2420 017c 243185E5 		str	r3, [r5, #292]
 2421 0180 B030C9E1 		strh	r3, [r9]	@ movhi
 2422              	.LVL336:
 2423              		.loc 1 783 0
 2424 0184 0430A011 		movne	r3, r4
 2425              		.loc 1 798 0
 2426 0188 0700001A 		bne	.L221
 2427              	.LVL337:
 2428              	.L222:
 2429              	.LBB59:
 2430              	.LBB58:
 2431              		.loc 1 455 0
 2432 018c B53084E2 		add	r3, r4, #181
 2433 0190 2333A0E1 		lsr	r3, r3, #6
 2434              		.loc 1 456 0
 2435 0194 032191E7 		ldr	r2, [r1, r3, lsl #2]
 2436              	.LBE58:
 2437              	.LBE59:
 2438              		.loc 1 799 0
 2439 0198 013084E2 		add	r3, r4, #1
 2440              	.LVL338:
 2441              		.loc 1 798 0
 2442 019c 2B0053E3 		cmp	r3, #43
 2443 01a0 00005293 		cmpls	r2, #0
 2444 01a4 0340A0E1 		mov	r4, r3
 2445 01a8 F7FFFF0A 		beq	.L222
 2446              	.LVL339:
 2447              	.L221:
 2448              		.loc 1 804 0
 2449 01ac B410A0E3 		mov	r1, #180
 2450 01b0 0620A0E3 		mov	r2, #6
 2451 01b4 0390A0E3 		mov	r9, #3
ARM GAS  /var/folders/3j/4xdnk5197cv_b7cw3n33qk7r0000gn/T//ccSq9Yz5.s 			page 44


 2452 01b8 00208DE5 		str	r2, [sp]
 2453 01bc 0A0A8DE9 		stmib	sp, {r1, r3, r9, fp}
 2454 01c0 0A20A0E1 		mov	r2, r10
 2455 01c4 0830A0E1 		mov	r3, r8
 2456 01c8 0110A0E3 		mov	r1, #1
 2457 01cc 0500A0E1 		mov	r0, r5
 2458              	.LVL340:
 2459 01d0 FEFFFFEB 		bl	enable_ref_spads
 2460              	.LVL341:
 2461              		.loc 1 814 0
 2462 01d4 000050E3 		cmp	r0, #0
 2463              	.LVL342:
 2464 01d8 6D00000A 		beq	.L240
 2465              	.LVL343:
 2466              	.L235:
 2467 01dc 0060A0E1 		mov	r6, r0
 2468              		.loc 1 941 0
 2469 01e0 0600A0E1 		mov	r0, r6
 2470 01e4 4CD08DE2 		add	sp, sp, #76
 2471              		.cfi_remember_state
 2472              		.cfi_def_cfa_offset 36
 2473              		@ sp needed
 2474 01e8 F08FBDE8 		pop	{r4, r5, r6, r7, r8, r9, r10, fp, pc}
 2475              	.LVL344:
 2476              	.L226:
 2477              		.cfi_restore_state
 2478              		.loc 1 699 0
 2479 01ec 0020A0E3 		mov	r2, #0
 2480              		.loc 1 698 0
 2481 01f0 0290A0E1 		mov	r9, r2
 2482              		.loc 1 699 0
 2483 01f4 2C208DE5 		str	r2, [sp, #44]
 2484              	.LVL345:
 2485              	.L220:
 2486              		.loc 1 836 0 discriminator 1
 2487 01f8 030057E1 		cmp	r7, r3
 2488 01fc 4E00009A 		bls	.L223
 2489              		.loc 1 848 0
 2490 0200 073043E0 		sub	r3, r3, r7
 2491 0204 000053E3 		cmp	r3, #0
 2492 0208 003063B2 		rsblt	r3, r3, #0
 2493 020c 1C308DE5 		str	r3, [sp, #28]
 2494              		.loc 1 846 0
 2495 0210 B430D8E1 		ldrh	r3, [r8, #4]	@ unaligned
 2496 0214 28608DE5 		str	r6, [sp, #40]
 2497 0218 B434CDE1 		strh	r3, [sp, #68]	@ unaligned
 2498              		.loc 1 843 0
 2499 021c 0230A0E1 		mov	r3, r2
 2500              		.loc 1 844 0
 2501 0220 03B0A0E3 		mov	fp, #3
 2502 0224 0360A0E1 		mov	r6, r3
 2503              		.loc 1 846 0
 2504 0228 000098E5 		ldr	r0, [r8]	@ unaligned
 2505              		.loc 1 843 0
 2506 022c 7220EFE6 		uxtb	r2, r2
 2507              		.loc 1 846 0
 2508 0230 40008DE5 		str	r0, [sp, #64]
ARM GAS  /var/folders/3j/4xdnk5197cv_b7cw3n33qk7r0000gn/T//ccSq9Yz5.s 			page 45


 2509              		.loc 1 843 0
 2510 0234 2C208DE5 		str	r2, [sp, #44]
 2511              	.LVL346:
 2512              	.L225:
 2513              		.loc 1 853 0
 2514 0238 0420A0E1 		mov	r2, r4
 2515 023c 3C308DE2 		add	r3, sp, #60
 2516 0240 0610A0E3 		mov	r1, #6
 2517 0244 0A00A0E1 		mov	r0, r10
 2518 0248 FEFFFFEB 		bl	get_next_good_spad
 2519              	.LVL347:
 2520              		.loc 1 858 0
 2521 024c 3C409DE5 		ldr	r4, [sp, #60]
 2522              	.LVL348:
 2523              		.loc 1 875 0
 2524 0250 01908BE2 		add	r9, fp, #1
 2525              	.LVL349:
 2526              		.loc 1 866 0
 2527 0254 B43084E2 		add	r3, r4, #180
 2528              		.loc 1 858 0
 2529 0258 010074E3 		cmn	r4, #1
 2530              	.LBB60:
 2531              	.LBB61:
 2532              		.loc 1 455 0
 2533 025c 2333A0E1 		lsr	r3, r3, #6
 2534              	.LBE61:
 2535              	.LBE60:
 2536              		.loc 1 858 0
 2537 0260 0700000A 		beq	.L233
 2538              	.LBB63:
 2539              	.LBB62:
 2540              		.loc 1 456 0
 2541 0264 60219FE5 		ldr	r2, .L242
 2542 0268 033192E7 		ldr	r3, [r2, r3, lsl #2]
 2543 026c 003093E2 		adds	r3, r3, #0
 2544 0270 0130A013 		movne	r3, #1
 2545              	.LBE62:
 2546              	.LBE63:
 2547              		.loc 1 866 0
 2548 0274 060053E1 		cmp	r3, r6
 2549 0278 4200001A 		bne	.L232
 2550              	.LBB64:
 2551              	.LBB65:
 2552              		.loc 1 473 0
 2553 027c 2F0054E3 		cmp	r4, #47
 2554 0280 0300009A 		bls	.L241
 2555              	.L233:
 2556              	.LBE65:
 2557              	.LBE64:
 2558              		.loc 1 859 0
 2559 0284 3160E0E3 		mvn	r6, #49
 2560              		.loc 1 941 0
 2561 0288 0600A0E1 		mov	r0, r6
 2562 028c 4CD08DE2 		add	sp, sp, #76
 2563              		.cfi_remember_state
 2564              		.cfi_def_cfa_offset 36
 2565              		@ sp needed
ARM GAS  /var/folders/3j/4xdnk5197cv_b7cw3n33qk7r0000gn/T//ccSq9Yz5.s 			page 46


 2566 0290 F08FBDE8 		pop	{r4, r5, r6, r7, r8, r9, r10, fp, pc}
 2567              	.LVL350:
 2568              	.L241:
 2569              		.cfi_restore_state
 2570              	.LBB67:
 2571              	.LBB66:
 2572              		.loc 1 476 0
 2573 0294 0110A0E3 		mov	r1, #1
 2574 0298 A431D8E7 		ldrb	r3, [r8, r4, lsr #3]	@ zero_extendqisi2
 2575              		.loc 1 472 0
 2576 029c 072004E2 		and	r2, r4, #7
 2577              		.loc 1 476 0
 2578 02a0 113283E1 		orr	r3, r3, r1, lsl r2
 2579 02a4 A431C8E7 		strb	r3, [r8, r4, lsr #3]
 2580              	.LVL351:
 2581              	.LBE66:
 2582              	.LBE67:
 2583              	.LBB68:
 2584              	.LBB69:
 2585              		.loc 1 541 0
 2586 02a8 0820A0E1 		mov	r2, r8
 2587 02ac 0630A0E3 		mov	r3, #6
 2588 02b0 B010A0E3 		mov	r1, #176
 2589 02b4 0500A0E1 		mov	r0, r5
 2590 02b8 FEFFFFEB 		bl	VL53L0X_WriteMulti
 2591              	.LVL352:
 2592              	.LBE69:
 2593              	.LBE68:
 2594              		.loc 1 890 0
 2595 02bc 000050E3 		cmp	r0, #0
 2596              		.loc 1 883 0
 2597 02c0 014084E2 		add	r4, r4, #1
 2598              	.LVL353:
 2599              		.loc 1 890 0
 2600 02c4 C4FFFF1A 		bne	.L235
 2601              		.loc 1 893 0
 2602 02c8 36108DE2 		add	r1, sp, #54
 2603 02cc 0500A0E1 		mov	r0, r5
 2604 02d0 FEFFFFEB 		bl	perform_ref_signal_measurement
 2605              	.LVL354:
 2606              		.loc 1 896 0
 2607 02d4 000050E3 		cmp	r0, #0
 2608              	.LVL355:
 2609 02d8 BFFFFF1A 		bne	.L235
 2610              		.loc 1 899 0
 2611 02dc B623DDE1 		ldrh	r2, [sp, #54]
 2612 02e0 073042E0 		sub	r3, r2, r7
 2613 02e4 000053E3 		cmp	r3, #0
 2614 02e8 003063B2 		rsblt	r3, r3, #0
 2615              	.LVL356:
 2616              		.loc 1 901 0
 2617 02ec 070052E1 		cmp	r2, r7
 2618 02f0 1D00009A 		bls	.L224
 2619              		.loc 1 906 0
 2620 02f4 1C209DE5 		ldr	r2, [sp, #28]
 2621 02f8 28609DE5 		ldr	r6, [sp, #40]
 2622 02fc 020053E1 		cmp	r3, r2
ARM GAS  /var/folders/3j/4xdnk5197cv_b7cw3n33qk7r0000gn/T//ccSq9Yz5.s 			page 47


 2623 0300 0D00009A 		bls	.L223
 2624              	.LVL357:
 2625              	.LBB70:
 2626              	.LBB71:
 2627              		.loc 1 541 0
 2628 0304 0630A0E3 		mov	r3, #6
 2629              	.LVL358:
 2630 0308 40208DE2 		add	r2, sp, #64
 2631              	.LVL359:
 2632 030c B010A0E3 		mov	r1, #176
 2633 0310 0500A0E1 		mov	r0, r5
 2634 0314 FEFFFFEB 		bl	VL53L0X_WriteMulti
 2635              	.LVL360:
 2636 0318 0030A0E1 		mov	r3, r0
 2637              	.LVL361:
 2638              	.LBE71:
 2639              	.LBE70:
 2640              		.loc 1 911 0
 2641 031c B424DDE1 		ldrh	r2, [sp, #68]	@ unaligned
 2642 0320 40009DE5 		ldr	r0, [sp, #64]
 2643              		.loc 1 929 0
 2644 0324 000053E3 		cmp	r3, #0
 2645              		.loc 1 911 0
 2646 0328 240185E5 		str	r0, [r5, #292]	@ unaligned
 2647 032c 0360A011 		movne	r6, r3
 2648 0330 B420C8E1 		strh	r2, [r8, #4]	@ unaligned
 2649              	.LVL362:
 2650              		.loc 1 929 0
 2651 0334 45FFFF1A 		bne	.L219
 2652 0338 0B90A0E1 		mov	r9, fp
 2653              	.LVL363:
 2654              	.L223:
 2655              		.loc 1 933 0
 2656 033c 0130A0E3 		mov	r3, #1
 2657              		.loc 1 930 0
 2658 0340 20209DE5 		ldr	r2, [sp, #32]
 2659              		.loc 1 931 0
 2660 0344 24109DE5 		ldr	r1, [sp, #36]
 2661 0348 2C009DE5 		ldr	r0, [sp, #44]
 2662              		.loc 1 930 0
 2663 034c 009082E5 		str	r9, [r2]
 2664              		.loc 1 931 0
 2665 0350 0000C1E5 		strb	r0, [r1]
 2666              		.loc 1 933 0
 2667 0354 1531C5E5 		strb	r3, [r5, #277]
 2668              		.loc 1 934 0
 2669 0358 003092E5 		ldr	r3, [r2]
 2670 035c 1331C5E5 		strb	r3, [r5, #275]
 2671              		.loc 1 936 0
 2672 0360 0030D1E5 		ldrb	r3, [r1]	@ zero_extendqisi2
 2673 0364 1431C5E5 		strb	r3, [r5, #276]
 2674 0368 38FFFFEA 		b	.L219
 2675              	.LVL364:
 2676              	.L224:
 2677              		.loc 1 921 0
 2678 036c 000098E5 		ldr	r0, [r8]	@ unaligned
 2679 0370 B420D8E1 		ldrh	r2, [r8, #4]	@ unaligned
ARM GAS  /var/folders/3j/4xdnk5197cv_b7cw3n33qk7r0000gn/T//ccSq9Yz5.s 			page 48


 2680              		.loc 1 899 0
 2681 0374 1C308DE5 		str	r3, [sp, #28]
 2682              		.loc 1 875 0
 2683 0378 09B0A0E1 		mov	fp, r9
 2684              		.loc 1 921 0
 2685 037c 40008DE5 		str	r0, [sp, #64]
 2686 0380 B424CDE1 		strh	r2, [sp, #68]	@ unaligned
 2687              	.LVL365:
 2688 0384 ABFFFFEA 		b	.L225
 2689              	.LVL366:
 2690              	.L232:
 2691 0388 28609DE5 		ldr	r6, [sp, #40]
 2692 038c 0B90A0E1 		mov	r9, fp
 2693              	.LVL367:
 2694 0390 E9FFFFEA 		b	.L223
 2695              	.LVL368:
 2696              	.L240:
 2697              		.loc 1 816 0
 2698 0394 36108DE2 		add	r1, sp, #54
 2699 0398 0500A0E1 		mov	r0, r5
 2700              		.loc 1 815 0
 2701 039c 38409DE5 		ldr	r4, [sp, #56]
 2702              	.LVL369:
 2703              		.loc 1 816 0
 2704 03a0 FEFFFFEB 		bl	perform_ref_signal_measurement
 2705              	.LVL370:
 2706              		.loc 1 819 0
 2707 03a4 000050E3 		cmp	r0, #0
 2708              	.LVL371:
 2709 03a8 8BFFFF1A 		bne	.L235
 2710              		.loc 1 820 0 discriminator 1
 2711 03ac B633DDE1 		ldrh	r3, [sp, #54]
 2712              		.loc 1 819 0 discriminator 1
 2713 03b0 070053E1 		cmp	r3, r7
 2714              		.loc 1 827 0 discriminator 1
 2715 03b4 0120A083 		movhi	r2, #1
 2716 03b8 2C208D85 		strhi	r2, [sp, #44]
 2717              		.loc 1 819 0 discriminator 1
 2718              		.loc 1 699 0
 2719 03bc 2C008D95 		strls	r0, [sp, #44]
 2720              		.loc 1 802 0
 2721 03c0 0120A093 		movls	r2, #1
 2722              		.loc 1 698 0
 2723 03c4 0090A091 		movls	r9, r0
 2724 03c8 8AFFFFEA 		b	.L220
 2725              	.L243:
 2726              		.align	2
 2727              	.L242:
 2728 03cc 00000000 		.word	.LANCHOR0
 2729              		.cfi_endproc
 2730              	.LFE16:
 2731              		.size	VL53L0X_perform_ref_spad_management, .-VL53L0X_perform_ref_spad_management
 2732              		.section	.text.VL53L0X_set_ref_calibration,"ax",%progbits
 2733              		.align	2
 2734              		.global	VL53L0X_set_ref_calibration
 2735              		.syntax unified
 2736              		.arm
ARM GAS  /var/folders/3j/4xdnk5197cv_b7cw3n33qk7r0000gn/T//ccSq9Yz5.s 			page 49


 2737              		.fpu softvfp
 2738              		.type	VL53L0X_set_ref_calibration, %function
 2739              	VL53L0X_set_ref_calibration:
 2740              	.LFB24:
 2741              		.loc 1 1250 0
 2742              		.cfi_startproc
 2743              		@ args = 0, pretend = 0, frame = 8
 2744              		@ frame_needed = 0, uses_anonymous_args = 0
 2745              	.LVL372:
 2746              		.loc 1 1255 0
 2747 0000 01C0A0E3 		mov	ip, #1
 2748              		.loc 1 1250 0
 2749 0004 10402DE9 		push	{r4, lr}
 2750              		.cfi_def_cfa_offset 8
 2751              		.cfi_offset 4, -8
 2752              		.cfi_offset 14, -4
 2753 0008 18D04DE2 		sub	sp, sp, #24
 2754              		.cfi_def_cfa_offset 32
 2755              		.loc 1 1255 0
 2756 000c 16E08DE2 		add	lr, sp, #22
 2757 0010 17408DE2 		add	r4, sp, #23
 2758 0014 0230A0E1 		mov	r3, r2
 2759 0018 0CC08DE5 		str	ip, [sp, #12]
 2760 001c 0120A0E1 		mov	r2, r1
 2761              	.LVL373:
 2762 0020 10108DE9 		stmib	sp, {r4, ip}
 2763 0024 00E08DE5 		str	lr, [sp]
 2764 0028 0010A0E3 		mov	r1, #0
 2765              	.LVL374:
 2766 002c FEFFFFEB 		bl	VL53L0X_ref_calibration_io
 2767              	.LVL375:
 2768              		.loc 1 1261 0
 2769 0030 18D08DE2 		add	sp, sp, #24
 2770              		.cfi_def_cfa_offset 8
 2771              		@ sp needed
 2772 0034 1080BDE8 		pop	{r4, pc}
 2773              		.cfi_endproc
 2774              	.LFE24:
 2775              		.size	VL53L0X_set_ref_calibration, .-VL53L0X_set_ref_calibration
 2776              		.section	.text.VL53L0X_get_ref_calibration,"ax",%progbits
 2777              		.align	2
 2778              		.global	VL53L0X_get_ref_calibration
 2779              		.syntax unified
 2780              		.arm
 2781              		.fpu softvfp
 2782              		.type	VL53L0X_get_ref_calibration, %function
 2783              	VL53L0X_get_ref_calibration:
 2784              	.LFB25:
 2785              		.loc 1 1265 0
 2786              		.cfi_startproc
 2787              		@ args = 0, pretend = 0, frame = 0
 2788              		@ frame_needed = 0, uses_anonymous_args = 0
 2789              	.LVL376:
 2790              		.loc 1 1270 0
 2791 0000 01C0A0E3 		mov	ip, #1
 2792 0004 0030A0E3 		mov	r3, #0
 2793              		.loc 1 1265 0
ARM GAS  /var/folders/3j/4xdnk5197cv_b7cw3n33qk7r0000gn/T//ccSq9Yz5.s 			page 50


 2794 0008 04E02DE5 		str	lr, [sp, #-4]!
 2795              		.cfi_def_cfa_offset 4
 2796              		.cfi_offset 14, -4
 2797 000c 14D04DE2 		sub	sp, sp, #20
 2798              		.cfi_def_cfa_offset 24
 2799              		.loc 1 1270 0
 2800 0010 06008DE8 		stm	sp, {r1, r2}
 2801 0014 0CC08DE5 		str	ip, [sp, #12]
 2802 0018 08C08DE5 		str	ip, [sp, #8]
 2803 001c 0C10A0E1 		mov	r1, ip
 2804              	.LVL377:
 2805 0020 0320A0E1 		mov	r2, r3
 2806              	.LVL378:
 2807 0024 FEFFFFEB 		bl	VL53L0X_ref_calibration_io
 2808              	.LVL379:
 2809              		.loc 1 1276 0
 2810 0028 14D08DE2 		add	sp, sp, #20
 2811              		.cfi_def_cfa_offset 4
 2812              		@ sp needed
 2813 002c 04F09DE4 		ldr	pc, [sp], #4
 2814              		.cfi_endproc
 2815              	.LFE25:
 2816              		.size	VL53L0X_get_ref_calibration, .-VL53L0X_get_ref_calibration
 2817              		.global	refArrayQuadrants
 2818              		.section	.data.refArrayQuadrants,"aw",%progbits
 2819              		.align	2
 2820              		.set	.LANCHOR0,. + 0
 2821              		.type	refArrayQuadrants, %object
 2822              		.size	refArrayQuadrants, 16
 2823              	refArrayQuadrants:
 2824 0000 0A000000 		.word	10
 2825 0004 05000000 		.word	5
 2826 0008 00000000 		.word	0
 2827 000c 05000000 		.word	5
 2828              		.text
 2829              	.Letext0:
 2830              		.file 2 "/usr/local/Cellar/gcc-arm-none-eabi/20180627/arm-none-eabi/include/machine/_default_types
 2831              		.file 3 "/usr/local/Cellar/gcc-arm-none-eabi/20180627/arm-none-eabi/include/sys/_stdint.h"
 2832              		.file 4 "..//VL53L0X_Api/platform/inc/vl53l0x_types.h"
 2833              		.file 5 "..//VL53L0X_Api/core/inc/vl53l0x_device.h"
 2834              		.file 6 "..//VL53L0X_Api/core/inc/vl53l0x_def.h"
 2835              		.file 7 "/usr/local/Cellar/gcc-arm-none-eabi/20180627/arm-none-eabi/include/sys/lock.h"
 2836              		.file 8 "/usr/local/Cellar/gcc-arm-none-eabi/20180627/arm-none-eabi/include/sys/_types.h"
 2837              		.file 9 "/usr/local/Cellar/gcc-arm-none-eabi/20180627/lib/gcc/arm-none-eabi/7.3.1/include/stddef.h
 2838              		.file 10 "/usr/local/Cellar/gcc-arm-none-eabi/20180627/arm-none-eabi/include/sys/reent.h"
 2839              		.file 11 "..//VL53L0X_Api/platform/inc/vl53l0x_platform.h"
 2840              		.file 12 "/usr/local/Cellar/gcc-arm-none-eabi/20180627/arm-none-eabi/include/stdlib.h"
 2841              		.file 13 "..//VL53L0X_Api/core/inc/vl53l0x_api.h"
 2842              		.file 14 "..//VL53L0X_Api/core/inc/vl53l0x_api_core.h"