ARM GAS  /var/folders/3j/4xdnk5197cv_b7cw3n33qk7r0000gn/T//ccLoT9Qc.s 			page 1


   1              		.cpu arm1176jz-s
   2              		.eabi_attribute 20, 1
   3              		.eabi_attribute 21, 1
   4              		.eabi_attribute 23, 3
   5              		.eabi_attribute 24, 1
   6              		.eabi_attribute 25, 1
   7              		.eabi_attribute 26, 1
   8              		.eabi_attribute 30, 2
   9              		.eabi_attribute 34, 1
  10              		.eabi_attribute 18, 4
  11              		.file	"vl53l0x_api_core.c"
  12              		.text
  13              	.Ltext0:
  14              		.cfi_sections	.debug_frame
  15              		.section	.text.VL53L0X_encode_timeout.part.0,"ax",%progbits
  16              		.align	2
  17              		.syntax unified
  18              		.arm
  19              		.fpu softvfp
  20              		.type	VL53L0X_encode_timeout.part.0, %function
  21              	VL53L0X_encode_timeout.part.0:
  22              	.LFB28:
  23              		.file 1 "..//VL53L0X_Api/core/src/vl53l0x_api_core.c"
  24              		.loc 1 499 0
  25              		.cfi_startproc
  26              		@ args = 0, pretend = 0, frame = 0
  27              		@ frame_needed = 0, uses_anonymous_args = 0
  28              		@ link register save eliminated.
  29              	.LVL0:
  30              		.loc 1 510 0
  31 0000 010040E2 		sub	r0, r0, #1
  32              	.LVL1:
  33              		.loc 1 512 0
  34 0004 FF30D0E3 		bics	r3, r0, #255
  35 0008 0800000A 		beq	.L2
  36              		.loc 1 507 0
  37 000c 0030A0E3 		mov	r3, #0
  38              	.LVL2:
  39              	.L3:
  40              		.loc 1 513 0
  41 0010 A000A0E1 		lsr	r0, r0, #1
  42              	.LVL3:
  43              		.loc 1 512 0
  44 0014 FF20C0E3 		bic	r2, r0, #255
  45              		.loc 1 514 0
  46 0018 013083E2 		add	r3, r3, #1
  47              	.LVL4:
  48              		.loc 1 512 0
  49 001c 000052E3 		cmp	r2, #0
  50              		.loc 1 514 0
  51 0020 7330FFE6 		uxth	r3, r3
  52              	.LVL5:
  53              		.loc 1 512 0
  54 0024 F9FFFF1A 		bne	.L3
  55 0028 0334A0E1 		lsl	r3, r3, #8
  56              	.LVL6:
  57 002c 7330FFE6 		uxth	r3, r3
ARM GAS  /var/folders/3j/4xdnk5197cv_b7cw3n33qk7r0000gn/T//ccLoT9Qc.s 			page 2


  58              	.L2:
  59              	.LVL7:
  60              		.loc 1 517 0
  61 0030 000083E0 		add	r0, r3, r0
  62              	.LVL8:
  63              		.loc 1 523 0
  64 0034 7000FFE6 		uxth	r0, r0
  65 0038 1EFF2FE1 		bx	lr
  66              		.cfi_endproc
  67              	.LFE28:
  68              		.size	VL53L0X_encode_timeout.part.0, .-VL53L0X_encode_timeout.part.0
  69              		.global	__aeabi_uidiv
  70              		.section	.text.set_sequence_step_timeout.part.1,"ax",%progbits
  71              		.align	2
  72              		.syntax unified
  73              		.arm
  74              		.fpu softvfp
  75              		.type	set_sequence_step_timeout.part.1, %function
  76              	set_sequence_step_timeout.part.1:
  77              	.LFB29:
  78              		.loc 1 687 0
  79              		.cfi_startproc
  80              		@ args = 0, pretend = 0, frame = 16
  81              		@ frame_needed = 0, uses_anonymous_args = 0
  82              	.LVL9:
  83 0000 F04D2DE9 		push	{r4, r5, r6, r7, r8, r10, fp, lr}
  84              		.cfi_def_cfa_offset 32
  85              		.cfi_offset 4, -32
  86              		.cfi_offset 5, -28
  87              		.cfi_offset 6, -24
  88              		.cfi_offset 7, -20
  89              		.cfi_offset 8, -16
  90              		.cfi_offset 10, -12
  91              		.cfi_offset 11, -8
  92              		.cfi_offset 14, -4
  93              		.loc 1 732 0
  94 0004 030051E3 		cmp	r1, #3
  95              		.loc 1 687 0
  96 0008 10D04DE2 		sub	sp, sp, #16
  97              		.cfi_def_cfa_offset 48
  98              		.loc 1 687 0
  99 000c 0270A0E1 		mov	r7, r2
 100 0010 0080A0E1 		mov	r8, r0
 101              		.loc 1 732 0
 102 0014 3B00000A 		beq	.L18
 103              		.loc 1 762 0
 104 0018 040051E3 		cmp	r1, #4
 105 001c 6100001A 		bne	.L14
 106              		.loc 1 770 0
 107 0020 08108DE2 		add	r1, sp, #8
 108              	.LVL10:
 109 0024 FEFFFFEB 		bl	VL53L0X_GetSequenceStepEnables
 110              	.LVL11:
 111              		.loc 1 773 0
 112 0028 0B60DDE5 		ldrb	r6, [sp, #11]	@ zero_extendqisi2
 113              		.loc 1 776 0
 114 002c 05508DE2 		add	r5, sp, #5
ARM GAS  /var/folders/3j/4xdnk5197cv_b7cw3n33qk7r0000gn/T//ccLoT9Qc.s 			page 3


 115              		.loc 1 773 0
 116 0030 000056E3 		cmp	r6, #0
 117 0034 1400000A 		beq	.L11
 118              		.loc 1 776 0
 119 0038 0520A0E1 		mov	r2, r5
 120 003c 0010A0E3 		mov	r1, #0
 121 0040 0800A0E1 		mov	r0, r8
 122 0044 FEFFFFEB 		bl	VL53L0X_GetVcselPulsePeriod
 123              	.LVL12:
 124              		.loc 1 782 0
 125 0048 004050E2 		subs	r4, r0, #0
 126 004c 0200000A 		beq	.L19
 127              	.LVL13:
 128              	.L10:
 129              		.loc 1 829 0
 130 0050 0400A0E1 		mov	r0, r4
 131 0054 10D08DE2 		add	sp, sp, #16
 132              		.cfi_remember_state
 133              		.cfi_def_cfa_offset 32
 134              		@ sp needed
 135 0058 F08DBDE8 		pop	{r4, r5, r6, r7, r8, r10, fp, pc}
 136              	.LVL14:
 137              	.L19:
 138              		.cfi_restore_state
 139              		.loc 1 783 0
 140 005c 06208DE2 		add	r2, sp, #6
 141 0060 5110A0E3 		mov	r1, #81
 142 0064 0800A0E1 		mov	r0, r8
 143              	.LVL15:
 144 0068 FEFFFFEB 		bl	VL53L0X_RdWord
 145              	.LVL16:
 146              		.loc 1 786 0
 147 006c B630DDE1 		ldrh	r3, [sp, #6]
 148              		.loc 1 794 0
 149 0070 004050E2 		subs	r4, r0, #0
 150              	.LBB108:
 151              	.LBB109:
 152              		.loc 1 533 0
 153 0074 7360EFE6 		uxtb	r6, r3
 154              		.loc 1 534 0
 155 0078 2334A0E1 		lsr	r3, r3, #8
 156 007c 1663A0E1 		lsl	r6, r6, r3
 157              		.loc 1 533 0
 158 0080 016086E2 		add	r6, r6, #1
 159              	.LBE109:
 160              	.LBE108:
 161              		.loc 1 785 0
 162 0084 7660FFE6 		uxth	r6, r6
 163              	.LVL17:
 164              		.loc 1 794 0
 165 0088 F0FFFF1A 		bne	.L10
 166              	.LVL18:
 167              	.L11:
 168              		.loc 1 796 0
 169 008c 0520A0E1 		mov	r2, r5
 170 0090 0110A0E3 		mov	r1, #1
 171 0094 0800A0E1 		mov	r0, r8
ARM GAS  /var/folders/3j/4xdnk5197cv_b7cw3n33qk7r0000gn/T//ccLoT9Qc.s 			page 4


 172 0098 FEFFFFEB 		bl	VL53L0X_GetVcselPulsePeriod
 173              	.LVL19:
 174              		.loc 1 800 0
 175 009c 004050E2 		subs	r4, r0, #0
 176 00a0 EAFFFF1A 		bne	.L10
 177              	.LVL20:
 178              	.LBB110:
 179              	.LBB111:
 180              	.LBB112:
 181              	.LBB113:
 182              		.loc 1 493 0
 183 00a4 0530DDE5 		ldrb	r3, [sp, #5]	@ zero_extendqisi2
 184              	.LBE113:
 185              	.LBE112:
 186              		.loc 1 554 0
 187 00a8 00019FE5 		ldr	r0, .L22
 188              	.LVL21:
 189              	.LBB115:
 190              	.LBB114:
 191              		.loc 1 492 0
 192 00ac 834263E0 		rsb	r4, r3, r3, lsl #5
 193 00b0 843283E0 		add	r3, r3, r4, lsl #5
 194 00b4 033263E0 		rsb	r3, r3, r3, lsl #4
 195 00b8 0344A0E1 		lsl	r4, r3, #8
 196              	.LBE114:
 197              	.LBE115:
 198              		.loc 1 550 0
 199 00bc 7D4F84E2 		add	r4, r4, #500
 200              	.LVL22:
 201              		.loc 1 554 0
 202 00c0 944085E0 		umull	r4, r5, r4, r0
 203              		.loc 1 553 0
 204 00c4 873267E0 		rsb	r3, r7, r7, lsl #5
 205 00c8 033187E0 		add	r3, r7, r3, lsl #2
 206              		.loc 1 554 0
 207 00cc A503A0E1 		lsr	r0, r5, #7
 208              		.loc 1 552 0
 209 00d0 2513A0E1 		lsr	r1, r5, #6
 210 00d4 830180E0 		add	r0, r0, r3, lsl #3
 211 00d8 FEFFFFEB 		bl	__aeabi_uidiv
 212              	.LVL23:
 213              	.LBE111:
 214              	.LBE110:
 215              	.LBB116:
 216              	.LBB117:
 217              		.loc 1 509 0
 218 00dc 060090E0 		adds	r0, r0, r6
 219              	.LVL24:
 220              		.loc 1 505 0
 221 00e0 0020A001 		moveq	r2, r0
 222              		.loc 1 509 0
 223 00e4 2C00001A 		bne	.L20
 224              	.LVL25:
 225              	.L12:
 226              	.LBE117:
 227              	.LBE116:
 228              		.loc 1 813 0
ARM GAS  /var/folders/3j/4xdnk5197cv_b7cw3n33qk7r0000gn/T//ccLoT9Qc.s 			page 5


 229 00e8 7110A0E3 		mov	r1, #113
 230 00ec 0800A0E1 		mov	r0, r8
 231 00f0 FEFFFFEB 		bl	VL53L0X_WrWord
 232              	.LVL26:
 233              		.loc 1 817 0
 234 00f4 004050E2 		subs	r4, r0, #0
 235              		.loc 1 829 0
 236 00f8 0400A0E1 		mov	r0, r4
 237              	.LVL27:
 238              		.loc 1 818 0
 239 00fc DC708805 		streq	r7, [r8, #220]
 240              	.LVL28:
 241              		.loc 1 829 0
 242 0100 10D08DE2 		add	sp, sp, #16
 243              		.cfi_remember_state
 244              		.cfi_def_cfa_offset 32
 245              		@ sp needed
 246 0104 F08DBDE8 		pop	{r4, r5, r6, r7, r8, r10, fp, pc}
 247              	.LVL29:
 248              	.L18:
 249              		.cfi_restore_state
 250              		.loc 1 735 0
 251 0108 05208DE2 		add	r2, sp, #5
 252              	.LVL30:
 253 010c 0010A0E3 		mov	r1, #0
 254              	.LVL31:
 255 0110 FEFFFFEB 		bl	VL53L0X_GetVcselPulsePeriod
 256              	.LVL32:
 257              	.LBB119:
 258              	.LBB120:
 259              	.LBB121:
 260              	.LBB122:
 261              		.loc 1 493 0
 262 0114 0530DDE5 		ldrb	r3, [sp, #5]	@ zero_extendqisi2
 263              	.LBE122:
 264              	.LBE121:
 265              	.LBE120:
 266              	.LBE119:
 267              		.loc 1 735 0
 268 0118 0040A0E1 		mov	r4, r0
 269              	.LVL33:
 270              	.LBB128:
 271              	.LBB127:
 272              	.LBB125:
 273              	.LBB123:
 274              		.loc 1 492 0
 275 011c 832263E0 		rsb	r2, r3, r3, lsl #5
 276 0120 823283E0 		add	r3, r3, r2, lsl #5
 277 0124 033263E0 		rsb	r3, r3, r3, lsl #4
 278              	.LBE123:
 279              	.LBE125:
 280              		.loc 1 554 0
 281 0128 80009FE5 		ldr	r0, .L22
 282              	.LBB126:
 283              	.LBB124:
 284              		.loc 1 492 0
 285 012c 0324A0E1 		lsl	r2, r3, #8
ARM GAS  /var/folders/3j/4xdnk5197cv_b7cw3n33qk7r0000gn/T//ccLoT9Qc.s 			page 6


 286              	.LBE124:
 287              	.LBE126:
 288              		.loc 1 550 0
 289 0130 7D2F82E2 		add	r2, r2, #500
 290              	.LVL34:
 291              		.loc 1 554 0
 292 0134 92A08BE0 		umull	r10, fp, r2, r0
 293              		.loc 1 553 0
 294 0138 872267E0 		rsb	r2, r7, r7, lsl #5
 295              	.LVL35:
 296 013c 022187E0 		add	r2, r7, r2, lsl #2
 297              		.loc 1 554 0
 298 0140 AB03A0E1 		lsr	r0, fp, #7
 299              		.loc 1 552 0
 300 0144 2B13A0E1 		lsr	r1, fp, #6
 301 0148 820180E0 		add	r0, r0, r2, lsl #3
 302 014c FEFFFFEB 		bl	__aeabi_uidiv
 303              	.LVL36:
 304 0150 7000FFE6 		uxth	r0, r0
 305              	.LVL37:
 306              	.LBE127:
 307              	.LBE128:
 308              	.LBB129:
 309              	.LBB130:
 310              		.loc 1 509 0
 311 0154 000050E3 		cmp	r0, #0
 312 0158 0D00001A 		bne	.L21
 313              	.LVL38:
 314              	.L9:
 315              	.LBE130:
 316              	.LBE129:
 317              		.loc 1 750 0
 318 015c 000054E3 		cmp	r4, #0
 319              		.loc 1 742 0
 320 0160 B600CDE1 		strh	r0, [sp, #6]	@ movhi
 321              		.loc 1 745 0
 322 0164 B80DC8E1 		strh	r0, [r8, #216]	@ movhi
 323              		.loc 1 750 0
 324 0168 B8FFFF1A 		bne	.L10
 325              		.loc 1 751 0
 326 016c 0020A0E1 		mov	r2, r0
 327 0170 5110A0E3 		mov	r1, #81
 328 0174 0800A0E1 		mov	r0, r8
 329 0178 FEFFFFEB 		bl	VL53L0X_WrWord
 330              	.LVL39:
 331              		.loc 1 756 0
 332 017c 004050E2 		subs	r4, r0, #0
 333 0180 B2FFFF1A 		bne	.L10
 334              		.loc 1 829 0
 335 0184 0400A0E1 		mov	r0, r4
 336              	.LVL40:
 337              		.loc 1 757 0
 338 0188 E47088E5 		str	r7, [r8, #228]
 339              	.LVL41:
 340              		.loc 1 829 0
 341 018c 10D08DE2 		add	sp, sp, #16
 342              		.cfi_remember_state
ARM GAS  /var/folders/3j/4xdnk5197cv_b7cw3n33qk7r0000gn/T//ccLoT9Qc.s 			page 7


 343              		.cfi_def_cfa_offset 32
 344              		@ sp needed
 345 0190 F08DBDE8 		pop	{r4, r5, r6, r7, r8, r10, fp, pc}
 346              	.LVL42:
 347              	.L21:
 348              		.cfi_restore_state
 349              	.LBB132:
 350              	.LBB131:
 351 0194 FEFFFFEB 		bl	VL53L0X_encode_timeout.part.0
 352              	.LVL43:
 353 0198 EFFFFFEA 		b	.L9
 354              	.LVL44:
 355              	.L20:
 356              	.LBE131:
 357              	.LBE132:
 358              	.LBB133:
 359              	.LBB118:
 360 019c FEFFFFEB 		bl	VL53L0X_encode_timeout.part.0
 361              	.LVL45:
 362 01a0 0020A0E1 		mov	r2, r0
 363 01a4 CFFFFFEA 		b	.L12
 364              	.LVL46:
 365              	.L14:
 366              	.LBE118:
 367              	.LBE133:
 368              		.loc 1 825 0
 369 01a8 0340E0E3 		mvn	r4, #3
 370 01ac A7FFFFEA 		b	.L10
 371              	.L23:
 372              		.align	2
 373              	.L22:
 374 01b0 D34D6210 		.word	274877907
 375              		.cfi_endproc
 376              	.LFE29:
 377              		.size	set_sequence_step_timeout.part.1, .-set_sequence_step_timeout.part.1
 378              		.section	.text.VL53L0X_reverse_bytes,"ax",%progbits
 379              		.align	2
 380              		.global	VL53L0X_reverse_bytes
 381              		.syntax unified
 382              		.arm
 383              		.fpu softvfp
 384              		.type	VL53L0X_reverse_bytes, %function
 385              	VL53L0X_reverse_bytes:
 386              	.LFB3:
 387              		.loc 1 45 0
 388              		.cfi_startproc
 389              		@ args = 0, pretend = 0, frame = 0
 390              		@ frame_needed = 0, uses_anonymous_args = 0
 391              		@ link register save eliminated.
 392              	.LVL47:
 393              		.loc 1 52 0
 394 0000 A1C0B0E1 		lsrs	ip, r1, #1
 395              	.LVL48:
 396 0004 0800000A 		beq	.L25
 397 0008 013040E2 		sub	r3, r0, #1
 398 000c 0CC083E0 		add	ip, r3, ip
 399              	.LVL49:
ARM GAS  /var/folders/3j/4xdnk5197cv_b7cw3n33qk7r0000gn/T//ccLoT9Qc.s 			page 8


 400 0010 010080E0 		add	r0, r0, r1
 401              	.LVL50:
 402              	.L26:
 403              		.loc 1 54 0 discriminator 3
 404 0014 0120F3E5 		ldrb	r2, [r3, #1]!	@ zero_extendqisi2
 405              	.LVL51:
 406              		.loc 1 55 0 discriminator 3
 407 0018 011070E5 		ldrb	r1, [r0, #-1]!	@ zero_extendqisi2
 408              	.LVL52:
 409              		.loc 1 52 0 discriminator 3
 410 001c 0C0053E1 		cmp	r3, ip
 411              		.loc 1 55 0 discriminator 3
 412 0020 0010C3E5 		strb	r1, [r3]
 413              		.loc 1 56 0 discriminator 3
 414 0024 0020C0E5 		strb	r2, [r0]
 415              	.LVL53:
 416              		.loc 1 52 0 discriminator 3
 417 0028 F9FFFF1A 		bne	.L26
 418              	.LVL54:
 419              	.L25:
 420              		.loc 1 59 0
 421 002c 0000A0E3 		mov	r0, #0
 422 0030 1EFF2FE1 		bx	lr
 423              		.cfi_endproc
 424              	.LFE3:
 425              		.size	VL53L0X_reverse_bytes, .-VL53L0X_reverse_bytes
 426              		.section	.text.VL53L0X_measurement_poll_for_completion,"ax",%progbits
 427              		.align	2
 428              		.global	VL53L0X_measurement_poll_for_completion
 429              		.syntax unified
 430              		.arm
 431              		.fpu softvfp
 432              		.type	VL53L0X_measurement_poll_for_completion, %function
 433              	VL53L0X_measurement_poll_for_completion:
 434              	.LFB4:
 435              		.loc 1 62 0
 436              		.cfi_startproc
 437              		@ args = 0, pretend = 0, frame = 8
 438              		@ frame_needed = 0, uses_anonymous_args = 0
 439              	.LVL55:
 440              		.loc 1 64 0
 441 0000 0030A0E3 		mov	r3, #0
 442              		.loc 1 62 0
 443 0004 70402DE9 		push	{r4, r5, r6, lr}
 444              		.cfi_def_cfa_offset 16
 445              		.cfi_offset 4, -16
 446              		.cfi_offset 5, -12
 447              		.cfi_offset 6, -8
 448              		.cfi_offset 14, -4
 449 0008 08D04DE2 		sub	sp, sp, #8
 450              		.cfi_def_cfa_offset 24
 451              		.loc 1 64 0
 452 000c 08608DE2 		add	r6, sp, #8
 453              		.loc 1 62 0
 454 0010 0050A0E1 		mov	r5, r0
 455              		.loc 1 64 0
 456 0014 7D4EA0E3 		mov	r4, #2000
ARM GAS  /var/folders/3j/4xdnk5197cv_b7cw3n33qk7r0000gn/T//ccLoT9Qc.s 			page 9


 457 0018 013066E5 		strb	r3, [r6, #-1]!
 458              	.LVL56:
 459 001c 060000EA 		b	.L33
 460              	.LVL57:
 461              	.L39:
 462              		.loc 1 76 0
 463 0020 0730DDE5 		ldrb	r3, [sp, #7]	@ zero_extendqisi2
 464 0024 010053E3 		cmp	r3, #1
 465 0028 0800000A 		beq	.L32
 466              		.loc 1 80 0
 467 002c 014054E2 		subs	r4, r4, #1
 468              	.LVL58:
 469 0030 0800000A 		beq	.L34
 470              		.loc 1 85 0
 471 0034 0500A0E1 		mov	r0, r5
 472 0038 FEFFFFEB 		bl	VL53L0X_PollingDelay
 473              	.LVL59:
 474              	.L33:
 475              		.loc 1 72 0
 476 003c 0610A0E1 		mov	r1, r6
 477 0040 0500A0E1 		mov	r0, r5
 478 0044 FEFFFFEB 		bl	VL53L0X_GetMeasurementDataReady
 479              	.LVL60:
 480              		.loc 1 73 0
 481 0048 000050E3 		cmp	r0, #0
 482              	.LVL61:
 483 004c F3FFFF0A 		beq	.L39
 484              	.LVL62:
 485              	.L32:
 486              		.loc 1 91 0
 487 0050 08D08DE2 		add	sp, sp, #8
 488              		.cfi_remember_state
 489              		.cfi_def_cfa_offset 16
 490              		@ sp needed
 491 0054 7080BDE8 		pop	{r4, r5, r6, pc}
 492              	.LVL63:
 493              	.L34:
 494              		.cfi_restore_state
 495              		.loc 1 81 0
 496 0058 0600E0E3 		mvn	r0, #6
 497 005c FBFFFFEA 		b	.L32
 498              		.cfi_endproc
 499              	.LFE4:
 500              		.size	VL53L0X_measurement_poll_for_completion, .-VL53L0X_measurement_poll_for_completion
 501              		.section	.text.VL53L0X_decode_vcsel_period,"ax",%progbits
 502              		.align	2
 503              		.global	VL53L0X_decode_vcsel_period
 504              		.syntax unified
 505              		.arm
 506              		.fpu softvfp
 507              		.type	VL53L0X_decode_vcsel_period, %function
 508              	VL53L0X_decode_vcsel_period:
 509              	.LFB5:
 510              		.loc 1 95 0
 511              		.cfi_startproc
 512              		@ args = 0, pretend = 0, frame = 0
 513              		@ frame_needed = 0, uses_anonymous_args = 0
ARM GAS  /var/folders/3j/4xdnk5197cv_b7cw3n33qk7r0000gn/T//ccLoT9Qc.s 			page 10


 514              		@ link register save eliminated.
 515              	.LVL64:
 516              		.loc 1 103 0
 517 0000 010080E2 		add	r0, r0, #1
 518              	.LVL65:
 519 0004 8000A0E1 		lsl	r0, r0, #1
 520              		.loc 1 106 0
 521 0008 FE0000E2 		and	r0, r0, #254
 522 000c 1EFF2FE1 		bx	lr
 523              		.cfi_endproc
 524              	.LFE5:
 525              		.size	VL53L0X_decode_vcsel_period, .-VL53L0X_decode_vcsel_period
 526              		.section	.text.VL53L0X_encode_vcsel_period,"ax",%progbits
 527              		.align	2
 528              		.global	VL53L0X_encode_vcsel_period
 529              		.syntax unified
 530              		.arm
 531              		.fpu softvfp
 532              		.type	VL53L0X_encode_vcsel_period, %function
 533              	VL53L0X_encode_vcsel_period:
 534              	.LFB6:
 535              		.loc 1 109 0
 536              		.cfi_startproc
 537              		@ args = 0, pretend = 0, frame = 0
 538              		@ frame_needed = 0, uses_anonymous_args = 0
 539              		@ link register save eliminated.
 540              	.LVL66:
 541              		.loc 1 117 0
 542 0000 A000A0E1 		lsr	r0, r0, #1
 543              	.LVL67:
 544 0004 010040E2 		sub	r0, r0, #1
 545              		.loc 1 120 0
 546 0008 7000EFE6 		uxtb	r0, r0
 547 000c 1EFF2FE1 		bx	lr
 548              		.cfi_endproc
 549              	.LFE6:
 550              		.size	VL53L0X_encode_vcsel_period, .-VL53L0X_encode_vcsel_period
 551              		.section	.text.VL53L0X_isqrt,"ax",%progbits
 552              		.align	2
 553              		.global	VL53L0X_isqrt
 554              		.syntax unified
 555              		.arm
 556              		.fpu softvfp
 557              		.type	VL53L0X_isqrt, %function
 558              	VL53L0X_isqrt:
 559              	.LFB7:
 560              		.loc 1 124 0
 561              		.cfi_startproc
 562              		@ args = 0, pretend = 0, frame = 0
 563              		@ frame_needed = 0, uses_anonymous_args = 0
 564              		@ link register save eliminated.
 565              	.LVL68:
 566              		.loc 1 137 0
 567 0000 070170E3 		cmn	r0, #-1073741823
 568              		.loc 1 132 0
 569 0004 0131A0E3 		mov	r3, #1073741824
 570              		.loc 1 137 0
ARM GAS  /var/folders/3j/4xdnk5197cv_b7cw3n33qk7r0000gn/T//ccLoT9Qc.s 			page 11


 571 0008 0400008A 		bhi	.L43
 572              	.LVL69:
 573              	.L44:
 574              		.loc 1 138 0
 575 000c 2331A0E1 		lsr	r3, r3, #2
 576              	.LVL70:
 577              		.loc 1 137 0
 578 0010 030050E1 		cmp	r0, r3
 579 0014 FCFFFF3A 		bcc	.L44
 580              		.loc 1 141 0
 581 0018 000053E3 		cmp	r3, #0
 582 001c 0900000A 		beq	.L52
 583              	.LVL71:
 584              	.L43:
 585              		.loc 1 132 0
 586 0020 0020A0E3 		mov	r2, #0
 587              	.LVL72:
 588              	.L47:
 589              		.loc 1 142 0
 590 0024 031082E0 		add	r1, r2, r3
 591 0028 000051E1 		cmp	r1, r0
 592 002c A220A0E1 		lsr	r2, r2, #1
 593              	.LVL73:
 594              		.loc 1 143 0
 595 0030 01004090 		subls	r0, r0, r1
 596              	.LVL74:
 597              		.loc 1 144 0
 598 0034 03208290 		addls	r2, r2, r3
 599              	.LVL75:
 600              		.loc 1 141 0
 601 0038 2331B0E1 		lsrs	r3, r3, #2
 602              	.LVL76:
 603 003c F8FFFF1A 		bne	.L47
 604              		.loc 1 152 0
 605 0040 0200A0E1 		mov	r0, r2
 606              	.LVL77:
 607 0044 1EFF2FE1 		bx	lr
 608              	.LVL78:
 609              	.L52:
 610              		.loc 1 131 0
 611 0048 0320A0E1 		mov	r2, r3
 612              		.loc 1 152 0
 613 004c 0200A0E1 		mov	r0, r2
 614              	.LVL79:
 615 0050 1EFF2FE1 		bx	lr
 616              		.cfi_endproc
 617              	.LFE7:
 618              		.size	VL53L0X_isqrt, .-VL53L0X_isqrt
 619              		.section	.text.VL53L0X_quadrature_sum,"ax",%progbits
 620              		.align	2
 621              		.global	VL53L0X_quadrature_sum
 622              		.syntax unified
 623              		.arm
 624              		.fpu softvfp
 625              		.type	VL53L0X_quadrature_sum, %function
 626              	VL53L0X_quadrature_sum:
 627              	.LFB8:
ARM GAS  /var/folders/3j/4xdnk5197cv_b7cw3n33qk7r0000gn/T//ccLoT9Qc.s 			page 12


 628              		.loc 1 156 0
 629              		.cfi_startproc
 630              		@ args = 0, pretend = 0, frame = 0
 631              		@ frame_needed = 0, uses_anonymous_args = 0
 632              		@ link register save eliminated.
 633              	.LVL80:
 634              		.loc 1 169 0
 635 0000 5C309FE5 		ldr	r3, .L65
 636 0004 030051E1 		cmp	r1, r3
 637 0008 03005091 		cmpls	r0, r3
 638 000c 1200008A 		bhi	.L61
 639              		.loc 1 172 0
 640 0010 910101E0 		mul	r1, r1, r1
 641              	.LVL81:
 642 0014 901021E0 		mla	r1, r0, r0, r1
 643              	.LVL82:
 644              	.LBB134:
 645              	.LBB135:
 646              		.loc 1 137 0
 647 0018 070171E3 		cmn	r1, #-1073741823
 648              		.loc 1 132 0
 649 001c 0131A0E3 		mov	r3, #1073741824
 650              		.loc 1 137 0
 651 0020 0400008A 		bhi	.L55
 652              	.LVL83:
 653              	.L56:
 654              		.loc 1 138 0
 655 0024 2331A0E1 		lsr	r3, r3, #2
 656              	.LVL84:
 657              		.loc 1 137 0
 658 0028 030051E1 		cmp	r1, r3
 659 002c FCFFFF3A 		bcc	.L56
 660              		.loc 1 141 0
 661 0030 000053E3 		cmp	r3, #0
 662 0034 0800000A 		beq	.L61
 663              	.LVL85:
 664              	.L55:
 665              		.loc 1 132 0
 666 0038 0000A0E3 		mov	r0, #0
 667              	.LVL86:
 668              	.L58:
 669              		.loc 1 142 0
 670 003c 032080E0 		add	r2, r0, r3
 671 0040 010052E1 		cmp	r2, r1
 672 0044 A000A0E1 		lsr	r0, r0, #1
 673              	.LVL87:
 674              		.loc 1 143 0
 675 0048 02104190 		subls	r1, r1, r2
 676              	.LVL88:
 677              		.loc 1 144 0
 678 004c 03008090 		addls	r0, r0, r3
 679              	.LVL89:
 680              		.loc 1 141 0
 681 0050 2331B0E1 		lsrs	r3, r3, #2
 682              	.LVL90:
 683 0054 F8FFFF1A 		bne	.L58
 684 0058 1EFF2FE1 		bx	lr
ARM GAS  /var/folders/3j/4xdnk5197cv_b7cw3n33qk7r0000gn/T//ccLoT9Qc.s 			page 13


 685              	.LVL91:
 686              	.L61:
 687              		.loc 1 131 0
 688 005c 0300A0E1 		mov	r0, r3
 689              	.LVL92:
 690              	.LBE135:
 691              	.LBE134:
 692              		.loc 1 175 0
 693 0060 1EFF2FE1 		bx	lr
 694              	.L66:
 695              		.align	2
 696              	.L65:
 697 0064 FFFF0000 		.word	65535
 698              		.cfi_endproc
 699              	.LFE8:
 700              		.size	VL53L0X_quadrature_sum, .-VL53L0X_quadrature_sum
 701              		.section	.text.VL53L0X_device_read_strobe,"ax",%progbits
 702              		.align	2
 703              		.global	VL53L0X_device_read_strobe
 704              		.syntax unified
 705              		.arm
 706              		.fpu softvfp
 707              		.type	VL53L0X_device_read_strobe, %function
 708              	VL53L0X_device_read_strobe:
 709              	.LFB9:
 710              		.loc 1 179 0
 711              		.cfi_startproc
 712              		@ args = 0, pretend = 0, frame = 8
 713              		@ frame_needed = 0, uses_anonymous_args = 0
 714              	.LVL93:
 715 0000 70402DE9 		push	{r4, r5, r6, lr}
 716              		.cfi_def_cfa_offset 16
 717              		.cfi_offset 4, -16
 718              		.cfi_offset 5, -12
 719              		.cfi_offset 6, -8
 720              		.cfi_offset 14, -4
 721              		.loc 1 185 0
 722 0004 0020A0E3 		mov	r2, #0
 723              		.loc 1 179 0
 724 0008 08D04DE2 		sub	sp, sp, #8
 725              		.cfi_def_cfa_offset 24
 726              		.loc 1 185 0
 727 000c 8310A0E3 		mov	r1, #131
 728              		.loc 1 179 0
 729 0010 0060A0E1 		mov	r6, r0
 730              		.loc 1 185 0
 731 0014 FEFFFFEB 		bl	VL53L0X_WrByte
 732              	.LVL94:
 733              		.loc 1 189 0
 734 0018 005050E2 		subs	r5, r0, #0
 735 001c 0C00001A 		bne	.L68
 736 0020 7D4EA0E3 		mov	r4, #2000
 737 0024 010000EA 		b	.L69
 738              	.LVL95:
 739              	.L73:
 740              		.loc 1 197 0
 741 0028 014054E2 		subs	r4, r4, #1
ARM GAS  /var/folders/3j/4xdnk5197cv_b7cw3n33qk7r0000gn/T//ccLoT9Qc.s 			page 14


 742              	.LVL96:
 743 002c 1000000A 		beq	.L72
 744              	.LVL97:
 745              	.L69:
 746              		.loc 1 192 0
 747 0030 07208DE2 		add	r2, sp, #7
 748 0034 8310A0E3 		mov	r1, #131
 749 0038 0600A0E1 		mov	r0, r6
 750              	.LVL98:
 751 003c FEFFFFEB 		bl	VL53L0X_RdByte
 752              	.LVL99:
 753              		.loc 1 193 0
 754 0040 0730DDE5 		ldrb	r3, [sp, #7]	@ zero_extendqisi2
 755              		.loc 1 192 0
 756 0044 0050A0E1 		mov	r5, r0
 757              	.LVL100:
 758              		.loc 1 193 0
 759 0048 033080E1 		orr	r3, r0, r3
 760 004c FF0013E3 		tst	r3, #255
 761 0050 F4FFFF0A 		beq	.L73
 762              	.LVL101:
 763              	.L68:
 764              		.loc 1 204 0
 765 0054 0600A0E1 		mov	r0, r6
 766 0058 0120A0E3 		mov	r2, #1
 767 005c 8310A0E3 		mov	r1, #131
 768 0060 FEFFFFEB 		bl	VL53L0X_WrByte
 769              	.LVL102:
 770 0064 000085E1 		orr	r0, r5, r0
 771              	.LVL103:
 772              		.loc 1 209 0
 773 0068 7000AFE6 		sxtb	r0, r0
 774 006c 08D08DE2 		add	sp, sp, #8
 775              		.cfi_remember_state
 776              		.cfi_def_cfa_offset 16
 777              		@ sp needed
 778 0070 7080BDE8 		pop	{r4, r5, r6, pc}
 779              	.LVL104:
 780              	.L72:
 781              		.cfi_restore_state
 782              		.loc 1 200 0
 783 0074 0650E0E3 		mvn	r5, #6
 784 0078 F5FFFFEA 		b	.L68
 785              		.cfi_endproc
 786              	.LFE9:
 787              		.size	VL53L0X_device_read_strobe, .-VL53L0X_device_read_strobe
 788              		.section	.text.VL53L0X_get_info_from_device,"ax",%progbits
 789              		.align	2
 790              		.global	VL53L0X_get_info_from_device
 791              		.syntax unified
 792              		.arm
 793              		.fpu softvfp
 794              		.type	VL53L0X_get_info_from_device, %function
 795              	VL53L0X_get_info_from_device:
 796              	.LFB10:
 797              		.loc 1 212 0
 798              		.cfi_startproc
ARM GAS  /var/folders/3j/4xdnk5197cv_b7cw3n33qk7r0000gn/T//ccLoT9Qc.s 			page 15


 799              		@ args = 0, pretend = 0, frame = 64
 800              		@ frame_needed = 0, uses_anonymous_args = 0
 801              	.LVL105:
 802 0000 F04F2DE9 		push	{r4, r5, r6, r7, r8, r9, r10, fp, lr}
 803              		.cfi_def_cfa_offset 36
 804              		.cfi_offset 4, -36
 805              		.cfi_offset 5, -32
 806              		.cfi_offset 6, -28
 807              		.cfi_offset 7, -24
 808              		.cfi_offset 8, -20
 809              		.cfi_offset 9, -16
 810              		.cfi_offset 10, -12
 811              		.cfi_offset 11, -8
 812              		.cfi_offset 14, -4
 813              		.loc 1 221 0
 814 0004 0090A0E3 		mov	r9, #0
 815              		.loc 1 238 0
 816 0008 F070D0E5 		ldrb	r7, [r0, #240]	@ zero_extendqisi2
 817              		.loc 1 212 0
 818 000c 44D04DE2 		sub	sp, sp, #68
 819              		.cfi_def_cfa_offset 104
 820              		.loc 1 243 0
 821 0010 070057E3 		cmp	r7, #7
 822              		.loc 1 221 0
 823 0014 1C908DE5 		str	r9, [sp, #28]
 824              		.loc 1 222 0
 825 0018 20908DE5 		str	r9, [sp, #32]
 826              	.LVL106:
 827              		.loc 1 214 0
 828 001c 0940A001 		moveq	r4, r9
 829              		.loc 1 243 0
 830 0020 0200001A 		bne	.L104
 831              	.LVL107:
 832              	.L75:
 833              		.loc 1 475 0
 834 0024 0400A0E1 		mov	r0, r4
 835 0028 44D08DE2 		add	sp, sp, #68
 836              		.cfi_remember_state
 837              		.cfi_def_cfa_offset 36
 838              		@ sp needed
 839 002c F08FBDE8 		pop	{r4, r5, r6, r7, r8, r9, r10, fp, pc}
 840              	.LVL108:
 841              	.L104:
 842              		.cfi_restore_state
 843 0030 0160A0E1 		mov	r6, r1
 844              		.loc 1 245 0
 845 0034 0120A0E3 		mov	r2, #1
 846 0038 8010A0E3 		mov	r1, #128
 847              	.LVL109:
 848 003c 0050A0E1 		mov	r5, r0
 849 0040 FEFFFFEB 		bl	VL53L0X_WrByte
 850              	.LVL110:
 851              		.loc 1 246 0
 852 0044 0120A0E3 		mov	r2, #1
 853              		.loc 1 245 0
 854 0048 0080A0E1 		mov	r8, r0
 855              	.LVL111:
ARM GAS  /var/folders/3j/4xdnk5197cv_b7cw3n33qk7r0000gn/T//ccLoT9Qc.s 			page 16


 856              		.loc 1 246 0
 857 004c FF10A0E3 		mov	r1, #255
 858 0050 0500A0E1 		mov	r0, r5
 859 0054 FEFFFFEB 		bl	VL53L0X_WrByte
 860              	.LVL112:
 861              		.loc 1 247 0
 862 0058 0920A0E1 		mov	r2, r9
 863              		.loc 1 246 0
 864 005c 008088E1 		orr	r8, r8, r0
 865              	.LVL113:
 866              		.loc 1 247 0
 867 0060 0910A0E1 		mov	r1, r9
 868 0064 0500A0E1 		mov	r0, r5
 869 0068 FEFFFFEB 		bl	VL53L0X_WrByte
 870              	.LVL114:
 871              		.loc 1 246 0
 872 006c 7880AFE6 		sxtb	r8, r8
 873              	.LVL115:
 874              		.loc 1 249 0
 875 0070 0620A0E3 		mov	r2, #6
 876              		.loc 1 247 0
 877 0074 008088E1 		orr	r8, r8, r0
 878              	.LVL116:
 879              		.loc 1 249 0
 880 0078 FF10A0E3 		mov	r1, #255
 881 007c 0500A0E1 		mov	r0, r5
 882 0080 FEFFFFEB 		bl	VL53L0X_WrByte
 883              	.LVL117:
 884              		.loc 1 247 0
 885 0084 7880AFE6 		sxtb	r8, r8
 886              	.LVL118:
 887              		.loc 1 249 0
 888 0088 008088E1 		orr	r8, r8, r0
 889              	.LVL119:
 890              		.loc 1 250 0
 891 008c 15208DE2 		add	r2, sp, #21
 892 0090 8310A0E3 		mov	r1, #131
 893 0094 0500A0E1 		mov	r0, r5
 894 0098 FEFFFFEB 		bl	VL53L0X_RdByte
 895              	.LVL120:
 896              		.loc 1 251 0
 897 009c 1520DDE5 		ldrb	r2, [sp, #21]	@ zero_extendqisi2
 898              		.loc 1 249 0
 899 00a0 7880AFE6 		sxtb	r8, r8
 900              	.LVL121:
 901              		.loc 1 250 0
 902 00a4 008088E1 		orr	r8, r8, r0
 903              	.LVL122:
 904              		.loc 1 251 0
 905 00a8 042082E3 		orr	r2, r2, #4
 906 00ac 8310A0E3 		mov	r1, #131
 907 00b0 0500A0E1 		mov	r0, r5
 908 00b4 FEFFFFEB 		bl	VL53L0X_WrByte
 909              	.LVL123:
 910              		.loc 1 250 0
 911 00b8 7880AFE6 		sxtb	r8, r8
 912              	.LVL124:
ARM GAS  /var/folders/3j/4xdnk5197cv_b7cw3n33qk7r0000gn/T//ccLoT9Qc.s 			page 17


 913              		.loc 1 252 0
 914 00bc 0720A0E3 		mov	r2, #7
 915              		.loc 1 251 0
 916 00c0 008088E1 		orr	r8, r8, r0
 917              	.LVL125:
 918              		.loc 1 252 0
 919 00c4 FF10A0E3 		mov	r1, #255
 920 00c8 0500A0E1 		mov	r0, r5
 921 00cc FEFFFFEB 		bl	VL53L0X_WrByte
 922              	.LVL126:
 923              		.loc 1 251 0
 924 00d0 7880AFE6 		sxtb	r8, r8
 925              	.LVL127:
 926              		.loc 1 253 0
 927 00d4 0120A0E3 		mov	r2, #1
 928 00d8 8110A0E3 		mov	r1, #129
 929              		.loc 1 252 0
 930 00dc 008088E1 		orr	r8, r8, r0
 931              	.LVL128:
 932              		.loc 1 253 0
 933 00e0 0500A0E1 		mov	r0, r5
 934 00e4 FEFFFFEB 		bl	VL53L0X_WrByte
 935              	.LVL129:
 936              		.loc 1 252 0
 937 00e8 7880AFE6 		sxtb	r8, r8
 938              	.LVL130:
 939              		.loc 1 253 0
 940 00ec 008088E1 		orr	r8, r8, r0
 941              	.LVL131:
 942              		.loc 1 255 0
 943 00f0 0500A0E1 		mov	r0, r5
 944 00f4 FEFFFFEB 		bl	VL53L0X_PollingDelay
 945              	.LVL132:
 946              		.loc 1 253 0
 947 00f8 7880AFE6 		sxtb	r8, r8
 948              	.LVL133:
 949              		.loc 1 255 0
 950 00fc 008088E1 		orr	r8, r8, r0
 951              	.LVL134:
 952              		.loc 1 257 0
 953 0100 0120A0E3 		mov	r2, #1
 954 0104 8010A0E3 		mov	r1, #128
 955 0108 0500A0E1 		mov	r0, r5
 956 010c FEFFFFEB 		bl	VL53L0X_WrByte
 957              	.LVL135:
 958              		.loc 1 255 0
 959 0110 7880AFE6 		sxtb	r8, r8
 960              	.LVL136:
 961              		.loc 1 259 0
 962 0114 01B016E2 		ands	fp, r6, #1
 963              		.loc 1 257 0
 964 0118 000088E1 		orr	r0, r8, r0
 965 011c 7040AFE6 		sxtb	r4, r0
 966              	.LVL137:
 967              		.loc 1 220 0
 968 0120 0CB08D05 		streq	fp, [sp, #12]
 969              		.loc 1 219 0
ARM GAS  /var/folders/3j/4xdnk5197cv_b7cw3n33qk7r0000gn/T//ccLoT9Qc.s 			page 18


 970 0124 08B08D05 		streq	fp, [sp, #8]
 971              		.loc 1 259 0
 972 0128 0400000A 		beq	.L76
 973              		.loc 1 259 0 is_stmt 0 discriminator 1
 974 012c 010017E3 		tst	r7, #1
 975              		.loc 1 220 0 is_stmt 1 discriminator 1
 976 0130 0930A011 		movne	r3, r9
 977 0134 0C308D15 		strne	r3, [sp, #12]
 978              		.loc 1 219 0 discriminator 1
 979 0138 08308D15 		strne	r3, [sp, #8]
 980              		.loc 1 259 0 discriminator 1
 981 013c 8401000A 		beq	.L105
 982              	.LVL138:
 983              	.L76:
 984              		.loc 1 291 0
 985 0140 023016E2 		ands	r3, r6, #2
 986 0144 04308DE5 		str	r3, [sp, #4]
 987 0148 0100000A 		beq	.L77
 988              		.loc 1 291 0 is_stmt 0 discriminator 1
 989 014c 028017E2 		ands	r8, r7, #2
 990 0150 DB00000A 		beq	.L106
 991              	.L77:
 992              		.loc 1 356 0 is_stmt 1
 993 0154 049016E2 		ands	r9, r6, #4
 994              		.loc 1 227 0
 995 0158 09A0A001 		moveq	r10, r9
 996              		.loc 1 226 0
 997 015c 0980A001 		moveq	r8, r9
 998              		.loc 1 356 0
 999 0160 0300000A 		beq	.L78
 1000              		.loc 1 356 0 is_stmt 0 discriminator 1
 1001 0164 040017E3 		tst	r7, #4
 1002              		.loc 1 227 0 is_stmt 1 discriminator 1
 1003 0168 00A0A013 		movne	r10, #0
 1004              		.loc 1 226 0 discriminator 1
 1005 016c 0A80A011 		movne	r8, r10
 1006              		.loc 1 356 0 discriminator 1
 1007 0170 6800000A 		beq	.L107
 1008              	.LVL139:
 1009              	.L78:
 1010              		.loc 1 396 0
 1011 0174 0020A0E3 		mov	r2, #0
 1012 0178 8110A0E3 		mov	r1, #129
 1013 017c 0500A0E1 		mov	r0, r5
 1014 0180 FEFFFFEB 		bl	VL53L0X_WrByte
 1015              	.LVL140:
 1016              		.loc 1 397 0
 1017 0184 0620A0E3 		mov	r2, #6
 1018              		.loc 1 396 0
 1019 0188 004084E1 		orr	r4, r4, r0
 1020              	.LVL141:
 1021              		.loc 1 397 0
 1022 018c FF10A0E3 		mov	r1, #255
 1023 0190 0500A0E1 		mov	r0, r5
 1024 0194 FEFFFFEB 		bl	VL53L0X_WrByte
 1025              	.LVL142:
 1026              		.loc 1 396 0
ARM GAS  /var/folders/3j/4xdnk5197cv_b7cw3n33qk7r0000gn/T//ccLoT9Qc.s 			page 19


 1027 0198 7440AFE6 		sxtb	r4, r4
 1028              	.LVL143:
 1029              		.loc 1 398 0
 1030 019c 15208DE2 		add	r2, sp, #21
 1031              		.loc 1 397 0
 1032 01a0 004084E1 		orr	r4, r4, r0
 1033              	.LVL144:
 1034              		.loc 1 398 0
 1035 01a4 8310A0E3 		mov	r1, #131
 1036 01a8 0500A0E1 		mov	r0, r5
 1037 01ac FEFFFFEB 		bl	VL53L0X_RdByte
 1038              	.LVL145:
 1039              		.loc 1 399 0
 1040 01b0 1520DDE5 		ldrb	r2, [sp, #21]	@ zero_extendqisi2
 1041              		.loc 1 397 0
 1042 01b4 7440AFE6 		sxtb	r4, r4
 1043              	.LVL146:
 1044              		.loc 1 398 0
 1045 01b8 004084E1 		orr	r4, r4, r0
 1046              	.LVL147:
 1047              		.loc 1 399 0
 1048 01bc FB2002E2 		and	r2, r2, #251
 1049 01c0 8310A0E3 		mov	r1, #131
 1050 01c4 0500A0E1 		mov	r0, r5
 1051 01c8 FEFFFFEB 		bl	VL53L0X_WrByte
 1052              	.LVL148:
 1053              		.loc 1 398 0
 1054 01cc 7440AFE6 		sxtb	r4, r4
 1055              	.LVL149:
 1056              		.loc 1 400 0
 1057 01d0 0120A0E3 		mov	r2, #1
 1058              		.loc 1 399 0
 1059 01d4 004084E1 		orr	r4, r4, r0
 1060              	.LVL150:
 1061              		.loc 1 400 0
 1062 01d8 FF10A0E3 		mov	r1, #255
 1063 01dc 0500A0E1 		mov	r0, r5
 1064 01e0 FEFFFFEB 		bl	VL53L0X_WrByte
 1065              	.LVL151:
 1066              		.loc 1 399 0
 1067 01e4 7440AFE6 		sxtb	r4, r4
 1068              	.LVL152:
 1069              		.loc 1 401 0
 1070 01e8 0120A0E3 		mov	r2, #1
 1071              		.loc 1 400 0
 1072 01ec 004084E1 		orr	r4, r4, r0
 1073              	.LVL153:
 1074              		.loc 1 401 0
 1075 01f0 0010A0E3 		mov	r1, #0
 1076 01f4 0500A0E1 		mov	r0, r5
 1077 01f8 FEFFFFEB 		bl	VL53L0X_WrByte
 1078              	.LVL154:
 1079              		.loc 1 400 0
 1080 01fc 7440AFE6 		sxtb	r4, r4
 1081              	.LVL155:
 1082              		.loc 1 403 0
 1083 0200 0020A0E3 		mov	r2, #0
ARM GAS  /var/folders/3j/4xdnk5197cv_b7cw3n33qk7r0000gn/T//ccLoT9Qc.s 			page 20


 1084              		.loc 1 401 0
 1085 0204 004084E1 		orr	r4, r4, r0
 1086              	.LVL156:
 1087              		.loc 1 403 0
 1088 0208 FF10A0E3 		mov	r1, #255
 1089 020c 0500A0E1 		mov	r0, r5
 1090 0210 FEFFFFEB 		bl	VL53L0X_WrByte
 1091              	.LVL157:
 1092              		.loc 1 401 0
 1093 0214 7440AFE6 		sxtb	r4, r4
 1094              	.LVL158:
 1095              		.loc 1 403 0
 1096 0218 004084E1 		orr	r4, r4, r0
 1097              	.LVL159:
 1098              		.loc 1 404 0
 1099 021c 0020A0E3 		mov	r2, #0
 1100 0220 8010A0E3 		mov	r1, #128
 1101 0224 0500A0E1 		mov	r0, r5
 1102 0228 FEFFFFEB 		bl	VL53L0X_WrByte
 1103              	.LVL160:
 1104              		.loc 1 403 0
 1105 022c 7440AFE6 		sxtb	r4, r4
 1106              	.LVL161:
 1107              		.loc 1 404 0
 1108 0230 004084E1 		orr	r4, r4, r0
 1109              	.LVL162:
 1110 0234 7440AFE6 		sxtb	r4, r4
 1111              	.LVL163:
 1112              		.loc 1 407 0
 1113 0238 000054E3 		cmp	r4, #0
 1114 023c 78FFFF1A 		bne	.L75
 1115              		.loc 1 410 0
 1116 0240 00005BE3 		cmp	fp, #0
 1117 0244 0D00000A 		beq	.L79
 1118              		.loc 1 410 0 is_stmt 0 discriminator 1
 1119 0248 010017E3 		tst	r7, #1
 1120 024c 0B00001A 		bne	.L79
 1121              		.loc 1 412 0 is_stmt 1
 1122 0250 08209DE5 		ldr	r2, [sp, #8]
 1123 0254 4A3F85E2 		add	r3, r5, #296
 1124 0258 1321C5E5 		strb	r2, [r5, #275]
 1125              		.loc 1 415 0
 1126 025c 0C209DE5 		ldr	r2, [sp, #12]
 1127 0260 023083E2 		add	r3, r3, #2
 1128 0264 1421C5E5 		strb	r2, [r5, #276]
 1129              	.LVL164:
 1130 0268 130E85E2 		add	r0, r5, #304
 1131 026c 23208DE2 		add	r2, sp, #35
 1132              	.LVL165:
 1133              	.L80:
 1134              		.loc 1 419 0 discriminator 3
 1135 0270 0110F2E5 		ldrb	r1, [r2, #1]!	@ zero_extendqisi2
 1136              	.LVL166:
 1137 0274 0110C3E4 		strb	r1, [r3], #1
 1138              	.LVL167:
 1139              		.loc 1 418 0 discriminator 3
 1140 0278 030050E1 		cmp	r0, r3
ARM GAS  /var/folders/3j/4xdnk5197cv_b7cw3n33qk7r0000gn/T//ccLoT9Qc.s 			page 21


 1141 027c FBFFFF1A 		bne	.L80
 1142              	.LVL168:
 1143              	.L79:
 1144              		.loc 1 424 0
 1145 0280 04309DE5 		ldr	r3, [sp, #4]
 1146 0284 000053E3 		cmp	r3, #0
 1147 0288 0100000A 		beq	.L81
 1148              		.loc 1 424 0 is_stmt 0 discriminator 1
 1149 028c 020017E3 		tst	r7, #2
 1150 0290 1800000A 		beq	.L108
 1151              	.L81:
 1152              		.loc 1 438 0 is_stmt 1
 1153 0294 000059E3 		cmp	r9, #0
 1154 0298 1100000A 		beq	.L82
 1155              		.loc 1 438 0 is_stmt 0 discriminator 1
 1156 029c 040017E3 		tst	r7, #4
 1157 02a0 0F00001A 		bne	.L82
 1158              		.loc 1 440 0 is_stmt 1
 1159 02a4 1C209DE5 		ldr	r2, [sp, #28]
 1160              		.loc 1 443 0
 1161 02a8 20309DE5 		ldr	r3, [sp, #32]
 1162              		.loc 1 446 0
 1163 02ac 8AA4A0E1 		lsl	r10, r10, #9
 1164              	.LVL169:
 1165              		.loc 1 455 0
 1166 02b0 000058E3 		cmp	r8, #0
 1167              		.loc 1 450 0
 1168 02b4 20A185E5 		str	r10, [r5, #288]
 1169              		.loc 1 440 0
 1170 02b8 182185E5 		str	r2, [r5, #280]
 1171              		.loc 1 443 0
 1172 02bc 1C3185E5 		str	r3, [r5, #284]
 1173              	.LVL170:
 1174              		.loc 1 455 0
 1175 02c0 0600000A 		beq	.L83
 1176              	.LVL171:
 1177              		.loc 1 456 0
 1178 02c4 198C48E2 		sub	r8, r8, #6400
 1179              	.LVL172:
 1180              		.loc 1 460 0
 1181 02c8 883268E0 		rsb	r3, r8, r8, lsl #5
 1182 02cc 038188E0 		add	r8, r8, r3, lsl #2
 1183              	.LVL173:
 1184 02d0 8881A0E1 		lsl	r8, r8, #3
 1185 02d4 2882A0E1 		lsr	r8, r8, #4
 1186              		.loc 1 461 0
 1187 02d8 008068E2 		rsb	r8, r8, #0
 1188 02dc 7880BFE6 		sxth	r8, r8
 1189              	.L83:
 1190              		.loc 1 464 0
 1191 02e0 0C8085E5 		str	r8, [r5, #12]
 1192              	.L82:
 1193              		.loc 1 475 0
 1194 02e4 0400A0E1 		mov	r0, r4
 1195              		.loc 1 468 0
 1196 02e8 066087E1 		orr	r6, r7, r6
 1197              		.loc 1 469 0
ARM GAS  /var/folders/3j/4xdnk5197cv_b7cw3n33qk7r0000gn/T//ccLoT9Qc.s 			page 22


 1198 02ec F060C5E5 		strb	r6, [r5, #240]
 1199              		.loc 1 475 0
 1200 02f0 44D08DE2 		add	sp, sp, #68
 1201              		.cfi_remember_state
 1202              		.cfi_def_cfa_offset 36
 1203              		@ sp needed
 1204 02f4 F08FBDE8 		pop	{r4, r5, r6, r7, r8, r9, r10, fp, pc}
 1205              	.LVL174:
 1206              	.L108:
 1207              		.cfi_restore_state
 1208              		.loc 1 426 0
 1209 02f8 1620DDE5 		ldrb	r2, [sp, #22]	@ zero_extendqisi2
 1210              		.loc 1 429 0
 1211 02fc 1730DDE5 		ldrb	r3, [sp, #23]	@ zero_extendqisi2
 1212              		.loc 1 426 0
 1213 0300 F120C5E5 		strb	r2, [r5, #241]
 1214              		.loc 1 429 0
 1215 0304 F230C5E5 		strb	r3, [r5, #242]
 1216              	.LVL175:
 1217              		.loc 1 434 0
 1218 0308 2C108DE2 		add	r1, sp, #44
 1219 030c F30085E2 		add	r0, r5, #243
 1220              	.LVL176:
 1221 0310 FEFFFFEB 		bl	strcpy
 1222              	.LVL177:
 1223 0314 DEFFFFEA 		b	.L81
 1224              	.LVL178:
 1225              	.L107:
 1226              		.loc 1 359 0
 1227 0318 7B20A0E3 		mov	r2, #123
 1228 031c 9410A0E3 		mov	r1, #148
 1229 0320 0500A0E1 		mov	r0, r5
 1230 0324 FEFFFFEB 		bl	VL53L0X_WrByte
 1231              	.LVL179:
 1232 0328 0080A0E1 		mov	r8, r0
 1233              	.LVL180:
 1234              		.loc 1 360 0
 1235 032c 0500A0E1 		mov	r0, r5
 1236 0330 FEFFFFEB 		bl	VL53L0X_device_read_strobe
 1237              	.LVL181:
 1238 0334 000088E1 		orr	r0, r8, r0
 1239 0338 004084E1 		orr	r4, r4, r0
 1240              	.LVL182:
 1241              		.loc 1 361 0
 1242 033c 1C208DE2 		add	r2, sp, #28
 1243 0340 9010A0E3 		mov	r1, #144
 1244 0344 0500A0E1 		mov	r0, r5
 1245 0348 FEFFFFEB 		bl	VL53L0X_RdDWord
 1246              	.LVL183:
 1247              		.loc 1 360 0
 1248 034c 7440AFE6 		sxtb	r4, r4
 1249              	.LVL184:
 1250              		.loc 1 363 0
 1251 0350 7C20A0E3 		mov	r2, #124
 1252 0354 9410A0E3 		mov	r1, #148
 1253              		.loc 1 361 0
 1254 0358 004084E1 		orr	r4, r4, r0
ARM GAS  /var/folders/3j/4xdnk5197cv_b7cw3n33qk7r0000gn/T//ccLoT9Qc.s 			page 23


 1255              	.LVL185:
 1256              		.loc 1 363 0
 1257 035c 0500A0E1 		mov	r0, r5
 1258 0360 FEFFFFEB 		bl	VL53L0X_WrByte
 1259              	.LVL186:
 1260              		.loc 1 361 0
 1261 0364 7440AFE6 		sxtb	r4, r4
 1262              	.LVL187:
 1263              		.loc 1 363 0
 1264 0368 004084E1 		orr	r4, r4, r0
 1265              	.LVL188:
 1266              		.loc 1 364 0
 1267 036c 0500A0E1 		mov	r0, r5
 1268 0370 FEFFFFEB 		bl	VL53L0X_device_read_strobe
 1269              	.LVL189:
 1270              		.loc 1 363 0
 1271 0374 7440AFE6 		sxtb	r4, r4
 1272              	.LVL190:
 1273              		.loc 1 365 0
 1274 0378 20208DE2 		add	r2, sp, #32
 1275              		.loc 1 364 0
 1276 037c 004084E1 		orr	r4, r4, r0
 1277              	.LVL191:
 1278              		.loc 1 365 0
 1279 0380 9010A0E3 		mov	r1, #144
 1280 0384 0500A0E1 		mov	r0, r5
 1281 0388 FEFFFFEB 		bl	VL53L0X_RdDWord
 1282              	.LVL192:
 1283              		.loc 1 364 0
 1284 038c 7440AFE6 		sxtb	r4, r4
 1285              	.LVL193:
 1286              		.loc 1 367 0
 1287 0390 7320A0E3 		mov	r2, #115
 1288 0394 9410A0E3 		mov	r1, #148
 1289              		.loc 1 365 0
 1290 0398 004084E1 		orr	r4, r4, r0
 1291              	.LVL194:
 1292              		.loc 1 367 0
 1293 039c 0500A0E1 		mov	r0, r5
 1294 03a0 FEFFFFEB 		bl	VL53L0X_WrByte
 1295              	.LVL195:
 1296              		.loc 1 365 0
 1297 03a4 7440AFE6 		sxtb	r4, r4
 1298              	.LVL196:
 1299              		.loc 1 367 0
 1300 03a8 004084E1 		orr	r4, r4, r0
 1301              	.LVL197:
 1302              		.loc 1 368 0
 1303 03ac 0500A0E1 		mov	r0, r5
 1304 03b0 FEFFFFEB 		bl	VL53L0X_device_read_strobe
 1305              	.LVL198:
 1306              		.loc 1 367 0
 1307 03b4 7440AFE6 		sxtb	r4, r4
 1308              	.LVL199:
 1309              		.loc 1 368 0
 1310 03b8 004084E1 		orr	r4, r4, r0
 1311              	.LVL200:
ARM GAS  /var/folders/3j/4xdnk5197cv_b7cw3n33qk7r0000gn/T//ccLoT9Qc.s 			page 24


 1312              		.loc 1 369 0
 1313 03bc 18208DE2 		add	r2, sp, #24
 1314 03c0 9010A0E3 		mov	r1, #144
 1315 03c4 0500A0E1 		mov	r0, r5
 1316 03c8 FEFFFFEB 		bl	VL53L0X_RdDWord
 1317              	.LVL201:
 1318              		.loc 1 368 0
 1319 03cc 7440AFE6 		sxtb	r4, r4
 1320              	.LVL202:
 1321              		.loc 1 374 0
 1322 03d0 7420A0E3 		mov	r2, #116
 1323 03d4 9410A0E3 		mov	r1, #148
 1324              		.loc 1 369 0
 1325 03d8 004084E1 		orr	r4, r4, r0
 1326              	.LVL203:
 1327              		.loc 1 374 0
 1328 03dc 0500A0E1 		mov	r0, r5
 1329              		.loc 1 372 0
 1330 03e0 18A09DE5 		ldr	r10, [sp, #24]
 1331              		.loc 1 374 0
 1332 03e4 FEFFFFEB 		bl	VL53L0X_WrByte
 1333              	.LVL204:
 1334              		.loc 1 369 0
 1335 03e8 7440AFE6 		sxtb	r4, r4
 1336              	.LVL205:
 1337              		.loc 1 374 0
 1338 03ec 004084E1 		orr	r4, r4, r0
 1339              	.LVL206:
 1340              		.loc 1 375 0
 1341 03f0 0500A0E1 		mov	r0, r5
 1342 03f4 FEFFFFEB 		bl	VL53L0X_device_read_strobe
 1343              	.LVL207:
 1344              		.loc 1 374 0
 1345 03f8 7440AFE6 		sxtb	r4, r4
 1346              		.loc 1 376 0
 1347 03fc 18208DE2 		add	r2, sp, #24
 1348              		.loc 1 375 0
 1349 0400 004084E1 		orr	r4, r4, r0
 1350              		.loc 1 376 0
 1351 0404 9010A0E3 		mov	r1, #144
 1352 0408 0500A0E1 		mov	r0, r5
 1353 040c FEFFFFEB 		bl	VL53L0X_RdDWord
 1354              	.LVL208:
 1355              		.loc 1 375 0
 1356 0410 7440AFE6 		sxtb	r4, r4
 1357              		.loc 1 381 0
 1358 0414 7520A0E3 		mov	r2, #117
 1359 0418 9410A0E3 		mov	r1, #148
 1360              		.loc 1 372 0
 1361 041c 0AA4A0E1 		lsl	r10, r10, #8
 1362              		.loc 1 376 0
 1363 0420 004084E1 		orr	r4, r4, r0
 1364              		.loc 1 381 0
 1365 0424 0500A0E1 		mov	r0, r5
 1366              		.loc 1 371 0
 1367 0428 7A80FFE6 		uxth	r8, r10
 1368              	.LVL209:
ARM GAS  /var/folders/3j/4xdnk5197cv_b7cw3n33qk7r0000gn/T//ccLoT9Qc.s 			page 25


 1369              		.loc 1 379 0
 1370 042c 1BA0DDE5 		ldrb	r10, [sp, #27]	@ zero_extendqisi2
 1371              		.loc 1 381 0
 1372 0430 FEFFFFEB 		bl	VL53L0X_WrByte
 1373              	.LVL210:
 1374              		.loc 1 376 0
 1375 0434 7440AFE6 		sxtb	r4, r4
 1376              	.LVL211:
 1377              		.loc 1 381 0
 1378 0438 004084E1 		orr	r4, r4, r0
 1379              	.LVL212:
 1380              		.loc 1 382 0
 1381 043c 0500A0E1 		mov	r0, r5
 1382 0440 FEFFFFEB 		bl	VL53L0X_device_read_strobe
 1383              	.LVL213:
 1384              		.loc 1 381 0
 1385 0444 7440AFE6 		sxtb	r4, r4
 1386              		.loc 1 383 0
 1387 0448 18208DE2 		add	r2, sp, #24
 1388              		.loc 1 382 0
 1389 044c 004084E1 		orr	r4, r4, r0
 1390              		.loc 1 383 0
 1391 0450 9010A0E3 		mov	r1, #144
 1392 0454 0500A0E1 		mov	r0, r5
 1393 0458 FEFFFFEB 		bl	VL53L0X_RdDWord
 1394              	.LVL214:
 1395              		.loc 1 382 0
 1396 045c 7440AFE6 		sxtb	r4, r4
 1397              		.loc 1 388 0
 1398 0460 7620A0E3 		mov	r2, #118
 1399 0464 9410A0E3 		mov	r1, #148
 1400              		.loc 1 383 0
 1401 0468 004084E1 		orr	r4, r4, r0
 1402              		.loc 1 388 0
 1403 046c 0500A0E1 		mov	r0, r5
 1404              		.loc 1 378 0
 1405 0470 08A08AE1 		orr	r10, r10, r8
 1406              	.LVL215:
 1407              		.loc 1 386 0
 1408 0474 18809DE5 		ldr	r8, [sp, #24]
 1409              		.loc 1 388 0
 1410 0478 FEFFFFEB 		bl	VL53L0X_WrByte
 1411              	.LVL216:
 1412              		.loc 1 383 0
 1413 047c 7440AFE6 		sxtb	r4, r4
 1414              	.LVL217:
 1415              		.loc 1 388 0
 1416 0480 004084E1 		orr	r4, r4, r0
 1417              	.LVL218:
 1418              		.loc 1 389 0
 1419 0484 0500A0E1 		mov	r0, r5
 1420 0488 FEFFFFEB 		bl	VL53L0X_device_read_strobe
 1421              	.LVL219:
 1422              		.loc 1 388 0
 1423 048c 7440AFE6 		sxtb	r4, r4
 1424              		.loc 1 390 0
 1425 0490 18208DE2 		add	r2, sp, #24
ARM GAS  /var/folders/3j/4xdnk5197cv_b7cw3n33qk7r0000gn/T//ccLoT9Qc.s 			page 26


 1426              		.loc 1 389 0
 1427 0494 004084E1 		orr	r4, r4, r0
 1428              		.loc 1 390 0
 1429 0498 9010A0E3 		mov	r1, #144
 1430 049c 0500A0E1 		mov	r0, r5
 1431 04a0 FEFFFFEB 		bl	VL53L0X_RdDWord
 1432              	.LVL220:
 1433              		.loc 1 386 0
 1434 04a4 0884A0E1 		lsl	r8, r8, #8
 1435              		.loc 1 389 0
 1436 04a8 7440AFE6 		sxtb	r4, r4
 1437              		.loc 1 393 0
 1438 04ac 1B20DDE5 		ldrb	r2, [sp, #27]	@ zero_extendqisi2
 1439              		.loc 1 385 0
 1440 04b0 7880FFE6 		uxth	r8, r8
 1441              	.LVL221:
 1442              		.loc 1 390 0
 1443 04b4 004084E1 		orr	r4, r4, r0
 1444              	.LVL222:
 1445 04b8 7440AFE6 		sxtb	r4, r4
 1446              	.LVL223:
 1447              		.loc 1 392 0
 1448 04bc 088082E1 		orr	r8, r2, r8
 1449              	.LVL224:
 1450 04c0 2BFFFFEA 		b	.L78
 1451              	.LVL225:
 1452              	.L106:
 1453              		.loc 1 294 0
 1454 04c4 0220A0E3 		mov	r2, #2
 1455 04c8 9410A0E3 		mov	r1, #148
 1456 04cc 0500A0E1 		mov	r0, r5
 1457 04d0 FEFFFFEB 		bl	VL53L0X_WrByte
 1458              	.LVL226:
 1459 04d4 0090A0E1 		mov	r9, r0
 1460              	.LVL227:
 1461              		.loc 1 295 0
 1462 04d8 0500A0E1 		mov	r0, r5
 1463 04dc FEFFFFEB 		bl	VL53L0X_device_read_strobe
 1464              	.LVL228:
 1465 04e0 000089E1 		orr	r0, r9, r0
 1466 04e4 004084E1 		orr	r4, r4, r0
 1467              	.LVL229:
 1468              		.loc 1 296 0
 1469 04e8 16208DE2 		add	r2, sp, #22
 1470 04ec 9010A0E3 		mov	r1, #144
 1471 04f0 0500A0E1 		mov	r0, r5
 1472 04f4 FEFFFFEB 		bl	VL53L0X_RdByte
 1473              	.LVL230:
 1474              		.loc 1 295 0
 1475 04f8 7440AFE6 		sxtb	r4, r4
 1476              	.LVL231:
 1477              		.loc 1 298 0
 1478 04fc 7B20A0E3 		mov	r2, #123
 1479 0500 9410A0E3 		mov	r1, #148
 1480              		.loc 1 296 0
 1481 0504 004084E1 		orr	r4, r4, r0
 1482              	.LVL232:
ARM GAS  /var/folders/3j/4xdnk5197cv_b7cw3n33qk7r0000gn/T//ccLoT9Qc.s 			page 27


 1483              		.loc 1 298 0
 1484 0508 0500A0E1 		mov	r0, r5
 1485 050c FEFFFFEB 		bl	VL53L0X_WrByte
 1486              	.LVL233:
 1487              		.loc 1 296 0
 1488 0510 7440AFE6 		sxtb	r4, r4
 1489              	.LVL234:
 1490              		.loc 1 298 0
 1491 0514 004084E1 		orr	r4, r4, r0
 1492              	.LVL235:
 1493              		.loc 1 299 0
 1494 0518 0500A0E1 		mov	r0, r5
 1495 051c FEFFFFEB 		bl	VL53L0X_device_read_strobe
 1496              	.LVL236:
 1497              		.loc 1 298 0
 1498 0520 7440AFE6 		sxtb	r4, r4
 1499              	.LVL237:
 1500              		.loc 1 300 0
 1501 0524 17208DE2 		add	r2, sp, #23
 1502              		.loc 1 299 0
 1503 0528 004084E1 		orr	r4, r4, r0
 1504              	.LVL238:
 1505              		.loc 1 300 0
 1506 052c 9010A0E3 		mov	r1, #144
 1507 0530 0500A0E1 		mov	r0, r5
 1508 0534 FEFFFFEB 		bl	VL53L0X_RdByte
 1509              	.LVL239:
 1510              		.loc 1 299 0
 1511 0538 7440AFE6 		sxtb	r4, r4
 1512              	.LVL240:
 1513              		.loc 1 302 0
 1514 053c 7720A0E3 		mov	r2, #119
 1515 0540 9410A0E3 		mov	r1, #148
 1516              		.loc 1 300 0
 1517 0544 004084E1 		orr	r4, r4, r0
 1518              	.LVL241:
 1519              		.loc 1 302 0
 1520 0548 0500A0E1 		mov	r0, r5
 1521 054c FEFFFFEB 		bl	VL53L0X_WrByte
 1522              	.LVL242:
 1523              		.loc 1 300 0
 1524 0550 7440AFE6 		sxtb	r4, r4
 1525              	.LVL243:
 1526              		.loc 1 302 0
 1527 0554 004084E1 		orr	r4, r4, r0
 1528              	.LVL244:
 1529              		.loc 1 303 0
 1530 0558 0500A0E1 		mov	r0, r5
 1531 055c FEFFFFEB 		bl	VL53L0X_device_read_strobe
 1532              	.LVL245:
 1533              		.loc 1 302 0
 1534 0560 7440AFE6 		sxtb	r4, r4
 1535              	.LVL246:
 1536              		.loc 1 303 0
 1537 0564 004084E1 		orr	r4, r4, r0
 1538              	.LVL247:
 1539              		.loc 1 304 0
ARM GAS  /var/folders/3j/4xdnk5197cv_b7cw3n33qk7r0000gn/T//ccLoT9Qc.s 			page 28


 1540 0568 18208DE2 		add	r2, sp, #24
 1541 056c 9010A0E3 		mov	r1, #144
 1542 0570 0500A0E1 		mov	r0, r5
 1543 0574 FEFFFFEB 		bl	VL53L0X_RdDWord
 1544              	.LVL248:
 1545              		.loc 1 306 0
 1546 0578 18209DE5 		ldr	r2, [sp, #24]
 1547              		.loc 1 303 0
 1548 057c 7440AFE6 		sxtb	r4, r4
 1549              	.LVL249:
 1550              		.loc 1 304 0
 1551 0580 004084E1 		orr	r4, r4, r0
 1552              	.LVL250:
 1553              		.loc 1 307 0
 1554 0584 22C9A0E1 		lsr	ip, r2, #18
 1555              		.loc 1 309 0
 1556 0588 2212A0E1 		lsr	r1, r2, #4
 1557              		.loc 1 311 0
 1558 058c 8201A0E1 		lsl	r0, r2, #3
 1559              		.loc 1 308 0
 1560 0590 A2E5A0E1 		lsr	lr, r2, #11
 1561              		.loc 1 307 0
 1562 0594 7FC00CE2 		and	ip, ip, #127
 1563              		.loc 1 309 0
 1564 0598 7F1001E2 		and	r1, r1, #127
 1565              		.loc 1 311 0
 1566 059c 780000E2 		and	r0, r0, #120
 1567              		.loc 1 308 0
 1568 05a0 7FE00EE2 		and	lr, lr, #127
 1569              		.loc 1 307 0
 1570 05a4 2DC0CDE5 		strb	ip, [sp, #45]
 1571              		.loc 1 309 0
 1572 05a8 2F10CDE5 		strb	r1, [sp, #47]
 1573              		.loc 1 306 0
 1574 05ac A2CCA0E1 		lsr	ip, r2, #25
 1575              		.loc 1 313 0
 1576 05b0 9410A0E3 		mov	r1, #148
 1577 05b4 7820A0E3 		mov	r2, #120
 1578              		.loc 1 311 0
 1579 05b8 1500CDE5 		strb	r0, [sp, #21]
 1580              		.loc 1 313 0
 1581 05bc 0500A0E1 		mov	r0, r5
 1582              		.loc 1 308 0
 1583 05c0 2EE0CDE5 		strb	lr, [sp, #46]
 1584              		.loc 1 306 0
 1585 05c4 2CC0CDE5 		strb	ip, [sp, #44]
 1586              		.loc 1 313 0
 1587 05c8 FEFFFFEB 		bl	VL53L0X_WrByte
 1588              	.LVL251:
 1589              		.loc 1 304 0
 1590 05cc 7440AFE6 		sxtb	r4, r4
 1591              	.LVL252:
 1592              		.loc 1 313 0
 1593 05d0 004084E1 		orr	r4, r4, r0
 1594              	.LVL253:
 1595              		.loc 1 314 0
 1596 05d4 0500A0E1 		mov	r0, r5
ARM GAS  /var/folders/3j/4xdnk5197cv_b7cw3n33qk7r0000gn/T//ccLoT9Qc.s 			page 29


 1597 05d8 FEFFFFEB 		bl	VL53L0X_device_read_strobe
 1598              	.LVL254:
 1599              		.loc 1 313 0
 1600 05dc 7440AFE6 		sxtb	r4, r4
 1601              	.LVL255:
 1602              		.loc 1 315 0
 1603 05e0 18208DE2 		add	r2, sp, #24
 1604              		.loc 1 314 0
 1605 05e4 004084E1 		orr	r4, r4, r0
 1606              	.LVL256:
 1607              		.loc 1 315 0
 1608 05e8 9010A0E3 		mov	r1, #144
 1609 05ec 0500A0E1 		mov	r0, r5
 1610 05f0 FEFFFFEB 		bl	VL53L0X_RdDWord
 1611              	.LVL257:
 1612              		.loc 1 318 0
 1613 05f4 18209DE5 		ldr	r2, [sp, #24]
 1614              		.loc 1 317 0
 1615 05f8 15C0DDE5 		ldrb	ip, [sp, #21]	@ zero_extendqisi2
 1616              		.loc 1 319 0
 1617 05fc 22EBA0E1 		lsr	lr, r2, #22
 1618              		.loc 1 320 0
 1619 0600 A217A0E1 		lsr	r1, r2, #15
 1620              		.loc 1 319 0
 1621 0604 7FE00EE2 		and	lr, lr, #127
 1622              		.loc 1 320 0
 1623 0608 7F1001E2 		and	r1, r1, #127
 1624              		.loc 1 317 0
 1625 060c A2CE8CE0 		add	ip, ip, r2, lsr #29
 1626              		.loc 1 319 0
 1627 0610 31E0CDE5 		strb	lr, [sp, #49]
 1628              		.loc 1 320 0
 1629 0614 3210CDE5 		strb	r1, [sp, #50]
 1630              		.loc 1 321 0
 1631 0618 22E4A0E1 		lsr	lr, r2, #8
 1632              		.loc 1 322 0
 1633 061c A210A0E1 		lsr	r1, r2, #1
 1634              		.loc 1 314 0
 1635 0620 7440AFE6 		sxtb	r4, r4
 1636              	.LVL258:
 1637              		.loc 1 324 0
 1638 0624 0223A0E1 		lsl	r2, r2, #6
 1639              		.loc 1 315 0
 1640 0628 004084E1 		orr	r4, r4, r0
 1641              	.LVL259:
 1642              		.loc 1 322 0
 1643 062c 7F1001E2 		and	r1, r1, #127
 1644              		.loc 1 324 0
 1645 0630 400002E2 		and	r0, r2, #64
 1646              		.loc 1 321 0
 1647 0634 7FE00EE2 		and	lr, lr, #127
 1648              		.loc 1 326 0
 1649 0638 7920A0E3 		mov	r2, #121
 1650              		.loc 1 322 0
 1651 063c 3410CDE5 		strb	r1, [sp, #52]
 1652              		.loc 1 324 0
 1653 0640 1500CDE5 		strb	r0, [sp, #21]
ARM GAS  /var/folders/3j/4xdnk5197cv_b7cw3n33qk7r0000gn/T//ccLoT9Qc.s 			page 30


 1654              		.loc 1 326 0
 1655 0644 9410A0E3 		mov	r1, #148
 1656 0648 0500A0E1 		mov	r0, r5
 1657              		.loc 1 321 0
 1658 064c 33E0CDE5 		strb	lr, [sp, #51]
 1659              		.loc 1 317 0
 1660 0650 30C0CDE5 		strb	ip, [sp, #48]
 1661              		.loc 1 326 0
 1662 0654 FEFFFFEB 		bl	VL53L0X_WrByte
 1663              	.LVL260:
 1664              		.loc 1 315 0
 1665 0658 7440AFE6 		sxtb	r4, r4
 1666              	.LVL261:
 1667              		.loc 1 326 0
 1668 065c 004084E1 		orr	r4, r4, r0
 1669              	.LVL262:
 1670              		.loc 1 328 0
 1671 0660 0500A0E1 		mov	r0, r5
 1672 0664 FEFFFFEB 		bl	VL53L0X_device_read_strobe
 1673              	.LVL263:
 1674              		.loc 1 326 0
 1675 0668 7440AFE6 		sxtb	r4, r4
 1676              	.LVL264:
 1677              		.loc 1 330 0
 1678 066c 18208DE2 		add	r2, sp, #24
 1679              		.loc 1 328 0
 1680 0670 004084E1 		orr	r4, r4, r0
 1681              	.LVL265:
 1682              		.loc 1 330 0
 1683 0674 9010A0E3 		mov	r1, #144
 1684 0678 0500A0E1 		mov	r0, r5
 1685 067c FEFFFFEB 		bl	VL53L0X_RdDWord
 1686              	.LVL266:
 1687              		.loc 1 333 0
 1688 0680 18209DE5 		ldr	r2, [sp, #24]
 1689              		.loc 1 332 0
 1690 0684 15C0DDE5 		ldrb	ip, [sp, #21]	@ zero_extendqisi2
 1691              		.loc 1 334 0
 1692 0688 A219A0E1 		lsr	r1, r2, #19
 1693 068c 7F1001E2 		and	r1, r1, #127
 1694              		.loc 1 332 0
 1695 0690 22CD8CE0 		add	ip, ip, r2, lsr #26
 1696              		.loc 1 335 0
 1697 0694 22E6A0E1 		lsr	lr, r2, #12
 1698              		.loc 1 334 0
 1699 0698 3610CDE5 		strb	r1, [sp, #54]
 1700              		.loc 1 328 0
 1701 069c 7440AFE6 		sxtb	r4, r4
 1702              	.LVL267:
 1703              		.loc 1 336 0
 1704 06a0 A212A0E1 		lsr	r1, r2, #5
 1705              		.loc 1 338 0
 1706 06a4 0221A0E1 		lsl	r2, r2, #2
 1707              		.loc 1 330 0
 1708 06a8 004084E1 		orr	r4, r4, r0
 1709              	.LVL268:
 1710              		.loc 1 336 0
ARM GAS  /var/folders/3j/4xdnk5197cv_b7cw3n33qk7r0000gn/T//ccLoT9Qc.s 			page 31


 1711 06ac 7F1001E2 		and	r1, r1, #127
 1712              		.loc 1 338 0
 1713 06b0 7C0002E2 		and	r0, r2, #124
 1714              		.loc 1 335 0
 1715 06b4 7FE00EE2 		and	lr, lr, #127
 1716              		.loc 1 340 0
 1717 06b8 7A20A0E3 		mov	r2, #122
 1718              		.loc 1 336 0
 1719 06bc 3810CDE5 		strb	r1, [sp, #56]
 1720              		.loc 1 338 0
 1721 06c0 1500CDE5 		strb	r0, [sp, #21]
 1722              		.loc 1 340 0
 1723 06c4 9410A0E3 		mov	r1, #148
 1724 06c8 0500A0E1 		mov	r0, r5
 1725              		.loc 1 335 0
 1726 06cc 37E0CDE5 		strb	lr, [sp, #55]
 1727              		.loc 1 332 0
 1728 06d0 35C0CDE5 		strb	ip, [sp, #53]
 1729              		.loc 1 340 0
 1730 06d4 FEFFFFEB 		bl	VL53L0X_WrByte
 1731              	.LVL269:
 1732              		.loc 1 330 0
 1733 06d8 7440AFE6 		sxtb	r4, r4
 1734              	.LVL270:
 1735              		.loc 1 340 0
 1736 06dc 004084E1 		orr	r4, r4, r0
 1737              	.LVL271:
 1738              		.loc 1 342 0
 1739 06e0 0500A0E1 		mov	r0, r5
 1740 06e4 FEFFFFEB 		bl	VL53L0X_device_read_strobe
 1741              	.LVL272:
 1742              		.loc 1 340 0
 1743 06e8 7440AFE6 		sxtb	r4, r4
 1744              	.LVL273:
 1745              		.loc 1 344 0
 1746 06ec 18208DE2 		add	r2, sp, #24
 1747              		.loc 1 342 0
 1748 06f0 004084E1 		orr	r4, r4, r0
 1749              	.LVL274:
 1750              		.loc 1 344 0
 1751 06f4 9010A0E3 		mov	r1, #144
 1752 06f8 0500A0E1 		mov	r0, r5
 1753 06fc FEFFFFEB 		bl	VL53L0X_RdDWord
 1754              	.LVL275:
 1755              		.loc 1 347 0
 1756 0700 18209DE5 		ldr	r2, [sp, #24]
 1757              		.loc 1 346 0
 1758 0704 1510DDE5 		ldrb	r1, [sp, #21]	@ zero_extendqisi2
 1759              		.loc 1 348 0
 1760 0708 A29BA0E1 		lsr	r9, r2, #23
 1761              		.loc 1 349 0
 1762 070c 22E8A0E1 		lsr	lr, r2, #16
 1763              		.loc 1 350 0
 1764 0710 A2C4A0E1 		lsr	ip, r2, #9
 1765              		.loc 1 346 0
 1766 0714 221F81E0 		add	r1, r1, r2, lsr #30
 1767              		.loc 1 342 0
ARM GAS  /var/folders/3j/4xdnk5197cv_b7cw3n33qk7r0000gn/T//ccLoT9Qc.s 			page 32


 1768 0718 7440AFE6 		sxtb	r4, r4
 1769              	.LVL276:
 1770              		.loc 1 351 0
 1771 071c 2221A0E1 		lsr	r2, r2, #2
 1772              		.loc 1 344 0
 1773 0720 004084E1 		orr	r4, r4, r0
 1774              	.LVL277:
 1775              		.loc 1 348 0
 1776 0724 7F9009E2 		and	r9, r9, #127
 1777              		.loc 1 349 0
 1778 0728 7FE00EE2 		and	lr, lr, #127
 1779              		.loc 1 350 0
 1780 072c 7FC00CE2 		and	ip, ip, #127
 1781              		.loc 1 351 0
 1782 0730 7F2002E2 		and	r2, r2, #127
 1783              		.loc 1 344 0
 1784 0734 7440AFE6 		sxtb	r4, r4
 1785              	.LVL278:
 1786              		.loc 1 352 0
 1787 0738 3E80CDE5 		strb	r8, [sp, #62]
 1788              		.loc 1 348 0
 1789 073c 3A90CDE5 		strb	r9, [sp, #58]
 1790              		.loc 1 349 0
 1791 0740 3BE0CDE5 		strb	lr, [sp, #59]
 1792              		.loc 1 350 0
 1793 0744 3CC0CDE5 		strb	ip, [sp, #60]
 1794              		.loc 1 351 0
 1795 0748 3D20CDE5 		strb	r2, [sp, #61]
 1796              		.loc 1 346 0
 1797 074c 3910CDE5 		strb	r1, [sp, #57]
 1798 0750 7FFEFFEA 		b	.L77
 1799              	.LVL279:
 1800              	.L105:
 1801              		.loc 1 261 0
 1802 0754 6B20A0E3 		mov	r2, #107
 1803 0758 9410A0E3 		mov	r1, #148
 1804 075c 0500A0E1 		mov	r0, r5
 1805 0760 FEFFFFEB 		bl	VL53L0X_WrByte
 1806              	.LVL280:
 1807 0764 0080A0E1 		mov	r8, r0
 1808              	.LVL281:
 1809              		.loc 1 262 0
 1810 0768 0500A0E1 		mov	r0, r5
 1811 076c FEFFFFEB 		bl	VL53L0X_device_read_strobe
 1812              	.LVL282:
 1813 0770 000088E1 		orr	r0, r8, r0
 1814 0774 004084E1 		orr	r4, r4, r0
 1815              	.LVL283:
 1816              		.loc 1 263 0
 1817 0778 18208DE2 		add	r2, sp, #24
 1818 077c 9010A0E3 		mov	r1, #144
 1819 0780 0500A0E1 		mov	r0, r5
 1820 0784 FEFFFFEB 		bl	VL53L0X_RdDWord
 1821              	.LVL284:
 1822              		.loc 1 265 0
 1823 0788 18209DE5 		ldr	r2, [sp, #24]
 1824              		.loc 1 262 0
ARM GAS  /var/folders/3j/4xdnk5197cv_b7cw3n33qk7r0000gn/T//ccLoT9Qc.s 			page 33


 1825 078c 7440AFE6 		sxtb	r4, r4
 1826              	.LVL285:
 1827              		.loc 1 265 0
 1828 0790 22E4A0E1 		lsr	lr, r2, #8
 1829              		.loc 1 266 0
 1830 0794 A2C7A0E1 		lsr	ip, r2, #15
 1831              		.loc 1 265 0
 1832 0798 7F300EE2 		and	r3, lr, #127
 1833              		.loc 1 268 0
 1834 079c 2420A0E3 		mov	r2, #36
 1835 07a0 9410A0E3 		mov	r1, #148
 1836              		.loc 1 263 0
 1837 07a4 004084E1 		orr	r4, r4, r0
 1838              	.LVL286:
 1839              		.loc 1 265 0
 1840 07a8 08308DE5 		str	r3, [sp, #8]
 1841              		.loc 1 268 0
 1842 07ac 0500A0E1 		mov	r0, r5
 1843              		.loc 1 266 0
 1844 07b0 01300CE2 		and	r3, ip, #1
 1845 07b4 0C308DE5 		str	r3, [sp, #12]
 1846              		.loc 1 268 0
 1847 07b8 FEFFFFEB 		bl	VL53L0X_WrByte
 1848              	.LVL287:
 1849              		.loc 1 263 0
 1850 07bc 7440AFE6 		sxtb	r4, r4
 1851              	.LVL288:
 1852              		.loc 1 268 0
 1853 07c0 004084E1 		orr	r4, r4, r0
 1854              	.LVL289:
 1855              		.loc 1 269 0
 1856 07c4 0500A0E1 		mov	r0, r5
 1857 07c8 FEFFFFEB 		bl	VL53L0X_device_read_strobe
 1858              	.LVL290:
 1859              		.loc 1 268 0
 1860 07cc 7440AFE6 		sxtb	r4, r4
 1861              	.LVL291:
 1862              		.loc 1 270 0
 1863 07d0 18208DE2 		add	r2, sp, #24
 1864              		.loc 1 269 0
 1865 07d4 004084E1 		orr	r4, r4, r0
 1866              	.LVL292:
 1867              		.loc 1 270 0
 1868 07d8 9010A0E3 		mov	r1, #144
 1869 07dc 0500A0E1 		mov	r0, r5
 1870 07e0 FEFFFFEB 		bl	VL53L0X_RdDWord
 1871              	.LVL293:
 1872              		.loc 1 273 0
 1873 07e4 18209DE5 		ldr	r2, [sp, #24]
 1874              		.loc 1 269 0
 1875 07e8 7440AFE6 		sxtb	r4, r4
 1876              	.LVL294:
 1877              		.loc 1 273 0
 1878 07ec 221CA0E1 		lsr	r1, r2, #24
 1879              		.loc 1 275 0
 1880 07f0 22E8A0E1 		lsr	lr, r2, #16
 1881              		.loc 1 277 0
ARM GAS  /var/folders/3j/4xdnk5197cv_b7cw3n33qk7r0000gn/T//ccLoT9Qc.s 			page 34


 1882 07f4 22C4A0E1 		lsr	ip, r2, #8
 1883              		.loc 1 270 0
 1884 07f8 004084E1 		orr	r4, r4, r0
 1885              	.LVL295:
 1886              		.loc 1 279 0
 1887 07fc 2720CDE5 		strb	r2, [sp, #39]
 1888              		.loc 1 273 0
 1889 0800 2410CDE5 		strb	r1, [sp, #36]
 1890              		.loc 1 281 0
 1891 0804 2520A0E3 		mov	r2, #37
 1892 0808 9410A0E3 		mov	r1, #148
 1893 080c 0500A0E1 		mov	r0, r5
 1894              		.loc 1 275 0
 1895 0810 25E0CDE5 		strb	lr, [sp, #37]
 1896              		.loc 1 277 0
 1897 0814 26C0CDE5 		strb	ip, [sp, #38]
 1898              		.loc 1 281 0
 1899 0818 FEFFFFEB 		bl	VL53L0X_WrByte
 1900              	.LVL296:
 1901              		.loc 1 270 0
 1902 081c 7440AFE6 		sxtb	r4, r4
 1903              	.LVL297:
 1904              		.loc 1 281 0
 1905 0820 004084E1 		orr	r4, r4, r0
 1906              	.LVL298:
 1907              		.loc 1 282 0
 1908 0824 0500A0E1 		mov	r0, r5
 1909 0828 FEFFFFEB 		bl	VL53L0X_device_read_strobe
 1910              	.LVL299:
 1911              		.loc 1 281 0
 1912 082c 7440AFE6 		sxtb	r4, r4
 1913              	.LVL300:
 1914              		.loc 1 283 0
 1915 0830 18208DE2 		add	r2, sp, #24
 1916              		.loc 1 282 0
 1917 0834 004084E1 		orr	r4, r4, r0
 1918              	.LVL301:
 1919              		.loc 1 283 0
 1920 0838 9010A0E3 		mov	r1, #144
 1921 083c 0500A0E1 		mov	r0, r5
 1922 0840 FEFFFFEB 		bl	VL53L0X_RdDWord
 1923              	.LVL302:
 1924              		.loc 1 285 0
 1925 0844 18209DE5 		ldr	r2, [sp, #24]
 1926              		.loc 1 282 0
 1927 0848 7440AFE6 		sxtb	r4, r4
 1928              	.LVL303:
 1929              		.loc 1 285 0
 1930 084c 221CA0E1 		lsr	r1, r2, #24
 1931              		.loc 1 283 0
 1932 0850 004084E1 		orr	r4, r4, r0
 1933              	.LVL304:
 1934              		.loc 1 287 0
 1935 0854 2228A0E1 		lsr	r2, r2, #16
 1936              		.loc 1 283 0
 1937 0858 7440AFE6 		sxtb	r4, r4
 1938              	.LVL305:
ARM GAS  /var/folders/3j/4xdnk5197cv_b7cw3n33qk7r0000gn/T//ccLoT9Qc.s 			page 35


 1939              		.loc 1 285 0
 1940 085c 2810CDE5 		strb	r1, [sp, #40]
 1941              		.loc 1 287 0
 1942 0860 2920CDE5 		strb	r2, [sp, #41]
 1943 0864 35FEFFEA 		b	.L76
 1944              		.cfi_endproc
 1945              	.LFE10:
 1946              		.size	VL53L0X_get_info_from_device, .-VL53L0X_get_info_from_device
 1947              		.section	.text.VL53L0X_calc_macro_period_ps,"ax",%progbits
 1948              		.align	2
 1949              		.global	VL53L0X_calc_macro_period_ps
 1950              		.syntax unified
 1951              		.arm
 1952              		.fpu softvfp
 1953              		.type	VL53L0X_calc_macro_period_ps, %function
 1954              	VL53L0X_calc_macro_period_ps:
 1955              	.LFB11:
 1956              		.loc 1 479 0
 1957              		.cfi_startproc
 1958              		@ args = 0, pretend = 0, frame = 0
 1959              		@ frame_needed = 0, uses_anonymous_args = 0
 1960              		@ link register save eliminated.
 1961              	.LVL306:
 1962              		.loc 1 492 0
 1963 0000 810261E0 		rsb	r0, r1, r1, lsl #5
 1964              	.LVL307:
 1965 0004 801281E0 		add	r1, r1, r0, lsl #5
 1966              	.LVL308:
 1967 0008 011261E0 		rsb	r1, r1, r1, lsl #4
 1968              		.loc 1 497 0
 1969 000c 0104A0E1 		lsl	r0, r1, #8
 1970 0010 1EFF2FE1 		bx	lr
 1971              		.cfi_endproc
 1972              	.LFE11:
 1973              		.size	VL53L0X_calc_macro_period_ps, .-VL53L0X_calc_macro_period_ps
 1974              		.section	.text.VL53L0X_encode_timeout,"ax",%progbits
 1975              		.align	2
 1976              		.global	VL53L0X_encode_timeout
 1977              		.syntax unified
 1978              		.arm
 1979              		.fpu softvfp
 1980              		.type	VL53L0X_encode_timeout, %function
 1981              	VL53L0X_encode_timeout:
 1982              	.LFB12:
 1983              		.loc 1 500 0
 1984              		.cfi_startproc
 1985              		@ args = 0, pretend = 0, frame = 0
 1986              		@ frame_needed = 0, uses_anonymous_args = 0
 1987              		@ link register save eliminated.
 1988              	.LVL309:
 1989              		.loc 1 509 0
 1990 0000 000050E3 		cmp	r0, #0
 1991 0004 1EFF2F01 		bxeq	lr
 1992 0008 FEFFFFEA 		b	VL53L0X_encode_timeout.part.0
 1993              	.LVL310:
 1994              		.cfi_endproc
 1995              	.LFE12:
ARM GAS  /var/folders/3j/4xdnk5197cv_b7cw3n33qk7r0000gn/T//ccLoT9Qc.s 			page 36


 1996              		.size	VL53L0X_encode_timeout, .-VL53L0X_encode_timeout
 1997              		.section	.text.VL53L0X_decode_timeout,"ax",%progbits
 1998              		.align	2
 1999              		.global	VL53L0X_decode_timeout
 2000              		.syntax unified
 2001              		.arm
 2002              		.fpu softvfp
 2003              		.type	VL53L0X_decode_timeout, %function
 2004              	VL53L0X_decode_timeout:
 2005              	.LFB13:
 2006              		.loc 1 526 0
 2007              		.cfi_startproc
 2008              		@ args = 0, pretend = 0, frame = 0
 2009              		@ frame_needed = 0, uses_anonymous_args = 0
 2010              		@ link register save eliminated.
 2011              	.LVL311:
 2012              		.loc 1 533 0
 2013 0000 7030EFE6 		uxtb	r3, r0
 2014              		.loc 1 534 0
 2015 0004 2004A0E1 		lsr	r0, r0, #8
 2016              	.LVL312:
 2017 0008 1300A0E1 		lsl	r0, r3, r0
 2018              		.loc 1 537 0
 2019 000c 010080E2 		add	r0, r0, #1
 2020 0010 1EFF2FE1 		bx	lr
 2021              		.cfi_endproc
 2022              	.LFE13:
 2023              		.size	VL53L0X_decode_timeout, .-VL53L0X_decode_timeout
 2024              		.section	.text.VL53L0X_calc_timeout_mclks,"ax",%progbits
 2025              		.align	2
 2026              		.global	VL53L0X_calc_timeout_mclks
 2027              		.syntax unified
 2028              		.arm
 2029              		.fpu softvfp
 2030              		.type	VL53L0X_calc_timeout_mclks, %function
 2031              	VL53L0X_calc_timeout_mclks:
 2032              	.LFB14:
 2033              		.loc 1 544 0
 2034              		.cfi_startproc
 2035              		@ args = 0, pretend = 0, frame = 0
 2036              		@ frame_needed = 0, uses_anonymous_args = 0
 2037              	.LVL313:
 2038              	.LBB136:
 2039              	.LBB137:
 2040              		.loc 1 492 0
 2041 0000 823262E0 		rsb	r3, r2, r2, lsl #5
 2042 0004 832282E0 		add	r2, r2, r3, lsl #5
 2043              	.LVL314:
 2044 0008 022262E0 		rsb	r2, r2, r2, lsl #4
 2045              	.LBE137:
 2046              	.LBE136:
 2047              		.loc 1 554 0
 2048 000c 28309FE5 		ldr	r3, .L115
 2049              	.LBB139:
 2050              	.LBB138:
 2051              		.loc 1 492 0
 2052 0010 0224A0E1 		lsl	r2, r2, #8
ARM GAS  /var/folders/3j/4xdnk5197cv_b7cw3n33qk7r0000gn/T//ccLoT9Qc.s 			page 37


 2053              	.LBE138:
 2054              	.LBE139:
 2055              		.loc 1 550 0
 2056 0014 7D2F82E2 		add	r2, r2, #500
 2057              	.LVL315:
 2058              		.loc 1 544 0
 2059 0018 70402DE9 		push	{r4, r5, r6, lr}
 2060              		.cfi_def_cfa_offset 16
 2061              		.cfi_offset 4, -16
 2062              		.cfi_offset 5, -12
 2063              		.cfi_offset 6, -8
 2064              		.cfi_offset 14, -4
 2065              		.loc 1 554 0
 2066 001c 924385E0 		umull	r4, r5, r2, r3
 2067              		.loc 1 553 0
 2068 0020 812261E0 		rsb	r2, r1, r1, lsl #5
 2069              	.LVL316:
 2070 0024 021181E0 		add	r1, r1, r2, lsl #2
 2071              	.LVL317:
 2072              		.loc 1 554 0
 2073 0028 A503A0E1 		lsr	r0, r5, #7
 2074              	.LVL318:
 2075              		.loc 1 552 0
 2076 002c 810180E0 		add	r0, r0, r1, lsl #3
 2077 0030 2513A0E1 		lsr	r1, r5, #6
 2078 0034 FEFFFFEB 		bl	__aeabi_uidiv
 2079              	.LVL319:
 2080              		.loc 1 557 0
 2081 0038 7080BDE8 		pop	{r4, r5, r6, pc}
 2082              	.L116:
 2083              		.align	2
 2084              	.L115:
 2085 003c D34D6210 		.word	274877907
 2086              		.cfi_endproc
 2087              	.LFE14:
 2088              		.size	VL53L0X_calc_timeout_mclks, .-VL53L0X_calc_timeout_mclks
 2089              		.section	.text.VL53L0X_calc_timeout_us,"ax",%progbits
 2090              		.align	2
 2091              		.global	VL53L0X_calc_timeout_us
 2092              		.syntax unified
 2093              		.arm
 2094              		.fpu softvfp
 2095              		.type	VL53L0X_calc_timeout_us, %function
 2096              	VL53L0X_calc_timeout_us:
 2097              	.LFB15:
 2098              		.loc 1 563 0
 2099              		.cfi_startproc
 2100              		@ args = 0, pretend = 0, frame = 0
 2101              		@ frame_needed = 0, uses_anonymous_args = 0
 2102              		@ link register save eliminated.
 2103              	.LVL320:
 2104              	.LBB140:
 2105              	.LBB141:
 2106              		.loc 1 492 0
 2107 0000 823262E0 		rsb	r3, r2, r2, lsl #5
 2108 0004 832282E0 		add	r2, r2, r3, lsl #5
 2109              	.LVL321:
ARM GAS  /var/folders/3j/4xdnk5197cv_b7cw3n33qk7r0000gn/T//ccLoT9Qc.s 			page 38


 2110 0008 022262E0 		rsb	r2, r2, r2, lsl #4
 2111              	.LBE141:
 2112              	.LBE140:
 2113              		.loc 1 569 0
 2114 000c 20009FE5 		ldr	r0, .L118
 2115              	.LVL322:
 2116              	.LBB143:
 2117              	.LBB142:
 2118              		.loc 1 492 0
 2119 0010 0224A0E1 		lsl	r2, r2, #8
 2120              	.LBE142:
 2121              	.LBE143:
 2122              		.loc 1 569 0
 2123 0014 7D2F82E2 		add	r2, r2, #500
 2124 0018 922083E0 		umull	r2, r3, r2, r0
 2125 001c 2333A0E1 		lsr	r3, r3, #6
 2126              		.loc 1 572 0
 2127 0020 910302E0 		mul	r2, r1, r3
 2128 0024 7D2F82E2 		add	r2, r2, #500
 2129              		.loc 1 571 0
 2130 0028 922083E0 		umull	r2, r3, r2, r0
 2131              		.loc 1 575 0
 2132 002c 2303A0E1 		lsr	r0, r3, #6
 2133 0030 1EFF2FE1 		bx	lr
 2134              	.L119:
 2135              		.align	2
 2136              	.L118:
 2137 0034 D34D6210 		.word	274877907
 2138              		.cfi_endproc
 2139              	.LFE15:
 2140              		.size	VL53L0X_calc_timeout_us, .-VL53L0X_calc_timeout_us
 2141              		.section	.text.get_sequence_step_timeout,"ax",%progbits
 2142              		.align	2
 2143              		.global	get_sequence_step_timeout
 2144              		.syntax unified
 2145              		.arm
 2146              		.fpu softvfp
 2147              		.type	get_sequence_step_timeout, %function
 2148              	get_sequence_step_timeout:
 2149              	.LFB16:
 2150              		.loc 1 581 0
 2151              		.cfi_startproc
 2152              		@ args = 0, pretend = 0, frame = 16
 2153              		@ frame_needed = 0, uses_anonymous_args = 0
 2154              	.LVL323:
 2155 0000 F0402DE9 		push	{r4, r5, r6, r7, lr}
 2156              		.cfi_def_cfa_offset 20
 2157              		.cfi_offset 4, -20
 2158              		.cfi_offset 5, -16
 2159              		.cfi_offset 6, -12
 2160              		.cfi_offset 7, -8
 2161              		.cfi_offset 14, -4
 2162              		.loc 1 584 0
 2163 0004 0040A0E3 		mov	r4, #0
 2164              		.loc 1 581 0
 2165 0008 14D04DE2 		sub	sp, sp, #20
 2166              		.cfi_def_cfa_offset 40
ARM GAS  /var/folders/3j/4xdnk5197cv_b7cw3n33qk7r0000gn/T//ccLoT9Qc.s 			page 39


 2167              		.loc 1 593 0
 2168 000c 020051E3 		cmp	r1, #2
 2169              		.loc 1 581 0
 2170 0010 0250A0E1 		mov	r5, r2
 2171              		.loc 1 584 0
 2172 0014 0340CDE5 		strb	r4, [sp, #3]
 2173              	.LVL324:
 2174              		.loc 1 586 0
 2175 0018 B440CDE1 		strh	r4, [sp, #4]	@ movhi
 2176              	.LVL325:
 2177              		.loc 1 581 0
 2178 001c 0060A0E1 		mov	r6, r0
 2179              		.loc 1 593 0
 2180 0020 0700009A 		bls	.L138
 2181              		.loc 1 610 0
 2182 0024 030051E3 		cmp	r1, #3
 2183 0028 3C00000A 		beq	.L139
 2184              		.loc 1 637 0
 2185 002c 040051E3 		cmp	r1, #4
 2186              		.loc 1 582 0
 2187 0030 0400A011 		movne	r0, r4
 2188              	.LVL326:
 2189              		.loc 1 637 0
 2190 0034 1D00000A 		beq	.L140
 2191              	.LVL327:
 2192              	.L123:
 2193              		.loc 1 681 0
 2194 0038 004085E5 		str	r4, [r5]
 2195              		.loc 1 684 0
 2196 003c 14D08DE2 		add	sp, sp, #20
 2197              		.cfi_remember_state
 2198              		.cfi_def_cfa_offset 20
 2199              		@ sp needed
 2200 0040 F080BDE8 		pop	{r4, r5, r6, r7, pc}
 2201              	.LVL328:
 2202              	.L138:
 2203              		.cfi_restore_state
 2204              		.loc 1 597 0
 2205 0044 0410A0E1 		mov	r1, r4
 2206              	.LVL329:
 2207 0048 02208DE2 		add	r2, sp, #2
 2208              	.LVL330:
 2209 004c FEFFFFEB 		bl	VL53L0X_GetVcselPulsePeriod
 2210              	.LVL331:
 2211              		.loc 1 600 0
 2212 0050 000050E3 		cmp	r0, #0
 2213              	.LVL332:
 2214 0054 0300001A 		bne	.L122
 2215              		.loc 1 601 0
 2216 0058 0600A0E1 		mov	r0, r6
 2217 005c 03208DE2 		add	r2, sp, #3
 2218 0060 4610A0E3 		mov	r1, #70
 2219 0064 FEFFFFEB 		bl	VL53L0X_RdByte
 2220              	.LVL333:
 2221              	.L122:
 2222              	.LBB144:
 2223              	.LBB145:
ARM GAS  /var/folders/3j/4xdnk5197cv_b7cw3n33qk7r0000gn/T//ccLoT9Qc.s 			page 40


 2224              	.LBB146:
 2225              	.LBB147:
 2226              		.loc 1 493 0
 2227 0068 0230DDE5 		ldrb	r3, [sp, #2]	@ zero_extendqisi2
 2228              	.LBE147:
 2229              	.LBE146:
 2230              		.loc 1 569 0
 2231 006c C4119FE5 		ldr	r1, .L142
 2232              	.LBB149:
 2233              	.LBB148:
 2234              		.loc 1 492 0
 2235 0070 832263E0 		rsb	r2, r3, r3, lsl #5
 2236 0074 823283E0 		add	r3, r3, r2, lsl #5
 2237 0078 033263E0 		rsb	r3, r3, r3, lsl #4
 2238 007c 0324A0E1 		lsl	r2, r3, #8
 2239              	.LBE148:
 2240              	.LBE149:
 2241              		.loc 1 569 0
 2242 0080 7D2F82E2 		add	r2, r2, #500
 2243 0084 926187E0 		umull	r6, r7, r2, r1
 2244              	.LVL334:
 2245              	.LBE145:
 2246              	.LBE144:
 2247              	.LBB152:
 2248              	.LBB153:
 2249              		.loc 1 533 0
 2250 0088 0320DDE5 		ldrb	r2, [sp, #3]	@ zero_extendqisi2
 2251              	.LBE153:
 2252              	.LBE152:
 2253              	.LBB155:
 2254              	.LBB150:
 2255              		.loc 1 569 0
 2256 008c 2733A0E1 		lsr	r3, r7, #6
 2257              	.LBE150:
 2258              	.LBE155:
 2259              	.LBB156:
 2260              	.LBB154:
 2261              		.loc 1 533 0
 2262 0090 012082E2 		add	r2, r2, #1
 2263              	.LBE154:
 2264              	.LBE156:
 2265              	.LBB157:
 2266              	.LBB151:
 2267              		.loc 1 572 0
 2268 0094 920302E0 		mul	r2, r2, r3
 2269 0098 7D2F82E2 		add	r2, r2, #500
 2270              		.loc 1 571 0
 2271 009c 922183E0 		umull	r2, r3, r2, r1
 2272 00a0 2343A0E1 		lsr	r4, r3, #6
 2273              	.LVL335:
 2274              	.LBE151:
 2275              	.LBE157:
 2276              		.loc 1 681 0
 2277 00a4 004085E5 		str	r4, [r5]
 2278              		.loc 1 684 0
 2279 00a8 14D08DE2 		add	sp, sp, #20
 2280              		.cfi_remember_state
ARM GAS  /var/folders/3j/4xdnk5197cv_b7cw3n33qk7r0000gn/T//ccLoT9Qc.s 			page 41


 2281              		.cfi_def_cfa_offset 20
 2282              		@ sp needed
 2283 00ac F080BDE8 		pop	{r4, r5, r6, r7, pc}
 2284              	.LVL336:
 2285              	.L140:
 2286              		.cfi_restore_state
 2287              		.loc 1 639 0
 2288 00b0 08108DE2 		add	r1, sp, #8
 2289              	.LVL337:
 2290 00b4 FEFFFFEB 		bl	VL53L0X_GetSequenceStepEnables
 2291              	.LVL338:
 2292              		.loc 1 642 0
 2293 00b8 0B30DDE5 		ldrb	r3, [sp, #11]	@ zero_extendqisi2
 2294 00bc 000053E3 		cmp	r3, #0
 2295 00c0 3900000A 		beq	.L131
 2296              		.loc 1 644 0
 2297 00c4 02708DE2 		add	r7, sp, #2
 2298 00c8 0720A0E1 		mov	r2, r7
 2299 00cc 0410A0E1 		mov	r1, r4
 2300 00d0 0600A0E1 		mov	r0, r6
 2301 00d4 FEFFFFEB 		bl	VL53L0X_GetVcselPulsePeriod
 2302              	.LVL339:
 2303              		.loc 1 650 0
 2304 00d8 000050E3 		cmp	r0, #0
 2305              	.LVL340:
 2306 00dc 3D00000A 		beq	.L141
 2307              	.LVL341:
 2308              	.L127:
 2309              	.LBB158:
 2310              	.LBB159:
 2311              	.LBB160:
 2312              	.LBB161:
 2313              		.loc 1 493 0
 2314 00e0 0230DDE5 		ldrb	r3, [sp, #2]	@ zero_extendqisi2
 2315              	.LBE161:
 2316              	.LBE160:
 2317              		.loc 1 569 0
 2318 00e4 4C119FE5 		ldr	r1, .L142
 2319              	.LBB163:
 2320              	.LBB162:
 2321              		.loc 1 492 0
 2322 00e8 832263E0 		rsb	r2, r3, r3, lsl #5
 2323 00ec 823283E0 		add	r3, r3, r2, lsl #5
 2324 00f0 033263E0 		rsb	r3, r3, r3, lsl #4
 2325 00f4 0364A0E1 		lsl	r6, r3, #8
 2326              	.LVL342:
 2327              	.LBE162:
 2328              	.LBE163:
 2329              		.loc 1 569 0
 2330 00f8 7D6F86E2 		add	r6, r6, #500
 2331 00fc 966187E0 		umull	r6, r7, r6, r1
 2332 0100 2723A0E1 		lsr	r2, r7, #6
 2333              		.loc 1 572 0
 2334 0104 940204E0 		mul	r4, r4, r2
 2335 0108 7D2F84E2 		add	r2, r4, #500
 2336              		.loc 1 571 0
 2337 010c 922183E0 		umull	r2, r3, r2, r1
ARM GAS  /var/folders/3j/4xdnk5197cv_b7cw3n33qk7r0000gn/T//ccLoT9Qc.s 			page 42


 2338 0110 2343A0E1 		lsr	r4, r3, #6
 2339              	.LVL343:
 2340              	.LBE159:
 2341              	.LBE158:
 2342              		.loc 1 681 0
 2343 0114 004085E5 		str	r4, [r5]
 2344              		.loc 1 684 0
 2345 0118 14D08DE2 		add	sp, sp, #20
 2346              		.cfi_remember_state
 2347              		.cfi_def_cfa_offset 20
 2348              		@ sp needed
 2349 011c F080BDE8 		pop	{r4, r5, r6, r7, pc}
 2350              	.LVL344:
 2351              	.L139:
 2352              		.cfi_restore_state
 2353              		.loc 1 612 0
 2354 0120 02208DE2 		add	r2, sp, #2
 2355              	.LVL345:
 2356 0124 0410A0E1 		mov	r1, r4
 2357              	.LVL346:
 2358 0128 FEFFFFEB 		bl	VL53L0X_GetVcselPulsePeriod
 2359              	.LVL347:
 2360              		.loc 1 617 0
 2361 012c 000050E3 		cmp	r0, #0
 2362              	.LVL348:
 2363 0130 C0FFFF1A 		bne	.L123
 2364              		.loc 1 620 0
 2365 0134 0010A0E1 		mov	r1, r0
 2366 0138 02208DE2 		add	r2, sp, #2
 2367 013c 0600A0E1 		mov	r0, r6
 2368 0140 FEFFFFEB 		bl	VL53L0X_GetVcselPulsePeriod
 2369              	.LVL349:
 2370              		.loc 1 624 0
 2371 0144 000050E3 		cmp	r0, #0
 2372              	.LVL350:
 2373 0148 0300001A 		bne	.L125
 2374              		.loc 1 625 0
 2375 014c 0600A0E1 		mov	r0, r6
 2376 0150 04208DE2 		add	r2, sp, #4
 2377 0154 5110A0E3 		mov	r1, #81
 2378 0158 FEFFFFEB 		bl	VL53L0X_RdWord
 2379              	.LVL351:
 2380              	.L125:
 2381              	.LBB164:
 2382              	.LBB165:
 2383              	.LBB166:
 2384              	.LBB167:
 2385              		.loc 1 493 0
 2386 015c 0230DDE5 		ldrb	r3, [sp, #2]	@ zero_extendqisi2
 2387              	.LBE167:
 2388              	.LBE166:
 2389              		.loc 1 569 0
 2390 0160 D0109FE5 		ldr	r1, .L142
 2391              	.LBB169:
 2392              	.LBB168:
 2393              		.loc 1 492 0
 2394 0164 832263E0 		rsb	r2, r3, r3, lsl #5
ARM GAS  /var/folders/3j/4xdnk5197cv_b7cw3n33qk7r0000gn/T//ccLoT9Qc.s 			page 43


 2395 0168 823283E0 		add	r3, r3, r2, lsl #5
 2396 016c 033263E0 		rsb	r3, r3, r3, lsl #4
 2397 0170 0324A0E1 		lsl	r2, r3, #8
 2398              	.LBE168:
 2399              	.LBE169:
 2400              	.LBE165:
 2401              	.LBE164:
 2402              		.loc 1 630 0
 2403 0174 B4E0DDE1 		ldrh	lr, [sp, #4]
 2404              	.LVL352:
 2405              	.LBB172:
 2406              	.LBB170:
 2407              		.loc 1 569 0
 2408 0178 7D2F82E2 		add	r2, r2, #500
 2409 017c 922183E0 		umull	r2, r3, r2, r1
 2410              	.LBE170:
 2411              	.LBE172:
 2412              	.LBB173:
 2413              	.LBB174:
 2414              		.loc 1 533 0
 2415 0180 7EC0EFE6 		uxtb	ip, lr
 2416              		.loc 1 534 0
 2417 0184 2EE4A0E1 		lsr	lr, lr, #8
 2418              	.LVL353:
 2419 0188 1CCEA0E1 		lsl	ip, ip, lr
 2420              		.loc 1 533 0
 2421 018c 01C08CE2 		add	ip, ip, #1
 2422              	.LBE174:
 2423              	.LBE173:
 2424              	.LBB175:
 2425              	.LBB171:
 2426              		.loc 1 569 0
 2427 0190 2323A0E1 		lsr	r2, r3, #6
 2428              		.loc 1 572 0
 2429 0194 7C30FFE6 		uxth	r3, ip
 2430 0198 920302E0 		mul	r2, r2, r3
 2431 019c 7D2F82E2 		add	r2, r2, #500
 2432              		.loc 1 571 0
 2433 01a0 922183E0 		umull	r2, r3, r2, r1
 2434 01a4 2343A0E1 		lsr	r4, r3, #6
 2435              	.LVL354:
 2436 01a8 A2FFFFEA 		b	.L123
 2437              	.LVL355:
 2438              	.L131:
 2439              	.LBE171:
 2440              	.LBE175:
 2441              		.loc 1 640 0
 2442 01ac 0340A0E1 		mov	r4, r3
 2443 01b0 02708DE2 		add	r7, sp, #2
 2444              	.LVL356:
 2445              	.L126:
 2446              		.loc 1 661 0
 2447 01b4 0720A0E1 		mov	r2, r7
 2448 01b8 0110A0E3 		mov	r1, #1
 2449 01bc 0600A0E1 		mov	r0, r6
 2450 01c0 FEFFFFEB 		bl	VL53L0X_GetVcselPulsePeriod
 2451              	.LVL357:
ARM GAS  /var/folders/3j/4xdnk5197cv_b7cw3n33qk7r0000gn/T//ccLoT9Qc.s 			page 44


 2452              		.loc 1 667 0
 2453 01c4 000050E3 		cmp	r0, #0
 2454              	.LVL358:
 2455 01c8 0F00000A 		beq	.L128
 2456              	.L137:
 2457 01cc 004064E2 		rsb	r4, r4, #0
 2458 01d0 7440FFE6 		uxth	r4, r4
 2459 01d4 C1FFFFEA 		b	.L127
 2460              	.LVL359:
 2461              	.L141:
 2462              		.loc 1 651 0
 2463 01d8 04208DE2 		add	r2, sp, #4
 2464 01dc 5110A0E3 		mov	r1, #81
 2465 01e0 0600A0E1 		mov	r0, r6
 2466 01e4 FEFFFFEB 		bl	VL53L0X_RdWord
 2467              	.LVL360:
 2468              		.loc 1 654 0
 2469 01e8 B420DDE1 		ldrh	r2, [sp, #4]
 2470              		.loc 1 659 0
 2471 01ec 000050E3 		cmp	r0, #0
 2472              	.LVL361:
 2473              	.LBB176:
 2474              	.LBB177:
 2475              		.loc 1 533 0
 2476 01f0 7230EFE6 		uxtb	r3, r2
 2477              		.loc 1 534 0
 2478 01f4 2224A0E1 		lsr	r2, r2, #8
 2479 01f8 1332A0E1 		lsl	r3, r3, r2
 2480              		.loc 1 533 0
 2481 01fc 013083E2 		add	r3, r3, #1
 2482              	.LBE177:
 2483              	.LBE176:
 2484              		.loc 1 654 0
 2485 0200 7340FFE6 		uxth	r4, r3
 2486              	.LVL362:
 2487              		.loc 1 659 0
 2488 0204 EAFFFF0A 		beq	.L126
 2489 0208 EFFFFFEA 		b	.L137
 2490              	.LVL363:
 2491              	.L128:
 2492              		.loc 1 668 0
 2493 020c 06208DE2 		add	r2, sp, #6
 2494 0210 0600A0E1 		mov	r0, r6
 2495 0214 7110A0E3 		mov	r1, #113
 2496 0218 FEFFFFEB 		bl	VL53L0X_RdWord
 2497              	.LVL364:
 2498              		.loc 1 671 0
 2499 021c B630DDE1 		ldrh	r3, [sp, #6]
 2500              	.LVL365:
 2501              	.LBB178:
 2502              	.LBB179:
 2503              		.loc 1 533 0
 2504 0220 7320EFE6 		uxtb	r2, r3
 2505              		.loc 1 534 0
 2506 0224 2334A0E1 		lsr	r3, r3, #8
 2507              	.LVL366:
 2508              		.loc 1 533 0
ARM GAS  /var/folders/3j/4xdnk5197cv_b7cw3n33qk7r0000gn/T//ccLoT9Qc.s 			page 45


 2509 0228 124364E0 		rsb	r4, r4, r2, lsl r3
 2510 022c 014084E2 		add	r4, r4, #1
 2511 0230 7440FFE6 		uxth	r4, r4
 2512 0234 A9FFFFEA 		b	.L127
 2513              	.L143:
 2514              		.align	2
 2515              	.L142:
 2516 0238 D34D6210 		.word	274877907
 2517              	.LBE179:
 2518              	.LBE178:
 2519              		.cfi_endproc
 2520              	.LFE16:
 2521              		.size	get_sequence_step_timeout, .-get_sequence_step_timeout
 2522              		.section	.text.set_sequence_step_timeout,"ax",%progbits
 2523              		.align	2
 2524              		.global	set_sequence_step_timeout
 2525              		.syntax unified
 2526              		.arm
 2527              		.fpu softvfp
 2528              		.type	set_sequence_step_timeout, %function
 2529              	set_sequence_step_timeout:
 2530              	.LFB17:
 2531              		.loc 1 690 0
 2532              		.cfi_startproc
 2533              		@ args = 0, pretend = 0, frame = 8
 2534              		@ frame_needed = 0, uses_anonymous_args = 0
 2535              	.LVL367:
 2536 0000 F0402DE9 		push	{r4, r5, r6, r7, lr}
 2537              		.cfi_def_cfa_offset 20
 2538              		.cfi_offset 4, -20
 2539              		.cfi_offset 5, -16
 2540              		.cfi_offset 6, -12
 2541              		.cfi_offset 7, -8
 2542              		.cfi_offset 14, -4
 2543              		.loc 1 701 0
 2544 0004 020051E3 		cmp	r1, #2
 2545              		.loc 1 690 0
 2546 0008 0CD04DE2 		sub	sp, sp, #12
 2547              		.cfi_def_cfa_offset 32
 2548              		.loc 1 701 0
 2549 000c 0200009A 		bls	.L150
 2550 0010 FEFFFFEB 		bl	set_sequence_step_timeout.part.1
 2551              	.LVL368:
 2552              	.L146:
 2553              		.loc 1 829 0
 2554 0014 0CD08DE2 		add	sp, sp, #12
 2555              		.cfi_remember_state
 2556              		.cfi_def_cfa_offset 20
 2557              		@ sp needed
 2558 0018 F080BDE8 		pop	{r4, r5, r6, r7, pc}
 2559              	.LVL369:
 2560              	.L150:
 2561              		.cfi_restore_state
 2562 001c 0260A0E1 		mov	r6, r2
 2563              		.loc 1 705 0
 2564 0020 0010A0E3 		mov	r1, #0
 2565              	.LVL370:
ARM GAS  /var/folders/3j/4xdnk5197cv_b7cw3n33qk7r0000gn/T//ccLoT9Qc.s 			page 46


 2566 0024 07208DE2 		add	r2, sp, #7
 2567              	.LVL371:
 2568 0028 0070A0E1 		mov	r7, r0
 2569 002c FEFFFFEB 		bl	VL53L0X_GetVcselPulsePeriod
 2570              	.LVL372:
 2571              		.loc 1 709 0
 2572 0030 000050E3 		cmp	r0, #0
 2573              	.LVL373:
 2574 0034 F6FFFF1A 		bne	.L146
 2575              	.LVL374:
 2576              	.LBB180:
 2577              	.LBB181:
 2578              	.LBB182:
 2579              	.LBB183:
 2580              		.loc 1 493 0
 2581 0038 0730DDE5 		ldrb	r3, [sp, #7]	@ zero_extendqisi2
 2582              	.LBE183:
 2583              	.LBE182:
 2584              		.loc 1 554 0
 2585 003c 60009FE5 		ldr	r0, .L151
 2586              	.LBB185:
 2587              	.LBB184:
 2588              		.loc 1 492 0
 2589 0040 832263E0 		rsb	r2, r3, r3, lsl #5
 2590 0044 823283E0 		add	r3, r3, r2, lsl #5
 2591 0048 033263E0 		rsb	r3, r3, r3, lsl #4
 2592 004c 0344A0E1 		lsl	r4, r3, #8
 2593              	.LBE184:
 2594              	.LBE185:
 2595              		.loc 1 550 0
 2596 0050 7D4F84E2 		add	r4, r4, #500
 2597              	.LVL375:
 2598              		.loc 1 554 0
 2599 0054 944085E0 		umull	r4, r5, r4, r0
 2600              	.LVL376:
 2601              		.loc 1 553 0
 2602 0058 863266E0 		rsb	r3, r6, r6, lsl #5
 2603              	.LVL377:
 2604 005c 036186E0 		add	r6, r6, r3, lsl #2
 2605              	.LVL378:
 2606              		.loc 1 554 0
 2607 0060 A503A0E1 		lsr	r0, r5, #7
 2608              		.loc 1 552 0
 2609 0064 2513A0E1 		lsr	r1, r5, #6
 2610 0068 860180E0 		add	r0, r0, r6, lsl #3
 2611 006c FEFFFFEB 		bl	__aeabi_uidiv
 2612              	.LVL379:
 2613              	.LBE181:
 2614              	.LBE180:
 2615              		.loc 1 714 0
 2616 0070 7030FFE6 		uxth	r3, r0
 2617 0074 010C53E3 		cmp	r3, #256
 2618 0078 FF30A083 		movhi	r3, #255
 2619              		.loc 1 717 0
 2620 007c 01004092 		subls	r0, r0, #1
 2621              	.LVL380:
 2622 0080 7020EF96 		uxtbls	r2, r0
ARM GAS  /var/folders/3j/4xdnk5197cv_b7cw3n33qk7r0000gn/T//ccLoT9Qc.s 			page 47


 2623              	.LVL381:
 2624 0084 7230FF96 		uxthls	r3, r2
 2625              		.loc 1 715 0
 2626 0088 0320A081 		movhi	r2, r3
 2627              	.LVL382:
 2628              		.loc 1 720 0
 2629 008c B83DC7E1 		strh	r3, [r7, #216]	@ movhi
 2630              		.loc 1 726 0
 2631 0090 0700A0E1 		mov	r0, r7
 2632 0094 4610A0E3 		mov	r1, #70
 2633 0098 FEFFFFEB 		bl	VL53L0X_WrByte
 2634              	.LVL383:
 2635              		.loc 1 829 0
 2636 009c 0CD08DE2 		add	sp, sp, #12
 2637              		.cfi_def_cfa_offset 20
 2638              		@ sp needed
 2639 00a0 F080BDE8 		pop	{r4, r5, r6, r7, pc}
 2640              	.LVL384:
 2641              	.L152:
 2642              		.align	2
 2643              	.L151:
 2644 00a4 D34D6210 		.word	274877907
 2645              		.cfi_endproc
 2646              	.LFE17:
 2647              		.size	set_sequence_step_timeout, .-set_sequence_step_timeout
 2648              		.section	.text.VL53L0X_set_vcsel_pulse_period,"ax",%progbits
 2649              		.align	2
 2650              		.global	VL53L0X_set_vcsel_pulse_period
 2651              		.syntax unified
 2652              		.arm
 2653              		.fpu softvfp
 2654              		.type	VL53L0X_set_vcsel_pulse_period, %function
 2655              	VL53L0X_set_vcsel_pulse_period:
 2656              	.LFB18:
 2657              		.loc 1 833 0
 2658              		.cfi_startproc
 2659              		@ args = 0, pretend = 0, frame = 16
 2660              		@ frame_needed = 0, uses_anonymous_args = 0
 2661              	.LVL385:
 2662              		.loc 1 844 0
 2663 0000 0030A0E3 		mov	r3, #0
 2664              		.loc 1 833 0
 2665 0004 F0412DE9 		push	{r4, r5, r6, r7, r8, lr}
 2666              		.cfi_def_cfa_offset 24
 2667              		.cfi_offset 4, -24
 2668              		.cfi_offset 5, -20
 2669              		.cfi_offset 6, -16
 2670              		.cfi_offset 7, -12
 2671              		.cfi_offset 8, -8
 2672              		.cfi_offset 14, -4
 2673              		.loc 1 848 0
 2674 0008 017012E2 		ands	r7, r2, #1
 2675              		.loc 1 833 0
 2676 000c 10D04DE2 		sub	sp, sp, #16
 2677              		.cfi_def_cfa_offset 40
 2678              		.loc 1 844 0
 2679 0010 0330CDE5 		strb	r3, [sp, #3]
ARM GAS  /var/folders/3j/4xdnk5197cv_b7cw3n33qk7r0000gn/T//ccLoT9Qc.s 			page 48


 2680              		.loc 1 848 0
 2681 0014 4D00001A 		bne	.L176
 2682              		.loc 1 851 0
 2683 0018 030051E1 		cmp	r1, r3
 2684 001c 0050A0E1 		mov	r5, r0
 2685 0020 0180A0E1 		mov	r8, r1
 2686 0024 0240A0E1 		mov	r4, r2
 2687 0028 2500001A 		bne	.L155
 2688              		.loc 1 851 0 is_stmt 0 discriminator 1
 2689 002c 0C3042E2 		sub	r3, r2, #12
 2690 0030 060053E3 		cmp	r3, #6
 2691 0034 4500008A 		bhi	.L176
 2692              		.loc 1 871 0 is_stmt 1
 2693 0038 0C0052E3 		cmp	r2, #12
 2694              		.loc 1 873 0
 2695 003c 1820A003 		moveq	r2, #24
 2696              	.LVL386:
 2697              		.loc 1 871 0
 2698 0040 3800000A 		beq	.L189
 2699              		.loc 1 879 0
 2700 0044 0E0054E3 		cmp	r4, #14
 2701              		.loc 1 881 0
 2702 0048 3020A003 		moveq	r2, #48
 2703              		.loc 1 879 0
 2704 004c 3500000A 		beq	.L189
 2705              		.loc 1 887 0
 2706 0050 100054E3 		cmp	r4, #16
 2707 0054 3200000A 		beq	.L190
 2708              		.loc 1 895 0
 2709 0058 120054E3 		cmp	r4, #18
 2710              		.loc 1 897 0
 2711 005c 5020A003 		moveq	r2, #80
 2712              		.loc 1 895 0
 2713 0060 3000000A 		beq	.L189
 2714              	.LVL387:
 2715              	.L162:
 2716              	.LBB186:
 2717              	.LBB187:
 2718              		.loc 1 117 0
 2719 0064 A430A0E1 		lsr	r3, r4, #1
 2720 0068 013043E2 		sub	r3, r3, #1
 2721              	.LBE187:
 2722              	.LBE186:
 2723              		.loc 1 1003 0
 2724 006c 08208DE2 		add	r2, sp, #8
 2725 0070 0310A0E3 		mov	r1, #3
 2726 0074 0500A0E1 		mov	r0, r5
 2727              	.LBB191:
 2728              	.LBB188:
 2729              		.loc 1 117 0
 2730 0078 7360EFE6 		uxtb	r6, r3
 2731              	.LVL388:
 2732              	.LBE188:
 2733              	.LBE191:
 2734              		.loc 1 1003 0
 2735 007c FEFFFFEB 		bl	get_sequence_step_timeout
 2736              	.LVL389:
ARM GAS  /var/folders/3j/4xdnk5197cv_b7cw3n33qk7r0000gn/T//ccLoT9Qc.s 			page 49


 2737              		.loc 1 1007 0
 2738 0080 000050E3 		cmp	r0, #0
 2739              	.LVL390:
 2740 0084 3F00000A 		beq	.L191
 2741              	.L168:
 2742              	.LVL391:
 2743              		.loc 1 1029 0
 2744 0088 E840C5E5 		strb	r4, [r5, #232]
 2745              	.L169:
 2746              		.loc 1 1061 0
 2747 008c 000050E3 		cmp	r0, #0
 2748 0090 2C00001A 		bne	.L177
 2749              	.LVL392:
 2750              		.loc 1 1066 0
 2751 0094 141095E5 		ldr	r1, [r5, #20]
 2752 0098 0500A0E1 		mov	r0, r5
 2753              	.LVL393:
 2754 009c FEFFFFEB 		bl	VL53L0X_SetMeasurementTimingBudgetMicroSeconds
 2755              	.LVL394:
 2756              		.loc 1 1073 0
 2757 00a0 000050E3 		cmp	r0, #0
 2758              	.LVL395:
 2759 00a4 2700001A 		bne	.L177
 2760              		.loc 1 1074 0
 2761 00a8 0020A0E1 		mov	r2, r0
 2762 00ac 0130A0E3 		mov	r3, #1
 2763 00b0 0500A0E1 		mov	r0, r5
 2764 00b4 03108DE2 		add	r1, sp, #3
 2765 00b8 FEFFFFEB 		bl	VL53L0X_perform_phase_calibration
 2766              	.LVL396:
 2767              		.loc 1 1078 0
 2768 00bc 10D08DE2 		add	sp, sp, #16
 2769              		.cfi_remember_state
 2770              		.cfi_def_cfa_offset 24
 2771              		@ sp needed
 2772 00c0 F081BDE8 		pop	{r4, r5, r6, r7, r8, pc}
 2773              	.LVL397:
 2774              	.L155:
 2775              		.cfi_restore_state
 2776              		.loc 1 855 0
 2777 00c4 010051E3 		cmp	r1, #1
 2778 00c8 2000001A 		bne	.L176
 2779              		.loc 1 855 0 is_stmt 0 discriminator 1
 2780 00cc 083042E2 		sub	r3, r2, #8
 2781 00d0 060053E3 		cmp	r3, #6
 2782 00d4 1D00008A 		bhi	.L176
 2783              		.loc 1 906 0 is_stmt 1
 2784 00d8 080052E3 		cmp	r2, #8
 2785 00dc 4000000A 		beq	.L192
 2786              		.loc 1 925 0
 2787 00e0 0A0052E3 		cmp	r2, #10
 2788 00e4 6700000A 		beq	.L193
 2789              		.loc 1 944 0
 2790 00e8 0C0052E3 		cmp	r2, #12
 2791 00ec 7F00000A 		beq	.L194
 2792              		.loc 1 963 0
 2793 00f0 0E0052E3 		cmp	r2, #14
ARM GAS  /var/folders/3j/4xdnk5197cv_b7cw3n33qk7r0000gn/T//ccLoT9Qc.s 			page 50


 2794 00f4 8B00000A 		beq	.L195
 2795              	.LVL398:
 2796              	.L167:
 2797              	.LBB192:
 2798              	.LBB189:
 2799              		.loc 1 117 0
 2800 00f8 A430A0E1 		lsr	r3, r4, #1
 2801 00fc 013043E2 		sub	r3, r3, #1
 2802              	.LBE189:
 2803              	.LBE192:
 2804              		.loc 1 1035 0
 2805 0100 04208DE2 		add	r2, sp, #4
 2806 0104 0410A0E3 		mov	r1, #4
 2807 0108 0500A0E1 		mov	r0, r5
 2808              	.LBB193:
 2809              	.LBB190:
 2810              		.loc 1 117 0
 2811 010c 7360EFE6 		uxtb	r6, r3
 2812              	.LVL399:
 2813              	.LBE190:
 2814              	.LBE193:
 2815              		.loc 1 1035 0
 2816 0110 FEFFFFEB 		bl	get_sequence_step_timeout
 2817              	.LVL400:
 2818              		.loc 1 1039 0
 2819 0114 000050E3 		cmp	r0, #0
 2820              	.LVL401:
 2821 0118 0F00000A 		beq	.L196
 2822              	.L170:
 2823              	.LVL402:
 2824              		.loc 1 1050 0
 2825 011c E040C5E5 		strb	r4, [r5, #224]
 2826              		.loc 1 1054 0
 2827 0120 D9FFFFEA 		b	.L169
 2828              	.LVL403:
 2829              	.L190:
 2830              		.loc 1 889 0
 2831 0124 4020A0E3 		mov	r2, #64
 2832              	.L189:
 2833 0128 5710A0E3 		mov	r1, #87
 2834              	.LVL404:
 2835 012c FEFFFFEB 		bl	VL53L0X_WrByte
 2836              	.LVL405:
 2837              		.loc 1 892 0
 2838 0130 0820A0E3 		mov	r2, #8
 2839 0134 5610A0E3 		mov	r1, #86
 2840 0138 0500A0E1 		mov	r0, r5
 2841 013c FEFFFFEB 		bl	VL53L0X_WrByte
 2842              	.LVL406:
 2843              		.loc 1 988 0
 2844 0140 000050E3 		cmp	r0, #0
 2845 0144 C6FFFF0A 		beq	.L162
 2846              	.LVL407:
 2847              	.L177:
 2848              		.loc 1 1078 0
 2849 0148 10D08DE2 		add	sp, sp, #16
 2850              		.cfi_remember_state
ARM GAS  /var/folders/3j/4xdnk5197cv_b7cw3n33qk7r0000gn/T//ccLoT9Qc.s 			page 51


 2851              		.cfi_def_cfa_offset 24
 2852              		@ sp needed
 2853 014c F081BDE8 		pop	{r4, r5, r6, r7, r8, pc}
 2854              	.LVL408:
 2855              	.L176:
 2856              		.cfi_restore_state
 2857 0150 0300E0E3 		mvn	r0, #3
 2858              	.LVL409:
 2859 0154 10D08DE2 		add	sp, sp, #16
 2860              		.cfi_remember_state
 2861              		.cfi_def_cfa_offset 24
 2862              		@ sp needed
 2863 0158 F081BDE8 		pop	{r4, r5, r6, r7, r8, pc}
 2864              	.LVL410:
 2865              	.L196:
 2866              		.cfi_restore_state
 2867              		.loc 1 1040 0
 2868 015c 0620A0E1 		mov	r2, r6
 2869 0160 7010A0E3 		mov	r1, #112
 2870 0164 0500A0E1 		mov	r0, r5
 2871 0168 FEFFFFEB 		bl	VL53L0X_WrByte
 2872              	.LVL411:
 2873              		.loc 1 1045 0
 2874 016c 000050E3 		cmp	r0, #0
 2875              	.LVL412:
 2876 0170 E9FFFF1A 		bne	.L170
 2877              	.LVL413:
 2878              	.LBB194:
 2879              	.LBB195:
 2880 0174 04209DE5 		ldr	r2, [sp, #4]
 2881 0178 0410A0E3 		mov	r1, #4
 2882 017c 0500A0E1 		mov	r0, r5
 2883 0180 FEFFFFEB 		bl	set_sequence_step_timeout.part.1
 2884              	.LVL414:
 2885 0184 E4FFFFEA 		b	.L170
 2886              	.L191:
 2887              	.LBE195:
 2888              	.LBE194:
 2889              		.loc 1 1008 0
 2890 0188 0C208DE2 		add	r2, sp, #12
 2891 018c 0210A0E3 		mov	r1, #2
 2892 0190 0500A0E1 		mov	r0, r5
 2893 0194 FEFFFFEB 		bl	get_sequence_step_timeout
 2894              	.LVL415:
 2895              		.loc 1 1012 0
 2896 0198 000050E3 		cmp	r0, #0
 2897              	.LVL416:
 2898 019c B9FFFF1A 		bne	.L168
 2899              		.loc 1 1013 0
 2900 01a0 0620A0E1 		mov	r2, r6
 2901 01a4 5010A0E3 		mov	r1, #80
 2902 01a8 0500A0E1 		mov	r0, r5
 2903 01ac FEFFFFEB 		bl	VL53L0X_WrByte
 2904              	.LVL417:
 2905              		.loc 1 1018 0
 2906 01b0 000050E3 		cmp	r0, #0
 2907              	.LVL418:
ARM GAS  /var/folders/3j/4xdnk5197cv_b7cw3n33qk7r0000gn/T//ccLoT9Qc.s 			page 52


 2908 01b4 B3FFFF1A 		bne	.L168
 2909              	.LVL419:
 2910              	.LBB196:
 2911              	.LBB197:
 2912 01b8 08209DE5 		ldr	r2, [sp, #8]
 2913 01bc 0310A0E3 		mov	r1, #3
 2914 01c0 0500A0E1 		mov	r0, r5
 2915 01c4 FEFFFFEB 		bl	set_sequence_step_timeout.part.1
 2916              	.LVL420:
 2917              	.LBE197:
 2918              	.LBE196:
 2919              		.loc 1 1024 0
 2920 01c8 000050E3 		cmp	r0, #0
 2921              	.LVL421:
 2922 01cc ADFFFF1A 		bne	.L168
 2923              		.loc 1 1025 0
 2924 01d0 0C209DE5 		ldr	r2, [sp, #12]
 2925 01d4 0210A0E3 		mov	r1, #2
 2926 01d8 0500A0E1 		mov	r0, r5
 2927 01dc FEFFFFEB 		bl	set_sequence_step_timeout
 2928              	.LVL422:
 2929 01e0 A8FFFFEA 		b	.L168
 2930              	.LVL423:
 2931              	.L192:
 2932              		.loc 1 908 0
 2933 01e4 1020A0E3 		mov	r2, #16
 2934              	.LVL424:
 2935 01e8 4810A0E3 		mov	r1, #72
 2936              	.LVL425:
 2937 01ec FEFFFFEB 		bl	VL53L0X_WrByte
 2938              	.LVL426:
 2939              		.loc 1 911 0
 2940 01f0 0420A0E1 		mov	r2, r4
 2941 01f4 4710A0E3 		mov	r1, #71
 2942 01f8 0500A0E1 		mov	r0, r5
 2943 01fc FEFFFFEB 		bl	VL53L0X_WrByte
 2944              	.LVL427:
 2945              		.loc 1 915 0
 2946 0200 0220A0E3 		mov	r2, #2
 2947              		.loc 1 911 0
 2948 0204 0060A0E1 		mov	r6, r0
 2949              	.LVL428:
 2950              		.loc 1 915 0
 2951 0208 3210A0E3 		mov	r1, #50
 2952 020c 0500A0E1 		mov	r0, r5
 2953 0210 FEFFFFEB 		bl	VL53L0X_WrByte
 2954              	.LVL429:
 2955              		.loc 1 917 0
 2956 0214 0C20A0E3 		mov	r2, #12
 2957              		.loc 1 915 0
 2958 0218 006086E1 		orr	r6, r6, r0
 2959              	.LVL430:
 2960              		.loc 1 917 0
 2961 021c 3010A0E3 		mov	r1, #48
 2962 0220 0500A0E1 		mov	r0, r5
 2963 0224 FEFFFFEB 		bl	VL53L0X_WrByte
 2964              	.LVL431:
ARM GAS  /var/folders/3j/4xdnk5197cv_b7cw3n33qk7r0000gn/T//ccLoT9Qc.s 			page 53


 2965              		.loc 1 915 0
 2966 0228 7660AFE6 		sxtb	r6, r6
 2967              	.LVL432:
 2968              		.loc 1 920 0
 2969 022c 0820A0E1 		mov	r2, r8
 2970              		.loc 1 917 0
 2971 0230 006086E1 		orr	r6, r6, r0
 2972              	.LVL433:
 2973              		.loc 1 920 0
 2974 0234 FF10A0E3 		mov	r1, #255
 2975 0238 0500A0E1 		mov	r0, r5
 2976 023c FEFFFFEB 		bl	VL53L0X_WrByte
 2977              	.LVL434:
 2978              		.loc 1 921 0
 2979 0240 3020A0E3 		mov	r2, #48
 2980              		.loc 1 917 0
 2981 0244 7660AFE6 		sxtb	r6, r6
 2982              	.LVL435:
 2983              	.L188:
 2984              		.loc 1 977 0
 2985 0248 006086E1 		orr	r6, r6, r0
 2986              	.LVL436:
 2987              		.loc 1 978 0
 2988 024c 3010A0E3 		mov	r1, #48
 2989 0250 0500A0E1 		mov	r0, r5
 2990 0254 FEFFFFEB 		bl	VL53L0X_WrByte
 2991              	.LVL437:
 2992              		.loc 1 977 0
 2993 0258 7660AFE6 		sxtb	r6, r6
 2994              	.LVL438:
 2995              		.loc 1 978 0
 2996 025c 006086E1 		orr	r6, r6, r0
 2997              	.LVL439:
 2998              		.loc 1 981 0
 2999 0260 0720A0E1 		mov	r2, r7
 3000 0264 FF10A0E3 		mov	r1, #255
 3001 0268 0500A0E1 		mov	r0, r5
 3002 026c FEFFFFEB 		bl	VL53L0X_WrByte
 3003              	.LVL440:
 3004              		.loc 1 978 0
 3005 0270 7660AFE6 		sxtb	r6, r6
 3006              	.LVL441:
 3007              		.loc 1 981 0
 3008 0274 000086E1 		orr	r0, r6, r0
 3009 0278 7000AFE6 		sxtb	r0, r0
 3010              	.LVL442:
 3011              		.loc 1 988 0
 3012 027c 000050E3 		cmp	r0, #0
 3013 0280 B0FFFF1A 		bne	.L177
 3014 0284 9BFFFFEA 		b	.L167
 3015              	.LVL443:
 3016              	.L193:
 3017              		.loc 1 927 0
 3018 0288 2820A0E3 		mov	r2, #40
 3019              	.LVL444:
 3020 028c 4810A0E3 		mov	r1, #72
 3021              	.LVL445:
ARM GAS  /var/folders/3j/4xdnk5197cv_b7cw3n33qk7r0000gn/T//ccLoT9Qc.s 			page 54


 3022 0290 FEFFFFEB 		bl	VL53L0X_WrByte
 3023              	.LVL446:
 3024              		.loc 1 930 0
 3025 0294 0820A0E3 		mov	r2, #8
 3026 0298 4710A0E3 		mov	r1, #71
 3027 029c 0500A0E1 		mov	r0, r5
 3028 02a0 FEFFFFEB 		bl	VL53L0X_WrByte
 3029              	.LVL447:
 3030              		.loc 1 934 0
 3031 02a4 0320A0E3 		mov	r2, #3
 3032              		.loc 1 930 0
 3033 02a8 0060A0E1 		mov	r6, r0
 3034              	.LVL448:
 3035              		.loc 1 934 0
 3036 02ac 3210A0E3 		mov	r1, #50
 3037 02b0 0500A0E1 		mov	r0, r5
 3038 02b4 FEFFFFEB 		bl	VL53L0X_WrByte
 3039              	.LVL449:
 3040              		.loc 1 936 0
 3041 02b8 0920A0E3 		mov	r2, #9
 3042              	.L187:
 3043              		.loc 1 972 0
 3044 02bc 006086E1 		orr	r6, r6, r0
 3045              	.LVL450:
 3046              		.loc 1 974 0
 3047 02c0 3010A0E3 		mov	r1, #48
 3048 02c4 0500A0E1 		mov	r0, r5
 3049 02c8 FEFFFFEB 		bl	VL53L0X_WrByte
 3050              	.LVL451:
 3051              		.loc 1 972 0
 3052 02cc 7660AFE6 		sxtb	r6, r6
 3053              	.LVL452:
 3054              		.loc 1 977 0
 3055 02d0 0820A0E1 		mov	r2, r8
 3056              		.loc 1 974 0
 3057 02d4 006086E1 		orr	r6, r6, r0
 3058              	.LVL453:
 3059              		.loc 1 977 0
 3060 02d8 FF10A0E3 		mov	r1, #255
 3061 02dc 0500A0E1 		mov	r0, r5
 3062 02e0 FEFFFFEB 		bl	VL53L0X_WrByte
 3063              	.LVL454:
 3064              		.loc 1 974 0
 3065 02e4 7660AFE6 		sxtb	r6, r6
 3066              	.LVL455:
 3067              		.loc 1 978 0
 3068 02e8 2020A0E3 		mov	r2, #32
 3069 02ec D5FFFFEA 		b	.L188
 3070              	.LVL456:
 3071              	.L194:
 3072              		.loc 1 946 0
 3073 02f0 3820A0E3 		mov	r2, #56
 3074              	.LVL457:
 3075 02f4 4810A0E3 		mov	r1, #72
 3076              	.LVL458:
 3077 02f8 FEFFFFEB 		bl	VL53L0X_WrByte
 3078              	.LVL459:
ARM GAS  /var/folders/3j/4xdnk5197cv_b7cw3n33qk7r0000gn/T//ccLoT9Qc.s 			page 55


 3079              		.loc 1 949 0
 3080 02fc 0820A0E3 		mov	r2, #8
 3081 0300 4710A0E3 		mov	r1, #71
 3082 0304 0500A0E1 		mov	r0, r5
 3083 0308 FEFFFFEB 		bl	VL53L0X_WrByte
 3084              	.LVL460:
 3085              		.loc 1 953 0
 3086 030c 0320A0E3 		mov	r2, #3
 3087              		.loc 1 949 0
 3088 0310 0060A0E1 		mov	r6, r0
 3089              	.LVL461:
 3090              		.loc 1 953 0
 3091 0314 3210A0E3 		mov	r1, #50
 3092 0318 0500A0E1 		mov	r0, r5
 3093 031c FEFFFFEB 		bl	VL53L0X_WrByte
 3094              	.LVL462:
 3095              		.loc 1 955 0
 3096 0320 0820A0E3 		mov	r2, #8
 3097 0324 E4FFFFEA 		b	.L187
 3098              	.LVL463:
 3099              	.L195:
 3100              		.loc 1 965 0
 3101 0328 4820A0E3 		mov	r2, #72
 3102              	.LVL464:
 3103 032c 0210A0E1 		mov	r1, r2
 3104              	.LVL465:
 3105 0330 FEFFFFEB 		bl	VL53L0X_WrByte
 3106              	.LVL466:
 3107              		.loc 1 968 0
 3108 0334 0820A0E3 		mov	r2, #8
 3109 0338 4710A0E3 		mov	r1, #71
 3110 033c 0500A0E1 		mov	r0, r5
 3111 0340 FEFFFFEB 		bl	VL53L0X_WrByte
 3112              	.LVL467:
 3113              		.loc 1 972 0
 3114 0344 0320A0E3 		mov	r2, #3
 3115              		.loc 1 968 0
 3116 0348 0060A0E1 		mov	r6, r0
 3117              	.LVL468:
 3118              		.loc 1 972 0
 3119 034c 3210A0E3 		mov	r1, #50
 3120 0350 0500A0E1 		mov	r0, r5
 3121 0354 FEFFFFEB 		bl	VL53L0X_WrByte
 3122              	.LVL469:
 3123              		.loc 1 974 0
 3124 0358 0720A0E3 		mov	r2, #7
 3125 035c D6FFFFEA 		b	.L187
 3126              		.cfi_endproc
 3127              	.LFE18:
 3128              		.size	VL53L0X_set_vcsel_pulse_period, .-VL53L0X_set_vcsel_pulse_period
 3129              		.section	.text.VL53L0X_get_vcsel_pulse_period,"ax",%progbits
 3130              		.align	2
 3131              		.global	VL53L0X_get_vcsel_pulse_period
 3132              		.syntax unified
 3133              		.arm
 3134              		.fpu softvfp
 3135              		.type	VL53L0X_get_vcsel_pulse_period, %function
ARM GAS  /var/folders/3j/4xdnk5197cv_b7cw3n33qk7r0000gn/T//ccLoT9Qc.s 			page 56


 3136              	VL53L0X_get_vcsel_pulse_period:
 3137              	.LFB19:
 3138              		.loc 1 1082 0
 3139              		.cfi_startproc
 3140              		@ args = 0, pretend = 0, frame = 8
 3141              		@ frame_needed = 0, uses_anonymous_args = 0
 3142              	.LVL470:
 3143 0000 10402DE9 		push	{r4, lr}
 3144              		.cfi_def_cfa_offset 8
 3145              		.cfi_offset 4, -8
 3146              		.cfi_offset 14, -4
 3147              		.loc 1 1086 0
 3148 0004 000051E3 		cmp	r1, #0
 3149              	.LVL471:
 3150              		.loc 1 1082 0
 3151 0008 08D04DE2 		sub	sp, sp, #8
 3152              		.cfi_def_cfa_offset 16
 3153              		.loc 1 1082 0
 3154 000c 0240A0E1 		mov	r4, r2
 3155              		.loc 1 1086 0
 3156 0010 0F00000A 		beq	.L199
 3157 0014 010051E3 		cmp	r1, #1
 3158 0018 0A00001A 		bne	.L205
 3159              		.loc 1 1093 0
 3160 001c 07208DE2 		add	r2, sp, #7
 3161              	.LVL472:
 3162 0020 7010A0E3 		mov	r1, #112
 3163 0024 FEFFFFEB 		bl	VL53L0X_RdByte
 3164              	.LVL473:
 3165              	.L201:
 3166              		.loc 1 1101 0
 3167 0028 000050E3 		cmp	r0, #0
 3168 002c 0600001A 		bne	.L198
 3169              	.LBB198:
 3170              	.LBB199:
 3171              		.loc 1 103 0
 3172 0030 0730DDE5 		ldrb	r3, [sp, #7]	@ zero_extendqisi2
 3173 0034 013083E2 		add	r3, r3, #1
 3174 0038 8330A0E1 		lsl	r3, r3, #1
 3175              	.LBE199:
 3176              	.LBE198:
 3177              		.loc 1 1102 0
 3178 003c 0030C4E5 		strb	r3, [r4]
 3179              		.loc 1 1106 0
 3180 0040 08D08DE2 		add	sp, sp, #8
 3181              		.cfi_remember_state
 3182              		.cfi_def_cfa_offset 8
 3183              		@ sp needed
 3184 0044 1080BDE8 		pop	{r4, pc}
 3185              	.LVL474:
 3186              	.L205:
 3187              		.cfi_restore_state
 3188              		.loc 1 1098 0
 3189 0048 0300E0E3 		mvn	r0, #3
 3190              	.LVL475:
 3191              	.L198:
 3192              		.loc 1 1106 0
ARM GAS  /var/folders/3j/4xdnk5197cv_b7cw3n33qk7r0000gn/T//ccLoT9Qc.s 			page 57


 3193 004c 08D08DE2 		add	sp, sp, #8
 3194              		.cfi_remember_state
 3195              		.cfi_def_cfa_offset 8
 3196              		@ sp needed
 3197 0050 1080BDE8 		pop	{r4, pc}
 3198              	.LVL476:
 3199              	.L199:
 3200              		.cfi_restore_state
 3201              		.loc 1 1088 0
 3202 0054 07208DE2 		add	r2, sp, #7
 3203              	.LVL477:
 3204 0058 5010A0E3 		mov	r1, #80
 3205 005c FEFFFFEB 		bl	VL53L0X_RdByte
 3206              	.LVL478:
 3207              		.loc 1 1091 0
 3208 0060 F0FFFFEA 		b	.L201
 3209              		.cfi_endproc
 3210              	.LFE19:
 3211              		.size	VL53L0X_get_vcsel_pulse_period, .-VL53L0X_get_vcsel_pulse_period
 3212              		.section	.text.VL53L0X_set_measurement_timing_budget_micro_seconds,"ax",%progbits
 3213              		.align	2
 3214              		.global	VL53L0X_set_measurement_timing_budget_micro_seconds
 3215              		.syntax unified
 3216              		.arm
 3217              		.fpu softvfp
 3218              		.type	VL53L0X_set_measurement_timing_budget_micro_seconds, %function
 3219              	VL53L0X_set_measurement_timing_budget_micro_seconds:
 3220              	.LFB20:
 3221              		.loc 1 1112 0
 3222              		.cfi_startproc
 3223              		@ args = 0, pretend = 0, frame = 16
 3224              		@ frame_needed = 0, uses_anonymous_args = 0
 3225              	.LVL479:
 3226              		.loc 1 1116 0
 3227 0000 7DCEA0E3 		mov	ip, #2000
 3228              		.loc 1 1124 0
 3229 0004 0030A0E3 		mov	r3, #0
 3230              		.loc 1 1112 0
 3231 0008 F0402DE9 		push	{r4, r5, r6, r7, lr}
 3232              		.cfi_def_cfa_offset 20
 3233              		.cfi_offset 4, -20
 3234              		.cfi_offset 5, -16
 3235              		.cfi_offset 6, -12
 3236              		.cfi_offset 7, -8
 3237              		.cfi_offset 14, -4
 3238              		.loc 1 1130 0
 3239 000c 68219FE5 		ldr	r2, .L237
 3240              		.loc 1 1112 0
 3241 0010 14D04DE2 		sub	sp, sp, #20
 3242              		.cfi_def_cfa_offset 40
 3243              		.loc 1 1130 0
 3244 0014 020051E1 		cmp	r1, r2
 3245              		.loc 1 1116 0
 3246 0018 00C08DE5 		str	ip, [sp]
 3247              	.LVL480:
 3248              		.loc 1 1124 0
 3249 001c 04308DE5 		str	r3, [sp, #4]
ARM GAS  /var/folders/3j/4xdnk5197cv_b7cw3n33qk7r0000gn/T//ccLoT9Qc.s 			page 58


 3250              	.LVL481:
 3251              		.loc 1 1130 0
 3252 0020 5100009A 		bls	.L212
 3253 0024 0140A0E1 		mov	r4, r1
 3254              	.LVL482:
 3255              		.loc 1 1140 0
 3256 0028 08108DE2 		add	r1, sp, #8
 3257              	.LVL483:
 3258 002c 0070A0E1 		mov	r7, r0
 3259 0030 FEFFFFEB 		bl	VL53L0X_GetSequenceStepEnables
 3260              	.LVL484:
 3261              		.loc 1 1142 0
 3262 0034 006050E2 		subs	r6, r0, #0
 3263 0038 1700001A 		bne	.L208
 3264              		.loc 1 1142 0 is_stmt 0 discriminator 1
 3265 003c 0830DDE5 		ldrb	r3, [sp, #8]	@ zero_extendqisi2
 3266              		.loc 1 1136 0 is_stmt 1 discriminator 1
 3267 0040 B35E44E2 		sub	r5, r4, #2864
 3268              		.loc 1 1142 0 discriminator 1
 3269 0044 000053E3 		cmp	r3, #0
 3270              		.loc 1 1136 0 discriminator 1
 3271 0048 065045E2 		sub	r5, r5, #6
 3272              		.loc 1 1142 0 discriminator 1
 3273 004c 1500001A 		bne	.L209
 3274              		.loc 1 1143 0
 3275 0050 0930DDE5 		ldrb	r3, [sp, #9]	@ zero_extendqisi2
 3276 0054 000053E3 		cmp	r3, #0
 3277 0058 1200001A 		bne	.L209
 3278              		.loc 1 1144 0
 3279 005c 0A30DDE5 		ldrb	r3, [sp, #10]	@ zero_extendqisi2
 3280 0060 000053E3 		cmp	r3, #0
 3281 0064 0F00001A 		bne	.L209
 3282              	.LVL485:
 3283              	.L210:
 3284              		.loc 1 1213 0
 3285 0068 0B30DDE5 		ldrb	r3, [sp, #11]	@ zero_extendqisi2
 3286 006c 000053E3 		cmp	r3, #0
 3287 0070 2900001A 		bne	.L234
 3288              	.L214:
 3289              		.loc 1 1233 0 discriminator 1
 3290 0074 0C30DDE5 		ldrb	r3, [sp, #12]	@ zero_extendqisi2
 3291 0078 000053E3 		cmp	r3, #0
 3292 007c 0600000A 		beq	.L208
 3293              	.LVL486:
 3294              	.LBB200:
 3295              	.LBB201:
 3296 0080 892F45E2 		sub	r2, r5, #548
 3297 0084 022042E2 		sub	r2, r2, #2
 3298 0088 0410A0E3 		mov	r1, #4
 3299 008c 0700A0E1 		mov	r0, r7
 3300 0090 FEFFFFEB 		bl	set_sequence_step_timeout.part.1
 3301              	.LVL487:
 3302 0094 0060A0E1 		mov	r6, r0
 3303              	.LVL488:
 3304              	.LBE201:
 3305              	.LBE200:
 3306              		.loc 1 1250 0
ARM GAS  /var/folders/3j/4xdnk5197cv_b7cw3n33qk7r0000gn/T//ccLoT9Qc.s 			page 59


 3307 0098 144087E5 		str	r4, [r7, #20]
 3308              	.LVL489:
 3309              	.L208:
 3310              		.loc 1 1258 0
 3311 009c 0600A0E1 		mov	r0, r6
 3312 00a0 14D08DE2 		add	sp, sp, #20
 3313              		.cfi_remember_state
 3314              		.cfi_def_cfa_offset 20
 3315              		@ sp needed
 3316 00a4 F080BDE8 		pop	{r4, r5, r6, r7, pc}
 3317              	.LVL490:
 3318              	.L209:
 3319              		.cfi_restore_state
 3320              		.loc 1 1148 0
 3321 00a8 0D20A0E1 		mov	r2, sp
 3322 00ac 0210A0E3 		mov	r1, #2
 3323 00b0 0700A0E1 		mov	r0, r7
 3324              	.LVL491:
 3325 00b4 FEFFFFEB 		bl	get_sequence_step_timeout
 3326              	.LVL492:
 3327              		.loc 1 1155 0
 3328 00b8 000050E3 		cmp	r0, #0
 3329              	.LVL493:
 3330 00bc 2000001A 		bne	.L216
 3331              		.loc 1 1159 0
 3332 00c0 0830DDE5 		ldrb	r3, [sp, #8]	@ zero_extendqisi2
 3333 00c4 000053E3 		cmp	r3, #0
 3334 00c8 0500000A 		beq	.L211
 3335              		.loc 1 1161 0
 3336 00cc 00309DE5 		ldr	r3, [sp]
 3337 00d0 933F83E2 		add	r3, r3, #588
 3338 00d4 023083E2 		add	r3, r3, #2
 3339              	.LVL494:
 3340              		.loc 1 1164 0
 3341 00d8 030055E1 		cmp	r5, r3
 3342 00dc 2200009A 		bls	.L212
 3343              		.loc 1 1166 0
 3344 00e0 035045E0 		sub	r5, r5, r3
 3345              	.LVL495:
 3346              	.L211:
 3347              		.loc 1 1180 0
 3348 00e4 0A30DDE5 		ldrb	r3, [sp, #10]	@ zero_extendqisi2
 3349 00e8 000053E3 		cmp	r3, #0
 3350 00ec 1800001A 		bne	.L235
 3351              		.loc 1 1192 0
 3352 00f0 0930DDE5 		ldrb	r3, [sp, #9]	@ zero_extendqisi2
 3353 00f4 000053E3 		cmp	r3, #0
 3354 00f8 DAFFFF0A 		beq	.L210
 3355              		.loc 1 1194 0
 3356 00fc 00309DE5 		ldr	r3, [sp]
 3357 0100 A53F83E2 		add	r3, r3, #660
 3358              	.LVL496:
 3359              		.loc 1 1197 0
 3360 0104 030055E1 		cmp	r5, r3
 3361 0108 1700009A 		bls	.L212
 3362              	.L233:
 3363              		.loc 1 1199 0
ARM GAS  /var/folders/3j/4xdnk5197cv_b7cw3n33qk7r0000gn/T//ccLoT9Qc.s 			page 60


 3364 010c 035045E0 		sub	r5, r5, r3
 3365              	.LVL497:
 3366              		.loc 1 1213 0
 3367 0110 0B30DDE5 		ldrb	r3, [sp, #11]	@ zero_extendqisi2
 3368              	.LVL498:
 3369 0114 000053E3 		cmp	r3, #0
 3370 0118 D5FFFF0A 		beq	.L214
 3371              	.LVL499:
 3372              	.L234:
 3373              		.loc 1 1217 0
 3374 011c 04208DE2 		add	r2, sp, #4
 3375 0120 0310A0E3 		mov	r1, #3
 3376 0124 0700A0E1 		mov	r0, r7
 3377 0128 FEFFFFEB 		bl	get_sequence_step_timeout
 3378              	.LVL500:
 3379              		.loc 1 1221 0
 3380 012c 04309DE5 		ldr	r3, [sp, #4]
 3381 0130 A53F83E2 		add	r3, r3, #660
 3382              	.LVL501:
 3383              		.loc 1 1224 0
 3384 0134 050053E1 		cmp	r3, r5
 3385 0138 0B00002A 		bcs	.L212
 3386              	.LVL502:
 3387              		.loc 1 1233 0
 3388 013c 000050E3 		cmp	r0, #0
 3389 0140 0B00000A 		beq	.L236
 3390              	.LVL503:
 3391              	.L216:
 3392 0144 0060A0E1 		mov	r6, r0
 3393              		.loc 1 1258 0
 3394 0148 0600A0E1 		mov	r0, r6
 3395 014c 14D08DE2 		add	sp, sp, #20
 3396              		.cfi_remember_state
 3397              		.cfi_def_cfa_offset 20
 3398              		@ sp needed
 3399 0150 F080BDE8 		pop	{r4, r5, r6, r7, pc}
 3400              	.LVL504:
 3401              	.L235:
 3402              		.cfi_restore_state
 3403              		.loc 1 1182 0
 3404 0154 00309DE5 		ldr	r3, [sp]
 3405 0158 2B3E83E2 		add	r3, r3, #688
 3406 015c 023083E2 		add	r3, r3, #2
 3407 0160 8330A0E1 		lsl	r3, r3, #1
 3408              	.LVL505:
 3409              		.loc 1 1185 0
 3410 0164 030055E1 		cmp	r5, r3
 3411 0168 E7FFFF8A 		bhi	.L233
 3412              	.LVL506:
 3413              	.L212:
 3414              		.loc 1 1133 0
 3415 016c 0360E0E3 		mvn	r6, #3
 3416 0170 C9FFFFEA 		b	.L208
 3417              	.LVL507:
 3418              	.L236:
 3419              		.loc 1 1225 0
 3420 0174 035045E0 		sub	r5, r5, r3
ARM GAS  /var/folders/3j/4xdnk5197cv_b7cw3n33qk7r0000gn/T//ccLoT9Qc.s 			page 61


 3421              	.LVL508:
 3422 0178 BDFFFFEA 		b	.L214
 3423              	.L238:
 3424              		.align	2
 3425              	.L237:
 3426 017c 1F4E0000 		.word	19999
 3427              		.cfi_endproc
 3428              	.LFE20:
 3429              		.size	VL53L0X_set_measurement_timing_budget_micro_seconds, .-VL53L0X_set_measurement_timing_budget
 3430              		.section	.text.VL53L0X_get_measurement_timing_budget_micro_seconds,"ax",%progbits
 3431              		.align	2
 3432              		.global	VL53L0X_get_measurement_timing_budget_micro_seconds
 3433              		.syntax unified
 3434              		.arm
 3435              		.fpu softvfp
 3436              		.type	VL53L0X_get_measurement_timing_budget_micro_seconds, %function
 3437              	VL53L0X_get_measurement_timing_budget_micro_seconds:
 3438              	.LFB21:
 3439              		.loc 1 1262 0
 3440              		.cfi_startproc
 3441              		@ args = 0, pretend = 0, frame = 24
 3442              		@ frame_needed = 0, uses_anonymous_args = 0
 3443              	.LVL509:
 3444 0000 70402DE9 		push	{r4, r5, r6, lr}
 3445              		.cfi_def_cfa_offset 16
 3446              		.cfi_offset 4, -16
 3447              		.cfi_offset 5, -12
 3448              		.cfi_offset 6, -8
 3449              		.cfi_offset 14, -4
 3450 0004 0140A0E1 		mov	r4, r1
 3451              		.loc 1 1266 0
 3452 0008 7D2EA0E3 		mov	r2, #2000
 3453              		.loc 1 1274 0
 3454 000c 0030A0E3 		mov	r3, #0
 3455              		.loc 1 1280 0
 3456 0010 60C19FE5 		ldr	ip, .L267
 3457              		.loc 1 1262 0
 3458 0014 18D04DE2 		sub	sp, sp, #24
 3459              		.cfi_def_cfa_offset 40
 3460              		.loc 1 1280 0
 3461 0018 00C084E5 		str	ip, [r4]
 3462              		.loc 1 1282 0
 3463 001c 10108DE2 		add	r1, sp, #16
 3464              	.LVL510:
 3465              		.loc 1 1274 0
 3466 0020 F820CDE1 		strd	r2, [sp, #8]
 3467              		.loc 1 1262 0
 3468 0024 0060A0E1 		mov	r6, r0
 3469              		.loc 1 1282 0
 3470 0028 FEFFFFEB 		bl	VL53L0X_GetSequenceStepEnables
 3471              	.LVL511:
 3472              		.loc 1 1284 0
 3473 002c 005050E2 		subs	r5, r0, #0
 3474 0030 1B00001A 		bne	.L252
 3475              		.loc 1 1290 0
 3476 0034 1030DDE5 		ldrb	r3, [sp, #16]	@ zero_extendqisi2
 3477 0038 000053E3 		cmp	r3, #0
ARM GAS  /var/folders/3j/4xdnk5197cv_b7cw3n33qk7r0000gn/T//ccLoT9Qc.s 			page 62


 3478 003c 1B00001A 		bne	.L241
 3479              		.loc 1 1290 0 is_stmt 0 discriminator 1
 3480 0040 1130DDE5 		ldrb	r3, [sp, #17]	@ zero_extendqisi2
 3481 0044 000053E3 		cmp	r3, #0
 3482 0048 1800001A 		bne	.L241
 3483              		.loc 1 1291 0 is_stmt 1
 3484 004c 1230DDE5 		ldrb	r3, [sp, #18]	@ zero_extendqisi2
 3485 0050 000053E3 		cmp	r3, #0
 3486 0054 1500001A 		bne	.L241
 3487              	.LVL512:
 3488              	.L245:
 3489              		.loc 1 1318 0
 3490 0058 1330DDE5 		ldrb	r3, [sp, #19]	@ zero_extendqisi2
 3491 005c 000053E3 		cmp	r3, #0
 3492 0060 0A00000A 		beq	.L249
 3493              		.loc 1 1319 0
 3494 0064 0C208DE2 		add	r2, sp, #12
 3495 0068 0310A0E3 		mov	r1, #3
 3496 006c 0600A0E1 		mov	r0, r6
 3497 0070 FEFFFFEB 		bl	get_sequence_step_timeout
 3498              	.LVL513:
 3499              		.loc 1 1323 0
 3500 0074 0C209DE5 		ldr	r2, [sp, #12]
 3501              		.loc 1 1322 0
 3502 0078 003094E5 		ldr	r3, [r4]
 3503              		.loc 1 1323 0
 3504 007c A52F82E2 		add	r2, r2, #660
 3505              		.loc 1 1322 0
 3506 0080 023083E0 		add	r3, r3, r2
 3507              		.loc 1 1328 0
 3508 0084 000050E3 		cmp	r0, #0
 3509              	.LVL514:
 3510              		.loc 1 1322 0
 3511 0088 003084E5 		str	r3, [r4]
 3512              		.loc 1 1328 0
 3513 008c 2E00001A 		bne	.L251
 3514              	.L249:
 3515              		.loc 1 1329 0
 3516 0090 1430DDE5 		ldrb	r3, [sp, #20]	@ zero_extendqisi2
 3517 0094 000053E3 		cmp	r3, #0
 3518 0098 1F00001A 		bne	.L246
 3519 009c 003094E5 		ldr	r3, [r4]
 3520              	.L247:
 3521              		.loc 1 1340 0
 3522 00a0 143086E5 		str	r3, [r6, #20]
 3523              	.L252:
 3524              		.loc 1 1347 0
 3525 00a4 0500A0E1 		mov	r0, r5
 3526 00a8 18D08DE2 		add	sp, sp, #24
 3527              		.cfi_remember_state
 3528              		.cfi_def_cfa_offset 16
 3529              		@ sp needed
 3530 00ac 7080BDE8 		pop	{r4, r5, r6, pc}
 3531              	.LVL515:
 3532              	.L241:
 3533              		.cfi_restore_state
 3534              		.loc 1 1294 0
ARM GAS  /var/folders/3j/4xdnk5197cv_b7cw3n33qk7r0000gn/T//ccLoT9Qc.s 			page 63


 3535 00b0 08208DE2 		add	r2, sp, #8
 3536 00b4 0210A0E3 		mov	r1, #2
 3537 00b8 0600A0E1 		mov	r0, r6
 3538              	.LVL516:
 3539 00bc FEFFFFEB 		bl	get_sequence_step_timeout
 3540              	.LVL517:
 3541              		.loc 1 1298 0
 3542 00c0 000050E3 		cmp	r0, #0
 3543              	.LVL518:
 3544 00c4 2000001A 		bne	.L251
 3545              		.loc 1 1299 0
 3546 00c8 1030DDE5 		ldrb	r3, [sp, #16]	@ zero_extendqisi2
 3547 00cc 000053E3 		cmp	r3, #0
 3548 00d0 0500000A 		beq	.L243
 3549              		.loc 1 1301 0
 3550 00d4 08209DE5 		ldr	r2, [sp, #8]
 3551              		.loc 1 1300 0
 3552 00d8 003094E5 		ldr	r3, [r4]
 3553              		.loc 1 1301 0
 3554 00dc 932F82E2 		add	r2, r2, #588
 3555 00e0 022082E2 		add	r2, r2, #2
 3556              		.loc 1 1300 0
 3557 00e4 023083E0 		add	r3, r3, r2
 3558 00e8 003084E5 		str	r3, [r4]
 3559              	.L243:
 3560              		.loc 1 1305 0
 3561 00ec 1230DDE5 		ldrb	r3, [sp, #18]	@ zero_extendqisi2
 3562 00f0 000053E3 		cmp	r3, #0
 3563 00f4 1800001A 		bne	.L266
 3564              		.loc 1 1309 0
 3565 00f8 1130DDE5 		ldrb	r3, [sp, #17]	@ zero_extendqisi2
 3566 00fc 000053E3 		cmp	r3, #0
 3567 0100 D4FFFF0A 		beq	.L245
 3568              		.loc 1 1311 0
 3569 0104 08209DE5 		ldr	r2, [sp, #8]
 3570              		.loc 1 1310 0
 3571 0108 003094E5 		ldr	r3, [r4]
 3572              		.loc 1 1311 0
 3573 010c A52F82E2 		add	r2, r2, #660
 3574              		.loc 1 1310 0
 3575 0110 023083E0 		add	r3, r3, r2
 3576 0114 003084E5 		str	r3, [r4]
 3577              	.LVL519:
 3578 0118 CEFFFFEA 		b	.L245
 3579              	.LVL520:
 3580              	.L246:
 3581              		.loc 1 1330 0
 3582 011c 04208DE2 		add	r2, sp, #4
 3583 0120 0410A0E3 		mov	r1, #4
 3584 0124 0600A0E1 		mov	r0, r6
 3585 0128 FEFFFFEB 		bl	get_sequence_step_timeout
 3586              	.LVL521:
 3587              		.loc 1 1334 0
 3588 012c 04209DE5 		ldr	r2, [sp, #4]
 3589              		.loc 1 1333 0
 3590 0130 003094E5 		ldr	r3, [r4]
 3591              		.loc 1 1334 0
ARM GAS  /var/folders/3j/4xdnk5197cv_b7cw3n33qk7r0000gn/T//ccLoT9Qc.s 			page 64


 3592 0134 892F82E2 		add	r2, r2, #548
 3593 0138 022082E2 		add	r2, r2, #2
 3594              		.loc 1 1333 0
 3595 013c 023083E0 		add	r3, r3, r2
 3596              		.loc 1 1339 0
 3597 0140 000050E3 		cmp	r0, #0
 3598              	.LVL522:
 3599              		.loc 1 1333 0
 3600 0144 003084E5 		str	r3, [r4]
 3601              		.loc 1 1339 0
 3602 0148 D4FFFF0A 		beq	.L247
 3603              	.L251:
 3604 014c 0050A0E1 		mov	r5, r0
 3605              		.loc 1 1347 0
 3606 0150 0500A0E1 		mov	r0, r5
 3607 0154 18D08DE2 		add	sp, sp, #24
 3608              		.cfi_remember_state
 3609              		.cfi_def_cfa_offset 16
 3610              		@ sp needed
 3611 0158 7080BDE8 		pop	{r4, r5, r6, pc}
 3612              	.LVL523:
 3613              	.L266:
 3614              		.cfi_restore_state
 3615              		.loc 1 1307 0
 3616 015c 08209DE5 		ldr	r2, [sp, #8]
 3617              		.loc 1 1306 0
 3618 0160 003094E5 		ldr	r3, [r4]
 3619              		.loc 1 1307 0
 3620 0164 2B2E82E2 		add	r2, r2, #688
 3621 0168 022082E2 		add	r2, r2, #2
 3622              		.loc 1 1306 0
 3623 016c 823083E0 		add	r3, r3, r2, lsl #1
 3624 0170 003084E5 		str	r3, [r4]
 3625              	.LVL524:
 3626 0174 B7FFFFEA 		b	.L245
 3627              	.L268:
 3628              		.align	2
 3629              	.L267:
 3630 0178 360B0000 		.word	2870
 3631              		.cfi_endproc
 3632              	.LFE21:
 3633              		.size	VL53L0X_get_measurement_timing_budget_micro_seconds, .-VL53L0X_get_measurement_timing_budget
 3634              		.section	.text.VL53L0X_load_tuning_settings,"ax",%progbits
 3635              		.align	2
 3636              		.global	VL53L0X_load_tuning_settings
 3637              		.syntax unified
 3638              		.arm
 3639              		.fpu softvfp
 3640              		.type	VL53L0X_load_tuning_settings, %function
 3641              	VL53L0X_load_tuning_settings:
 3642              	.LFB22:
 3643              		.loc 1 1353 0
 3644              		.cfi_startproc
 3645              		@ args = 0, pretend = 0, frame = 8
 3646              		@ frame_needed = 0, uses_anonymous_args = 0
 3647              	.LVL525:
 3648              		.loc 1 1369 0
ARM GAS  /var/folders/3j/4xdnk5197cv_b7cw3n33qk7r0000gn/T//ccLoT9Qc.s 			page 65


 3649 0000 0030D1E5 		ldrb	r3, [r1]	@ zero_extendqisi2
 3650 0004 000053E3 		cmp	r3, #0
 3651 0008 5700000A 		beq	.L292
 3652              		.loc 1 1353 0
 3653 000c F0432DE9 		push	{r4, r5, r6, r7, r8, r9, lr}
 3654              		.cfi_def_cfa_offset 28
 3655              		.cfi_offset 4, -28
 3656              		.cfi_offset 5, -24
 3657              		.cfi_offset 6, -20
 3658              		.cfi_offset 7, -16
 3659              		.cfi_offset 8, -12
 3660              		.cfi_offset 9, -8
 3661              		.cfi_offset 14, -4
 3662 0010 0060A0E1 		mov	r6, r0
 3663 0014 0150A0E1 		mov	r5, r1
 3664              		.loc 1 1367 0
 3665 0018 0040A0E3 		mov	r4, #0
 3666              		.loc 1 1353 0
 3667 001c 0CD04DE2 		sub	sp, sp, #12
 3668              		.cfi_def_cfa_offset 40
 3669              		.loc 1 1409 0
 3670 0020 4F8F80E2 		add	r8, r0, #316
 3671              		.loc 1 1401 0
 3672 0024 4E7F80E2 		add	r7, r0, #312
 3673              	.LVL526:
 3674              	.L270:
 3675 0028 01C084E2 		add	ip, r4, #1
 3676              		.loc 1 1392 0
 3677 002c 4D2F86E2 		add	r2, r6, #308
 3678              	.LVL527:
 3679              	.L281:
 3680              		.loc 1 1373 0
 3681 0030 FF0053E3 		cmp	r3, #255
 3682 0034 01104CE2 		sub	r1, ip, #1
 3683              	.LVL528:
 3684 0038 0400000A 		beq	.L293
 3685              		.loc 1 1415 0
 3686 003c 040053E3 		cmp	r3, #4
 3687 0040 0A00009A 		bls	.L294
 3688              	.LVL529:
 3689              	.L284:
 3690              		.loc 1 1429 0
 3691 0044 0300E0E3 		mvn	r0, #3
 3692              		.loc 1 1435 0
 3693 0048 0CD08DE2 		add	sp, sp, #12
 3694              		.cfi_remember_state
 3695              		.cfi_def_cfa_offset 28
 3696              		@ sp needed
 3697 004c F083BDE8 		pop	{r4, r5, r6, r7, r8, r9, pc}
 3698              	.LVL530:
 3699              	.L293:
 3700              		.cfi_restore_state
 3701              		.loc 1 1377 0
 3702 0050 0C30D5E7 		ldrb	r3, [r5, ip]	@ zero_extendqisi2
 3703              	.LVL531:
 3704 0054 030053E3 		cmp	r3, #3
 3705 0058 03F19F97 		ldrls	pc, [pc, r3, asl #2]
ARM GAS  /var/folders/3j/4xdnk5197cv_b7cw3n33qk7r0000gn/T//ccLoT9Qc.s 			page 66


 3706 005c F8FFFFEA 		b	.L284
 3707              	.L275:
 3708 0060 48010000 		.word	.L274
 3709 0064 24010000 		.word	.L276
 3710 0068 F8000000 		.word	.L277
 3711 006c D0000000 		.word	.L278
 3712              	.LVL532:
 3713              	.L294:
 3714              		.loc 1 1416 0
 3715 0070 0520A0E1 		mov	r2, r5
 3716 0074 010085E2 		add	r0, r5, #1
 3717 0078 010080E0 		add	r0, r0, r1
 3718 007c 04E08DE2 		add	lr, sp, #4
 3719 0080 0C10F2E7 		ldrb	r1, [r2, ip]!	@ zero_extendqisi2
 3720              	.LVL533:
 3721 0084 030080E0 		add	r0, r0, r3
 3722              		.loc 1 1417 0
 3723 0088 01C08CE2 		add	ip, ip, #1
 3724              	.LVL534:
 3725              	.L280:
 3726              		.loc 1 1420 0 discriminator 3
 3727 008c 0190F2E5 		ldrb	r9, [r2, #1]!	@ zero_extendqisi2
 3728              		.loc 1 1419 0 discriminator 3
 3729 0090 000052E1 		cmp	r2, r0
 3730              		.loc 1 1420 0 discriminator 3
 3731 0094 0190CEE4 		strb	r9, [lr], #1
 3732              		.loc 1 1419 0 discriminator 3
 3733 0098 FBFFFF1A 		bne	.L280
 3734              		.loc 1 1425 0
 3735 009c 04208DE2 		add	r2, sp, #4
 3736 00a0 0600A0E1 		mov	r0, r6
 3737 00a4 03408CE0 		add	r4, ip, r3
 3738 00a8 FEFFFFEB 		bl	VL53L0X_WriteMulti
 3739              	.LVL535:
 3740              		.loc 1 1369 0
 3741 00ac 0430D5E7 		ldrb	r3, [r5, r4]	@ zero_extendqisi2
 3742 00b0 002093E2 		adds	r2, r3, #0
 3743 00b4 0120A013 		movne	r2, #1
 3744 00b8 000050E3 		cmp	r0, #0
 3745 00bc 0020A013 		movne	r2, #0
 3746 00c0 000052E3 		cmp	r2, #0
 3747 00c4 D7FFFF1A 		bne	.L270
 3748              		.loc 1 1435 0
 3749 00c8 0CD08DE2 		add	sp, sp, #12
 3750              		.cfi_remember_state
 3751              		.cfi_def_cfa_offset 28
 3752              		@ sp needed
 3753 00cc F083BDE8 		pop	{r4, r5, r6, r7, r8, r9, pc}
 3754              	.LVL536:
 3755              	.L278:
 3756              		.cfi_restore_state
 3757 00d0 0C3085E0 		add	r3, r5, ip
 3758              	.LVL537:
 3759              		.loc 1 1408 0
 3760 00d4 0100D3E5 		ldrb	r0, [r3, #1]	@ zero_extendqisi2
 3761 00d8 0210D3E5 		ldrb	r1, [r3, #2]	@ zero_extendqisi2
 3762 00dc 001481E0 		add	r1, r1, r0, lsl #8
ARM GAS  /var/folders/3j/4xdnk5197cv_b7cw3n33qk7r0000gn/T//ccLoT9Qc.s 			page 67


 3763              		.loc 1 1409 0
 3764 00e0 B010C8E1 		strh	r1, [r8]	@ movhi
 3765              	.LVL538:
 3766              		.loc 1 1369 0
 3767 00e4 0330D3E5 		ldrb	r3, [r3, #3]	@ zero_extendqisi2
 3768 00e8 000053E3 		cmp	r3, #0
 3769 00ec 0900000A 		beq	.L271
 3770              	.LVL539:
 3771              	.L279:
 3772 00f0 04C08CE2 		add	ip, ip, #4
 3773 00f4 CDFFFFEA 		b	.L281
 3774              	.LVL540:
 3775              	.L277:
 3776 00f8 0C3085E0 		add	r3, r5, ip
 3777              	.LVL541:
 3778              		.loc 1 1400 0
 3779 00fc 0100D3E5 		ldrb	r0, [r3, #1]	@ zero_extendqisi2
 3780 0100 0210D3E5 		ldrb	r1, [r3, #2]	@ zero_extendqisi2
 3781 0104 001481E0 		add	r1, r1, r0, lsl #8
 3782              		.loc 1 1401 0
 3783 0108 B010C7E1 		strh	r1, [r7]	@ movhi
 3784              	.LVL542:
 3785              		.loc 1 1369 0
 3786 010c 0330D3E5 		ldrb	r3, [r3, #3]	@ zero_extendqisi2
 3787 0110 000053E3 		cmp	r3, #0
 3788 0114 F5FFFF1A 		bne	.L279
 3789              	.LVL543:
 3790              	.L271:
 3791              		.loc 1 1354 0
 3792 0118 0000A0E3 		mov	r0, #0
 3793              		.loc 1 1435 0
 3794 011c 0CD08DE2 		add	sp, sp, #12
 3795              		.cfi_remember_state
 3796              		.cfi_def_cfa_offset 28
 3797              		@ sp needed
 3798 0120 F083BDE8 		pop	{r4, r5, r6, r7, r8, r9, pc}
 3799              	.LVL544:
 3800              	.L276:
 3801              		.cfi_restore_state
 3802 0124 0C3085E0 		add	r3, r5, ip
 3803              	.LVL545:
 3804              		.loc 1 1391 0
 3805 0128 0100D3E5 		ldrb	r0, [r3, #1]	@ zero_extendqisi2
 3806 012c 0210D3E5 		ldrb	r1, [r3, #2]	@ zero_extendqisi2
 3807 0130 001481E0 		add	r1, r1, r0, lsl #8
 3808              		.loc 1 1392 0
 3809 0134 B210C2E1 		strh	r1, [r2, #2]	@ movhi
 3810              	.LVL546:
 3811              		.loc 1 1369 0
 3812 0138 0330D3E5 		ldrb	r3, [r3, #3]	@ zero_extendqisi2
 3813 013c 000053E3 		cmp	r3, #0
 3814 0140 EAFFFF1A 		bne	.L279
 3815 0144 F3FFFFEA 		b	.L271
 3816              	.LVL547:
 3817              	.L274:
 3818 0148 0C3085E0 		add	r3, r5, ip
 3819              	.LVL548:
ARM GAS  /var/folders/3j/4xdnk5197cv_b7cw3n33qk7r0000gn/T//ccLoT9Qc.s 			page 68


 3820              		.loc 1 1383 0
 3821 014c 0100D3E5 		ldrb	r0, [r3, #1]	@ zero_extendqisi2
 3822 0150 0210D3E5 		ldrb	r1, [r3, #2]	@ zero_extendqisi2
 3823 0154 001481E0 		add	r1, r1, r0, lsl #8
 3824              		.loc 1 1384 0
 3825 0158 B010C2E1 		strh	r1, [r2]	@ movhi
 3826              	.LVL549:
 3827              		.loc 1 1369 0
 3828 015c 0330D3E5 		ldrb	r3, [r3, #3]	@ zero_extendqisi2
 3829 0160 000053E3 		cmp	r3, #0
 3830 0164 E1FFFF1A 		bne	.L279
 3831 0168 EAFFFFEA 		b	.L271
 3832              	.LVL550:
 3833              	.L292:
 3834              		.cfi_def_cfa_offset 0
 3835              		.cfi_restore 4
 3836              		.cfi_restore 5
 3837              		.cfi_restore 6
 3838              		.cfi_restore 7
 3839              		.cfi_restore 8
 3840              		.cfi_restore 9
 3841              		.cfi_restore 14
 3842              		.loc 1 1354 0
 3843 016c 0000A0E3 		mov	r0, #0
 3844              	.LVL551:
 3845              		.loc 1 1435 0
 3846 0170 1EFF2FE1 		bx	lr
 3847              		.cfi_endproc
 3848              	.LFE22:
 3849              		.size	VL53L0X_load_tuning_settings, .-VL53L0X_load_tuning_settings
 3850              		.section	.text.VL53L0X_get_total_xtalk_rate,"ax",%progbits
 3851              		.align	2
 3852              		.global	VL53L0X_get_total_xtalk_rate
 3853              		.syntax unified
 3854              		.arm
 3855              		.fpu softvfp
 3856              		.type	VL53L0X_get_total_xtalk_rate, %function
 3857              	VL53L0X_get_total_xtalk_rate:
 3858              	.LFB23:
 3859              		.loc 1 1440 0
 3860              		.cfi_startproc
 3861              		@ args = 0, pretend = 0, frame = 8
 3862              		@ frame_needed = 0, uses_anonymous_args = 0
 3863              	.LVL552:
 3864              		.loc 1 1447 0
 3865 0000 0030A0E3 		mov	r3, #0
 3866              		.loc 1 1440 0
 3867 0004 70402DE9 		push	{r4, r5, r6, lr}
 3868              		.cfi_def_cfa_offset 16
 3869              		.cfi_offset 4, -16
 3870              		.cfi_offset 5, -12
 3871              		.cfi_offset 6, -8
 3872              		.cfi_offset 14, -4
 3873 0008 08D04DE2 		sub	sp, sp, #8
 3874              		.cfi_def_cfa_offset 24
 3875              		.loc 1 1440 0
 3876 000c 0160A0E1 		mov	r6, r1
ARM GAS  /var/folders/3j/4xdnk5197cv_b7cw3n33qk7r0000gn/T//ccLoT9Qc.s 			page 69


 3877              		.loc 1 1447 0
 3878 0010 003082E5 		str	r3, [r2]
 3879              		.loc 1 1449 0
 3880 0014 07108DE2 		add	r1, sp, #7
 3881              	.LVL553:
 3882              		.loc 1 1440 0
 3883 0018 0240A0E1 		mov	r4, r2
 3884 001c 0050A0E1 		mov	r5, r0
 3885              		.loc 1 1449 0
 3886 0020 FEFFFFEB 		bl	VL53L0X_GetXTalkCompensationEnable
 3887              	.LVL554:
 3888              		.loc 1 1450 0
 3889 0024 000050E3 		cmp	r0, #0
 3890              	.LVL555:
 3891 0028 0800001A 		bne	.L296
 3892              		.loc 1 1452 0
 3893 002c 0730DDE5 		ldrb	r3, [sp, #7]	@ zero_extendqisi2
 3894 0030 000053E3 		cmp	r3, #0
 3895 0034 0500000A 		beq	.L296
 3896              	.LVL556:
 3897              	.LBB204:
 3898              	.LBB205:
 3899              		.loc 1 1461 0
 3900 0038 B421D6E1 		ldrh	r2, [r6, #20]
 3901              		.loc 1 1460 0
 3902 003c 203095E5 		ldr	r3, [r5, #32]
 3903 0040 930203E0 		mul	r3, r3, r2
 3904              	.LVL557:
 3905              		.loc 1 1466 0
 3906 0044 803083E2 		add	r3, r3, #128
 3907              	.LVL558:
 3908 0048 2334A0E1 		lsr	r3, r3, #8
 3909              	.LVL559:
 3910              		.loc 1 1465 0
 3911 004c 003084E5 		str	r3, [r4]
 3912              	.LVL560:
 3913              	.L296:
 3914              	.LBE205:
 3915              	.LBE204:
 3916              		.loc 1 1471 0
 3917 0050 08D08DE2 		add	sp, sp, #8
 3918              		.cfi_def_cfa_offset 16
 3919              		@ sp needed
 3920 0054 7080BDE8 		pop	{r4, r5, r6, pc}
 3921              		.cfi_endproc
 3922              	.LFE23:
 3923              		.size	VL53L0X_get_total_xtalk_rate, .-VL53L0X_get_total_xtalk_rate
 3924              		.section	.text.VL53L0X_get_total_signal_rate,"ax",%progbits
 3925              		.align	2
 3926              		.global	VL53L0X_get_total_signal_rate
 3927              		.syntax unified
 3928              		.arm
 3929              		.fpu softvfp
 3930              		.type	VL53L0X_get_total_signal_rate, %function
 3931              	VL53L0X_get_total_signal_rate:
 3932              	.LFB24:
 3933              		.loc 1 1476 0
ARM GAS  /var/folders/3j/4xdnk5197cv_b7cw3n33qk7r0000gn/T//ccLoT9Qc.s 			page 70


 3934              		.cfi_startproc
 3935              		@ args = 0, pretend = 0, frame = 8
 3936              		@ frame_needed = 0, uses_anonymous_args = 0
 3937              	.LVL561:
 3938 0000 10402DE9 		push	{r4, lr}
 3939              		.cfi_def_cfa_offset 8
 3940              		.cfi_offset 4, -8
 3941              		.cfi_offset 14, -4
 3942 0004 0240A0E1 		mov	r4, r2
 3943              		.loc 1 1483 0
 3944 0008 0C3091E5 		ldr	r3, [r1, #12]
 3945              		.loc 1 1476 0
 3946 000c 08D04DE2 		sub	sp, sp, #8
 3947              		.cfi_def_cfa_offset 16
 3948              		.loc 1 1485 0
 3949 0010 04208DE2 		add	r2, sp, #4
 3950              	.LVL562:
 3951              		.loc 1 1482 0
 3952 0014 003084E5 		str	r3, [r4]
 3953              		.loc 1 1485 0
 3954 0018 FEFFFFEB 		bl	VL53L0X_get_total_xtalk_rate
 3955              	.LVL563:
 3956              		.loc 1 1488 0
 3957 001c 000050E3 		cmp	r0, #0
 3958              	.LVL564:
 3959              		.loc 1 1489 0
 3960 0020 00309405 		ldreq	r3, [r4]
 3961 0024 04209D05 		ldreq	r2, [sp, #4]
 3962 0028 02308300 		addeq	r3, r3, r2
 3963 002c 00308405 		streq	r3, [r4]
 3964              		.loc 1 1492 0
 3965 0030 08D08DE2 		add	sp, sp, #8
 3966              		.cfi_def_cfa_offset 8
 3967              		@ sp needed
 3968 0034 1080BDE8 		pop	{r4, pc}
 3969              		.cfi_endproc
 3970              	.LFE24:
 3971              		.size	VL53L0X_get_total_signal_rate, .-VL53L0X_get_total_signal_rate
 3972              		.section	.text.VL53L0X_calc_dmax,"ax",%progbits
 3973              		.align	2
 3974              		.global	VL53L0X_calc_dmax
 3975              		.syntax unified
 3976              		.arm
 3977              		.fpu softvfp
 3978              		.type	VL53L0X_calc_dmax, %function
 3979              	VL53L0X_calc_dmax:
 3980              	.LFB25:
 3981              		.loc 1 1503 0
 3982              		.cfi_startproc
 3983              		@ args = 16, pretend = 0, frame = 0
 3984              		@ frame_needed = 0, uses_anonymous_args = 0
 3985              	.LVL565:
 3986              		.loc 1 1531 0
 3987 0000 55CF80E2 		add	ip, r0, #340
 3988              		.loc 1 1530 0
 3989 0004 B0C0DCE1 		ldrh	ip, [ip]
 3990              	.LVL566:
ARM GAS  /var/folders/3j/4xdnk5197cv_b7cw3n33qk7r0000gn/T//ccLoT9Qc.s 			page 71


 3991              		.loc 1 1537 0
 3992 0008 580190E5 		ldr	r0, [r0, #344]
 3993              	.LVL567:
 3994              		.loc 1 1503 0
 3995 000c F0472DE9 		push	{r4, r5, r6, r7, r8, r9, r10, lr}
 3996              		.cfi_def_cfa_offset 32
 3997              		.cfi_offset 4, -32
 3998              		.cfi_offset 5, -28
 3999              		.cfi_offset 6, -24
 4000              		.cfi_offset 7, -20
 4001              		.cfi_offset 8, -16
 4002              		.cfi_offset 9, -12
 4003              		.cfi_offset 10, -8
 4004              		.cfi_offset 14, -4
 4005              		.loc 1 1537 0
 4006 0010 900C06E0 		mul	r6, r0, ip
 4007              	.LVL568:
 4008              		.loc 1 1540 0
 4009 0014 806086E2 		add	r6, r6, #128
 4010              	.LVL569:
 4011 0018 2664A0E1 		lsr	r6, r6, #8
 4012              	.LVL570:
 4013              		.loc 1 1503 0
 4014 001c 20408DE2 		add	r4, sp, #32
 4015              		.loc 1 1544 0
 4016 0020 007052E2 		subs	r7, r2, #0
 4017              		.loc 1 1503 0
 4018 0024 03A0A0E1 		mov	r10, r3
 4019 0028 100394E8 		ldm	r4, {r4, r8, r9}
 4020              		.loc 1 1541 0
 4021 002c 960C06E0 		mul	r6, r6, ip
 4022              	.LVL571:
 4023              		.loc 1 1503 0
 4024 0030 2C509DE5 		ldr	r5, [sp, #44]
 4025              		.loc 1 1544 0
 4026 0034 0700000A 		beq	.L305
 4027              	.LVL572:
 4028              		.loc 1 1548 0
 4029 0038 0115A0E1 		lsl	r1, r1, #10
 4030              	.LVL573:
 4031              		.loc 1 1555 0
 4032 003c A70081E0 		add	r0, r1, r7, lsr #1
 4033              	.LVL574:
 4034 0040 0710A0E1 		mov	r1, r7
 4035              	.LVL575:
 4036 0044 FEFFFFEB 		bl	__aeabi_uidiv
 4037              	.LVL576:
 4038              		.loc 1 1559 0
 4039 0048 800080E0 		add	r0, r0, r0, lsl #1
 4040              	.LVL577:
 4041              		.loc 1 1562 0
 4042 004c 900000E0 		mul	r0, r0, r0
 4043              	.LVL578:
 4044              		.loc 1 1565 0
 4045 0050 027980E2 		add	r7, r0, #32768
 4046              	.LVL579:
 4047 0054 2778A0E1 		lsr	r7, r7, #16
ARM GAS  /var/folders/3j/4xdnk5197cv_b7cw3n33qk7r0000gn/T//ccLoT9Qc.s 			page 72


 4048              	.LVL580:
 4049              	.L305:
 4050              		.loc 1 1581 0
 4051 0058 022988E2 		add	r2, r8, #32768
 4052              		.loc 1 1582 0
 4053 005c 54119FE5 		ldr	r1, .L333
 4054              		.loc 1 1581 0
 4055 0060 2228A0E1 		lsr	r2, r2, #16
 4056              		.loc 1 1582 0
 4057 0064 032082E2 		add	r2, r2, #3
 4058 0068 922183E0 		umull	r2, r3, r2, r1
 4059 006c 2331A0E1 		lsr	r3, r3, #2
 4060              		.loc 1 1584 0
 4061 0070 833163E0 		rsb	r3, r3, r3, lsl #3
 4062              		.loc 1 1586 0
 4063 0074 010853E3 		cmp	r3, #65536
 4064              		.loc 1 1594 0
 4065 0078 03808832 		addcc	r8, r8, #3
 4066 007c 98218330 		umullcc	r2, r3, r8, r1
 4067              		.loc 1 1568 0
 4068 0080 940A00E0 		mul	r0, r4, r10
 4069              	.LVL581:
 4070              		.loc 1 1594 0
 4071 0084 2331A031 		lsrcc	r3, r3, #2
 4072              		.loc 1 1596 0
 4073 0088 83316330 		rsbcc	r3, r3, r3, lsl #3
 4074              		.loc 1 1571 0
 4075 008c 020980E2 		add	r0, r0, #32768
 4076              	.LVL582:
 4077              		.loc 1 1599 0
 4078 0090 02398332 		addcc	r3, r3, #32768
 4079              		.loc 1 1571 0
 4080 0094 2008A0E1 		lsr	r0, r0, #16
 4081              	.LVL583:
 4082              		.loc 1 1599 0
 4083 0098 2338A031 		lsrcc	r3, r3, #16
 4084              		.loc 1 1574 0
 4085 009c 900000E0 		mul	r0, r0, r0
 4086              	.LVL584:
 4087              		.loc 1 1601 0
 4088 00a0 93030330 		mulcc	r3, r3, r3
 4089              	.LVL585:
 4090              		.loc 1 1587 0
 4091 00a4 10319F25 		ldrcs	r3, .L333+4
 4092              	.LVL586:
 4093              		.loc 1 1630 0
 4094 00a8 A90080E0 		add	r0, r0, r9, lsr #1
 4095              	.LVL587:
 4096              		.loc 1 1631 0
 4097 00ac 030080E0 		add	r0, r0, r3
 4098              	.LVL588:
 4099 00b0 0910A0E1 		mov	r1, r9
 4100 00b4 FEFFFFEB 		bl	__aeabi_uidiv
 4101              	.LVL589:
 4102              	.LBB206:
 4103              	.LBB207:
 4104              		.loc 1 132 0
ARM GAS  /var/folders/3j/4xdnk5197cv_b7cw3n33qk7r0000gn/T//ccLoT9Qc.s 			page 73


 4105 00b8 0131A0E3 		mov	r3, #1073741824
 4106              	.LBE207:
 4107              	.LBE206:
 4108              		.loc 1 1634 0
 4109 00bc 0007A0E1 		lsl	r0, r0, #14
 4110              	.LVL590:
 4111              		.loc 1 1638 0
 4112 00c0 F8209FE5 		ldr	r2, .L333+8
 4113              		.loc 1 1637 0
 4114 00c4 7F0080E2 		add	r0, r0, #127
 4115              	.LVL591:
 4116              		.loc 1 1638 0
 4117 00c8 A000A0E1 		lsr	r0, r0, #1
 4118              	.LVL592:
 4119 00cc 900281E0 		umull	r0, r1, r0, r2
 4120 00d0 2103A0E1 		lsr	r0, r1, #6
 4121              	.LVL593:
 4122              		.loc 1 1641 0
 4123 00d4 900700E0 		mul	r0, r0, r7
 4124              	.LVL594:
 4125              		.loc 1 1650 0
 4126 00d8 E4209FE5 		ldr	r2, .L333+12
 4127 00dc 7D0F80E2 		add	r0, r0, #500
 4128              	.LVL595:
 4129 00e0 900281E0 		umull	r0, r1, r0, r2
 4130              	.LVL596:
 4131 00e4 2113A0E1 		lsr	r1, r1, #6
 4132              	.LVL597:
 4133              		.loc 1 1651 0
 4134 00e8 0112A0E1 		lsl	r1, r1, #4
 4135              	.LVL598:
 4136              		.loc 1 1653 0
 4137 00ec 7DCF81E2 		add	ip, r1, #500
 4138 00f0 9C0281E0 		umull	r0, r1, ip, r2
 4139              		.loc 1 1660 0
 4140 00f4 202086E2 		add	r2, r6, #32
 4141              		.loc 1 1653 0
 4142 00f8 2113A0E1 		lsr	r1, r1, #6
 4143              	.LVL599:
 4144              		.loc 1 1660 0
 4145 00fc 2223A0E1 		lsr	r2, r2, #6
 4146              	.LVL600:
 4147              	.L307:
 4148              	.LBB210:
 4149              	.LBB208:
 4150              		.loc 1 138 0
 4151 0100 2331A0E1 		lsr	r3, r3, #2
 4152              	.LVL601:
 4153              		.loc 1 137 0
 4154 0104 030052E1 		cmp	r2, r3
 4155 0108 FCFFFF3A 		bcc	.L307
 4156              		.loc 1 141 0
 4157 010c 000053E3 		cmp	r3, #0
 4158              		.loc 1 131 0
 4159 0110 0340A001 		moveq	r4, r3
 4160              	.LVL602:
 4161              		.loc 1 141 0
ARM GAS  /var/folders/3j/4xdnk5197cv_b7cw3n33qk7r0000gn/T//ccLoT9Qc.s 			page 74


 4162 0114 0700000A 		beq	.L308
 4163              		.loc 1 131 0
 4164 0118 0040A0E3 		mov	r4, #0
 4165              	.LVL603:
 4166              	.L310:
 4167              		.loc 1 142 0
 4168 011c 040083E0 		add	r0, r3, r4
 4169 0120 020050E1 		cmp	r0, r2
 4170 0124 A440A0E1 		lsr	r4, r4, #1
 4171              	.LVL604:
 4172              		.loc 1 143 0
 4173 0128 00204290 		subls	r2, r2, r0
 4174              	.LVL605:
 4175              		.loc 1 144 0
 4176 012c 03408490 		addls	r4, r4, r3
 4177              	.LVL606:
 4178              		.loc 1 141 0
 4179 0130 2331B0E1 		lsrs	r3, r3, #2
 4180              	.LVL607:
 4181 0134 F8FFFF1A 		bne	.L310
 4182              	.LVL608:
 4183              	.L308:
 4184              	.LBE208:
 4185              	.LBE210:
 4186              		.loc 1 1668 0
 4187 0138 000051E3 		cmp	r1, #0
 4188 013c 0600000A 		beq	.L311
 4189              		.loc 1 1669 0
 4190 0140 7C209FE5 		ldr	r2, .L333+12
 4191 0144 9C2283E0 		umull	r2, r3, ip, r2
 4192 0148 A30386E0 		add	r0, r6, r3, lsr #7
 4193 014c FEFFFFEB 		bl	__aeabi_uidiv
 4194              	.LVL609:
 4195              	.LBB211:
 4196              	.LBB212:
 4197              		.loc 1 137 0
 4198 0150 070170E3 		cmn	r0, #-1073741823
 4199              	.LBE212:
 4200              	.LBE211:
 4201              		.loc 1 1669 0
 4202 0154 0010A0E1 		mov	r1, r0
 4203              	.LVL610:
 4204              	.LBB216:
 4205              	.LBB213:
 4206              		.loc 1 137 0
 4207 0158 1200008A 		bhi	.L319
 4208              	.LVL611:
 4209              	.L311:
 4210              	.LBE213:
 4211              	.LBE216:
 4212              	.LBB217:
 4213              	.LBB209:
 4214              		.loc 1 131 0
 4215 015c 0131A0E3 		mov	r3, #1073741824
 4216              	.L313:
 4217              	.LVL612:
 4218              	.LBE209:
ARM GAS  /var/folders/3j/4xdnk5197cv_b7cw3n33qk7r0000gn/T//ccLoT9Qc.s 			page 75


 4219              	.LBE217:
 4220              	.LBB218:
 4221              	.LBB214:
 4222              		.loc 1 138 0
 4223 0160 2331A0E1 		lsr	r3, r3, #2
 4224              	.LVL613:
 4225              		.loc 1 137 0
 4226 0164 010053E1 		cmp	r3, r1
 4227 0168 FCFFFF8A 		bhi	.L313
 4228              	.LVL614:
 4229              		.loc 1 141 0
 4230 016c 000053E3 		cmp	r3, #0
 4231 0170 0E00000A 		beq	.L332
 4232              	.LVL615:
 4233              	.L312:
 4234              		.loc 1 132 0
 4235 0174 0020A0E3 		mov	r2, #0
 4236              	.LVL616:
 4237              	.L316:
 4238              		.loc 1 142 0
 4239 0178 030082E0 		add	r0, r2, r3
 4240 017c 010050E1 		cmp	r0, r1
 4241 0180 A220A0E1 		lsr	r2, r2, #1
 4242              	.LVL617:
 4243              		.loc 1 143 0
 4244 0184 00104190 		subls	r1, r1, r0
 4245              	.LVL618:
 4246              		.loc 1 144 0
 4247 0188 03208290 		addls	r2, r2, r3
 4248              	.LVL619:
 4249              		.loc 1 141 0
 4250 018c 2331B0E1 		lsrs	r3, r3, #2
 4251              	.LVL620:
 4252 0190 F8FFFF1A 		bne	.L316
 4253              	.LVL621:
 4254              	.L314:
 4255 0194 040052E1 		cmp	r2, r4
 4256 0198 0420A021 		movcs	r2, r4
 4257              	.LBE214:
 4258              	.LBE218:
 4259              		.loc 1 1683 0
 4260 019c 0000A0E3 		mov	r0, #0
 4261 01a0 002085E5 		str	r2, [r5]
 4262 01a4 F087BDE8 		pop	{r4, r5, r6, r7, r8, r9, r10, pc}
 4263              	.LVL622:
 4264              	.L319:
 4265              	.LBB219:
 4266              	.LBB215:
 4267              		.loc 1 132 0
 4268 01a8 0131A0E3 		mov	r3, #1073741824
 4269 01ac F0FFFFEA 		b	.L312
 4270              	.LVL623:
 4271              	.L332:
 4272              		.loc 1 131 0
 4273 01b0 0320A0E1 		mov	r2, r3
 4274 01b4 F6FFFFEA 		b	.L314
 4275              	.L334:
ARM GAS  /var/folders/3j/4xdnk5197cv_b7cw3n33qk7r0000gn/T//ccLoT9Qc.s 			page 76


 4276              		.align	2
 4277              	.L333:
 4278 01b8 ABAAAAAA 		.word	-1431655765
 4279 01bc 0000F0FF 		.word	-1048576
 4280 01c0 09040281 		.word	-2130574327
 4281 01c4 D34D6210 		.word	274877907
 4282              	.LBE215:
 4283              	.LBE219:
 4284              		.cfi_endproc
 4285              	.LFE25:
 4286              		.size	VL53L0X_calc_dmax, .-VL53L0X_calc_dmax
 4287              		.global	__aeabi_idiv
 4288              		.section	.text.VL53L0X_calc_sigma_estimate,"ax",%progbits
 4289              		.align	2
 4290              		.global	VL53L0X_calc_sigma_estimate
 4291              		.syntax unified
 4292              		.arm
 4293              		.fpu softvfp
 4294              		.type	VL53L0X_calc_sigma_estimate, %function
 4295              	VL53L0X_calc_sigma_estimate:
 4296              	.LFB26:
 4297              		.loc 1 1690 0
 4298              		.cfi_startproc
 4299              		@ args = 0, pretend = 0, frame = 40
 4300              		@ frame_needed = 0, uses_anonymous_args = 0
 4301              	.LVL624:
 4302 0000 F04F2DE9 		push	{r4, r5, r6, r7, r8, r9, r10, fp, lr}
 4303              		.cfi_def_cfa_offset 36
 4304              		.cfi_offset 4, -36
 4305              		.cfi_offset 5, -32
 4306              		.cfi_offset 6, -28
 4307              		.cfi_offset 7, -24
 4308              		.cfi_offset 8, -20
 4309              		.cfi_offset 9, -16
 4310              		.cfi_offset 10, -12
 4311              		.cfi_offset 11, -8
 4312              		.cfi_offset 14, -4
 4313              		.loc 1 1748 0
 4314 0004 20C090E5 		ldr	ip, [r0, #32]
 4315              		.loc 1 1690 0
 4316 0008 3CD04DE2 		sub	sp, sp, #60
 4317              		.cfi_def_cfa_offset 96
 4318              		.loc 1 1690 0
 4319 000c 02B0A0E1 		mov	fp, r2
 4320              	.LBB220:
 4321              	.LBB221:
 4322              		.loc 1 1485 0
 4323 0010 34208DE2 		add	r2, sp, #52
 4324              	.LVL625:
 4325              	.LBE221:
 4326              	.LBE220:
 4327              		.loc 1 1759 0
 4328 0014 0C7091E5 		ldr	r7, [r1, #12]
 4329              		.loc 1 1690 0
 4330 0018 0040A0E1 		mov	r4, r0
 4331 001c 0150A0E1 		mov	r5, r1
 4332 0020 14308DE5 		str	r3, [sp, #20]
ARM GAS  /var/folders/3j/4xdnk5197cv_b7cw3n33qk7r0000gn/T//ccLoT9Qc.s 			page 77


 4333              		.loc 1 1748 0
 4334 0024 30C08DE5 		str	ip, [sp, #48]
 4335              		.loc 1 1757 0
 4336 0028 108091E5 		ldr	r8, [r1, #16]
 4337              	.LVL626:
 4338              	.LBB224:
 4339              	.LBB222:
 4340              		.loc 1 1485 0
 4341 002c FEFFFFEB 		bl	VL53L0X_get_total_xtalk_rate
 4342              	.LVL627:
 4343              		.loc 1 1488 0
 4344 0030 000050E3 		cmp	r0, #0
 4345              		.loc 1 1489 0
 4346 0034 34909D05 		ldreq	r9, [sp, #52]
 4347              	.LBE222:
 4348              	.LBE224:
 4349              		.loc 1 1765 0
 4350 0038 30208DE2 		add	r2, sp, #48
 4351 003c 0510A0E1 		mov	r1, r5
 4352 0040 0400A0E1 		mov	r0, r4
 4353              	.LVL628:
 4354              	.LBB225:
 4355              	.LBB223:
 4356              		.loc 1 1489 0
 4357 0044 09908700 		addeq	r9, r7, r9
 4358              	.LVL629:
 4359              		.loc 1 1482 0
 4360 0048 0790A011 		movne	r9, r7
 4361              	.LVL630:
 4362              	.LBE223:
 4363              	.LBE225:
 4364              		.loc 1 1765 0
 4365 004c FEFFFFEB 		bl	VL53L0X_get_total_xtalk_rate
 4366              	.LVL631:
 4367              		.loc 1 1780 0
 4368 0050 000050E3 		cmp	r0, #0
 4369              	.LVL632:
 4370 0054 F700001A 		bne	.L337
 4371              	.LVL633:
 4372              		.loc 1 1786 0
 4373 0058 E060D4E5 		ldrb	r6, [r4, #224]	@ zero_extendqisi2
 4374              	.LVL634:
 4375              		.loc 1 1772 0
 4376 005c 89A269E0 		rsb	r10, r9, r9, lsl #5
 4377              		.loc 1 1804 0
 4378 0060 080056E3 		cmp	r6, #8
 4379 0064 0330A013 		movne	r3, #3
 4380 0068 0230A003 		moveq	r3, #2
 4381              		.loc 1 1772 0
 4382 006c 0AA189E0 		add	r10, r9, r10, lsl #2
 4383 0070 8AA1A0E1 		lsl	r10, r10, #3
 4384              		.loc 1 1773 0
 4385 0074 02A98AE2 		add	r10, r10, #32768
 4386              		.loc 1 1804 0
 4387 0078 20308DE5 		str	r3, [sp, #32]
 4388              	.LVL635:
 4389              		.loc 1 1832 0
ARM GAS  /var/folders/3j/4xdnk5197cv_b7cw3n33qk7r0000gn/T//ccLoT9Qc.s 			page 78


 4390 007c 2A38B0E1 		lsrs	r3, r10, #16
 4391              	.LVL636:
 4392 0080 18308DE5 		str	r3, [sp, #24]
 4393 0084 ED00000A 		beq	.L380
 4394              	.LBB226:
 4395              	.LBB227:
 4396              	.LBB228:
 4397              	.LBB229:
 4398              		.loc 1 493 0
 4399 0088 E830D4E5 		ldrb	r3, [r4, #232]	@ zero_extendqisi2
 4400              	.LBE229:
 4401              	.LBE228:
 4402              		.loc 1 554 0
 4403 008c D4239FE5 		ldr	r2, .L381
 4404              	.LBB231:
 4405              	.LBB230:
 4406              		.loc 1 492 0
 4407 0090 831263E0 		rsb	r1, r3, r3, lsl #5
 4408 0094 813283E0 		add	r3, r3, r1, lsl #5
 4409 0098 033263E0 		rsb	r3, r3, r3, lsl #4
 4410 009c 0304A0E1 		lsl	r0, r3, #8
 4411              	.LBE230:
 4412              	.LBE231:
 4413              		.loc 1 550 0
 4414 00a0 7D0F80E2 		add	r0, r0, #500
 4415              		.loc 1 554 0
 4416 00a4 900281E0 		umull	r0, r1, r0, r2
 4417 00a8 2C208DE5 		str	r2, [sp, #44]
 4418              	.LBE227:
 4419              	.LBE226:
 4420              		.loc 1 1793 0
 4421 00ac E42094E5 		ldr	r2, [r4, #228]
 4422              	.LBB236:
 4423              	.LBB237:
 4424              	.LBB238:
 4425              	.LBB239:
 4426              		.loc 1 492 0
 4427 00b0 863266E0 		rsb	r3, r6, r6, lsl #5
 4428              	.LBE239:
 4429              	.LBE238:
 4430              	.LBE237:
 4431              	.LBE236:
 4432              	.LBB250:
 4433              	.LBB232:
 4434              		.loc 1 554 0
 4435 00b4 F801CDE1 		strd	r0, [sp, #24]
 4436              	.LBE232:
 4437              	.LBE250:
 4438              	.LBB251:
 4439              	.LBB246:
 4440              	.LBB243:
 4441              	.LBB240:
 4442              		.loc 1 492 0
 4443 00b8 836286E0 		add	r6, r6, r3, lsl #5
 4444              	.LVL637:
 4445              	.LBE240:
 4446              	.LBE243:
ARM GAS  /var/folders/3j/4xdnk5197cv_b7cw3n33qk7r0000gn/T//ccLoT9Qc.s 			page 79


 4447              	.LBE246:
 4448              	.LBE251:
 4449              	.LBB252:
 4450              	.LBB233:
 4451              		.loc 1 553 0
 4452 00bc 823262E0 		rsb	r3, r2, r2, lsl #5
 4453 00c0 033182E0 		add	r3, r2, r3, lsl #2
 4454              	.LBE233:
 4455              	.LBE252:
 4456              		.loc 1 1793 0
 4457 00c4 24208DE5 		str	r2, [sp, #36]
 4458              	.LBB253:
 4459              	.LBB234:
 4460              		.loc 1 552 0
 4461 00c8 1C209DE5 		ldr	r2, [sp, #28]
 4462              		.loc 1 554 0
 4463 00cc A103A0E1 		lsr	r0, r1, #7
 4464              		.loc 1 552 0
 4465 00d0 830180E0 		add	r0, r0, r3, lsl #3
 4466 00d4 2213A0E1 		lsr	r1, r2, #6
 4467 00d8 FEFFFFEB 		bl	__aeabi_uidiv
 4468              	.LVL638:
 4469              	.LBE234:
 4470              	.LBE253:
 4471              	.LBB254:
 4472              	.LBB247:
 4473              	.LBB244:
 4474              	.LBB241:
 4475              		.loc 1 492 0
 4476 00dc 066266E0 		rsb	r6, r6, r6, lsl #4
 4477              	.LBE241:
 4478              	.LBE244:
 4479              		.loc 1 554 0
 4480 00e0 2C209DE5 		ldr	r2, [sp, #44]
 4481              	.LBB245:
 4482              	.LBB242:
 4483              		.loc 1 492 0
 4484 00e4 0664A0E1 		lsl	r6, r6, #8
 4485              	.LBE242:
 4486              	.LBE245:
 4487              		.loc 1 550 0
 4488 00e8 7D6F86E2 		add	r6, r6, #500
 4489              	.LBE247:
 4490              	.LBE254:
 4491              	.LBB255:
 4492              	.LBB235:
 4493              		.loc 1 552 0
 4494 00ec 28008DE5 		str	r0, [sp, #40]
 4495              	.LBE235:
 4496              	.LBE255:
 4497              	.LBB256:
 4498              	.LBB248:
 4499              		.loc 1 554 0
 4500 00f0 960281E0 		umull	r0, r1, r6, r2
 4501              	.LBE248:
 4502              	.LBE256:
 4503              		.loc 1 1783 0
ARM GAS  /var/folders/3j/4xdnk5197cv_b7cw3n33qk7r0000gn/T//ccLoT9Qc.s 			page 80


 4504 00f4 DC6094E5 		ldr	r6, [r4, #220]
 4505              	.LVL639:
 4506              	.LBB257:
 4507              	.LBB249:
 4508              		.loc 1 554 0
 4509 00f8 A103A0E1 		lsr	r0, r1, #7
 4510              		.loc 1 553 0
 4511 00fc 86C266E0 		rsb	ip, r6, r6, lsl #5
 4512 0100 0CC186E0 		add	ip, r6, ip, lsl #2
 4513              		.loc 1 552 0
 4514 0104 2113A0E1 		lsr	r1, r1, #6
 4515 0108 8C0180E0 		add	r0, r0, ip, lsl #3
 4516              		.loc 1 554 0
 4517 010c 18208DE5 		str	r2, [sp, #24]
 4518              		.loc 1 552 0
 4519 0110 FEFFFFEB 		bl	__aeabi_uidiv
 4520              	.LVL640:
 4521              	.LBE249:
 4522              	.LBE257:
 4523              		.loc 1 1808 0
 4524 0114 28309DE5 		ldr	r3, [sp, #40]
 4525              		.loc 1 1809 0
 4526 0118 18209DE5 		ldr	r2, [sp, #24]
 4527              		.loc 1 1808 0
 4528 011c 000083E0 		add	r0, r3, r0
 4529              		.loc 1 1807 0
 4530 0120 20309DE5 		ldr	r3, [sp, #32]
 4531 0124 8005A0E1 		lsl	r0, r0, #11
 4532 0128 930000E0 		mul	r0, r3, r0
 4533              		.loc 1 1809 0
 4534 012c 7D0F80E2 		add	r0, r0, #500
 4535 0130 900281E0 		umull	r0, r1, r0, r2
 4536 0134 2133A0E1 		lsr	r3, r1, #6
 4537              		.loc 1 1810 0
 4538 0138 031183E0 		add	r1, r3, r3, lsl #2
 4539 013c 811281E0 		add	r1, r1, r1, lsl #5
 4540 0140 813083E0 		add	r3, r3, r1, lsl #1
 4541 0144 033183E0 		add	r3, r3, r3, lsl #2
 4542              		.loc 1 1811 0
 4543 0148 7D3F83E2 		add	r3, r3, #500
 4544 014c 932283E0 		umull	r2, r3, r3, r2
 4545              		.loc 1 1814 0
 4546 0150 801089E2 		add	r1, r9, #128
 4547              	.LVL641:
 4548              		.loc 1 1811 0
 4549 0154 2333A0E1 		lsr	r3, r3, #6
 4550              		.loc 1 1814 0
 4551 0158 2194A0E1 		lsr	r9, r1, #8
 4552              	.LVL642:
 4553              		.loc 1 1817 0
 4554 015c 930909E0 		mul	r9, r3, r9
 4555              		.loc 1 1821 0
 4556 0160 809089E2 		add	r9, r9, #128
 4557              		.loc 1 1837 0
 4558 0164 2994B0E1 		lsrs	r9, r9, #8
 4559              		.loc 1 1811 0
 4560 0168 28308DE5 		str	r3, [sp, #40]
ARM GAS  /var/folders/3j/4xdnk5197cv_b7cw3n33qk7r0000gn/T//ccLoT9Qc.s 			page 81


 4561              		.loc 1 1843 0
 4562 016c F8029FE5 		ldr	r0, .L381+4
 4563              		.loc 1 1757 0
 4564 0170 883268E0 		rsb	r3, r8, r8, lsl #5
 4565 0174 038188E0 		add	r8, r8, r3, lsl #2
 4566              	.LVL643:
 4567 0178 89908910 		addne	r9, r9, r9, lsl #1
 4568              		.loc 1 1814 0
 4569 017c 18108DE5 		str	r1, [sp, #24]
 4570              		.loc 1 1843 0
 4571 0180 880100E0 		and	r0, r0, r8, lsl #3
 4572 0184 0991A011 		lslne	r9, r9, #2
 4573 0188 0C90A003 		moveq	r9, #12
 4574 018c 2A18B0E1 		lsrs	r1, r10, #16
 4575              	.LVL644:
 4576 0190 FEFFFFEB 		bl	__aeabi_uidiv
 4577              	.LVL645:
 4578 0194 D4329FE5 		ldr	r3, .L381+8
 4579              	.LBB258:
 4580              	.LBB259:
 4581              		.loc 1 132 0
 4582 0198 0181A0E3 		mov	r8, #1073741824
 4583 019c 030050E1 		cmp	r0, r3
 4584 01a0 0300A021 		movcs	r0, r3
 4585              	.LVL646:
 4586              	.LBE259:
 4587              	.LBE258:
 4588              		.loc 1 1849 0
 4589 01a4 000180E0 		add	r0, r0, r0, lsl #2
 4590              	.LVL647:
 4591 01a8 000260E0 		rsb	r0, r0, r0, lsl #4
 4592 01ac 8031A0E1 		lsl	r3, r0, #3
 4593 01b0 20308DE5 		str	r3, [sp, #32]
 4594              	.LVL648:
 4595              	.L341:
 4596              	.LBB261:
 4597              	.LBB260:
 4598              		.loc 1 138 0
 4599 01b4 2881A0E1 		lsr	r8, r8, #2
 4600              	.LVL649:
 4601              		.loc 1 137 0
 4602 01b8 090058E1 		cmp	r8, r9
 4603 01bc FCFFFF8A 		bhi	.L341
 4604              		.loc 1 131 0
 4605 01c0 00C0A0E3 		mov	ip, #0
 4606              	.LVL650:
 4607              	.L343:
 4608              		.loc 1 142 0
 4609 01c4 08308CE0 		add	r3, ip, r8
 4610 01c8 090053E1 		cmp	r3, r9
 4611 01cc ACC0A0E1 		lsr	ip, ip, #1
 4612              	.LVL651:
 4613              		.loc 1 143 0
 4614 01d0 03904990 		subls	r9, r9, r3
 4615              	.LVL652:
 4616              		.loc 1 144 0
 4617 01d4 08C08C90 		addls	ip, ip, r8
ARM GAS  /var/folders/3j/4xdnk5197cv_b7cw3n33qk7r0000gn/T//ccLoT9Qc.s 			page 82


 4618              	.LVL653:
 4619              		.loc 1 141 0
 4620 01d8 2881B0E1 		lsrs	r8, r8, #2
 4621              	.LVL654:
 4622 01dc F8FFFF1A 		bne	.L343
 4623              	.LVL655:
 4624              	.LBE260:
 4625              	.LBE261:
 4626              		.loc 1 1775 0
 4627 01e0 30309DE5 		ldr	r3, [sp, #48]
 4628              		.loc 1 1864 0
 4629 01e4 2AA8A0E1 		lsr	r10, r10, #16
 4630              		.loc 1 1775 0
 4631 01e8 832263E0 		rsb	r2, r3, r3, lsl #5
 4632 01ec 023183E0 		add	r3, r3, r2, lsl #2
 4633 01f0 8331A0E1 		lsl	r3, r3, #3
 4634              		.loc 1 1865 0
 4635 01f4 320853E3 		cmp	r3, #3276800
 4636 01f8 0300A031 		movcc	r0, r3
 4637 01fc 3208A023 		movcs	r0, #3276800
 4638 0200 8000A0E1 		lsl	r0, r0, #1
 4639              		.loc 1 1864 0
 4640 0204 5CE29FE5 		ldr	lr, .L381
 4641 0208 0AA8A0E1 		lsl	r10, r10, #16
 4642              		.loc 1 1865 0
 4643 020c 7D0F60E2 		rsb	r0, r0, #500
 4644 0210 0A0080E0 		add	r0, r0, r10
 4645              		.loc 1 1864 0
 4646 0214 900E81E0 		umull	r0, r1, r0, lr
 4647              		.loc 1 1868 0
 4648 0218 7DAF8AE2 		add	r10, r10, #500
 4649 021c 9A2E83E0 		umull	r2, r3, r10, lr
 4650              		.loc 1 1864 0
 4651 0220 2103A0E1 		lsr	r0, r1, #6
 4652              		.loc 1 1875 0
 4653 0224 0004A0E1 		lsl	r0, r0, #8
 4654 0228 2313A0E1 		lsr	r1, r3, #6
 4655              		.loc 1 1851 0
 4656 022c 8C90A0E1 		lsl	r9, ip, #1
 4657              	.LVL656:
 4658              		.loc 1 1875 0
 4659 0230 FEFFFFEB 		bl	__aeabi_uidiv
 4660              	.LVL657:
 4661              		.loc 1 1880 0
 4662 0234 1820D5E5 		ldrb	r2, [r5, #24]	@ zero_extendqisi2
 4663              		.loc 1 1854 0
 4664 0238 B830D5E1 		ldrh	r3, [r5, #8]
 4665              	.LVL658:
 4666              		.loc 1 1880 0
 4667 023c 000052E3 		cmp	r2, #0
 4668 0240 8500001A 		bne	.L361
 4669              		.loc 1 1854 0
 4670 0244 032263E0 		rsb	r2, r3, r3, lsl #4
 4671 0248 822263E0 		rsb	r2, r3, r2, lsl #5
 4672 024c 822162E0 		rsb	r2, r2, r2, lsl #3
 4673 0250 822382E0 		add	r2, r2, r2, lsl #7
 4674              		.loc 1 1884 0
ARM GAS  /var/folders/3j/4xdnk5197cv_b7cw3n33qk7r0000gn/T//ccLoT9Qc.s 			page 83


 4675 0254 18129FE5 		ldr	r1, .L381+12
 4676              		.loc 1 1854 0
 4677 0258 032082E0 		add	r2, r2, r3
 4678              		.loc 1 1884 0
 4679 025c 922183E0 		umull	r2, r3, r2, r1
 4680              		.loc 1 1878 0
 4681 0260 0004A0E1 		lsl	r0, r0, #8
 4682              	.LVL659:
 4683              		.loc 1 1884 0
 4684 0264 23A5A0E1 		lsr	r10, r3, #10
 4685              	.LVL660:
 4686              		.loc 1 1891 0
 4687 0268 010860E2 		rsb	r0, r0, #65536
 4688              	.LVL661:
 4689 026c 9A000AE0 		mul	r10, r10, r0
 4690              		.loc 1 1894 0
 4691 0270 02A98AE2 		add	r10, r10, #32768
 4692 0274 2AA8A0E1 		lsr	r10, r10, #16
 4693              	.LVL662:
 4694              		.loc 1 1897 0
 4695 0278 01A88AE2 		add	r10, r10, #65536
 4696              	.LVL663:
 4697              		.loc 1 1904 0
 4698 027c AAA0A0E1 		lsr	r10, r10, #1
 4699              	.LVL664:
 4700              		.loc 1 1906 0
 4701 0280 9A0A0AE0 		mul	r10, r10, r10
 4702              	.LVL665:
 4703              		.loc 1 1909 0
 4704 0284 2AA7A0E1 		lsr	r10, r10, #14
 4705              	.LVL666:
 4706 0288 0A318AE0 		add	r3, r10, r10, lsl #2
 4707              	.LVL667:
 4708 028c 033183E0 		add	r3, r3, r3, lsl #2
 4709 0290 8332A0E1 		lsl	r3, r3, #5
 4710 0294 023983E2 		add	r3, r3, #32768
 4711 0298 2338A0E1 		lsr	r3, r3, #16
 4712 029c 930302E0 		mul	r2, r3, r3
 4713              	.LVL668:
 4714              	.L344:
 4715              		.loc 1 1924 0
 4716 02a0 20309DE5 		ldr	r3, [sp, #32]
 4717              	.LBB262:
 4718              	.LBB263:
 4719              		.loc 1 132 0
 4720 02a4 0151A0E3 		mov	r5, #1073741824
 4721              	.LVL669:
 4722              	.LBE263:
 4723              	.LBE262:
 4724              		.loc 1 1924 0
 4725 02a8 023983E2 		add	r3, r3, #32768
 4726 02ac 2338A0E1 		lsr	r3, r3, #16
 4727              	.LVL670:
 4728              		.loc 1 1930 0
 4729 02b0 932323E0 		mla	r3, r3, r3, r2
 4730              	.LVL671:
 4731              	.LBB265:
ARM GAS  /var/folders/3j/4xdnk5197cv_b7cw3n33qk7r0000gn/T//ccLoT9Qc.s 			page 84


 4732              	.LBB264:
 4733              		.loc 1 137 0
 4734 02b4 070173E3 		cmn	r3, #-1073741823
 4735 02b8 0200008A 		bhi	.L348
 4736              	.LVL672:
 4737              	.L346:
 4738              		.loc 1 138 0
 4739 02bc 2551A0E1 		lsr	r5, r5, #2
 4740              	.LVL673:
 4741              		.loc 1 137 0
 4742 02c0 050053E1 		cmp	r3, r5
 4743 02c4 FCFFFF3A 		bcc	.L346
 4744              	.LVL674:
 4745              	.L348:
 4746              		.loc 1 142 0
 4747 02c8 052088E0 		add	r2, r8, r5
 4748 02cc 030052E1 		cmp	r2, r3
 4749 02d0 A880A0E1 		lsr	r8, r8, #1
 4750              	.LVL675:
 4751              		.loc 1 143 0
 4752 02d4 02304390 		subls	r3, r3, r2
 4753              	.LVL676:
 4754              		.loc 1 144 0
 4755 02d8 05808890 		addls	r8, r8, r5
 4756              	.LVL677:
 4757              		.loc 1 141 0
 4758 02dc 2551B0E1 		lsrs	r5, r5, #2
 4759              	.LVL678:
 4760 02e0 F8FFFF1A 		bne	.L348
 4761              	.LVL679:
 4762              	.LBE264:
 4763              	.LBE265:
 4764              		.loc 1 1936 0
 4765 02e4 0828A0E1 		lsl	r2, r8, #16
 4766              	.LVL680:
 4767              		.loc 1 1943 0
 4768 02e8 88819FE5 		ldr	r8, .L381+16
 4769 02ec 322082E2 		add	r2, r2, #50
 4770              	.LVL681:
 4771 02f0 922883E0 		umull	r2, r3, r2, r8
 4772              	.LVL682:
 4773 02f4 0910A0E1 		mov	r1, r9
 4774 02f8 A302A0E1 		lsr	r0, r3, #5
 4775 02fc FEFFFFEB 		bl	__aeabi_uidiv
 4776              	.LVL683:
 4777              		.loc 1 1945 0
 4778 0300 802180E0 		add	r2, r0, r0, lsl #3
 4779 0304 022180E0 		add	r2, r0, r2, lsl #2
 4780              		.loc 1 1957 0
 4781 0308 24309DE5 		ldr	r3, [sp, #36]
 4782              		.loc 1 1945 0
 4783 030c 822182E0 		add	r2, r2, r2, lsl #3
 4784 0310 822182E0 		add	r2, r2, r2, lsl #3
 4785              	.LVL684:
 4786              		.loc 1 1957 0
 4787 0314 038086E0 		add	r8, r6, r3
 4788              		.loc 1 1964 0
ARM GAS  /var/folders/3j/4xdnk5197cv_b7cw3n33qk7r0000gn/T//ccLoT9Qc.s 			page 85


 4789 0318 48119FE5 		ldr	r1, .L381
 4790              		.loc 1 1948 0
 4791 031c 4E2D82E2 		add	r2, r2, #4992
 4792              	.LVL685:
 4793              		.loc 1 1949 0
 4794 0320 54319FE5 		ldr	r3, .L381+20
 4795              		.loc 1 1957 0
 4796 0324 7D8F88E2 		add	r8, r8, #500
 4797              		.loc 1 1948 0
 4798 0328 082082E2 		add	r2, r2, #8
 4799              	.LVL686:
 4800              		.loc 1 1949 0
 4801 032c 922383E0 		umull	r2, r3, r2, r3
 4802              	.LVL687:
 4803              		.loc 1 1964 0
 4804 0330 988189E0 		umull	r8, r9, r8, r1
 4805              		.loc 1 1949 0
 4806 0334 A366A0E1 		lsr	r6, r3, #13
 4807              	.LVL688:
 4808              		.loc 1 1964 0
 4809 0338 A903A0E1 		lsr	r0, r9, #7
 4810 033c 0F0A56E3 		cmp	r6, #61440
 4811              		.loc 1 1963 0
 4812 0340 190880E2 		add	r0, r0, #1638400
 4813 0344 2913A0E1 		lsr	r1, r9, #6
 4814 0348 0F6AA023 		movcs	r6, #61440
 4815              	.LVL689:
 4816 034c FEFFFFEB 		bl	__aeabi_uidiv
 4817              	.LVL690:
 4818              	.LBB266:
 4819              	.LBB267:
 4820              		.loc 1 132 0
 4821 0350 0131A0E3 		mov	r3, #1073741824
 4822              	.LVL691:
 4823              	.L349:
 4824              		.loc 1 138 0
 4825 0354 2331A0E1 		lsr	r3, r3, #2
 4826              	.LVL692:
 4827              		.loc 1 137 0
 4828 0358 030050E1 		cmp	r0, r3
 4829 035c FCFFFF3A 		bcc	.L349
 4830              		.loc 1 141 0
 4831 0360 000053E3 		cmp	r3, #0
 4832 0364 0D00000A 		beq	.L350
 4833              		.loc 1 131 0
 4834 0368 0020A0E3 		mov	r2, #0
 4835              	.LVL693:
 4836              	.L352:
 4837              		.loc 1 142 0
 4838 036c 021083E0 		add	r1, r3, r2
 4839 0370 010050E1 		cmp	r0, r1
 4840 0374 A220A0E1 		lsr	r2, r2, #1
 4841              	.LVL694:
 4842              		.loc 1 143 0
 4843 0378 01004020 		subcs	r0, r0, r1
 4844              	.LVL695:
 4845              		.loc 1 144 0
ARM GAS  /var/folders/3j/4xdnk5197cv_b7cw3n33qk7r0000gn/T//ccLoT9Qc.s 			page 86


 4846 037c 03208220 		addcs	r2, r2, r3
 4847              	.LVL696:
 4848              		.loc 1 141 0
 4849 0380 2331B0E1 		lsrs	r3, r3, #2
 4850              	.LVL697:
 4851 0384 F8FFFF1A 		bne	.L352
 4852 0388 0224A0E1 		lsl	r2, r2, #8
 4853              	.LVL698:
 4854 038c D4309FE5 		ldr	r3, .L381
 4855              	.LVL699:
 4856 0390 7D2F82E2 		add	r2, r2, #500
 4857 0394 922383E0 		umull	r2, r3, r2, r3
 4858 0398 2333A0E1 		lsr	r3, r3, #6
 4859 039c 930303E0 		mul	r3, r3, r3
 4860              	.L350:
 4861              	.LVL700:
 4862              	.LBE267:
 4863              	.LBE266:
 4864              		.loc 1 1977 0
 4865 03a0 963626E0 		mla	r6, r6, r6, r3
 4866              	.LVL701:
 4867              	.LBB268:
 4868              	.LBB269:
 4869              		.loc 1 137 0
 4870 03a4 070176E3 		cmn	r6, #-1073741823
 4871              		.loc 1 132 0
 4872 03a8 0131A0E3 		mov	r3, #1073741824
 4873              		.loc 1 137 0
 4874 03ac 0400008A 		bhi	.L357
 4875              	.LVL702:
 4876              	.L354:
 4877              		.loc 1 138 0
 4878 03b0 2331A0E1 		lsr	r3, r3, #2
 4879              	.LVL703:
 4880              		.loc 1 137 0
 4881 03b4 030056E1 		cmp	r6, r3
 4882 03b8 FCFFFF3A 		bcc	.L354
 4883              	.LVL704:
 4884              		.loc 1 141 0
 4885 03bc 000053E3 		cmp	r3, #0
 4886 03c0 0C00000A 		beq	.L355
 4887              	.LVL705:
 4888              	.L357:
 4889              		.loc 1 142 0
 4890 03c4 032085E0 		add	r2, r5, r3
 4891 03c8 060052E1 		cmp	r2, r6
 4892 03cc A550A0E1 		lsr	r5, r5, #1
 4893              	.LVL706:
 4894              		.loc 1 143 0
 4895 03d0 02604690 		subls	r6, r6, r2
 4896              	.LVL707:
 4897              		.loc 1 144 0
 4898 03d4 03508590 		addls	r5, r5, r3
 4899              	.LVL708:
 4900              		.loc 1 141 0
 4901 03d8 2331B0E1 		lsrs	r3, r3, #2
 4902              	.LVL709:
ARM GAS  /var/folders/3j/4xdnk5197cv_b7cw3n33qk7r0000gn/T//ccLoT9Qc.s 			page 87


 4903 03dc F8FFFF1A 		bne	.L357
 4904 03e0 853265E0 		rsb	r3, r5, r5, lsl #5
 4905              	.LVL710:
 4906 03e4 035185E0 		add	r5, r5, r3, lsl #2
 4907              	.LVL711:
 4908 03e8 90309FE5 		ldr	r3, .L381+24
 4909 03ec 8551A0E1 		lsl	r5, r5, #3
 4910 03f0 030055E1 		cmp	r5, r3
 4911 03f4 0530A031 		movcc	r3, r5
 4912              	.L355:
 4913              	.LVL712:
 4914              	.LBE269:
 4915              	.LBE268:
 4916              		.loc 1 1993 0
 4917 03f8 32CEA0E3 		mov	ip, #800
 4918 03fc 14209DE5 		ldr	r2, [sp, #20]
 4919              		.loc 1 1991 0
 4920 0400 00308BE5 		str	r3, [fp]
 4921              		.loc 1 1993 0
 4922 0404 0C208DE5 		str	r2, [sp, #12]
 4923              		.loc 1 1992 0
 4924 0408 403184E5 		str	r3, [r4, #320]
 4925              		.loc 1 1993 0
 4926 040c 28309DE5 		ldr	r3, [sp, #40]
 4927 0410 18109DE5 		ldr	r1, [sp, #24]
 4928 0414 08308DE5 		str	r3, [sp, #8]
 4929 0418 20309DE5 		ldr	r3, [sp, #32]
 4930 041c 0720A0E1 		mov	r2, r7
 4931 0420 04308DE5 		str	r3, [sp, #4]
 4932 0424 FF10C1E3 		bic	r1, r1, #255
 4933 0428 0A30A0E1 		mov	r3, r10
 4934 042c 0400A0E1 		mov	r0, r4
 4935 0430 00C08DE5 		str	ip, [sp]
 4936 0434 FEFFFFEB 		bl	VL53L0X_calc_dmax
 4937              	.LVL713:
 4938              	.L337:
 4939              		.loc 1 2006 0
 4940 0438 3CD08DE2 		add	sp, sp, #60
 4941              		.cfi_remember_state
 4942              		.cfi_def_cfa_offset 36
 4943              		@ sp needed
 4944 043c F08FBDE8 		pop	{r4, r5, r6, r7, r8, r9, r10, fp, pc}
 4945              	.LVL714:
 4946              	.L380:
 4947              		.cfi_restore_state
 4948              		.loc 1 1833 0
 4949 0440 38309FE5 		ldr	r3, .L381+24
 4950 0444 00308BE5 		str	r3, [fp]
 4951              	.LVL715:
 4952              		.loc 1 1834 0
 4953 0448 403184E5 		str	r3, [r4, #320]
 4954              		.loc 1 1835 0
 4955 044c 14309DE5 		ldr	r3, [sp, #20]
 4956 0450 000083E5 		str	r0, [r3]
 4957              	.LVL716:
 4958              		.loc 1 2006 0
 4959 0454 3CD08DE2 		add	sp, sp, #60
ARM GAS  /var/folders/3j/4xdnk5197cv_b7cw3n33qk7r0000gn/T//ccLoT9Qc.s 			page 88


 4960              		.cfi_remember_state
 4961              		.cfi_def_cfa_offset 36
 4962              		@ sp needed
 4963 0458 F08FBDE8 		pop	{r4, r5, r6, r7, r8, r9, r10, fp, pc}
 4964              	.LVL717:
 4965              	.L361:
 4966              		.cfi_restore_state
 4967              		.loc 1 1881 0
 4968 045c 01A8A0E3 		mov	r10, #65536
 4969              	.LVL718:
 4970 0460 1C209FE5 		ldr	r2, .L381+28
 4971 0464 8DFFFFEA 		b	.L344
 4972              	.L382:
 4973              		.align	2
 4974              	.L381:
 4975 0468 D34D6210 		.word	274877907
 4976 046c 0000FFFF 		.word	-65536
 4977 0470 66666600 		.word	6710886
 4978 0474 517BC637 		.word	935754577
 4979 0478 1F85EB51 		.word	1374389535
 4980 047c 5917B7D1 		.word	-776530087
 4981 0480 AE878F02 		.word	42960814
 4982 0484 00C40900 		.word	640000
 4983              		.cfi_endproc
 4984              	.LFE26:
 4985              		.size	VL53L0X_calc_sigma_estimate, .-VL53L0X_calc_sigma_estimate
 4986              		.section	.text.VL53L0X_get_pal_range_status,"ax",%progbits
 4987              		.align	2
 4988              		.global	VL53L0X_get_pal_range_status
 4989              		.syntax unified
 4990              		.arm
 4991              		.fpu softvfp
 4992              		.type	VL53L0X_get_pal_range_status, %function
 4993              	VL53L0X_get_pal_range_status:
 4994              	.LFB27:
 4995              		.loc 1 2014 0
 4996              		.cfi_startproc
 4997              		@ args = 8, pretend = 0, frame = 40
 4998              		@ frame_needed = 0, uses_anonymous_args = 0
 4999              	.LVL719:
 5000              		.loc 1 2046 0
 5001 0000 A111A0E1 		lsr	r1, r1, #3
 5002              	.LVL720:
 5003              		.loc 1 2014 0
 5004 0004 F04F2DE9 		push	{r4, r5, r6, r7, r8, r9, r10, fp, lr}
 5005              		.cfi_def_cfa_offset 36
 5006              		.cfi_offset 4, -36
 5007              		.cfi_offset 5, -32
 5008              		.cfi_offset 6, -28
 5009              		.cfi_offset 7, -24
 5010              		.cfi_offset 8, -20
 5011              		.cfi_offset 9, -16
 5012              		.cfi_offset 10, -12
 5013              		.cfi_offset 11, -8
 5014              		.cfi_offset 14, -4
 5015              		.loc 1 2048 0
 5016 0008 0F7011E2 		ands	r7, r1, #15
ARM GAS  /var/folders/3j/4xdnk5197cv_b7cw3n33qk7r0000gn/T//ccLoT9Qc.s 			page 89


 5017 000c 01C0A003 		moveq	ip, #1
 5018 0010 00C0A013 		movne	ip, #0
 5019              		.loc 1 2049 0
 5020 0014 0D5001E2 		and	r5, r1, #13
 5021              		.loc 1 2048 0
 5022 0018 050055E3 		cmp	r5, #5
 5023 001c 01C08C03 		orreq	ip, ip, #1
 5024              		.loc 1 2020 0
 5025 0020 0010A0E3 		mov	r1, #0
 5026              		.loc 1 2014 0
 5027 0024 2CD04DE2 		sub	sp, sp, #44
 5028              		.cfi_def_cfa_offset 80
 5029              		.loc 1 2048 0
 5030 0028 01005CE1 		cmp	ip, r1
 5031              		.loc 1 2014 0
 5032 002c 0040A0E1 		mov	r4, r0
 5033 0030 00208DE5 		str	r2, [sp]
 5034 0034 03A0A0E1 		mov	r10, r3
 5035              		.loc 1 2020 0
 5036 0038 0E10CDE5 		strb	r1, [sp, #14]
 5037              		.loc 1 2021 0
 5038 003c 0F10CDE5 		strb	r1, [sp, #15]
 5039              		.loc 1 2022 0
 5040 0040 1010CDE5 		strb	r1, [sp, #16]
 5041              		.loc 1 2023 0
 5042 0044 1110CDE5 		strb	r1, [sp, #17]
 5043              	.LVL721:
 5044              		.loc 1 2030 0
 5045 0048 B211CDE1 		strh	r1, [sp, #18]	@ movhi
 5046              		.loc 1 2032 0
 5047 004c 24108DE5 		str	r1, [sp, #36]
 5048              		.loc 1 2056 0
 5049 0050 01B0A013 		movne	fp, #1
 5050              		.loc 1 2048 0
 5051 0054 0300001A 		bne	.L384
 5052              		.loc 1 2050 0
 5053 0058 0C3047E2 		sub	r3, r7, #12
 5054              	.LVL722:
 5055              		.loc 1 2056 0
 5056 005c 030053E3 		cmp	r3, #3
 5057 0060 00B0A083 		movhi	fp, #0
 5058 0064 01B0A093 		movls	fp, #1
 5059              	.L384:
 5060              	.LVL723:
 5061              		.loc 1 2066 0
 5062 0068 0E208DE2 		add	r2, sp, #14
 5063              	.LVL724:
 5064 006c 0010A0E3 		mov	r1, #0
 5065 0070 0400A0E1 		mov	r0, r4
 5066              	.LVL725:
 5067 0074 FEFFFFEB 		bl	VL53L0X_GetLimitCheckEnable
 5068              	.LVL726:
 5069              		.loc 1 2070 0
 5070 0078 0E60DDE5 		ldrb	r6, [sp, #14]	@ zero_extendqisi2
 5071              		.loc 1 2066 0
 5072 007c 0090A0E1 		mov	r9, r0
 5073              	.LVL727:
ARM GAS  /var/folders/3j/4xdnk5197cv_b7cw3n33qk7r0000gn/T//ccLoT9Qc.s 			page 90


 5074              		.loc 1 2070 0
 5075 0080 000056E3 		cmp	r6, #0
 5076 0084 3E00000A 		beq	.L385
 5077              		.loc 1 2070 0 is_stmt 0 discriminator 1
 5078 0088 000050E3 		cmp	r0, #0
 5079 008c 0060A013 		movne	r6, #0
 5080 0090 2500000A 		beq	.L425
 5081              	.LVL728:
 5082              	.L386:
 5083 0094 0080A0E3 		mov	r8, #0
 5084              	.LVL729:
 5085              	.L388:
 5086              		.loc 1 2148 0 is_stmt 1
 5087 0098 0090A0E3 		mov	r9, #0
 5088              	.LVL730:
 5089              	.L391:
 5090              		.loc 1 2190 0
 5091 009c 54309DE5 		ldr	r3, [sp, #84]
 5092 00a0 0030D3E5 		ldrb	r3, [r3]	@ zero_extendqisi2
 5093 00a4 000053E3 		cmp	r3, #0
 5094 00a8 0200001A 		bne	.L401
 5095              	.LVL731:
 5096              	.L400:
 5097              		.loc 1 2191 0
 5098 00ac 0030A0E3 		mov	r3, #0
 5099 00b0 50209DE5 		ldr	r2, [sp, #80]
 5100 00b4 BA30C2E1 		strh	r3, [r2, #10]	@ movhi
 5101              	.L401:
 5102              		.loc 1 2195 0
 5103 00b8 0F208DE2 		add	r2, sp, #15
 5104 00bc 0110A0E3 		mov	r1, #1
 5105 00c0 0400A0E1 		mov	r0, r4
 5106 00c4 FEFFFFEB 		bl	VL53L0X_GetLimitCheckEnable
 5107              	.LVL732:
 5108              		.loc 1 2199 0
 5109 00c8 000050E3 		cmp	r0, #0
 5110              	.LVL733:
 5111 00cc 1400001A 		bne	.L414
 5112              	.LVL734:
 5113              		.loc 1 2200 0
 5114 00d0 0E30DDE5 		ldrb	r3, [sp, #14]	@ zero_extendqisi2
 5115              		.loc 1 2216 0
 5116 00d4 1020DDE5 		ldrb	r2, [sp, #16]	@ zero_extendqisi2
 5117              		.loc 1 2201 0
 5118 00d8 000053E3 		cmp	r3, #0
 5119 00dc 01600612 		andne	r6, r6, #1
 5120              	.LVL735:
 5121 00e0 0160A003 		moveq	r6, #1
 5122              		.loc 1 2207 0
 5123 00e4 040057E3 		cmp	r7, #4
 5124 00e8 0F30DD15 		ldrbne	r3, [sp, #15]	@ zero_extendqisi2
 5125              		.loc 1 2225 0
 5126 00ec 11A0DDE5 		ldrb	r10, [sp, #17]	@ zero_extendqisi2
 5127              		.loc 1 2209 0
 5128 00f0 133F6F11 		clzne	r3, r3
 5129 00f4 0130A003 		moveq	r3, #1
 5130 00f8 A332A011 		lsrne	r3, r3, #5
ARM GAS  /var/folders/3j/4xdnk5197cv_b7cw3n33qk7r0000gn/T//ccLoT9Qc.s 			page 91


 5131              	.LVL736:
 5132              		.loc 1 2218 0
 5133 00fc 000052E3 		cmp	r2, #0
 5134 0100 01800812 		andne	r8, r8, #1
 5135 0104 0180A003 		moveq	r8, #1
 5136              		.loc 1 2227 0
 5137 0108 00005AE3 		cmp	r10, #0
 5138 010c 0190A003 		moveq	r9, #1
 5139 0110 01900912 		andne	r9, r9, #1
 5140              		.loc 1 2204 0
 5141 0114 2E60C4E5 		strb	r6, [r4, #46]
 5142              		.loc 1 2212 0
 5143 0118 2F30C4E5 		strb	r3, [r4, #47]
 5144              	.LVL737:
 5145              		.loc 1 2222 0
 5146 011c 3080C4E5 		strb	r8, [r4, #48]
 5147              		.loc 1 2231 0
 5148 0120 3190C4E5 		strb	r9, [r4, #49]
 5149              	.L414:
 5150              		.loc 1 2239 0
 5151 0124 2CD08DE2 		add	sp, sp, #44
 5152              		.cfi_remember_state
 5153              		.cfi_def_cfa_offset 36
 5154              	.LVL738:
 5155              		@ sp needed
 5156 0128 F08FBDE8 		pop	{r4, r5, r6, r7, r8, r9, r10, fp, pc}
 5157              	.LVL739:
 5158              	.L425:
 5159              		.cfi_restore_state
 5160              		.loc 1 2074 0
 5161 012c 24308DE2 		add	r3, sp, #36
 5162 0130 14208DE2 		add	r2, sp, #20
 5163 0134 50109DE5 		ldr	r1, [sp, #80]
 5164 0138 0400A0E1 		mov	r0, r4
 5165              	.LVL740:
 5166 013c FEFFFFEB 		bl	VL53L0X_calc_sigma_estimate
 5167              	.LVL741:
 5168              		.loc 1 2079 0
 5169 0140 000050E3 		cmp	r0, #0
 5170 0144 6800001A 		bne	.L407
 5171              		.loc 1 2080 0
 5172 0148 50209DE5 		ldr	r2, [sp, #80]
 5173 014c 24309DE5 		ldr	r3, [sp, #36]
 5174              		.loc 1 2083 0
 5175 0150 0910A0E1 		mov	r1, r9
 5176              		.loc 1 2080 0
 5177 0154 BA30C2E1 		strh	r3, [r2, #10]	@ movhi
 5178              		.loc 1 2083 0
 5179 0158 0400A0E1 		mov	r0, r4
 5180              	.LVL742:
 5181 015c 18208DE2 		add	r2, sp, #24
 5182 0160 FEFFFFEB 		bl	VL53L0X_GetLimitCheckValue
 5183              	.LVL743:
 5184              		.loc 1 2087 0
 5185 0164 18609DE5 		ldr	r6, [sp, #24]
 5186              		.loc 1 2083 0
 5187 0168 0090A0E1 		mov	r9, r0
ARM GAS  /var/folders/3j/4xdnk5197cv_b7cw3n33qk7r0000gn/T//ccLoT9Qc.s 			page 92


 5188              	.LVL744:
 5189              		.loc 1 2087 0
 5190 016c 000056E3 		cmp	r6, #0
 5191 0170 0300000A 		beq	.L385
 5192              		.loc 1 2087 0 is_stmt 0 discriminator 1
 5193 0174 14309DE5 		ldr	r3, [sp, #20]
 5194              		.loc 1 2017 0 is_stmt 1 discriminator 1
 5195 0178 030056E1 		cmp	r6, r3
 5196 017c 0060A023 		movcs	r6, #0
 5197 0180 0160A033 		movcc	r6, #1
 5198              	.LVL745:
 5199              	.L385:
 5200              		.loc 1 2098 0
 5201 0184 000059E3 		cmp	r9, #0
 5202 0188 C1FFFF1A 		bne	.L386
 5203              		.loc 1 2099 0
 5204 018c 10208DE2 		add	r2, sp, #16
 5205 0190 0210A0E3 		mov	r1, #2
 5206 0194 0400A0E1 		mov	r0, r4
 5207 0198 FEFFFFEB 		bl	VL53L0X_GetLimitCheckEnable
 5208              	.LVL746:
 5209              		.loc 1 2103 0
 5210 019c 1080DDE5 		ldrb	r8, [sp, #16]	@ zero_extendqisi2
 5211              		.loc 1 2099 0
 5212 01a0 0030A0E1 		mov	r3, r0
 5213              	.LVL747:
 5214              		.loc 1 2103 0
 5215 01a4 000058E3 		cmp	r8, #0
 5216 01a8 1000000A 		beq	.L387
 5217              		.loc 1 2103 0 is_stmt 0 discriminator 1
 5218 01ac 000050E3 		cmp	r0, #0
 5219 01b0 7900001A 		bne	.L409
 5220              		.loc 1 2106 0 is_stmt 1
 5221 01b4 1C208DE2 		add	r2, sp, #28
 5222 01b8 0210A0E3 		mov	r1, #2
 5223 01bc 0400A0E1 		mov	r0, r4
 5224              	.LVL748:
 5225 01c0 FEFFFFEB 		bl	VL53L0X_GetLimitCheckValue
 5226              	.LVL749:
 5227              		.loc 1 2111 0
 5228 01c4 003050E2 		subs	r3, r0, #0
 5229 01c8 4900000A 		beq	.L426
 5230              	.L389:
 5231              	.LVL750:
 5232              		.loc 1 2122 0
 5233 01cc B221DDE1 		ldrh	r2, [sp, #18]
 5234              		.loc 1 2125 0
 5235 01d0 1C809DE5 		ldr	r8, [sp, #28]
 5236              		.loc 1 2122 0
 5237 01d4 8224A0E1 		lsl	r2, r2, #9
 5238              	.LVL751:
 5239              		.loc 1 2125 0
 5240 01d8 000058E3 		cmp	r8, #0
 5241              		.loc 1 2123 0
 5242 01dc 482184E5 		str	r2, [r4, #328]
 5243              		.loc 1 2125 0
 5244 01e0 ACFFFF0A 		beq	.L388
ARM GAS  /var/folders/3j/4xdnk5197cv_b7cw3n33qk7r0000gn/T//ccLoT9Qc.s 			page 93


 5245              	.L404:
 5246              		.loc 1 2018 0 discriminator 1
 5247 01e4 020058E1 		cmp	r8, r2
 5248 01e8 0080A023 		movcs	r8, #0
 5249 01ec 0180A033 		movcc	r8, #1
 5250              	.LVL752:
 5251              	.L387:
 5252              		.loc 1 2138 0
 5253 01f0 000053E3 		cmp	r3, #0
 5254 01f4 04308DE5 		str	r3, [sp, #4]
 5255 01f8 A6FFFF1A 		bne	.L388
 5256              		.loc 1 2139 0
 5257 01fc 11208DE2 		add	r2, sp, #17
 5258 0200 0310A0E3 		mov	r1, #3
 5259 0204 0400A0E1 		mov	r0, r4
 5260 0208 FEFFFFEB 		bl	VL53L0X_GetLimitCheckEnable
 5261              	.LVL753:
 5262              		.loc 1 2143 0
 5263 020c 1190DDE5 		ldrb	r9, [sp, #17]	@ zero_extendqisi2
 5264              		.loc 1 2139 0
 5265 0210 0020A0E1 		mov	r2, r0
 5266              	.LVL754:
 5267              		.loc 1 2143 0
 5268 0214 000059E3 		cmp	r9, #0
 5269 0218 0E00000A 		beq	.L390
 5270              		.loc 1 2143 0 is_stmt 0 discriminator 1
 5271 021c 000050E3 		cmp	r0, #0
 5272 0220 04309DE5 		ldr	r3, [sp, #4]
 5273 0224 5A00001A 		bne	.L411
 5274              		.loc 1 2147 0 is_stmt 1
 5275 0228 00005AE3 		cmp	r10, #0
 5276 022c 1B00001A 		bne	.L427
 5277              	.LVL755:
 5278              	.L392:
 5279              		.loc 1 2154 0
 5280 0230 20208DE2 		add	r2, sp, #32
 5281 0234 0310A0E3 		mov	r1, #3
 5282 0238 0400A0E1 		mov	r0, r4
 5283 023c FEFFFFEB 		bl	VL53L0X_GetLimitCheckValue
 5284              	.LVL756:
 5285              		.loc 1 2158 0
 5286 0240 20909DE5 		ldr	r9, [sp, #32]
 5287              		.loc 1 2154 0
 5288 0244 0020A0E1 		mov	r2, r0
 5289              	.LVL757:
 5290              		.loc 1 2019 0
 5291 0248 000059E3 		cmp	r9, #0
 5292 024c 0A005911 		cmpne	r9, r10
 5293 0250 0190A083 		movhi	r9, #1
 5294 0254 0090A093 		movls	r9, #0
 5295              	.LVL758:
 5296              	.L390:
 5297              		.loc 1 2165 0
 5298 0258 000052E3 		cmp	r2, #0
 5299 025c 8EFFFF1A 		bne	.L391
 5300              		.loc 1 2166 0
 5301 0260 01005BE3 		cmp	fp, #1
ARM GAS  /var/folders/3j/4xdnk5197cv_b7cw3n33qk7r0000gn/T//ccLoT9Qc.s 			page 94


 5302 0264 1300000A 		beq	.L428
 5303              		.loc 1 2168 0
 5304 0268 013047E2 		sub	r3, r7, #1
 5305 026c 020053E3 		cmp	r3, #2
 5306 0270 0600009A 		bls	.L429
 5307              		.loc 1 2172 0
 5308 0274 090057E3 		cmp	r7, #9
 5309 0278 06005713 		cmpne	r7, #6
 5310 027c 1100001A 		bne	.L396
 5311              		.loc 1 2174 0
 5312 0280 0430A0E3 		mov	r3, #4
 5313 0284 54209DE5 		ldr	r2, [sp, #84]
 5314              	.LVL759:
 5315 0288 0030C2E5 		strb	r3, [r2]
 5316 028c 89FFFFEA 		b	.L401
 5317              	.LVL760:
 5318              	.L429:
 5319              		.loc 1 2171 0
 5320 0290 0530A0E3 		mov	r3, #5
 5321 0294 54209DE5 		ldr	r2, [sp, #84]
 5322              	.LVL761:
 5323 0298 0030C2E5 		strb	r3, [r2]
 5324 029c 85FFFFEA 		b	.L401
 5325              	.LVL762:
 5326              	.L427:
 5327              		.loc 1 2150 0
 5328 02a0 00309DE5 		ldr	r3, [sp]
 5329 02a4 0A10A0E1 		mov	r1, r10
 5330 02a8 0304A0E1 		lsl	r0, r3, #8
 5331              	.LVL763:
 5332 02ac FEFFFFEB 		bl	__aeabi_uidiv
 5333              	.LVL764:
 5334 02b0 00A0A0E1 		mov	r10, r0
 5335              	.LVL765:
 5336 02b4 DDFFFFEA 		b	.L392
 5337              	.LVL766:
 5338              	.L428:
 5339              		.loc 1 2167 0
 5340 02b8 0030E0E3 		mvn	r3, #0
 5341 02bc 54209DE5 		ldr	r2, [sp, #84]
 5342              	.LVL767:
 5343 02c0 0030C2E5 		strb	r3, [r2]
 5344 02c4 7BFFFFEA 		b	.L401
 5345              	.LVL768:
 5346              	.L396:
 5347              		.loc 1 2176 0
 5348 02c8 080055E3 		cmp	r5, #8
 5349 02cc 0850A011 		movne	r5, r8
 5350 02d0 01508803 		orreq	r5, r8, #1
 5351 02d4 010015E3 		tst	r5, #1
 5352 02d8 1E00000A 		beq	.L397
 5353              		.loc 1 2178 0
 5354 02dc 0330A0E3 		mov	r3, #3
 5355 02e0 54209DE5 		ldr	r2, [sp, #84]
 5356              	.LVL769:
 5357 02e4 0030C2E5 		strb	r3, [r2]
 5358 02e8 72FFFFEA 		b	.L401
ARM GAS  /var/folders/3j/4xdnk5197cv_b7cw3n33qk7r0000gn/T//ccLoT9Qc.s 			page 95


 5359              	.LVL770:
 5360              	.L407:
 5361 02ec 0960A0E1 		mov	r6, r9
 5362 02f0 67FFFFEA 		b	.L386
 5363              	.LVL771:
 5364              	.L426:
 5365              		.loc 1 2112 0
 5366 02f4 0120A0E3 		mov	r2, #1
 5367 02f8 FF10A0E3 		mov	r1, #255
 5368 02fc 0400A0E1 		mov	r0, r4
 5369              	.LVL772:
 5370 0300 FEFFFFEB 		bl	VL53L0X_WrByte
 5371              	.LVL773:
 5372              		.loc 1 2114 0
 5373 0304 003050E2 		subs	r3, r0, #0
 5374 0308 AFFFFF1A 		bne	.L389
 5375              		.loc 1 2115 0
 5376 030c 12208DE2 		add	r2, sp, #18
 5377 0310 B610A0E3 		mov	r1, #182
 5378 0314 0400A0E1 		mov	r0, r4
 5379              	.LVL774:
 5380 0318 FEFFFFEB 		bl	VL53L0X_RdWord
 5381              	.LVL775:
 5382              		.loc 1 2119 0
 5383 031c 003050E2 		subs	r3, r0, #0
 5384 0320 A9FFFF1A 		bne	.L389
 5385              		.loc 1 2120 0
 5386 0324 0920A0E1 		mov	r2, r9
 5387 0328 FF10A0E3 		mov	r1, #255
 5388 032c 0400A0E1 		mov	r0, r4
 5389              	.LVL776:
 5390 0330 FEFFFFEB 		bl	VL53L0X_WrByte
 5391              	.LVL777:
 5392              		.loc 1 2125 0
 5393 0334 1C809DE5 		ldr	r8, [sp, #28]
 5394              		.loc 1 2122 0
 5395 0338 B221DDE1 		ldrh	r2, [sp, #18]
 5396              		.loc 1 2125 0
 5397 033c 000058E3 		cmp	r8, #0
 5398              		.loc 1 2122 0
 5399 0340 8224A0E1 		lsl	r2, r2, #9
 5400              		.loc 1 2120 0
 5401 0344 0030A0E1 		mov	r3, r0
 5402              	.LVL778:
 5403              		.loc 1 2123 0
 5404 0348 482184E5 		str	r2, [r4, #328]
 5405              		.loc 1 2018 0
 5406 034c 0980A001 		moveq	r8, r9
 5407              		.loc 1 2125 0
 5408 0350 A6FFFF0A 		beq	.L387
 5409 0354 A2FFFFEA 		b	.L404
 5410              	.LVL779:
 5411              	.L397:
 5412              		.loc 1 2179 0
 5413 0358 040057E3 		cmp	r7, #4
 5414 035c 0930A011 		movne	r3, r9
 5415 0360 01308903 		orreq	r3, r9, #1
ARM GAS  /var/folders/3j/4xdnk5197cv_b7cw3n33qk7r0000gn/T//ccLoT9Qc.s 			page 96


 5416 0364 010013E3 		tst	r3, #1
 5417              		.loc 1 2181 0
 5418 0368 0230A013 		movne	r3, #2
 5419 036c 54209D15 		ldrne	r2, [sp, #84]
 5420              	.LVL780:
 5421 0370 0030C215 		strbne	r3, [r2]
 5422 0374 4FFFFF1A 		bne	.L401
 5423              	.LVL781:
 5424              	.L398:
 5425              		.loc 1 2183 0
 5426 0378 54309DE5 		ldr	r3, [sp, #84]
 5427              		.loc 1 2182 0
 5428 037c 010056E3 		cmp	r6, #1
 5429              		.loc 1 2183 0
 5430 0380 0060C305 		strbeq	r6, [r3]
 5431              		.loc 1 2182 0
 5432 0384 4BFFFF0A 		beq	.L401
 5433              		.loc 1 2185 0
 5434 0388 0020C3E5 		strb	r2, [r3]
 5435 038c 0280A0E1 		mov	r8, r2
 5436              	.LVL782:
 5437 0390 45FFFFEA 		b	.L400
 5438              	.LVL783:
 5439              	.L411:
 5440 0394 0390A0E1 		mov	r9, r3
 5441 0398 3FFFFFEA 		b	.L391
 5442              	.LVL784:
 5443              	.L409:
 5444 039c 0980A0E1 		mov	r8, r9
 5445 03a0 3CFFFFEA 		b	.L388
 5446              		.cfi_endproc
 5447              	.LFE27:
 5448              		.size	VL53L0X_get_pal_range_status, .-VL53L0X_get_pal_range_status
 5449              		.text
 5450              	.Letext0:
 5451              		.file 2 "/usr/local/Cellar/gcc-arm-none-eabi/20180627/arm-none-eabi/include/machine/_default_types
 5452              		.file 3 "/usr/local/Cellar/gcc-arm-none-eabi/20180627/arm-none-eabi/include/sys/_stdint.h"
 5453              		.file 4 "..//VL53L0X_Api/platform/inc/vl53l0x_types.h"
 5454              		.file 5 "..//VL53L0X_Api/core/inc/vl53l0x_device.h"
 5455              		.file 6 "..//VL53L0X_Api/core/inc/vl53l0x_def.h"
 5456              		.file 7 "/usr/local/Cellar/gcc-arm-none-eabi/20180627/arm-none-eabi/include/sys/lock.h"
 5457              		.file 8 "/usr/local/Cellar/gcc-arm-none-eabi/20180627/arm-none-eabi/include/sys/_types.h"
 5458              		.file 9 "/usr/local/Cellar/gcc-arm-none-eabi/20180627/lib/gcc/arm-none-eabi/7.3.1/include/stddef.h
 5459              		.file 10 "/usr/local/Cellar/gcc-arm-none-eabi/20180627/arm-none-eabi/include/sys/reent.h"
 5460              		.file 11 "..//VL53L0X_Api/platform/inc/vl53l0x_platform.h"
 5461              		.file 12 "/usr/local/Cellar/gcc-arm-none-eabi/20180627/arm-none-eabi/include/stdlib.h"
 5462              		.file 13 "..//VL53L0X_Api/core/inc/vl53l0x_api.h"
 5463              		.file 14 "..//VL53L0X_Api/core/inc/vl53l0x_api_calibration.h"
 5464              		.file 15 "/usr/local/Cellar/gcc-arm-none-eabi/20180627/arm-none-eabi/include/string.h"