ARM GAS  /var/folders/3j/4xdnk5197cv_b7cw3n33qk7r0000gn/T//ccfSc7Hc.s 			page 1


   1              		.cpu arm1176jz-s
   2              		.eabi_attribute 20, 1
   3              		.eabi_attribute 21, 1
   4              		.eabi_attribute 23, 3
   5              		.eabi_attribute 24, 1
   6              		.eabi_attribute 25, 1
   7              		.eabi_attribute 26, 1
   8              		.eabi_attribute 30, 2
   9              		.eabi_attribute 34, 1
  10              		.eabi_attribute 18, 4
  11              		.file	"vl53l0x_platform_log.c"
  12              		.text
  13              	.Ltext0:
  14              		.cfi_sections	.debug_frame
  15              		.section	.text.VL53L0X_trace_config,"ax",%progbits
  16              		.align	2
  17              		.global	VL53L0X_trace_config
  18              		.syntax unified
  19              		.arm
  20              		.fpu softvfp
  21              		.type	VL53L0X_trace_config, %function
  22              	VL53L0X_trace_config:
  23              	.LFB3:
  24              		.file 1 "..//VL53L0X_Api/platform/src/vl53l0x_platform_log.c"
  25              		.loc 1 46 0
  26              		.cfi_startproc
  27              		@ args = 0, pretend = 0, frame = 0
  28              		@ frame_needed = 0, uses_anonymous_args = 0
  29              	.LVL0:
  30 0000 F0472DE9 		push	{r4, r5, r6, r7, r8, r9, r10, lr}
  31              		.cfi_def_cfa_offset 32
  32              		.cfi_offset 4, -32
  33              		.cfi_offset 5, -28
  34              		.cfi_offset 6, -24
  35              		.cfi_offset 7, -20
  36              		.cfi_offset 8, -16
  37              		.cfi_offset 9, -12
  38              		.cfi_offset 10, -8
  39              		.cfi_offset 14, -4
  40              		.loc 1 49 0
  41 0004 C8609FE5 		ldr	r6, .L18
  42              		.loc 1 46 0
  43 0008 0070A0E1 		mov	r7, r0
  44              		.loc 1 49 0
  45 000c 000096E5 		ldr	r0, [r6]
  46              	.LVL1:
  47              		.loc 1 46 0
  48 0010 0180A0E1 		mov	r8, r1
  49              		.loc 1 49 0
  50 0014 000050E3 		cmp	r0, #0
  51              		.loc 1 46 0
  52 0018 0290A0E1 		mov	r9, r2
  53 001c 03A0A0E1 		mov	r10, r3
  54              		.loc 1 49 0
  55 0020 0D00000A 		beq	.L2
  56 0024 AC509FE5 		ldr	r5, .L18+4
  57              		.loc 1 49 0 is_stmt 0 discriminator 1
ARM GAS  /var/folders/3j/4xdnk5197cv_b7cw3n33qk7r0000gn/T//ccfSc7Hc.s 			page 2


  58 0028 070050E1 		cmp	r0, r7
  59 002c 004095E5 		ldr	r4, [r5]
  60 0030 0D00000A 		beq	.L3
  61              	.LBB2:
  62              		.loc 1 51 0 is_stmt 1
  63 0034 000054E3 		cmp	r4, #0
  64 0038 0400000A 		beq	.L4
  65              		.loc 1 53 0
  66 003c 0400A0E1 		mov	r0, r4
  67 0040 FEFFFFEB 		bl	fclose
  68              	.LVL2:
  69              		.loc 1 54 0
  70 0044 0030A0E3 		mov	r3, #0
  71 0048 000096E5 		ldr	r0, [r6]
  72 004c 003085E5 		str	r3, [r5]
  73              	.L4:
  74              		.loc 1 56 0
  75 0050 FEFFFFEB 		bl	free
  76              	.LVL3:
  77              		.loc 1 57 0
  78 0054 0030A0E3 		mov	r3, #0
  79 0058 003086E5 		str	r3, [r6]
  80              	.L2:
  81              	.LBE2:
  82              		.loc 1 60 0
  83 005c 000057E3 		cmp	r7, #0
  84 0060 0300000A 		beq	.L7
  85 0064 6C509FE5 		ldr	r5, .L18+4
  86 0068 004095E5 		ldr	r4, [r5]
  87              	.L3:
  88              		.loc 1 60 0 is_stmt 0 discriminator 1
  89 006c 000054E3 		cmp	r4, #0
  90 0070 0700000A 		beq	.L17
  91              	.L7:
  92              		.loc 1 47 0 is_stmt 1
  93 0074 0000A0E3 		mov	r0, #0
  94              	.L6:
  95              	.LVL4:
  96              		.loc 1 74 0
  97 0078 5C309FE5 		ldr	r3, .L18+8
  98              		.loc 1 75 0
  99 007c 5C209FE5 		ldr	r2, .L18+12
 100              		.loc 1 74 0
 101 0080 00A083E5 		str	r10, [r3]
 102              		.loc 1 76 0
 103 0084 58309FE5 		ldr	r3, .L18+16
 104              		.loc 1 75 0
 105 0088 009082E5 		str	r9, [r2]
 106              		.loc 1 76 0
 107 008c 008083E5 		str	r8, [r3]
 108              		.loc 1 79 0
 109 0090 F087BDE8 		pop	{r4, r5, r6, r7, r8, r9, r10, pc}
 110              	.LVL5:
 111              	.L17:
 112              		.loc 1 62 0
 113 0094 4C109FE5 		ldr	r1, .L18+20
 114 0098 0700A0E1 		mov	r0, r7
ARM GAS  /var/folders/3j/4xdnk5197cv_b7cw3n33qk7r0000gn/T//ccfSc7Hc.s 			page 3


 115 009c FEFFFFEB 		bl	fopen
 116              	.LVL6:
 117              		.loc 1 66 0
 118 00a0 000050E3 		cmp	r0, #0
 119              		.loc 1 62 0
 120 00a4 000085E5 		str	r0, [r5]
 121              		.loc 1 71 0
 122 00a8 0100A003 		moveq	r0, #1
 123              		.loc 1 66 0
 124 00ac F1FFFF0A 		beq	.L6
 125              	.LBB3:
 126              		.loc 1 68 0
 127 00b0 0700A0E1 		mov	r0, r7
 128 00b4 FEFFFFEB 		bl	strlen
 129              	.LVL7:
 130 00b8 010080E2 		add	r0, r0, #1
 131 00bc FEFFFFEB 		bl	malloc
 132              	.LVL8:
 133              		.loc 1 69 0
 134 00c0 0710A0E1 		mov	r1, r7
 135              		.loc 1 68 0
 136 00c4 000086E5 		str	r0, [r6]
 137              		.loc 1 69 0
 138 00c8 FEFFFFEB 		bl	strcpy
 139              	.LVL9:
 140              	.LBE3:
 141              		.loc 1 47 0
 142 00cc 0400A0E1 		mov	r0, r4
 143 00d0 E8FFFFEA 		b	.L6
 144              	.L19:
 145              		.align	2
 146              	.L18:
 147 00d4 00000000 		.word	.LANCHOR0
 148 00d8 00000000 		.word	.LANCHOR1
 149 00dc 00000000 		.word	.LANCHOR2
 150 00e0 00000000 		.word	.LANCHOR3
 151 00e4 00000000 		.word	.LANCHOR4
 152 00e8 00000000 		.word	.LC0
 153              		.cfi_endproc
 154              	.LFE3:
 155              		.size	VL53L0X_trace_config, .-VL53L0X_trace_config
 156              		.section	.text.trace_print_module_function,"ax",%progbits
 157              		.align	2
 158              		.global	trace_print_module_function
 159              		.syntax unified
 160              		.arm
 161              		.fpu softvfp
 162              		.type	trace_print_module_function, %function
 163              	trace_print_module_function:
 164              	.LFB4:
 165              		.loc 1 82 0
 166              		.cfi_startproc
 167              		@ args = 4, pretend = 4, frame = 264
 168              		@ frame_needed = 0, uses_anonymous_args = 1
 169              	.LVL10:
 170 0000 04302DE5 		str	r3, [sp, #-4]!
 171              		.cfi_def_cfa_offset 4
ARM GAS  /var/folders/3j/4xdnk5197cv_b7cw3n33qk7r0000gn/T//ccfSc7Hc.s 			page 4


 172              		.cfi_offset 3, -4
 173              		.loc 1 83 0
 174 0004 90309FE5 		ldr	r3, .L30
 175              		.loc 1 82 0
 176 0008 04E02DE5 		str	lr, [sp, #-4]!
 177              		.cfi_def_cfa_offset 8
 178              		.cfi_offset 14, -8
 179              		.loc 1 83 0
 180 000c 003093E5 		ldr	r3, [r3]
 181              		.loc 1 82 0
 182 0010 42DF4DE2 		sub	sp, sp, #264
 183              		.cfi_def_cfa_offset 272
 184              		.loc 1 83 0
 185 0014 010053E1 		cmp	r3, r1
 186 0018 1400003A 		bcc	.L21
 187              		.loc 1 83 0 is_stmt 0 discriminator 1
 188 001c 7C309FE5 		ldr	r3, .L30+4
 189 0020 003093E5 		ldr	r3, [r3]
 190 0024 030010E1 		tst	r0, r3
 191 0028 1000000A 		beq	.L21
 192              	.L22:
 193              	.LBB4:
 194              		.loc 1 89 0 is_stmt 1
 195 002c 11CE8DE2 		add	ip, sp, #272
 196              		.loc 1 90 0
 197 0030 0C30A0E1 		mov	r3, ip
 198 0034 08008DE2 		add	r0, sp, #8
 199              	.LVL11:
 200 0038 0C219DE5 		ldr	r2, [sp, #268]
 201              	.LVL12:
 202 003c 011CA0E3 		mov	r1, #256
 203              	.LVL13:
 204              		.loc 1 89 0
 205 0040 04C08DE5 		str	ip, [sp, #4]
 206              		.loc 1 90 0
 207 0044 FEFFFFEB 		bl	vsnprintf
 208              	.LVL14:
 209              		.loc 1 93 0
 210 0048 54309FE5 		ldr	r3, .L30+8
 211 004c 000093E5 		ldr	r0, [r3]
 212 0050 000050E3 		cmp	r0, #0
 213 0054 0A00000A 		beq	.L24
 214              		.loc 1 94 0
 215 0058 08108DE2 		add	r1, sp, #8
 216 005c FEFFFFEB 		bl	fprintf
 217              	.LVL15:
 218              	.L20:
 219              	.LBE4:
 220              		.loc 1 98 0
 221 0060 42DF8DE2 		add	sp, sp, #264
 222              		.cfi_remember_state
 223              		.cfi_def_cfa_offset 8
 224              		@ sp needed
 225 0064 04E09DE4 		ldr	lr, [sp], #4
 226              		.cfi_restore 14
 227              		.cfi_def_cfa_offset 4
 228 0068 04D08DE2 		add	sp, sp, #4
ARM GAS  /var/folders/3j/4xdnk5197cv_b7cw3n33qk7r0000gn/T//ccfSc7Hc.s 			page 5


 229              		.cfi_restore 3
 230              		.cfi_def_cfa_offset 0
 231 006c 1EFF2FE1 		bx	lr
 232              	.LVL16:
 233              	.L21:
 234              		.cfi_restore_state
 235              		.loc 1 84 0
 236 0070 30309FE5 		ldr	r3, .L30+12
 237 0074 003093E5 		ldr	r3, [r3]
 238 0078 030012E1 		tst	r2, r3
 239 007c EAFFFF1A 		bne	.L22
 240 0080 F6FFFFEA 		b	.L20
 241              	.LVL17:
 242              	.L24:
 243              	.LBB5:
 244              		.loc 1 96 0
 245 0084 08008DE2 		add	r0, sp, #8
 246 0088 FEFFFFEB 		bl	printf
 247              	.LVL18:
 248              	.LBE5:
 249              		.loc 1 98 0
 250 008c 42DF8DE2 		add	sp, sp, #264
 251              		.cfi_def_cfa_offset 8
 252              		@ sp needed
 253 0090 04E09DE4 		ldr	lr, [sp], #4
 254              		.cfi_restore 14
 255              		.cfi_def_cfa_offset 4
 256 0094 04D08DE2 		add	sp, sp, #4
 257              		.cfi_restore 3
 258              		.cfi_def_cfa_offset 0
 259 0098 1EFF2FE1 		bx	lr
 260              	.L31:
 261              		.align	2
 262              	.L30:
 263 009c 00000000 		.word	.LANCHOR3
 264 00a0 00000000 		.word	.LANCHOR4
 265 00a4 00000000 		.word	.LANCHOR1
 266 00a8 00000000 		.word	.LANCHOR2
 267              		.cfi_endproc
 268              	.LFE4:
 269              		.size	trace_print_module_function, .-trace_print_module_function
 270              		.global	_trace_functions
 271              		.global	_trace_modules
 272              		.global	_trace_level
 273              		.global	_tracefile
 274              		.global	_trace_filename
 275              		.comm	debug_string,256,4
 276              		.section	.bss._trace_filename,"aw",%nobits
 277              		.align	2
 278              		.set	.LANCHOR0,. + 0
 279              		.type	_trace_filename, %object
 280              		.size	_trace_filename, 4
 281              	_trace_filename:
 282 0000 00000000 		.space	4
 283              		.section	.bss._trace_functions,"aw",%nobits
 284              		.align	2
 285              		.set	.LANCHOR2,. + 0
ARM GAS  /var/folders/3j/4xdnk5197cv_b7cw3n33qk7r0000gn/T//ccfSc7Hc.s 			page 6


 286              		.type	_trace_functions, %object
 287              		.size	_trace_functions, 4
 288              	_trace_functions:
 289 0000 00000000 		.space	4
 290              		.section	.bss._trace_modules,"aw",%nobits
 291              		.align	2
 292              		.set	.LANCHOR4,. + 0
 293              		.type	_trace_modules, %object
 294              		.size	_trace_modules, 4
 295              	_trace_modules:
 296 0000 00000000 		.space	4
 297              		.section	.bss._tracefile,"aw",%nobits
 298              		.align	2
 299              		.set	.LANCHOR1,. + 0
 300              		.type	_tracefile, %object
 301              		.size	_tracefile, 4
 302              	_tracefile:
 303 0000 00000000 		.space	4
 304              		.section	.data._trace_level,"aw",%progbits
 305              		.align	2
 306              		.set	.LANCHOR3,. + 0
 307              		.type	_trace_level, %object
 308              		.size	_trace_level, 4
 309              	_trace_level:
 310 0000 02000000 		.word	2
 311              		.section	.rodata.VL53L0X_trace_config.str1.4,"aMS",%progbits,1
 312              		.align	2
 313              	.LC0:
 314 0000 772B00   		.ascii	"w+\000"
 315              		.text
 316              	.Letext0:
 317              		.file 2 "/usr/local/Cellar/gcc-arm-none-eabi/20180627/arm-none-eabi/include/machine/_default_types
 318              		.file 3 "/usr/local/Cellar/gcc-arm-none-eabi/20180627/lib/gcc/arm-none-eabi/7.3.1/include/stdarg.h
 319              		.file 4 "/usr/local/Cellar/gcc-arm-none-eabi/20180627/arm-none-eabi/include/stdio.h"
 320              		.file 5 "/usr/local/Cellar/gcc-arm-none-eabi/20180627/arm-none-eabi/include/sys/lock.h"
 321              		.file 6 "/usr/local/Cellar/gcc-arm-none-eabi/20180627/arm-none-eabi/include/sys/_types.h"
 322              		.file 7 "/usr/local/Cellar/gcc-arm-none-eabi/20180627/lib/gcc/arm-none-eabi/7.3.1/include/stddef.h
 323              		.file 8 "/usr/local/Cellar/gcc-arm-none-eabi/20180627/arm-none-eabi/include/sys/reent.h"
 324              		.file 9 "<built-in>"
 325              		.file 10 "/usr/local/Cellar/gcc-arm-none-eabi/20180627/arm-none-eabi/include/sys/_stdint.h"
 326              		.file 11 "..//VL53L0X_Api/platform/inc/vl53l0x_platform_log.h"
 327              		.file 12 "/usr/local/Cellar/gcc-arm-none-eabi/20180627/arm-none-eabi/include/string.h"
 328              		.section	.debug_info,"",%progbits
 329              	.Ldebug_info0:
 330 0000 280C0000 		.4byte	0xc28
 331 0004 0400     		.2byte	0x4
 332 0006 00000000 		.4byte	.Ldebug_abbrev0
 333 000a 04       		.byte	0x4
 334 000b 01       		.uleb128 0x1
 335 000c 2F000000 		.4byte	.LASF169
 336 0010 0C       		.byte	0xc
 337 0011 4A060000 		.4byte	.LASF170
 338 0015 8A060000 		.4byte	.LASF171
 339 0019 18000000 		.4byte	.Ldebug_ranges0+0x18
 340 001d 00000000 		.4byte	0
 341 0021 00000000 		.4byte	.Ldebug_line0
 342 0025 02       		.uleb128 0x2
ARM GAS  /var/folders/3j/4xdnk5197cv_b7cw3n33qk7r0000gn/T//ccfSc7Hc.s 			page 7


 343 0026 01       		.byte	0x1
 344 0027 06       		.byte	0x6
 345 0028 36070000 		.4byte	.LASF0
 346 002c 02       		.uleb128 0x2
 347 002d 01       		.byte	0x1
 348 002e 08       		.byte	0x8
 349 002f 1B060000 		.4byte	.LASF1
 350 0033 02       		.uleb128 0x2
 351 0034 02       		.byte	0x2
 352 0035 05       		.byte	0x5
 353 0036 FE040000 		.4byte	.LASF2
 354 003a 02       		.uleb128 0x2
 355 003b 02       		.byte	0x2
 356 003c 07       		.byte	0x7
 357 003d 49070000 		.4byte	.LASF3
 358 0041 03       		.uleb128 0x3
 359 0042 4A010000 		.4byte	.LASF5
 360 0046 02       		.byte	0x2
 361 0047 4D       		.byte	0x4d
 362 0048 4C000000 		.4byte	0x4c
 363 004c 02       		.uleb128 0x2
 364 004d 04       		.byte	0x4
 365 004e 05       		.byte	0x5
 366 004f 08050000 		.4byte	.LASF4
 367 0053 03       		.uleb128 0x3
 368 0054 29060000 		.4byte	.LASF6
 369 0058 02       		.byte	0x2
 370 0059 4F       		.byte	0x4f
 371 005a 5E000000 		.4byte	0x5e
 372 005e 02       		.uleb128 0x2
 373 005f 04       		.byte	0x4
 374 0060 07       		.byte	0x7
 375 0061 D8050000 		.4byte	.LASF7
 376 0065 02       		.uleb128 0x2
 377 0066 08       		.byte	0x8
 378 0067 05       		.byte	0x5
 379 0068 E8030000 		.4byte	.LASF8
 380 006c 02       		.uleb128 0x2
 381 006d 08       		.byte	0x8
 382 006e 07       		.byte	0x7
 383 006f 3B020000 		.4byte	.LASF9
 384 0073 04       		.uleb128 0x4
 385 0074 04       		.byte	0x4
 386 0075 05       		.byte	0x5
 387 0076 696E7400 		.ascii	"int\000"
 388 007a 02       		.uleb128 0x2
 389 007b 04       		.byte	0x4
 390 007c 07       		.byte	0x7
 391 007d 2D010000 		.4byte	.LASF10
 392 0081 02       		.uleb128 0x2
 393 0082 08       		.byte	0x8
 394 0083 04       		.byte	0x4
 395 0084 98040000 		.4byte	.LASF11
 396 0088 03       		.uleb128 0x3
 397 0089 95020000 		.4byte	.LASF12
 398 008d 03       		.byte	0x3
 399 008e 28       		.byte	0x28
ARM GAS  /var/folders/3j/4xdnk5197cv_b7cw3n33qk7r0000gn/T//ccfSc7Hc.s 			page 8


 400 008f 93000000 		.4byte	0x93
 401 0093 05       		.uleb128 0x5
 402 0094 C8050000 		.4byte	.LASF26
 403 0098 04       		.byte	0x4
 404 0099 09       		.byte	0x9
 405 009a 00       		.byte	0
 406 009b AA000000 		.4byte	0xaa
 407 009f 06       		.uleb128 0x6
 408 00a0 41040000 		.4byte	.LASF18
 409 00a4 AA000000 		.4byte	0xaa
 410 00a8 00       		.byte	0
 411 00a9 00       		.byte	0
 412 00aa 07       		.uleb128 0x7
 413 00ab 04       		.byte	0x4
 414 00ac 03       		.uleb128 0x3
 415 00ad CA030000 		.4byte	.LASF13
 416 00b1 04       		.byte	0x4
 417 00b2 2E       		.byte	0x2e
 418 00b3 88000000 		.4byte	0x88
 419 00b7 03       		.uleb128 0x3
 420 00b8 A4040000 		.4byte	.LASF14
 421 00bc 05       		.byte	0x5
 422 00bd 22       		.byte	0x22
 423 00be C2000000 		.4byte	0xc2
 424 00c2 08       		.uleb128 0x8
 425 00c3 04       		.byte	0x4
 426 00c4 C8000000 		.4byte	0xc8
 427 00c8 09       		.uleb128 0x9
 428 00c9 0C060000 		.4byte	.LASF123
 429 00cd 03       		.uleb128 0x3
 430 00ce 87070000 		.4byte	.LASF15
 431 00d2 06       		.byte	0x6
 432 00d3 2C       		.byte	0x2c
 433 00d4 4C000000 		.4byte	0x4c
 434 00d8 03       		.uleb128 0x3
 435 00d9 9B010000 		.4byte	.LASF16
 436 00dd 06       		.byte	0x6
 437 00de 72       		.byte	0x72
 438 00df 4C000000 		.4byte	0x4c
 439 00e3 0A       		.uleb128 0xa
 440 00e4 F1050000 		.4byte	.LASF17
 441 00e8 07       		.byte	0x7
 442 00e9 6501     		.2byte	0x165
 443 00eb 7A000000 		.4byte	0x7a
 444 00ef 0B       		.uleb128 0xb
 445 00f0 04       		.byte	0x4
 446 00f1 06       		.byte	0x6
 447 00f2 A6       		.byte	0xa6
 448 00f3 0E010000 		.4byte	0x10e
 449 00f7 0C       		.uleb128 0xc
 450 00f8 99030000 		.4byte	.LASF19
 451 00fc 06       		.byte	0x6
 452 00fd A8       		.byte	0xa8
 453 00fe E3000000 		.4byte	0xe3
 454 0102 0C       		.uleb128 0xc
 455 0103 22050000 		.4byte	.LASF20
 456 0107 06       		.byte	0x6
ARM GAS  /var/folders/3j/4xdnk5197cv_b7cw3n33qk7r0000gn/T//ccfSc7Hc.s 			page 9


 457 0108 A9       		.byte	0xa9
 458 0109 0E010000 		.4byte	0x10e
 459 010d 00       		.byte	0
 460 010e 0D       		.uleb128 0xd
 461 010f 2C000000 		.4byte	0x2c
 462 0113 1E010000 		.4byte	0x11e
 463 0117 0E       		.uleb128 0xe
 464 0118 7A000000 		.4byte	0x7a
 465 011c 03       		.byte	0x3
 466 011d 00       		.byte	0
 467 011e 0F       		.uleb128 0xf
 468 011f 08       		.byte	0x8
 469 0120 06       		.byte	0x6
 470 0121 A3       		.byte	0xa3
 471 0122 3F010000 		.4byte	0x13f
 472 0126 10       		.uleb128 0x10
 473 0127 05020000 		.4byte	.LASF21
 474 012b 06       		.byte	0x6
 475 012c A5       		.byte	0xa5
 476 012d 73000000 		.4byte	0x73
 477 0131 00       		.byte	0
 478 0132 10       		.uleb128 0x10
 479 0133 2B030000 		.4byte	.LASF22
 480 0137 06       		.byte	0x6
 481 0138 AA       		.byte	0xaa
 482 0139 EF000000 		.4byte	0xef
 483 013d 04       		.byte	0x4
 484 013e 00       		.byte	0
 485 013f 03       		.uleb128 0x3
 486 0140 50040000 		.4byte	.LASF23
 487 0144 06       		.byte	0x6
 488 0145 AB       		.byte	0xab
 489 0146 1E010000 		.4byte	0x11e
 490 014a 03       		.uleb128 0x3
 491 014b 90030000 		.4byte	.LASF24
 492 014f 06       		.byte	0x6
 493 0150 AF       		.byte	0xaf
 494 0151 B7000000 		.4byte	0xb7
 495 0155 03       		.uleb128 0x3
 496 0156 24040000 		.4byte	.LASF25
 497 015a 08       		.byte	0x8
 498 015b 16       		.byte	0x16
 499 015c 5E000000 		.4byte	0x5e
 500 0160 05       		.uleb128 0x5
 501 0161 B0010000 		.4byte	.LASF27
 502 0165 18       		.byte	0x18
 503 0166 08       		.byte	0x8
 504 0167 2F       		.byte	0x2f
 505 0168 B3010000 		.4byte	0x1b3
 506 016c 10       		.uleb128 0x10
 507 016d E2020000 		.4byte	.LASF28
 508 0171 08       		.byte	0x8
 509 0172 31       		.byte	0x31
 510 0173 B3010000 		.4byte	0x1b3
 511 0177 00       		.byte	0
 512 0178 11       		.uleb128 0x11
 513 0179 5F6B00   		.ascii	"_k\000"
ARM GAS  /var/folders/3j/4xdnk5197cv_b7cw3n33qk7r0000gn/T//ccfSc7Hc.s 			page 10


 514 017c 08       		.byte	0x8
 515 017d 32       		.byte	0x32
 516 017e 73000000 		.4byte	0x73
 517 0182 04       		.byte	0x4
 518 0183 10       		.uleb128 0x10
 519 0184 97050000 		.4byte	.LASF29
 520 0188 08       		.byte	0x8
 521 0189 32       		.byte	0x32
 522 018a 73000000 		.4byte	0x73
 523 018e 08       		.byte	0x8
 524 018f 10       		.uleb128 0x10
 525 0190 16050000 		.4byte	.LASF30
 526 0194 08       		.byte	0x8
 527 0195 32       		.byte	0x32
 528 0196 73000000 		.4byte	0x73
 529 019a 0C       		.byte	0xc
 530 019b 10       		.uleb128 0x10
 531 019c 67020000 		.4byte	.LASF31
 532 01a0 08       		.byte	0x8
 533 01a1 32       		.byte	0x32
 534 01a2 73000000 		.4byte	0x73
 535 01a6 10       		.byte	0x10
 536 01a7 11       		.uleb128 0x11
 537 01a8 5F7800   		.ascii	"_x\000"
 538 01ab 08       		.byte	0x8
 539 01ac 33       		.byte	0x33
 540 01ad B9010000 		.4byte	0x1b9
 541 01b1 14       		.byte	0x14
 542 01b2 00       		.byte	0
 543 01b3 08       		.uleb128 0x8
 544 01b4 04       		.byte	0x4
 545 01b5 60010000 		.4byte	0x160
 546 01b9 0D       		.uleb128 0xd
 547 01ba 55010000 		.4byte	0x155
 548 01be C9010000 		.4byte	0x1c9
 549 01c2 0E       		.uleb128 0xe
 550 01c3 7A000000 		.4byte	0x7a
 551 01c7 00       		.byte	0
 552 01c8 00       		.byte	0
 553 01c9 05       		.uleb128 0x5
 554 01ca C3050000 		.4byte	.LASF32
 555 01ce 24       		.byte	0x24
 556 01cf 08       		.byte	0x8
 557 01d0 37       		.byte	0x37
 558 01d1 42020000 		.4byte	0x242
 559 01d5 10       		.uleb128 0x10
 560 01d6 C5020000 		.4byte	.LASF33
 561 01da 08       		.byte	0x8
 562 01db 39       		.byte	0x39
 563 01dc 73000000 		.4byte	0x73
 564 01e0 00       		.byte	0
 565 01e1 10       		.uleb128 0x10
 566 01e2 0D020000 		.4byte	.LASF34
 567 01e6 08       		.byte	0x8
 568 01e7 3A       		.byte	0x3a
 569 01e8 73000000 		.4byte	0x73
 570 01ec 04       		.byte	0x4
ARM GAS  /var/folders/3j/4xdnk5197cv_b7cw3n33qk7r0000gn/T//ccfSc7Hc.s 			page 11


 571 01ed 10       		.uleb128 0x10
 572 01ee DA010000 		.4byte	.LASF35
 573 01f2 08       		.byte	0x8
 574 01f3 3B       		.byte	0x3b
 575 01f4 73000000 		.4byte	0x73
 576 01f8 08       		.byte	0x8
 577 01f9 10       		.uleb128 0x10
 578 01fa 5B030000 		.4byte	.LASF36
 579 01fe 08       		.byte	0x8
 580 01ff 3C       		.byte	0x3c
 581 0200 73000000 		.4byte	0x73
 582 0204 0C       		.byte	0xc
 583 0205 10       		.uleb128 0x10
 584 0206 8F040000 		.4byte	.LASF37
 585 020a 08       		.byte	0x8
 586 020b 3D       		.byte	0x3d
 587 020c 73000000 		.4byte	0x73
 588 0210 10       		.byte	0x10
 589 0211 10       		.uleb128 0x10
 590 0212 43050000 		.4byte	.LASF38
 591 0216 08       		.byte	0x8
 592 0217 3E       		.byte	0x3e
 593 0218 73000000 		.4byte	0x73
 594 021c 14       		.byte	0x14
 595 021d 10       		.uleb128 0x10
 596 021e B8010000 		.4byte	.LASF39
 597 0222 08       		.byte	0x8
 598 0223 3F       		.byte	0x3f
 599 0224 73000000 		.4byte	0x73
 600 0228 18       		.byte	0x18
 601 0229 10       		.uleb128 0x10
 602 022a CE020000 		.4byte	.LASF40
 603 022e 08       		.byte	0x8
 604 022f 40       		.byte	0x40
 605 0230 73000000 		.4byte	0x73
 606 0234 1C       		.byte	0x1c
 607 0235 10       		.uleb128 0x10
 608 0236 5B040000 		.4byte	.LASF41
 609 023a 08       		.byte	0x8
 610 023b 41       		.byte	0x41
 611 023c 73000000 		.4byte	0x73
 612 0240 20       		.byte	0x20
 613 0241 00       		.byte	0
 614 0242 12       		.uleb128 0x12
 615 0243 E9000000 		.4byte	.LASF42
 616 0247 0801     		.2byte	0x108
 617 0249 08       		.byte	0x8
 618 024a 4A       		.byte	0x4a
 619 024b 82020000 		.4byte	0x282
 620 024f 10       		.uleb128 0x10
 621 0250 2E070000 		.4byte	.LASF43
 622 0254 08       		.byte	0x8
 623 0255 4B       		.byte	0x4b
 624 0256 82020000 		.4byte	0x282
 625 025a 00       		.byte	0
 626 025b 10       		.uleb128 0x10
 627 025c 00060000 		.4byte	.LASF44
ARM GAS  /var/folders/3j/4xdnk5197cv_b7cw3n33qk7r0000gn/T//ccfSc7Hc.s 			page 12


 628 0260 08       		.byte	0x8
 629 0261 4C       		.byte	0x4c
 630 0262 82020000 		.4byte	0x282
 631 0266 80       		.byte	0x80
 632 0267 13       		.uleb128 0x13
 633 0268 78070000 		.4byte	.LASF45
 634 026c 08       		.byte	0x8
 635 026d 4E       		.byte	0x4e
 636 026e 55010000 		.4byte	0x155
 637 0272 0001     		.2byte	0x100
 638 0274 13       		.uleb128 0x13
 639 0275 C9070000 		.4byte	.LASF46
 640 0279 08       		.byte	0x8
 641 027a 51       		.byte	0x51
 642 027b 55010000 		.4byte	0x155
 643 027f 0401     		.2byte	0x104
 644 0281 00       		.byte	0
 645 0282 0D       		.uleb128 0xd
 646 0283 AA000000 		.4byte	0xaa
 647 0287 92020000 		.4byte	0x292
 648 028b 0E       		.uleb128 0xe
 649 028c 7A000000 		.4byte	0x7a
 650 0290 1F       		.byte	0x1f
 651 0291 00       		.byte	0
 652 0292 12       		.uleb128 0x12
 653 0293 CE040000 		.4byte	.LASF47
 654 0297 9001     		.2byte	0x190
 655 0299 08       		.byte	0x8
 656 029a 5D       		.byte	0x5d
 657 029b D0020000 		.4byte	0x2d0
 658 029f 10       		.uleb128 0x10
 659 02a0 E2020000 		.4byte	.LASF28
 660 02a4 08       		.byte	0x8
 661 02a5 5E       		.byte	0x5e
 662 02a6 D0020000 		.4byte	0x2d0
 663 02aa 00       		.byte	0
 664 02ab 10       		.uleb128 0x10
 665 02ac DD020000 		.4byte	.LASF48
 666 02b0 08       		.byte	0x8
 667 02b1 5F       		.byte	0x5f
 668 02b2 73000000 		.4byte	0x73
 669 02b6 04       		.byte	0x4
 670 02b7 10       		.uleb128 0x10
 671 02b8 A3010000 		.4byte	.LASF49
 672 02bc 08       		.byte	0x8
 673 02bd 61       		.byte	0x61
 674 02be D6020000 		.4byte	0x2d6
 675 02c2 08       		.byte	0x8
 676 02c3 10       		.uleb128 0x10
 677 02c4 E9000000 		.4byte	.LASF42
 678 02c8 08       		.byte	0x8
 679 02c9 62       		.byte	0x62
 680 02ca 42020000 		.4byte	0x242
 681 02ce 88       		.byte	0x88
 682 02cf 00       		.byte	0
 683 02d0 08       		.uleb128 0x8
 684 02d1 04       		.byte	0x4
ARM GAS  /var/folders/3j/4xdnk5197cv_b7cw3n33qk7r0000gn/T//ccfSc7Hc.s 			page 13


 685 02d2 92020000 		.4byte	0x292
 686 02d6 0D       		.uleb128 0xd
 687 02d7 E6020000 		.4byte	0x2e6
 688 02db E6020000 		.4byte	0x2e6
 689 02df 0E       		.uleb128 0xe
 690 02e0 7A000000 		.4byte	0x7a
 691 02e4 1F       		.byte	0x1f
 692 02e5 00       		.byte	0
 693 02e6 08       		.uleb128 0x8
 694 02e7 04       		.byte	0x4
 695 02e8 EC020000 		.4byte	0x2ec
 696 02ec 14       		.uleb128 0x14
 697 02ed 05       		.uleb128 0x5
 698 02ee 83060000 		.4byte	.LASF50
 699 02f2 08       		.byte	0x8
 700 02f3 08       		.byte	0x8
 701 02f4 75       		.byte	0x75
 702 02f5 12030000 		.4byte	0x312
 703 02f9 10       		.uleb128 0x10
 704 02fa 0E040000 		.4byte	.LASF51
 705 02fe 08       		.byte	0x8
 706 02ff 76       		.byte	0x76
 707 0300 12030000 		.4byte	0x312
 708 0304 00       		.byte	0
 709 0305 10       		.uleb128 0x10
 710 0306 81070000 		.4byte	.LASF52
 711 030a 08       		.byte	0x8
 712 030b 77       		.byte	0x77
 713 030c 73000000 		.4byte	0x73
 714 0310 04       		.byte	0x4
 715 0311 00       		.byte	0
 716 0312 08       		.uleb128 0x8
 717 0313 04       		.byte	0x4
 718 0314 2C000000 		.4byte	0x2c
 719 0318 05       		.uleb128 0x5
 720 0319 5F020000 		.4byte	.LASF53
 721 031d 68       		.byte	0x68
 722 031e 08       		.byte	0x8
 723 031f B5       		.byte	0xb5
 724 0320 42040000 		.4byte	0x442
 725 0324 11       		.uleb128 0x11
 726 0325 5F7000   		.ascii	"_p\000"
 727 0328 08       		.byte	0x8
 728 0329 B6       		.byte	0xb6
 729 032a 12030000 		.4byte	0x312
 730 032e 00       		.byte	0
 731 032f 11       		.uleb128 0x11
 732 0330 5F7200   		.ascii	"_r\000"
 733 0333 08       		.byte	0x8
 734 0334 B7       		.byte	0xb7
 735 0335 73000000 		.4byte	0x73
 736 0339 04       		.byte	0x4
 737 033a 11       		.uleb128 0x11
 738 033b 5F7700   		.ascii	"_w\000"
 739 033e 08       		.byte	0x8
 740 033f B8       		.byte	0xb8
 741 0340 73000000 		.4byte	0x73
ARM GAS  /var/folders/3j/4xdnk5197cv_b7cw3n33qk7r0000gn/T//ccfSc7Hc.s 			page 14


 742 0344 08       		.byte	0x8
 743 0345 10       		.uleb128 0x10
 744 0346 43010000 		.4byte	.LASF54
 745 034a 08       		.byte	0x8
 746 034b B9       		.byte	0xb9
 747 034c 33000000 		.4byte	0x33
 748 0350 0C       		.byte	0xc
 749 0351 10       		.uleb128 0x10
 750 0352 3B040000 		.4byte	.LASF55
 751 0356 08       		.byte	0x8
 752 0357 BA       		.byte	0xba
 753 0358 33000000 		.4byte	0x33
 754 035c 0E       		.byte	0xe
 755 035d 11       		.uleb128 0x11
 756 035e 5F626600 		.ascii	"_bf\000"
 757 0362 08       		.byte	0x8
 758 0363 BB       		.byte	0xbb
 759 0364 ED020000 		.4byte	0x2ed
 760 0368 10       		.byte	0x10
 761 0369 10       		.uleb128 0x10
 762 036a 3A010000 		.4byte	.LASF56
 763 036e 08       		.byte	0x8
 764 036f BC       		.byte	0xbc
 765 0370 73000000 		.4byte	0x73
 766 0374 18       		.byte	0x18
 767 0375 10       		.uleb128 0x10
 768 0376 A8010000 		.4byte	.LASF57
 769 037a 08       		.byte	0x8
 770 037b C3       		.byte	0xc3
 771 037c AA000000 		.4byte	0xaa
 772 0380 1C       		.byte	0x1c
 773 0381 10       		.uleb128 0x10
 774 0382 76010000 		.4byte	.LASF58
 775 0386 08       		.byte	0x8
 776 0387 C5       		.byte	0xc5
 777 0388 AF050000 		.4byte	0x5af
 778 038c 20       		.byte	0x20
 779 038d 10       		.uleb128 0x10
 780 038e BF040000 		.4byte	.LASF59
 781 0392 08       		.byte	0x8
 782 0393 C7       		.byte	0xc7
 783 0394 D9050000 		.4byte	0x5d9
 784 0398 24       		.byte	0x24
 785 0399 10       		.uleb128 0x10
 786 039a ED070000 		.4byte	.LASF60
 787 039e 08       		.byte	0x8
 788 039f CA       		.byte	0xca
 789 03a0 FD050000 		.4byte	0x5fd
 790 03a4 28       		.byte	0x28
 791 03a5 10       		.uleb128 0x10
 792 03a6 A5030000 		.4byte	.LASF61
 793 03aa 08       		.byte	0x8
 794 03ab CB       		.byte	0xcb
 795 03ac 17060000 		.4byte	0x617
 796 03b0 2C       		.byte	0x2c
 797 03b1 11       		.uleb128 0x11
 798 03b2 5F756200 		.ascii	"_ub\000"
ARM GAS  /var/folders/3j/4xdnk5197cv_b7cw3n33qk7r0000gn/T//ccfSc7Hc.s 			page 15


 799 03b6 08       		.byte	0x8
 800 03b7 CE       		.byte	0xce
 801 03b8 ED020000 		.4byte	0x2ed
 802 03bc 30       		.byte	0x30
 803 03bd 11       		.uleb128 0x11
 804 03be 5F757000 		.ascii	"_up\000"
 805 03c2 08       		.byte	0x8
 806 03c3 CF       		.byte	0xcf
 807 03c4 12030000 		.4byte	0x312
 808 03c8 38       		.byte	0x38
 809 03c9 11       		.uleb128 0x11
 810 03ca 5F757200 		.ascii	"_ur\000"
 811 03ce 08       		.byte	0x8
 812 03cf D0       		.byte	0xd0
 813 03d0 73000000 		.4byte	0x73
 814 03d4 3C       		.byte	0x3c
 815 03d5 10       		.uleb128 0x10
 816 03d6 04080000 		.4byte	.LASF62
 817 03da 08       		.byte	0x8
 818 03db D3       		.byte	0xd3
 819 03dc 1D060000 		.4byte	0x61d
 820 03e0 40       		.byte	0x40
 821 03e1 10       		.uleb128 0x10
 822 03e2 95070000 		.4byte	.LASF63
 823 03e6 08       		.byte	0x8
 824 03e7 D4       		.byte	0xd4
 825 03e8 2D060000 		.4byte	0x62d
 826 03ec 43       		.byte	0x43
 827 03ed 11       		.uleb128 0x11
 828 03ee 5F6C6200 		.ascii	"_lb\000"
 829 03f2 08       		.byte	0x8
 830 03f3 D7       		.byte	0xd7
 831 03f4 ED020000 		.4byte	0x2ed
 832 03f8 44       		.byte	0x44
 833 03f9 10       		.uleb128 0x10
 834 03fa BA050000 		.4byte	.LASF64
 835 03fe 08       		.byte	0x8
 836 03ff DA       		.byte	0xda
 837 0400 73000000 		.4byte	0x73
 838 0404 4C       		.byte	0x4c
 839 0405 10       		.uleb128 0x10
 840 0406 73020000 		.4byte	.LASF65
 841 040a 08       		.byte	0x8
 842 040b DB       		.byte	0xdb
 843 040c CD000000 		.4byte	0xcd
 844 0410 50       		.byte	0x50
 845 0411 10       		.uleb128 0x10
 846 0412 1C050000 		.4byte	.LASF66
 847 0416 08       		.byte	0x8
 848 0417 DE       		.byte	0xde
 849 0418 60040000 		.4byte	0x460
 850 041c 54       		.byte	0x54
 851 041d 10       		.uleb128 0x10
 852 041e D2050000 		.4byte	.LASF67
 853 0422 08       		.byte	0x8
 854 0423 E2       		.byte	0xe2
 855 0424 4A010000 		.4byte	0x14a
ARM GAS  /var/folders/3j/4xdnk5197cv_b7cw3n33qk7r0000gn/T//ccfSc7Hc.s 			page 16


 856 0428 58       		.byte	0x58
 857 0429 10       		.uleb128 0x10
 858 042a 6D010000 		.4byte	.LASF68
 859 042e 08       		.byte	0x8
 860 042f E4       		.byte	0xe4
 861 0430 3F010000 		.4byte	0x13f
 862 0434 5C       		.byte	0x5c
 863 0435 10       		.uleb128 0x10
 864 0436 C1070000 		.4byte	.LASF69
 865 043a 08       		.byte	0x8
 866 043b E5       		.byte	0xe5
 867 043c 73000000 		.4byte	0x73
 868 0440 64       		.byte	0x64
 869 0441 00       		.byte	0
 870 0442 15       		.uleb128 0x15
 871 0443 73000000 		.4byte	0x73
 872 0447 60040000 		.4byte	0x460
 873 044b 16       		.uleb128 0x16
 874 044c 60040000 		.4byte	0x460
 875 0450 16       		.uleb128 0x16
 876 0451 AA000000 		.4byte	0xaa
 877 0455 16       		.uleb128 0x16
 878 0456 9D050000 		.4byte	0x59d
 879 045a 16       		.uleb128 0x16
 880 045b 73000000 		.4byte	0x73
 881 045f 00       		.byte	0
 882 0460 08       		.uleb128 0x8
 883 0461 04       		.byte	0x4
 884 0462 6B040000 		.4byte	0x46b
 885 0466 17       		.uleb128 0x17
 886 0467 60040000 		.4byte	0x460
 887 046b 18       		.uleb128 0x18
 888 046c 42070000 		.4byte	.LASF70
 889 0470 2804     		.2byte	0x428
 890 0472 08       		.byte	0x8
 891 0473 6002     		.2byte	0x260
 892 0475 9D050000 		.4byte	0x59d
 893 0479 19       		.uleb128 0x19
 894 047a 59010000 		.4byte	.LASF71
 895 047e 08       		.byte	0x8
 896 047f 6202     		.2byte	0x262
 897 0481 73000000 		.4byte	0x73
 898 0485 00       		.byte	0
 899 0486 19       		.uleb128 0x19
 900 0487 D2030000 		.4byte	.LASF72
 901 048b 08       		.byte	0x8
 902 048c 6702     		.2byte	0x267
 903 048e 84060000 		.4byte	0x684
 904 0492 04       		.byte	0x4
 905 0493 19       		.uleb128 0x19
 906 0494 93010000 		.4byte	.LASF73
 907 0498 08       		.byte	0x8
 908 0499 6702     		.2byte	0x267
 909 049b 84060000 		.4byte	0x684
 910 049f 08       		.byte	0x8
 911 04a0 19       		.uleb128 0x19
 912 04a1 F3070000 		.4byte	.LASF74
ARM GAS  /var/folders/3j/4xdnk5197cv_b7cw3n33qk7r0000gn/T//ccfSc7Hc.s 			page 17


 913 04a5 08       		.byte	0x8
 914 04a6 6702     		.2byte	0x267
 915 04a8 84060000 		.4byte	0x684
 916 04ac 0C       		.byte	0xc
 917 04ad 19       		.uleb128 0x19
 918 04ae D8020000 		.4byte	.LASF75
 919 04b2 08       		.byte	0x8
 920 04b3 6902     		.2byte	0x269
 921 04b5 73000000 		.4byte	0x73
 922 04b9 10       		.byte	0x10
 923 04ba 19       		.uleb128 0x19
 924 04bb 83020000 		.4byte	.LASF76
 925 04bf 08       		.byte	0x8
 926 04c0 6A02     		.2byte	0x26a
 927 04c2 66080000 		.4byte	0x866
 928 04c6 14       		.byte	0x14
 929 04c7 19       		.uleb128 0x19
 930 04c8 A8070000 		.4byte	.LASF77
 931 04cc 08       		.byte	0x8
 932 04cd 6D02     		.2byte	0x26d
 933 04cf 73000000 		.4byte	0x73
 934 04d3 30       		.byte	0x30
 935 04d4 19       		.uleb128 0x19
 936 04d5 26070000 		.4byte	.LASF78
 937 04d9 08       		.byte	0x8
 938 04da 6E02     		.2byte	0x26e
 939 04dc 7B080000 		.4byte	0x87b
 940 04e0 34       		.byte	0x34
 941 04e1 19       		.uleb128 0x19
 942 04e2 AC030000 		.4byte	.LASF79
 943 04e6 08       		.byte	0x8
 944 04e7 7002     		.2byte	0x270
 945 04e9 73000000 		.4byte	0x73
 946 04ed 38       		.byte	0x38
 947 04ee 19       		.uleb128 0x19
 948 04ef 46040000 		.4byte	.LASF80
 949 04f3 08       		.byte	0x8
 950 04f4 7202     		.2byte	0x272
 951 04f6 8C080000 		.4byte	0x88c
 952 04fa 3C       		.byte	0x3c
 953 04fb 19       		.uleb128 0x19
 954 04fc C2010000 		.4byte	.LASF81
 955 0500 08       		.byte	0x8
 956 0501 7502     		.2byte	0x275
 957 0503 B3010000 		.4byte	0x1b3
 958 0507 40       		.byte	0x40
 959 0508 19       		.uleb128 0x19
 960 0509 31020000 		.4byte	.LASF82
 961 050d 08       		.byte	0x8
 962 050e 7602     		.2byte	0x276
 963 0510 73000000 		.4byte	0x73
 964 0514 44       		.byte	0x44
 965 0515 19       		.uleb128 0x19
 966 0516 33030000 		.4byte	.LASF83
 967 051a 08       		.byte	0x8
 968 051b 7702     		.2byte	0x277
 969 051d B3010000 		.4byte	0x1b3
ARM GAS  /var/folders/3j/4xdnk5197cv_b7cw3n33qk7r0000gn/T//ccfSc7Hc.s 			page 18


 970 0521 48       		.byte	0x48
 971 0522 19       		.uleb128 0x19
 972 0523 14040000 		.4byte	.LASF84
 973 0527 08       		.byte	0x8
 974 0528 7802     		.2byte	0x278
 975 052a 92080000 		.4byte	0x892
 976 052e 4C       		.byte	0x4c
 977 052f 19       		.uleb128 0x19
 978 0530 8F050000 		.4byte	.LASF85
 979 0534 08       		.byte	0x8
 980 0535 7B02     		.2byte	0x27b
 981 0537 73000000 		.4byte	0x73
 982 053b 50       		.byte	0x50
 983 053c 19       		.uleb128 0x19
 984 053d 13060000 		.4byte	.LASF86
 985 0541 08       		.byte	0x8
 986 0542 7C02     		.2byte	0x27c
 987 0544 9D050000 		.4byte	0x59d
 988 0548 54       		.byte	0x54
 989 0549 19       		.uleb128 0x19
 990 054a 8A050000 		.4byte	.LASF87
 991 054e 08       		.byte	0x8
 992 054f 9F02     		.2byte	0x29f
 993 0551 44080000 		.4byte	0x844
 994 0555 58       		.byte	0x58
 995 0556 1A       		.uleb128 0x1a
 996 0557 CE040000 		.4byte	.LASF47
 997 055b 08       		.byte	0x8
 998 055c A302     		.2byte	0x2a3
 999 055e D0020000 		.4byte	0x2d0
 1000 0562 4801     		.2byte	0x148
 1001 0564 1A       		.uleb128 0x1a
 1002 0565 7E030000 		.4byte	.LASF88
 1003 0569 08       		.byte	0x8
 1004 056a A402     		.2byte	0x2a4
 1005 056c 92020000 		.4byte	0x292
 1006 0570 4C01     		.2byte	0x14c
 1007 0572 1A       		.uleb128 0x1a
 1008 0573 65030000 		.4byte	.LASF89
 1009 0577 08       		.byte	0x8
 1010 0578 A802     		.2byte	0x2a8
 1011 057a A3080000 		.4byte	0x8a3
 1012 057e DC02     		.2byte	0x2dc
 1013 0580 1A       		.uleb128 0x1a
 1014 0581 F1060000 		.4byte	.LASF90
 1015 0585 08       		.byte	0x8
 1016 0586 AD02     		.2byte	0x2ad
 1017 0588 49060000 		.4byte	0x649
 1018 058c E002     		.2byte	0x2e0
 1019 058e 1A       		.uleb128 0x1a
 1020 058f 11050000 		.4byte	.LASF91
 1021 0593 08       		.byte	0x8
 1022 0594 AF02     		.2byte	0x2af
 1023 0596 AF080000 		.4byte	0x8af
 1024 059a EC02     		.2byte	0x2ec
 1025 059c 00       		.byte	0
 1026 059d 08       		.uleb128 0x8
ARM GAS  /var/folders/3j/4xdnk5197cv_b7cw3n33qk7r0000gn/T//ccfSc7Hc.s 			page 19


 1027 059e 04       		.byte	0x4
 1028 059f A3050000 		.4byte	0x5a3
 1029 05a3 02       		.uleb128 0x2
 1030 05a4 01       		.byte	0x1
 1031 05a5 08       		.byte	0x8
 1032 05a6 56030000 		.4byte	.LASF92
 1033 05aa 17       		.uleb128 0x17
 1034 05ab A3050000 		.4byte	0x5a3
 1035 05af 08       		.uleb128 0x8
 1036 05b0 04       		.byte	0x4
 1037 05b1 42040000 		.4byte	0x442
 1038 05b5 15       		.uleb128 0x15
 1039 05b6 73000000 		.4byte	0x73
 1040 05ba D3050000 		.4byte	0x5d3
 1041 05be 16       		.uleb128 0x16
 1042 05bf 60040000 		.4byte	0x460
 1043 05c3 16       		.uleb128 0x16
 1044 05c4 AA000000 		.4byte	0xaa
 1045 05c8 16       		.uleb128 0x16
 1046 05c9 D3050000 		.4byte	0x5d3
 1047 05cd 16       		.uleb128 0x16
 1048 05ce 73000000 		.4byte	0x73
 1049 05d2 00       		.byte	0
 1050 05d3 08       		.uleb128 0x8
 1051 05d4 04       		.byte	0x4
 1052 05d5 AA050000 		.4byte	0x5aa
 1053 05d9 08       		.uleb128 0x8
 1054 05da 04       		.byte	0x4
 1055 05db B5050000 		.4byte	0x5b5
 1056 05df 15       		.uleb128 0x15
 1057 05e0 D8000000 		.4byte	0xd8
 1058 05e4 FD050000 		.4byte	0x5fd
 1059 05e8 16       		.uleb128 0x16
 1060 05e9 60040000 		.4byte	0x460
 1061 05ed 16       		.uleb128 0x16
 1062 05ee AA000000 		.4byte	0xaa
 1063 05f2 16       		.uleb128 0x16
 1064 05f3 D8000000 		.4byte	0xd8
 1065 05f7 16       		.uleb128 0x16
 1066 05f8 73000000 		.4byte	0x73
 1067 05fc 00       		.byte	0
 1068 05fd 08       		.uleb128 0x8
 1069 05fe 04       		.byte	0x4
 1070 05ff DF050000 		.4byte	0x5df
 1071 0603 15       		.uleb128 0x15
 1072 0604 73000000 		.4byte	0x73
 1073 0608 17060000 		.4byte	0x617
 1074 060c 16       		.uleb128 0x16
 1075 060d 60040000 		.4byte	0x460
 1076 0611 16       		.uleb128 0x16
 1077 0612 AA000000 		.4byte	0xaa
 1078 0616 00       		.byte	0
 1079 0617 08       		.uleb128 0x8
 1080 0618 04       		.byte	0x4
 1081 0619 03060000 		.4byte	0x603
 1082 061d 0D       		.uleb128 0xd
 1083 061e 2C000000 		.4byte	0x2c
ARM GAS  /var/folders/3j/4xdnk5197cv_b7cw3n33qk7r0000gn/T//ccfSc7Hc.s 			page 20


 1084 0622 2D060000 		.4byte	0x62d
 1085 0626 0E       		.uleb128 0xe
 1086 0627 7A000000 		.4byte	0x7a
 1087 062b 02       		.byte	0x2
 1088 062c 00       		.byte	0
 1089 062d 0D       		.uleb128 0xd
 1090 062e 2C000000 		.4byte	0x2c
 1091 0632 3D060000 		.4byte	0x63d
 1092 0636 0E       		.uleb128 0xe
 1093 0637 7A000000 		.4byte	0x7a
 1094 063b 00       		.byte	0
 1095 063c 00       		.byte	0
 1096 063d 0A       		.uleb128 0xa
 1097 063e 6C020000 		.4byte	.LASF93
 1098 0642 08       		.byte	0x8
 1099 0643 1F01     		.2byte	0x11f
 1100 0645 18030000 		.4byte	0x318
 1101 0649 1B       		.uleb128 0x1b
 1102 064a 05010000 		.4byte	.LASF94
 1103 064e 0C       		.byte	0xc
 1104 064f 08       		.byte	0x8
 1105 0650 2301     		.2byte	0x123
 1106 0652 7E060000 		.4byte	0x67e
 1107 0656 19       		.uleb128 0x19
 1108 0657 E2020000 		.4byte	.LASF28
 1109 065b 08       		.byte	0x8
 1110 065c 2501     		.2byte	0x125
 1111 065e 7E060000 		.4byte	0x67e
 1112 0662 00       		.byte	0
 1113 0663 19       		.uleb128 0x19
 1114 0664 EA050000 		.4byte	.LASF95
 1115 0668 08       		.byte	0x8
 1116 0669 2601     		.2byte	0x126
 1117 066b 73000000 		.4byte	0x73
 1118 066f 04       		.byte	0x4
 1119 0670 19       		.uleb128 0x19
 1120 0671 9F030000 		.4byte	.LASF96
 1121 0675 08       		.byte	0x8
 1122 0676 2701     		.2byte	0x127
 1123 0678 84060000 		.4byte	0x684
 1124 067c 08       		.byte	0x8
 1125 067d 00       		.byte	0
 1126 067e 08       		.uleb128 0x8
 1127 067f 04       		.byte	0x4
 1128 0680 49060000 		.4byte	0x649
 1129 0684 08       		.uleb128 0x8
 1130 0685 04       		.byte	0x4
 1131 0686 3D060000 		.4byte	0x63d
 1132 068a 1B       		.uleb128 0x1b
 1133 068b 29020000 		.4byte	.LASF97
 1134 068f 0E       		.byte	0xe
 1135 0690 08       		.byte	0x8
 1136 0691 3F01     		.2byte	0x13f
 1137 0693 BF060000 		.4byte	0x6bf
 1138 0697 19       		.uleb128 0x19
 1139 0698 D1070000 		.4byte	.LASF98
 1140 069c 08       		.byte	0x8
ARM GAS  /var/folders/3j/4xdnk5197cv_b7cw3n33qk7r0000gn/T//ccfSc7Hc.s 			page 21


 1141 069d 4001     		.2byte	0x140
 1142 069f BF060000 		.4byte	0x6bf
 1143 06a3 00       		.byte	0
 1144 06a4 19       		.uleb128 0x19
 1145 06a5 1E040000 		.4byte	.LASF99
 1146 06a9 08       		.byte	0x8
 1147 06aa 4101     		.2byte	0x141
 1148 06ac BF060000 		.4byte	0x6bf
 1149 06b0 06       		.byte	0x6
 1150 06b1 19       		.uleb128 0x19
 1151 06b2 7E060000 		.4byte	.LASF100
 1152 06b6 08       		.byte	0x8
 1153 06b7 4201     		.2byte	0x142
 1154 06b9 3A000000 		.4byte	0x3a
 1155 06bd 0C       		.byte	0xc
 1156 06be 00       		.byte	0
 1157 06bf 0D       		.uleb128 0xd
 1158 06c0 3A000000 		.4byte	0x3a
 1159 06c4 CF060000 		.4byte	0x6cf
 1160 06c8 0E       		.uleb128 0xe
 1161 06c9 7A000000 		.4byte	0x7a
 1162 06cd 02       		.byte	0x2
 1163 06ce 00       		.byte	0
 1164 06cf 1C       		.uleb128 0x1c
 1165 06d0 D0       		.byte	0xd0
 1166 06d1 08       		.byte	0x8
 1167 06d2 8002     		.2byte	0x280
 1168 06d4 D0070000 		.4byte	0x7d0
 1169 06d8 19       		.uleb128 0x19
 1170 06d9 9B070000 		.4byte	.LASF101
 1171 06dd 08       		.byte	0x8
 1172 06de 8202     		.2byte	0x282
 1173 06e0 7A000000 		.4byte	0x7a
 1174 06e4 00       		.byte	0
 1175 06e5 19       		.uleb128 0x19
 1176 06e6 0B070000 		.4byte	.LASF102
 1177 06ea 08       		.byte	0x8
 1178 06eb 8302     		.2byte	0x283
 1179 06ed 9D050000 		.4byte	0x59d
 1180 06f1 04       		.byte	0x4
 1181 06f2 19       		.uleb128 0x19
 1182 06f3 52020000 		.4byte	.LASF103
 1183 06f7 08       		.byte	0x8
 1184 06f8 8402     		.2byte	0x284
 1185 06fa D0070000 		.4byte	0x7d0
 1186 06fe 08       		.byte	0x8
 1187 06ff 19       		.uleb128 0x19
 1188 0700 6E050000 		.4byte	.LASF104
 1189 0704 08       		.byte	0x8
 1190 0705 8502     		.2byte	0x285
 1191 0707 C9010000 		.4byte	0x1c9
 1192 070b 24       		.byte	0x24
 1193 070c 19       		.uleb128 0x19
 1194 070d D9030000 		.4byte	.LASF105
 1195 0711 08       		.byte	0x8
 1196 0712 8602     		.2byte	0x286
 1197 0714 73000000 		.4byte	0x73
ARM GAS  /var/folders/3j/4xdnk5197cv_b7cw3n33qk7r0000gn/T//ccfSc7Hc.s 			page 22


 1198 0718 48       		.byte	0x48
 1199 0719 19       		.uleb128 0x19
 1200 071a D7070000 		.4byte	.LASF106
 1201 071e 08       		.byte	0x8
 1202 071f 8702     		.2byte	0x287
 1203 0721 6C000000 		.4byte	0x6c
 1204 0725 50       		.byte	0x50
 1205 0726 19       		.uleb128 0x19
 1206 0727 0B010000 		.4byte	.LASF107
 1207 072b 08       		.byte	0x8
 1208 072c 8802     		.2byte	0x288
 1209 072e 8A060000 		.4byte	0x68a
 1210 0732 58       		.byte	0x58
 1211 0733 19       		.uleb128 0x19
 1212 0734 49030000 		.4byte	.LASF108
 1213 0738 08       		.byte	0x8
 1214 0739 8902     		.2byte	0x289
 1215 073b 3F010000 		.4byte	0x13f
 1216 073f 68       		.byte	0x68
 1217 0740 19       		.uleb128 0x19
 1218 0741 18070000 		.4byte	.LASF109
 1219 0745 08       		.byte	0x8
 1220 0746 8A02     		.2byte	0x28a
 1221 0748 3F010000 		.4byte	0x13f
 1222 074c 70       		.byte	0x70
 1223 074d 19       		.uleb128 0x19
 1224 074e F7000000 		.4byte	.LASF110
 1225 0752 08       		.byte	0x8
 1226 0753 8B02     		.2byte	0x28b
 1227 0755 3F010000 		.4byte	0x13f
 1228 0759 78       		.byte	0x78
 1229 075a 19       		.uleb128 0x19
 1230 075b 9F050000 		.4byte	.LASF111
 1231 075f 08       		.byte	0x8
 1232 0760 8C02     		.2byte	0x28c
 1233 0762 E0070000 		.4byte	0x7e0
 1234 0766 80       		.byte	0x80
 1235 0767 19       		.uleb128 0x19
 1236 0768 21010000 		.4byte	.LASF112
 1237 076c 08       		.byte	0x8
 1238 076d 8D02     		.2byte	0x28d
 1239 076f F0070000 		.4byte	0x7f0
 1240 0773 88       		.byte	0x88
 1241 0774 19       		.uleb128 0x19
 1242 0775 3D060000 		.4byte	.LASF113
 1243 0779 08       		.byte	0x8
 1244 077a 8E02     		.2byte	0x28e
 1245 077c 73000000 		.4byte	0x73
 1246 0780 A0       		.byte	0xa0
 1247 0781 19       		.uleb128 0x19
 1248 0782 7C010000 		.4byte	.LASF114
 1249 0786 08       		.byte	0x8
 1250 0787 8F02     		.2byte	0x28f
 1251 0789 3F010000 		.4byte	0x13f
 1252 078d A4       		.byte	0xa4
 1253 078e 19       		.uleb128 0x19
 1254 078f 6F030000 		.4byte	.LASF115
ARM GAS  /var/folders/3j/4xdnk5197cv_b7cw3n33qk7r0000gn/T//ccfSc7Hc.s 			page 23


 1255 0793 08       		.byte	0x8
 1256 0794 9002     		.2byte	0x290
 1257 0796 3F010000 		.4byte	0x13f
 1258 079a AC       		.byte	0xac
 1259 079b 19       		.uleb128 0x19
 1260 079c E8020000 		.4byte	.LASF116
 1261 07a0 08       		.byte	0x8
 1262 07a1 9102     		.2byte	0x291
 1263 07a3 3F010000 		.4byte	0x13f
 1264 07a7 B4       		.byte	0xb4
 1265 07a8 19       		.uleb128 0x19
 1266 07a9 2C040000 		.4byte	.LASF117
 1267 07ad 08       		.byte	0x8
 1268 07ae 9202     		.2byte	0x292
 1269 07b0 3F010000 		.4byte	0x13f
 1270 07b4 BC       		.byte	0xbc
 1271 07b5 19       		.uleb128 0x19
 1272 07b6 38030000 		.4byte	.LASF118
 1273 07ba 08       		.byte	0x8
 1274 07bb 9302     		.2byte	0x293
 1275 07bd 3F010000 		.4byte	0x13f
 1276 07c1 C4       		.byte	0xc4
 1277 07c2 19       		.uleb128 0x19
 1278 07c3 66040000 		.4byte	.LASF119
 1279 07c7 08       		.byte	0x8
 1280 07c8 9402     		.2byte	0x294
 1281 07ca 73000000 		.4byte	0x73
 1282 07ce CC       		.byte	0xcc
 1283 07cf 00       		.byte	0
 1284 07d0 0D       		.uleb128 0xd
 1285 07d1 A3050000 		.4byte	0x5a3
 1286 07d5 E0070000 		.4byte	0x7e0
 1287 07d9 0E       		.uleb128 0xe
 1288 07da 7A000000 		.4byte	0x7a
 1289 07de 19       		.byte	0x19
 1290 07df 00       		.byte	0
 1291 07e0 0D       		.uleb128 0xd
 1292 07e1 A3050000 		.4byte	0x5a3
 1293 07e5 F0070000 		.4byte	0x7f0
 1294 07e9 0E       		.uleb128 0xe
 1295 07ea 7A000000 		.4byte	0x7a
 1296 07ee 07       		.byte	0x7
 1297 07ef 00       		.byte	0
 1298 07f0 0D       		.uleb128 0xd
 1299 07f1 A3050000 		.4byte	0x5a3
 1300 07f5 00080000 		.4byte	0x800
 1301 07f9 0E       		.uleb128 0xe
 1302 07fa 7A000000 		.4byte	0x7a
 1303 07fe 17       		.byte	0x17
 1304 07ff 00       		.byte	0
 1305 0800 1C       		.uleb128 0x1c
 1306 0801 F0       		.byte	0xf0
 1307 0802 08       		.byte	0x8
 1308 0803 9902     		.2byte	0x299
 1309 0805 24080000 		.4byte	0x824
 1310 0809 19       		.uleb128 0x19
 1311 080a 22020000 		.4byte	.LASF120
ARM GAS  /var/folders/3j/4xdnk5197cv_b7cw3n33qk7r0000gn/T//ccfSc7Hc.s 			page 24


 1312 080e 08       		.byte	0x8
 1313 080f 9C02     		.2byte	0x29c
 1314 0811 24080000 		.4byte	0x824
 1315 0815 00       		.byte	0
 1316 0816 19       		.uleb128 0x19
 1317 0817 FB070000 		.4byte	.LASF121
 1318 081b 08       		.byte	0x8
 1319 081c 9D02     		.2byte	0x29d
 1320 081e 34080000 		.4byte	0x834
 1321 0822 78       		.byte	0x78
 1322 0823 00       		.byte	0
 1323 0824 0D       		.uleb128 0xd
 1324 0825 12030000 		.4byte	0x312
 1325 0829 34080000 		.4byte	0x834
 1326 082d 0E       		.uleb128 0xe
 1327 082e 7A000000 		.4byte	0x7a
 1328 0832 1D       		.byte	0x1d
 1329 0833 00       		.byte	0
 1330 0834 0D       		.uleb128 0xd
 1331 0835 7A000000 		.4byte	0x7a
 1332 0839 44080000 		.4byte	0x844
 1333 083d 0E       		.uleb128 0xe
 1334 083e 7A000000 		.4byte	0x7a
 1335 0842 1D       		.byte	0x1d
 1336 0843 00       		.byte	0
 1337 0844 1D       		.uleb128 0x1d
 1338 0845 F0       		.byte	0xf0
 1339 0846 08       		.byte	0x8
 1340 0847 7E02     		.2byte	0x27e
 1341 0849 66080000 		.4byte	0x866
 1342 084d 1E       		.uleb128 0x1e
 1343 084e 42070000 		.4byte	.LASF70
 1344 0852 08       		.byte	0x8
 1345 0853 9502     		.2byte	0x295
 1346 0855 CF060000 		.4byte	0x6cf
 1347 0859 1E       		.uleb128 0x1e
 1348 085a 7D050000 		.4byte	.LASF122
 1349 085e 08       		.byte	0x8
 1350 085f 9E02     		.2byte	0x29e
 1351 0861 00080000 		.4byte	0x800
 1352 0865 00       		.byte	0
 1353 0866 0D       		.uleb128 0xd
 1354 0867 A3050000 		.4byte	0x5a3
 1355 086b 76080000 		.4byte	0x876
 1356 086f 0E       		.uleb128 0xe
 1357 0870 7A000000 		.4byte	0x7a
 1358 0874 18       		.byte	0x18
 1359 0875 00       		.byte	0
 1360 0876 09       		.uleb128 0x9
 1361 0877 E2070000 		.4byte	.LASF124
 1362 087b 08       		.uleb128 0x8
 1363 087c 04       		.byte	0x4
 1364 087d 76080000 		.4byte	0x876
 1365 0881 1F       		.uleb128 0x1f
 1366 0882 8C080000 		.4byte	0x88c
 1367 0886 16       		.uleb128 0x16
 1368 0887 60040000 		.4byte	0x460
ARM GAS  /var/folders/3j/4xdnk5197cv_b7cw3n33qk7r0000gn/T//ccfSc7Hc.s 			page 25


 1369 088b 00       		.byte	0
 1370 088c 08       		.uleb128 0x8
 1371 088d 04       		.byte	0x4
 1372 088e 81080000 		.4byte	0x881
 1373 0892 08       		.uleb128 0x8
 1374 0893 04       		.byte	0x4
 1375 0894 B3010000 		.4byte	0x1b3
 1376 0898 1F       		.uleb128 0x1f
 1377 0899 A3080000 		.4byte	0x8a3
 1378 089d 16       		.uleb128 0x16
 1379 089e 73000000 		.4byte	0x73
 1380 08a2 00       		.byte	0
 1381 08a3 08       		.uleb128 0x8
 1382 08a4 04       		.byte	0x4
 1383 08a5 A9080000 		.4byte	0x8a9
 1384 08a9 08       		.uleb128 0x8
 1385 08aa 04       		.byte	0x4
 1386 08ab 98080000 		.4byte	0x898
 1387 08af 0D       		.uleb128 0xd
 1388 08b0 3D060000 		.4byte	0x63d
 1389 08b4 BF080000 		.4byte	0x8bf
 1390 08b8 0E       		.uleb128 0xe
 1391 08b9 7A000000 		.4byte	0x7a
 1392 08bd 02       		.byte	0x2
 1393 08be 00       		.byte	0
 1394 08bf 20       		.uleb128 0x20
 1395 08c0 16020000 		.4byte	.LASF125
 1396 08c4 08       		.byte	0x8
 1397 08c5 2E03     		.2byte	0x32e
 1398 08c7 60040000 		.4byte	0x460
 1399 08cb 20       		.uleb128 0x20
 1400 08cc 29050000 		.4byte	.LASF126
 1401 08d0 08       		.byte	0x8
 1402 08d1 2F03     		.2byte	0x32f
 1403 08d3 66040000 		.4byte	0x466
 1404 08d7 03       		.uleb128 0x3
 1405 08d8 F8050000 		.4byte	.LASF127
 1406 08dc 0A       		.byte	0xa
 1407 08dd 2C       		.byte	0x2c
 1408 08de 41000000 		.4byte	0x41
 1409 08e2 03       		.uleb128 0x3
 1410 08e3 CA010000 		.4byte	.LASF128
 1411 08e7 0A       		.byte	0xa
 1412 08e8 30       		.byte	0x30
 1413 08e9 53000000 		.4byte	0x53
 1414 08ed 03       		.uleb128 0x3
 1415 08ee 54010000 		.4byte	.LASF129
 1416 08f2 04       		.byte	0x4
 1417 08f3 42       		.byte	0x42
 1418 08f4 3D060000 		.4byte	0x63d
 1419 08f8 21       		.uleb128 0x21
 1420 08f9 07       		.byte	0x7
 1421 08fa 01       		.byte	0x1
 1422 08fb 2C000000 		.4byte	0x2c
 1423 08ff 0B       		.byte	0xb
 1424 0900 31       		.byte	0x31
 1425 0901 30090000 		.4byte	0x930
ARM GAS  /var/folders/3j/4xdnk5197cv_b7cw3n33qk7r0000gn/T//ccfSc7Hc.s 			page 26


 1426 0905 22       		.uleb128 0x22
 1427 0906 4D050000 		.4byte	.LASF130
 1428 090a 00       		.byte	0
 1429 090b 22       		.uleb128 0x22
 1430 090c EB040000 		.4byte	.LASF131
 1431 0910 01       		.byte	0x1
 1432 0911 22       		.uleb128 0x22
 1433 0912 E4010000 		.4byte	.LASF132
 1434 0916 02       		.byte	0x2
 1435 0917 22       		.uleb128 0x22
 1436 0918 67070000 		.4byte	.LASF133
 1437 091c 03       		.byte	0x3
 1438 091d 22       		.uleb128 0x22
 1439 091e A4020000 		.4byte	.LASF134
 1440 0922 04       		.byte	0x4
 1441 0923 22       		.uleb128 0x22
 1442 0924 79040000 		.4byte	.LASF135
 1443 0928 05       		.byte	0x5
 1444 0929 22       		.uleb128 0x22
 1445 092a AC040000 		.4byte	.LASF136
 1446 092e 06       		.byte	0x6
 1447 092f 00       		.byte	0
 1448 0930 21       		.uleb128 0x21
 1449 0931 07       		.byte	0x7
 1450 0932 04       		.byte	0x4
 1451 0933 7A000000 		.4byte	0x7a
 1452 0937 0B       		.byte	0xb
 1453 0938 3B       		.byte	0x3b
 1454 0939 53090000 		.4byte	0x953
 1455 093d 22       		.uleb128 0x22
 1456 093e 17030000 		.4byte	.LASF137
 1457 0942 00       		.byte	0
 1458 0943 22       		.uleb128 0x22
 1459 0944 B7030000 		.4byte	.LASF138
 1460 0948 01       		.byte	0x1
 1461 0949 23       		.uleb128 0x23
 1462 094a 1C000000 		.4byte	.LASF139
 1463 094e FFFFFF7F 		.4byte	0x7fffffff
 1464 0952 00       		.byte	0
 1465 0953 21       		.uleb128 0x21
 1466 0954 07       		.byte	0x7
 1467 0955 04       		.byte	0x4
 1468 0956 7A000000 		.4byte	0x7a
 1469 095a 0B       		.byte	0xb
 1470 095b 41       		.byte	0x41
 1471 095c 7C090000 		.4byte	0x97c
 1472 0960 22       		.uleb128 0x22
 1473 0961 F9060000 		.4byte	.LASF140
 1474 0965 00       		.byte	0
 1475 0966 22       		.uleb128 0x22
 1476 0967 A9050000 		.4byte	.LASF141
 1477 096b 01       		.byte	0x1
 1478 096c 22       		.uleb128 0x22
 1479 096d 01030000 		.4byte	.LASF142
 1480 0971 02       		.byte	0x2
 1481 0972 23       		.uleb128 0x23
 1482 0973 F6030000 		.4byte	.LASF143
ARM GAS  /var/folders/3j/4xdnk5197cv_b7cw3n33qk7r0000gn/T//ccfSc7Hc.s 			page 27


 1483 0977 FFFFFF7F 		.4byte	0x7fffffff
 1484 097b 00       		.byte	0
 1485 097c 0D       		.uleb128 0xd
 1486 097d A3050000 		.4byte	0x5a3
 1487 0981 8C090000 		.4byte	0x98c
 1488 0985 0E       		.uleb128 0xe
 1489 0986 7A000000 		.4byte	0x7a
 1490 098a FF       		.byte	0xff
 1491 098b 00       		.byte	0
 1492 098c 24       		.uleb128 0x24
 1493 098d DD060000 		.4byte	.LASF144
 1494 0991 01       		.byte	0x1
 1495 0992 22       		.byte	0x22
 1496 0993 7C090000 		.4byte	0x97c
 1497 0997 05       		.uleb128 0x5
 1498 0998 03       		.byte	0x3
 1499 0999 00000000 		.4byte	debug_string
 1500 099d 24       		.uleb128 0x24
 1501 099e 5E050000 		.4byte	.LASF145
 1502 09a2 01       		.byte	0x1
 1503 09a3 25       		.byte	0x25
 1504 09a4 9D050000 		.4byte	0x59d
 1505 09a8 05       		.uleb128 0x5
 1506 09a9 03       		.byte	0x3
 1507 09aa 00000000 		.4byte	_trace_filename
 1508 09ae 24       		.uleb128 0x24
 1509 09af 5C070000 		.4byte	.LASF146
 1510 09b3 01       		.byte	0x1
 1511 09b4 26       		.byte	0x26
 1512 09b5 BF090000 		.4byte	0x9bf
 1513 09b9 05       		.uleb128 0x5
 1514 09ba 03       		.byte	0x3
 1515 09bb 00000000 		.4byte	_tracefile
 1516 09bf 08       		.uleb128 0x8
 1517 09c0 04       		.byte	0x4
 1518 09c1 ED080000 		.4byte	0x8ed
 1519 09c5 24       		.uleb128 0x24
 1520 09c6 F8010000 		.4byte	.LASF147
 1521 09ca 01       		.byte	0x1
 1522 09cb 28       		.byte	0x28
 1523 09cc E2080000 		.4byte	0x8e2
 1524 09d0 05       		.uleb128 0x5
 1525 09d1 03       		.byte	0x3
 1526 09d2 00000000 		.4byte	_trace_level
 1527 09d6 24       		.uleb128 0x24
 1528 09d7 B6020000 		.4byte	.LASF148
 1529 09db 01       		.byte	0x1
 1530 09dc 29       		.byte	0x29
 1531 09dd E2080000 		.4byte	0x8e2
 1532 09e1 05       		.uleb128 0x5
 1533 09e2 03       		.byte	0x3
 1534 09e3 00000000 		.4byte	_trace_modules
 1535 09e7 24       		.uleb128 0x24
 1536 09e8 10010000 		.4byte	.LASF149
 1537 09ec 01       		.byte	0x1
 1538 09ed 2A       		.byte	0x2a
 1539 09ee E2080000 		.4byte	0x8e2
ARM GAS  /var/folders/3j/4xdnk5197cv_b7cw3n33qk7r0000gn/T//ccfSc7Hc.s 			page 28


 1540 09f2 05       		.uleb128 0x5
 1541 09f3 03       		.byte	0x3
 1542 09f4 00000000 		.4byte	_trace_functions
 1543 09f8 25       		.uleb128 0x25
 1544 09f9 00000000 		.4byte	.LASF172
 1545 09fd 01       		.byte	0x1
 1546 09fe 51       		.byte	0x51
 1547 09ff 00000000 		.4byte	.LFB4
 1548 0a03 AC000000 		.4byte	.LFE4-.LFB4
 1549 0a07 01       		.uleb128 0x1
 1550 0a08 9C       		.byte	0x9c
 1551 0a09 BD0A0000 		.4byte	0xabd
 1552 0a0d 26       		.uleb128 0x26
 1553 0a0e 60010000 		.4byte	.LASF150
 1554 0a12 01       		.byte	0x1
 1555 0a13 51       		.byte	0x51
 1556 0a14 E2080000 		.4byte	0x8e2
 1557 0a18 00000000 		.4byte	.LLST5
 1558 0a1c 26       		.uleb128 0x26
 1559 0a1d 67010000 		.4byte	.LASF151
 1560 0a21 01       		.byte	0x1
 1561 0a22 51       		.byte	0x51
 1562 0a23 E2080000 		.4byte	0x8e2
 1563 0a27 3A000000 		.4byte	.LLST6
 1564 0a2b 26       		.uleb128 0x26
 1565 0a2c 34060000 		.4byte	.LASF152
 1566 0a30 01       		.byte	0x1
 1567 0a31 51       		.byte	0x51
 1568 0a32 E2080000 		.4byte	0x8e2
 1569 0a36 74000000 		.4byte	.LLST7
 1570 0a3a 27       		.uleb128 0x27
 1571 0a3b 8E020000 		.4byte	.LASF153
 1572 0a3f 01       		.byte	0x1
 1573 0a40 51       		.byte	0x51
 1574 0a41 D3050000 		.4byte	0x5d3
 1575 0a45 02       		.uleb128 0x2
 1576 0a46 91       		.byte	0x91
 1577 0a47 7C       		.sleb128 -4
 1578 0a48 28       		.uleb128 0x28
 1579 0a49 29       		.uleb128 0x29
 1580 0a4a 00000000 		.4byte	.Ldebug_ranges0+0
 1581 0a4e 2A       		.uleb128 0x2a
 1582 0a4f 8A010000 		.4byte	.LASF154
 1583 0a53 01       		.byte	0x1
 1584 0a54 56       		.byte	0x56
 1585 0a55 AC000000 		.4byte	0xac
 1586 0a59 03       		.uleb128 0x3
 1587 0a5a 91       		.byte	0x91
 1588 0a5b F47D     		.sleb128 -268
 1589 0a5d 2A       		.uleb128 0x2a
 1590 0a5e F9020000 		.4byte	.LASF155
 1591 0a62 01       		.byte	0x1
 1592 0a63 57       		.byte	0x57
 1593 0a64 7C090000 		.4byte	0x97c
 1594 0a68 03       		.uleb128 0x3
 1595 0a69 91       		.byte	0x91
 1596 0a6a F87D     		.sleb128 -264
ARM GAS  /var/folders/3j/4xdnk5197cv_b7cw3n33qk7r0000gn/T//ccfSc7Hc.s 			page 29


 1597 0a6c 2B       		.uleb128 0x2b
 1598 0a6d 48000000 		.4byte	.LVL14
 1599 0a71 C70B0000 		.4byte	0xbc7
 1600 0a75 950A0000 		.4byte	0xa95
 1601 0a79 2C       		.uleb128 0x2c
 1602 0a7a 01       		.uleb128 0x1
 1603 0a7b 50       		.byte	0x50
 1604 0a7c 03       		.uleb128 0x3
 1605 0a7d 91       		.byte	0x91
 1606 0a7e E87D     		.sleb128 -280
 1607 0a80 2C       		.uleb128 0x2c
 1608 0a81 01       		.uleb128 0x1
 1609 0a82 51       		.byte	0x51
 1610 0a83 03       		.uleb128 0x3
 1611 0a84 0A       		.byte	0xa
 1612 0a85 0001     		.2byte	0x100
 1613 0a87 2C       		.uleb128 0x2c
 1614 0a88 01       		.uleb128 0x1
 1615 0a89 52       		.byte	0x52
 1616 0a8a 03       		.uleb128 0x3
 1617 0a8b 91       		.byte	0x91
 1618 0a8c 6C       		.sleb128 -20
 1619 0a8d 06       		.byte	0x6
 1620 0a8e 2C       		.uleb128 0x2c
 1621 0a8f 01       		.uleb128 0x1
 1622 0a90 53       		.byte	0x53
 1623 0a91 02       		.uleb128 0x2
 1624 0a92 91       		.byte	0x91
 1625 0a93 70       		.sleb128 -16
 1626 0a94 00       		.byte	0
 1627 0a95 2B       		.uleb128 0x2b
 1628 0a96 60000000 		.4byte	.LVL15
 1629 0a9a D30B0000 		.4byte	0xbd3
 1630 0a9e AA0A0000 		.4byte	0xaaa
 1631 0aa2 2C       		.uleb128 0x2c
 1632 0aa3 01       		.uleb128 0x1
 1633 0aa4 51       		.byte	0x51
 1634 0aa5 03       		.uleb128 0x3
 1635 0aa6 91       		.byte	0x91
 1636 0aa7 E87D     		.sleb128 -280
 1637 0aa9 00       		.byte	0
 1638 0aaa 2D       		.uleb128 0x2d
 1639 0aab 8C000000 		.4byte	.LVL18
 1640 0aaf DE0B0000 		.4byte	0xbde
 1641 0ab3 2C       		.uleb128 0x2c
 1642 0ab4 01       		.uleb128 0x1
 1643 0ab5 50       		.byte	0x50
 1644 0ab6 03       		.uleb128 0x3
 1645 0ab7 91       		.byte	0x91
 1646 0ab8 E87D     		.sleb128 -280
 1647 0aba 00       		.byte	0
 1648 0abb 00       		.byte	0
 1649 0abc 00       		.byte	0
 1650 0abd 2E       		.uleb128 0x2e
 1651 0abe D6040000 		.4byte	.LASF173
 1652 0ac2 01       		.byte	0x1
 1653 0ac3 2D       		.byte	0x2d
ARM GAS  /var/folders/3j/4xdnk5197cv_b7cw3n33qk7r0000gn/T//ccfSc7Hc.s 			page 30


 1654 0ac4 D7080000 		.4byte	0x8d7
 1655 0ac8 00000000 		.4byte	.LFB3
 1656 0acc EC000000 		.4byte	.LFE3-.LFB3
 1657 0ad0 01       		.uleb128 0x1
 1658 0ad1 9C       		.byte	0x9c
 1659 0ad2 C70B0000 		.4byte	0xbc7
 1660 0ad6 26       		.uleb128 0x26
 1661 0ad7 87030000 		.4byte	.LASF156
 1662 0adb 01       		.byte	0x1
 1663 0adc 2D       		.byte	0x2d
 1664 0add 9D050000 		.4byte	0x59d
 1665 0ae1 AE000000 		.4byte	.LLST0
 1666 0ae5 26       		.uleb128 0x26
 1667 0ae6 C6040000 		.4byte	.LASF157
 1668 0aea 01       		.byte	0x1
 1669 0aeb 2D       		.byte	0x2d
 1670 0aec E2080000 		.4byte	0x8e2
 1671 0af0 CC000000 		.4byte	.LLST1
 1672 0af4 26       		.uleb128 0x26
 1673 0af5 67010000 		.4byte	.LASF151
 1674 0af9 01       		.byte	0x1
 1675 0afa 2D       		.byte	0x2d
 1676 0afb E2080000 		.4byte	0x8e2
 1677 0aff EA000000 		.4byte	.LLST2
 1678 0b03 26       		.uleb128 0x26
 1679 0b04 6F040000 		.4byte	.LASF158
 1680 0b08 01       		.byte	0x1
 1681 0b09 2D       		.byte	0x2d
 1682 0b0a E2080000 		.4byte	0x8e2
 1683 0b0e 08010000 		.4byte	.LLST3
 1684 0b12 2F       		.uleb128 0x2f
 1685 0b13 8E070000 		.4byte	.LASF159
 1686 0b17 01       		.byte	0x1
 1687 0b18 2F       		.byte	0x2f
 1688 0b19 73000000 		.4byte	0x73
 1689 0b1d 26010000 		.4byte	.LLST4
 1690 0b21 30       		.uleb128 0x30
 1691 0b22 34000000 		.4byte	.LBB2
 1692 0b26 28000000 		.4byte	.LBE2-.LBB2
 1693 0b2a 5D0B0000 		.4byte	0xb5d
 1694 0b2e 31       		.uleb128 0x31
 1695 0b2f 85050000 		.4byte	.LASF164
 1696 0b33 09       		.byte	0x9
 1697 0b34 00       		.byte	0
 1698 0b35 3F0B0000 		.4byte	0xb3f
 1699 0b39 16       		.uleb128 0x16
 1700 0b3a AA000000 		.4byte	0xaa
 1701 0b3e 00       		.byte	0
 1702 0b3f 2B       		.uleb128 0x2b
 1703 0b40 44000000 		.4byte	.LVL2
 1704 0b44 E90B0000 		.4byte	0xbe9
 1705 0b48 530B0000 		.4byte	0xb53
 1706 0b4c 2C       		.uleb128 0x2c
 1707 0b4d 01       		.uleb128 0x1
 1708 0b4e 50       		.byte	0x50
 1709 0b4f 02       		.uleb128 0x2
 1710 0b50 74       		.byte	0x74
ARM GAS  /var/folders/3j/4xdnk5197cv_b7cw3n33qk7r0000gn/T//ccfSc7Hc.s 			page 31


 1711 0b51 00       		.sleb128 0
 1712 0b52 00       		.byte	0
 1713 0b53 32       		.uleb128 0x32
 1714 0b54 54000000 		.4byte	.LVL3
 1715 0b58 F40B0000 		.4byte	0xbf4
 1716 0b5c 00       		.byte	0
 1717 0b5d 30       		.uleb128 0x30
 1718 0b5e B0000000 		.4byte	.LBB3
 1719 0b62 1C000000 		.4byte	.LBE3-.LBB3
 1720 0b66 AD0B0000 		.4byte	0xbad
 1721 0b6a 33       		.uleb128 0x33
 1722 0b6b EA060000 		.4byte	.LASF166
 1723 0b6f 09       		.byte	0x9
 1724 0b70 00       		.byte	0
 1725 0b71 AA000000 		.4byte	0xaa
 1726 0b75 7F0B0000 		.4byte	0xb7f
 1727 0b79 16       		.uleb128 0x16
 1728 0b7a 7A000000 		.4byte	0x7a
 1729 0b7e 00       		.byte	0
 1730 0b7f 2B       		.uleb128 0x2b
 1731 0b80 B8000000 		.4byte	.LVL7
 1732 0b84 FF0B0000 		.4byte	0xbff
 1733 0b88 930B0000 		.4byte	0xb93
 1734 0b8c 2C       		.uleb128 0x2c
 1735 0b8d 01       		.uleb128 0x1
 1736 0b8e 50       		.byte	0x50
 1737 0b8f 02       		.uleb128 0x2
 1738 0b90 77       		.byte	0x77
 1739 0b91 00       		.sleb128 0
 1740 0b92 00       		.byte	0
 1741 0b93 32       		.uleb128 0x32
 1742 0b94 C0000000 		.4byte	.LVL8
 1743 0b98 0A0C0000 		.4byte	0xc0a
 1744 0b9c 2D       		.uleb128 0x2d
 1745 0b9d CC000000 		.4byte	.LVL9
 1746 0ba1 150C0000 		.4byte	0xc15
 1747 0ba5 2C       		.uleb128 0x2c
 1748 0ba6 01       		.uleb128 0x1
 1749 0ba7 51       		.byte	0x51
 1750 0ba8 02       		.uleb128 0x2
 1751 0ba9 77       		.byte	0x77
 1752 0baa 00       		.sleb128 0
 1753 0bab 00       		.byte	0
 1754 0bac 00       		.byte	0
 1755 0bad 2D       		.uleb128 0x2d
 1756 0bae A0000000 		.4byte	.LVL6
 1757 0bb2 200C0000 		.4byte	0xc20
 1758 0bb6 2C       		.uleb128 0x2c
 1759 0bb7 01       		.uleb128 0x1
 1760 0bb8 50       		.byte	0x50
 1761 0bb9 02       		.uleb128 0x2
 1762 0bba 77       		.byte	0x77
 1763 0bbb 00       		.sleb128 0
 1764 0bbc 2C       		.uleb128 0x2c
 1765 0bbd 01       		.uleb128 0x1
 1766 0bbe 51       		.byte	0x51
 1767 0bbf 05       		.uleb128 0x5
ARM GAS  /var/folders/3j/4xdnk5197cv_b7cw3n33qk7r0000gn/T//ccfSc7Hc.s 			page 32


 1768 0bc0 03       		.byte	0x3
 1769 0bc1 00000000 		.4byte	.LC0
 1770 0bc5 00       		.byte	0
 1771 0bc6 00       		.byte	0
 1772 0bc7 34       		.uleb128 0x34
 1773 0bc8 0A080000 		.4byte	.LASF160
 1774 0bcc 0A080000 		.4byte	.LASF160
 1775 0bd0 04       		.byte	0x4
 1776 0bd1 0C01     		.2byte	0x10c
 1777 0bd3 35       		.uleb128 0x35
 1778 0bd4 7B020000 		.4byte	.LASF161
 1779 0bd8 7B020000 		.4byte	.LASF161
 1780 0bdc 04       		.byte	0x4
 1781 0bdd C4       		.byte	0xc4
 1782 0bde 35       		.uleb128 0x35
 1783 0bdf 07040000 		.4byte	.LASF162
 1784 0be3 07040000 		.4byte	.LASF162
 1785 0be7 04       		.byte	0x4
 1786 0be8 C8       		.byte	0xc8
 1787 0be9 35       		.uleb128 0x35
 1788 0bea 3C050000 		.4byte	.LASF163
 1789 0bee 3C050000 		.4byte	.LASF163
 1790 0bf2 04       		.byte	0x4
 1791 0bf3 BF       		.byte	0xbf
 1792 0bf4 35       		.uleb128 0x35
 1793 0bf5 85050000 		.4byte	.LASF164
 1794 0bf9 85050000 		.4byte	.LASF164
 1795 0bfd 09       		.byte	0x9
 1796 0bfe 00       		.byte	0
 1797 0bff 35       		.uleb128 0x35
 1798 0c00 E2000000 		.4byte	.LASF165
 1799 0c04 E2000000 		.4byte	.LASF165
 1800 0c08 0C       		.byte	0xc
 1801 0c09 29       		.byte	0x29
 1802 0c0a 35       		.uleb128 0x35
 1803 0c0b EA060000 		.4byte	.LASF166
 1804 0c0f EA060000 		.4byte	.LASF166
 1805 0c13 09       		.byte	0x9
 1806 0c14 00       		.byte	0
 1807 0c15 35       		.uleb128 0x35
 1808 0c16 D3010000 		.4byte	.LASF167
 1809 0c1a D3010000 		.4byte	.LASF167
 1810 0c1e 0C       		.byte	0xc
 1811 0c1f 26       		.byte	0x26
 1812 0c20 35       		.uleb128 0x35
 1813 0c21 89040000 		.4byte	.LASF168
 1814 0c25 89040000 		.4byte	.LASF168
 1815 0c29 04       		.byte	0x4
 1816 0c2a F3       		.byte	0xf3
 1817 0c2b 00       		.byte	0
 1818              		.section	.debug_abbrev,"",%progbits
 1819              	.Ldebug_abbrev0:
 1820 0000 01       		.uleb128 0x1
 1821 0001 11       		.uleb128 0x11
 1822 0002 01       		.byte	0x1
 1823 0003 25       		.uleb128 0x25
 1824 0004 0E       		.uleb128 0xe
ARM GAS  /var/folders/3j/4xdnk5197cv_b7cw3n33qk7r0000gn/T//ccfSc7Hc.s 			page 33


 1825 0005 13       		.uleb128 0x13
 1826 0006 0B       		.uleb128 0xb
 1827 0007 03       		.uleb128 0x3
 1828 0008 0E       		.uleb128 0xe
 1829 0009 1B       		.uleb128 0x1b
 1830 000a 0E       		.uleb128 0xe
 1831 000b 55       		.uleb128 0x55
 1832 000c 17       		.uleb128 0x17
 1833 000d 11       		.uleb128 0x11
 1834 000e 01       		.uleb128 0x1
 1835 000f 10       		.uleb128 0x10
 1836 0010 17       		.uleb128 0x17
 1837 0011 00       		.byte	0
 1838 0012 00       		.byte	0
 1839 0013 02       		.uleb128 0x2
 1840 0014 24       		.uleb128 0x24
 1841 0015 00       		.byte	0
 1842 0016 0B       		.uleb128 0xb
 1843 0017 0B       		.uleb128 0xb
 1844 0018 3E       		.uleb128 0x3e
 1845 0019 0B       		.uleb128 0xb
 1846 001a 03       		.uleb128 0x3
 1847 001b 0E       		.uleb128 0xe
 1848 001c 00       		.byte	0
 1849 001d 00       		.byte	0
 1850 001e 03       		.uleb128 0x3
 1851 001f 16       		.uleb128 0x16
 1852 0020 00       		.byte	0
 1853 0021 03       		.uleb128 0x3
 1854 0022 0E       		.uleb128 0xe
 1855 0023 3A       		.uleb128 0x3a
 1856 0024 0B       		.uleb128 0xb
 1857 0025 3B       		.uleb128 0x3b
 1858 0026 0B       		.uleb128 0xb
 1859 0027 49       		.uleb128 0x49
 1860 0028 13       		.uleb128 0x13
 1861 0029 00       		.byte	0
 1862 002a 00       		.byte	0
 1863 002b 04       		.uleb128 0x4
 1864 002c 24       		.uleb128 0x24
 1865 002d 00       		.byte	0
 1866 002e 0B       		.uleb128 0xb
 1867 002f 0B       		.uleb128 0xb
 1868 0030 3E       		.uleb128 0x3e
 1869 0031 0B       		.uleb128 0xb
 1870 0032 03       		.uleb128 0x3
 1871 0033 08       		.uleb128 0x8
 1872 0034 00       		.byte	0
 1873 0035 00       		.byte	0
 1874 0036 05       		.uleb128 0x5
 1875 0037 13       		.uleb128 0x13
 1876 0038 01       		.byte	0x1
 1877 0039 03       		.uleb128 0x3
 1878 003a 0E       		.uleb128 0xe
 1879 003b 0B       		.uleb128 0xb
 1880 003c 0B       		.uleb128 0xb
 1881 003d 3A       		.uleb128 0x3a
ARM GAS  /var/folders/3j/4xdnk5197cv_b7cw3n33qk7r0000gn/T//ccfSc7Hc.s 			page 34


 1882 003e 0B       		.uleb128 0xb
 1883 003f 3B       		.uleb128 0x3b
 1884 0040 0B       		.uleb128 0xb
 1885 0041 01       		.uleb128 0x1
 1886 0042 13       		.uleb128 0x13
 1887 0043 00       		.byte	0
 1888 0044 00       		.byte	0
 1889 0045 06       		.uleb128 0x6
 1890 0046 0D       		.uleb128 0xd
 1891 0047 00       		.byte	0
 1892 0048 03       		.uleb128 0x3
 1893 0049 0E       		.uleb128 0xe
 1894 004a 49       		.uleb128 0x49
 1895 004b 13       		.uleb128 0x13
 1896 004c 38       		.uleb128 0x38
 1897 004d 0B       		.uleb128 0xb
 1898 004e 34       		.uleb128 0x34
 1899 004f 19       		.uleb128 0x19
 1900 0050 00       		.byte	0
 1901 0051 00       		.byte	0
 1902 0052 07       		.uleb128 0x7
 1903 0053 0F       		.uleb128 0xf
 1904 0054 00       		.byte	0
 1905 0055 0B       		.uleb128 0xb
 1906 0056 0B       		.uleb128 0xb
 1907 0057 00       		.byte	0
 1908 0058 00       		.byte	0
 1909 0059 08       		.uleb128 0x8
 1910 005a 0F       		.uleb128 0xf
 1911 005b 00       		.byte	0
 1912 005c 0B       		.uleb128 0xb
 1913 005d 0B       		.uleb128 0xb
 1914 005e 49       		.uleb128 0x49
 1915 005f 13       		.uleb128 0x13
 1916 0060 00       		.byte	0
 1917 0061 00       		.byte	0
 1918 0062 09       		.uleb128 0x9
 1919 0063 13       		.uleb128 0x13
 1920 0064 00       		.byte	0
 1921 0065 03       		.uleb128 0x3
 1922 0066 0E       		.uleb128 0xe
 1923 0067 3C       		.uleb128 0x3c
 1924 0068 19       		.uleb128 0x19
 1925 0069 00       		.byte	0
 1926 006a 00       		.byte	0
 1927 006b 0A       		.uleb128 0xa
 1928 006c 16       		.uleb128 0x16
 1929 006d 00       		.byte	0
 1930 006e 03       		.uleb128 0x3
 1931 006f 0E       		.uleb128 0xe
 1932 0070 3A       		.uleb128 0x3a
 1933 0071 0B       		.uleb128 0xb
 1934 0072 3B       		.uleb128 0x3b
 1935 0073 05       		.uleb128 0x5
 1936 0074 49       		.uleb128 0x49
 1937 0075 13       		.uleb128 0x13
 1938 0076 00       		.byte	0
ARM GAS  /var/folders/3j/4xdnk5197cv_b7cw3n33qk7r0000gn/T//ccfSc7Hc.s 			page 35


 1939 0077 00       		.byte	0
 1940 0078 0B       		.uleb128 0xb
 1941 0079 17       		.uleb128 0x17
 1942 007a 01       		.byte	0x1
 1943 007b 0B       		.uleb128 0xb
 1944 007c 0B       		.uleb128 0xb
 1945 007d 3A       		.uleb128 0x3a
 1946 007e 0B       		.uleb128 0xb
 1947 007f 3B       		.uleb128 0x3b
 1948 0080 0B       		.uleb128 0xb
 1949 0081 01       		.uleb128 0x1
 1950 0082 13       		.uleb128 0x13
 1951 0083 00       		.byte	0
 1952 0084 00       		.byte	0
 1953 0085 0C       		.uleb128 0xc
 1954 0086 0D       		.uleb128 0xd
 1955 0087 00       		.byte	0
 1956 0088 03       		.uleb128 0x3
 1957 0089 0E       		.uleb128 0xe
 1958 008a 3A       		.uleb128 0x3a
 1959 008b 0B       		.uleb128 0xb
 1960 008c 3B       		.uleb128 0x3b
 1961 008d 0B       		.uleb128 0xb
 1962 008e 49       		.uleb128 0x49
 1963 008f 13       		.uleb128 0x13
 1964 0090 00       		.byte	0
 1965 0091 00       		.byte	0
 1966 0092 0D       		.uleb128 0xd
 1967 0093 01       		.uleb128 0x1
 1968 0094 01       		.byte	0x1
 1969 0095 49       		.uleb128 0x49
 1970 0096 13       		.uleb128 0x13
 1971 0097 01       		.uleb128 0x1
 1972 0098 13       		.uleb128 0x13
 1973 0099 00       		.byte	0
 1974 009a 00       		.byte	0
 1975 009b 0E       		.uleb128 0xe
 1976 009c 21       		.uleb128 0x21
 1977 009d 00       		.byte	0
 1978 009e 49       		.uleb128 0x49
 1979 009f 13       		.uleb128 0x13
 1980 00a0 2F       		.uleb128 0x2f
 1981 00a1 0B       		.uleb128 0xb
 1982 00a2 00       		.byte	0
 1983 00a3 00       		.byte	0
 1984 00a4 0F       		.uleb128 0xf
 1985 00a5 13       		.uleb128 0x13
 1986 00a6 01       		.byte	0x1
 1987 00a7 0B       		.uleb128 0xb
 1988 00a8 0B       		.uleb128 0xb
 1989 00a9 3A       		.uleb128 0x3a
 1990 00aa 0B       		.uleb128 0xb
 1991 00ab 3B       		.uleb128 0x3b
 1992 00ac 0B       		.uleb128 0xb
 1993 00ad 01       		.uleb128 0x1
 1994 00ae 13       		.uleb128 0x13
 1995 00af 00       		.byte	0
ARM GAS  /var/folders/3j/4xdnk5197cv_b7cw3n33qk7r0000gn/T//ccfSc7Hc.s 			page 36


 1996 00b0 00       		.byte	0
 1997 00b1 10       		.uleb128 0x10
 1998 00b2 0D       		.uleb128 0xd
 1999 00b3 00       		.byte	0
 2000 00b4 03       		.uleb128 0x3
 2001 00b5 0E       		.uleb128 0xe
 2002 00b6 3A       		.uleb128 0x3a
 2003 00b7 0B       		.uleb128 0xb
 2004 00b8 3B       		.uleb128 0x3b
 2005 00b9 0B       		.uleb128 0xb
 2006 00ba 49       		.uleb128 0x49
 2007 00bb 13       		.uleb128 0x13
 2008 00bc 38       		.uleb128 0x38
 2009 00bd 0B       		.uleb128 0xb
 2010 00be 00       		.byte	0
 2011 00bf 00       		.byte	0
 2012 00c0 11       		.uleb128 0x11
 2013 00c1 0D       		.uleb128 0xd
 2014 00c2 00       		.byte	0
 2015 00c3 03       		.uleb128 0x3
 2016 00c4 08       		.uleb128 0x8
 2017 00c5 3A       		.uleb128 0x3a
 2018 00c6 0B       		.uleb128 0xb
 2019 00c7 3B       		.uleb128 0x3b
 2020 00c8 0B       		.uleb128 0xb
 2021 00c9 49       		.uleb128 0x49
 2022 00ca 13       		.uleb128 0x13
 2023 00cb 38       		.uleb128 0x38
 2024 00cc 0B       		.uleb128 0xb
 2025 00cd 00       		.byte	0
 2026 00ce 00       		.byte	0
 2027 00cf 12       		.uleb128 0x12
 2028 00d0 13       		.uleb128 0x13
 2029 00d1 01       		.byte	0x1
 2030 00d2 03       		.uleb128 0x3
 2031 00d3 0E       		.uleb128 0xe
 2032 00d4 0B       		.uleb128 0xb
 2033 00d5 05       		.uleb128 0x5
 2034 00d6 3A       		.uleb128 0x3a
 2035 00d7 0B       		.uleb128 0xb
 2036 00d8 3B       		.uleb128 0x3b
 2037 00d9 0B       		.uleb128 0xb
 2038 00da 01       		.uleb128 0x1
 2039 00db 13       		.uleb128 0x13
 2040 00dc 00       		.byte	0
 2041 00dd 00       		.byte	0
 2042 00de 13       		.uleb128 0x13
 2043 00df 0D       		.uleb128 0xd
 2044 00e0 00       		.byte	0
 2045 00e1 03       		.uleb128 0x3
 2046 00e2 0E       		.uleb128 0xe
 2047 00e3 3A       		.uleb128 0x3a
 2048 00e4 0B       		.uleb128 0xb
 2049 00e5 3B       		.uleb128 0x3b
 2050 00e6 0B       		.uleb128 0xb
 2051 00e7 49       		.uleb128 0x49
 2052 00e8 13       		.uleb128 0x13
ARM GAS  /var/folders/3j/4xdnk5197cv_b7cw3n33qk7r0000gn/T//ccfSc7Hc.s 			page 37


 2053 00e9 38       		.uleb128 0x38
 2054 00ea 05       		.uleb128 0x5
 2055 00eb 00       		.byte	0
 2056 00ec 00       		.byte	0
 2057 00ed 14       		.uleb128 0x14
 2058 00ee 15       		.uleb128 0x15
 2059 00ef 00       		.byte	0
 2060 00f0 27       		.uleb128 0x27
 2061 00f1 19       		.uleb128 0x19
 2062 00f2 00       		.byte	0
 2063 00f3 00       		.byte	0
 2064 00f4 15       		.uleb128 0x15
 2065 00f5 15       		.uleb128 0x15
 2066 00f6 01       		.byte	0x1
 2067 00f7 27       		.uleb128 0x27
 2068 00f8 19       		.uleb128 0x19
 2069 00f9 49       		.uleb128 0x49
 2070 00fa 13       		.uleb128 0x13
 2071 00fb 01       		.uleb128 0x1
 2072 00fc 13       		.uleb128 0x13
 2073 00fd 00       		.byte	0
 2074 00fe 00       		.byte	0
 2075 00ff 16       		.uleb128 0x16
 2076 0100 05       		.uleb128 0x5
 2077 0101 00       		.byte	0
 2078 0102 49       		.uleb128 0x49
 2079 0103 13       		.uleb128 0x13
 2080 0104 00       		.byte	0
 2081 0105 00       		.byte	0
 2082 0106 17       		.uleb128 0x17
 2083 0107 26       		.uleb128 0x26
 2084 0108 00       		.byte	0
 2085 0109 49       		.uleb128 0x49
 2086 010a 13       		.uleb128 0x13
 2087 010b 00       		.byte	0
 2088 010c 00       		.byte	0
 2089 010d 18       		.uleb128 0x18
 2090 010e 13       		.uleb128 0x13
 2091 010f 01       		.byte	0x1
 2092 0110 03       		.uleb128 0x3
 2093 0111 0E       		.uleb128 0xe
 2094 0112 0B       		.uleb128 0xb
 2095 0113 05       		.uleb128 0x5
 2096 0114 3A       		.uleb128 0x3a
 2097 0115 0B       		.uleb128 0xb
 2098 0116 3B       		.uleb128 0x3b
 2099 0117 05       		.uleb128 0x5
 2100 0118 01       		.uleb128 0x1
 2101 0119 13       		.uleb128 0x13
 2102 011a 00       		.byte	0
 2103 011b 00       		.byte	0
 2104 011c 19       		.uleb128 0x19
 2105 011d 0D       		.uleb128 0xd
 2106 011e 00       		.byte	0
 2107 011f 03       		.uleb128 0x3
 2108 0120 0E       		.uleb128 0xe
 2109 0121 3A       		.uleb128 0x3a
ARM GAS  /var/folders/3j/4xdnk5197cv_b7cw3n33qk7r0000gn/T//ccfSc7Hc.s 			page 38


 2110 0122 0B       		.uleb128 0xb
 2111 0123 3B       		.uleb128 0x3b
 2112 0124 05       		.uleb128 0x5
 2113 0125 49       		.uleb128 0x49
 2114 0126 13       		.uleb128 0x13
 2115 0127 38       		.uleb128 0x38
 2116 0128 0B       		.uleb128 0xb
 2117 0129 00       		.byte	0
 2118 012a 00       		.byte	0
 2119 012b 1A       		.uleb128 0x1a
 2120 012c 0D       		.uleb128 0xd
 2121 012d 00       		.byte	0
 2122 012e 03       		.uleb128 0x3
 2123 012f 0E       		.uleb128 0xe
 2124 0130 3A       		.uleb128 0x3a
 2125 0131 0B       		.uleb128 0xb
 2126 0132 3B       		.uleb128 0x3b
 2127 0133 05       		.uleb128 0x5
 2128 0134 49       		.uleb128 0x49
 2129 0135 13       		.uleb128 0x13
 2130 0136 38       		.uleb128 0x38
 2131 0137 05       		.uleb128 0x5
 2132 0138 00       		.byte	0
 2133 0139 00       		.byte	0
 2134 013a 1B       		.uleb128 0x1b
 2135 013b 13       		.uleb128 0x13
 2136 013c 01       		.byte	0x1
 2137 013d 03       		.uleb128 0x3
 2138 013e 0E       		.uleb128 0xe
 2139 013f 0B       		.uleb128 0xb
 2140 0140 0B       		.uleb128 0xb
 2141 0141 3A       		.uleb128 0x3a
 2142 0142 0B       		.uleb128 0xb
 2143 0143 3B       		.uleb128 0x3b
 2144 0144 05       		.uleb128 0x5
 2145 0145 01       		.uleb128 0x1
 2146 0146 13       		.uleb128 0x13
 2147 0147 00       		.byte	0
 2148 0148 00       		.byte	0
 2149 0149 1C       		.uleb128 0x1c
 2150 014a 13       		.uleb128 0x13
 2151 014b 01       		.byte	0x1
 2152 014c 0B       		.uleb128 0xb
 2153 014d 0B       		.uleb128 0xb
 2154 014e 3A       		.uleb128 0x3a
 2155 014f 0B       		.uleb128 0xb
 2156 0150 3B       		.uleb128 0x3b
 2157 0151 05       		.uleb128 0x5
 2158 0152 01       		.uleb128 0x1
 2159 0153 13       		.uleb128 0x13
 2160 0154 00       		.byte	0
 2161 0155 00       		.byte	0
 2162 0156 1D       		.uleb128 0x1d
 2163 0157 17       		.uleb128 0x17
 2164 0158 01       		.byte	0x1
 2165 0159 0B       		.uleb128 0xb
 2166 015a 0B       		.uleb128 0xb
ARM GAS  /var/folders/3j/4xdnk5197cv_b7cw3n33qk7r0000gn/T//ccfSc7Hc.s 			page 39


 2167 015b 3A       		.uleb128 0x3a
 2168 015c 0B       		.uleb128 0xb
 2169 015d 3B       		.uleb128 0x3b
 2170 015e 05       		.uleb128 0x5
 2171 015f 01       		.uleb128 0x1
 2172 0160 13       		.uleb128 0x13
 2173 0161 00       		.byte	0
 2174 0162 00       		.byte	0
 2175 0163 1E       		.uleb128 0x1e
 2176 0164 0D       		.uleb128 0xd
 2177 0165 00       		.byte	0
 2178 0166 03       		.uleb128 0x3
 2179 0167 0E       		.uleb128 0xe
 2180 0168 3A       		.uleb128 0x3a
 2181 0169 0B       		.uleb128 0xb
 2182 016a 3B       		.uleb128 0x3b
 2183 016b 05       		.uleb128 0x5
 2184 016c 49       		.uleb128 0x49
 2185 016d 13       		.uleb128 0x13
 2186 016e 00       		.byte	0
 2187 016f 00       		.byte	0
 2188 0170 1F       		.uleb128 0x1f
 2189 0171 15       		.uleb128 0x15
 2190 0172 01       		.byte	0x1
 2191 0173 27       		.uleb128 0x27
 2192 0174 19       		.uleb128 0x19
 2193 0175 01       		.uleb128 0x1
 2194 0176 13       		.uleb128 0x13
 2195 0177 00       		.byte	0
 2196 0178 00       		.byte	0
 2197 0179 20       		.uleb128 0x20
 2198 017a 34       		.uleb128 0x34
 2199 017b 00       		.byte	0
 2200 017c 03       		.uleb128 0x3
 2201 017d 0E       		.uleb128 0xe
 2202 017e 3A       		.uleb128 0x3a
 2203 017f 0B       		.uleb128 0xb
 2204 0180 3B       		.uleb128 0x3b
 2205 0181 05       		.uleb128 0x5
 2206 0182 49       		.uleb128 0x49
 2207 0183 13       		.uleb128 0x13
 2208 0184 3F       		.uleb128 0x3f
 2209 0185 19       		.uleb128 0x19
 2210 0186 3C       		.uleb128 0x3c
 2211 0187 19       		.uleb128 0x19
 2212 0188 00       		.byte	0
 2213 0189 00       		.byte	0
 2214 018a 21       		.uleb128 0x21
 2215 018b 04       		.uleb128 0x4
 2216 018c 01       		.byte	0x1
 2217 018d 3E       		.uleb128 0x3e
 2218 018e 0B       		.uleb128 0xb
 2219 018f 0B       		.uleb128 0xb
 2220 0190 0B       		.uleb128 0xb
 2221 0191 49       		.uleb128 0x49
 2222 0192 13       		.uleb128 0x13
 2223 0193 3A       		.uleb128 0x3a
ARM GAS  /var/folders/3j/4xdnk5197cv_b7cw3n33qk7r0000gn/T//ccfSc7Hc.s 			page 40


 2224 0194 0B       		.uleb128 0xb
 2225 0195 3B       		.uleb128 0x3b
 2226 0196 0B       		.uleb128 0xb
 2227 0197 01       		.uleb128 0x1
 2228 0198 13       		.uleb128 0x13
 2229 0199 00       		.byte	0
 2230 019a 00       		.byte	0
 2231 019b 22       		.uleb128 0x22
 2232 019c 28       		.uleb128 0x28
 2233 019d 00       		.byte	0
 2234 019e 03       		.uleb128 0x3
 2235 019f 0E       		.uleb128 0xe
 2236 01a0 1C       		.uleb128 0x1c
 2237 01a1 0B       		.uleb128 0xb
 2238 01a2 00       		.byte	0
 2239 01a3 00       		.byte	0
 2240 01a4 23       		.uleb128 0x23
 2241 01a5 28       		.uleb128 0x28
 2242 01a6 00       		.byte	0
 2243 01a7 03       		.uleb128 0x3
 2244 01a8 0E       		.uleb128 0xe
 2245 01a9 1C       		.uleb128 0x1c
 2246 01aa 06       		.uleb128 0x6
 2247 01ab 00       		.byte	0
 2248 01ac 00       		.byte	0
 2249 01ad 24       		.uleb128 0x24
 2250 01ae 34       		.uleb128 0x34
 2251 01af 00       		.byte	0
 2252 01b0 03       		.uleb128 0x3
 2253 01b1 0E       		.uleb128 0xe
 2254 01b2 3A       		.uleb128 0x3a
 2255 01b3 0B       		.uleb128 0xb
 2256 01b4 3B       		.uleb128 0x3b
 2257 01b5 0B       		.uleb128 0xb
 2258 01b6 49       		.uleb128 0x49
 2259 01b7 13       		.uleb128 0x13
 2260 01b8 3F       		.uleb128 0x3f
 2261 01b9 19       		.uleb128 0x19
 2262 01ba 02       		.uleb128 0x2
 2263 01bb 18       		.uleb128 0x18
 2264 01bc 00       		.byte	0
 2265 01bd 00       		.byte	0
 2266 01be 25       		.uleb128 0x25
 2267 01bf 2E       		.uleb128 0x2e
 2268 01c0 01       		.byte	0x1
 2269 01c1 3F       		.uleb128 0x3f
 2270 01c2 19       		.uleb128 0x19
 2271 01c3 03       		.uleb128 0x3
 2272 01c4 0E       		.uleb128 0xe
 2273 01c5 3A       		.uleb128 0x3a
 2274 01c6 0B       		.uleb128 0xb
 2275 01c7 3B       		.uleb128 0x3b
 2276 01c8 0B       		.uleb128 0xb
 2277 01c9 27       		.uleb128 0x27
 2278 01ca 19       		.uleb128 0x19
 2279 01cb 11       		.uleb128 0x11
 2280 01cc 01       		.uleb128 0x1
ARM GAS  /var/folders/3j/4xdnk5197cv_b7cw3n33qk7r0000gn/T//ccfSc7Hc.s 			page 41


 2281 01cd 12       		.uleb128 0x12
 2282 01ce 06       		.uleb128 0x6
 2283 01cf 40       		.uleb128 0x40
 2284 01d0 18       		.uleb128 0x18
 2285 01d1 9742     		.uleb128 0x2117
 2286 01d3 19       		.uleb128 0x19
 2287 01d4 01       		.uleb128 0x1
 2288 01d5 13       		.uleb128 0x13
 2289 01d6 00       		.byte	0
 2290 01d7 00       		.byte	0
 2291 01d8 26       		.uleb128 0x26
 2292 01d9 05       		.uleb128 0x5
 2293 01da 00       		.byte	0
 2294 01db 03       		.uleb128 0x3
 2295 01dc 0E       		.uleb128 0xe
 2296 01dd 3A       		.uleb128 0x3a
 2297 01de 0B       		.uleb128 0xb
 2298 01df 3B       		.uleb128 0x3b
 2299 01e0 0B       		.uleb128 0xb
 2300 01e1 49       		.uleb128 0x49
 2301 01e2 13       		.uleb128 0x13
 2302 01e3 02       		.uleb128 0x2
 2303 01e4 17       		.uleb128 0x17
 2304 01e5 00       		.byte	0
 2305 01e6 00       		.byte	0
 2306 01e7 27       		.uleb128 0x27
 2307 01e8 05       		.uleb128 0x5
 2308 01e9 00       		.byte	0
 2309 01ea 03       		.uleb128 0x3
 2310 01eb 0E       		.uleb128 0xe
 2311 01ec 3A       		.uleb128 0x3a
 2312 01ed 0B       		.uleb128 0xb
 2313 01ee 3B       		.uleb128 0x3b
 2314 01ef 0B       		.uleb128 0xb
 2315 01f0 49       		.uleb128 0x49
 2316 01f1 13       		.uleb128 0x13
 2317 01f2 02       		.uleb128 0x2
 2318 01f3 18       		.uleb128 0x18
 2319 01f4 00       		.byte	0
 2320 01f5 00       		.byte	0
 2321 01f6 28       		.uleb128 0x28
 2322 01f7 18       		.uleb128 0x18
 2323 01f8 00       		.byte	0
 2324 01f9 00       		.byte	0
 2325 01fa 00       		.byte	0
 2326 01fb 29       		.uleb128 0x29
 2327 01fc 0B       		.uleb128 0xb
 2328 01fd 01       		.byte	0x1
 2329 01fe 55       		.uleb128 0x55
 2330 01ff 17       		.uleb128 0x17
 2331 0200 00       		.byte	0
 2332 0201 00       		.byte	0
 2333 0202 2A       		.uleb128 0x2a
 2334 0203 34       		.uleb128 0x34
 2335 0204 00       		.byte	0
 2336 0205 03       		.uleb128 0x3
 2337 0206 0E       		.uleb128 0xe
ARM GAS  /var/folders/3j/4xdnk5197cv_b7cw3n33qk7r0000gn/T//ccfSc7Hc.s 			page 42


 2338 0207 3A       		.uleb128 0x3a
 2339 0208 0B       		.uleb128 0xb
 2340 0209 3B       		.uleb128 0x3b
 2341 020a 0B       		.uleb128 0xb
 2342 020b 49       		.uleb128 0x49
 2343 020c 13       		.uleb128 0x13
 2344 020d 02       		.uleb128 0x2
 2345 020e 18       		.uleb128 0x18
 2346 020f 00       		.byte	0
 2347 0210 00       		.byte	0
 2348 0211 2B       		.uleb128 0x2b
 2349 0212 898201   		.uleb128 0x4109
 2350 0215 01       		.byte	0x1
 2351 0216 11       		.uleb128 0x11
 2352 0217 01       		.uleb128 0x1
 2353 0218 31       		.uleb128 0x31
 2354 0219 13       		.uleb128 0x13
 2355 021a 01       		.uleb128 0x1
 2356 021b 13       		.uleb128 0x13
 2357 021c 00       		.byte	0
 2358 021d 00       		.byte	0
 2359 021e 2C       		.uleb128 0x2c
 2360 021f 8A8201   		.uleb128 0x410a
 2361 0222 00       		.byte	0
 2362 0223 02       		.uleb128 0x2
 2363 0224 18       		.uleb128 0x18
 2364 0225 9142     		.uleb128 0x2111
 2365 0227 18       		.uleb128 0x18
 2366 0228 00       		.byte	0
 2367 0229 00       		.byte	0
 2368 022a 2D       		.uleb128 0x2d
 2369 022b 898201   		.uleb128 0x4109
 2370 022e 01       		.byte	0x1
 2371 022f 11       		.uleb128 0x11
 2372 0230 01       		.uleb128 0x1
 2373 0231 31       		.uleb128 0x31
 2374 0232 13       		.uleb128 0x13
 2375 0233 00       		.byte	0
 2376 0234 00       		.byte	0
 2377 0235 2E       		.uleb128 0x2e
 2378 0236 2E       		.uleb128 0x2e
 2379 0237 01       		.byte	0x1
 2380 0238 3F       		.uleb128 0x3f
 2381 0239 19       		.uleb128 0x19
 2382 023a 03       		.uleb128 0x3
 2383 023b 0E       		.uleb128 0xe
 2384 023c 3A       		.uleb128 0x3a
 2385 023d 0B       		.uleb128 0xb
 2386 023e 3B       		.uleb128 0x3b
 2387 023f 0B       		.uleb128 0xb
 2388 0240 27       		.uleb128 0x27
 2389 0241 19       		.uleb128 0x19
 2390 0242 49       		.uleb128 0x49
 2391 0243 13       		.uleb128 0x13
 2392 0244 11       		.uleb128 0x11
 2393 0245 01       		.uleb128 0x1
 2394 0246 12       		.uleb128 0x12
ARM GAS  /var/folders/3j/4xdnk5197cv_b7cw3n33qk7r0000gn/T//ccfSc7Hc.s 			page 43


 2395 0247 06       		.uleb128 0x6
 2396 0248 40       		.uleb128 0x40
 2397 0249 18       		.uleb128 0x18
 2398 024a 9742     		.uleb128 0x2117
 2399 024c 19       		.uleb128 0x19
 2400 024d 01       		.uleb128 0x1
 2401 024e 13       		.uleb128 0x13
 2402 024f 00       		.byte	0
 2403 0250 00       		.byte	0
 2404 0251 2F       		.uleb128 0x2f
 2405 0252 34       		.uleb128 0x34
 2406 0253 00       		.byte	0
 2407 0254 03       		.uleb128 0x3
 2408 0255 0E       		.uleb128 0xe
 2409 0256 3A       		.uleb128 0x3a
 2410 0257 0B       		.uleb128 0xb
 2411 0258 3B       		.uleb128 0x3b
 2412 0259 0B       		.uleb128 0xb
 2413 025a 49       		.uleb128 0x49
 2414 025b 13       		.uleb128 0x13
 2415 025c 02       		.uleb128 0x2
 2416 025d 17       		.uleb128 0x17
 2417 025e 00       		.byte	0
 2418 025f 00       		.byte	0
 2419 0260 30       		.uleb128 0x30
 2420 0261 0B       		.uleb128 0xb
 2421 0262 01       		.byte	0x1
 2422 0263 11       		.uleb128 0x11
 2423 0264 01       		.uleb128 0x1
 2424 0265 12       		.uleb128 0x12
 2425 0266 06       		.uleb128 0x6
 2426 0267 01       		.uleb128 0x1
 2427 0268 13       		.uleb128 0x13
 2428 0269 00       		.byte	0
 2429 026a 00       		.byte	0
 2430 026b 31       		.uleb128 0x31
 2431 026c 2E       		.uleb128 0x2e
 2432 026d 01       		.byte	0x1
 2433 026e 3F       		.uleb128 0x3f
 2434 026f 19       		.uleb128 0x19
 2435 0270 03       		.uleb128 0x3
 2436 0271 0E       		.uleb128 0xe
 2437 0272 3A       		.uleb128 0x3a
 2438 0273 0B       		.uleb128 0xb
 2439 0274 3B       		.uleb128 0x3b
 2440 0275 0B       		.uleb128 0xb
 2441 0276 27       		.uleb128 0x27
 2442 0277 19       		.uleb128 0x19
 2443 0278 3C       		.uleb128 0x3c
 2444 0279 19       		.uleb128 0x19
 2445 027a 01       		.uleb128 0x1
 2446 027b 13       		.uleb128 0x13
 2447 027c 00       		.byte	0
 2448 027d 00       		.byte	0
 2449 027e 32       		.uleb128 0x32
 2450 027f 898201   		.uleb128 0x4109
 2451 0282 00       		.byte	0
ARM GAS  /var/folders/3j/4xdnk5197cv_b7cw3n33qk7r0000gn/T//ccfSc7Hc.s 			page 44


 2452 0283 11       		.uleb128 0x11
 2453 0284 01       		.uleb128 0x1
 2454 0285 31       		.uleb128 0x31
 2455 0286 13       		.uleb128 0x13
 2456 0287 00       		.byte	0
 2457 0288 00       		.byte	0
 2458 0289 33       		.uleb128 0x33
 2459 028a 2E       		.uleb128 0x2e
 2460 028b 01       		.byte	0x1
 2461 028c 3F       		.uleb128 0x3f
 2462 028d 19       		.uleb128 0x19
 2463 028e 03       		.uleb128 0x3
 2464 028f 0E       		.uleb128 0xe
 2465 0290 3A       		.uleb128 0x3a
 2466 0291 0B       		.uleb128 0xb
 2467 0292 3B       		.uleb128 0x3b
 2468 0293 0B       		.uleb128 0xb
 2469 0294 27       		.uleb128 0x27
 2470 0295 19       		.uleb128 0x19
 2471 0296 49       		.uleb128 0x49
 2472 0297 13       		.uleb128 0x13
 2473 0298 3C       		.uleb128 0x3c
 2474 0299 19       		.uleb128 0x19
 2475 029a 01       		.uleb128 0x1
 2476 029b 13       		.uleb128 0x13
 2477 029c 00       		.byte	0
 2478 029d 00       		.byte	0
 2479 029e 34       		.uleb128 0x34
 2480 029f 2E       		.uleb128 0x2e
 2481 02a0 00       		.byte	0
 2482 02a1 3F       		.uleb128 0x3f
 2483 02a2 19       		.uleb128 0x19
 2484 02a3 3C       		.uleb128 0x3c
 2485 02a4 19       		.uleb128 0x19
 2486 02a5 6E       		.uleb128 0x6e
 2487 02a6 0E       		.uleb128 0xe
 2488 02a7 03       		.uleb128 0x3
 2489 02a8 0E       		.uleb128 0xe
 2490 02a9 3A       		.uleb128 0x3a
 2491 02aa 0B       		.uleb128 0xb
 2492 02ab 3B       		.uleb128 0x3b
 2493 02ac 05       		.uleb128 0x5
 2494 02ad 00       		.byte	0
 2495 02ae 00       		.byte	0
 2496 02af 35       		.uleb128 0x35
 2497 02b0 2E       		.uleb128 0x2e
 2498 02b1 00       		.byte	0
 2499 02b2 3F       		.uleb128 0x3f
 2500 02b3 19       		.uleb128 0x19
 2501 02b4 3C       		.uleb128 0x3c
 2502 02b5 19       		.uleb128 0x19
 2503 02b6 6E       		.uleb128 0x6e
 2504 02b7 0E       		.uleb128 0xe
 2505 02b8 03       		.uleb128 0x3
 2506 02b9 0E       		.uleb128 0xe
 2507 02ba 3A       		.uleb128 0x3a
 2508 02bb 0B       		.uleb128 0xb
ARM GAS  /var/folders/3j/4xdnk5197cv_b7cw3n33qk7r0000gn/T//ccfSc7Hc.s 			page 45


 2509 02bc 3B       		.uleb128 0x3b
 2510 02bd 0B       		.uleb128 0xb
 2511 02be 00       		.byte	0
 2512 02bf 00       		.byte	0
 2513 02c0 00       		.byte	0
 2514              		.section	.debug_loc,"",%progbits
 2515              	.Ldebug_loc0:
 2516              	.LLST5:
 2517 0000 00000000 		.4byte	.LVL10
 2518 0004 38000000 		.4byte	.LVL11
 2519 0008 0100     		.2byte	0x1
 2520 000a 50       		.byte	0x50
 2521 000b 38000000 		.4byte	.LVL11
 2522 000f 70000000 		.4byte	.LVL16
 2523 0013 0400     		.2byte	0x4
 2524 0015 F3       		.byte	0xf3
 2525 0016 01       		.uleb128 0x1
 2526 0017 50       		.byte	0x50
 2527 0018 9F       		.byte	0x9f
 2528 0019 70000000 		.4byte	.LVL16
 2529 001d 84000000 		.4byte	.LVL17
 2530 0021 0100     		.2byte	0x1
 2531 0023 50       		.byte	0x50
 2532 0024 84000000 		.4byte	.LVL17
 2533 0028 AC000000 		.4byte	.LFE4
 2534 002c 0400     		.2byte	0x4
 2535 002e F3       		.byte	0xf3
 2536 002f 01       		.uleb128 0x1
 2537 0030 50       		.byte	0x50
 2538 0031 9F       		.byte	0x9f
 2539 0032 00000000 		.4byte	0
 2540 0036 00000000 		.4byte	0
 2541              	.LLST6:
 2542 003a 00000000 		.4byte	.LVL10
 2543 003e 40000000 		.4byte	.LVL13
 2544 0042 0100     		.2byte	0x1
 2545 0044 51       		.byte	0x51
 2546 0045 40000000 		.4byte	.LVL13
 2547 0049 70000000 		.4byte	.LVL16
 2548 004d 0400     		.2byte	0x4
 2549 004f F3       		.byte	0xf3
 2550 0050 01       		.uleb128 0x1
 2551 0051 51       		.byte	0x51
 2552 0052 9F       		.byte	0x9f
 2553 0053 70000000 		.4byte	.LVL16
 2554 0057 84000000 		.4byte	.LVL17
 2555 005b 0100     		.2byte	0x1
 2556 005d 51       		.byte	0x51
 2557 005e 84000000 		.4byte	.LVL17
 2558 0062 AC000000 		.4byte	.LFE4
 2559 0066 0400     		.2byte	0x4
 2560 0068 F3       		.byte	0xf3
 2561 0069 01       		.uleb128 0x1
 2562 006a 51       		.byte	0x51
 2563 006b 9F       		.byte	0x9f
 2564 006c 00000000 		.4byte	0
 2565 0070 00000000 		.4byte	0
ARM GAS  /var/folders/3j/4xdnk5197cv_b7cw3n33qk7r0000gn/T//ccfSc7Hc.s 			page 46


 2566              	.LLST7:
 2567 0074 00000000 		.4byte	.LVL10
 2568 0078 3C000000 		.4byte	.LVL12
 2569 007c 0100     		.2byte	0x1
 2570 007e 52       		.byte	0x52
 2571 007f 3C000000 		.4byte	.LVL12
 2572 0083 70000000 		.4byte	.LVL16
 2573 0087 0400     		.2byte	0x4
 2574 0089 F3       		.byte	0xf3
 2575 008a 01       		.uleb128 0x1
 2576 008b 52       		.byte	0x52
 2577 008c 9F       		.byte	0x9f
 2578 008d 70000000 		.4byte	.LVL16
 2579 0091 84000000 		.4byte	.LVL17
 2580 0095 0100     		.2byte	0x1
 2581 0097 52       		.byte	0x52
 2582 0098 84000000 		.4byte	.LVL17
 2583 009c AC000000 		.4byte	.LFE4
 2584 00a0 0400     		.2byte	0x4
 2585 00a2 F3       		.byte	0xf3
 2586 00a3 01       		.uleb128 0x1
 2587 00a4 52       		.byte	0x52
 2588 00a5 9F       		.byte	0x9f
 2589 00a6 00000000 		.4byte	0
 2590 00aa 00000000 		.4byte	0
 2591              	.LLST0:
 2592 00ae 00000000 		.4byte	.LVL0
 2593 00b2 10000000 		.4byte	.LVL1
 2594 00b6 0100     		.2byte	0x1
 2595 00b8 50       		.byte	0x50
 2596 00b9 10000000 		.4byte	.LVL1
 2597 00bd EC000000 		.4byte	.LFE3
 2598 00c1 0100     		.2byte	0x1
 2599 00c3 57       		.byte	0x57
 2600 00c4 00000000 		.4byte	0
 2601 00c8 00000000 		.4byte	0
 2602              	.LLST1:
 2603 00cc 00000000 		.4byte	.LVL0
 2604 00d0 43000000 		.4byte	.LVL2-1
 2605 00d4 0100     		.2byte	0x1
 2606 00d6 51       		.byte	0x51
 2607 00d7 43000000 		.4byte	.LVL2-1
 2608 00db EC000000 		.4byte	.LFE3
 2609 00df 0100     		.2byte	0x1
 2610 00e1 58       		.byte	0x58
 2611 00e2 00000000 		.4byte	0
 2612 00e6 00000000 		.4byte	0
 2613              	.LLST2:
 2614 00ea 00000000 		.4byte	.LVL0
 2615 00ee 43000000 		.4byte	.LVL2-1
 2616 00f2 0100     		.2byte	0x1
 2617 00f4 52       		.byte	0x52
 2618 00f5 43000000 		.4byte	.LVL2-1
 2619 00f9 EC000000 		.4byte	.LFE3
 2620 00fd 0100     		.2byte	0x1
 2621 00ff 59       		.byte	0x59
 2622 0100 00000000 		.4byte	0
ARM GAS  /var/folders/3j/4xdnk5197cv_b7cw3n33qk7r0000gn/T//ccfSc7Hc.s 			page 47


 2623 0104 00000000 		.4byte	0
 2624              	.LLST3:
 2625 0108 00000000 		.4byte	.LVL0
 2626 010c 43000000 		.4byte	.LVL2-1
 2627 0110 0100     		.2byte	0x1
 2628 0112 53       		.byte	0x53
 2629 0113 43000000 		.4byte	.LVL2-1
 2630 0117 EC000000 		.4byte	.LFE3
 2631 011b 0100     		.2byte	0x1
 2632 011d 5A       		.byte	0x5a
 2633 011e 00000000 		.4byte	0
 2634 0122 00000000 		.4byte	0
 2635              	.LLST4:
 2636 0126 00000000 		.4byte	.LVL0
 2637 012a 78000000 		.4byte	.LVL4
 2638 012e 0200     		.2byte	0x2
 2639 0130 30       		.byte	0x30
 2640 0131 9F       		.byte	0x9f
 2641 0132 78000000 		.4byte	.LVL4
 2642 0136 94000000 		.4byte	.LVL5
 2643 013a 0100     		.2byte	0x1
 2644 013c 50       		.byte	0x50
 2645 013d 94000000 		.4byte	.LVL5
 2646 0141 EC000000 		.4byte	.LFE3
 2647 0145 0200     		.2byte	0x2
 2648 0147 30       		.byte	0x30
 2649 0148 9F       		.byte	0x9f
 2650 0149 00000000 		.4byte	0
 2651 014d 00000000 		.4byte	0
 2652              		.section	.debug_aranges,"",%progbits
 2653 0000 24000000 		.4byte	0x24
 2654 0004 0200     		.2byte	0x2
 2655 0006 00000000 		.4byte	.Ldebug_info0
 2656 000a 04       		.byte	0x4
 2657 000b 00       		.byte	0
 2658 000c 0000     		.2byte	0
 2659 000e 0000     		.2byte	0
 2660 0010 00000000 		.4byte	.LFB3
 2661 0014 EC000000 		.4byte	.LFE3-.LFB3
 2662 0018 00000000 		.4byte	.LFB4
 2663 001c AC000000 		.4byte	.LFE4-.LFB4
 2664 0020 00000000 		.4byte	0
 2665 0024 00000000 		.4byte	0
 2666              		.section	.debug_ranges,"",%progbits
 2667              	.Ldebug_ranges0:
 2668 0000 2C000000 		.4byte	.LBB4
 2669 0004 60000000 		.4byte	.LBE4
 2670 0008 84000000 		.4byte	.LBB5
 2671 000c 8C000000 		.4byte	.LBE5
 2672 0010 00000000 		.4byte	0
 2673 0014 00000000 		.4byte	0
 2674 0018 00000000 		.4byte	.LFB3
 2675 001c EC000000 		.4byte	.LFE3
 2676 0020 00000000 		.4byte	.LFB4
 2677 0024 AC000000 		.4byte	.LFE4
 2678 0028 00000000 		.4byte	0
 2679 002c 00000000 		.4byte	0
ARM GAS  /var/folders/3j/4xdnk5197cv_b7cw3n33qk7r0000gn/T//ccfSc7Hc.s 			page 48


 2680              		.section	.debug_line,"",%progbits
 2681              	.Ldebug_line0:
 2682 0000 9C020000 		.section	.debug_str,"MS",%progbits,1
 2682      02002602 
 2682      00000201 
 2682      FB0E0D00 
 2682      01010101 
 2683              	.LASF172:
 2684 0000 74726163 		.ascii	"trace_print_module_function\000"
 2684      655F7072 
 2684      696E745F 
 2684      6D6F6475 
 2684      6C655F66 
 2685              	.LASF139:
 2686 001c 54524143 		.ascii	"TRACE_FUNCTION_ALL\000"
 2686      455F4655 
 2686      4E435449 
 2686      4F4E5F41 
 2686      4C4C00
 2687              	.LASF169:
 2688 002f 474E5520 		.ascii	"GNU C11 7.3.1 20180622 (release) [ARM/embedded-7-br"
 2688      43313120 
 2688      372E332E 
 2688      31203230 
 2688      31383036 
 2689 0062 616E6368 		.ascii	"anch revision 261907] -mcpu=arm1176jz-s -mno-thumb-"
 2689      20726576 
 2689      6973696F 
 2689      6E203236 
 2689      31393037 
 2690 0095 696E7465 		.ascii	"interwork -ggdb -O2 -fomit-frame-pointer -ffunction"
 2690      72776F72 
 2690      6B202D67 
 2690      67646220 
 2690      2D4F3220 
 2691 00c8 2D736563 		.ascii	"-sections -fdata-sections\000"
 2691      74696F6E 
 2691      73202D66 
 2691      64617461 
 2691      2D736563 
 2692              	.LASF165:
 2693 00e2 7374726C 		.ascii	"strlen\000"
 2693      656E00
 2694              	.LASF42:
 2695 00e9 5F6F6E5F 		.ascii	"_on_exit_args\000"
 2695      65786974 
 2695      5F617267 
 2695      7300
 2696              	.LASF110:
 2697 00f7 5F776374 		.ascii	"_wctomb_state\000"
 2697      6F6D625F 
 2697      73746174 
 2697      6500
 2698              	.LASF94:
 2699 0105 5F676C75 		.ascii	"_glue\000"
 2699      6500
 2700              	.LASF107:
ARM GAS  /var/folders/3j/4xdnk5197cv_b7cw3n33qk7r0000gn/T//ccfSc7Hc.s 			page 49


 2701 010b 5F723438 		.ascii	"_r48\000"
 2701      00
 2702              	.LASF149:
 2703 0110 5F747261 		.ascii	"_trace_functions\000"
 2703      63655F66 
 2703      756E6374 
 2703      696F6E73 
 2703      00
 2704              	.LASF112:
 2705 0121 5F736967 		.ascii	"_signal_buf\000"
 2705      6E616C5F 
 2705      62756600 
 2706              	.LASF10:
 2707 012d 756E7369 		.ascii	"unsigned int\000"
 2707      676E6564 
 2707      20696E74 
 2707      00
 2708              	.LASF56:
 2709 013a 5F6C6266 		.ascii	"_lbfsize\000"
 2709      73697A65 
 2709      00
 2710              	.LASF54:
 2711 0143 5F666C61 		.ascii	"_flags\000"
 2711      677300
 2712              	.LASF5:
 2713 014a 5F5F696E 		.ascii	"__int32_t\000"
 2713      7433325F 
 2713      7400
 2714              	.LASF129:
 2715 0154 46494C45 		.ascii	"FILE\000"
 2715      00
 2716              	.LASF71:
 2717 0159 5F657272 		.ascii	"_errno\000"
 2717      6E6F00
 2718              	.LASF150:
 2719 0160 6D6F6475 		.ascii	"module\000"
 2719      6C6500
 2720              	.LASF151:
 2721 0167 6C657665 		.ascii	"level\000"
 2721      6C00
 2722              	.LASF68:
 2723 016d 5F6D6273 		.ascii	"_mbstate\000"
 2723      74617465 
 2723      00
 2724              	.LASF58:
 2725 0176 5F726561 		.ascii	"_read\000"
 2725      6400
 2726              	.LASF114:
 2727 017c 5F6D6272 		.ascii	"_mbrlen_state\000"
 2727      6C656E5F 
 2727      73746174 
 2727      6500
 2728              	.LASF154:
 2729 018a 6172675F 		.ascii	"arg_list\000"
 2729      6C697374 
 2729      00
 2730              	.LASF73:
ARM GAS  /var/folders/3j/4xdnk5197cv_b7cw3n33qk7r0000gn/T//ccfSc7Hc.s 			page 50


 2731 0193 5F737464 		.ascii	"_stdout\000"
 2731      6F757400 
 2732              	.LASF16:
 2733 019b 5F66706F 		.ascii	"_fpos_t\000"
 2733      735F7400 
 2734              	.LASF49:
 2735 01a3 5F666E73 		.ascii	"_fns\000"
 2735      00
 2736              	.LASF57:
 2737 01a8 5F636F6F 		.ascii	"_cookie\000"
 2737      6B696500 
 2738              	.LASF27:
 2739 01b0 5F426967 		.ascii	"_Bigint\000"
 2739      696E7400 
 2740              	.LASF39:
 2741 01b8 5F5F746D 		.ascii	"__tm_wday\000"
 2741      5F776461 
 2741      7900
 2742              	.LASF81:
 2743 01c2 5F726573 		.ascii	"_result\000"
 2743      756C7400 
 2744              	.LASF128:
 2745 01ca 75696E74 		.ascii	"uint32_t\000"
 2745      33325F74 
 2745      00
 2746              	.LASF167:
 2747 01d3 73747263 		.ascii	"strcpy\000"
 2747      707900
 2748              	.LASF35:
 2749 01da 5F5F746D 		.ascii	"__tm_hour\000"
 2749      5F686F75 
 2749      7200
 2750              	.LASF132:
 2751 01e4 54524143 		.ascii	"TRACE_LEVEL_WARNING\000"
 2751      455F4C45 
 2751      56454C5F 
 2751      5741524E 
 2751      494E4700 
 2752              	.LASF147:
 2753 01f8 5F747261 		.ascii	"_trace_level\000"
 2753      63655F6C 
 2753      6576656C 
 2753      00
 2754              	.LASF21:
 2755 0205 5F5F636F 		.ascii	"__count\000"
 2755      756E7400 
 2756              	.LASF34:
 2757 020d 5F5F746D 		.ascii	"__tm_min\000"
 2757      5F6D696E 
 2757      00
 2758              	.LASF125:
 2759 0216 5F696D70 		.ascii	"_impure_ptr\000"
 2759      7572655F 
 2759      70747200 
 2760              	.LASF120:
 2761 0222 5F6E6578 		.ascii	"_nextf\000"
 2761      746600
ARM GAS  /var/folders/3j/4xdnk5197cv_b7cw3n33qk7r0000gn/T//ccfSc7Hc.s 			page 51


 2762              	.LASF97:
 2763 0229 5F72616E 		.ascii	"_rand48\000"
 2763      64343800 
 2764              	.LASF82:
 2765 0231 5F726573 		.ascii	"_result_k\000"
 2765      756C745F 
 2765      6B00
 2766              	.LASF9:
 2767 023b 6C6F6E67 		.ascii	"long long unsigned int\000"
 2767      206C6F6E 
 2767      6720756E 
 2767      7369676E 
 2767      65642069 
 2768              	.LASF103:
 2769 0252 5F617363 		.ascii	"_asctime_buf\000"
 2769      74696D65 
 2769      5F627566 
 2769      00
 2770              	.LASF53:
 2771 025f 5F5F7346 		.ascii	"__sFILE\000"
 2771      494C4500 
 2772              	.LASF31:
 2773 0267 5F776473 		.ascii	"_wds\000"
 2773      00
 2774              	.LASF93:
 2775 026c 5F5F4649 		.ascii	"__FILE\000"
 2775      4C4500
 2776              	.LASF65:
 2777 0273 5F6F6666 		.ascii	"_offset\000"
 2777      73657400 
 2778              	.LASF161:
 2779 027b 66707269 		.ascii	"fprintf\000"
 2779      6E746600 
 2780              	.LASF76:
 2781 0283 5F656D65 		.ascii	"_emergency\000"
 2781      7267656E 
 2781      637900
 2782              	.LASF153:
 2783 028e 666F726D 		.ascii	"format\000"
 2783      617400
 2784              	.LASF12:
 2785 0295 5F5F676E 		.ascii	"__gnuc_va_list\000"
 2785      75635F76 
 2785      615F6C69 
 2785      737400
 2786              	.LASF134:
 2787 02a4 54524143 		.ascii	"TRACE_LEVEL_DEBUG\000"
 2787      455F4C45 
 2787      56454C5F 
 2787      44454255 
 2787      4700
 2788              	.LASF148:
 2789 02b6 5F747261 		.ascii	"_trace_modules\000"
 2789      63655F6D 
 2789      6F64756C 
 2789      657300
 2790              	.LASF33:
ARM GAS  /var/folders/3j/4xdnk5197cv_b7cw3n33qk7r0000gn/T//ccfSc7Hc.s 			page 52


 2791 02c5 5F5F746D 		.ascii	"__tm_sec\000"
 2791      5F736563 
 2791      00
 2792              	.LASF40:
 2793 02ce 5F5F746D 		.ascii	"__tm_yday\000"
 2793      5F796461 
 2793      7900
 2794              	.LASF75:
 2795 02d8 5F696E63 		.ascii	"_inc\000"
 2795      00
 2796              	.LASF48:
 2797 02dd 5F696E64 		.ascii	"_ind\000"
 2797      00
 2798              	.LASF28:
 2799 02e2 5F6E6578 		.ascii	"_next\000"
 2799      7400
 2800              	.LASF116:
 2801 02e8 5F6D6273 		.ascii	"_mbsrtowcs_state\000"
 2801      72746F77 
 2801      63735F73 
 2801      74617465 
 2801      00
 2802              	.LASF155:
 2803 02f9 6D657373 		.ascii	"message\000"
 2803      61676500 
 2804              	.LASF142:
 2805 0301 54524143 		.ascii	"TRACE_MODULE_PLATFORM\000"
 2805      455F4D4F 
 2805      44554C45 
 2805      5F504C41 
 2805      54464F52 
 2806              	.LASF137:
 2807 0317 54524143 		.ascii	"TRACE_FUNCTION_NONE\000"
 2807      455F4655 
 2807      4E435449 
 2807      4F4E5F4E 
 2807      4F4E4500 
 2808              	.LASF22:
 2809 032b 5F5F7661 		.ascii	"__value\000"
 2809      6C756500 
 2810              	.LASF83:
 2811 0333 5F703573 		.ascii	"_p5s\000"
 2811      00
 2812              	.LASF118:
 2813 0338 5F776373 		.ascii	"_wcsrtombs_state\000"
 2813      72746F6D 
 2813      62735F73 
 2813      74617465 
 2813      00
 2814              	.LASF108:
 2815 0349 5F6D626C 		.ascii	"_mblen_state\000"
 2815      656E5F73 
 2815      74617465 
 2815      00
 2816              	.LASF92:
 2817 0356 63686172 		.ascii	"char\000"
 2817      00
ARM GAS  /var/folders/3j/4xdnk5197cv_b7cw3n33qk7r0000gn/T//ccfSc7Hc.s 			page 53


 2818              	.LASF36:
 2819 035b 5F5F746D 		.ascii	"__tm_mday\000"
 2819      5F6D6461 
 2819      7900
 2820              	.LASF89:
 2821 0365 5F736967 		.ascii	"_sig_func\000"
 2821      5F66756E 
 2821      6300
 2822              	.LASF115:
 2823 036f 5F6D6272 		.ascii	"_mbrtowc_state\000"
 2823      746F7763 
 2823      5F737461 
 2823      746500
 2824              	.LASF88:
 2825 037e 5F617465 		.ascii	"_atexit0\000"
 2825      78697430 
 2825      00
 2826              	.LASF156:
 2827 0387 66696C65 		.ascii	"filename\000"
 2827      6E616D65 
 2827      00
 2828              	.LASF24:
 2829 0390 5F666C6F 		.ascii	"_flock_t\000"
 2829      636B5F74 
 2829      00
 2830              	.LASF19:
 2831 0399 5F5F7763 		.ascii	"__wch\000"
 2831      6800
 2832              	.LASF96:
 2833 039f 5F696F62 		.ascii	"_iobs\000"
 2833      7300
 2834              	.LASF61:
 2835 03a5 5F636C6F 		.ascii	"_close\000"
 2835      736500
 2836              	.LASF79:
 2837 03ac 5F5F7364 		.ascii	"__sdidinit\000"
 2837      6964696E 
 2837      697400
 2838              	.LASF138:
 2839 03b7 54524143 		.ascii	"TRACE_FUNCTION_I2C\000"
 2839      455F4655 
 2839      4E435449 
 2839      4F4E5F49 
 2839      324300
 2840              	.LASF13:
 2841 03ca 76615F6C 		.ascii	"va_list\000"
 2841      69737400 
 2842              	.LASF72:
 2843 03d2 5F737464 		.ascii	"_stdin\000"
 2843      696E00
 2844              	.LASF105:
 2845 03d9 5F67616D 		.ascii	"_gamma_signgam\000"
 2845      6D615F73 
 2845      69676E67 
 2845      616D00
 2846              	.LASF8:
 2847 03e8 6C6F6E67 		.ascii	"long long int\000"
ARM GAS  /var/folders/3j/4xdnk5197cv_b7cw3n33qk7r0000gn/T//ccfSc7Hc.s 			page 54


 2847      206C6F6E 
 2847      6720696E 
 2847      7400
 2848              	.LASF143:
 2849 03f6 54524143 		.ascii	"TRACE_MODULE_ALL\000"
 2849      455F4D4F 
 2849      44554C45 
 2849      5F414C4C 
 2849      00
 2850              	.LASF162:
 2851 0407 7072696E 		.ascii	"printf\000"
 2851      746600
 2852              	.LASF51:
 2853 040e 5F626173 		.ascii	"_base\000"
 2853      6500
 2854              	.LASF84:
 2855 0414 5F667265 		.ascii	"_freelist\000"
 2855      656C6973 
 2855      7400
 2856              	.LASF99:
 2857 041e 5F6D756C 		.ascii	"_mult\000"
 2857      7400
 2858              	.LASF25:
 2859 0424 5F5F554C 		.ascii	"__ULong\000"
 2859      6F6E6700 
 2860              	.LASF117:
 2861 042c 5F776372 		.ascii	"_wcrtomb_state\000"
 2861      746F6D62 
 2861      5F737461 
 2861      746500
 2862              	.LASF55:
 2863 043b 5F66696C 		.ascii	"_file\000"
 2863      6500
 2864              	.LASF18:
 2865 0441 5F5F6170 		.ascii	"__ap\000"
 2865      00
 2866              	.LASF80:
 2867 0446 5F5F636C 		.ascii	"__cleanup\000"
 2867      65616E75 
 2867      7000
 2868              	.LASF23:
 2869 0450 5F6D6273 		.ascii	"_mbstate_t\000"
 2869      74617465 
 2869      5F7400
 2870              	.LASF41:
 2871 045b 5F5F746D 		.ascii	"__tm_isdst\000"
 2871      5F697364 
 2871      737400
 2872              	.LASF119:
 2873 0466 5F685F65 		.ascii	"_h_errno\000"
 2873      72726E6F 
 2873      00
 2874              	.LASF158:
 2875 046f 66756E63 		.ascii	"functions\000"
 2875      74696F6E 
 2875      7300
 2876              	.LASF135:
ARM GAS  /var/folders/3j/4xdnk5197cv_b7cw3n33qk7r0000gn/T//ccfSc7Hc.s 			page 55


 2877 0479 54524143 		.ascii	"TRACE_LEVEL_ALL\000"
 2877      455F4C45 
 2877      56454C5F 
 2877      414C4C00 
 2878              	.LASF168:
 2879 0489 666F7065 		.ascii	"fopen\000"
 2879      6E00
 2880              	.LASF37:
 2881 048f 5F5F746D 		.ascii	"__tm_mon\000"
 2881      5F6D6F6E 
 2881      00
 2882              	.LASF11:
 2883 0498 6C6F6E67 		.ascii	"long double\000"
 2883      20646F75 
 2883      626C6500 
 2884              	.LASF14:
 2885 04a4 5F4C4F43 		.ascii	"_LOCK_T\000"
 2885      4B5F5400 
 2886              	.LASF136:
 2887 04ac 54524143 		.ascii	"TRACE_LEVEL_IGNORE\000"
 2887      455F4C45 
 2887      56454C5F 
 2887      49474E4F 
 2887      524500
 2888              	.LASF59:
 2889 04bf 5F777269 		.ascii	"_write\000"
 2889      746500
 2890              	.LASF157:
 2891 04c6 6D6F6475 		.ascii	"modules\000"
 2891      6C657300 
 2892              	.LASF47:
 2893 04ce 5F617465 		.ascii	"_atexit\000"
 2893      78697400 
 2894              	.LASF173:
 2895 04d6 564C3533 		.ascii	"VL53L0X_trace_config\000"
 2895      4C30585F 
 2895      74726163 
 2895      655F636F 
 2895      6E666967 
 2896              	.LASF131:
 2897 04eb 54524143 		.ascii	"TRACE_LEVEL_ERRORS\000"
 2897      455F4C45 
 2897      56454C5F 
 2897      4552524F 
 2897      525300
 2898              	.LASF2:
 2899 04fe 73686F72 		.ascii	"short int\000"
 2899      7420696E 
 2899      7400
 2900              	.LASF4:
 2901 0508 6C6F6E67 		.ascii	"long int\000"
 2901      20696E74 
 2901      00
 2902              	.LASF91:
 2903 0511 5F5F7366 		.ascii	"__sf\000"
 2903      00
 2904              	.LASF30:
ARM GAS  /var/folders/3j/4xdnk5197cv_b7cw3n33qk7r0000gn/T//ccfSc7Hc.s 			page 56


 2905 0516 5F736967 		.ascii	"_sign\000"
 2905      6E00
 2906              	.LASF66:
 2907 051c 5F646174 		.ascii	"_data\000"
 2907      6100
 2908              	.LASF20:
 2909 0522 5F5F7763 		.ascii	"__wchb\000"
 2909      686200
 2910              	.LASF126:
 2911 0529 5F676C6F 		.ascii	"_global_impure_ptr\000"
 2911      62616C5F 
 2911      696D7075 
 2911      72655F70 
 2911      747200
 2912              	.LASF163:
 2913 053c 66636C6F 		.ascii	"fclose\000"
 2913      736500
 2914              	.LASF38:
 2915 0543 5F5F746D 		.ascii	"__tm_year\000"
 2915      5F796561 
 2915      7200
 2916              	.LASF130:
 2917 054d 54524143 		.ascii	"TRACE_LEVEL_NONE\000"
 2917      455F4C45 
 2917      56454C5F 
 2917      4E4F4E45 
 2917      00
 2918              	.LASF145:
 2919 055e 5F747261 		.ascii	"_trace_filename\000"
 2919      63655F66 
 2919      696C656E 
 2919      616D6500 
 2920              	.LASF104:
 2921 056e 5F6C6F63 		.ascii	"_localtime_buf\000"
 2921      616C7469 
 2921      6D655F62 
 2921      756600
 2922              	.LASF122:
 2923 057d 5F756E75 		.ascii	"_unused\000"
 2923      73656400 
 2924              	.LASF164:
 2925 0585 66726565 		.ascii	"free\000"
 2925      00
 2926              	.LASF87:
 2927 058a 5F6E6577 		.ascii	"_new\000"
 2927      00
 2928              	.LASF85:
 2929 058f 5F637674 		.ascii	"_cvtlen\000"
 2929      6C656E00 
 2930              	.LASF29:
 2931 0597 5F6D6178 		.ascii	"_maxwds\000"
 2931      77647300 
 2932              	.LASF111:
 2933 059f 5F6C3634 		.ascii	"_l64a_buf\000"
 2933      615F6275 
 2933      6600
 2934              	.LASF141:
ARM GAS  /var/folders/3j/4xdnk5197cv_b7cw3n33qk7r0000gn/T//ccfSc7Hc.s 			page 57


 2935 05a9 54524143 		.ascii	"TRACE_MODULE_API\000"
 2935      455F4D4F 
 2935      44554C45 
 2935      5F415049 
 2935      00
 2936              	.LASF64:
 2937 05ba 5F626C6B 		.ascii	"_blksize\000"
 2937      73697A65 
 2937      00
 2938              	.LASF32:
 2939 05c3 5F5F746D 		.ascii	"__tm\000"
 2939      00
 2940              	.LASF26:
 2941 05c8 5F5F7661 		.ascii	"__va_list\000"
 2941      5F6C6973 
 2941      7400
 2942              	.LASF67:
 2943 05d2 5F6C6F63 		.ascii	"_lock\000"
 2943      6B00
 2944              	.LASF7:
 2945 05d8 6C6F6E67 		.ascii	"long unsigned int\000"
 2945      20756E73 
 2945      69676E65 
 2945      6420696E 
 2945      7400
 2946              	.LASF95:
 2947 05ea 5F6E696F 		.ascii	"_niobs\000"
 2947      627300
 2948              	.LASF17:
 2949 05f1 77696E74 		.ascii	"wint_t\000"
 2949      5F7400
 2950              	.LASF127:
 2951 05f8 696E7433 		.ascii	"int32_t\000"
 2951      325F7400 
 2952              	.LASF44:
 2953 0600 5F64736F 		.ascii	"_dso_handle\000"
 2953      5F68616E 
 2953      646C6500 
 2954              	.LASF123:
 2955 060c 5F5F6C6F 		.ascii	"__lock\000"
 2955      636B00
 2956              	.LASF86:
 2957 0613 5F637674 		.ascii	"_cvtbuf\000"
 2957      62756600 
 2958              	.LASF1:
 2959 061b 756E7369 		.ascii	"unsigned char\000"
 2959      676E6564 
 2959      20636861 
 2959      7200
 2960              	.LASF6:
 2961 0629 5F5F7569 		.ascii	"__uint32_t\000"
 2961      6E743332 
 2961      5F7400
 2962              	.LASF152:
 2963 0634 66756E63 		.ascii	"function\000"
 2963      74696F6E 
 2963      00
ARM GAS  /var/folders/3j/4xdnk5197cv_b7cw3n33qk7r0000gn/T//ccfSc7Hc.s 			page 58


 2964              	.LASF113:
 2965 063d 5F676574 		.ascii	"_getdate_err\000"
 2965      64617465 
 2965      5F657272 
 2965      00
 2966              	.LASF170:
 2967 064a 2E2E2F2F 		.ascii	"..//VL53L0X_Api/platform/src/vl53l0x_platform_log.c"
 2967      564C3533 
 2967      4C30585F 
 2967      4170692F 
 2967      706C6174 
 2968 067d 00       		.ascii	"\000"
 2969              	.LASF100:
 2970 067e 5F616464 		.ascii	"_add\000"
 2970      00
 2971              	.LASF50:
 2972 0683 5F5F7362 		.ascii	"__sbuf\000"
 2972      756600
 2973              	.LASF171:
 2974 068a 2F557365 		.ascii	"/Users/kevinmalmsten/development_raspberry_pi/Backu"
 2974      72732F6B 
 2974      6576696E 
 2974      6D616C6D 
 2974      7374656E 
 2975 06bd 7053656E 		.ascii	"pSensor_ChibiOS/__Backup_System\000"
 2975      736F725F 
 2975      43686962 
 2975      694F532F 
 2975      5F5F4261 
 2976              	.LASF144:
 2977 06dd 64656275 		.ascii	"debug_string\000"
 2977      675F7374 
 2977      72696E67 
 2977      00
 2978              	.LASF166:
 2979 06ea 6D616C6C 		.ascii	"malloc\000"
 2979      6F6300
 2980              	.LASF90:
 2981 06f1 5F5F7367 		.ascii	"__sglue\000"
 2981      6C756500 
 2982              	.LASF140:
 2983 06f9 54524143 		.ascii	"TRACE_MODULE_NONE\000"
 2983      455F4D4F 
 2983      44554C45 
 2983      5F4E4F4E 
 2983      4500
 2984              	.LASF102:
 2985 070b 5F737472 		.ascii	"_strtok_last\000"
 2985      746F6B5F 
 2985      6C617374 
 2985      00
 2986              	.LASF109:
 2987 0718 5F6D6274 		.ascii	"_mbtowc_state\000"
 2987      6F77635F 
 2987      73746174 
 2987      6500
 2988              	.LASF78:
ARM GAS  /var/folders/3j/4xdnk5197cv_b7cw3n33qk7r0000gn/T//ccfSc7Hc.s 			page 59


 2989 0726 5F6C6F63 		.ascii	"_locale\000"
 2989      616C6500 
 2990              	.LASF43:
 2991 072e 5F666E61 		.ascii	"_fnargs\000"
 2991      72677300 
 2992              	.LASF0:
 2993 0736 7369676E 		.ascii	"signed char\000"
 2993      65642063 
 2993      68617200 
 2994              	.LASF70:
 2995 0742 5F726565 		.ascii	"_reent\000"
 2995      6E7400
 2996              	.LASF3:
 2997 0749 73686F72 		.ascii	"short unsigned int\000"
 2997      7420756E 
 2997      7369676E 
 2997      65642069 
 2997      6E7400
 2998              	.LASF146:
 2999 075c 5F747261 		.ascii	"_tracefile\000"
 2999      63656669 
 2999      6C6500
 3000              	.LASF133:
 3001 0767 54524143 		.ascii	"TRACE_LEVEL_INFO\000"
 3001      455F4C45 
 3001      56454C5F 
 3001      494E464F 
 3001      00
 3002              	.LASF45:
 3003 0778 5F666E74 		.ascii	"_fntypes\000"
 3003      79706573 
 3003      00
 3004              	.LASF52:
 3005 0781 5F73697A 		.ascii	"_size\000"
 3005      6500
 3006              	.LASF15:
 3007 0787 5F6F6666 		.ascii	"_off_t\000"
 3007      5F7400
 3008              	.LASF159:
 3009 078e 53544154 		.ascii	"STATUS\000"
 3009      555300
 3010              	.LASF63:
 3011 0795 5F6E6275 		.ascii	"_nbuf\000"
 3011      6600
 3012              	.LASF101:
 3013 079b 5F756E75 		.ascii	"_unused_rand\000"
 3013      7365645F 
 3013      72616E64 
 3013      00
 3014              	.LASF77:
 3015 07a8 5F756E73 		.ascii	"_unspecified_locale_info\000"
 3015      70656369 
 3015      66696564 
 3015      5F6C6F63 
 3015      616C655F 
 3016              	.LASF69:
 3017 07c1 5F666C61 		.ascii	"_flags2\000"
ARM GAS  /var/folders/3j/4xdnk5197cv_b7cw3n33qk7r0000gn/T//ccfSc7Hc.s 			page 60


 3017      67733200 
 3018              	.LASF46:
 3019 07c9 5F69735F 		.ascii	"_is_cxa\000"
 3019      63786100 
 3020              	.LASF98:
 3021 07d1 5F736565 		.ascii	"_seed\000"
 3021      6400
 3022              	.LASF106:
 3023 07d7 5F72616E 		.ascii	"_rand_next\000"
 3023      645F6E65 
 3023      787400
 3024              	.LASF124:
 3025 07e2 5F5F6C6F 		.ascii	"__locale_t\000"
 3025      63616C65 
 3025      5F7400
 3026              	.LASF60:
 3027 07ed 5F736565 		.ascii	"_seek\000"
 3027      6B00
 3028              	.LASF74:
 3029 07f3 5F737464 		.ascii	"_stderr\000"
 3029      65727200 
 3030              	.LASF121:
 3031 07fb 5F6E6D61 		.ascii	"_nmalloc\000"
 3031      6C6C6F63 
 3031      00
 3032              	.LASF62:
 3033 0804 5F756275 		.ascii	"_ubuf\000"
 3033      6600
 3034              	.LASF160:
 3035 080a 76736E70 		.ascii	"vsnprintf\000"
 3035      72696E74 
 3035      6600
 3036              		.ident	"GCC: (GNU Tools for Arm Embedded Processors 7-2018-q2-update) 7.3.1 20180622 (release) [AR
ARM GAS  /var/folders/3j/4xdnk5197cv_b7cw3n33qk7r0000gn/T//ccfSc7Hc.s 			page 61


DEFINED SYMBOLS
                            *ABS*:0000000000000000 vl53l0x_platform_log.c
/var/folders/3j/4xdnk5197cv_b7cw3n33qk7r0000gn/T//ccfSc7Hc.s:16     .text.VL53L0X_trace_config:0000000000000000 $a
/var/folders/3j/4xdnk5197cv_b7cw3n33qk7r0000gn/T//ccfSc7Hc.s:22     .text.VL53L0X_trace_config:0000000000000000 VL53L0X_trace_config
/var/folders/3j/4xdnk5197cv_b7cw3n33qk7r0000gn/T//ccfSc7Hc.s:147    .text.VL53L0X_trace_config:00000000000000d4 $d
/var/folders/3j/4xdnk5197cv_b7cw3n33qk7r0000gn/T//ccfSc7Hc.s:157    .text.trace_print_module_function:0000000000000000 $a
/var/folders/3j/4xdnk5197cv_b7cw3n33qk7r0000gn/T//ccfSc7Hc.s:163    .text.trace_print_module_function:0000000000000000 trace_print_module_function
/var/folders/3j/4xdnk5197cv_b7cw3n33qk7r0000gn/T//ccfSc7Hc.s:263    .text.trace_print_module_function:000000000000009c $d
/var/folders/3j/4xdnk5197cv_b7cw3n33qk7r0000gn/T//ccfSc7Hc.s:288    .bss._trace_functions:0000000000000000 _trace_functions
/var/folders/3j/4xdnk5197cv_b7cw3n33qk7r0000gn/T//ccfSc7Hc.s:295    .bss._trace_modules:0000000000000000 _trace_modules
/var/folders/3j/4xdnk5197cv_b7cw3n33qk7r0000gn/T//ccfSc7Hc.s:309    .data._trace_level:0000000000000000 _trace_level
/var/folders/3j/4xdnk5197cv_b7cw3n33qk7r0000gn/T//ccfSc7Hc.s:302    .bss._tracefile:0000000000000000 _tracefile
/var/folders/3j/4xdnk5197cv_b7cw3n33qk7r0000gn/T//ccfSc7Hc.s:281    .bss._trace_filename:0000000000000000 _trace_filename
                            *COM*:0000000000000100 debug_string
/var/folders/3j/4xdnk5197cv_b7cw3n33qk7r0000gn/T//ccfSc7Hc.s:277    .bss._trace_filename:0000000000000000 $d
/var/folders/3j/4xdnk5197cv_b7cw3n33qk7r0000gn/T//ccfSc7Hc.s:284    .bss._trace_functions:0000000000000000 $d
/var/folders/3j/4xdnk5197cv_b7cw3n33qk7r0000gn/T//ccfSc7Hc.s:291    .bss._trace_modules:0000000000000000 $d
/var/folders/3j/4xdnk5197cv_b7cw3n33qk7r0000gn/T//ccfSc7Hc.s:298    .bss._tracefile:0000000000000000 $d
/var/folders/3j/4xdnk5197cv_b7cw3n33qk7r0000gn/T//ccfSc7Hc.s:305    .data._trace_level:0000000000000000 $d
/var/folders/3j/4xdnk5197cv_b7cw3n33qk7r0000gn/T//ccfSc7Hc.s:312    .rodata.VL53L0X_trace_config.str1.4:0000000000000000 $d

UNDEFINED SYMBOLS
fclose
free
fopen
strlen
malloc
strcpy
vsnprintf
fprintf
printf
