ARM GAS  /var/folders/3j/4xdnk5197cv_b7cw3n33qk7r0000gn/T//ccSq9Yz5.s 			page 1


   1              		.cpu arm1176jz-s
   2              		.eabi_attribute 20, 1
   3              		.eabi_attribute 21, 1
   4              		.eabi_attribute 23, 3
   5              		.eabi_attribute 24, 1
   6              		.eabi_attribute 25, 1
   7              		.eabi_attribute 26, 1
   8              		.eabi_attribute 30, 2
   9              		.eabi_attribute 34, 1
  10              		.eabi_attribute 18, 4
  11              		.file	"vl53l0x_api_calibration.c"
  12              		.text
  13              	.Ltext0:
  14              		.cfi_sections	.debug_frame
  15              		.global	__aeabi_uidiv
  16              		.section	.text.VL53L0X_perform_xtalk_calibration,"ax",%progbits
  17              		.align	2
  18              		.global	VL53L0X_perform_xtalk_calibration
  19              		.syntax unified
  20              		.arm
  21              		.fpu softvfp
  22              		.type	VL53L0X_perform_xtalk_calibration, %function
  23              	VL53L0X_perform_xtalk_calibration:
  24              	.LFB3:
  25              		.file 1 "..//VL53L0X_Api/core/src/vl53l0x_api_calibration.c"
  26              		.loc 1 54 0
  27              		.cfi_startproc
  28              		@ args = 0, pretend = 0, frame = 40
  29              		@ frame_needed = 0, uses_anonymous_args = 0
  30              	.LVL0:
  31 0000 F04F2DE9 		push	{r4, r5, r6, r7, r8, r9, r10, fp, lr}
  32              		.cfi_def_cfa_offset 36
  33              		.cfi_offset 4, -36
  34              		.cfi_offset 5, -32
  35              		.cfi_offset 6, -28
  36              		.cfi_offset 7, -24
  37              		.cfi_offset 8, -20
  38              		.cfi_offset 9, -16
  39              		.cfi_offset 10, -12
  40              		.cfi_offset 11, -8
  41              		.cfi_offset 14, -4
  42              		.loc 1 70 0
  43 0004 009051E2 		subs	r9, r1, #0
  44              		.loc 1 54 0
  45 0008 2CD04DE2 		sub	sp, sp, #44
  46              		.cfi_def_cfa_offset 80
  47              		.loc 1 71 0
  48 000c 0300E003 		mvneq	r0, #3
  49              	.LVL1:
  50              		.loc 1 70 0
  51 0010 0100001A 		bne	.L19
  52              	.LVL2:
  53              	.L13:
  54              		.loc 1 188 0
  55 0014 2CD08DE2 		add	sp, sp, #44
  56              		.cfi_remember_state
  57              		.cfi_def_cfa_offset 36
ARM GAS  /var/folders/3j/4xdnk5197cv_b7cw3n33qk7r0000gn/T//ccSq9Yz5.s 			page 2


  58              		@ sp needed
  59 0018 F08FBDE8 		pop	{r4, r5, r6, r7, r8, r9, r10, fp, pc}
  60              	.LVL3:
  61              	.L19:
  62              		.cfi_restore_state
  63              		.loc 1 75 0
  64 001c 0010A0E3 		mov	r1, #0
  65              	.LVL4:
  66 0020 0040A0E1 		mov	r4, r0
  67 0024 02A0A0E1 		mov	r10, r2
  68 0028 FEFFFFEB 		bl	VL53L0X_SetXTalkCompensationEnable
  69              	.LVL5:
  70              		.loc 1 78 0
  71 002c 000050E3 		cmp	r0, #0
  72              	.LVL6:
  73 0030 F7FFFF1A 		bne	.L13
  74              		.loc 1 79 0
  75 0034 0020A0E1 		mov	r2, r0
  76 0038 0310A0E3 		mov	r1, #3
  77 003c 0400A0E1 		mov	r0, r4
  78 0040 FEFFFFEB 		bl	VL53L0X_SetLimitCheckEnable
  79              	.LVL7:
  80              		.loc 1 84 0
  81 0044 000050E3 		cmp	r0, #0
  82              	.LVL8:
  83 0048 F1FFFF1A 		bne	.L13
  84              		.loc 1 88 0
  85 004c 0050A0E1 		mov	r5, r0
  86 0050 32B0A0E3 		mov	fp, #50
  87              		.loc 1 87 0
  88 0054 0080A0E1 		mov	r8, r0
  89              		.loc 1 86 0
  90 0058 0070A0E1 		mov	r7, r0
  91              		.loc 1 85 0
  92 005c 0060A0E1 		mov	r6, r0
  93 0060 0D0000EA 		b	.L5
  94              	.LVL9:
  95              	.L21:
  96              		.loc 1 97 0
  97 0064 2420DDE5 		ldrb	r2, [sp, #36]	@ zero_extendqisi2
  98 0068 000052E3 		cmp	r2, #0
  99 006c 0800001A 		bne	.L4
 100              		.loc 1 98 0
 101 0070 B411DDE1 		ldrh	r1, [sp, #20]
 102              		.loc 1 102 0
 103 0074 B022DDE1 		ldrh	r2, [sp, #32]
 104              		.loc 1 98 0
 105 0078 016086E0 		add	r6, r6, r1
 106              	.LVL10:
 107              		.loc 1 100 0
 108 007c 18109DE5 		ldr	r1, [sp, #24]
 109              		.loc 1 102 0
 110 0080 227487E0 		add	r7, r7, r2, lsr #8
 111              	.LVL11:
 112              		.loc 1 105 0
 113 0084 015085E2 		add	r5, r5, #1
 114              	.LVL12:
ARM GAS  /var/folders/3j/4xdnk5197cv_b7cw3n33qk7r0000gn/T//ccSq9Yz5.s 			page 3


 115              		.loc 1 98 0
 116 0088 7660FFE6 		uxth	r6, r6
 117              	.LVL13:
 118              		.loc 1 102 0
 119 008c 7770FFE6 		uxth	r7, r7
 120              		.loc 1 100 0
 121 0090 018088E0 		add	r8, r8, r1
 122              	.LVL14:
 123              	.L4:
 124              		.loc 1 89 0 discriminator 2
 125 0094 FFB013E2 		ands	fp, r3, #255
 126              	.LVL15:
 127 0098 0900000A 		beq	.L20
 128              	.LVL16:
 129              	.L5:
 130              		.loc 1 90 0
 131 009c 0C108DE2 		add	r1, sp, #12
 132 00a0 0400A0E1 		mov	r0, r4
 133 00a4 FEFFFFEB 		bl	VL53L0X_PerformSingleRangingMeasurement
 134              	.LVL17:
 135              		.loc 1 93 0
 136 00a8 000050E3 		cmp	r0, #0
 137              	.LVL18:
 138 00ac 01304BE2 		sub	r3, fp, #1
 139 00b0 EBFFFF0A 		beq	.L21
 140              	.LVL19:
 141              		.loc 1 111 0
 142 00b4 000055E3 		cmp	r5, #0
 143 00b8 0500E003 		mvneq	r0, #5
 144              	.LVL20:
 145              		.loc 1 188 0
 146 00bc 2CD08DE2 		add	sp, sp, #44
 147              		.cfi_remember_state
 148              		.cfi_def_cfa_offset 36
 149              		@ sp needed
 150 00c0 F08FBDE8 		pop	{r4, r5, r6, r7, r8, r9, r10, fp, pc}
 151              	.LVL21:
 152              	.L20:
 153              		.cfi_restore_state
 154              		.loc 1 110 0
 155 00c4 000055E3 		cmp	r5, #0
 156              		.loc 1 111 0
 157 00c8 0500E003 		mvneq	r0, #5
 158              		.loc 1 110 0
 159 00cc D0FFFF0A 		beq	.L13
 160              	.LVL22:
 161              		.loc 1 119 0
 162 00d0 0608A0E1 		lsl	r0, r6, #16
 163 00d4 0510A0E1 		mov	r1, r5
 164 00d8 FEFFFFEB 		bl	__aeabi_uidiv
 165              	.LVL23:
 166              		.loc 1 121 0
 167 00dc 0510A0E1 		mov	r1, r5
 168              		.loc 1 119 0
 169 00e0 0060A0E1 		mov	r6, r0
 170              	.LVL24:
 171              		.loc 1 121 0
ARM GAS  /var/folders/3j/4xdnk5197cv_b7cw3n33qk7r0000gn/T//ccSq9Yz5.s 			page 4


 172 00e4 0708A0E1 		lsl	r0, r7, #16
 173              	.LVL25:
 174              		.loc 1 141 0
 175 00e8 027989E2 		add	r7, r9, #32768
 176              	.LVL26:
 177              		.loc 1 121 0
 178 00ec FEFFFFEB 		bl	__aeabi_uidiv
 179              	.LVL27:
 180              		.loc 1 144 0
 181 00f0 2778B0E1 		lsrs	r7, r7, #16
 182 00f4 0110A003 		moveq	r1, #1
 183 00f8 0010A013 		movne	r1, #0
 184              		.loc 1 135 0
 185 00fc 020980E2 		add	r0, r0, #32768
 186              	.LVL28:
 187              		.loc 1 144 0
 188 0100 060059E1 		cmp	r9, r6
 189 0104 0190A081 		movhi	r9, r1
 190 0108 01908193 		orrls	r9, r1, #1
 191              	.LVL29:
 192              		.loc 1 143 0
 193 010c 2038B0E1 		lsrs	r3, r0, #16
 194              	.LVL30:
 195              		.loc 1 144 0
 196 0110 0190A003 		moveq	r9, #1
 197 0114 000059E3 		cmp	r9, #0
 198 0118 0A00000A 		beq	.L22
 199              	.LVL31:
 200              	.L7:
 201              		.loc 1 174 0
 202 011c 00B08AE5 		str	fp, [r10]
 203              		.loc 1 178 0
 204 0120 0110A0E3 		mov	r1, #1
 205 0124 0400A0E1 		mov	r0, r4
 206 0128 FEFFFFEB 		bl	VL53L0X_SetXTalkCompensationEnable
 207              	.LVL32:
 208              		.loc 1 181 0
 209 012c 000050E3 		cmp	r0, #0
 210              	.LVL33:
 211 0130 B7FFFF1A 		bne	.L13
 212              		.loc 1 182 0
 213 0134 0B10A0E1 		mov	r1, fp
 214 0138 0400A0E1 		mov	r0, r4
 215 013c FEFFFFEB 		bl	VL53L0X_SetXTalkCompensationRateMegaCps
 216              	.LVL34:
 217              		.loc 1 188 0
 218 0140 2CD08DE2 		add	sp, sp, #44
 219              		.cfi_remember_state
 220              		.cfi_def_cfa_offset 36
 221              		@ sp needed
 222 0144 F08FBDE8 		pop	{r4, r5, r6, r7, r8, r9, r10, fp, pc}
 223              	.LVL35:
 224              	.L22:
 225              		.cfi_restore_state
 226              		.loc 1 118 0
 227 0148 0510A0E1 		mov	r1, r5
 228 014c 0800A0E1 		mov	r0, r8
ARM GAS  /var/folders/3j/4xdnk5197cv_b7cw3n33qk7r0000gn/T//ccSq9Yz5.s 			page 5


 229 0150 04308DE5 		str	r3, [sp, #4]
 230 0154 FEFFFFEB 		bl	__aeabi_uidiv
 231              	.LVL36:
 232              		.loc 1 158 0
 233 0158 04309DE5 		ldr	r3, [sp, #4]
 234 015c 0310A0E1 		mov	r1, r3
 235 0160 FEFFFFEB 		bl	__aeabi_uidiv
 236              	.LVL37:
 237              		.loc 1 167 0
 238 0164 0710A0E1 		mov	r1, r7
 239              		.loc 1 158 0
 240 0168 0050A0E1 		mov	r5, r0
 241              	.LVL38:
 242              		.loc 1 167 0
 243 016c 0600A0E1 		mov	r0, r6
 244              	.LVL39:
 245 0170 FEFFFFEB 		bl	__aeabi_uidiv
 246              	.LVL40:
 247              		.loc 1 166 0
 248 0174 01B860E2 		rsb	fp, r0, #65536
 249 0178 950B0BE0 		mul	fp, r5, fp
 250              		.loc 1 171 0
 251 017c 02B98BE2 		add	fp, fp, #32768
 252              		.loc 1 170 0
 253 0180 2BB8A0E1 		lsr	fp, fp, #16
 254              	.LVL41:
 255 0184 E4FFFFEA 		b	.L7
 256              		.cfi_endproc
 257              	.LFE3:
 258              		.size	VL53L0X_perform_xtalk_calibration, .-VL53L0X_perform_xtalk_calibration
 259              		.section	.text.VL53L0X_perform_offset_calibration,"ax",%progbits
 260              		.align	2
 261              		.global	VL53L0X_perform_offset_calibration
 262              		.syntax unified
 263              		.arm
 264              		.fpu softvfp
 265              		.type	VL53L0X_perform_offset_calibration, %function
 266              	VL53L0X_perform_offset_calibration:
 267              	.LFB4:
 268              		.loc 1 193 0
 269              		.cfi_startproc
 270              		@ args = 0, pretend = 0, frame = 32
 271              		@ frame_needed = 0, uses_anonymous_args = 0
 272              	.LVL42:
 273 0000 F0432DE9 		push	{r4, r5, r6, r7, r8, r9, lr}
 274              		.cfi_def_cfa_offset 28
 275              		.cfi_offset 4, -28
 276              		.cfi_offset 5, -24
 277              		.cfi_offset 6, -20
 278              		.cfi_offset 7, -16
 279              		.cfi_offset 8, -12
 280              		.cfi_offset 9, -8
 281              		.cfi_offset 14, -4
 282              		.loc 1 204 0
 283 0004 007051E2 		subs	r7, r1, #0
 284              		.loc 1 193 0
 285 0008 24D04DE2 		sub	sp, sp, #36
ARM GAS  /var/folders/3j/4xdnk5197cv_b7cw3n33qk7r0000gn/T//ccSq9Yz5.s 			page 6


 286              		.cfi_def_cfa_offset 64
 287              		.loc 1 205 0
 288 000c 0300E003 		mvneq	r0, #3
 289              	.LVL43:
 290              		.loc 1 204 0
 291 0010 0100001A 		bne	.L40
 292              	.LVL44:
 293              	.L32:
 294              		.loc 1 286 0
 295 0014 24D08DE2 		add	sp, sp, #36
 296              		.cfi_remember_state
 297              		.cfi_def_cfa_offset 28
 298              		@ sp needed
 299 0018 F083BDE8 		pop	{r4, r5, r6, r7, r8, r9, pc}
 300              	.LVL45:
 301              	.L40:
 302              		.cfi_restore_state
 303              		.loc 1 208 0
 304 001c 0010A0E3 		mov	r1, #0
 305              	.LVL46:
 306 0020 0050A0E1 		mov	r5, r0
 307 0024 0280A0E1 		mov	r8, r2
 308 0028 FEFFFFEB 		bl	VL53L0X_SetOffsetCalibrationDataMicroMeter
 309              	.LVL47:
 310              		.loc 1 212 0
 311 002c 000050E3 		cmp	r0, #0
 312              	.LVL48:
 313 0030 F7FFFF1A 		bne	.L32
 314              		.loc 1 213 0
 315 0034 0010A0E1 		mov	r1, r0
 316 0038 03208DE2 		add	r2, sp, #3
 317 003c 0500A0E1 		mov	r0, r5
 318 0040 FEFFFFEB 		bl	VL53L0X_GetSequenceStepEnable
 319              	.LVL49:
 320              		.loc 1 218 0
 321 0044 000050E3 		cmp	r0, #0
 322              	.LVL50:
 323 0048 F1FFFF1A 		bne	.L32
 324              		.loc 1 219 0
 325 004c 0020A0E1 		mov	r2, r0
 326 0050 0010A0E1 		mov	r1, r0
 327 0054 0500A0E1 		mov	r0, r5
 328 0058 FEFFFFEB 		bl	VL53L0X_SetSequenceStepEnable
 329              	.LVL51:
 330              		.loc 1 224 0
 331 005c 000050E3 		cmp	r0, #0
 332              	.LVL52:
 333 0060 EBFFFF1A 		bne	.L32
 334              		.loc 1 225 0
 335 0064 0020A0E1 		mov	r2, r0
 336 0068 0310A0E3 		mov	r1, #3
 337 006c 0500A0E1 		mov	r0, r5
 338 0070 FEFFFFEB 		bl	VL53L0X_SetLimitCheckEnable
 339              	.LVL53:
 340              		.loc 1 229 0
 341 0074 000050E3 		cmp	r0, #0
 342              	.LVL54:
ARM GAS  /var/folders/3j/4xdnk5197cv_b7cw3n33qk7r0000gn/T//ccSq9Yz5.s 			page 7


 343 0078 E5FFFF1A 		bne	.L32
 344              		.loc 1 231 0
 345 007c 0060A0E1 		mov	r6, r0
 346 0080 3240A0E3 		mov	r4, #50
 347              		.loc 1 230 0
 348 0084 0090A0E1 		mov	r9, r0
 349 0088 070000EA 		b	.L27
 350              	.LVL55:
 351              	.L42:
 352              		.loc 1 240 0
 353 008c 1C30DDE5 		ldrb	r3, [sp, #28]	@ zero_extendqisi2
 354 0090 000053E3 		cmp	r3, #0
 355              		.loc 1 241 0
 356 0094 BC30DD01 		ldrheq	r3, [sp, #12]
 357              		.loc 1 243 0
 358 0098 01608602 		addeq	r6, r6, #1
 359              	.LVL56:
 360              		.loc 1 241 0
 361 009c 03308900 		addeq	r3, r9, r3
 362 00a0 7390FF06 		uxtheq	r9, r3
 363              	.LVL57:
 364              		.loc 1 232 0
 365 00a4 014054E2 		subs	r4, r4, #1
 366              	.LVL58:
 367 00a8 0800000A 		beq	.L41
 368              	.LVL59:
 369              	.L27:
 370              		.loc 1 233 0
 371 00ac 04108DE2 		add	r1, sp, #4
 372 00b0 0500A0E1 		mov	r0, r5
 373 00b4 FEFFFFEB 		bl	VL53L0X_PerformSingleRangingMeasurement
 374              	.LVL60:
 375              		.loc 1 236 0
 376 00b8 000050E3 		cmp	r0, #0
 377              	.LVL61:
 378 00bc F2FFFF0A 		beq	.L42
 379              	.LVL62:
 380              		.loc 1 249 0
 381 00c0 000056E3 		cmp	r6, #0
 382 00c4 0500E003 		mvneq	r0, #5
 383              	.LVL63:
 384              		.loc 1 286 0
 385 00c8 24D08DE2 		add	sp, sp, #36
 386              		.cfi_remember_state
 387              		.cfi_def_cfa_offset 28
 388              		@ sp needed
 389 00cc F083BDE8 		pop	{r4, r5, r6, r7, r8, r9, pc}
 390              	.LVL64:
 391              	.L41:
 392              		.cfi_restore_state
 393              		.loc 1 248 0
 394 00d0 000056E3 		cmp	r6, #0
 395 00d4 1900000A 		beq	.L43
 396              	.LVL65:
 397              		.loc 1 255 0
 398 00d8 0610A0E1 		mov	r1, r6
 399 00dc 0908A0E1 		lsl	r0, r9, #16
ARM GAS  /var/folders/3j/4xdnk5197cv_b7cw3n33qk7r0000gn/T//ccSq9Yz5.s 			page 8


 400 00e0 FEFFFFEB 		bl	__aeabi_uidiv
 401              	.LVL66:
 402              		.loc 1 263 0
 403 00e4 027987E2 		add	r7, r7, #32768
 404              	.LVL67:
 405 00e8 2778A0E1 		lsr	r7, r7, #16
 406              	.LVL68:
 407              		.loc 1 258 0
 408 00ec 020980E2 		add	r0, r0, #32768
 409              		.loc 1 265 0
 410 00f0 200847E0 		sub	r0, r7, r0, lsr #16
 411              		.loc 1 266 0
 412 00f4 803260E0 		rsb	r3, r0, r0, lsl #5
 413 00f8 030180E0 		add	r0, r0, r3, lsl #2
 414 00fc 8001A0E1 		lsl	r0, r0, #3
 415              		.loc 1 265 0
 416 0100 000088E5 		str	r0, [r8]
 417              		.loc 1 270 0
 418 0104 240085E5 		str	r0, [r5, #36]
 419              		.loc 1 272 0
 420 0108 001098E5 		ldr	r1, [r8]
 421 010c 0500A0E1 		mov	r0, r5
 422 0110 FEFFFFEB 		bl	VL53L0X_SetOffsetCalibrationDataMicroMeter
 423              	.LVL69:
 424              		.loc 1 279 0
 425 0114 000050E3 		cmp	r0, #0
 426              	.LVL70:
 427 0118 BDFFFF1A 		bne	.L32
 428              		.loc 1 280 0
 429 011c 0330DDE5 		ldrb	r3, [sp, #3]	@ zero_extendqisi2
 430 0120 000053E3 		cmp	r3, #0
 431 0124 BAFFFF0A 		beq	.L32
 432              		.loc 1 281 0
 433 0128 0410A0E1 		mov	r1, r4
 434 012c 0500A0E1 		mov	r0, r5
 435 0130 0120A0E3 		mov	r2, #1
 436 0134 FEFFFFEB 		bl	VL53L0X_SetSequenceStepEnable
 437              	.LVL71:
 438              		.loc 1 286 0
 439 0138 24D08DE2 		add	sp, sp, #36
 440              		.cfi_remember_state
 441              		.cfi_def_cfa_offset 28
 442              		@ sp needed
 443 013c F083BDE8 		pop	{r4, r5, r6, r7, r8, r9, pc}
 444              	.LVL72:
 445              	.L43:
 446              		.cfi_restore_state
 447              		.loc 1 249 0
 448 0140 0500E0E3 		mvn	r0, #5
 449 0144 B2FFFFEA 		b	.L32
 450              		.cfi_endproc
 451              	.LFE4:
 452              		.size	VL53L0X_perform_offset_calibration, .-VL53L0X_perform_offset_calibration
 453              		.section	.text.VL53L0X_set_offset_calibration_data_micro_meter,"ax",%progbits
 454              		.align	2
 455              		.global	VL53L0X_set_offset_calibration_data_micro_meter
 456              		.syntax unified
ARM GAS  /var/folders/3j/4xdnk5197cv_b7cw3n33qk7r0000gn/T//ccSq9Yz5.s 			page 9


 457              		.arm
 458              		.fpu softvfp
 459              		.type	VL53L0X_set_offset_calibration_data_micro_meter, %function
 460              	VL53L0X_set_offset_calibration_data_micro_meter:
 461              	.LFB5:
 462              		.loc 1 291 0
 463              		.cfi_startproc
 464              		@ args = 0, pretend = 0, frame = 0
 465              		@ frame_needed = 0, uses_anonymous_args = 0
 466              		@ link register save eliminated.
 467              	.LVL73:
 468              		.loc 1 300 0
 469 0000 44309FE5 		ldr	r3, .L52
 470 0004 030051E1 		cmp	r1, r3
 471 0008 40209FC5 		ldrgt	r2, .L52+4
 472 000c 020000CA 		bgt	.L48
 473              		.loc 1 302 0
 474 0010 7D0A71E3 		cmn	r1, #512000
 475 0014 022BA0B3 		movlt	r2, #2048
 476 0018 010000AA 		bge	.L51
 477              	.L48:
 478              		.loc 1 318 0
 479 001c 2810A0E3 		mov	r1, #40
 480              	.LVL74:
 481 0020 FEFFFFEA 		b	VL53L0X_WrWord
 482              	.LVL75:
 483              	.L51:
 484 0024 28209FE5 		ldr	r2, .L52+8
 485              		.loc 1 309 0
 486 0028 000051E3 		cmp	r1, #0
 487 002c 9122C3E0 		smull	r2, r3, r1, r2
 488 0030 C11FA0E1 		asr	r1, r1, #31
 489              	.LVL76:
 490 0034 431261E0 		rsb	r1, r1, r3, asr #4
 491 0038 012A81B2 		addlt	r2, r1, #4096
 492 003c 7120FFA6 		uxthge	r2, r1
 493 0040 7220FFB6 		uxthlt	r2, r2
 494              		.loc 1 318 0
 495 0044 2810A0E3 		mov	r1, #40
 496 0048 FEFFFFEA 		b	VL53L0X_WrWord
 497              	.LVL77:
 498              	.L53:
 499              		.align	2
 500              	.L52:
 501 004c 18CC0700 		.word	511000
 502 0050 FC070000 		.word	2044
 503 0054 D34D6210 		.word	274877907
 504              		.cfi_endproc
 505              	.LFE5:
 506              		.size	VL53L0X_set_offset_calibration_data_micro_meter, .-VL53L0X_set_offset_calibration_data_micro
 507              		.section	.text.VL53L0X_get_offset_calibration_data_micro_meter,"ax",%progbits
 508              		.align	2
 509              		.global	VL53L0X_get_offset_calibration_data_micro_meter
 510              		.syntax unified
 511              		.arm
 512              		.fpu softvfp
 513              		.type	VL53L0X_get_offset_calibration_data_micro_meter, %function
ARM GAS  /var/folders/3j/4xdnk5197cv_b7cw3n33qk7r0000gn/T//ccSq9Yz5.s 			page 10


 514              	VL53L0X_get_offset_calibration_data_micro_meter:
 515              	.LFB6:
 516              		.loc 1 328 0
 517              		.cfi_startproc
 518              		@ args = 0, pretend = 0, frame = 8
 519              		@ frame_needed = 0, uses_anonymous_args = 0
 520              	.LVL78:
 521 0000 10402DE9 		push	{r4, lr}
 522              		.cfi_def_cfa_offset 8
 523              		.cfi_offset 4, -8
 524              		.cfi_offset 14, -4
 525 0004 08D04DE2 		sub	sp, sp, #8
 526              		.cfi_def_cfa_offset 16
 527              		.loc 1 328 0
 528 0008 0140A0E1 		mov	r4, r1
 529              		.loc 1 336 0
 530 000c 06208DE2 		add	r2, sp, #6
 531 0010 2810A0E3 		mov	r1, #40
 532              	.LVL79:
 533 0014 FEFFFFEB 		bl	VL53L0X_RdWord
 534              	.LVL80:
 535              		.loc 1 340 0
 536 0018 000050E3 		cmp	r0, #0
 537              	.LVL81:
 538 001c 0800001A 		bne	.L55
 539              		.loc 1 341 0
 540 0020 B630DDE1 		ldrh	r3, [sp, #6]
 541 0024 033AA0E1 		lsl	r3, r3, #20
 542 0028 233AA0E1 		lsr	r3, r3, #20
 543              	.LVL82:
 544              		.loc 1 344 0
 545 002c 020B53E3 		cmp	r3, #2048
 546              		.loc 1 346 0
 547 0030 013A4322 		subcs	r3, r3, #4096
 548              	.LVL83:
 549              		.loc 1 350 0
 550 0034 832263E0 		rsb	r2, r3, r3, lsl #5
 551 0038 023183E0 		add	r3, r3, r2, lsl #2
 552 003c 8330A0E1 		lsl	r3, r3, #1
 553              		.loc 1 349 0
 554 0040 003084E5 		str	r3, [r4]
 555              	.LVL84:
 556              	.L55:
 557              		.loc 1 355 0
 558 0044 08D08DE2 		add	sp, sp, #8
 559              		.cfi_def_cfa_offset 8
 560              		@ sp needed
 561 0048 1080BDE8 		pop	{r4, pc}
 562              		.cfi_endproc
 563              	.LFE6:
 564              		.size	VL53L0X_get_offset_calibration_data_micro_meter, .-VL53L0X_get_offset_calibration_data_micro
 565              		.section	.text.VL53L0X_apply_offset_adjustment,"ax",%progbits
 566              		.align	2
 567              		.global	VL53L0X_apply_offset_adjustment
 568              		.syntax unified
 569              		.arm
 570              		.fpu softvfp
ARM GAS  /var/folders/3j/4xdnk5197cv_b7cw3n33qk7r0000gn/T//ccSq9Yz5.s 			page 11


 571              		.type	VL53L0X_apply_offset_adjustment, %function
 572              	VL53L0X_apply_offset_adjustment:
 573              	.LFB7:
 574              		.loc 1 359 0
 575              		.cfi_startproc
 576              		@ args = 0, pretend = 0, frame = 8
 577              		@ frame_needed = 0, uses_anonymous_args = 0
 578              	.LVL85:
 579 0000 30402DE9 		push	{r4, r5, lr}
 580              		.cfi_def_cfa_offset 12
 581              		.cfi_offset 4, -12
 582              		.cfi_offset 5, -8
 583              		.cfi_offset 14, -4
 584              		.loc 1 366 0
 585 0004 0710A0E3 		mov	r1, #7
 586              		.loc 1 359 0
 587 0008 0CD04DE2 		sub	sp, sp, #12
 588              		.cfi_def_cfa_offset 24
 589              		.loc 1 359 0
 590 000c 0040A0E1 		mov	r4, r0
 591              		.loc 1 366 0
 592 0010 FEFFFFEB 		bl	VL53L0X_get_info_from_device
 593              	.LVL86:
 594              		.loc 1 369 0
 595 0014 000050E3 		cmp	r0, #0
 596              	.LVL87:
 597 0018 0100000A 		beq	.L61
 598              	.L59:
 599              	.LVL88:
 600              		.loc 1 396 0
 601 001c 0CD08DE2 		add	sp, sp, #12
 602              		.cfi_remember_state
 603              		.cfi_def_cfa_offset 12
 604              		@ sp needed
 605 0020 3080BDE8 		pop	{r4, r5, pc}
 606              	.LVL89:
 607              	.L61:
 608              		.cfi_restore_state
 609              		.loc 1 370 0
 610 0024 04108DE2 		add	r1, sp, #4
 611 0028 0400A0E1 		mov	r0, r4
 612 002c FEFFFFEB 		bl	VL53L0X_GetOffsetCalibrationDataMicroMeter
 613              	.LVL90:
 614              		.loc 1 375 0
 615 0030 000050E3 		cmp	r0, #0
 616              	.LVL91:
 617 0034 F8FFFF1A 		bne	.L59
 618              		.loc 1 378 0
 619 0038 04309DE5 		ldr	r3, [sp, #4]
 620              		.loc 1 381 0
 621 003c 0C5094E5 		ldr	r5, [r4, #12]
 622              		.loc 1 378 0
 623 0040 083084E5 		str	r3, [r4, #8]
 624              		.loc 1 381 0
 625 0044 055083E0 		add	r5, r3, r5
 626              	.LVL92:
 627              		.loc 1 385 0
ARM GAS  /var/folders/3j/4xdnk5197cv_b7cw3n33qk7r0000gn/T//ccSq9Yz5.s 			page 12


 628 0048 0510A0E1 		mov	r1, r5
 629 004c 0400A0E1 		mov	r0, r4
 630 0050 FEFFFFEB 		bl	VL53L0X_SetOffsetCalibrationDataMicroMeter
 631              	.LVL93:
 632              		.loc 1 389 0
 633 0054 000050E3 		cmp	r0, #0
 634              	.LVL94:
 635              		.loc 1 390 0
 636 0058 24508405 		streq	r5, [r4, #36]
 637              	.LVL95:
 638              		.loc 1 396 0
 639 005c 0CD08DE2 		add	sp, sp, #12
 640              		.cfi_def_cfa_offset 12
 641              		@ sp needed
 642 0060 3080BDE8 		pop	{r4, r5, pc}
 643              		.cfi_endproc
 644              	.LFE7:
 645              		.size	VL53L0X_apply_offset_adjustment, .-VL53L0X_apply_offset_adjustment
 646              		.section	.text.get_next_good_spad,"ax",%progbits
 647              		.align	2
 648              		.global	get_next_good_spad
 649              		.syntax unified
 650              		.arm
 651              		.fpu softvfp
 652              		.type	get_next_good_spad, %function
 653              	get_next_good_spad:
 654              	.LFB8:
 655              		.loc 1 400 0
 656              		.cfi_startproc
 657              		@ args = 0, pretend = 0, frame = 0
 658              		@ frame_needed = 0, uses_anonymous_args = 0
 659              	.LVL96:
 660              		.loc 1 417 0
 661 0000 00C0E0E3 		mvn	ip, #0
 662              		.loc 1 400 0
 663 0004 30402DE9 		push	{r4, r5, lr}
 664              		.cfi_def_cfa_offset 12
 665              		.cfi_offset 4, -12
 666              		.cfi_offset 5, -8
 667              		.cfi_offset 14, -4
 668              		.loc 1 419 0
 669 0008 A251A0E1 		lsr	r5, r2, #3
 670              	.LVL97:
 671              		.loc 1 422 0
 672 000c 010055E1 		cmp	r5, r1
 673              		.loc 1 417 0
 674 0010 00C083E5 		str	ip, [r3]
 675              	.LVL98:
 676              		.loc 1 422 0
 677 0014 3080BD28 		popcs	{r4, r5, pc}
 678 0018 0540A0E1 		mov	r4, r5
 679 001c 0CC085E0 		add	ip, r5, ip
 680 0020 072002E2 		and	r2, r2, #7
 681              	.LVL99:
 682 0024 0C0080E0 		add	r0, r0, ip
 683              	.LVL100:
 684              	.L67:
ARM GAS  /var/folders/3j/4xdnk5197cv_b7cw3n33qk7r0000gn/T//ccSq9Yz5.s 			page 13


 685              		.loc 1 427 0
 686 0028 040055E1 		cmp	r5, r4
 687              		.loc 1 431 0
 688 002c 02E0A001 		moveq	lr, r2
 689              		.loc 1 424 0
 690 0030 00E0A013 		movne	lr, #0
 691              		.loc 1 425 0
 692 0034 01C0F0E5 		ldrb	ip, [r0, #1]!	@ zero_extendqisi2
 693              	.LVL101:
 694              		.loc 1 430 0
 695 0038 5CC2A001 		asreq	ip, ip, r2
 696              	.LVL102:
 697 003c 7CC0EF06 		uxtbeq	ip, ip
 698              	.LVL103:
 699              	.L66:
 700              		.loc 1 435 0
 701 0040 01001CE3 		tst	ip, #1
 702 0044 0700001A 		bne	.L72
 703              		.loc 1 441 0
 704 0048 01E08EE2 		add	lr, lr, #1
 705              	.LVL104:
 706              		.loc 1 434 0
 707 004c 08005EE3 		cmp	lr, #8
 708              		.loc 1 440 0
 709 0050 ACC0A0E1 		lsr	ip, ip, #1
 710              	.LVL105:
 711              		.loc 1 434 0
 712 0054 F9FFFF1A 		bne	.L66
 713              	.LVL106:
 714              		.loc 1 423 0
 715 0058 014084E2 		add	r4, r4, #1
 716              	.LVL107:
 717              		.loc 1 422 0
 718 005c 040051E1 		cmp	r1, r4
 719 0060 F0FFFF1A 		bne	.L67
 720 0064 3080BDE8 		pop	{r4, r5, pc}
 721              	.L72:
 722              	.LVL108:
 723              		.loc 1 437 0
 724 0068 84E18EE0 		add	lr, lr, r4, lsl #3
 725              	.LVL109:
 726 006c 00E083E5 		str	lr, [r3]
 727              	.LVL110:
 728 0070 3080BDE8 		pop	{r4, r5, pc}
 729              		.cfi_endproc
 730              	.LFE8:
 731              		.size	get_next_good_spad, .-get_next_good_spad
 732              		.section	.text.is_aperture,"ax",%progbits
 733              		.align	2
 734              		.global	is_aperture
 735              		.syntax unified
 736              		.arm
 737              		.fpu softvfp
 738              		.type	is_aperture, %function
 739              	is_aperture:
 740              	.LFB9:
 741              		.loc 1 448 0
ARM GAS  /var/folders/3j/4xdnk5197cv_b7cw3n33qk7r0000gn/T//ccSq9Yz5.s 			page 14


 742              		.cfi_startproc
 743              		@ args = 0, pretend = 0, frame = 0
 744              		@ frame_needed = 0, uses_anonymous_args = 0
 745              		@ link register save eliminated.
 746              	.LVL111:
 747              		.loc 1 456 0
 748 0000 10309FE5 		ldr	r3, .L74
 749              		.loc 1 455 0
 750 0004 2003A0E1 		lsr	r0, r0, #6
 751              	.LVL112:
 752              		.loc 1 456 0
 753 0008 000193E7 		ldr	r0, [r3, r0, lsl #2]
 754              	.LVL113:
 755              		.loc 1 460 0
 756 000c 000090E2 		adds	r0, r0, #0
 757 0010 0100A013 		movne	r0, #1
 758 0014 1EFF2FE1 		bx	lr
 759              	.L75:
 760              		.align	2
 761              	.L74:
 762 0018 00000000 		.word	.LANCHOR0
 763              		.cfi_endproc
 764              	.LFE9:
 765              		.size	is_aperture, .-is_aperture
 766              		.section	.text.enable_spad_bit,"ax",%progbits
 767              		.align	2
 768              		.global	enable_spad_bit
 769              		.syntax unified
 770              		.arm
 771              		.fpu softvfp
 772              		.type	enable_spad_bit, %function
 773              	enable_spad_bit:
 774              	.LFB10:
 775              		.loc 1 465 0
 776              		.cfi_startproc
 777              		@ args = 0, pretend = 0, frame = 0
 778              		@ frame_needed = 0, uses_anonymous_args = 0
 779              	.LVL114:
 780              		.loc 1 473 0
 781 0000 A20151E1 		cmp	r1, r2, lsr #3
 782              	.LVL115:
 783 0004 0800009A 		bls	.L78
 784              		.loc 1 465 0
 785 0008 04E02DE5 		str	lr, [sp, #-4]!
 786              		.cfi_def_cfa_offset 4
 787              		.cfi_offset 14, -4
 788              		.loc 1 476 0
 789 000c 01E0A0E3 		mov	lr, #1
 790 0010 0010A0E1 		mov	r1, r0
 791              	.LVL116:
 792 0014 A231D0E7 		ldrb	r3, [r0, r2, lsr #3]	@ zero_extendqisi2
 793 0018 07C002E2 		and	ip, r2, #7
 794              	.LVL117:
 795 001c 1E3C83E1 		orr	r3, r3, lr, lsl ip
 796              		.loc 1 466 0
 797 0020 0000A0E3 		mov	r0, #0
 798              	.LVL118:
ARM GAS  /var/folders/3j/4xdnk5197cv_b7cw3n33qk7r0000gn/T//ccSq9Yz5.s 			page 15


 799              		.loc 1 476 0
 800 0024 A231C1E7 		strb	r3, [r1, r2, lsr #3]
 801              	.LVL119:
 802              		.loc 1 479 0
 803 0028 04F09DE4 		ldr	pc, [sp], #4
 804              	.LVL120:
 805              	.L78:
 806              		.cfi_def_cfa_offset 0
 807              		.cfi_restore 14
 808              		.loc 1 474 0
 809 002c 3100E0E3 		mvn	r0, #49
 810              	.LVL121:
 811              		.loc 1 479 0
 812 0030 1EFF2FE1 		bx	lr
 813              		.cfi_endproc
 814              	.LFE10:
 815              		.size	enable_spad_bit, .-enable_spad_bit
 816              		.section	.text.count_enabled_spads,"ax",%progbits
 817              		.align	2
 818              		.global	count_enabled_spads
 819              		.syntax unified
 820              		.arm
 821              		.fpu softvfp
 822              		.type	count_enabled_spads, %function
 823              	count_enabled_spads:
 824              	.LFB11:
 825              		.loc 1 484 0
 826              		.cfi_startproc
 827              		@ args = 4, pretend = 0, frame = 0
 828              		@ frame_needed = 0, uses_anonymous_args = 0
 829              	.LVL122:
 830              		.loc 1 505 0
 831 0000 00C0A0E3 		mov	ip, #0
 832              		.loc 1 484 0
 833 0004 F04F2DE9 		push	{r4, r5, r6, r7, r8, r9, r10, fp, lr}
 834              		.cfi_def_cfa_offset 36
 835              		.cfi_offset 4, -36
 836              		.cfi_offset 5, -32
 837              		.cfi_offset 6, -28
 838              		.cfi_offset 7, -24
 839              		.cfi_offset 8, -20
 840              		.cfi_offset 9, -16
 841              		.cfi_offset 10, -12
 842              		.cfi_offset 11, -8
 843              		.cfi_offset 14, -4
 844              		.loc 1 498 0
 845 0008 A281A0E1 		lsr	r8, r2, #3
 846              	.LVL123:
 847              		.loc 1 485 0
 848 000c 010058E1 		cmp	r8, r1
 849              		.loc 1 492 0
 850 0010 0C40A0E1 		mov	r4, ip
 851              		.loc 1 485 0
 852 0014 31B0E023 		mvncs	fp, #49
 853 0018 0CB0A031 		movcc	fp, ip
 854              		.loc 1 508 0
 855 001c 0C50A0E1 		mov	r5, ip
ARM GAS  /var/folders/3j/4xdnk5197cv_b7cw3n33qk7r0000gn/T//ccSq9Yz5.s 			page 16


 856              		.loc 1 519 0
 857 0020 0190A0E3 		mov	r9, #1
 858              		.loc 1 484 0
 859 0024 24609DE5 		ldr	r6, [sp, #36]
 860              		.loc 1 508 0
 861 0028 018048E2 		sub	r8, r8, #1
 862              	.LVL124:
 863              		.loc 1 505 0
 864 002c 00C083E5 		str	ip, [r3]
 865              		.loc 1 499 0
 866 0030 07A002E2 		and	r10, r2, #7
 867              	.LVL125:
 868 0034 017040E2 		sub	r7, r0, #1
 869              	.LVL126:
 870              	.L90:
 871              		.loc 1 511 0
 872 0038 0010A0E3 		mov	r1, #0
 873              		.loc 1 509 0
 874 003c 01C0F7E5 		ldrb	ip, [r7, #1]!	@ zero_extendqisi2
 875              	.LVL127:
 876              	.L89:
 877              		.loc 1 512 0
 878 0040 01001CE3 		tst	ip, #1
 879 0044 0900000A 		beq	.L85
 880              		.loc 1 513 0
 881 0048 00E093E5 		ldr	lr, [r3]
 882              		.loc 1 515 0
 883 004c 000054E3 		cmp	r4, #0
 884              		.loc 1 513 0
 885 0050 01E08EE2 		add	lr, lr, #1
 886 0054 00E083E5 		str	lr, [r3]
 887              		.loc 1 515 0
 888 0058 0300001A 		bne	.L104
 889              		.loc 1 517 0
 890 005c 010055E3 		cmp	r5, #1
 891 0060 03005193 		cmpls	r1, #3
 892              		.loc 1 516 0
 893 0064 0090C685 		strbhi	r9, [r6]
 894              		.loc 1 518 0
 895 0068 0040C695 		strbls	r4, [r6]
 896              	.L104:
 897              		.loc 1 519 0
 898 006c 0140A0E3 		mov	r4, #1
 899              	.LVL128:
 900              	.L85:
 901              		.loc 1 511 0 discriminator 2
 902 0070 011081E2 		add	r1, r1, #1
 903              	.LVL129:
 904 0074 090051E3 		cmp	r1, #9
 905              		.loc 1 522 0 discriminator 2
 906 0078 ACC0A0E1 		lsr	ip, ip, #1
 907              	.LVL130:
 908              		.loc 1 511 0 discriminator 2
 909 007c EFFFFF1A 		bne	.L89
 910              		.loc 1 508 0 discriminator 2
 911 0080 015085E2 		add	r5, r5, #1
 912              	.LVL131:
ARM GAS  /var/folders/3j/4xdnk5197cv_b7cw3n33qk7r0000gn/T//ccSq9Yz5.s 			page 17


 913 0084 050058E1 		cmp	r8, r5
 914 0088 EAFFFF2A 		bcs	.L90
 915              	.LVL132:
 916              		.loc 1 531 0
 917 008c 0010A0E3 		mov	r1, #0
 918 0090 A201D0E7 		ldrb	r0, [r0, r2, lsr #3]	@ zero_extendqisi2
 919              	.LVL133:
 920 0094 010000E2 		and	r0, r0, #1
 921              	.LVL134:
 922              	.L92:
 923              		.loc 1 532 0
 924 0098 000050E3 		cmp	r0, #0
 925              		.loc 1 533 0
 926 009c 00209315 		ldrne	r2, [r3]
 927              		.loc 1 531 0
 928 00a0 011081E2 		add	r1, r1, #1
 929              	.LVL135:
 930              		.loc 1 533 0
 931 00a4 01208212 		addne	r2, r2, #1
 932 00a8 00208315 		strne	r2, [r3]
 933              		.loc 1 531 0
 934 00ac 01005AE1 		cmp	r10, r1
 935 00b0 F8FFFF2A 		bcs	.L92
 936              		.loc 1 537 0
 937 00b4 0B00A0E1 		mov	r0, fp
 938 00b8 F08FBDE8 		pop	{r4, r5, r6, r7, r8, r9, r10, fp, pc}
 939              		.cfi_endproc
 940              	.LFE11:
 941              		.size	count_enabled_spads, .-count_enabled_spads
 942              		.section	.text.set_ref_spad_map,"ax",%progbits
 943              		.align	2
 944              		.global	set_ref_spad_map
 945              		.syntax unified
 946              		.arm
 947              		.fpu softvfp
 948              		.type	set_ref_spad_map, %function
 949              	set_ref_spad_map:
 950              	.LFB12:
 951              		.loc 1 540 0
 952              		.cfi_startproc
 953              		@ args = 0, pretend = 0, frame = 0
 954              		@ frame_needed = 0, uses_anonymous_args = 0
 955              		@ link register save eliminated.
 956              	.LVL136:
 957              		.loc 1 541 0
 958 0000 0120A0E1 		mov	r2, r1
 959 0004 0630A0E3 		mov	r3, #6
 960 0008 B010A0E3 		mov	r1, #176
 961              	.LVL137:
 962 000c FEFFFFEA 		b	VL53L0X_WriteMulti
 963              	.LVL138:
 964              		.cfi_endproc
 965              	.LFE12:
 966              		.size	set_ref_spad_map, .-set_ref_spad_map
 967              		.section	.text.get_ref_spad_map,"ax",%progbits
 968              		.align	2
 969              		.global	get_ref_spad_map
ARM GAS  /var/folders/3j/4xdnk5197cv_b7cw3n33qk7r0000gn/T//ccSq9Yz5.s 			page 18


 970              		.syntax unified
 971              		.arm
 972              		.fpu softvfp
 973              		.type	get_ref_spad_map, %function
 974              	get_ref_spad_map:
 975              	.LFB13:
 976              		.loc 1 548 0
 977              		.cfi_startproc
 978              		@ args = 0, pretend = 0, frame = 0
 979              		@ frame_needed = 0, uses_anonymous_args = 0
 980              		@ link register save eliminated.
 981              	.LVL139:
 982              		.loc 1 549 0
 983 0000 0120A0E1 		mov	r2, r1
 984 0004 0630A0E3 		mov	r3, #6
 985 0008 B010A0E3 		mov	r1, #176
 986              	.LVL140:
 987 000c FEFFFFEA 		b	VL53L0X_ReadMulti
 988              	.LVL141:
 989              		.cfi_endproc
 990              	.LFE13:
 991              		.size	get_ref_spad_map, .-get_ref_spad_map
 992              		.section	.text.enable_ref_spads,"ax",%progbits
 993              		.align	2
 994              		.global	enable_ref_spads
 995              		.syntax unified
 996              		.arm
 997              		.fpu softvfp
 998              		.type	enable_ref_spads, %function
 999              	enable_ref_spads:
 1000              	.LFB14:
 1001              		.loc 1 565 0
 1002              		.cfi_startproc
 1003              		@ args = 20, pretend = 0, frame = 24
 1004              		@ frame_needed = 0, uses_anonymous_args = 0
 1005              	.LVL142:
 1006 0000 F04F2DE9 		push	{r4, r5, r6, r7, r8, r9, r10, fp, lr}
 1007              		.cfi_def_cfa_offset 36
 1008              		.cfi_offset 4, -36
 1009              		.cfi_offset 5, -32
 1010              		.cfi_offset 6, -28
 1011              		.cfi_offset 7, -24
 1012              		.cfi_offset 8, -20
 1013              		.cfi_offset 9, -16
 1014              		.cfi_offset 10, -12
 1015              		.cfi_offset 11, -8
 1016              		.cfi_offset 14, -4
 1017 0004 1CD04DE2 		sub	sp, sp, #28
 1018              		.cfi_def_cfa_offset 64
 1019              		.loc 1 565 0
 1020 0008 4C809DE5 		ldr	r8, [sp, #76]
 1021 000c 48609DE5 		ldr	r6, [sp, #72]
 1022              		.loc 1 584 0
 1023 0010 000058E3 		cmp	r8, #0
 1024              		.loc 1 565 0
 1025 0014 04008DE5 		str	r0, [sp, #4]
 1026              	.LVL143:
ARM GAS  /var/folders/3j/4xdnk5197cv_b7cw3n33qk7r0000gn/T//ccSq9Yz5.s 			page 19


 1027 0018 0370A0E1 		mov	r7, r3
 1028              		.loc 1 569 0
 1029 001c 0C608DE5 		str	r6, [sp, #12]
 1030              	.LVL144:
 1031              		.loc 1 565 0
 1032 0020 40509DE5 		ldr	r5, [sp, #64]
 1033              		.loc 1 584 0
 1034 0024 2300000A 		beq	.L108
 1035 0028 01A0A0E1 		mov	r10, r1
 1036 002c 0290A0E1 		mov	r9, r2
 1037 0030 0040A0E3 		mov	r4, #0
 1038              	.LBB24:
 1039              	.LBB25:
 1040              		.loc 1 456 0
 1041 0034 FCB09FE5 		ldr	fp, .L131
 1042 0038 0D0000EA 		b	.L111
 1043              	.LVL145:
 1044              	.L130:
 1045 003c 02219BE7 		ldr	r2, [fp, r2, lsl #2]
 1046              	.LBE25:
 1047              	.LBE24:
 1048              	.LBB27:
 1049              	.LBB28:
 1050              		.loc 1 472 0
 1051 0040 071003E2 		and	r1, r3, #7
 1052              	.LVL146:
 1053              	.LBE28:
 1054              	.LBE27:
 1055              		.loc 1 594 0
 1056 0044 002092E2 		adds	r2, r2, #0
 1057 0048 0120A013 		movne	r2, #1
 1058 004c 0A0052E1 		cmp	r2, r10
 1059 0050 1300001A 		bne	.L109
 1060              	.LBB31:
 1061              	.LBB29:
 1062              		.loc 1 473 0 discriminator 2
 1063 0054 A30155E1 		cmp	r5, r3, lsr #3
 1064              		.loc 1 476 0 discriminator 2
 1065 0058 0100A083 		movhi	r0, #1
 1066 005c A321D787 		ldrbhi	r2, [r7, r3, lsr #3]	@ zero_extendqisi2
 1067              	.LBE29:
 1068              	.LBE31:
 1069              		.loc 1 603 0 discriminator 2
 1070 0060 016083E2 		add	r6, r3, #1
 1071              	.LVL147:
 1072              	.LBB32:
 1073              	.LBB30:
 1074              		.loc 1 476 0 discriminator 2
 1075 0064 10218281 		orrhi	r2, r2, r0, lsl r1
 1076 0068 A321C787 		strbhi	r2, [r7, r3, lsr #3]
 1077              	.LBE30:
 1078              	.LBE32:
 1079              		.loc 1 584 0 discriminator 2
 1080 006c 040058E1 		cmp	r8, r4
 1081 0070 1000000A 		beq	.L108
 1082              	.LVL148:
 1083              	.L111:
ARM GAS  /var/folders/3j/4xdnk5197cv_b7cw3n33qk7r0000gn/T//ccSq9Yz5.s 			page 20


 1084              		.loc 1 585 0
 1085 0074 0C308DE2 		add	r3, sp, #12
 1086 0078 0620A0E1 		mov	r2, r6
 1087 007c 0510A0E1 		mov	r1, r5
 1088 0080 0900A0E1 		mov	r0, r9
 1089 0084 FEFFFFEB 		bl	get_next_good_spad
 1090              	.LVL149:
 1091              		.loc 1 588 0
 1092 0088 0C309DE5 		ldr	r3, [sp, #12]
 1093              	.LVL150:
 1094              		.loc 1 594 0
 1095 008c 44209DE5 		ldr	r2, [sp, #68]
 1096              		.loc 1 588 0
 1097 0090 010073E3 		cmn	r3, #1
 1098              		.loc 1 594 0
 1099 0094 022083E0 		add	r2, r3, r2
 1100              		.loc 1 584 0
 1101 0098 014084E2 		add	r4, r4, #1
 1102              	.LVL151:
 1103              	.LBB33:
 1104              	.LBB26:
 1105              		.loc 1 455 0
 1106 009c 2223A0E1 		lsr	r2, r2, #6
 1107              	.LBE26:
 1108              	.LBE33:
 1109              		.loc 1 588 0
 1110 00a0 E5FFFF1A 		bne	.L130
 1111              	.LVL152:
 1112              	.L109:
 1113              		.loc 1 605 0
 1114 00a4 3100E0E3 		mvn	r0, #49
 1115 00a8 50309DE5 		ldr	r3, [sp, #80]
 1116              	.LVL153:
 1117 00ac 006083E5 		str	r6, [r3]
 1118              	.LVL154:
 1119              	.L118:
 1120              		.loc 1 626 0
 1121 00b0 1CD08DE2 		add	sp, sp, #28
 1122              		.cfi_remember_state
 1123              		.cfi_def_cfa_offset 36
 1124              		@ sp needed
 1125 00b4 F08FBDE8 		pop	{r4, r5, r6, r7, r8, r9, r10, fp, pc}
 1126              	.LVL155:
 1127              	.L108:
 1128              		.cfi_restore_state
 1129              		.loc 1 605 0
 1130 00b8 50309DE5 		ldr	r3, [sp, #80]
 1131              	.LBB34:
 1132              	.LBB35:
 1133              		.loc 1 541 0
 1134 00bc 0720A0E1 		mov	r2, r7
 1135              	.LBE35:
 1136              	.LBE34:
 1137              		.loc 1 605 0
 1138 00c0 006083E5 		str	r6, [r3]
 1139              	.LVL156:
 1140              	.LBB37:
ARM GAS  /var/folders/3j/4xdnk5197cv_b7cw3n33qk7r0000gn/T//ccSq9Yz5.s 			page 21


 1141              	.LBB36:
 1142              		.loc 1 541 0
 1143 00c4 B010A0E3 		mov	r1, #176
 1144 00c8 0630A0E3 		mov	r3, #6
 1145 00cc 04009DE5 		ldr	r0, [sp, #4]
 1146 00d0 FEFFFFEB 		bl	VL53L0X_WriteMulti
 1147              	.LVL157:
 1148              	.LBE36:
 1149              	.LBE37:
 1150              		.loc 1 611 0
 1151 00d4 000050E3 		cmp	r0, #0
 1152              	.LVL158:
 1153 00d8 F4FFFF1A 		bne	.L118
 1154              	.LVL159:
 1155              	.LBB38:
 1156              	.LBB39:
 1157              		.loc 1 549 0
 1158 00dc 04009DE5 		ldr	r0, [sp, #4]
 1159 00e0 0630A0E3 		mov	r3, #6
 1160 00e4 10208DE2 		add	r2, sp, #16
 1161              	.LVL160:
 1162 00e8 B010A0E3 		mov	r1, #176
 1163 00ec FEFFFFEB 		bl	VL53L0X_ReadMulti
 1164              	.LVL161:
 1165              	.LBE39:
 1166              	.LBE38:
 1167              		.loc 1 617 0
 1168 00f0 000055E3 		cmp	r5, #0
 1169 00f4 EDFFFF0A 		beq	.L118
 1170              		.loc 1 618 0
 1171 00f8 1020DDE5 		ldrb	r2, [sp, #16]	@ zero_extendqisi2
 1172 00fc 0030D7E5 		ldrb	r3, [r7]	@ zero_extendqisi2
 1173 0100 030052E1 		cmp	r2, r3
 1174 0104 0800001A 		bne	.L117
 1175 0108 055087E0 		add	r5, r7, r5
 1176 010c 11308DE2 		add	r3, sp, #17
 1177 0110 017087E2 		add	r7, r7, #1
 1178              	.LVL162:
 1179              	.L113:
 1180              		.loc 1 617 0
 1181 0114 050057E1 		cmp	r7, r5
 1182 0118 E4FFFF0A 		beq	.L118
 1183              		.loc 1 618 0
 1184 011c 0110D7E4 		ldrb	r1, [r7], #1	@ zero_extendqisi2
 1185              	.LVL163:
 1186 0120 0120D3E4 		ldrb	r2, [r3], #1	@ zero_extendqisi2
 1187 0124 020051E1 		cmp	r1, r2
 1188 0128 F9FFFF0A 		beq	.L113
 1189              	.LVL164:
 1190              	.L117:
 1191              		.loc 1 619 0
 1192 012c 3100E0E3 		mvn	r0, #49
 1193              		.loc 1 626 0
 1194 0130 1CD08DE2 		add	sp, sp, #28
 1195              		.cfi_def_cfa_offset 36
 1196              		@ sp needed
 1197 0134 F08FBDE8 		pop	{r4, r5, r6, r7, r8, r9, r10, fp, pc}
ARM GAS  /var/folders/3j/4xdnk5197cv_b7cw3n33qk7r0000gn/T//ccSq9Yz5.s 			page 22


 1198              	.LVL165:
 1199              	.L132:
 1200              		.align	2
 1201              	.L131:
 1202 0138 00000000 		.word	.LANCHOR0
 1203              		.cfi_endproc
 1204              	.LFE14:
 1205              		.size	enable_ref_spads, .-enable_ref_spads
 1206              		.section	.text.perform_ref_signal_measurement,"ax",%progbits
 1207              		.align	2
 1208              		.global	perform_ref_signal_measurement
 1209              		.syntax unified
 1210              		.arm
 1211              		.fpu softvfp
 1212              		.type	perform_ref_signal_measurement, %function
 1213              	perform_ref_signal_measurement:
 1214              	.LFB15:
 1215              		.loc 1 631 0
 1216              		.cfi_startproc
 1217              		@ args = 0, pretend = 0, frame = 32
 1218              		@ frame_needed = 0, uses_anonymous_args = 0
 1219              	.LVL166:
 1220 0000 70402DE9 		push	{r4, r5, r6, lr}
 1221              		.cfi_def_cfa_offset 16
 1222              		.cfi_offset 4, -16
 1223              		.cfi_offset 5, -12
 1224              		.cfi_offset 6, -8
 1225              		.cfi_offset 14, -4
 1226              		.loc 1 647 0
 1227 0004 C020A0E3 		mov	r2, #192
 1228              		.loc 1 631 0
 1229 0008 20D04DE2 		sub	sp, sp, #32
 1230              		.cfi_def_cfa_offset 48
 1231              		.loc 1 631 0
 1232 000c 0160A0E1 		mov	r6, r1
 1233              		.loc 1 647 0
 1234 0010 0110A0E3 		mov	r1, #1
 1235              	.LVL167:
 1236              		.loc 1 631 0
 1237 0014 0040A0E1 		mov	r4, r0
 1238              		.loc 1 641 0
 1239 0018 3051D0E5 		ldrb	r5, [r0, #304]	@ zero_extendqisi2
 1240              	.LVL168:
 1241              		.loc 1 647 0
 1242 001c FEFFFFEB 		bl	VL53L0X_WrByte
 1243              	.LVL169:
 1244              		.loc 1 650 0
 1245 0020 000050E3 		cmp	r0, #0
 1246              	.LVL170:
 1247 0024 0100000A 		beq	.L136
 1248              	.L134:
 1249              	.LVL171:
 1250              		.loc 1 674 0
 1251 0028 20D08DE2 		add	sp, sp, #32
 1252              		.cfi_remember_state
 1253              		.cfi_def_cfa_offset 16
 1254              		@ sp needed
ARM GAS  /var/folders/3j/4xdnk5197cv_b7cw3n33qk7r0000gn/T//ccSq9Yz5.s 			page 23


 1255 002c 7080BDE8 		pop	{r4, r5, r6, pc}
 1256              	.LVL172:
 1257              	.L136:
 1258              		.cfi_restore_state
 1259              		.loc 1 651 0
 1260 0030 04108DE2 		add	r1, sp, #4
 1261 0034 0400A0E1 		mov	r0, r4
 1262 0038 FEFFFFEB 		bl	VL53L0X_PerformSingleRangingMeasurement
 1263              	.LVL173:
 1264              		.loc 1 654 0
 1265 003c 000050E3 		cmp	r0, #0
 1266              	.LVL174:
 1267 0040 F8FFFF1A 		bne	.L134
 1268              		.loc 1 655 0
 1269 0044 0120A0E3 		mov	r2, #1
 1270 0048 FF10A0E3 		mov	r1, #255
 1271 004c 0400A0E1 		mov	r0, r4
 1272 0050 FEFFFFEB 		bl	VL53L0X_WrByte
 1273              	.LVL175:
 1274              		.loc 1 657 0
 1275 0054 000050E3 		cmp	r0, #0
 1276              	.LVL176:
 1277 0058 F2FFFF1A 		bne	.L134
 1278              		.loc 1 658 0
 1279 005c 0620A0E1 		mov	r2, r6
 1280 0060 B610A0E3 		mov	r1, #182
 1281 0064 0400A0E1 		mov	r0, r4
 1282 0068 FEFFFFEB 		bl	VL53L0X_RdWord
 1283              	.LVL177:
 1284              		.loc 1 662 0
 1285 006c 000050E3 		cmp	r0, #0
 1286              	.LVL178:
 1287 0070 ECFFFF1A 		bne	.L134
 1288              		.loc 1 663 0
 1289 0074 0020A0E1 		mov	r2, r0
 1290 0078 FF10A0E3 		mov	r1, #255
 1291 007c 0400A0E1 		mov	r0, r4
 1292 0080 FEFFFFEB 		bl	VL53L0X_WrByte
 1293              	.LVL179:
 1294              		.loc 1 665 0
 1295 0084 000050E3 		cmp	r0, #0
 1296              	.LVL180:
 1297 0088 E6FFFF1A 		bne	.L134
 1298              		.loc 1 667 0
 1299 008c 0520A0E1 		mov	r2, r5
 1300 0090 0110A0E3 		mov	r1, #1
 1301 0094 0400A0E1 		mov	r0, r4
 1302 0098 FEFFFFEB 		bl	VL53L0X_WrByte
 1303              	.LVL181:
 1304              		.loc 1 669 0
 1305 009c 000050E3 		cmp	r0, #0
 1306              	.LVL182:
 1307              		.loc 1 670 0
 1308 00a0 3051C405 		strbeq	r5, [r4, #304]
 1309              	.LVL183:
 1310              		.loc 1 674 0
 1311 00a4 20D08DE2 		add	sp, sp, #32
ARM GAS  /var/folders/3j/4xdnk5197cv_b7cw3n33qk7r0000gn/T//ccSq9Yz5.s 			page 24


 1312              		.cfi_def_cfa_offset 16
 1313              		@ sp needed
 1314 00a8 7080BDE8 		pop	{r4, r5, r6, pc}
 1315              		.cfi_endproc
 1316              	.LFE15:
 1317              		.size	perform_ref_signal_measurement, .-perform_ref_signal_measurement
 1318              		.section	.text.VL53L0X_set_reference_spads,"ax",%progbits
 1319              		.align	2
 1320              		.global	VL53L0X_set_reference_spads
 1321              		.syntax unified
 1322              		.arm
 1323              		.fpu softvfp
 1324              		.type	VL53L0X_set_reference_spads, %function
 1325              	VL53L0X_set_reference_spads:
 1326              	.LFB17:
 1327              		.loc 1 945 0
 1328              		.cfi_startproc
 1329              		@ args = 0, pretend = 0, frame = 8
 1330              		@ frame_needed = 0, uses_anonymous_args = 0
 1331              	.LVL184:
 1332 0000 70402DE9 		push	{r4, r5, r6, lr}
 1333              		.cfi_def_cfa_offset 16
 1334              		.cfi_offset 4, -16
 1335              		.cfi_offset 5, -12
 1336              		.cfi_offset 6, -8
 1337              		.cfi_offset 14, -4
 1338 0004 0160A0E1 		mov	r6, r1
 1339 0008 20D04DE2 		sub	sp, sp, #32
 1340              		.cfi_def_cfa_offset 48
 1341              		.loc 1 945 0
 1342 000c 0250A0E1 		mov	r5, r2
 1343              		.loc 1 961 0
 1344 0010 FF10A0E3 		mov	r1, #255
 1345              	.LVL185:
 1346 0014 0120A0E3 		mov	r2, #1
 1347              	.LVL186:
 1348              		.loc 1 945 0
 1349 0018 0040A0E1 		mov	r4, r0
 1350              		.loc 1 961 0
 1351 001c FEFFFFEB 		bl	VL53L0X_WrByte
 1352              	.LVL187:
 1353              		.loc 1 963 0
 1354 0020 002050E2 		subs	r2, r0, #0
 1355 0024 2700000A 		beq	.L152
 1356              	.LVL188:
 1357              	.L139:
 1358              		.loc 1 980 0 discriminator 1
 1359 0028 0030A0E3 		mov	r3, #0
 1360 002c 4A2F84E2 		add	r2, r4, #296
 1361              		.loc 1 982 0 discriminator 1
 1362 0030 030055E1 		cmp	r5, r3
 1363              		.loc 1 980 0 discriminator 1
 1364 0034 243184E5 		str	r3, [r4, #292]
 1365 0038 B030C2E1 		strh	r3, [r2]	@ movhi
 1366              	.LVL189:
 1367              		.loc 1 947 0 discriminator 1
 1368 003c 0530A001 		moveq	r3, r5
ARM GAS  /var/folders/3j/4xdnk5197cv_b7cw3n33qk7r0000gn/T//ccSq9Yz5.s 			page 25


 1369              		.loc 1 982 0 discriminator 1
 1370 0040 0400000A 		beq	.L141
 1371              	.LVL190:
 1372              	.LBB40:
 1373              	.LBB41:
 1374              		.loc 1 456 0
 1375 0044 D0C09FE5 		ldr	ip, .L153
 1376 0048 08009CE5 		ldr	r0, [ip, #8]
 1377 004c 030050E1 		cmp	r0, r3
 1378              	.LBE41:
 1379              	.LBE40:
 1380              		.loc 1 986 0
 1381 0050 0130A003 		moveq	r3, #1
 1382              	.LBB45:
 1383              	.LBB42:
 1384              		.loc 1 456 0
 1385 0054 1500000A 		beq	.L142
 1386              	.LVL191:
 1387              	.L141:
 1388              	.LBE42:
 1389              	.LBE45:
 1390              		.loc 1 989 0
 1391 0058 B4C0A0E3 		mov	ip, #180
 1392 005c 0600A0E3 		mov	r0, #6
 1393 0060 1C108DE2 		add	r1, sp, #28
 1394 0064 08308DE5 		str	r3, [sp, #8]
 1395 0068 01108DE8 		stm	sp, {r0, ip}
 1396 006c 493F84E2 		add	r3, r4, #292
 1397              	.LVL192:
 1398 0070 10108DE5 		str	r1, [sp, #16]
 1399 0074 0C608DE5 		str	r6, [sp, #12]
 1400 0078 022082E2 		add	r2, r2, #2
 1401 007c 0510A0E1 		mov	r1, r5
 1402 0080 0400A0E1 		mov	r0, r4
 1403 0084 FEFFFFEB 		bl	enable_ref_spads
 1404              	.LVL193:
 1405              		.loc 1 999 0
 1406 0088 000050E3 		cmp	r0, #0
 1407              	.LVL194:
 1408              		.loc 1 1000 0
 1409 008c 0130A003 		moveq	r3, #1
 1410              		.loc 1 1001 0
 1411 0090 1361C405 		strbeq	r6, [r4, #275]
 1412              		.loc 1 1003 0
 1413 0094 1451C405 		strbeq	r5, [r4, #276]
 1414              		.loc 1 1000 0
 1415 0098 1531C405 		strbeq	r3, [r4, #277]
 1416              		.loc 1 1008 0
 1417 009c 20D08DE2 		add	sp, sp, #32
 1418              		.cfi_remember_state
 1419              		.cfi_def_cfa_offset 16
 1420              		@ sp needed
 1421 00a0 7080BDE8 		pop	{r4, r5, r6, pc}
 1422              	.LVL195:
 1423              	.L143:
 1424              		.cfi_restore_state
 1425              		.loc 1 984 0
ARM GAS  /var/folders/3j/4xdnk5197cv_b7cw3n33qk7r0000gn/T//ccSq9Yz5.s 			page 26


 1426 00a4 2C0053E3 		cmp	r3, #44
 1427 00a8 EAFFFF0A 		beq	.L141
 1428 00ac 01019CE7 		ldr	r0, [ip, r1, lsl #2]
 1429              	.LVL196:
 1430              	.L142:
 1431 00b0 B61083E2 		add	r1, r3, #182
 1432              	.LBB46:
 1433              	.LBB43:
 1434              		.loc 1 456 0
 1435 00b4 000050E3 		cmp	r0, #0
 1436 00b8 2113A0E1 		lsr	r1, r1, #6
 1437              	.LBE43:
 1438              	.LBE46:
 1439              		.loc 1 986 0
 1440 00bc 013083E2 		add	r3, r3, #1
 1441              	.LVL197:
 1442              	.LBB47:
 1443              	.LBB44:
 1444              		.loc 1 456 0
 1445 00c0 F7FFFF0A 		beq	.L143
 1446 00c4 E3FFFFEA 		b	.L141
 1447              	.LVL198:
 1448              	.L152:
 1449              	.LBE44:
 1450              	.LBE47:
 1451              		.loc 1 964 0
 1452 00c8 4F10A0E3 		mov	r1, #79
 1453 00cc 0400A0E1 		mov	r0, r4
 1454              	.LVL199:
 1455 00d0 FEFFFFEB 		bl	VL53L0X_WrByte
 1456              	.LVL200:
 1457              		.loc 1 967 0
 1458 00d4 000050E3 		cmp	r0, #0
 1459 00d8 D2FFFF1A 		bne	.L139
 1460              		.loc 1 968 0
 1461 00dc 2C20A0E3 		mov	r2, #44
 1462 00e0 4E10A0E3 		mov	r1, #78
 1463 00e4 0400A0E1 		mov	r0, r4
 1464              	.LVL201:
 1465 00e8 FEFFFFEB 		bl	VL53L0X_WrByte
 1466              	.LVL202:
 1467              		.loc 1 971 0
 1468 00ec 002050E2 		subs	r2, r0, #0
 1469 00f0 CCFFFF1A 		bne	.L139
 1470              		.loc 1 972 0
 1471 00f4 FF10A0E3 		mov	r1, #255
 1472 00f8 0400A0E1 		mov	r0, r4
 1473              	.LVL203:
 1474 00fc FEFFFFEB 		bl	VL53L0X_WrByte
 1475              	.LVL204:
 1476              		.loc 1 974 0
 1477 0100 000050E3 		cmp	r0, #0
 1478 0104 C7FFFF1A 		bne	.L139
 1479              		.loc 1 975 0
 1480 0108 B420A0E3 		mov	r2, #180
 1481 010c B610A0E3 		mov	r1, #182
 1482 0110 0400A0E1 		mov	r0, r4
ARM GAS  /var/folders/3j/4xdnk5197cv_b7cw3n33qk7r0000gn/T//ccSq9Yz5.s 			page 27


 1483              	.LVL205:
 1484 0114 FEFFFFEB 		bl	VL53L0X_WrByte
 1485              	.LVL206:
 1486 0118 C2FFFFEA 		b	.L139
 1487              	.L154:
 1488              		.align	2
 1489              	.L153:
 1490 011c 00000000 		.word	.LANCHOR0
 1491              		.cfi_endproc
 1492              	.LFE17:
 1493              		.size	VL53L0X_set_reference_spads, .-VL53L0X_set_reference_spads
 1494              		.section	.text.VL53L0X_get_reference_spads,"ax",%progbits
 1495              		.align	2
 1496              		.global	VL53L0X_get_reference_spads
 1497              		.syntax unified
 1498              		.arm
 1499              		.fpu softvfp
 1500              		.type	VL53L0X_get_reference_spads, %function
 1501              	VL53L0X_get_reference_spads:
 1502              	.LFB18:
 1503              		.loc 1 1012 0
 1504              		.cfi_startproc
 1505              		@ args = 0, pretend = 0, frame = 16
 1506              		@ frame_needed = 0, uses_anonymous_args = 0
 1507              	.LVL207:
 1508              		.loc 1 1019 0
 1509 0000 0030A0E3 		mov	r3, #0
 1510              		.loc 1 1012 0
 1511 0004 70402DE9 		push	{r4, r5, r6, lr}
 1512              		.cfi_def_cfa_offset 16
 1513              		.cfi_offset 4, -16
 1514              		.cfi_offset 5, -12
 1515              		.cfi_offset 6, -8
 1516              		.cfi_offset 14, -4
 1517              		.loc 1 1024 0
 1518 0008 15E1D0E5 		ldrb	lr, [r0, #277]	@ zero_extendqisi2
 1519              		.loc 1 1012 0
 1520 000c 18D04DE2 		sub	sp, sp, #24
 1521              		.cfi_def_cfa_offset 40
 1522              		.loc 1 1024 0
 1523 0010 01005EE3 		cmp	lr, #1
 1524              		.loc 1 1012 0
 1525 0014 0040A0E1 		mov	r4, r0
 1526              		.loc 1 1019 0
 1527 0018 0B30CDE5 		strb	r3, [sp, #11]
 1528              	.LVL208:
 1529              		.loc 1 1024 0
 1530 001c 0900000A 		beq	.L159
 1531              	.LVL209:
 1532 0020 0260A0E1 		mov	r6, r2
 1533 0024 0150A0E1 		mov	r5, r1
 1534              	.LBB48:
 1535              	.LBB49:
 1536              		.loc 1 549 0
 1537 0028 10208DE2 		add	r2, sp, #16
 1538              	.LVL210:
 1539 002c 0630A0E3 		mov	r3, #6
ARM GAS  /var/folders/3j/4xdnk5197cv_b7cw3n33qk7r0000gn/T//ccSq9Yz5.s 			page 28


 1540 0030 B010A0E3 		mov	r1, #176
 1541              	.LVL211:
 1542 0034 FEFFFFEB 		bl	VL53L0X_ReadMulti
 1543              	.LVL212:
 1544              	.LBE49:
 1545              	.LBE48:
 1546              		.loc 1 1035 0
 1547 0038 000050E3 		cmp	r0, #0
 1548 003c 0800000A 		beq	.L160
 1549              	.L157:
 1550              	.LVL213:
 1551              		.loc 1 1062 0
 1552 0040 18D08DE2 		add	sp, sp, #24
 1553              		.cfi_remember_state
 1554              		.cfi_def_cfa_offset 16
 1555              		@ sp needed
 1556 0044 7080BDE8 		pop	{r4, r5, r6, pc}
 1557              	.LVL214:
 1558              	.L159:
 1559              		.cfi_restore_state
 1560              		.loc 1 1026 0
 1561 0048 13E1D0E5 		ldrb	lr, [r0, #275]	@ zero_extendqisi2
 1562              		.loc 1 1013 0
 1563 004c 0300A0E1 		mov	r0, r3
 1564              	.LVL215:
 1565              		.loc 1 1026 0
 1566 0050 00E081E5 		str	lr, [r1]
 1567              	.LVL216:
 1568              		.loc 1 1028 0
 1569 0054 1431D4E5 		ldrb	r3, [r4, #276]	@ zero_extendqisi2
 1570 0058 0030C2E5 		strb	r3, [r2]
 1571              	.LVL217:
 1572              		.loc 1 1062 0
 1573 005c 18D08DE2 		add	sp, sp, #24
 1574              		.cfi_remember_state
 1575              		.cfi_def_cfa_offset 16
 1576              		@ sp needed
 1577 0060 7080BDE8 		pop	{r4, r5, r6, pc}
 1578              	.LVL218:
 1579              	.L160:
 1580              		.cfi_restore_state
 1581              		.loc 1 1039 0
 1582 0064 0B308DE2 		add	r3, sp, #11
 1583 0068 00308DE5 		str	r3, [sp]
 1584 006c 10008DE2 		add	r0, sp, #16
 1585 0070 0C308DE2 		add	r3, sp, #12
 1586 0074 2C20A0E3 		mov	r2, #44
 1587 0078 0610A0E3 		mov	r1, #6
 1588 007c FEFFFFEB 		bl	count_enabled_spads
 1589              	.LVL219:
 1590              		.loc 1 1045 0
 1591 0080 000050E3 		cmp	r0, #0
 1592              	.LVL220:
 1593 0084 EDFFFF1A 		bne	.L157
 1594              		.loc 1 1050 0
 1595 0088 0110A0E3 		mov	r1, #1
 1596              		.loc 1 1047 0
ARM GAS  /var/folders/3j/4xdnk5197cv_b7cw3n33qk7r0000gn/T//ccSq9Yz5.s 			page 29


 1597 008c 0C209DE5 		ldr	r2, [sp, #12]
 1598              		.loc 1 1048 0
 1599 0090 0B30DDE5 		ldrb	r3, [sp, #11]	@ zero_extendqisi2
 1600              		.loc 1 1047 0
 1601 0094 002085E5 		str	r2, [r5]
 1602              		.loc 1 1048 0
 1603 0098 0030C6E5 		strb	r3, [r6]
 1604              		.loc 1 1052 0
 1605 009c 1321C4E5 		strb	r2, [r4, #275]
 1606              		.loc 1 1055 0
 1607 00a0 1431C4E5 		strb	r3, [r4, #276]
 1608              		.loc 1 1050 0
 1609 00a4 1511C4E5 		strb	r1, [r4, #277]
 1610              	.LVL221:
 1611              		.loc 1 1062 0
 1612 00a8 18D08DE2 		add	sp, sp, #24
 1613              		.cfi_def_cfa_offset 16
 1614              		@ sp needed
 1615 00ac 7080BDE8 		pop	{r4, r5, r6, pc}
 1616              		.cfi_endproc
 1617              	.LFE18:
 1618              		.size	VL53L0X_get_reference_spads, .-VL53L0X_get_reference_spads
 1619              		.section	.text.VL53L0X_perform_single_ref_calibration,"ax",%progbits
 1620              		.align	2
 1621              		.global	VL53L0X_perform_single_ref_calibration
 1622              		.syntax unified
 1623              		.arm
 1624              		.fpu softvfp
 1625              		.type	VL53L0X_perform_single_ref_calibration, %function
 1626              	VL53L0X_perform_single_ref_calibration:
 1627              	.LFB19:
 1628              		.loc 1 1067 0
 1629              		.cfi_startproc
 1630              		@ args = 0, pretend = 0, frame = 0
 1631              		@ frame_needed = 0, uses_anonymous_args = 0
 1632              	.LVL222:
 1633              		.loc 1 1071 0
 1634 0000 012081E3 		orr	r2, r1, #1
 1635              		.loc 1 1067 0
 1636 0004 10402DE9 		push	{r4, lr}
 1637              		.cfi_def_cfa_offset 8
 1638              		.cfi_offset 4, -8
 1639              		.cfi_offset 14, -4
 1640              		.loc 1 1071 0
 1641 0008 0010A0E3 		mov	r1, #0
 1642              	.LVL223:
 1643              		.loc 1 1067 0
 1644 000c 0040A0E1 		mov	r4, r0
 1645              	.LVL224:
 1646              		.loc 1 1071 0
 1647 0010 FEFFFFEB 		bl	VL53L0X_WrByte
 1648              	.LVL225:
 1649              		.loc 1 1075 0
 1650 0014 002050E2 		subs	r2, r0, #0
 1651 0018 0100000A 		beq	.L164
 1652              	.L162:
 1653              	.LVL226:
ARM GAS  /var/folders/3j/4xdnk5197cv_b7cw3n33qk7r0000gn/T//ccSq9Yz5.s 			page 30


 1654              		.loc 1 1085 0
 1655 001c 0200A0E1 		mov	r0, r2
 1656 0020 1080BDE8 		pop	{r4, pc}
 1657              	.LVL227:
 1658              	.L164:
 1659              		.loc 1 1076 0
 1660 0024 0400A0E1 		mov	r0, r4
 1661              	.LVL228:
 1662 0028 FEFFFFEB 		bl	VL53L0X_measurement_poll_for_completion
 1663              	.LVL229:
 1664              		.loc 1 1078 0
 1665 002c 002050E2 		subs	r2, r0, #0
 1666 0030 F9FFFF1A 		bne	.L162
 1667              		.loc 1 1079 0
 1668 0034 0210A0E1 		mov	r1, r2
 1669 0038 0400A0E1 		mov	r0, r4
 1670              	.LVL230:
 1671 003c FEFFFFEB 		bl	VL53L0X_ClearInterruptMask
 1672              	.LVL231:
 1673              		.loc 1 1081 0
 1674 0040 002050E2 		subs	r2, r0, #0
 1675 0044 F4FFFF1A 		bne	.L162
 1676              	.LVL232:
 1677              	.LBB52:
 1678              	.LBB53:
 1679              		.loc 1 1082 0
 1680 0048 0400A0E1 		mov	r0, r4
 1681              	.LVL233:
 1682              	.LBE53:
 1683              	.LBE52:
 1684              		.loc 1 1085 0
 1685 004c 1040BDE8 		pop	{r4, lr}
 1686              		.cfi_restore 14
 1687              		.cfi_restore 4
 1688              		.cfi_def_cfa_offset 0
 1689              	.LVL234:
 1690              	.LBB55:
 1691              	.LBB54:
 1692              		.loc 1 1082 0
 1693 0050 0210A0E1 		mov	r1, r2
 1694 0054 FEFFFFEA 		b	VL53L0X_WrByte
 1695              	.LVL235:
 1696              	.LBE54:
 1697              	.LBE55:
 1698              		.cfi_endproc
 1699              	.LFE19:
 1700              		.size	VL53L0X_perform_single_ref_calibration, .-VL53L0X_perform_single_ref_calibration
 1701              		.section	.text.VL53L0X_ref_calibration_io,"ax",%progbits
 1702              		.align	2
 1703              		.global	VL53L0X_ref_calibration_io
 1704              		.syntax unified
 1705              		.arm
 1706              		.fpu softvfp
 1707              		.type	VL53L0X_ref_calibration_io, %function
 1708              	VL53L0X_ref_calibration_io:
 1709              	.LFB20:
 1710              		.loc 1 1092 0
ARM GAS  /var/folders/3j/4xdnk5197cv_b7cw3n33qk7r0000gn/T//ccSq9Yz5.s 			page 31


 1711              		.cfi_startproc
 1712              		@ args = 16, pretend = 0, frame = 8
 1713              		@ frame_needed = 0, uses_anonymous_args = 0
 1714              	.LVL236:
 1715 0000 F04F2DE9 		push	{r4, r5, r6, r7, r8, r9, r10, fp, lr}
 1716              		.cfi_def_cfa_offset 36
 1717              		.cfi_offset 4, -36
 1718              		.cfi_offset 5, -32
 1719              		.cfi_offset 6, -28
 1720              		.cfi_offset 7, -24
 1721              		.cfi_offset 8, -20
 1722              		.cfi_offset 9, -16
 1723              		.cfi_offset 10, -12
 1724              		.cfi_offset 11, -8
 1725              		.cfi_offset 14, -4
 1726              		.loc 1 1094 0
 1727 0004 0040A0E3 		mov	r4, #0
 1728              		.loc 1 1092 0
 1729 0008 0CD04DE2 		sub	sp, sp, #12
 1730              		.cfi_def_cfa_offset 48
 1731              		.loc 1 1092 0
 1732 000c 01B0A0E1 		mov	fp, r1
 1733 0010 02A0A0E1 		mov	r10, r2
 1734              		.loc 1 1097 0
 1735 0014 FF10A0E3 		mov	r1, #255
 1736              	.LVL237:
 1737 0018 0120A0E3 		mov	r2, #1
 1738              	.LVL238:
 1739              		.loc 1 1092 0
 1740 001c 0050A0E1 		mov	r5, r0
 1741 0020 0390A0E1 		mov	r9, r3
 1742              		.loc 1 1094 0
 1743 0024 0740CDE5 		strb	r4, [sp, #7]
 1744              		.loc 1 1092 0
 1745 0028 3880DDE5 		ldrb	r8, [sp, #56]	@ zero_extendqisi2
 1746 002c 3C70DDE5 		ldrb	r7, [sp, #60]	@ zero_extendqisi2
 1747              		.loc 1 1097 0
 1748 0030 FEFFFFEB 		bl	VL53L0X_WrByte
 1749              	.LVL239:
 1750              		.loc 1 1098 0
 1751 0034 0420A0E1 		mov	r2, r4
 1752 0038 0410A0E1 		mov	r1, r4
 1753              		.loc 1 1097 0
 1754 003c 0060A0E1 		mov	r6, r0
 1755              	.LVL240:
 1756              		.loc 1 1098 0
 1757 0040 0500A0E1 		mov	r0, r5
 1758 0044 FEFFFFEB 		bl	VL53L0X_WrByte
 1759              	.LVL241:
 1760              		.loc 1 1099 0
 1761 0048 0420A0E1 		mov	r2, r4
 1762 004c FF10A0E3 		mov	r1, #255
 1763              		.loc 1 1098 0
 1764 0050 004086E1 		orr	r4, r6, r0
 1765              		.loc 1 1099 0
 1766 0054 0500A0E1 		mov	r0, r5
 1767 0058 FEFFFFEB 		bl	VL53L0X_WrByte
ARM GAS  /var/folders/3j/4xdnk5197cv_b7cw3n33qk7r0000gn/T//ccSq9Yz5.s 			page 32


 1768              	.LVL242:
 1769              		.loc 1 1098 0
 1770 005c 7440AFE6 		sxtb	r4, r4
 1771              	.LVL243:
 1772              		.loc 1 1099 0
 1773 0060 004084E1 		orr	r4, r4, r0
 1774              	.LVL244:
 1775              		.loc 1 1101 0
 1776 0064 00005BE3 		cmp	fp, #0
 1777              		.loc 1 1099 0
 1778 0068 7440AFE6 		sxtb	r4, r4
 1779              	.LVL245:
 1780              		.loc 1 1101 0
 1781 006c 1B00000A 		beq	.L166
 1782              		.loc 1 1102 0
 1783 0070 000058E3 		cmp	r8, #0
 1784 0074 2500001A 		bne	.L183
 1785              		.loc 1 1104 0
 1786 0078 000057E3 		cmp	r7, #0
 1787 007c 2B00001A 		bne	.L184
 1788              	.L168:
 1789              		.loc 1 1113 0
 1790 0080 0120A0E3 		mov	r2, #1
 1791 0084 FF10A0E3 		mov	r1, #255
 1792 0088 0500A0E1 		mov	r0, r5
 1793 008c FEFFFFEB 		bl	VL53L0X_WrByte
 1794              	.LVL246:
 1795              		.loc 1 1114 0
 1796 0090 0120A0E3 		mov	r2, #1
 1797              		.loc 1 1113 0
 1798 0094 004084E1 		orr	r4, r4, r0
 1799              	.LVL247:
 1800              		.loc 1 1114 0
 1801 0098 0010A0E3 		mov	r1, #0
 1802 009c 0500A0E1 		mov	r0, r5
 1803 00a0 FEFFFFEB 		bl	VL53L0X_WrByte
 1804              	.LVL248:
 1805              		.loc 1 1113 0
 1806 00a4 7440AFE6 		sxtb	r4, r4
 1807              	.LVL249:
 1808              		.loc 1 1115 0
 1809 00a8 0020A0E3 		mov	r2, #0
 1810              		.loc 1 1114 0
 1811 00ac 004084E1 		orr	r4, r4, r0
 1812              	.LVL250:
 1813              		.loc 1 1115 0
 1814 00b0 FF10A0E3 		mov	r1, #255
 1815 00b4 0500A0E1 		mov	r0, r5
 1816 00b8 FEFFFFEB 		bl	VL53L0X_WrByte
 1817              	.LVL251:
 1818              		.loc 1 1114 0
 1819 00bc 7440AFE6 		sxtb	r4, r4
 1820              	.LVL252:
 1821              		.loc 1 1117 0
 1822 00c0 0730DDE5 		ldrb	r3, [sp, #7]	@ zero_extendqisi2
 1823              		.loc 1 1115 0
 1824 00c4 000084E1 		orr	r0, r4, r0
ARM GAS  /var/folders/3j/4xdnk5197cv_b7cw3n33qk7r0000gn/T//ccSq9Yz5.s 			page 33


 1825              	.LVL253:
 1826              		.loc 1 1117 0
 1827 00c8 34209DE5 		ldr	r2, [sp, #52]
 1828 00cc 1030C3E3 		bic	r3, r3, #16
 1829              		.loc 1 1120 0
 1830 00d0 7000AFE6 		sxtb	r0, r0
 1831              		.loc 1 1117 0
 1832 00d4 0030C2E5 		strb	r3, [r2]
 1833              		.loc 1 1120 0
 1834 00d8 0CD08DE2 		add	sp, sp, #12
 1835              		.cfi_remember_state
 1836              		.cfi_def_cfa_offset 36
 1837              		@ sp needed
 1838 00dc F08FBDE8 		pop	{r4, r5, r6, r7, r8, r9, r10, fp, pc}
 1839              	.LVL254:
 1840              	.L166:
 1841              		.cfi_restore_state
 1842              		.loc 1 1107 0
 1843 00e0 000058E3 		cmp	r8, #0
 1844 00e4 1800001A 		bne	.L185
 1845              		.loc 1 1109 0
 1846 00e8 000057E3 		cmp	r7, #0
 1847 00ec E3FFFF0A 		beq	.L168
 1848              	.L186:
 1849              		.loc 1 1110 0
 1850 00f0 0930A0E1 		mov	r3, r9
 1851 00f4 8020A0E3 		mov	r2, #128
 1852 00f8 EE10A0E3 		mov	r1, #238
 1853 00fc 0500A0E1 		mov	r0, r5
 1854 0100 FEFFFFEB 		bl	VL53L0X_UpdateByte
 1855              	.LVL255:
 1856 0104 004084E1 		orr	r4, r4, r0
 1857              	.LVL256:
 1858 0108 7440AFE6 		sxtb	r4, r4
 1859              	.LVL257:
 1860 010c DBFFFFEA 		b	.L168
 1861              	.L183:
 1862              		.loc 1 1103 0
 1863 0110 30209DE5 		ldr	r2, [sp, #48]
 1864 0114 CB10A0E3 		mov	r1, #203
 1865 0118 0500A0E1 		mov	r0, r5
 1866 011c FEFFFFEB 		bl	VL53L0X_RdByte
 1867              	.LVL258:
 1868              		.loc 1 1104 0
 1869 0120 000057E3 		cmp	r7, #0
 1870              		.loc 1 1103 0
 1871 0124 004084E1 		orr	r4, r4, r0
 1872              	.LVL259:
 1873 0128 7440AFE6 		sxtb	r4, r4
 1874              	.LVL260:
 1875              		.loc 1 1104 0
 1876 012c D3FFFF0A 		beq	.L168
 1877              	.L184:
 1878              		.loc 1 1105 0
 1879 0130 07208DE2 		add	r2, sp, #7
 1880 0134 EE10A0E3 		mov	r1, #238
 1881 0138 0500A0E1 		mov	r0, r5
ARM GAS  /var/folders/3j/4xdnk5197cv_b7cw3n33qk7r0000gn/T//ccSq9Yz5.s 			page 34


 1882 013c FEFFFFEB 		bl	VL53L0X_RdByte
 1883              	.LVL261:
 1884 0140 004084E1 		orr	r4, r4, r0
 1885              	.LVL262:
 1886 0144 7440AFE6 		sxtb	r4, r4
 1887              	.LVL263:
 1888 0148 CCFFFFEA 		b	.L168
 1889              	.L185:
 1890              		.loc 1 1108 0
 1891 014c 0A20A0E1 		mov	r2, r10
 1892 0150 CB10A0E3 		mov	r1, #203
 1893 0154 0500A0E1 		mov	r0, r5
 1894 0158 FEFFFFEB 		bl	VL53L0X_WrByte
 1895              	.LVL264:
 1896              		.loc 1 1109 0
 1897 015c 000057E3 		cmp	r7, #0
 1898              		.loc 1 1108 0
 1899 0160 004084E1 		orr	r4, r4, r0
 1900              	.LVL265:
 1901 0164 7440AFE6 		sxtb	r4, r4
 1902              	.LVL266:
 1903              		.loc 1 1109 0
 1904 0168 C4FFFF0A 		beq	.L168
 1905 016c DFFFFFEA 		b	.L186
 1906              		.cfi_endproc
 1907              	.LFE20:
 1908              		.size	VL53L0X_ref_calibration_io, .-VL53L0X_ref_calibration_io
 1909              		.section	.text.VL53L0X_perform_vhv_calibration,"ax",%progbits
 1910              		.align	2
 1911              		.global	VL53L0X_perform_vhv_calibration
 1912              		.syntax unified
 1913              		.arm
 1914              		.fpu softvfp
 1915              		.type	VL53L0X_perform_vhv_calibration, %function
 1916              	VL53L0X_perform_vhv_calibration:
 1917              	.LFB21:
 1918              		.loc 1 1126 0
 1919              		.cfi_startproc
 1920              		@ args = 0, pretend = 0, frame = 8
 1921              		@ frame_needed = 0, uses_anonymous_args = 0
 1922              	.LVL267:
 1923 0000 F0432DE9 		push	{r4, r5, r6, r7, r8, r9, lr}
 1924              		.cfi_def_cfa_offset 28
 1925              		.cfi_offset 4, -28
 1926              		.cfi_offset 5, -24
 1927              		.cfi_offset 6, -20
 1928              		.cfi_offset 7, -16
 1929              		.cfi_offset 8, -12
 1930              		.cfi_offset 9, -8
 1931              		.cfi_offset 14, -4
 1932 0004 0290A0E1 		mov	r9, r2
 1933              		.loc 1 1141 0
 1934 0008 0120A0E3 		mov	r2, #1
 1935              	.LVL268:
 1936              		.loc 1 1131 0
 1937 000c 00C0A0E3 		mov	ip, #0
 1938              		.loc 1 1137 0
ARM GAS  /var/folders/3j/4xdnk5197cv_b7cw3n33qk7r0000gn/T//ccSq9Yz5.s 			page 35


 1939 0010 004053E2 		subs	r4, r3, #0
 1940              		.loc 1 1126 0
 1941 0014 1CD04DE2 		sub	sp, sp, #28
 1942              		.cfi_def_cfa_offset 56
 1943              		.loc 1 1126 0
 1944 0018 0160A0E1 		mov	r6, r1
 1945              		.loc 1 1141 0
 1946 001c 0210A0E1 		mov	r1, r2
 1947              	.LVL269:
 1948              		.loc 1 1138 0
 1949 0020 3081D015 		ldrbne	r8, [r0, #304]	@ zero_extendqisi2
 1950              	.LVL270:
 1951              		.loc 1 1128 0
 1952 0024 0480A001 		moveq	r8, r4
 1953              	.LVL271:
 1954              		.loc 1 1126 0
 1955 0028 0050A0E1 		mov	r5, r0
 1956              		.loc 1 1131 0
 1957 002c 17C0CDE5 		strb	ip, [sp, #23]
 1958              		.loc 1 1141 0
 1959 0030 FEFFFFEB 		bl	VL53L0X_WrByte
 1960              	.LVL272:
 1961              		.loc 1 1143 0
 1962 0034 000050E3 		cmp	r0, #0
 1963              		.loc 1 1141 0
 1964 0038 0070A0E1 		mov	r7, r0
 1965              	.LVL273:
 1966              		.loc 1 1143 0
 1967 003c 0F00000A 		beq	.L200
 1968              	.L189:
 1969              		.loc 1 1153 0
 1970 0040 0030A0E3 		mov	r3, #0
 1971 0044 0030C6E5 		strb	r3, [r6]
 1972              	.L190:
 1973              		.loc 1 1156 0
 1974 0048 004094E2 		adds	r4, r4, #0
 1975 004c 0140A013 		movne	r4, #1
 1976 0050 000050E3 		cmp	r0, #0
 1977 0054 0040A013 		movne	r4, #0
 1978 0058 000054E3 		cmp	r4, #0
 1979 005c 0500000A 		beq	.L191
 1980              		.loc 1 1158 0
 1981 0060 0820A0E1 		mov	r2, r8
 1982 0064 0110A0E3 		mov	r1, #1
 1983 0068 0500A0E1 		mov	r0, r5
 1984              	.LVL274:
 1985 006c FEFFFFEB 		bl	VL53L0X_WrByte
 1986              	.LVL275:
 1987              		.loc 1 1160 0
 1988 0070 000050E3 		cmp	r0, #0
 1989              	.LVL276:
 1990              		.loc 1 1161 0
 1991 0074 3081C505 		strbeq	r8, [r5, #304]
 1992              	.L191:
 1993              	.LVL277:
 1994              		.loc 1 1166 0
 1995 0078 1CD08DE2 		add	sp, sp, #28
ARM GAS  /var/folders/3j/4xdnk5197cv_b7cw3n33qk7r0000gn/T//ccSq9Yz5.s 			page 36


 1996              		.cfi_remember_state
 1997              		.cfi_def_cfa_offset 28
 1998              		@ sp needed
 1999 007c F083BDE8 		pop	{r4, r5, r6, r7, r8, r9, pc}
 2000              	.LVL278:
 2001              	.L200:
 2002              		.cfi_restore_state
 2003              		.loc 1 1144 0
 2004 0080 4010A0E3 		mov	r1, #64
 2005 0084 0500A0E1 		mov	r0, r5
 2006              	.LVL279:
 2007 0088 FEFFFFEB 		bl	VL53L0X_perform_single_ref_calibration
 2008              	.LVL280:
 2009              		.loc 1 1147 0
 2010 008c 000050E3 		cmp	r0, #0
 2011 0090 01005903 		cmpeq	r9, #1
 2012 0094 E9FFFF1A 		bne	.L189
 2013              		.loc 1 1148 0
 2014 0098 0110A0E3 		mov	r1, #1
 2015 009c 17308DE2 		add	r3, sp, #23
 2016 00a0 04308DE5 		str	r3, [sp, #4]
 2017 00a4 0C708DE5 		str	r7, [sp, #12]
 2018 00a8 00608DE5 		str	r6, [sp]
 2019 00ac 08108DE5 		str	r1, [sp, #8]
 2020 00b0 0730A0E1 		mov	r3, r7
 2021 00b4 0720A0E1 		mov	r2, r7
 2022 00b8 0500A0E1 		mov	r0, r5
 2023              	.LVL281:
 2024 00bc FEFFFFEB 		bl	VL53L0X_ref_calibration_io
 2025              	.LVL282:
 2026 00c0 E0FFFFEA 		b	.L190
 2027              		.cfi_endproc
 2028              	.LFE21:
 2029              		.size	VL53L0X_perform_vhv_calibration, .-VL53L0X_perform_vhv_calibration
 2030              		.section	.text.VL53L0X_perform_phase_calibration,"ax",%progbits
 2031              		.align	2
 2032              		.global	VL53L0X_perform_phase_calibration
 2033              		.syntax unified
 2034              		.arm
 2035              		.fpu softvfp
 2036              		.type	VL53L0X_perform_phase_calibration, %function
 2037              	VL53L0X_perform_phase_calibration:
 2038              	.LFB22:
 2039              		.loc 1 1171 0
 2040              		.cfi_startproc
 2041              		@ args = 0, pretend = 0, frame = 8
 2042              		@ frame_needed = 0, uses_anonymous_args = 0
 2043              	.LVL283:
 2044 0000 F0432DE9 		push	{r4, r5, r6, r7, r8, r9, lr}
 2045              		.cfi_def_cfa_offset 28
 2046              		.cfi_offset 4, -28
 2047              		.cfi_offset 5, -24
 2048              		.cfi_offset 6, -20
 2049              		.cfi_offset 7, -16
 2050              		.cfi_offset 8, -12
 2051              		.cfi_offset 9, -8
 2052              		.cfi_offset 14, -4
ARM GAS  /var/folders/3j/4xdnk5197cv_b7cw3n33qk7r0000gn/T//ccSq9Yz5.s 			page 37


 2053              		.loc 1 1182 0
 2054 0004 004053E2 		subs	r4, r3, #0
 2055              		.loc 1 1171 0
 2056 0008 1CD04DE2 		sub	sp, sp, #28
 2057              		.cfi_def_cfa_offset 56
 2058              		.loc 1 1171 0
 2059 000c 0160A0E1 		mov	r6, r1
 2060 0010 0290A0E1 		mov	r9, r2
 2061              		.loc 1 1186 0
 2062 0014 0110A0E3 		mov	r1, #1
 2063              	.LVL284:
 2064 0018 0220A0E3 		mov	r2, #2
 2065              	.LVL285:
 2066              		.loc 1 1183 0
 2067 001c 3081D015 		ldrbne	r8, [r0, #304]	@ zero_extendqisi2
 2068              	.LVL286:
 2069              		.loc 1 1173 0
 2070 0020 0480A001 		moveq	r8, r4
 2071              	.LVL287:
 2072              		.loc 1 1171 0
 2073 0024 0050A0E1 		mov	r5, r0
 2074              		.loc 1 1186 0
 2075 0028 FEFFFFEB 		bl	VL53L0X_WrByte
 2076              	.LVL288:
 2077              		.loc 1 1188 0
 2078 002c 000050E3 		cmp	r0, #0
 2079              		.loc 1 1186 0
 2080 0030 0070A0E1 		mov	r7, r0
 2081              	.LVL289:
 2082              		.loc 1 1188 0
 2083 0034 0F00000A 		beq	.L214
 2084              	.L203:
 2085              		.loc 1 1198 0
 2086 0038 0030A0E3 		mov	r3, #0
 2087 003c 0030C6E5 		strb	r3, [r6]
 2088              	.L204:
 2089              		.loc 1 1201 0
 2090 0040 004094E2 		adds	r4, r4, #0
 2091 0044 0140A013 		movne	r4, #1
 2092 0048 000050E3 		cmp	r0, #0
 2093 004c 0040A013 		movne	r4, #0
 2094 0050 000054E3 		cmp	r4, #0
 2095 0054 0500000A 		beq	.L205
 2096              		.loc 1 1203 0
 2097 0058 0820A0E1 		mov	r2, r8
 2098 005c 0110A0E3 		mov	r1, #1
 2099 0060 0500A0E1 		mov	r0, r5
 2100              	.LVL290:
 2101 0064 FEFFFFEB 		bl	VL53L0X_WrByte
 2102              	.LVL291:
 2103              		.loc 1 1205 0
 2104 0068 000050E3 		cmp	r0, #0
 2105              	.LVL292:
 2106              		.loc 1 1206 0
 2107 006c 3081C505 		strbeq	r8, [r5, #304]
 2108              	.L205:
 2109              	.LVL293:
ARM GAS  /var/folders/3j/4xdnk5197cv_b7cw3n33qk7r0000gn/T//ccSq9Yz5.s 			page 38


 2110              		.loc 1 1211 0
 2111 0070 1CD08DE2 		add	sp, sp, #28
 2112              		.cfi_remember_state
 2113              		.cfi_def_cfa_offset 28
 2114              		@ sp needed
 2115 0074 F083BDE8 		pop	{r4, r5, r6, r7, r8, r9, pc}
 2116              	.LVL294:
 2117              	.L214:
 2118              		.cfi_restore_state
 2119              		.loc 1 1189 0
 2120 0078 0010A0E1 		mov	r1, r0
 2121 007c 0500A0E1 		mov	r0, r5
 2122              	.LVL295:
 2123 0080 FEFFFFEB 		bl	VL53L0X_perform_single_ref_calibration
 2124              	.LVL296:
 2125              		.loc 1 1192 0
 2126 0084 000050E3 		cmp	r0, #0
 2127 0088 01005903 		cmpeq	r9, #1
 2128 008c E9FFFF1A 		bne	.L203
 2129              		.loc 1 1193 0
 2130 0090 0110A0E3 		mov	r1, #1
 2131 0094 17308DE2 		add	r3, sp, #23
 2132 0098 00308DE5 		str	r3, [sp]
 2133 009c F460CDE1 		strd	r6, [sp, #4]
 2134 00a0 0C108DE5 		str	r1, [sp, #12]
 2135 00a4 0730A0E1 		mov	r3, r7
 2136 00a8 0720A0E1 		mov	r2, r7
 2137 00ac 0500A0E1 		mov	r0, r5
 2138              	.LVL297:
 2139 00b0 FEFFFFEB 		bl	VL53L0X_ref_calibration_io
 2140              	.LVL298:
 2141 00b4 E1FFFFEA 		b	.L204
 2142              		.cfi_endproc
 2143              	.LFE22:
 2144              		.size	VL53L0X_perform_phase_calibration, .-VL53L0X_perform_phase_calibration
 2145              		.section	.text.VL53L0X_perform_ref_calibration,"ax",%progbits
 2146              		.align	2
 2147              		.global	VL53L0X_perform_ref_calibration
 2148              		.syntax unified
 2149              		.arm
 2150              		.fpu softvfp
 2151              		.type	VL53L0X_perform_ref_calibration, %function
 2152              	VL53L0X_perform_ref_calibration:
 2153              	.LFB23:
 2154              		.loc 1 1215 0
 2155              		.cfi_startproc
 2156              		@ args = 0, pretend = 0, frame = 0
 2157              		@ frame_needed = 0, uses_anonymous_args = 0
 2158              	.LVL299:
 2159 0000 F0412DE9 		push	{r4, r5, r6, r7, r8, lr}
 2160              		.cfi_def_cfa_offset 24
 2161              		.cfi_offset 4, -24
 2162              		.cfi_offset 5, -20
 2163              		.cfi_offset 6, -16
 2164              		.cfi_offset 7, -12
 2165              		.cfi_offset 8, -8
 2166              		.cfi_offset 14, -4
ARM GAS  /var/folders/3j/4xdnk5197cv_b7cw3n33qk7r0000gn/T//ccSq9Yz5.s 			page 39


 2167              		.loc 1 1215 0
 2168 0004 0350A0E1 		mov	r5, r3
 2169 0008 0270A0E1 		mov	r7, r2
 2170              		.loc 1 1227 0
 2171 000c 0030A0E3 		mov	r3, #0
 2172              	.LVL300:
 2173 0010 0520A0E1 		mov	r2, r5
 2174              	.LVL301:
 2175              		.loc 1 1215 0
 2176 0014 0040A0E1 		mov	r4, r0
 2177              		.loc 1 1223 0
 2178 0018 3061D0E5 		ldrb	r6, [r0, #304]	@ zero_extendqisi2
 2179              	.LVL302:
 2180              		.loc 1 1227 0
 2181 001c FEFFFFEB 		bl	VL53L0X_perform_vhv_calibration
 2182              	.LVL303:
 2183              		.loc 1 1231 0
 2184 0020 000050E3 		cmp	r0, #0
 2185              	.LVL304:
 2186 0024 F081BD18 		popne	{r4, r5, r6, r7, r8, pc}
 2187              		.loc 1 1232 0
 2188 0028 0030A0E1 		mov	r3, r0
 2189 002c 0520A0E1 		mov	r2, r5
 2190 0030 0710A0E1 		mov	r1, r7
 2191 0034 0400A0E1 		mov	r0, r4
 2192 0038 FEFFFFEB 		bl	VL53L0X_perform_phase_calibration
 2193              	.LVL305:
 2194              		.loc 1 1236 0
 2195 003c 000050E3 		cmp	r0, #0
 2196              	.LVL306:
 2197 0040 F081BD18 		popne	{r4, r5, r6, r7, r8, pc}
 2198              		.loc 1 1238 0
 2199 0044 0620A0E1 		mov	r2, r6
 2200 0048 0110A0E3 		mov	r1, #1
 2201 004c 0400A0E1 		mov	r0, r4
 2202 0050 FEFFFFEB 		bl	VL53L0X_WrByte
 2203              	.LVL307:
 2204              		.loc 1 1240 0
 2205 0054 000050E3 		cmp	r0, #0
 2206              	.LVL308:
 2207              		.loc 1 1241 0
 2208 0058 3061C405 		strbeq	r6, [r4, #304]
 2209              	.LVL309:
 2210              		.loc 1 1246 0
 2211 005c F081BDE8 		pop	{r4, r5, r6, r7, r8, pc}
 2212              		.cfi_endproc
 2213              	.LFE23:
 2214              		.size	VL53L0X_perform_ref_calibration, .-VL53L0X_perform_ref_calibration
 2215              		.section	.text.VL53L0X_perform_ref_spad_management,"ax",%progbits
 2216              		.align	2
 2217              		.global	VL53L0X_perform_ref_spad_management
 2218              		.syntax unified
 2219              		.arm
 2220              		.fpu softvfp
 2221              		.type	VL53L0X_perform_ref_spad_management, %function
 2222              	VL53L0X_perform_ref_spad_management:
 2223              	.LFB16:
ARM GAS  /var/folders/3j/4xdnk5197cv_b7cw3n33qk7r0000gn/T//ccSq9Yz5.s 			page 40


 2224              		.loc 1 679 0
 2225              		.cfi_startproc
 2226              		@ args = 0, pretend = 0, frame = 48
 2227              		@ frame_needed = 0, uses_anonymous_args = 0
 2228              	.LVL310:
 2229              		.loc 1 686 0
 2230 0000 0030A0E3 		mov	r3, #0
 2231              		.loc 1 679 0
 2232 0004 F04F2DE9 		push	{r4, r5, r6, r7, r8, r9, r10, fp, lr}
 2233              		.cfi_def_cfa_offset 36
 2234              		.cfi_offset 4, -36
 2235              		.cfi_offset 5, -32
 2236              		.cfi_offset 6, -28
 2237              		.cfi_offset 7, -24
 2238              		.cfi_offset 8, -20
 2239              		.cfi_offset 9, -16
 2240              		.cfi_offset 10, -12
 2241              		.cfi_offset 11, -8
 2242              		.cfi_offset 14, -4
 2243              		.loc 1 724 0
 2244 0008 4FCF80E2 		add	ip, r0, #316
 2245              		.loc 1 679 0
 2246 000c 4CD04DE2 		sub	sp, sp, #76
 2247              		.cfi_def_cfa_offset 112
 2248              		.loc 1 735 0
 2249 0010 4A9F80E2 		add	r9, r0, #296
 2250              		.loc 1 724 0
 2251 0014 B070DCE1 		ldrh	r7, [ip]
 2252              		.loc 1 679 0
 2253 0018 20108DE5 		str	r1, [sp, #32]
 2254 001c 24208DE5 		str	r2, [sp, #36]
 2255              		.loc 1 735 0
 2256 0020 243180E5 		str	r3, [r0, #292]
 2257              		.loc 1 738 0
 2258 0024 0120A0E3 		mov	r2, #1
 2259              	.LVL311:
 2260              		.loc 1 735 0
 2261 0028 B030C9E1 		strh	r3, [r9]	@ movhi
 2262              		.loc 1 738 0
 2263 002c FF10A0E3 		mov	r1, #255
 2264              	.LVL312:
 2265              		.loc 1 679 0
 2266 0030 0050A0E1 		mov	r5, r0
 2267              		.loc 1 686 0
 2268 0034 38308DE5 		str	r3, [sp, #56]
 2269              		.loc 1 687 0
 2270 0038 3C308DE5 		str	r3, [sp, #60]
 2271              	.LVL313:
 2272              		.loc 1 696 0
 2273 003c 3430CDE5 		strb	r3, [sp, #52]
 2274              		.loc 1 697 0
 2275 0040 3530CDE5 		strb	r3, [sp, #53]
 2276              	.LVL314:
 2277              		.loc 1 738 0
 2278 0044 FEFFFFEB 		bl	VL53L0X_WrByte
 2279              	.LVL315:
 2280              		.loc 1 740 0
ARM GAS  /var/folders/3j/4xdnk5197cv_b7cw3n33qk7r0000gn/T//ccSq9Yz5.s 			page 41


 2281 0048 006050E2 		subs	r6, r0, #0
 2282 004c 0200000A 		beq	.L239
 2283              	.LVL316:
 2284              	.L219:
 2285              		.loc 1 941 0
 2286 0050 0600A0E1 		mov	r0, r6
 2287 0054 4CD08DE2 		add	sp, sp, #76
 2288              		.cfi_remember_state
 2289              		.cfi_def_cfa_offset 36
 2290              		@ sp needed
 2291 0058 F08FBDE8 		pop	{r4, r5, r6, r7, r8, r9, r10, fp, pc}
 2292              	.LVL317:
 2293              	.L239:
 2294              		.cfi_restore_state
 2295              		.loc 1 741 0
 2296 005c 0620A0E1 		mov	r2, r6
 2297 0060 4F10A0E3 		mov	r1, #79
 2298 0064 0500A0E1 		mov	r0, r5
 2299              	.LVL318:
 2300 0068 FEFFFFEB 		bl	VL53L0X_WrByte
 2301              	.LVL319:
 2302              		.loc 1 744 0
 2303 006c 006050E2 		subs	r6, r0, #0
 2304 0070 F6FFFF1A 		bne	.L219
 2305              		.loc 1 745 0
 2306 0074 2C20A0E3 		mov	r2, #44
 2307 0078 4E10A0E3 		mov	r1, #78
 2308 007c 0500A0E1 		mov	r0, r5
 2309              	.LVL320:
 2310 0080 FEFFFFEB 		bl	VL53L0X_WrByte
 2311              	.LVL321:
 2312              		.loc 1 748 0
 2313 0084 006050E2 		subs	r6, r0, #0
 2314 0088 F0FFFF1A 		bne	.L219
 2315              		.loc 1 749 0
 2316 008c 0620A0E1 		mov	r2, r6
 2317 0090 FF10A0E3 		mov	r1, #255
 2318 0094 0500A0E1 		mov	r0, r5
 2319              	.LVL322:
 2320 0098 FEFFFFEB 		bl	VL53L0X_WrByte
 2321              	.LVL323:
 2322              		.loc 1 751 0
 2323 009c 006050E2 		subs	r6, r0, #0
 2324 00a0 EAFFFF1A 		bne	.L219
 2325              		.loc 1 752 0
 2326 00a4 B420A0E3 		mov	r2, #180
 2327 00a8 B610A0E3 		mov	r1, #182
 2328 00ac 0500A0E1 		mov	r0, r5
 2329              	.LVL324:
 2330 00b0 FEFFFFEB 		bl	VL53L0X_WrByte
 2331              	.LVL325:
 2332              		.loc 1 757 0
 2333 00b4 006050E2 		subs	r6, r0, #0
 2334 00b8 E4FFFF1A 		bne	.L219
 2335              		.loc 1 758 0
 2336 00bc 0620A0E1 		mov	r2, r6
 2337 00c0 8010A0E3 		mov	r1, #128
ARM GAS  /var/folders/3j/4xdnk5197cv_b7cw3n33qk7r0000gn/T//ccSq9Yz5.s 			page 42


 2338 00c4 0500A0E1 		mov	r0, r5
 2339              	.LVL326:
 2340 00c8 FEFFFFEB 		bl	VL53L0X_WrByte
 2341              	.LVL327:
 2342              		.loc 1 762 0
 2343 00cc 006050E2 		subs	r6, r0, #0
 2344 00d0 DEFFFF1A 		bne	.L219
 2345              		.loc 1 763 0
 2346 00d4 0630A0E1 		mov	r3, r6
 2347 00d8 35208DE2 		add	r2, sp, #53
 2348 00dc 34108DE2 		add	r1, sp, #52
 2349 00e0 0500A0E1 		mov	r0, r5
 2350              	.LVL328:
 2351 00e4 FEFFFFEB 		bl	VL53L0X_perform_ref_calibration
 2352              	.LVL329:
 2353              		.loc 1 766 0
 2354 00e8 006050E2 		subs	r6, r0, #0
 2355 00ec D7FFFF1A 		bne	.L219
 2356              		.loc 1 771 0
 2357 00f0 0300A0E3 		mov	r0, #3
 2358              	.LVL330:
 2359 00f4 B420A0E3 		mov	r2, #180
 2360 00f8 0630A0E3 		mov	r3, #6
 2361              		.loc 1 769 0
 2362 00fc 48B08DE2 		add	fp, sp, #72
 2363 0100 10602BE5 		str	r6, [fp, #-16]!
 2364              		.loc 1 773 0
 2365 0104 02A089E2 		add	r10, r9, #2
 2366              		.loc 1 774 0
 2367 0108 498F85E2 		add	r8, r5, #292
 2368              		.loc 1 771 0
 2369 010c 08608DE5 		str	r6, [sp, #8]
 2370 0110 0610A0E1 		mov	r1, r6
 2371 0114 0C008DE5 		str	r0, [sp, #12]
 2372 0118 04208DE5 		str	r2, [sp, #4]
 2373 011c 00308DE5 		str	r3, [sp]
 2374 0120 10B08DE5 		str	fp, [sp, #16]
 2375 0124 0A20A0E1 		mov	r2, r10
 2376 0128 0830A0E1 		mov	r3, r8
 2377 012c 0500A0E1 		mov	r0, r5
 2378 0130 FEFFFFEB 		bl	enable_ref_spads
 2379              	.LVL331:
 2380              		.loc 1 782 0
 2381 0134 006050E2 		subs	r6, r0, #0
 2382 0138 C4FFFF1A 		bne	.L219
 2383              		.loc 1 785 0
 2384 013c 36108DE2 		add	r1, sp, #54
 2385 0140 0500A0E1 		mov	r0, r5
 2386              	.LVL332:
 2387              		.loc 1 783 0
 2388 0144 38409DE5 		ldr	r4, [sp, #56]
 2389              	.LVL333:
 2390              		.loc 1 785 0
 2391 0148 FEFFFFEB 		bl	perform_ref_signal_measurement
 2392              	.LVL334:
 2393              		.loc 1 787 0
 2394 014c 006050E2 		subs	r6, r0, #0
ARM GAS  /var/folders/3j/4xdnk5197cv_b7cw3n33qk7r0000gn/T//ccSq9Yz5.s 			page 43


 2395 0150 BEFFFF1A 		bne	.L219
 2396              		.loc 1 788 0 discriminator 1
 2397 0154 B633DDE1 		ldrh	r3, [sp, #54]
 2398              		.loc 1 787 0 discriminator 1
 2399 0158 070053E1 		cmp	r3, r7
 2400 015c 2200009A 		bls	.L226
 2401              	.LVL335:
 2402              		.loc 1 797 0
 2403 0160 B43084E2 		add	r3, r4, #180
 2404              	.LBB56:
 2405              	.LBB57:
 2406              		.loc 1 456 0
 2407 0164 60129FE5 		ldr	r1, .L242
 2408              		.loc 1 455 0
 2409 0168 2333A0E1 		lsr	r3, r3, #6
 2410              		.loc 1 456 0
 2411 016c 032191E7 		ldr	r2, [r1, r3, lsl #2]
 2412              	.LBE57:
 2413              	.LBE56:
 2414              		.loc 1 793 0
 2415 0170 0030A0E3 		mov	r3, #0
 2416              		.loc 1 798 0
 2417 0174 2B0054E3 		cmp	r4, #43
 2418 0178 03005291 		cmpls	r2, r3
 2419              		.loc 1 793 0
 2420 017c 243185E5 		str	r3, [r5, #292]
 2421 0180 B030C9E1 		strh	r3, [r9]	@ movhi
 2422              	.LVL336:
 2423              		.loc 1 783 0
 2424 0184 0430A011 		movne	r3, r4
 2425              		.loc 1 798 0
 2426 0188 0700001A 		bne	.L221
 2427              	.LVL337:
 2428              	.L222:
 2429              	.LBB59:
 2430              	.LBB58:
 2431              		.loc 1 455 0
 2432 018c B53084E2 		add	r3, r4, #181
 2433 0190 2333A0E1 		lsr	r3, r3, #6
 2434              		.loc 1 456 0
 2435 0194 032191E7 		ldr	r2, [r1, r3, lsl #2]
 2436              	.LBE58:
 2437              	.LBE59:
 2438              		.loc 1 799 0
 2439 0198 013084E2 		add	r3, r4, #1
 2440              	.LVL338:
 2441              		.loc 1 798 0
 2442 019c 2B0053E3 		cmp	r3, #43
 2443 01a0 00005293 		cmpls	r2, #0
 2444 01a4 0340A0E1 		mov	r4, r3
 2445 01a8 F7FFFF0A 		beq	.L222
 2446              	.LVL339:
 2447              	.L221:
 2448              		.loc 1 804 0
 2449 01ac B410A0E3 		mov	r1, #180
 2450 01b0 0620A0E3 		mov	r2, #6
 2451 01b4 0390A0E3 		mov	r9, #3
ARM GAS  /var/folders/3j/4xdnk5197cv_b7cw3n33qk7r0000gn/T//ccSq9Yz5.s 			page 44


 2452 01b8 00208DE5 		str	r2, [sp]
 2453 01bc 0A0A8DE9 		stmib	sp, {r1, r3, r9, fp}
 2454 01c0 0A20A0E1 		mov	r2, r10
 2455 01c4 0830A0E1 		mov	r3, r8
 2456 01c8 0110A0E3 		mov	r1, #1
 2457 01cc 0500A0E1 		mov	r0, r5
 2458              	.LVL340:
 2459 01d0 FEFFFFEB 		bl	enable_ref_spads
 2460              	.LVL341:
 2461              		.loc 1 814 0
 2462 01d4 000050E3 		cmp	r0, #0
 2463              	.LVL342:
 2464 01d8 6D00000A 		beq	.L240
 2465              	.LVL343:
 2466              	.L235:
 2467 01dc 0060A0E1 		mov	r6, r0
 2468              		.loc 1 941 0
 2469 01e0 0600A0E1 		mov	r0, r6
 2470 01e4 4CD08DE2 		add	sp, sp, #76
 2471              		.cfi_remember_state
 2472              		.cfi_def_cfa_offset 36
 2473              		@ sp needed
 2474 01e8 F08FBDE8 		pop	{r4, r5, r6, r7, r8, r9, r10, fp, pc}
 2475              	.LVL344:
 2476              	.L226:
 2477              		.cfi_restore_state
 2478              		.loc 1 699 0
 2479 01ec 0020A0E3 		mov	r2, #0
 2480              		.loc 1 698 0
 2481 01f0 0290A0E1 		mov	r9, r2
 2482              		.loc 1 699 0
 2483 01f4 2C208DE5 		str	r2, [sp, #44]
 2484              	.LVL345:
 2485              	.L220:
 2486              		.loc 1 836 0 discriminator 1
 2487 01f8 030057E1 		cmp	r7, r3
 2488 01fc 4E00009A 		bls	.L223
 2489              		.loc 1 848 0
 2490 0200 073043E0 		sub	r3, r3, r7
 2491 0204 000053E3 		cmp	r3, #0
 2492 0208 003063B2 		rsblt	r3, r3, #0
 2493 020c 1C308DE5 		str	r3, [sp, #28]
 2494              		.loc 1 846 0
 2495 0210 B430D8E1 		ldrh	r3, [r8, #4]	@ unaligned
 2496 0214 28608DE5 		str	r6, [sp, #40]
 2497 0218 B434CDE1 		strh	r3, [sp, #68]	@ unaligned
 2498              		.loc 1 843 0
 2499 021c 0230A0E1 		mov	r3, r2
 2500              		.loc 1 844 0
 2501 0220 03B0A0E3 		mov	fp, #3
 2502 0224 0360A0E1 		mov	r6, r3
 2503              		.loc 1 846 0
 2504 0228 000098E5 		ldr	r0, [r8]	@ unaligned
 2505              		.loc 1 843 0
 2506 022c 7220EFE6 		uxtb	r2, r2
 2507              		.loc 1 846 0
 2508 0230 40008DE5 		str	r0, [sp, #64]
ARM GAS  /var/folders/3j/4xdnk5197cv_b7cw3n33qk7r0000gn/T//ccSq9Yz5.s 			page 45


 2509              		.loc 1 843 0
 2510 0234 2C208DE5 		str	r2, [sp, #44]
 2511              	.LVL346:
 2512              	.L225:
 2513              		.loc 1 853 0
 2514 0238 0420A0E1 		mov	r2, r4
 2515 023c 3C308DE2 		add	r3, sp, #60
 2516 0240 0610A0E3 		mov	r1, #6
 2517 0244 0A00A0E1 		mov	r0, r10
 2518 0248 FEFFFFEB 		bl	get_next_good_spad
 2519              	.LVL347:
 2520              		.loc 1 858 0
 2521 024c 3C409DE5 		ldr	r4, [sp, #60]
 2522              	.LVL348:
 2523              		.loc 1 875 0
 2524 0250 01908BE2 		add	r9, fp, #1
 2525              	.LVL349:
 2526              		.loc 1 866 0
 2527 0254 B43084E2 		add	r3, r4, #180
 2528              		.loc 1 858 0
 2529 0258 010074E3 		cmn	r4, #1
 2530              	.LBB60:
 2531              	.LBB61:
 2532              		.loc 1 455 0
 2533 025c 2333A0E1 		lsr	r3, r3, #6
 2534              	.LBE61:
 2535              	.LBE60:
 2536              		.loc 1 858 0
 2537 0260 0700000A 		beq	.L233
 2538              	.LBB63:
 2539              	.LBB62:
 2540              		.loc 1 456 0
 2541 0264 60219FE5 		ldr	r2, .L242
 2542 0268 033192E7 		ldr	r3, [r2, r3, lsl #2]
 2543 026c 003093E2 		adds	r3, r3, #0
 2544 0270 0130A013 		movne	r3, #1
 2545              	.LBE62:
 2546              	.LBE63:
 2547              		.loc 1 866 0
 2548 0274 060053E1 		cmp	r3, r6
 2549 0278 4200001A 		bne	.L232
 2550              	.LBB64:
 2551              	.LBB65:
 2552              		.loc 1 473 0
 2553 027c 2F0054E3 		cmp	r4, #47
 2554 0280 0300009A 		bls	.L241
 2555              	.L233:
 2556              	.LBE65:
 2557              	.LBE64:
 2558              		.loc 1 859 0
 2559 0284 3160E0E3 		mvn	r6, #49
 2560              		.loc 1 941 0
 2561 0288 0600A0E1 		mov	r0, r6
 2562 028c 4CD08DE2 		add	sp, sp, #76
 2563              		.cfi_remember_state
 2564              		.cfi_def_cfa_offset 36
 2565              		@ sp needed
ARM GAS  /var/folders/3j/4xdnk5197cv_b7cw3n33qk7r0000gn/T//ccSq9Yz5.s 			page 46


 2566 0290 F08FBDE8 		pop	{r4, r5, r6, r7, r8, r9, r10, fp, pc}
 2567              	.LVL350:
 2568              	.L241:
 2569              		.cfi_restore_state
 2570              	.LBB67:
 2571              	.LBB66:
 2572              		.loc 1 476 0
 2573 0294 0110A0E3 		mov	r1, #1
 2574 0298 A431D8E7 		ldrb	r3, [r8, r4, lsr #3]	@ zero_extendqisi2
 2575              		.loc 1 472 0
 2576 029c 072004E2 		and	r2, r4, #7
 2577              		.loc 1 476 0
 2578 02a0 113283E1 		orr	r3, r3, r1, lsl r2
 2579 02a4 A431C8E7 		strb	r3, [r8, r4, lsr #3]
 2580              	.LVL351:
 2581              	.LBE66:
 2582              	.LBE67:
 2583              	.LBB68:
 2584              	.LBB69:
 2585              		.loc 1 541 0
 2586 02a8 0820A0E1 		mov	r2, r8
 2587 02ac 0630A0E3 		mov	r3, #6
 2588 02b0 B010A0E3 		mov	r1, #176
 2589 02b4 0500A0E1 		mov	r0, r5
 2590 02b8 FEFFFFEB 		bl	VL53L0X_WriteMulti
 2591              	.LVL352:
 2592              	.LBE69:
 2593              	.LBE68:
 2594              		.loc 1 890 0
 2595 02bc 000050E3 		cmp	r0, #0
 2596              		.loc 1 883 0
 2597 02c0 014084E2 		add	r4, r4, #1
 2598              	.LVL353:
 2599              		.loc 1 890 0
 2600 02c4 C4FFFF1A 		bne	.L235
 2601              		.loc 1 893 0
 2602 02c8 36108DE2 		add	r1, sp, #54
 2603 02cc 0500A0E1 		mov	r0, r5
 2604 02d0 FEFFFFEB 		bl	perform_ref_signal_measurement
 2605              	.LVL354:
 2606              		.loc 1 896 0
 2607 02d4 000050E3 		cmp	r0, #0
 2608              	.LVL355:
 2609 02d8 BFFFFF1A 		bne	.L235
 2610              		.loc 1 899 0
 2611 02dc B623DDE1 		ldrh	r2, [sp, #54]
 2612 02e0 073042E0 		sub	r3, r2, r7
 2613 02e4 000053E3 		cmp	r3, #0
 2614 02e8 003063B2 		rsblt	r3, r3, #0
 2615              	.LVL356:
 2616              		.loc 1 901 0
 2617 02ec 070052E1 		cmp	r2, r7
 2618 02f0 1D00009A 		bls	.L224
 2619              		.loc 1 906 0
 2620 02f4 1C209DE5 		ldr	r2, [sp, #28]
 2621 02f8 28609DE5 		ldr	r6, [sp, #40]
 2622 02fc 020053E1 		cmp	r3, r2
ARM GAS  /var/folders/3j/4xdnk5197cv_b7cw3n33qk7r0000gn/T//ccSq9Yz5.s 			page 47


 2623 0300 0D00009A 		bls	.L223
 2624              	.LVL357:
 2625              	.LBB70:
 2626              	.LBB71:
 2627              		.loc 1 541 0
 2628 0304 0630A0E3 		mov	r3, #6
 2629              	.LVL358:
 2630 0308 40208DE2 		add	r2, sp, #64
 2631              	.LVL359:
 2632 030c B010A0E3 		mov	r1, #176
 2633 0310 0500A0E1 		mov	r0, r5
 2634 0314 FEFFFFEB 		bl	VL53L0X_WriteMulti
 2635              	.LVL360:
 2636 0318 0030A0E1 		mov	r3, r0
 2637              	.LVL361:
 2638              	.LBE71:
 2639              	.LBE70:
 2640              		.loc 1 911 0
 2641 031c B424DDE1 		ldrh	r2, [sp, #68]	@ unaligned
 2642 0320 40009DE5 		ldr	r0, [sp, #64]
 2643              		.loc 1 929 0
 2644 0324 000053E3 		cmp	r3, #0
 2645              		.loc 1 911 0
 2646 0328 240185E5 		str	r0, [r5, #292]	@ unaligned
 2647 032c 0360A011 		movne	r6, r3
 2648 0330 B420C8E1 		strh	r2, [r8, #4]	@ unaligned
 2649              	.LVL362:
 2650              		.loc 1 929 0
 2651 0334 45FFFF1A 		bne	.L219
 2652 0338 0B90A0E1 		mov	r9, fp
 2653              	.LVL363:
 2654              	.L223:
 2655              		.loc 1 933 0
 2656 033c 0130A0E3 		mov	r3, #1
 2657              		.loc 1 930 0
 2658 0340 20209DE5 		ldr	r2, [sp, #32]
 2659              		.loc 1 931 0
 2660 0344 24109DE5 		ldr	r1, [sp, #36]
 2661 0348 2C009DE5 		ldr	r0, [sp, #44]
 2662              		.loc 1 930 0
 2663 034c 009082E5 		str	r9, [r2]
 2664              		.loc 1 931 0
 2665 0350 0000C1E5 		strb	r0, [r1]
 2666              		.loc 1 933 0
 2667 0354 1531C5E5 		strb	r3, [r5, #277]
 2668              		.loc 1 934 0
 2669 0358 003092E5 		ldr	r3, [r2]
 2670 035c 1331C5E5 		strb	r3, [r5, #275]
 2671              		.loc 1 936 0
 2672 0360 0030D1E5 		ldrb	r3, [r1]	@ zero_extendqisi2
 2673 0364 1431C5E5 		strb	r3, [r5, #276]
 2674 0368 38FFFFEA 		b	.L219
 2675              	.LVL364:
 2676              	.L224:
 2677              		.loc 1 921 0
 2678 036c 000098E5 		ldr	r0, [r8]	@ unaligned
 2679 0370 B420D8E1 		ldrh	r2, [r8, #4]	@ unaligned
ARM GAS  /var/folders/3j/4xdnk5197cv_b7cw3n33qk7r0000gn/T//ccSq9Yz5.s 			page 48


 2680              		.loc 1 899 0
 2681 0374 1C308DE5 		str	r3, [sp, #28]
 2682              		.loc 1 875 0
 2683 0378 09B0A0E1 		mov	fp, r9
 2684              		.loc 1 921 0
 2685 037c 40008DE5 		str	r0, [sp, #64]
 2686 0380 B424CDE1 		strh	r2, [sp, #68]	@ unaligned
 2687              	.LVL365:
 2688 0384 ABFFFFEA 		b	.L225
 2689              	.LVL366:
 2690              	.L232:
 2691 0388 28609DE5 		ldr	r6, [sp, #40]
 2692 038c 0B90A0E1 		mov	r9, fp
 2693              	.LVL367:
 2694 0390 E9FFFFEA 		b	.L223
 2695              	.LVL368:
 2696              	.L240:
 2697              		.loc 1 816 0
 2698 0394 36108DE2 		add	r1, sp, #54
 2699 0398 0500A0E1 		mov	r0, r5
 2700              		.loc 1 815 0
 2701 039c 38409DE5 		ldr	r4, [sp, #56]
 2702              	.LVL369:
 2703              		.loc 1 816 0
 2704 03a0 FEFFFFEB 		bl	perform_ref_signal_measurement
 2705              	.LVL370:
 2706              		.loc 1 819 0
 2707 03a4 000050E3 		cmp	r0, #0
 2708              	.LVL371:
 2709 03a8 8BFFFF1A 		bne	.L235
 2710              		.loc 1 820 0 discriminator 1
 2711 03ac B633DDE1 		ldrh	r3, [sp, #54]
 2712              		.loc 1 819 0 discriminator 1
 2713 03b0 070053E1 		cmp	r3, r7
 2714              		.loc 1 827 0 discriminator 1
 2715 03b4 0120A083 		movhi	r2, #1
 2716 03b8 2C208D85 		strhi	r2, [sp, #44]
 2717              		.loc 1 819 0 discriminator 1
 2718              		.loc 1 699 0
 2719 03bc 2C008D95 		strls	r0, [sp, #44]
 2720              		.loc 1 802 0
 2721 03c0 0120A093 		movls	r2, #1
 2722              		.loc 1 698 0
 2723 03c4 0090A091 		movls	r9, r0
 2724 03c8 8AFFFFEA 		b	.L220
 2725              	.L243:
 2726              		.align	2
 2727              	.L242:
 2728 03cc 00000000 		.word	.LANCHOR0
 2729              		.cfi_endproc
 2730              	.LFE16:
 2731              		.size	VL53L0X_perform_ref_spad_management, .-VL53L0X_perform_ref_spad_management
 2732              		.section	.text.VL53L0X_set_ref_calibration,"ax",%progbits
 2733              		.align	2
 2734              		.global	VL53L0X_set_ref_calibration
 2735              		.syntax unified
 2736              		.arm
ARM GAS  /var/folders/3j/4xdnk5197cv_b7cw3n33qk7r0000gn/T//ccSq9Yz5.s 			page 49


 2737              		.fpu softvfp
 2738              		.type	VL53L0X_set_ref_calibration, %function
 2739              	VL53L0X_set_ref_calibration:
 2740              	.LFB24:
 2741              		.loc 1 1250 0
 2742              		.cfi_startproc
 2743              		@ args = 0, pretend = 0, frame = 8
 2744              		@ frame_needed = 0, uses_anonymous_args = 0
 2745              	.LVL372:
 2746              		.loc 1 1255 0
 2747 0000 01C0A0E3 		mov	ip, #1
 2748              		.loc 1 1250 0
 2749 0004 10402DE9 		push	{r4, lr}
 2750              		.cfi_def_cfa_offset 8
 2751              		.cfi_offset 4, -8
 2752              		.cfi_offset 14, -4
 2753 0008 18D04DE2 		sub	sp, sp, #24
 2754              		.cfi_def_cfa_offset 32
 2755              		.loc 1 1255 0
 2756 000c 16E08DE2 		add	lr, sp, #22
 2757 0010 17408DE2 		add	r4, sp, #23
 2758 0014 0230A0E1 		mov	r3, r2
 2759 0018 0CC08DE5 		str	ip, [sp, #12]
 2760 001c 0120A0E1 		mov	r2, r1
 2761              	.LVL373:
 2762 0020 10108DE9 		stmib	sp, {r4, ip}
 2763 0024 00E08DE5 		str	lr, [sp]
 2764 0028 0010A0E3 		mov	r1, #0
 2765              	.LVL374:
 2766 002c FEFFFFEB 		bl	VL53L0X_ref_calibration_io
 2767              	.LVL375:
 2768              		.loc 1 1261 0
 2769 0030 18D08DE2 		add	sp, sp, #24
 2770              		.cfi_def_cfa_offset 8
 2771              		@ sp needed
 2772 0034 1080BDE8 		pop	{r4, pc}
 2773              		.cfi_endproc
 2774              	.LFE24:
 2775              		.size	VL53L0X_set_ref_calibration, .-VL53L0X_set_ref_calibration
 2776              		.section	.text.VL53L0X_get_ref_calibration,"ax",%progbits
 2777              		.align	2
 2778              		.global	VL53L0X_get_ref_calibration
 2779              		.syntax unified
 2780              		.arm
 2781              		.fpu softvfp
 2782              		.type	VL53L0X_get_ref_calibration, %function
 2783              	VL53L0X_get_ref_calibration:
 2784              	.LFB25:
 2785              		.loc 1 1265 0
 2786              		.cfi_startproc
 2787              		@ args = 0, pretend = 0, frame = 0
 2788              		@ frame_needed = 0, uses_anonymous_args = 0
 2789              	.LVL376:
 2790              		.loc 1 1270 0
 2791 0000 01C0A0E3 		mov	ip, #1
 2792 0004 0030A0E3 		mov	r3, #0
 2793              		.loc 1 1265 0
ARM GAS  /var/folders/3j/4xdnk5197cv_b7cw3n33qk7r0000gn/T//ccSq9Yz5.s 			page 50


 2794 0008 04E02DE5 		str	lr, [sp, #-4]!
 2795              		.cfi_def_cfa_offset 4
 2796              		.cfi_offset 14, -4
 2797 000c 14D04DE2 		sub	sp, sp, #20
 2798              		.cfi_def_cfa_offset 24
 2799              		.loc 1 1270 0
 2800 0010 06008DE8 		stm	sp, {r1, r2}
 2801 0014 0CC08DE5 		str	ip, [sp, #12]
 2802 0018 08C08DE5 		str	ip, [sp, #8]
 2803 001c 0C10A0E1 		mov	r1, ip
 2804              	.LVL377:
 2805 0020 0320A0E1 		mov	r2, r3
 2806              	.LVL378:
 2807 0024 FEFFFFEB 		bl	VL53L0X_ref_calibration_io
 2808              	.LVL379:
 2809              		.loc 1 1276 0
 2810 0028 14D08DE2 		add	sp, sp, #20
 2811              		.cfi_def_cfa_offset 4
 2812              		@ sp needed
 2813 002c 04F09DE4 		ldr	pc, [sp], #4
 2814              		.cfi_endproc
 2815              	.LFE25:
 2816              		.size	VL53L0X_get_ref_calibration, .-VL53L0X_get_ref_calibration
 2817              		.global	refArrayQuadrants
 2818              		.section	.data.refArrayQuadrants,"aw",%progbits
 2819              		.align	2
 2820              		.set	.LANCHOR0,. + 0
 2821              		.type	refArrayQuadrants, %object
 2822              		.size	refArrayQuadrants, 16
 2823              	refArrayQuadrants:
 2824 0000 0A000000 		.word	10
 2825 0004 05000000 		.word	5
 2826 0008 00000000 		.word	0
 2827 000c 05000000 		.word	5
 2828              		.text
 2829              	.Letext0:
 2830              		.file 2 "/usr/local/Cellar/gcc-arm-none-eabi/20180627/arm-none-eabi/include/machine/_default_types
 2831              		.file 3 "/usr/local/Cellar/gcc-arm-none-eabi/20180627/arm-none-eabi/include/sys/_stdint.h"
 2832              		.file 4 "..//VL53L0X_Api/platform/inc/vl53l0x_types.h"
 2833              		.file 5 "..//VL53L0X_Api/core/inc/vl53l0x_device.h"
 2834              		.file 6 "..//VL53L0X_Api/core/inc/vl53l0x_def.h"
 2835              		.file 7 "/usr/local/Cellar/gcc-arm-none-eabi/20180627/arm-none-eabi/include/sys/lock.h"
 2836              		.file 8 "/usr/local/Cellar/gcc-arm-none-eabi/20180627/arm-none-eabi/include/sys/_types.h"
 2837              		.file 9 "/usr/local/Cellar/gcc-arm-none-eabi/20180627/lib/gcc/arm-none-eabi/7.3.1/include/stddef.h
 2838              		.file 10 "/usr/local/Cellar/gcc-arm-none-eabi/20180627/arm-none-eabi/include/sys/reent.h"
 2839              		.file 11 "..//VL53L0X_Api/platform/inc/vl53l0x_platform.h"
 2840              		.file 12 "/usr/local/Cellar/gcc-arm-none-eabi/20180627/arm-none-eabi/include/stdlib.h"
 2841              		.file 13 "..//VL53L0X_Api/core/inc/vl53l0x_api.h"
 2842              		.file 14 "..//VL53L0X_Api/core/inc/vl53l0x_api_core.h"
 2843              		.section	.debug_info,"",%progbits
 2844              	.Ldebug_info0:
 2845 0000 AA2A0000 		.4byte	0x2aaa
 2846 0004 0400     		.2byte	0x4
 2847 0006 00000000 		.4byte	.Ldebug_abbrev0
 2848 000a 04       		.byte	0x4
 2849 000b 01       		.uleb128 0x1
 2850 000c A1000000 		.4byte	.LASF377
ARM GAS  /var/folders/3j/4xdnk5197cv_b7cw3n33qk7r0000gn/T//ccSq9Yz5.s 			page 51


 2851 0010 0C       		.byte	0xc
 2852 0011 F90A0000 		.4byte	.LASF378
 2853 0015 A20F0000 		.4byte	.LASF379
 2854 0019 D8000000 		.4byte	.Ldebug_ranges0+0xd8
 2855 001d 00000000 		.4byte	0
 2856 0021 00000000 		.4byte	.Ldebug_line0
 2857 0025 02       		.uleb128 0x2
 2858 0026 04       		.byte	0x4
 2859 0027 07       		.byte	0x7
 2860 0028 3C020000 		.4byte	.LASF0
 2861 002c 03       		.uleb128 0x3
 2862 002d 8F0E0000 		.4byte	.LASF2
 2863 0031 02       		.byte	0x2
 2864 0032 29       		.byte	0x29
 2865 0033 37000000 		.4byte	0x37
 2866 0037 02       		.uleb128 0x2
 2867 0038 01       		.byte	0x1
 2868 0039 06       		.byte	0x6
 2869 003a 61150000 		.4byte	.LASF1
 2870 003e 03       		.uleb128 0x3
 2871 003f A6110000 		.4byte	.LASF3
 2872 0043 02       		.byte	0x2
 2873 0044 2B       		.byte	0x2b
 2874 0045 49000000 		.4byte	0x49
 2875 0049 02       		.uleb128 0x2
 2876 004a 01       		.byte	0x1
 2877 004b 08       		.byte	0x8
 2878 004c A1130000 		.4byte	.LASF4
 2879 0050 03       		.uleb128 0x3
 2880 0051 000D0000 		.4byte	.LASF5
 2881 0055 02       		.byte	0x2
 2882 0056 37       		.byte	0x37
 2883 0057 5B000000 		.4byte	0x5b
 2884 005b 02       		.uleb128 0x2
 2885 005c 02       		.byte	0x2
 2886 005d 05       		.byte	0x5
 2887 005e 32100000 		.4byte	.LASF6
 2888 0062 03       		.uleb128 0x3
 2889 0063 E2060000 		.4byte	.LASF7
 2890 0067 02       		.byte	0x2
 2891 0068 39       		.byte	0x39
 2892 0069 6D000000 		.4byte	0x6d
 2893 006d 02       		.uleb128 0x2
 2894 006e 02       		.byte	0x2
 2895 006f 07       		.byte	0x7
 2896 0070 82150000 		.4byte	.LASF8
 2897 0074 03       		.uleb128 0x3
 2898 0075 F0020000 		.4byte	.LASF9
 2899 0079 02       		.byte	0x2
 2900 007a 4D       		.byte	0x4d
 2901 007b 7F000000 		.4byte	0x7f
 2902 007f 02       		.uleb128 0x2
 2903 0080 04       		.byte	0x4
 2904 0081 05       		.byte	0x5
 2905 0082 69100000 		.4byte	.LASF10
 2906 0086 03       		.uleb128 0x3
 2907 0087 D5130000 		.4byte	.LASF11
ARM GAS  /var/folders/3j/4xdnk5197cv_b7cw3n33qk7r0000gn/T//ccSq9Yz5.s 			page 52


 2908 008b 02       		.byte	0x2
 2909 008c 4F       		.byte	0x4f
 2910 008d 91000000 		.4byte	0x91
 2911 0091 02       		.uleb128 0x2
 2912 0092 04       		.byte	0x4
 2913 0093 07       		.byte	0x7
 2914 0094 CE120000 		.4byte	.LASF12
 2915 0098 02       		.uleb128 0x2
 2916 0099 08       		.byte	0x8
 2917 009a 05       		.byte	0x5
 2918 009b FD0B0000 		.4byte	.LASF13
 2919 009f 02       		.uleb128 0x2
 2920 00a0 08       		.byte	0x8
 2921 00a1 07       		.byte	0x7
 2922 00a2 57060000 		.4byte	.LASF14
 2923 00a6 04       		.uleb128 0x4
 2924 00a7 04       		.byte	0x4
 2925 00a8 05       		.byte	0x5
 2926 00a9 696E7400 		.ascii	"int\000"
 2927 00ad 03       		.uleb128 0x3
 2928 00ae 13050000 		.4byte	.LASF15
 2929 00b2 03       		.byte	0x3
 2930 00b3 14       		.byte	0x14
 2931 00b4 2C000000 		.4byte	0x2c
 2932 00b8 03       		.uleb128 0x3
 2933 00b9 F10A0000 		.4byte	.LASF16
 2934 00bd 03       		.byte	0x3
 2935 00be 18       		.byte	0x18
 2936 00bf 3E000000 		.4byte	0x3e
 2937 00c3 05       		.uleb128 0x5
 2938 00c4 B8000000 		.4byte	0xb8
 2939 00c8 03       		.uleb128 0x3
 2940 00c9 E6050000 		.4byte	.LASF17
 2941 00cd 03       		.byte	0x3
 2942 00ce 20       		.byte	0x20
 2943 00cf 50000000 		.4byte	0x50
 2944 00d3 03       		.uleb128 0x3
 2945 00d4 0B0F0000 		.4byte	.LASF18
 2946 00d8 03       		.byte	0x3
 2947 00d9 24       		.byte	0x24
 2948 00da 62000000 		.4byte	0x62
 2949 00de 03       		.uleb128 0x3
 2950 00df 2A130000 		.4byte	.LASF19
 2951 00e3 03       		.byte	0x3
 2952 00e4 2C       		.byte	0x2c
 2953 00e5 74000000 		.4byte	0x74
 2954 00e9 03       		.uleb128 0x3
 2955 00ea 0A050000 		.4byte	.LASF20
 2956 00ee 03       		.byte	0x3
 2957 00ef 30       		.byte	0x30
 2958 00f0 86000000 		.4byte	0x86
 2959 00f4 02       		.uleb128 0x2
 2960 00f5 08       		.byte	0x8
 2961 00f6 04       		.byte	0x4
 2962 00f7 E80E0000 		.4byte	.LASF21
 2963 00fb 03       		.uleb128 0x3
 2964 00fc D8040000 		.4byte	.LASF22
ARM GAS  /var/folders/3j/4xdnk5197cv_b7cw3n33qk7r0000gn/T//ccSq9Yz5.s 			page 53


 2965 0100 04       		.byte	0x4
 2966 0101 6D       		.byte	0x6d
 2967 0102 E9000000 		.4byte	0xe9
 2968 0106 03       		.uleb128 0x3
 2969 0107 A8050000 		.4byte	.LASF23
 2970 010b 05       		.byte	0x5
 2971 010c 36       		.byte	0x36
 2972 010d B8000000 		.4byte	0xb8
 2973 0111 03       		.uleb128 0x3
 2974 0112 2C0B0000 		.4byte	.LASF24
 2975 0116 05       		.byte	0x5
 2976 0117 64       		.byte	0x64
 2977 0118 B8000000 		.4byte	0xb8
 2978 011c 06       		.uleb128 0x6
 2979 011d 2C010000 		.4byte	0x12c
 2980 0121 2C010000 		.4byte	0x12c
 2981 0125 07       		.uleb128 0x7
 2982 0126 25000000 		.4byte	0x25
 2983 012a 1F       		.byte	0x1f
 2984 012b 00       		.byte	0
 2985 012c 02       		.uleb128 0x2
 2986 012d 01       		.byte	0x1
 2987 012e 08       		.byte	0x8
 2988 012f EE090000 		.4byte	.LASF25
 2989 0133 05       		.uleb128 0x5
 2990 0134 2C010000 		.4byte	0x12c
 2991 0138 03       		.uleb128 0x3
 2992 0139 FD110000 		.4byte	.LASF26
 2993 013d 06       		.byte	0x6
 2994 013e 83       		.byte	0x83
 2995 013f AD000000 		.4byte	0xad
 2996 0143 03       		.uleb128 0x3
 2997 0144 3D0C0000 		.4byte	.LASF27
 2998 0148 06       		.byte	0x6
 2999 0149 B5       		.byte	0xb5
 3000 014a B8000000 		.4byte	0xb8
 3001 014e 03       		.uleb128 0x3
 3002 014f A60B0000 		.4byte	.LASF28
 3003 0153 06       		.byte	0x6
 3004 0154 C7       		.byte	0xc7
 3005 0155 B8000000 		.4byte	0xb8
 3006 0159 03       		.uleb128 0x3
 3007 015a 85020000 		.4byte	.LASF29
 3008 015e 06       		.byte	0x6
 3009 015f DA       		.byte	0xda
 3010 0160 B8000000 		.4byte	0xb8
 3011 0164 08       		.uleb128 0x8
 3012 0165 40       		.byte	0x40
 3013 0166 06       		.byte	0x6
 3014 0167 EA       		.byte	0xea
 3015 0168 00020000 		.4byte	0x200
 3016 016c 09       		.uleb128 0x9
 3017 016d C00E0000 		.4byte	.LASF30
 3018 0171 06       		.byte	0x6
 3019 0172 EB       		.byte	0xeb
 3020 0173 43010000 		.4byte	0x143
 3021 0177 00       		.byte	0
ARM GAS  /var/folders/3j/4xdnk5197cv_b7cw3n33qk7r0000gn/T//ccSq9Yz5.s 			page 54


 3022 0178 09       		.uleb128 0x9
 3023 0179 6E010000 		.4byte	.LASF31
 3024 017d 06       		.byte	0x6
 3025 017e ED       		.byte	0xed
 3026 017f 4E010000 		.4byte	0x14e
 3027 0183 01       		.byte	0x1
 3028 0184 09       		.uleb128 0x9
 3029 0185 430A0000 		.4byte	.LASF32
 3030 0189 06       		.byte	0x6
 3031 018a F0       		.byte	0xf0
 3032 018b E9000000 		.4byte	0xe9
 3033 018f 04       		.byte	0x4
 3034 0190 09       		.uleb128 0x9
 3035 0191 09080000 		.4byte	.LASF33
 3036 0195 06       		.byte	0x6
 3037 0196 F2       		.byte	0xf2
 3038 0197 E9000000 		.4byte	0xe9
 3039 019b 08       		.byte	0x8
 3040 019c 09       		.uleb128 0x9
 3041 019d BD010000 		.4byte	.LASF34
 3042 01a1 06       		.byte	0x6
 3043 01a2 F5       		.byte	0xf5
 3044 01a3 B8000000 		.4byte	0xb8
 3045 01a7 0C       		.byte	0xc
 3046 01a8 09       		.uleb128 0x9
 3047 01a9 49020000 		.4byte	.LASF35
 3048 01ad 06       		.byte	0x6
 3049 01ae F7       		.byte	0xf7
 3050 01af D3000000 		.4byte	0xd3
 3051 01b3 0E       		.byte	0xe
 3052 01b4 09       		.uleb128 0x9
 3053 01b5 CB0E0000 		.4byte	.LASF36
 3054 01b9 06       		.byte	0x6
 3055 01ba F9       		.byte	0xf9
 3056 01bb FB000000 		.4byte	0xfb
 3057 01bf 10       		.byte	0x10
 3058 01c0 09       		.uleb128 0x9
 3059 01c1 ED080000 		.4byte	.LASF37
 3060 01c5 06       		.byte	0x6
 3061 01c6 FC       		.byte	0xfc
 3062 01c7 DE000000 		.4byte	0xde
 3063 01cb 14       		.byte	0x14
 3064 01cc 09       		.uleb128 0x9
 3065 01cd AF020000 		.4byte	.LASF38
 3066 01d1 06       		.byte	0x6
 3067 01d2 FF       		.byte	0xff
 3068 01d3 00020000 		.4byte	0x200
 3069 01d7 18       		.byte	0x18
 3070 01d8 0A       		.uleb128 0xa
 3071 01d9 22040000 		.4byte	.LASF39
 3072 01dd 06       		.byte	0x6
 3073 01de 0101     		.2byte	0x101
 3074 01e0 00020000 		.4byte	0x200
 3075 01e4 1E       		.byte	0x1e
 3076 01e5 0A       		.uleb128 0xa
 3077 01e6 84080000 		.4byte	.LASF40
 3078 01ea 06       		.byte	0x6
ARM GAS  /var/folders/3j/4xdnk5197cv_b7cw3n33qk7r0000gn/T//ccSq9Yz5.s 			page 55


 3079 01eb 0401     		.2byte	0x104
 3080 01ed 10020000 		.4byte	0x210
 3081 01f1 24       		.byte	0x24
 3082 01f2 0A       		.uleb128 0xa
 3083 01f3 DB030000 		.4byte	.LASF41
 3084 01f7 06       		.byte	0x6
 3085 01f8 0701     		.2byte	0x107
 3086 01fa B8000000 		.4byte	0xb8
 3087 01fe 3C       		.byte	0x3c
 3088 01ff 00       		.byte	0
 3089 0200 06       		.uleb128 0x6
 3090 0201 B8000000 		.4byte	0xb8
 3091 0205 10020000 		.4byte	0x210
 3092 0209 07       		.uleb128 0x7
 3093 020a 25000000 		.4byte	0x25
 3094 020e 05       		.byte	0x5
 3095 020f 00       		.byte	0
 3096 0210 06       		.uleb128 0x6
 3097 0211 FB000000 		.4byte	0xfb
 3098 0215 20020000 		.4byte	0x220
 3099 0219 07       		.uleb128 0x7
 3100 021a 25000000 		.4byte	0x25
 3101 021e 05       		.byte	0x5
 3102 021f 00       		.byte	0
 3103 0220 0B       		.uleb128 0xb
 3104 0221 86050000 		.4byte	.LASF42
 3105 0225 06       		.byte	0x6
 3106 0226 0901     		.2byte	0x109
 3107 0228 64010000 		.4byte	0x164
 3108 022c 0B       		.uleb128 0xb
 3109 022d 6E0E0000 		.4byte	.LASF43
 3110 0231 06       		.byte	0x6
 3111 0232 1101     		.2byte	0x111
 3112 0234 B8000000 		.4byte	0xb8
 3113 0238 0C       		.uleb128 0xc
 3114 0239 08       		.byte	0x8
 3115 023a 06       		.byte	0x6
 3116 023b 2701     		.2byte	0x127
 3117 023d 5C020000 		.4byte	0x25c
 3118 0241 0A       		.uleb128 0xa
 3119 0242 6E060000 		.4byte	.LASF44
 3120 0246 06       		.byte	0x6
 3121 0247 2801     		.2byte	0x128
 3122 0249 DE000000 		.4byte	0xde
 3123 024d 00       		.byte	0
 3124 024e 0A       		.uleb128 0xa
 3125 024f 560D0000 		.4byte	.LASF45
 3126 0253 06       		.byte	0x6
 3127 0254 2A01     		.2byte	0x12a
 3128 0256 DE000000 		.4byte	0xde
 3129 025a 04       		.byte	0x4
 3130 025b 00       		.byte	0
 3131 025c 0B       		.uleb128 0xb
 3132 025d 7C0E0000 		.4byte	.LASF46
 3133 0261 06       		.byte	0x6
 3134 0262 2C01     		.2byte	0x12c
 3135 0264 38020000 		.4byte	0x238
ARM GAS  /var/folders/3j/4xdnk5197cv_b7cw3n33qk7r0000gn/T//ccSq9Yz5.s 			page 56


 3136 0268 0C       		.uleb128 0xc
 3137 0269 1C       		.byte	0x1c
 3138 026a 06       		.byte	0x6
 3139 026b 3201     		.2byte	0x132
 3140 026d F4020000 		.4byte	0x2f4
 3141 0271 0A       		.uleb128 0xa
 3142 0272 06170000 		.4byte	.LASF47
 3143 0276 06       		.byte	0x6
 3144 0277 3301     		.2byte	0x133
 3145 0279 E9000000 		.4byte	0xe9
 3146 027d 00       		.byte	0
 3147 027e 0A       		.uleb128 0xa
 3148 027f A9090000 		.4byte	.LASF48
 3149 0283 06       		.byte	0x6
 3150 0284 3401     		.2byte	0x134
 3151 0286 E9000000 		.4byte	0xe9
 3152 028a 04       		.byte	0x4
 3153 028b 0A       		.uleb128 0xa
 3154 028c C8150000 		.4byte	.LASF49
 3155 0290 06       		.byte	0x6
 3156 0291 3901     		.2byte	0x139
 3157 0293 D3000000 		.4byte	0xd3
 3158 0297 08       		.byte	0x8
 3159 0298 0A       		.uleb128 0xa
 3160 0299 34040000 		.4byte	.LASF50
 3161 029d 06       		.byte	0x6
 3162 029e 3B01     		.2byte	0x13b
 3163 02a0 D3000000 		.4byte	0xd3
 3164 02a4 0A       		.byte	0xa
 3165 02a5 0A       		.uleb128 0xa
 3166 02a6 6C000000 		.4byte	.LASF51
 3167 02aa 06       		.byte	0x6
 3168 02ab 4001     		.2byte	0x140
 3169 02ad FB000000 		.4byte	0xfb
 3170 02b1 0C       		.byte	0xc
 3171 02b2 0A       		.uleb128 0xa
 3172 02b3 DA020000 		.4byte	.LASF52
 3173 02b7 06       		.byte	0x6
 3174 02b8 4401     		.2byte	0x144
 3175 02ba FB000000 		.4byte	0xfb
 3176 02be 10       		.byte	0x10
 3177 02bf 0A       		.uleb128 0xa
 3178 02c0 A4070000 		.4byte	.LASF53
 3179 02c4 06       		.byte	0x6
 3180 02c5 4901     		.2byte	0x149
 3181 02c7 D3000000 		.4byte	0xd3
 3182 02cb 14       		.byte	0x14
 3183 02cc 0A       		.uleb128 0xa
 3184 02cd 78110000 		.4byte	.LASF54
 3185 02d1 06       		.byte	0x6
 3186 02d2 4D01     		.2byte	0x14d
 3187 02d4 B8000000 		.4byte	0xb8
 3188 02d8 16       		.byte	0x16
 3189 02d9 0A       		.uleb128 0xa
 3190 02da FD150000 		.4byte	.LASF55
 3191 02de 06       		.byte	0x6
 3192 02df 5001     		.2byte	0x150
ARM GAS  /var/folders/3j/4xdnk5197cv_b7cw3n33qk7r0000gn/T//ccSq9Yz5.s 			page 57


 3193 02e1 B8000000 		.4byte	0xb8
 3194 02e5 17       		.byte	0x17
 3195 02e6 0A       		.uleb128 0xa
 3196 02e7 E80B0000 		.4byte	.LASF56
 3197 02eb 06       		.byte	0x6
 3198 02ec 5301     		.2byte	0x153
 3199 02ee B8000000 		.4byte	0xb8
 3200 02f2 18       		.byte	0x18
 3201 02f3 00       		.byte	0
 3202 02f4 0B       		.uleb128 0xb
 3203 02f5 140F0000 		.4byte	.LASF57
 3204 02f9 06       		.byte	0x6
 3205 02fa 5701     		.2byte	0x157
 3206 02fc 68020000 		.4byte	0x268
 3207 0300 0C       		.uleb128 0xc
 3208 0301 68       		.byte	0x68
 3209 0302 06       		.byte	0x6
 3210 0303 6001     		.2byte	0x160
 3211 0305 58030000 		.4byte	0x358
 3212 0309 0A       		.uleb128 0xa
 3213 030a 76080000 		.4byte	.LASF58
 3214 030e 06       		.byte	0x6
 3215 030f 6201     		.2byte	0x162
 3216 0311 58030000 		.4byte	0x358
 3217 0315 00       		.byte	0
 3218 0316 0A       		.uleb128 0xa
 3219 0317 61050000 		.4byte	.LASF59
 3220 031b 06       		.byte	0x6
 3221 031c 6401     		.2byte	0x164
 3222 031e B8000000 		.4byte	0xb8
 3223 0322 60       		.byte	0x60
 3224 0323 0A       		.uleb128 0xa
 3225 0324 F40B0000 		.4byte	.LASF60
 3226 0328 06       		.byte	0x6
 3227 0329 6601     		.2byte	0x166
 3228 032b B8000000 		.4byte	0xb8
 3229 032f 61       		.byte	0x61
 3230 0330 0A       		.uleb128 0xa
 3231 0331 890A0000 		.4byte	.LASF61
 3232 0335 06       		.byte	0x6
 3233 0336 6701     		.2byte	0x167
 3234 0338 B8000000 		.4byte	0xb8
 3235 033c 62       		.byte	0x62
 3236 033d 0A       		.uleb128 0xa
 3237 033e AF130000 		.4byte	.LASF62
 3238 0342 06       		.byte	0x6
 3239 0343 6801     		.2byte	0x168
 3240 0345 B8000000 		.4byte	0xb8
 3241 0349 63       		.byte	0x63
 3242 034a 0A       		.uleb128 0xa
 3243 034b CE020000 		.4byte	.LASF63
 3244 034f 06       		.byte	0x6
 3245 0350 6B01     		.2byte	0x16b
 3246 0352 06010000 		.4byte	0x106
 3247 0356 64       		.byte	0x64
 3248 0357 00       		.byte	0
 3249 0358 06       		.uleb128 0x6
ARM GAS  /var/folders/3j/4xdnk5197cv_b7cw3n33qk7r0000gn/T//ccSq9Yz5.s 			page 58


 3250 0359 E9000000 		.4byte	0xe9
 3251 035d 68030000 		.4byte	0x368
 3252 0361 07       		.uleb128 0x7
 3253 0362 25000000 		.4byte	0x25
 3254 0366 17       		.byte	0x17
 3255 0367 00       		.byte	0
 3256 0368 0B       		.uleb128 0xb
 3257 0369 21170000 		.4byte	.LASF64
 3258 036d 06       		.byte	0x6
 3259 036e 6E01     		.2byte	0x16e
 3260 0370 00030000 		.4byte	0x300
 3261 0374 0C       		.uleb128 0xc
 3262 0375 0C       		.byte	0xc
 3263 0376 06       		.byte	0x6
 3264 0377 7601     		.2byte	0x176
 3265 0379 98030000 		.4byte	0x398
 3266 037d 0A       		.uleb128 0xa
 3267 037e 21070000 		.4byte	.LASF65
 3268 0382 06       		.byte	0x6
 3269 0383 7701     		.2byte	0x177
 3270 0385 00020000 		.4byte	0x200
 3271 0389 00       		.byte	0
 3272 038a 0A       		.uleb128 0xa
 3273 038b E4110000 		.4byte	.LASF66
 3274 038f 06       		.byte	0x6
 3275 0390 7901     		.2byte	0x179
 3276 0392 00020000 		.4byte	0x200
 3277 0396 06       		.byte	0x6
 3278 0397 00       		.byte	0
 3279 0398 0B       		.uleb128 0xb
 3280 0399 C90A0000 		.4byte	.LASF67
 3281 039d 06       		.byte	0x6
 3282 039e 7B01     		.2byte	0x17b
 3283 03a0 74030000 		.4byte	0x374
 3284 03a4 0C       		.uleb128 0xc
 3285 03a5 50       		.byte	0x50
 3286 03a6 06       		.byte	0x6
 3287 03a7 7D01     		.2byte	0x17d
 3288 03a9 B2040000 		.4byte	0x4b2
 3289 03ad 0A       		.uleb128 0xa
 3290 03ae C9060000 		.4byte	.LASF68
 3291 03b2 06       		.byte	0x6
 3292 03b3 7E01     		.2byte	0x17e
 3293 03b5 FB000000 		.4byte	0xfb
 3294 03b9 00       		.byte	0
 3295 03ba 0A       		.uleb128 0xa
 3296 03bb 34160000 		.4byte	.LASF69
 3297 03bf 06       		.byte	0x6
 3298 03c0 8001     		.2byte	0x180
 3299 03c2 D3000000 		.4byte	0xd3
 3300 03c6 04       		.byte	0x4
 3301 03c7 0A       		.uleb128 0xa
 3302 03c8 D0140000 		.4byte	.LASF70
 3303 03cc 06       		.byte	0x6
 3304 03cd 8301     		.2byte	0x183
 3305 03cf 11010000 		.4byte	0x111
 3306 03d3 06       		.byte	0x6
ARM GAS  /var/folders/3j/4xdnk5197cv_b7cw3n33qk7r0000gn/T//ccSq9Yz5.s 			page 59


 3307 03d4 0A       		.uleb128 0xa
 3308 03d5 53110000 		.4byte	.LASF71
 3309 03d9 06       		.byte	0x6
 3310 03da 8601     		.2byte	0x186
 3311 03dc E9000000 		.4byte	0xe9
 3312 03e0 08       		.byte	0x8
 3313 03e1 0A       		.uleb128 0xa
 3314 03e2 FC130000 		.4byte	.LASF72
 3315 03e6 06       		.byte	0x6
 3316 03e7 8801     		.2byte	0x188
 3317 03e9 B8000000 		.4byte	0xb8
 3318 03ed 0C       		.byte	0xc
 3319 03ee 0A       		.uleb128 0xa
 3320 03ef BC130000 		.4byte	.LASF73
 3321 03f3 06       		.byte	0x6
 3322 03f4 8A01     		.2byte	0x18a
 3323 03f6 E9000000 		.4byte	0xe9
 3324 03fa 10       		.byte	0x10
 3325 03fb 0A       		.uleb128 0xa
 3326 03fc D5010000 		.4byte	.LASF74
 3327 0400 06       		.byte	0x6
 3328 0401 8C01     		.2byte	0x18c
 3329 0403 B8000000 		.4byte	0xb8
 3330 0407 14       		.byte	0x14
 3331 0408 0A       		.uleb128 0xa
 3332 0409 E6150000 		.4byte	.LASF75
 3333 040d 06       		.byte	0x6
 3334 040e 8F01     		.2byte	0x18f
 3335 0410 D3000000 		.4byte	0xd3
 3336 0414 16       		.byte	0x16
 3337 0415 0A       		.uleb128 0xa
 3338 0416 57090000 		.4byte	.LASF76
 3339 041a 06       		.byte	0x6
 3340 041b 9101     		.2byte	0x191
 3341 041d D3000000 		.4byte	0xd3
 3342 0421 18       		.byte	0x18
 3343 0422 0A       		.uleb128 0xa
 3344 0423 54130000 		.4byte	.LASF77
 3345 0427 06       		.byte	0x6
 3346 0428 9401     		.2byte	0x194
 3347 042a D3000000 		.4byte	0xd3
 3348 042e 1A       		.byte	0x1a
 3349 042f 0A       		.uleb128 0xa
 3350 0430 2C0A0000 		.4byte	.LASF78
 3351 0434 06       		.byte	0x6
 3352 0435 9901     		.2byte	0x199
 3353 0437 B8000000 		.4byte	0xb8
 3354 043b 1C       		.byte	0x1c
 3355 043c 0A       		.uleb128 0xa
 3356 043d 6D080000 		.4byte	.LASF79
 3357 0441 06       		.byte	0x6
 3358 0442 9B01     		.2byte	0x19b
 3359 0444 B8000000 		.4byte	0xb8
 3360 0448 1D       		.byte	0x1d
 3361 0449 0A       		.uleb128 0xa
 3362 044a 6D040000 		.4byte	.LASF80
 3363 044e 06       		.byte	0x6
ARM GAS  /var/folders/3j/4xdnk5197cv_b7cw3n33qk7r0000gn/T//ccSq9Yz5.s 			page 60


 3364 044f 9C01     		.2byte	0x19c
 3365 0451 B8000000 		.4byte	0xb8
 3366 0455 1E       		.byte	0x1e
 3367 0456 0A       		.uleb128 0xa
 3368 0457 98020000 		.4byte	.LASF81
 3369 045b 06       		.byte	0x6
 3370 045c 9D01     		.2byte	0x19d
 3371 045e 1C010000 		.4byte	0x11c
 3372 0462 1F       		.byte	0x1f
 3373 0463 0A       		.uleb128 0xa
 3374 0464 2C080000 		.4byte	.LASF82
 3375 0468 06       		.byte	0x6
 3376 0469 9F01     		.2byte	0x19f
 3377 046b B8000000 		.4byte	0xb8
 3378 046f 3F       		.byte	0x3f
 3379 0470 0A       		.uleb128 0xa
 3380 0471 5A000000 		.4byte	.LASF83
 3381 0475 06       		.byte	0x6
 3382 0476 A001     		.2byte	0x1a0
 3383 0478 B8000000 		.4byte	0xb8
 3384 047c 40       		.byte	0x40
 3385 047d 0A       		.uleb128 0xa
 3386 047e A30C0000 		.4byte	.LASF84
 3387 0482 06       		.byte	0x6
 3388 0483 A101     		.2byte	0x1a1
 3389 0485 B8000000 		.4byte	0xb8
 3390 0489 41       		.byte	0x41
 3391 048a 0A       		.uleb128 0xa
 3392 048b 98100000 		.4byte	.LASF85
 3393 048f 06       		.byte	0x6
 3394 0490 A201     		.2byte	0x1a2
 3395 0492 E9000000 		.4byte	0xe9
 3396 0496 44       		.byte	0x44
 3397 0497 0A       		.uleb128 0xa
 3398 0498 89000000 		.4byte	.LASF86
 3399 049c 06       		.byte	0x6
 3400 049d A301     		.2byte	0x1a3
 3401 049f E9000000 		.4byte	0xe9
 3402 04a3 48       		.byte	0x48
 3403 04a4 0A       		.uleb128 0xa
 3404 04a5 96170000 		.4byte	.LASF87
 3405 04a9 06       		.byte	0x6
 3406 04aa A401     		.2byte	0x1a4
 3407 04ac FB000000 		.4byte	0xfb
 3408 04b0 4C       		.byte	0x4c
 3409 04b1 00       		.byte	0
 3410 04b2 0B       		.uleb128 0xb
 3411 04b3 E7040000 		.4byte	.LASF88
 3412 04b7 06       		.byte	0x6
 3413 04b8 A701     		.2byte	0x1a7
 3414 04ba A4030000 		.4byte	0x3a4
 3415 04be 0D       		.uleb128 0xd
 3416 04bf 5C01     		.2byte	0x15c
 3417 04c1 06       		.byte	0x6
 3418 04c2 B101     		.2byte	0x1b1
 3419 04c4 20060000 		.4byte	0x620
 3420 04c8 0A       		.uleb128 0xa
ARM GAS  /var/folders/3j/4xdnk5197cv_b7cw3n33qk7r0000gn/T//ccSq9Yz5.s 			page 61


 3421 04c9 A0090000 		.4byte	.LASF89
 3422 04cd 06       		.byte	0x6
 3423 04ce B201     		.2byte	0x1b2
 3424 04d0 5C020000 		.4byte	0x25c
 3425 04d4 00       		.byte	0
 3426 04d5 0A       		.uleb128 0xa
 3427 04d6 8D040000 		.4byte	.LASF90
 3428 04da 06       		.byte	0x6
 3429 04db B401     		.2byte	0x1b4
 3430 04dd DE000000 		.4byte	0xde
 3431 04e1 08       		.byte	0x8
 3432 04e2 0A       		.uleb128 0xa
 3433 04e3 30060000 		.4byte	.LASF91
 3434 04e7 06       		.byte	0x6
 3435 04e8 B601     		.2byte	0x1b6
 3436 04ea DE000000 		.4byte	0xde
 3437 04ee 0C       		.byte	0xc
 3438 04ef 0A       		.uleb128 0xa
 3439 04f0 BC120000 		.4byte	.LASF92
 3440 04f4 06       		.byte	0x6
 3441 04f5 B801     		.2byte	0x1b8
 3442 04f7 20020000 		.4byte	0x220
 3443 04fb 10       		.byte	0x10
 3444 04fc 0A       		.uleb128 0xa
 3445 04fd 670A0000 		.4byte	.LASF93
 3446 0501 06       		.byte	0x6
 3447 0502 BA01     		.2byte	0x1ba
 3448 0504 F4020000 		.4byte	0x2f4
 3449 0508 50       		.byte	0x50
 3450 0509 0A       		.uleb128 0xa
 3451 050a 6D150000 		.4byte	.LASF94
 3452 050e 06       		.byte	0x6
 3453 050f BC01     		.2byte	0x1bc
 3454 0511 68030000 		.4byte	0x368
 3455 0515 6C       		.byte	0x6c
 3456 0516 0A       		.uleb128 0xa
 3457 0517 EC120000 		.4byte	.LASF95
 3458 051b 06       		.byte	0x6
 3459 051c BE01     		.2byte	0x1be
 3460 051e B2040000 		.4byte	0x4b2
 3461 0522 D4       		.byte	0xd4
 3462 0523 0E       		.uleb128 0xe
 3463 0524 F9070000 		.4byte	.LASF96
 3464 0528 06       		.byte	0x6
 3465 0529 C001     		.2byte	0x1c0
 3466 052b 98030000 		.4byte	0x398
 3467 052f 2401     		.2byte	0x124
 3468 0531 0E       		.uleb128 0xe
 3469 0532 840F0000 		.4byte	.LASF97
 3470 0536 06       		.byte	0x6
 3471 0537 C201     		.2byte	0x1c2
 3472 0539 B8000000 		.4byte	0xb8
 3473 053d 3001     		.2byte	0x130
 3474 053f 0E       		.uleb128 0xe
 3475 0540 95150000 		.4byte	.LASF98
 3476 0544 06       		.byte	0x6
 3477 0545 C401     		.2byte	0x1c4
ARM GAS  /var/folders/3j/4xdnk5197cv_b7cw3n33qk7r0000gn/T//ccSq9Yz5.s 			page 62


 3478 0547 B8000000 		.4byte	0xb8
 3479 054b 3101     		.2byte	0x131
 3480 054d 0E       		.uleb128 0xe
 3481 054e FD160000 		.4byte	.LASF99
 3482 0552 06       		.byte	0x6
 3483 0553 C601     		.2byte	0x1c6
 3484 0555 2C020000 		.4byte	0x22c
 3485 0559 3201     		.2byte	0x132
 3486 055b 0E       		.uleb128 0xe
 3487 055c F1030000 		.4byte	.LASF100
 3488 0560 06       		.byte	0x6
 3489 0561 C801     		.2byte	0x1c8
 3490 0563 59010000 		.4byte	0x159
 3491 0567 3301     		.2byte	0x133
 3492 0569 0E       		.uleb128 0xe
 3493 056a E6150000 		.4byte	.LASF75
 3494 056e 06       		.byte	0x6
 3495 056f CA01     		.2byte	0x1ca
 3496 0571 D3000000 		.4byte	0xd3
 3497 0575 3401     		.2byte	0x134
 3498 0577 0E       		.uleb128 0xe
 3499 0578 57090000 		.4byte	.LASF76
 3500 057c 06       		.byte	0x6
 3501 057d CC01     		.2byte	0x1cc
 3502 057f D3000000 		.4byte	0xd3
 3503 0583 3601     		.2byte	0x136
 3504 0585 0E       		.uleb128 0xe
 3505 0586 54130000 		.4byte	.LASF77
 3506 058a 06       		.byte	0x6
 3507 058b CF01     		.2byte	0x1cf
 3508 058d D3000000 		.4byte	0xd3
 3509 0591 3801     		.2byte	0x138
 3510 0593 0E       		.uleb128 0xe
 3511 0594 89090000 		.4byte	.LASF101
 3512 0598 06       		.byte	0x6
 3513 0599 D201     		.2byte	0x1d2
 3514 059b B8000000 		.4byte	0xb8
 3515 059f 3A01     		.2byte	0x13a
 3516 05a1 0E       		.uleb128 0xe
 3517 05a2 D8050000 		.4byte	.LASF102
 3518 05a6 06       		.byte	0x6
 3519 05a7 D401     		.2byte	0x1d4
 3520 05a9 D3000000 		.4byte	0xd3
 3521 05ad 3C01     		.2byte	0x13c
 3522 05af 0E       		.uleb128 0xe
 3523 05b0 D8150000 		.4byte	.LASF103
 3524 05b4 06       		.byte	0x6
 3525 05b5 D601     		.2byte	0x1d6
 3526 05b7 FB000000 		.4byte	0xfb
 3527 05bb 4001     		.2byte	0x140
 3528 05bd 0E       		.uleb128 0xe
 3529 05be A5100000 		.4byte	.LASF104
 3530 05c2 06       		.byte	0x6
 3531 05c3 D901     		.2byte	0x1d9
 3532 05c5 FB000000 		.4byte	0xfb
 3533 05c9 4401     		.2byte	0x144
 3534 05cb 0E       		.uleb128 0xe
ARM GAS  /var/folders/3j/4xdnk5197cv_b7cw3n33qk7r0000gn/T//ccSq9Yz5.s 			page 63


 3535 05cc 27110000 		.4byte	.LASF105
 3536 05d0 06       		.byte	0x6
 3537 05d1 DB01     		.2byte	0x1db
 3538 05d3 FB000000 		.4byte	0xfb
 3539 05d7 4801     		.2byte	0x148
 3540 05d9 0E       		.uleb128 0xe
 3541 05da 13130000 		.4byte	.LASF106
 3542 05de 06       		.byte	0x6
 3543 05df DD01     		.2byte	0x1dd
 3544 05e1 20060000 		.4byte	0x620
 3545 05e5 4C01     		.2byte	0x14c
 3546 05e7 0E       		.uleb128 0xe
 3547 05e8 3C070000 		.4byte	.LASF107
 3548 05ec 06       		.byte	0x6
 3549 05ed DF01     		.2byte	0x1df
 3550 05ef B8000000 		.4byte	0xb8
 3551 05f3 5001     		.2byte	0x150
 3552 05f5 0E       		.uleb128 0xe
 3553 05f6 8C070000 		.4byte	.LASF108
 3554 05fa 06       		.byte	0x6
 3555 05fb E101     		.2byte	0x1e1
 3556 05fd D3000000 		.4byte	0xd3
 3557 0601 5201     		.2byte	0x152
 3558 0603 0E       		.uleb128 0xe
 3559 0604 2F090000 		.4byte	.LASF109
 3560 0608 06       		.byte	0x6
 3561 0609 E301     		.2byte	0x1e3
 3562 060b D3000000 		.4byte	0xd3
 3563 060f 5401     		.2byte	0x154
 3564 0611 0E       		.uleb128 0xe
 3565 0612 E0130000 		.4byte	.LASF110
 3566 0616 06       		.byte	0x6
 3567 0617 E501     		.2byte	0x1e5
 3568 0619 FB000000 		.4byte	0xfb
 3569 061d 5801     		.2byte	0x158
 3570 061f 00       		.byte	0
 3571 0620 0F       		.uleb128 0xf
 3572 0621 04       		.byte	0x4
 3573 0622 B8000000 		.4byte	0xb8
 3574 0626 0B       		.uleb128 0xb
 3575 0627 40140000 		.4byte	.LASF111
 3576 062b 06       		.byte	0x6
 3577 062c E801     		.2byte	0x1e8
 3578 062e BE040000 		.4byte	0x4be
 3579 0632 0B       		.uleb128 0xb
 3580 0633 45150000 		.4byte	.LASF112
 3581 0637 06       		.byte	0x6
 3582 0638 FE01     		.2byte	0x1fe
 3583 063a B8000000 		.4byte	0xb8
 3584 063e 10       		.uleb128 0x10
 3585 063f 04       		.byte	0x4
 3586 0640 03       		.uleb128 0x3
 3587 0641 030F0000 		.4byte	.LASF113
 3588 0645 07       		.byte	0x7
 3589 0646 22       		.byte	0x22
 3590 0647 4B060000 		.4byte	0x64b
 3591 064b 0F       		.uleb128 0xf
ARM GAS  /var/folders/3j/4xdnk5197cv_b7cw3n33qk7r0000gn/T//ccSq9Yz5.s 			page 64


 3592 064c 04       		.byte	0x4
 3593 064d 51060000 		.4byte	0x651
 3594 0651 11       		.uleb128 0x11
 3595 0652 4D130000 		.4byte	.LASF219
 3596 0656 03       		.uleb128 0x3
 3597 0657 2D160000 		.4byte	.LASF114
 3598 065b 08       		.byte	0x8
 3599 065c 2C       		.byte	0x2c
 3600 065d 7F000000 		.4byte	0x7f
 3601 0661 03       		.uleb128 0x3
 3602 0662 54040000 		.4byte	.LASF115
 3603 0666 08       		.byte	0x8
 3604 0667 72       		.byte	0x72
 3605 0668 7F000000 		.4byte	0x7f
 3606 066c 0B       		.uleb128 0xb
 3607 066d 0C130000 		.4byte	.LASF116
 3608 0671 09       		.byte	0x9
 3609 0672 6501     		.2byte	0x165
 3610 0674 25000000 		.4byte	0x25
 3611 0678 12       		.uleb128 0x12
 3612 0679 04       		.byte	0x4
 3613 067a 08       		.byte	0x8
 3614 067b A6       		.byte	0xa6
 3615 067c 97060000 		.4byte	0x697
 3616 0680 13       		.uleb128 0x13
 3617 0681 E50A0000 		.4byte	.LASF117
 3618 0685 08       		.byte	0x8
 3619 0686 A8       		.byte	0xa8
 3620 0687 6C060000 		.4byte	0x66c
 3621 068b 13       		.uleb128 0x13
 3622 068c 39110000 		.4byte	.LASF118
 3623 0690 08       		.byte	0x8
 3624 0691 A9       		.byte	0xa9
 3625 0692 97060000 		.4byte	0x697
 3626 0696 00       		.byte	0
 3627 0697 06       		.uleb128 0x6
 3628 0698 49000000 		.4byte	0x49
 3629 069c A7060000 		.4byte	0x6a7
 3630 06a0 07       		.uleb128 0x7
 3631 06a1 25000000 		.4byte	0x25
 3632 06a5 03       		.byte	0x3
 3633 06a6 00       		.byte	0
 3634 06a7 08       		.uleb128 0x8
 3635 06a8 08       		.byte	0x8
 3636 06a9 08       		.byte	0x8
 3637 06aa A3       		.byte	0xa3
 3638 06ab C8060000 		.4byte	0x6c8
 3639 06af 09       		.uleb128 0x9
 3640 06b0 47050000 		.4byte	.LASF119
 3641 06b4 08       		.byte	0x8
 3642 06b5 A5       		.byte	0xa5
 3643 06b6 A6000000 		.4byte	0xa6
 3644 06ba 00       		.byte	0
 3645 06bb 09       		.uleb128 0x9
 3646 06bc 4F090000 		.4byte	.LASF120
 3647 06c0 08       		.byte	0x8
 3648 06c1 AA       		.byte	0xaa
ARM GAS  /var/folders/3j/4xdnk5197cv_b7cw3n33qk7r0000gn/T//ccSq9Yz5.s 			page 65


 3649 06c2 78060000 		.4byte	0x678
 3650 06c6 04       		.byte	0x4
 3651 06c7 00       		.byte	0
 3652 06c8 03       		.uleb128 0x3
 3653 06c9 370D0000 		.4byte	.LASF121
 3654 06cd 08       		.byte	0x8
 3655 06ce AB       		.byte	0xab
 3656 06cf A7060000 		.4byte	0x6a7
 3657 06d3 03       		.uleb128 0x3
 3658 06d4 AF0A0000 		.4byte	.LASF122
 3659 06d8 08       		.byte	0x8
 3660 06d9 AF       		.byte	0xaf
 3661 06da 40060000 		.4byte	0x640
 3662 06de 03       		.uleb128 0x3
 3663 06df 9B0C0000 		.4byte	.LASF123
 3664 06e3 0A       		.byte	0xa
 3665 06e4 16       		.byte	0x16
 3666 06e5 91000000 		.4byte	0x91
 3667 06e9 14       		.uleb128 0x14
 3668 06ea BE040000 		.4byte	.LASF128
 3669 06ee 18       		.byte	0x18
 3670 06ef 0A       		.byte	0xa
 3671 06f0 2F       		.byte	0x2f
 3672 06f1 3C070000 		.4byte	0x73c
 3673 06f5 09       		.uleb128 0x9
 3674 06f6 B8080000 		.4byte	.LASF124
 3675 06fa 0A       		.byte	0xa
 3676 06fb 31       		.byte	0x31
 3677 06fc 3C070000 		.4byte	0x73c
 3678 0700 00       		.byte	0
 3679 0701 15       		.uleb128 0x15
 3680 0702 5F6B00   		.ascii	"_k\000"
 3681 0705 0A       		.byte	0xa
 3682 0706 32       		.byte	0x32
 3683 0707 A6000000 		.4byte	0xa6
 3684 070b 04       		.byte	0x4
 3685 070c 09       		.uleb128 0x9
 3686 070d 81000000 		.4byte	.LASF125
 3687 0711 0A       		.byte	0xa
 3688 0712 32       		.byte	0x32
 3689 0713 A6000000 		.4byte	0xa6
 3690 0717 08       		.byte	0x8
 3691 0718 09       		.uleb128 0x9
 3692 0719 CB100000 		.4byte	.LASF126
 3693 071d 0A       		.byte	0xa
 3694 071e 32       		.byte	0x32
 3695 071f A6000000 		.4byte	0xa6
 3696 0723 0C       		.byte	0xc
 3697 0724 09       		.uleb128 0x9
 3698 0725 9B060000 		.4byte	.LASF127
 3699 0729 0A       		.byte	0xa
 3700 072a 32       		.byte	0x32
 3701 072b A6000000 		.4byte	0xa6
 3702 072f 10       		.byte	0x10
 3703 0730 15       		.uleb128 0x15
 3704 0731 5F7800   		.ascii	"_x\000"
 3705 0734 0A       		.byte	0xa
ARM GAS  /var/folders/3j/4xdnk5197cv_b7cw3n33qk7r0000gn/T//ccSq9Yz5.s 			page 66


 3706 0735 33       		.byte	0x33
 3707 0736 42070000 		.4byte	0x742
 3708 073a 14       		.byte	0x14
 3709 073b 00       		.byte	0
 3710 073c 0F       		.uleb128 0xf
 3711 073d 04       		.byte	0x4
 3712 073e E9060000 		.4byte	0x6e9
 3713 0742 06       		.uleb128 0x6
 3714 0743 DE060000 		.4byte	0x6de
 3715 0747 52070000 		.4byte	0x752
 3716 074b 07       		.uleb128 0x7
 3717 074c 25000000 		.4byte	0x25
 3718 0750 00       		.byte	0
 3719 0751 00       		.byte	0
 3720 0752 14       		.uleb128 0x14
 3721 0753 90120000 		.4byte	.LASF129
 3722 0757 24       		.byte	0x24
 3723 0758 0A       		.byte	0xa
 3724 0759 37       		.byte	0x37
 3725 075a CB070000 		.4byte	0x7cb
 3726 075e 09       		.uleb128 0x9
 3727 075f 27020000 		.4byte	.LASF130
 3728 0763 0A       		.byte	0xa
 3729 0764 39       		.byte	0x39
 3730 0765 A6000000 		.4byte	0xa6
 3731 0769 00       		.byte	0
 3732 076a 09       		.uleb128 0x9
 3733 076b 7D050000 		.4byte	.LASF131
 3734 076f 0A       		.byte	0xa
 3735 0770 3A       		.byte	0x3a
 3736 0771 A6000000 		.4byte	0xa6
 3737 0775 04       		.byte	0x4
 3738 0776 09       		.uleb128 0x9
 3739 0777 1A050000 		.4byte	.LASF132
 3740 077b 0A       		.byte	0xa
 3741 077c 3B       		.byte	0x3b
 3742 077d A6000000 		.4byte	0xa6
 3743 0781 08       		.byte	0x8
 3744 0782 09       		.uleb128 0x9
 3745 0783 F3090000 		.4byte	.LASF133
 3746 0787 0A       		.byte	0xa
 3747 0788 3C       		.byte	0x3c
 3748 0789 A6000000 		.4byte	0xa6
 3749 078d 0C       		.byte	0xc
 3750 078e 09       		.uleb128 0x9
 3751 078f B70E0000 		.4byte	.LASF134
 3752 0793 0A       		.byte	0xa
 3753 0794 3D       		.byte	0x3d
 3754 0795 A6000000 		.4byte	0xa6
 3755 0799 10       		.byte	0x10
 3756 079a 09       		.uleb128 0x9
 3757 079b 6E110000 		.4byte	.LASF135
 3758 079f 0A       		.byte	0xa
 3759 07a0 3E       		.byte	0x3e
 3760 07a1 A6000000 		.4byte	0xa6
 3761 07a5 14       		.byte	0x14
 3762 07a6 09       		.uleb128 0x9
ARM GAS  /var/folders/3j/4xdnk5197cv_b7cw3n33qk7r0000gn/T//ccSq9Yz5.s 			page 67


 3763 07a7 C6040000 		.4byte	.LASF136
 3764 07ab 0A       		.byte	0xa
 3765 07ac 3F       		.byte	0x3f
 3766 07ad A6000000 		.4byte	0xa6
 3767 07b1 18       		.byte	0x18
 3768 07b2 09       		.uleb128 0x9
 3769 07b3 49080000 		.4byte	.LASF137
 3770 07b7 0A       		.byte	0xa
 3771 07b8 40       		.byte	0x40
 3772 07b9 A6000000 		.4byte	0xa6
 3773 07bd 1C       		.byte	0x1c
 3774 07be 09       		.uleb128 0x9
 3775 07bf 7A0D0000 		.4byte	.LASF138
 3776 07c3 0A       		.byte	0xa
 3777 07c4 41       		.byte	0x41
 3778 07c5 A6000000 		.4byte	0xa6
 3779 07c9 20       		.byte	0x20
 3780 07ca 00       		.byte	0
 3781 07cb 16       		.uleb128 0x16
 3782 07cc 60010000 		.4byte	.LASF139
 3783 07d0 0801     		.2byte	0x108
 3784 07d2 0A       		.byte	0xa
 3785 07d3 4A       		.byte	0x4a
 3786 07d4 0B080000 		.4byte	0x80b
 3787 07d8 09       		.uleb128 0x9
 3788 07d9 59150000 		.4byte	.LASF140
 3789 07dd 0A       		.byte	0xa
 3790 07de 4B       		.byte	0x4b
 3791 07df 0B080000 		.4byte	0x80b
 3792 07e3 00       		.byte	0
 3793 07e4 09       		.uleb128 0x9
 3794 07e5 32130000 		.4byte	.LASF141
 3795 07e9 0A       		.byte	0xa
 3796 07ea 4C       		.byte	0x4c
 3797 07eb 0B080000 		.4byte	0x80b
 3798 07ef 80       		.byte	0x80
 3799 07f0 17       		.uleb128 0x17
 3800 07f1 52140000 		.4byte	.LASF142
 3801 07f5 0A       		.byte	0xa
 3802 07f6 4E       		.byte	0x4e
 3803 07f7 DE060000 		.4byte	0x6de
 3804 07fb 0001     		.2byte	0x100
 3805 07fd 17       		.uleb128 0x17
 3806 07fe CD160000 		.4byte	.LASF143
 3807 0802 0A       		.byte	0xa
 3808 0803 51       		.byte	0x51
 3809 0804 DE060000 		.4byte	0x6de
 3810 0808 0401     		.2byte	0x104
 3811 080a 00       		.byte	0
 3812 080b 06       		.uleb128 0x6
 3813 080c 3E060000 		.4byte	0x63e
 3814 0810 1B080000 		.4byte	0x81b
 3815 0814 07       		.uleb128 0x7
 3816 0815 25000000 		.4byte	0x25
 3817 0819 1F       		.byte	0x1f
 3818 081a 00       		.byte	0
 3819 081b 16       		.uleb128 0x16
ARM GAS  /var/folders/3j/4xdnk5197cv_b7cw3n33qk7r0000gn/T//ccSq9Yz5.s 			page 68


 3820 081c 930F0000 		.4byte	.LASF144
 3821 0820 9001     		.2byte	0x190
 3822 0822 0A       		.byte	0xa
 3823 0823 5D       		.byte	0x5d
 3824 0824 59080000 		.4byte	0x859
 3825 0828 09       		.uleb128 0x9
 3826 0829 B8080000 		.4byte	.LASF124
 3827 082d 0A       		.byte	0xa
 3828 082e 5E       		.byte	0x5e
 3829 082f 59080000 		.4byte	0x859
 3830 0833 00       		.byte	0
 3831 0834 09       		.uleb128 0x9
 3832 0835 58080000 		.4byte	.LASF145
 3833 0839 0A       		.byte	0xa
 3834 083a 5F       		.byte	0x5f
 3835 083b A6000000 		.4byte	0xa6
 3836 083f 04       		.byte	0x4
 3837 0840 09       		.uleb128 0x9
 3838 0841 68040000 		.4byte	.LASF146
 3839 0845 0A       		.byte	0xa
 3840 0846 61       		.byte	0x61
 3841 0847 5F080000 		.4byte	0x85f
 3842 084b 08       		.byte	0x8
 3843 084c 09       		.uleb128 0x9
 3844 084d 60010000 		.4byte	.LASF139
 3845 0851 0A       		.byte	0xa
 3846 0852 62       		.byte	0x62
 3847 0853 CB070000 		.4byte	0x7cb
 3848 0857 88       		.byte	0x88
 3849 0858 00       		.byte	0
 3850 0859 0F       		.uleb128 0xf
 3851 085a 04       		.byte	0x4
 3852 085b 1B080000 		.4byte	0x81b
 3853 085f 06       		.uleb128 0x6
 3854 0860 6F080000 		.4byte	0x86f
 3855 0864 6F080000 		.4byte	0x86f
 3856 0868 07       		.uleb128 0x7
 3857 0869 25000000 		.4byte	0x25
 3858 086d 1F       		.byte	0x1f
 3859 086e 00       		.byte	0
 3860 086f 0F       		.uleb128 0xf
 3861 0870 04       		.byte	0x4
 3862 0871 75080000 		.4byte	0x875
 3863 0875 18       		.uleb128 0x18
 3864 0876 14       		.uleb128 0x14
 3865 0877 9A140000 		.4byte	.LASF147
 3866 087b 08       		.byte	0x8
 3867 087c 0A       		.byte	0xa
 3868 087d 75       		.byte	0x75
 3869 087e 9B080000 		.4byte	0x89b
 3870 0882 09       		.uleb128 0x9
 3871 0883 510C0000 		.4byte	.LASF148
 3872 0887 0A       		.byte	0xa
 3873 0888 76       		.byte	0x76
 3874 0889 9B080000 		.4byte	0x89b
 3875 088d 00       		.byte	0
 3876 088e 09       		.uleb128 0x9
ARM GAS  /var/folders/3j/4xdnk5197cv_b7cw3n33qk7r0000gn/T//ccSq9Yz5.s 			page 69


 3877 088f F7150000 		.4byte	.LASF149
 3878 0893 0A       		.byte	0xa
 3879 0894 77       		.byte	0x77
 3880 0895 A6000000 		.4byte	0xa6
 3881 0899 04       		.byte	0x4
 3882 089a 00       		.byte	0
 3883 089b 0F       		.uleb128 0xf
 3884 089c 04       		.byte	0x4
 3885 089d 49000000 		.4byte	0x49
 3886 08a1 14       		.uleb128 0x14
 3887 08a2 93060000 		.4byte	.LASF150
 3888 08a6 68       		.byte	0x68
 3889 08a7 0A       		.byte	0xa
 3890 08a8 B5       		.byte	0xb5
 3891 08a9 CB090000 		.4byte	0x9cb
 3892 08ad 15       		.uleb128 0x15
 3893 08ae 5F7000   		.ascii	"_p\000"
 3894 08b1 0A       		.byte	0xa
 3895 08b2 B6       		.byte	0xb6
 3896 08b3 9B080000 		.4byte	0x89b
 3897 08b7 00       		.byte	0
 3898 08b8 15       		.uleb128 0x15
 3899 08b9 5F7200   		.ascii	"_r\000"
 3900 08bc 0A       		.byte	0xa
 3901 08bd B7       		.byte	0xb7
 3902 08be A6000000 		.4byte	0xa6
 3903 08c2 04       		.byte	0x4
 3904 08c3 15       		.uleb128 0x15
 3905 08c4 5F7700   		.ascii	"_w\000"
 3906 08c7 0A       		.byte	0xa
 3907 08c8 B8       		.byte	0xb8
 3908 08c9 A6000000 		.4byte	0xa6
 3909 08cd 08       		.byte	0x8
 3910 08ce 09       		.uleb128 0x9
 3911 08cf C1020000 		.4byte	.LASF151
 3912 08d3 0A       		.byte	0xa
 3913 08d4 B9       		.byte	0xb9
 3914 08d5 5B000000 		.4byte	0x5b
 3915 08d9 0C       		.byte	0xc
 3916 08da 09       		.uleb128 0x9
 3917 08db EE0C0000 		.4byte	.LASF152
 3918 08df 0A       		.byte	0xa
 3919 08e0 BA       		.byte	0xba
 3920 08e1 5B000000 		.4byte	0x5b
 3921 08e5 0E       		.byte	0xe
 3922 08e6 15       		.uleb128 0x15
 3923 08e7 5F626600 		.ascii	"_bf\000"
 3924 08eb 0A       		.byte	0xa
 3925 08ec BB       		.byte	0xbb
 3926 08ed 76080000 		.4byte	0x876
 3927 08f1 10       		.byte	0x10
 3928 08f2 09       		.uleb128 0x9
 3929 08f3 24140000 		.4byte	.LASF153
 3930 08f7 0A       		.byte	0xa
 3931 08f8 BC       		.byte	0xbc
 3932 08f9 A6000000 		.4byte	0xa6
 3933 08fd 18       		.byte	0x18
ARM GAS  /var/folders/3j/4xdnk5197cv_b7cw3n33qk7r0000gn/T//ccSq9Yz5.s 			page 70


 3934 08fe 09       		.uleb128 0x9
 3935 08ff 76040000 		.4byte	.LASF154
 3936 0903 0A       		.byte	0xa
 3937 0904 C3       		.byte	0xc3
 3938 0905 3E060000 		.4byte	0x63e
 3939 0909 1C       		.byte	0x1c
 3940 090a 09       		.uleb128 0x9
 3941 090b B0030000 		.4byte	.LASF155
 3942 090f 0A       		.byte	0xa
 3943 0910 C5       		.byte	0xc5
 3944 0911 2C0B0000 		.4byte	0xb2c
 3945 0915 20       		.byte	0x20
 3946 0916 09       		.uleb128 0x9
 3947 0917 350F0000 		.4byte	.LASF156
 3948 091b 0A       		.byte	0xa
 3949 091c C7       		.byte	0xc7
 3950 091d 560B0000 		.4byte	0xb56
 3951 0921 24       		.byte	0x24
 3952 0922 09       		.uleb128 0x9
 3953 0923 49170000 		.4byte	.LASF157
 3954 0927 0A       		.byte	0xa
 3955 0928 CA       		.byte	0xca
 3956 0929 7A0B0000 		.4byte	0xb7a
 3957 092d 28       		.byte	0x28
 3958 092e 09       		.uleb128 0x9
 3959 092f 570B0000 		.4byte	.LASF158
 3960 0933 0A       		.byte	0xa
 3961 0934 CB       		.byte	0xcb
 3962 0935 940B0000 		.4byte	0xb94
 3963 0939 2C       		.byte	0x2c
 3964 093a 15       		.uleb128 0x15
 3965 093b 5F756200 		.ascii	"_ub\000"
 3966 093f 0A       		.byte	0xa
 3967 0940 CE       		.byte	0xce
 3968 0941 76080000 		.4byte	0x876
 3969 0945 30       		.byte	0x30
 3970 0946 15       		.uleb128 0x15
 3971 0947 5F757000 		.ascii	"_up\000"
 3972 094b 0A       		.byte	0xa
 3973 094c CF       		.byte	0xcf
 3974 094d 9B080000 		.4byte	0x89b
 3975 0951 38       		.byte	0x38
 3976 0952 15       		.uleb128 0x15
 3977 0953 5F757200 		.ascii	"_ur\000"
 3978 0957 0A       		.byte	0xa
 3979 0958 D0       		.byte	0xd0
 3980 0959 A6000000 		.4byte	0xa6
 3981 095d 3C       		.byte	0x3c
 3982 095e 09       		.uleb128 0x9
 3983 095f 6E170000 		.4byte	.LASF159
 3984 0963 0A       		.byte	0xa
 3985 0964 D3       		.byte	0xd3
 3986 0965 9A0B0000 		.4byte	0xb9a
 3987 0969 40       		.byte	0x40
 3988 096a 09       		.uleb128 0x9
 3989 096b 47160000 		.4byte	.LASF160
 3990 096f 0A       		.byte	0xa
ARM GAS  /var/folders/3j/4xdnk5197cv_b7cw3n33qk7r0000gn/T//ccSq9Yz5.s 			page 71


 3991 0970 D4       		.byte	0xd4
 3992 0971 AA0B0000 		.4byte	0xbaa
 3993 0975 43       		.byte	0x43
 3994 0976 15       		.uleb128 0x15
 3995 0977 5F6C6200 		.ascii	"_lb\000"
 3996 097b 0A       		.byte	0xa
 3997 097c D7       		.byte	0xd7
 3998 097d 76080000 		.4byte	0x876
 3999 0981 44       		.byte	0x44
 4000 0982 09       		.uleb128 0x9
 4001 0983 87120000 		.4byte	.LASF161
 4002 0987 0A       		.byte	0xa
 4003 0988 DA       		.byte	0xda
 4004 0989 A6000000 		.4byte	0xa6
 4005 098d 4C       		.byte	0x4c
 4006 098e 09       		.uleb128 0x9
 4007 098f 02070000 		.4byte	.LASF162
 4008 0993 0A       		.byte	0xa
 4009 0994 DB       		.byte	0xdb
 4010 0995 56060000 		.4byte	0x656
 4011 0999 50       		.byte	0x50
 4012 099a 09       		.uleb128 0x9
 4013 099b 21110000 		.4byte	.LASF163
 4014 099f 0A       		.byte	0xa
 4015 09a0 DE       		.byte	0xde
 4016 09a1 E9090000 		.4byte	0x9e9
 4017 09a5 54       		.byte	0x54
 4018 09a6 09       		.uleb128 0x9
 4019 09a7 95120000 		.4byte	.LASF164
 4020 09ab 0A       		.byte	0xa
 4021 09ac E2       		.byte	0xe2
 4022 09ad D3060000 		.4byte	0x6d3
 4023 09b1 58       		.byte	0x58
 4024 09b2 09       		.uleb128 0x9
 4025 09b3 A7030000 		.4byte	.LASF165
 4026 09b7 0A       		.byte	0xa
 4027 09b8 E4       		.byte	0xe4
 4028 09b9 C8060000 		.4byte	0x6c8
 4029 09bd 5C       		.byte	0x5c
 4030 09be 09       		.uleb128 0x9
 4031 09bf C5160000 		.4byte	.LASF166
 4032 09c3 0A       		.byte	0xa
 4033 09c4 E5       		.byte	0xe5
 4034 09c5 A6000000 		.4byte	0xa6
 4035 09c9 64       		.byte	0x64
 4036 09ca 00       		.byte	0
 4037 09cb 19       		.uleb128 0x19
 4038 09cc A6000000 		.4byte	0xa6
 4039 09d0 E9090000 		.4byte	0x9e9
 4040 09d4 1A       		.uleb128 0x1a
 4041 09d5 E9090000 		.4byte	0x9e9
 4042 09d9 1A       		.uleb128 0x1a
 4043 09da 3E060000 		.4byte	0x63e
 4044 09de 1A       		.uleb128 0x1a
 4045 09df 260B0000 		.4byte	0xb26
 4046 09e3 1A       		.uleb128 0x1a
 4047 09e4 A6000000 		.4byte	0xa6
ARM GAS  /var/folders/3j/4xdnk5197cv_b7cw3n33qk7r0000gn/T//ccSq9Yz5.s 			page 72


 4048 09e8 00       		.byte	0
 4049 09e9 0F       		.uleb128 0xf
 4050 09ea 04       		.byte	0x4
 4051 09eb F4090000 		.4byte	0x9f4
 4052 09ef 05       		.uleb128 0x5
 4053 09f0 E9090000 		.4byte	0x9e9
 4054 09f4 1B       		.uleb128 0x1b
 4055 09f5 9B0F0000 		.4byte	.LASF167
 4056 09f9 2804     		.2byte	0x428
 4057 09fb 0A       		.byte	0xa
 4058 09fc 6002     		.2byte	0x260
 4059 09fe 260B0000 		.4byte	0xb26
 4060 0a02 0A       		.uleb128 0xa
 4061 0a03 FA020000 		.4byte	.LASF168
 4062 0a07 0A       		.byte	0xa
 4063 0a08 6202     		.2byte	0x262
 4064 0a0a A6000000 		.4byte	0xa6
 4065 0a0e 00       		.byte	0
 4066 0a0f 0A       		.uleb128 0xa
 4067 0a10 D20B0000 		.4byte	.LASF169
 4068 0a14 0A       		.byte	0xa
 4069 0a15 6702     		.2byte	0x267
 4070 0a17 010C0000 		.4byte	0xc01
 4071 0a1b 04       		.byte	0x4
 4072 0a1c 0A       		.uleb128 0xa
 4073 0a1d 84130000 		.4byte	.LASF170
 4074 0a21 0A       		.byte	0xa
 4075 0a22 6702     		.2byte	0x267
 4076 0a24 010C0000 		.4byte	0xc01
 4077 0a28 08       		.byte	0x8
 4078 0a29 0A       		.uleb128 0xa
 4079 0a2a 5D170000 		.4byte	.LASF171
 4080 0a2e 0A       		.byte	0xa
 4081 0a2f 6702     		.2byte	0x267
 4082 0a31 010C0000 		.4byte	0xc01
 4083 0a35 0C       		.byte	0xc
 4084 0a36 0A       		.uleb128 0xa
 4085 0a37 53080000 		.4byte	.LASF172
 4086 0a3b 0A       		.byte	0xa
 4087 0a3c 6902     		.2byte	0x269
 4088 0a3e A6000000 		.4byte	0xa6
 4089 0a42 10       		.byte	0x10
 4090 0a43 0A       		.uleb128 0xa
 4091 0a44 56070000 		.4byte	.LASF173
 4092 0a48 0A       		.byte	0xa
 4093 0a49 6A02     		.2byte	0x26a
 4094 0a4b E30D0000 		.4byte	0xde3
 4095 0a4f 14       		.byte	0x14
 4096 0a50 0A       		.uleb128 0xa
 4097 0a51 AC160000 		.4byte	.LASF174
 4098 0a55 0A       		.byte	0xa
 4099 0a56 6D02     		.2byte	0x26d
 4100 0a58 A6000000 		.4byte	0xa6
 4101 0a5c 30       		.byte	0x30
 4102 0a5d 0A       		.uleb128 0xa
 4103 0a5e 3D150000 		.4byte	.LASF175
 4104 0a62 0A       		.byte	0xa
ARM GAS  /var/folders/3j/4xdnk5197cv_b7cw3n33qk7r0000gn/T//ccSq9Yz5.s 			page 73


 4105 0a63 6E02     		.2byte	0x26e
 4106 0a65 F80D0000 		.4byte	0xdf8
 4107 0a69 34       		.byte	0x34
 4108 0a6a 0A       		.uleb128 0xa
 4109 0a6b 660B0000 		.4byte	.LASF176
 4110 0a6f 0A       		.byte	0xa
 4111 0a70 7002     		.2byte	0x270
 4112 0a72 A6000000 		.4byte	0xa6
 4113 0a76 38       		.byte	0x38
 4114 0a77 0A       		.uleb128 0xa
 4115 0a78 2D0D0000 		.4byte	.LASF177
 4116 0a7c 0A       		.byte	0xa
 4117 0a7d 7202     		.2byte	0x272
 4118 0a7f 090E0000 		.4byte	0xe09
 4119 0a83 3C       		.byte	0x3c
 4120 0a84 0A       		.uleb128 0xa
 4121 0a85 D0040000 		.4byte	.LASF178
 4122 0a89 0A       		.byte	0xa
 4123 0a8a 7502     		.2byte	0x275
 4124 0a8c 3C070000 		.4byte	0x73c
 4125 0a90 40       		.byte	0x40
 4126 0a91 0A       		.uleb128 0xa
 4127 0a92 26060000 		.4byte	.LASF179
 4128 0a96 0A       		.byte	0xa
 4129 0a97 7602     		.2byte	0x276
 4130 0a99 A6000000 		.4byte	0xa6
 4131 0a9d 44       		.byte	0x44
 4132 0a9e 0A       		.uleb128 0xa
 4133 0a9f 7E090000 		.4byte	.LASF180
 4134 0aa3 0A       		.byte	0xa
 4135 0aa4 7702     		.2byte	0x277
 4136 0aa6 3C070000 		.4byte	0x73c
 4137 0aaa 48       		.byte	0x48
 4138 0aab 0A       		.uleb128 0xa
 4139 0aac 570C0000 		.4byte	.LASF181
 4140 0ab0 0A       		.byte	0xa
 4141 0ab1 7802     		.2byte	0x278
 4142 0ab3 0F0E0000 		.4byte	0xe0f
 4143 0ab7 4C       		.byte	0x4c
 4144 0ab8 0A       		.uleb128 0xa
 4145 0ab9 DC110000 		.4byte	.LASF182
 4146 0abd 0A       		.byte	0xa
 4147 0abe 7B02     		.2byte	0x27b
 4148 0ac0 A6000000 		.4byte	0xa6
 4149 0ac4 50       		.byte	0x50
 4150 0ac5 0A       		.uleb128 0xa
 4151 0ac6 8C130000 		.4byte	.LASF183
 4152 0aca 0A       		.byte	0xa
 4153 0acb 7C02     		.2byte	0x27c
 4154 0acd 260B0000 		.4byte	0xb26
 4155 0ad1 54       		.byte	0x54
 4156 0ad2 0A       		.uleb128 0xa
 4157 0ad3 D7110000 		.4byte	.LASF184
 4158 0ad7 0A       		.byte	0xa
 4159 0ad8 9F02     		.2byte	0x29f
 4160 0ada C10D0000 		.4byte	0xdc1
 4161 0ade 58       		.byte	0x58
ARM GAS  /var/folders/3j/4xdnk5197cv_b7cw3n33qk7r0000gn/T//ccSq9Yz5.s 			page 74


 4162 0adf 0E       		.uleb128 0xe
 4163 0ae0 930F0000 		.4byte	.LASF144
 4164 0ae4 0A       		.byte	0xa
 4165 0ae5 A302     		.2byte	0x2a3
 4166 0ae7 59080000 		.4byte	0x859
 4167 0aeb 4801     		.2byte	0x148
 4168 0aed 0E       		.uleb128 0xe
 4169 0aee 160A0000 		.4byte	.LASF185
 4170 0af2 0A       		.byte	0xa
 4171 0af3 A402     		.2byte	0x2a4
 4172 0af5 1B080000 		.4byte	0x81b
 4173 0af9 4C01     		.2byte	0x14c
 4174 0afb 0E       		.uleb128 0xe
 4175 0afc FD090000 		.4byte	.LASF186
 4176 0b00 0A       		.byte	0xa
 4177 0b01 A802     		.2byte	0x2a8
 4178 0b03 200E0000 		.4byte	0xe20
 4179 0b07 DC02     		.2byte	0x2dc
 4180 0b09 0E       		.uleb128 0xe
 4181 0b0a 02150000 		.4byte	.LASF187
 4182 0b0e 0A       		.byte	0xa
 4183 0b0f AD02     		.2byte	0x2ad
 4184 0b11 C60B0000 		.4byte	0xbc6
 4185 0b15 E002     		.2byte	0x2e0
 4186 0b17 0E       		.uleb128 0xe
 4187 0b18 C6100000 		.4byte	.LASF188
 4188 0b1c 0A       		.byte	0xa
 4189 0b1d AF02     		.2byte	0x2af
 4190 0b1f 2C0E0000 		.4byte	0xe2c
 4191 0b23 EC02     		.2byte	0x2ec
 4192 0b25 00       		.byte	0
 4193 0b26 0F       		.uleb128 0xf
 4194 0b27 04       		.byte	0x4
 4195 0b28 2C010000 		.4byte	0x12c
 4196 0b2c 0F       		.uleb128 0xf
 4197 0b2d 04       		.byte	0x4
 4198 0b2e CB090000 		.4byte	0x9cb
 4199 0b32 19       		.uleb128 0x19
 4200 0b33 A6000000 		.4byte	0xa6
 4201 0b37 500B0000 		.4byte	0xb50
 4202 0b3b 1A       		.uleb128 0x1a
 4203 0b3c E9090000 		.4byte	0x9e9
 4204 0b40 1A       		.uleb128 0x1a
 4205 0b41 3E060000 		.4byte	0x63e
 4206 0b45 1A       		.uleb128 0x1a
 4207 0b46 500B0000 		.4byte	0xb50
 4208 0b4a 1A       		.uleb128 0x1a
 4209 0b4b A6000000 		.4byte	0xa6
 4210 0b4f 00       		.byte	0
 4211 0b50 0F       		.uleb128 0xf
 4212 0b51 04       		.byte	0x4
 4213 0b52 33010000 		.4byte	0x133
 4214 0b56 0F       		.uleb128 0xf
 4215 0b57 04       		.byte	0x4
 4216 0b58 320B0000 		.4byte	0xb32
 4217 0b5c 19       		.uleb128 0x19
 4218 0b5d 61060000 		.4byte	0x661
ARM GAS  /var/folders/3j/4xdnk5197cv_b7cw3n33qk7r0000gn/T//ccSq9Yz5.s 			page 75


 4219 0b61 7A0B0000 		.4byte	0xb7a
 4220 0b65 1A       		.uleb128 0x1a
 4221 0b66 E9090000 		.4byte	0x9e9
 4222 0b6a 1A       		.uleb128 0x1a
 4223 0b6b 3E060000 		.4byte	0x63e
 4224 0b6f 1A       		.uleb128 0x1a
 4225 0b70 61060000 		.4byte	0x661
 4226 0b74 1A       		.uleb128 0x1a
 4227 0b75 A6000000 		.4byte	0xa6
 4228 0b79 00       		.byte	0
 4229 0b7a 0F       		.uleb128 0xf
 4230 0b7b 04       		.byte	0x4
 4231 0b7c 5C0B0000 		.4byte	0xb5c
 4232 0b80 19       		.uleb128 0x19
 4233 0b81 A6000000 		.4byte	0xa6
 4234 0b85 940B0000 		.4byte	0xb94
 4235 0b89 1A       		.uleb128 0x1a
 4236 0b8a E9090000 		.4byte	0x9e9
 4237 0b8e 1A       		.uleb128 0x1a
 4238 0b8f 3E060000 		.4byte	0x63e
 4239 0b93 00       		.byte	0
 4240 0b94 0F       		.uleb128 0xf
 4241 0b95 04       		.byte	0x4
 4242 0b96 800B0000 		.4byte	0xb80
 4243 0b9a 06       		.uleb128 0x6
 4244 0b9b 49000000 		.4byte	0x49
 4245 0b9f AA0B0000 		.4byte	0xbaa
 4246 0ba3 07       		.uleb128 0x7
 4247 0ba4 25000000 		.4byte	0x25
 4248 0ba8 02       		.byte	0x2
 4249 0ba9 00       		.byte	0
 4250 0baa 06       		.uleb128 0x6
 4251 0bab 49000000 		.4byte	0x49
 4252 0baf BA0B0000 		.4byte	0xbba
 4253 0bb3 07       		.uleb128 0x7
 4254 0bb4 25000000 		.4byte	0x25
 4255 0bb8 00       		.byte	0
 4256 0bb9 00       		.byte	0
 4257 0bba 0B       		.uleb128 0xb
 4258 0bbb ED060000 		.4byte	.LASF189
 4259 0bbf 0A       		.byte	0xa
 4260 0bc0 1F01     		.2byte	0x11f
 4261 0bc2 A1080000 		.4byte	0x8a1
 4262 0bc6 1C       		.uleb128 0x1c
 4263 0bc7 E6140000 		.4byte	.LASF190
 4264 0bcb 0C       		.byte	0xc
 4265 0bcc 0A       		.byte	0xa
 4266 0bcd 2301     		.2byte	0x123
 4267 0bcf FB0B0000 		.4byte	0xbfb
 4268 0bd3 0A       		.uleb128 0xa
 4269 0bd4 B8080000 		.4byte	.LASF124
 4270 0bd8 0A       		.byte	0xa
 4271 0bd9 2501     		.2byte	0x125
 4272 0bdb FB0B0000 		.4byte	0xbfb
 4273 0bdf 00       		.byte	0
 4274 0be0 0A       		.uleb128 0xa
 4275 0be1 05130000 		.4byte	.LASF191
ARM GAS  /var/folders/3j/4xdnk5197cv_b7cw3n33qk7r0000gn/T//ccSq9Yz5.s 			page 76


 4276 0be5 0A       		.byte	0xa
 4277 0be6 2601     		.2byte	0x126
 4278 0be8 A6000000 		.4byte	0xa6
 4279 0bec 04       		.byte	0x4
 4280 0bed 0A       		.uleb128 0xa
 4281 0bee EB0A0000 		.4byte	.LASF192
 4282 0bf2 0A       		.byte	0xa
 4283 0bf3 2701     		.2byte	0x127
 4284 0bf5 010C0000 		.4byte	0xc01
 4285 0bf9 08       		.byte	0x8
 4286 0bfa 00       		.byte	0
 4287 0bfb 0F       		.uleb128 0xf
 4288 0bfc 04       		.byte	0x4
 4289 0bfd C60B0000 		.4byte	0xbc6
 4290 0c01 0F       		.uleb128 0xf
 4291 0c02 04       		.byte	0x4
 4292 0c03 BA0B0000 		.4byte	0xbba
 4293 0c07 1C       		.uleb128 0x1c
 4294 0c08 EE050000 		.4byte	.LASF193
 4295 0c0c 0E       		.byte	0xe
 4296 0c0d 0A       		.byte	0xa
 4297 0c0e 3F01     		.2byte	0x13f
 4298 0c10 3C0C0000 		.4byte	0xc3c
 4299 0c14 0A       		.uleb128 0xa
 4300 0c15 10170000 		.4byte	.LASF194
 4301 0c19 0A       		.byte	0xa
 4302 0c1a 4001     		.2byte	0x140
 4303 0c1c 3C0C0000 		.4byte	0xc3c
 4304 0c20 00       		.byte	0
 4305 0c21 0A       		.uleb128 0xa
 4306 0c22 770C0000 		.4byte	.LASF195
 4307 0c26 0A       		.byte	0xa
 4308 0c27 4101     		.2byte	0x141
 4309 0c29 3C0C0000 		.4byte	0xc3c
 4310 0c2d 06       		.byte	0x6
 4311 0c2e 0A       		.uleb128 0xa
 4312 0c2f 5B140000 		.4byte	.LASF196
 4313 0c33 0A       		.byte	0xa
 4314 0c34 4201     		.2byte	0x142
 4315 0c36 6D000000 		.4byte	0x6d
 4316 0c3a 0C       		.byte	0xc
 4317 0c3b 00       		.byte	0
 4318 0c3c 06       		.uleb128 0x6
 4319 0c3d 6D000000 		.4byte	0x6d
 4320 0c41 4C0C0000 		.4byte	0xc4c
 4321 0c45 07       		.uleb128 0x7
 4322 0c46 25000000 		.4byte	0x25
 4323 0c4a 02       		.byte	0x2
 4324 0c4b 00       		.byte	0
 4325 0c4c 0C       		.uleb128 0xc
 4326 0c4d D0       		.byte	0xd0
 4327 0c4e 0A       		.byte	0xa
 4328 0c4f 8002     		.2byte	0x280
 4329 0c51 4D0D0000 		.4byte	0xd4d
 4330 0c55 0A       		.uleb128 0xa
 4331 0c56 4D160000 		.4byte	.LASF197
 4332 0c5a 0A       		.byte	0xa
ARM GAS  /var/folders/3j/4xdnk5197cv_b7cw3n33qk7r0000gn/T//ccSq9Yz5.s 			page 77


 4333 0c5b 8202     		.2byte	0x282
 4334 0c5d 25000000 		.4byte	0x25
 4335 0c61 00       		.byte	0
 4336 0c62 0A       		.uleb128 0xa
 4337 0c63 16150000 		.4byte	.LASF198
 4338 0c67 0A       		.byte	0xa
 4339 0c68 8302     		.2byte	0x283
 4340 0c6a 260B0000 		.4byte	0xb26
 4341 0c6e 04       		.byte	0x4
 4342 0c6f 0A       		.uleb128 0xa
 4343 0c70 86060000 		.4byte	.LASF199
 4344 0c74 0A       		.byte	0xa
 4345 0c75 8402     		.2byte	0x284
 4346 0c77 4D0D0000 		.4byte	0xd4d
 4347 0c7b 08       		.byte	0x8
 4348 0c7c 0A       		.uleb128 0xa
 4349 0c7d 7F110000 		.4byte	.LASF200
 4350 0c81 0A       		.byte	0xa
 4351 0c82 8502     		.2byte	0x285
 4352 0c84 52070000 		.4byte	0x752
 4353 0c88 24       		.byte	0x24
 4354 0c89 0A       		.uleb128 0xa
 4355 0c8a D90B0000 		.4byte	.LASF201
 4356 0c8e 0A       		.byte	0xa
 4357 0c8f 8602     		.2byte	0x286
 4358 0c91 A6000000 		.4byte	0xa6
 4359 0c95 48       		.byte	0x48
 4360 0c96 0A       		.uleb128 0xa
 4361 0c97 16170000 		.4byte	.LASF202
 4362 0c9b 0A       		.byte	0xa
 4363 0c9c 8702     		.2byte	0x287
 4364 0c9e 9F000000 		.4byte	0x9f
 4365 0ca2 50       		.byte	0x50
 4366 0ca3 0A       		.uleb128 0xa
 4367 0ca4 EE010000 		.4byte	.LASF203
 4368 0ca8 0A       		.byte	0xa
 4369 0ca9 8802     		.2byte	0x288
 4370 0cab 070C0000 		.4byte	0xc07
 4371 0caf 58       		.byte	0x58
 4372 0cb0 0A       		.uleb128 0xa
 4373 0cb1 BD090000 		.4byte	.LASF204
 4374 0cb5 0A       		.byte	0xa
 4375 0cb6 8902     		.2byte	0x289
 4376 0cb8 C8060000 		.4byte	0x6c8
 4377 0cbc 68       		.byte	0x68
 4378 0cbd 0A       		.uleb128 0xa
 4379 0cbe 23150000 		.4byte	.LASF205
 4380 0cc2 0A       		.byte	0xa
 4381 0cc3 8A02     		.2byte	0x28a
 4382 0cc5 C8060000 		.4byte	0x6c8
 4383 0cc9 70       		.byte	0x70
 4384 0cca 0A       		.uleb128 0xa
 4385 0ccb 9A010000 		.4byte	.LASF206
 4386 0ccf 0A       		.byte	0xa
 4387 0cd0 8B02     		.2byte	0x28b
 4388 0cd2 C8060000 		.4byte	0x6c8
 4389 0cd6 78       		.byte	0x78
ARM GAS  /var/folders/3j/4xdnk5197cv_b7cw3n33qk7r0000gn/T//ccSq9Yz5.s 			page 78


 4390 0cd7 0A       		.uleb128 0xa
 4391 0cd8 F3110000 		.4byte	.LASF207
 4392 0cdc 0A       		.byte	0xa
 4393 0cdd 8C02     		.2byte	0x28c
 4394 0cdf 5D0D0000 		.4byte	0xd5d
 4395 0ce3 80       		.byte	0x80
 4396 0ce4 0A       		.uleb128 0xa
 4397 0ce5 30020000 		.4byte	.LASF208
 4398 0ce9 0A       		.byte	0xa
 4399 0cea 8D02     		.2byte	0x28d
 4400 0cec 6D0D0000 		.4byte	0xd6d
 4401 0cf0 88       		.byte	0x88
 4402 0cf1 0A       		.uleb128 0xa
 4403 0cf2 17140000 		.4byte	.LASF209
 4404 0cf6 0A       		.byte	0xa
 4405 0cf7 8E02     		.2byte	0x28e
 4406 0cf9 A6000000 		.4byte	0xa6
 4407 0cfd A0       		.byte	0xa0
 4408 0cfe 0A       		.uleb128 0xa
 4409 0cff BF030000 		.4byte	.LASF210
 4410 0d03 0A       		.byte	0xa
 4411 0d04 8F02     		.2byte	0x28f
 4412 0d06 C8060000 		.4byte	0x6c8
 4413 0d0a A4       		.byte	0xa4
 4414 0d0b 0A       		.uleb128 0xa
 4415 0d0c 070A0000 		.4byte	.LASF211
 4416 0d10 0A       		.byte	0xa
 4417 0d11 9002     		.2byte	0x290
 4418 0d13 C8060000 		.4byte	0x6c8
 4419 0d17 AC       		.byte	0xac
 4420 0d18 0A       		.uleb128 0xa
 4421 0d19 CF080000 		.4byte	.LASF212
 4422 0d1d 0A       		.byte	0xa
 4423 0d1e 9102     		.2byte	0x291
 4424 0d20 C8060000 		.4byte	0x6c8
 4425 0d24 B4       		.byte	0xb4
 4426 0d25 0A       		.uleb128 0xa
 4427 0d26 CE0C0000 		.4byte	.LASF213
 4428 0d2a 0A       		.byte	0xa
 4429 0d2b 9202     		.2byte	0x292
 4430 0d2d C8060000 		.4byte	0x6c8
 4431 0d31 BC       		.byte	0xbc
 4432 0d32 0A       		.uleb128 0xa
 4433 0d33 E70D0000 		.4byte	.LASF214
 4434 0d37 0A       		.byte	0xa
 4435 0d38 9302     		.2byte	0x293
 4436 0d3a C8060000 		.4byte	0x6c8
 4437 0d3e C4       		.byte	0xc4
 4438 0d3f 0A       		.uleb128 0xa
 4439 0d40 270E0000 		.4byte	.LASF215
 4440 0d44 0A       		.byte	0xa
 4441 0d45 9402     		.2byte	0x294
 4442 0d47 A6000000 		.4byte	0xa6
 4443 0d4b CC       		.byte	0xcc
 4444 0d4c 00       		.byte	0
 4445 0d4d 06       		.uleb128 0x6
 4446 0d4e 2C010000 		.4byte	0x12c
ARM GAS  /var/folders/3j/4xdnk5197cv_b7cw3n33qk7r0000gn/T//ccSq9Yz5.s 			page 79


 4447 0d52 5D0D0000 		.4byte	0xd5d
 4448 0d56 07       		.uleb128 0x7
 4449 0d57 25000000 		.4byte	0x25
 4450 0d5b 19       		.byte	0x19
 4451 0d5c 00       		.byte	0
 4452 0d5d 06       		.uleb128 0x6
 4453 0d5e 2C010000 		.4byte	0x12c
 4454 0d62 6D0D0000 		.4byte	0xd6d
 4455 0d66 07       		.uleb128 0x7
 4456 0d67 25000000 		.4byte	0x25
 4457 0d6b 07       		.byte	0x7
 4458 0d6c 00       		.byte	0
 4459 0d6d 06       		.uleb128 0x6
 4460 0d6e 2C010000 		.4byte	0x12c
 4461 0d72 7D0D0000 		.4byte	0xd7d
 4462 0d76 07       		.uleb128 0x7
 4463 0d77 25000000 		.4byte	0x25
 4464 0d7b 17       		.byte	0x17
 4465 0d7c 00       		.byte	0
 4466 0d7d 0C       		.uleb128 0xc
 4467 0d7e F0       		.byte	0xf0
 4468 0d7f 0A       		.byte	0xa
 4469 0d80 9902     		.2byte	0x299
 4470 0d82 A10D0000 		.4byte	0xda1
 4471 0d86 0A       		.uleb128 0xa
 4472 0d87 A1050000 		.4byte	.LASF216
 4473 0d8b 0A       		.byte	0xa
 4474 0d8c 9C02     		.2byte	0x29c
 4475 0d8e A10D0000 		.4byte	0xda1
 4476 0d92 00       		.byte	0
 4477 0d93 0A       		.uleb128 0xa
 4478 0d94 65170000 		.4byte	.LASF217
 4479 0d98 0A       		.byte	0xa
 4480 0d99 9D02     		.2byte	0x29d
 4481 0d9b B10D0000 		.4byte	0xdb1
 4482 0d9f 78       		.byte	0x78
 4483 0da0 00       		.byte	0
 4484 0da1 06       		.uleb128 0x6
 4485 0da2 9B080000 		.4byte	0x89b
 4486 0da6 B10D0000 		.4byte	0xdb1
 4487 0daa 07       		.uleb128 0x7
 4488 0dab 25000000 		.4byte	0x25
 4489 0daf 1D       		.byte	0x1d
 4490 0db0 00       		.byte	0
 4491 0db1 06       		.uleb128 0x6
 4492 0db2 25000000 		.4byte	0x25
 4493 0db6 C10D0000 		.4byte	0xdc1
 4494 0dba 07       		.uleb128 0x7
 4495 0dbb 25000000 		.4byte	0x25
 4496 0dbf 1D       		.byte	0x1d
 4497 0dc0 00       		.byte	0
 4498 0dc1 1D       		.uleb128 0x1d
 4499 0dc2 F0       		.byte	0xf0
 4500 0dc3 0A       		.byte	0xa
 4501 0dc4 7E02     		.2byte	0x27e
 4502 0dc6 E30D0000 		.4byte	0xde3
 4503 0dca 1E       		.uleb128 0x1e
ARM GAS  /var/folders/3j/4xdnk5197cv_b7cw3n33qk7r0000gn/T//ccSq9Yz5.s 			page 80


 4504 0dcb 9B0F0000 		.4byte	.LASF167
 4505 0dcf 0A       		.byte	0xa
 4506 0dd0 9502     		.2byte	0x295
 4507 0dd2 4C0C0000 		.4byte	0xc4c
 4508 0dd6 1E       		.uleb128 0x1e
 4509 0dd7 9E110000 		.4byte	.LASF218
 4510 0ddb 0A       		.byte	0xa
 4511 0ddc 9E02     		.2byte	0x29e
 4512 0dde 7D0D0000 		.4byte	0xd7d
 4513 0de2 00       		.byte	0
 4514 0de3 06       		.uleb128 0x6
 4515 0de4 2C010000 		.4byte	0x12c
 4516 0de8 F30D0000 		.4byte	0xdf3
 4517 0dec 07       		.uleb128 0x7
 4518 0ded 25000000 		.4byte	0x25
 4519 0df1 18       		.byte	0x18
 4520 0df2 00       		.byte	0
 4521 0df3 11       		.uleb128 0x11
 4522 0df4 9C030000 		.4byte	.LASF220
 4523 0df8 0F       		.uleb128 0xf
 4524 0df9 04       		.byte	0x4
 4525 0dfa F30D0000 		.4byte	0xdf3
 4526 0dfe 1F       		.uleb128 0x1f
 4527 0dff 090E0000 		.4byte	0xe09
 4528 0e03 1A       		.uleb128 0x1a
 4529 0e04 E9090000 		.4byte	0x9e9
 4530 0e08 00       		.byte	0
 4531 0e09 0F       		.uleb128 0xf
 4532 0e0a 04       		.byte	0x4
 4533 0e0b FE0D0000 		.4byte	0xdfe
 4534 0e0f 0F       		.uleb128 0xf
 4535 0e10 04       		.byte	0x4
 4536 0e11 3C070000 		.4byte	0x73c
 4537 0e15 1F       		.uleb128 0x1f
 4538 0e16 200E0000 		.4byte	0xe20
 4539 0e1a 1A       		.uleb128 0x1a
 4540 0e1b A6000000 		.4byte	0xa6
 4541 0e1f 00       		.byte	0
 4542 0e20 0F       		.uleb128 0xf
 4543 0e21 04       		.byte	0x4
 4544 0e22 260E0000 		.4byte	0xe26
 4545 0e26 0F       		.uleb128 0xf
 4546 0e27 04       		.byte	0x4
 4547 0e28 150E0000 		.4byte	0xe15
 4548 0e2c 06       		.uleb128 0x6
 4549 0e2d BA0B0000 		.4byte	0xbba
 4550 0e31 3C0E0000 		.4byte	0xe3c
 4551 0e35 07       		.uleb128 0x7
 4552 0e36 25000000 		.4byte	0x25
 4553 0e3a 02       		.byte	0x2
 4554 0e3b 00       		.byte	0
 4555 0e3c 20       		.uleb128 0x20
 4556 0e3d 5C040000 		.4byte	.LASF221
 4557 0e41 0A       		.byte	0xa
 4558 0e42 2E03     		.2byte	0x32e
 4559 0e44 E9090000 		.4byte	0x9e9
 4560 0e48 20       		.uleb128 0x20
ARM GAS  /var/folders/3j/4xdnk5197cv_b7cw3n33qk7r0000gn/T//ccSq9Yz5.s 			page 81


 4561 0e49 40110000 		.4byte	.LASF222
 4562 0e4d 0A       		.byte	0xa
 4563 0e4e 2F03     		.2byte	0x32f
 4564 0e50 EF090000 		.4byte	0x9ef
 4565 0e54 21       		.uleb128 0x21
 4566 0e55 6001     		.2byte	0x160
 4567 0e57 0B       		.byte	0xb
 4568 0e58 39       		.byte	0x39
 4569 0e59 910E0000 		.4byte	0xe91
 4570 0e5d 09       		.uleb128 0x9
 4571 0e5e 44170000 		.4byte	.LASF223
 4572 0e62 0B       		.byte	0xb
 4573 0e63 3A       		.byte	0x3a
 4574 0e64 26060000 		.4byte	0x626
 4575 0e68 00       		.byte	0
 4576 0e69 17       		.uleb128 0x17
 4577 0e6a BB100000 		.4byte	.LASF224
 4578 0e6e 0B       		.byte	0xb
 4579 0e6f 3D       		.byte	0x3d
 4580 0e70 B8000000 		.4byte	0xb8
 4581 0e74 5C01     		.2byte	0x15c
 4582 0e76 17       		.uleb128 0x17
 4583 0e77 51120000 		.4byte	.LASF225
 4584 0e7b 0B       		.byte	0xb
 4585 0e7c 3E       		.byte	0x3e
 4586 0e7d B8000000 		.4byte	0xb8
 4587 0e81 5D01     		.2byte	0x15d
 4588 0e83 17       		.uleb128 0x17
 4589 0e84 A8080000 		.4byte	.LASF226
 4590 0e88 0B       		.byte	0xb
 4591 0e89 3F       		.byte	0x3f
 4592 0e8a D3000000 		.4byte	0xd3
 4593 0e8e 5E01     		.2byte	0x15e
 4594 0e90 00       		.byte	0
 4595 0e91 03       		.uleb128 0x3
 4596 0e92 CD030000 		.4byte	.LASF227
 4597 0e96 0B       		.byte	0xb
 4598 0e97 41       		.byte	0x41
 4599 0e98 540E0000 		.4byte	0xe54
 4600 0e9c 03       		.uleb128 0x3
 4601 0e9d 54010000 		.4byte	.LASF228
 4602 0ea1 0B       		.byte	0xb
 4603 0ea2 48       		.byte	0x48
 4604 0ea3 A70E0000 		.4byte	0xea7
 4605 0ea7 0F       		.uleb128 0xf
 4606 0ea8 04       		.byte	0x4
 4607 0ea9 910E0000 		.4byte	0xe91
 4608 0ead 22       		.uleb128 0x22
 4609 0eae 3F080000 		.4byte	.LASF229
 4610 0eb2 0C       		.byte	0xc
 4611 0eb3 63       		.byte	0x63
 4612 0eb4 260B0000 		.4byte	0xb26
 4613 0eb8 06       		.uleb128 0x6
 4614 0eb9 E9000000 		.4byte	0xe9
 4615 0ebd C80E0000 		.4byte	0xec8
 4616 0ec1 07       		.uleb128 0x7
 4617 0ec2 25000000 		.4byte	0x25
ARM GAS  /var/folders/3j/4xdnk5197cv_b7cw3n33qk7r0000gn/T//ccSq9Yz5.s 			page 82


 4618 0ec6 03       		.byte	0x3
 4619 0ec7 00       		.byte	0
 4620 0ec8 23       		.uleb128 0x23
 4621 0ec9 850D0000 		.4byte	.LASF230
 4622 0ecd 01       		.byte	0x1
 4623 0ece 30       		.byte	0x30
 4624 0ecf B80E0000 		.4byte	0xeb8
 4625 0ed3 05       		.uleb128 0x5
 4626 0ed4 03       		.byte	0x3
 4627 0ed5 00000000 		.4byte	refArrayQuadrants
 4628 0ed9 24       		.uleb128 0x24
 4629 0eda 61070000 		.4byte	.LASF236
 4630 0ede 01       		.byte	0x1
 4631 0edf EF04     		.2byte	0x4ef
 4632 0ee1 38010000 		.4byte	0x138
 4633 0ee5 00000000 		.4byte	.LFB25
 4634 0ee9 30000000 		.4byte	.LFE25-.LFB25
 4635 0eed 01       		.uleb128 0x1
 4636 0eee 9C       		.byte	0x9c
 4637 0eef 8A0F0000 		.4byte	0xf8a
 4638 0ef3 25       		.uleb128 0x25
 4639 0ef4 44657600 		.ascii	"Dev\000"
 4640 0ef8 01       		.byte	0x1
 4641 0ef9 EF04     		.2byte	0x4ef
 4642 0efb 9C0E0000 		.4byte	0xe9c
 4643 0eff 00000000 		.4byte	.LLST142
 4644 0f03 26       		.uleb128 0x26
 4645 0f04 1F0A0000 		.4byte	.LASF231
 4646 0f08 01       		.byte	0x1
 4647 0f09 F004     		.2byte	0x4f0
 4648 0f0b 20060000 		.4byte	0x620
 4649 0f0f 21000000 		.4byte	.LLST143
 4650 0f13 26       		.uleb128 0x26
 4651 0f14 B4040000 		.4byte	.LASF232
 4652 0f18 01       		.byte	0x1
 4653 0f19 F004     		.2byte	0x4f0
 4654 0f1b 20060000 		.4byte	0x620
 4655 0f1f 4E000000 		.4byte	.LLST144
 4656 0f23 27       		.uleb128 0x27
 4657 0f24 6F020000 		.4byte	.LASF233
 4658 0f28 01       		.byte	0x1
 4659 0f29 F204     		.2byte	0x4f2
 4660 0f2b 38010000 		.4byte	0x138
 4661 0f2f 7B000000 		.4byte	.LLST145
 4662 0f33 28       		.uleb128 0x28
 4663 0f34 B0110000 		.4byte	.LASF234
 4664 0f38 01       		.byte	0x1
 4665 0f39 F304     		.2byte	0x4f3
 4666 0f3b B8000000 		.4byte	0xb8
 4667 0f3f 00       		.byte	0
 4668 0f40 28       		.uleb128 0x28
 4669 0f41 4E0B0000 		.4byte	.LASF235
 4670 0f45 01       		.byte	0x1
 4671 0f46 F404     		.2byte	0x4f4
 4672 0f48 B8000000 		.4byte	0xb8
 4673 0f4c 00       		.byte	0
 4674 0f4d 29       		.uleb128 0x29
ARM GAS  /var/folders/3j/4xdnk5197cv_b7cw3n33qk7r0000gn/T//ccSq9Yz5.s 			page 83


 4675 0f4e 28000000 		.4byte	.LVL379
 4676 0f52 6F130000 		.4byte	0x136f
 4677 0f56 2A       		.uleb128 0x2a
 4678 0f57 01       		.uleb128 0x1
 4679 0f58 50       		.byte	0x50
 4680 0f59 03       		.uleb128 0x3
 4681 0f5a F3       		.byte	0xf3
 4682 0f5b 01       		.uleb128 0x1
 4683 0f5c 50       		.byte	0x50
 4684 0f5d 2A       		.uleb128 0x2a
 4685 0f5e 01       		.uleb128 0x1
 4686 0f5f 51       		.byte	0x51
 4687 0f60 01       		.uleb128 0x1
 4688 0f61 31       		.byte	0x31
 4689 0f62 2A       		.uleb128 0x2a
 4690 0f63 01       		.uleb128 0x1
 4691 0f64 52       		.byte	0x52
 4692 0f65 01       		.uleb128 0x1
 4693 0f66 30       		.byte	0x30
 4694 0f67 2A       		.uleb128 0x2a
 4695 0f68 01       		.uleb128 0x1
 4696 0f69 53       		.byte	0x53
 4697 0f6a 01       		.uleb128 0x1
 4698 0f6b 30       		.byte	0x30
 4699 0f6c 2A       		.uleb128 0x2a
 4700 0f6d 02       		.uleb128 0x2
 4701 0f6e 7D       		.byte	0x7d
 4702 0f6f 00       		.sleb128 0
 4703 0f70 03       		.uleb128 0x3
 4704 0f71 F3       		.byte	0xf3
 4705 0f72 01       		.uleb128 0x1
 4706 0f73 51       		.byte	0x51
 4707 0f74 2A       		.uleb128 0x2a
 4708 0f75 02       		.uleb128 0x2
 4709 0f76 7D       		.byte	0x7d
 4710 0f77 04       		.sleb128 4
 4711 0f78 03       		.uleb128 0x3
 4712 0f79 F3       		.byte	0xf3
 4713 0f7a 01       		.uleb128 0x1
 4714 0f7b 52       		.byte	0x52
 4715 0f7c 2A       		.uleb128 0x2a
 4716 0f7d 02       		.uleb128 0x2
 4717 0f7e 7D       		.byte	0x7d
 4718 0f7f 08       		.sleb128 8
 4719 0f80 01       		.uleb128 0x1
 4720 0f81 31       		.byte	0x31
 4721 0f82 2A       		.uleb128 0x2a
 4722 0f83 02       		.uleb128 0x2
 4723 0f84 7D       		.byte	0x7d
 4724 0f85 0C       		.sleb128 12
 4725 0f86 01       		.uleb128 0x1
 4726 0f87 31       		.byte	0x31
 4727 0f88 00       		.byte	0
 4728 0f89 00       		.byte	0
 4729 0f8a 24       		.uleb128 0x24
 4730 0f8b 3C0F0000 		.4byte	.LASF237
 4731 0f8f 01       		.byte	0x1
ARM GAS  /var/folders/3j/4xdnk5197cv_b7cw3n33qk7r0000gn/T//ccSq9Yz5.s 			page 84


 4732 0f90 E004     		.2byte	0x4e0
 4733 0f92 38010000 		.4byte	0x138
 4734 0f96 00000000 		.4byte	.LFB24
 4735 0f9a 38000000 		.4byte	.LFE24-.LFB24
 4736 0f9e 01       		.uleb128 0x1
 4737 0f9f 9C       		.byte	0x9c
 4738 0fa0 33100000 		.4byte	0x1033
 4739 0fa4 25       		.uleb128 0x25
 4740 0fa5 44657600 		.ascii	"Dev\000"
 4741 0fa9 01       		.byte	0x1
 4742 0faa E004     		.2byte	0x4e0
 4743 0fac 9C0E0000 		.4byte	0xe9c
 4744 0fb0 9A000000 		.4byte	.LLST138
 4745 0fb4 26       		.uleb128 0x26
 4746 0fb5 B0110000 		.4byte	.LASF234
 4747 0fb9 01       		.byte	0x1
 4748 0fba E104     		.2byte	0x4e1
 4749 0fbc B8000000 		.4byte	0xb8
 4750 0fc0 BB000000 		.4byte	.LLST139
 4751 0fc4 26       		.uleb128 0x26
 4752 0fc5 4E0B0000 		.4byte	.LASF235
 4753 0fc9 01       		.byte	0x1
 4754 0fca E104     		.2byte	0x4e1
 4755 0fcc B8000000 		.4byte	0xb8
 4756 0fd0 DC000000 		.4byte	.LLST140
 4757 0fd4 27       		.uleb128 0x27
 4758 0fd5 6F020000 		.4byte	.LASF233
 4759 0fd9 01       		.byte	0x1
 4760 0fda E304     		.2byte	0x4e3
 4761 0fdc 38010000 		.4byte	0x138
 4762 0fe0 FD000000 		.4byte	.LLST141
 4763 0fe4 2B       		.uleb128 0x2b
 4764 0fe5 1F0A0000 		.4byte	.LASF231
 4765 0fe9 01       		.byte	0x1
 4766 0fea E404     		.2byte	0x4e4
 4767 0fec B8000000 		.4byte	0xb8
 4768 0ff0 02       		.uleb128 0x2
 4769 0ff1 91       		.byte	0x91
 4770 0ff2 76       		.sleb128 -10
 4771 0ff3 2B       		.uleb128 0x2b
 4772 0ff4 B4040000 		.4byte	.LASF232
 4773 0ff8 01       		.byte	0x1
 4774 0ff9 E504     		.2byte	0x4e5
 4775 0ffb B8000000 		.4byte	0xb8
 4776 0fff 02       		.uleb128 0x2
 4777 1000 91       		.byte	0x91
 4778 1001 77       		.sleb128 -9
 4779 1002 29       		.uleb128 0x29
 4780 1003 30000000 		.4byte	.LVL375
 4781 1007 6F130000 		.4byte	0x136f
 4782 100b 2A       		.uleb128 0x2a
 4783 100c 01       		.uleb128 0x1
 4784 100d 50       		.byte	0x50
 4785 100e 03       		.uleb128 0x3
 4786 100f F3       		.byte	0xf3
 4787 1010 01       		.uleb128 0x1
 4788 1011 50       		.byte	0x50
ARM GAS  /var/folders/3j/4xdnk5197cv_b7cw3n33qk7r0000gn/T//ccSq9Yz5.s 			page 85


 4789 1012 2A       		.uleb128 0x2a
 4790 1013 01       		.uleb128 0x1
 4791 1014 51       		.byte	0x51
 4792 1015 01       		.uleb128 0x1
 4793 1016 30       		.byte	0x30
 4794 1017 2A       		.uleb128 0x2a
 4795 1018 02       		.uleb128 0x2
 4796 1019 7D       		.byte	0x7d
 4797 101a 00       		.sleb128 0
 4798 101b 02       		.uleb128 0x2
 4799 101c 91       		.byte	0x91
 4800 101d 6E       		.sleb128 -18
 4801 101e 2A       		.uleb128 0x2a
 4802 101f 02       		.uleb128 0x2
 4803 1020 7D       		.byte	0x7d
 4804 1021 04       		.sleb128 4
 4805 1022 02       		.uleb128 0x2
 4806 1023 74       		.byte	0x74
 4807 1024 00       		.sleb128 0
 4808 1025 2A       		.uleb128 0x2a
 4809 1026 02       		.uleb128 0x2
 4810 1027 7D       		.byte	0x7d
 4811 1028 08       		.sleb128 8
 4812 1029 01       		.uleb128 0x1
 4813 102a 31       		.byte	0x31
 4814 102b 2A       		.uleb128 0x2a
 4815 102c 02       		.uleb128 0x2
 4816 102d 7D       		.byte	0x7d
 4817 102e 0C       		.sleb128 12
 4818 102f 01       		.uleb128 0x1
 4819 1030 31       		.byte	0x31
 4820 1031 00       		.byte	0
 4821 1032 00       		.byte	0
 4822 1033 24       		.uleb128 0x24
 4823 1034 AF170000 		.4byte	.LASF238
 4824 1038 01       		.byte	0x1
 4825 1039 BD04     		.2byte	0x4bd
 4826 103b 38010000 		.4byte	0x138
 4827 103f 00000000 		.4byte	.LFB23
 4828 1043 60000000 		.4byte	.LFE23-.LFB23
 4829 1047 01       		.uleb128 0x1
 4830 1048 9C       		.byte	0x9c
 4831 1049 0F110000 		.4byte	0x110f
 4832 104d 25       		.uleb128 0x25
 4833 104e 44657600 		.ascii	"Dev\000"
 4834 1052 01       		.byte	0x1
 4835 1053 BD04     		.2byte	0x4bd
 4836 1055 9C0E0000 		.4byte	0xe9c
 4837 1059 1C010000 		.4byte	.LLST115
 4838 105d 26       		.uleb128 0x26
 4839 105e 1F0A0000 		.4byte	.LASF231
 4840 1062 01       		.byte	0x1
 4841 1063 BE04     		.2byte	0x4be
 4842 1065 20060000 		.4byte	0x620
 4843 1069 3A010000 		.4byte	.LLST116
 4844 106d 26       		.uleb128 0x26
 4845 106e B4040000 		.4byte	.LASF232
ARM GAS  /var/folders/3j/4xdnk5197cv_b7cw3n33qk7r0000gn/T//ccSq9Yz5.s 			page 86


 4846 1072 01       		.byte	0x1
 4847 1073 BE04     		.2byte	0x4be
 4848 1075 20060000 		.4byte	0x620
 4849 1079 5B010000 		.4byte	.LLST117
 4850 107d 26       		.uleb128 0x26
 4851 107e 8E110000 		.4byte	.LASF239
 4852 1082 01       		.byte	0x1
 4853 1083 BE04     		.2byte	0x4be
 4854 1085 B8000000 		.4byte	0xb8
 4855 1089 79010000 		.4byte	.LLST118
 4856 108d 27       		.uleb128 0x27
 4857 108e 6F020000 		.4byte	.LASF233
 4858 1092 01       		.byte	0x1
 4859 1093 C004     		.2byte	0x4c0
 4860 1095 38010000 		.4byte	0x138
 4861 1099 9A010000 		.4byte	.LLST119
 4862 109d 27       		.uleb128 0x27
 4863 109e 840F0000 		.4byte	.LASF97
 4864 10a2 01       		.byte	0x1
 4865 10a3 C104     		.2byte	0x4c1
 4866 10a5 B8000000 		.4byte	0xb8
 4867 10a9 DA010000 		.4byte	.LLST120
 4868 10ad 2C       		.uleb128 0x2c
 4869 10ae 20000000 		.4byte	.LVL303
 4870 10b2 38120000 		.4byte	0x1238
 4871 10b6 D3100000 		.4byte	0x10d3
 4872 10ba 2A       		.uleb128 0x2a
 4873 10bb 01       		.uleb128 0x1
 4874 10bc 50       		.byte	0x50
 4875 10bd 02       		.uleb128 0x2
 4876 10be 74       		.byte	0x74
 4877 10bf 00       		.sleb128 0
 4878 10c0 2A       		.uleb128 0x2a
 4879 10c1 01       		.uleb128 0x1
 4880 10c2 51       		.byte	0x51
 4881 10c3 03       		.uleb128 0x3
 4882 10c4 F3       		.byte	0xf3
 4883 10c5 01       		.uleb128 0x1
 4884 10c6 51       		.byte	0x51
 4885 10c7 2A       		.uleb128 0x2a
 4886 10c8 01       		.uleb128 0x1
 4887 10c9 52       		.byte	0x52
 4888 10ca 02       		.uleb128 0x2
 4889 10cb 75       		.byte	0x75
 4890 10cc 00       		.sleb128 0
 4891 10cd 2A       		.uleb128 0x2a
 4892 10ce 01       		.uleb128 0x1
 4893 10cf 53       		.byte	0x53
 4894 10d0 01       		.uleb128 0x1
 4895 10d1 30       		.byte	0x30
 4896 10d2 00       		.byte	0
 4897 10d3 2C       		.uleb128 0x2c
 4898 10d4 3C000000 		.4byte	.LVL305
 4899 10d8 0F110000 		.4byte	0x110f
 4900 10dc F3100000 		.4byte	0x10f3
 4901 10e0 2A       		.uleb128 0x2a
 4902 10e1 01       		.uleb128 0x1
ARM GAS  /var/folders/3j/4xdnk5197cv_b7cw3n33qk7r0000gn/T//ccSq9Yz5.s 			page 87


 4903 10e2 50       		.byte	0x50
 4904 10e3 02       		.uleb128 0x2
 4905 10e4 74       		.byte	0x74
 4906 10e5 00       		.sleb128 0
 4907 10e6 2A       		.uleb128 0x2a
 4908 10e7 01       		.uleb128 0x1
 4909 10e8 51       		.byte	0x51
 4910 10e9 02       		.uleb128 0x2
 4911 10ea 77       		.byte	0x77
 4912 10eb 00       		.sleb128 0
 4913 10ec 2A       		.uleb128 0x2a
 4914 10ed 01       		.uleb128 0x1
 4915 10ee 52       		.byte	0x52
 4916 10ef 02       		.uleb128 0x2
 4917 10f0 75       		.byte	0x75
 4918 10f1 00       		.sleb128 0
 4919 10f2 00       		.byte	0
 4920 10f3 29       		.uleb128 0x29
 4921 10f4 54000000 		.4byte	.LVL307
 4922 10f8 DF290000 		.4byte	0x29df
 4923 10fc 2A       		.uleb128 0x2a
 4924 10fd 01       		.uleb128 0x1
 4925 10fe 50       		.byte	0x50
 4926 10ff 02       		.uleb128 0x2
 4927 1100 74       		.byte	0x74
 4928 1101 00       		.sleb128 0
 4929 1102 2A       		.uleb128 0x2a
 4930 1103 01       		.uleb128 0x1
 4931 1104 51       		.byte	0x51
 4932 1105 01       		.uleb128 0x1
 4933 1106 31       		.byte	0x31
 4934 1107 2A       		.uleb128 0x2a
 4935 1108 01       		.uleb128 0x1
 4936 1109 52       		.byte	0x52
 4937 110a 02       		.uleb128 0x2
 4938 110b 76       		.byte	0x76
 4939 110c 00       		.sleb128 0
 4940 110d 00       		.byte	0
 4941 110e 00       		.byte	0
 4942 110f 24       		.uleb128 0x24
 4943 1110 20000000 		.4byte	.LASF240
 4944 1114 01       		.byte	0x1
 4945 1115 9004     		.2byte	0x490
 4946 1117 38010000 		.4byte	0x138
 4947 111b 00000000 		.4byte	.LFB22
 4948 111f B8000000 		.4byte	.LFE22-.LFB22
 4949 1123 01       		.uleb128 0x1
 4950 1124 9C       		.byte	0x9c
 4951 1125 38120000 		.4byte	0x1238
 4952 1129 25       		.uleb128 0x25
 4953 112a 44657600 		.ascii	"Dev\000"
 4954 112e 01       		.byte	0x1
 4955 112f 9004     		.2byte	0x490
 4956 1131 9C0E0000 		.4byte	0xe9c
 4957 1135 F9010000 		.4byte	.LLST109
 4958 1139 26       		.uleb128 0x26
 4959 113a B4040000 		.4byte	.LASF232
ARM GAS  /var/folders/3j/4xdnk5197cv_b7cw3n33qk7r0000gn/T//ccSq9Yz5.s 			page 88


 4960 113e 01       		.byte	0x1
 4961 113f 9104     		.2byte	0x491
 4962 1141 20060000 		.4byte	0x620
 4963 1145 17020000 		.4byte	.LLST110
 4964 1149 26       		.uleb128 0x26
 4965 114a 8E110000 		.4byte	.LASF239
 4966 114e 01       		.byte	0x1
 4967 114f 9104     		.2byte	0x491
 4968 1151 C3000000 		.4byte	0xc3
 4969 1155 35020000 		.4byte	.LLST111
 4970 1159 26       		.uleb128 0x26
 4971 115a 7D070000 		.4byte	.LASF241
 4972 115e 01       		.byte	0x1
 4973 115f 9204     		.2byte	0x492
 4974 1161 C3000000 		.4byte	0xc3
 4975 1165 56020000 		.4byte	.LLST112
 4976 1169 27       		.uleb128 0x27
 4977 116a 6F020000 		.4byte	.LASF233
 4978 116e 01       		.byte	0x1
 4979 116f 9404     		.2byte	0x494
 4980 1171 38010000 		.4byte	0x138
 4981 1175 77020000 		.4byte	.LLST113
 4982 1179 27       		.uleb128 0x27
 4983 117a 840F0000 		.4byte	.LASF97
 4984 117e 01       		.byte	0x1
 4985 117f 9504     		.2byte	0x495
 4986 1181 B8000000 		.4byte	0xb8
 4987 1185 C2020000 		.4byte	.LLST114
 4988 1189 28       		.uleb128 0x28
 4989 118a B0110000 		.4byte	.LASF234
 4990 118e 01       		.byte	0x1
 4991 118f 9604     		.2byte	0x496
 4992 1191 B8000000 		.4byte	0xb8
 4993 1195 00       		.byte	0
 4994 1196 28       		.uleb128 0x28
 4995 1197 4E0B0000 		.4byte	.LASF235
 4996 119b 01       		.byte	0x1
 4997 119c 9704     		.2byte	0x497
 4998 119e B8000000 		.4byte	0xb8
 4999 11a2 00       		.byte	0
 5000 11a3 2B       		.uleb128 0x2b
 5001 11a4 7E040000 		.4byte	.LASF242
 5002 11a8 01       		.byte	0x1
 5003 11a9 9804     		.2byte	0x498
 5004 11ab B8000000 		.4byte	0xb8
 5005 11af 02       		.uleb128 0x2
 5006 11b0 91       		.byte	0x91
 5007 11b1 5F       		.sleb128 -33
 5008 11b2 2C       		.uleb128 0x2c
 5009 11b3 2C000000 		.4byte	.LVL288
 5010 11b7 DF290000 		.4byte	0x29df
 5011 11bb D0110000 		.4byte	0x11d0
 5012 11bf 2A       		.uleb128 0x2a
 5013 11c0 01       		.uleb128 0x1
 5014 11c1 50       		.byte	0x50
 5015 11c2 02       		.uleb128 0x2
 5016 11c3 75       		.byte	0x75
ARM GAS  /var/folders/3j/4xdnk5197cv_b7cw3n33qk7r0000gn/T//ccSq9Yz5.s 			page 89


 5017 11c4 00       		.sleb128 0
 5018 11c5 2A       		.uleb128 0x2a
 5019 11c6 01       		.uleb128 0x1
 5020 11c7 51       		.byte	0x51
 5021 11c8 01       		.uleb128 0x1
 5022 11c9 31       		.byte	0x31
 5023 11ca 2A       		.uleb128 0x2a
 5024 11cb 01       		.uleb128 0x1
 5025 11cc 52       		.byte	0x52
 5026 11cd 01       		.uleb128 0x1
 5027 11ce 32       		.byte	0x32
 5028 11cf 00       		.byte	0
 5029 11d0 2C       		.uleb128 0x2c
 5030 11d1 68000000 		.4byte	.LVL291
 5031 11d5 DF290000 		.4byte	0x29df
 5032 11d9 EF110000 		.4byte	0x11ef
 5033 11dd 2A       		.uleb128 0x2a
 5034 11de 01       		.uleb128 0x1
 5035 11df 50       		.byte	0x50
 5036 11e0 02       		.uleb128 0x2
 5037 11e1 75       		.byte	0x75
 5038 11e2 00       		.sleb128 0
 5039 11e3 2A       		.uleb128 0x2a
 5040 11e4 01       		.uleb128 0x1
 5041 11e5 51       		.byte	0x51
 5042 11e6 01       		.uleb128 0x1
 5043 11e7 31       		.byte	0x31
 5044 11e8 2A       		.uleb128 0x2a
 5045 11e9 01       		.uleb128 0x1
 5046 11ea 52       		.byte	0x52
 5047 11eb 02       		.uleb128 0x2
 5048 11ec 78       		.byte	0x78
 5049 11ed 00       		.sleb128 0
 5050 11ee 00       		.byte	0
 5051 11ef 2C       		.uleb128 0x2c
 5052 11f0 84000000 		.4byte	.LVL296
 5053 11f4 62150000 		.4byte	0x1562
 5054 11f8 09120000 		.4byte	0x1209
 5055 11fc 2A       		.uleb128 0x2a
 5056 11fd 01       		.uleb128 0x1
 5057 11fe 50       		.byte	0x50
 5058 11ff 02       		.uleb128 0x2
 5059 1200 75       		.byte	0x75
 5060 1201 00       		.sleb128 0
 5061 1202 2A       		.uleb128 0x2a
 5062 1203 01       		.uleb128 0x1
 5063 1204 51       		.byte	0x51
 5064 1205 02       		.uleb128 0x2
 5065 1206 77       		.byte	0x77
 5066 1207 00       		.sleb128 0
 5067 1208 00       		.byte	0
 5068 1209 29       		.uleb128 0x29
 5069 120a B4000000 		.4byte	.LVL298
 5070 120e 6F130000 		.4byte	0x136f
 5071 1212 2A       		.uleb128 0x2a
 5072 1213 01       		.uleb128 0x1
 5073 1214 50       		.byte	0x50
ARM GAS  /var/folders/3j/4xdnk5197cv_b7cw3n33qk7r0000gn/T//ccSq9Yz5.s 			page 90


 5074 1215 02       		.uleb128 0x2
 5075 1216 75       		.byte	0x75
 5076 1217 00       		.sleb128 0
 5077 1218 2A       		.uleb128 0x2a
 5078 1219 01       		.uleb128 0x1
 5079 121a 51       		.byte	0x51
 5080 121b 01       		.uleb128 0x1
 5081 121c 31       		.byte	0x31
 5082 121d 2A       		.uleb128 0x2a
 5083 121e 01       		.uleb128 0x1
 5084 121f 52       		.byte	0x52
 5085 1220 02       		.uleb128 0x2
 5086 1221 77       		.byte	0x77
 5087 1222 00       		.sleb128 0
 5088 1223 2A       		.uleb128 0x2a
 5089 1224 01       		.uleb128 0x1
 5090 1225 53       		.byte	0x53
 5091 1226 02       		.uleb128 0x2
 5092 1227 77       		.byte	0x77
 5093 1228 00       		.sleb128 0
 5094 1229 2A       		.uleb128 0x2a
 5095 122a 02       		.uleb128 0x2
 5096 122b 7D       		.byte	0x7d
 5097 122c 00       		.sleb128 0
 5098 122d 02       		.uleb128 0x2
 5099 122e 91       		.byte	0x91
 5100 122f 57       		.sleb128 -41
 5101 1230 2A       		.uleb128 0x2a
 5102 1231 02       		.uleb128 0x2
 5103 1232 7D       		.byte	0x7d
 5104 1233 0C       		.sleb128 12
 5105 1234 01       		.uleb128 0x1
 5106 1235 31       		.byte	0x31
 5107 1236 00       		.byte	0
 5108 1237 00       		.byte	0
 5109 1238 24       		.uleb128 0x24
 5110 1239 C70D0000 		.4byte	.LASF243
 5111 123d 01       		.byte	0x1
 5112 123e 6304     		.2byte	0x463
 5113 1240 38010000 		.4byte	0x138
 5114 1244 00000000 		.4byte	.LFB21
 5115 1248 C4000000 		.4byte	.LFE21-.LFB21
 5116 124c 01       		.uleb128 0x1
 5117 124d 9C       		.byte	0x9c
 5118 124e 6F130000 		.4byte	0x136f
 5119 1252 25       		.uleb128 0x25
 5120 1253 44657600 		.ascii	"Dev\000"
 5121 1257 01       		.byte	0x1
 5122 1258 6304     		.2byte	0x463
 5123 125a 9C0E0000 		.4byte	0xe9c
 5124 125e E1020000 		.4byte	.LLST103
 5125 1262 26       		.uleb128 0x26
 5126 1263 1F0A0000 		.4byte	.LASF231
 5127 1267 01       		.byte	0x1
 5128 1268 6404     		.2byte	0x464
 5129 126a 20060000 		.4byte	0x620
 5130 126e FF020000 		.4byte	.LLST104
ARM GAS  /var/folders/3j/4xdnk5197cv_b7cw3n33qk7r0000gn/T//ccSq9Yz5.s 			page 91


 5131 1272 26       		.uleb128 0x26
 5132 1273 8E110000 		.4byte	.LASF239
 5133 1277 01       		.byte	0x1
 5134 1278 6404     		.2byte	0x464
 5135 127a C3000000 		.4byte	0xc3
 5136 127e 1D030000 		.4byte	.LLST105
 5137 1282 26       		.uleb128 0x26
 5138 1283 7D070000 		.4byte	.LASF241
 5139 1287 01       		.byte	0x1
 5140 1288 6504     		.2byte	0x465
 5141 128a C3000000 		.4byte	0xc3
 5142 128e 3E030000 		.4byte	.LLST106
 5143 1292 27       		.uleb128 0x27
 5144 1293 6F020000 		.4byte	.LASF233
 5145 1297 01       		.byte	0x1
 5146 1298 6704     		.2byte	0x467
 5147 129a 38010000 		.4byte	0x138
 5148 129e 5F030000 		.4byte	.LLST107
 5149 12a2 27       		.uleb128 0x27
 5150 12a3 840F0000 		.4byte	.LASF97
 5151 12a7 01       		.byte	0x1
 5152 12a8 6804     		.2byte	0x468
 5153 12aa B8000000 		.4byte	0xb8
 5154 12ae AA030000 		.4byte	.LLST108
 5155 12b2 28       		.uleb128 0x28
 5156 12b3 B0110000 		.4byte	.LASF234
 5157 12b7 01       		.byte	0x1
 5158 12b8 6904     		.2byte	0x469
 5159 12ba B8000000 		.4byte	0xb8
 5160 12be 00       		.byte	0
 5161 12bf 28       		.uleb128 0x28
 5162 12c0 4E0B0000 		.4byte	.LASF235
 5163 12c4 01       		.byte	0x1
 5164 12c5 6A04     		.2byte	0x46a
 5165 12c7 B8000000 		.4byte	0xb8
 5166 12cb 00       		.byte	0
 5167 12cc 2B       		.uleb128 0x2b
 5168 12cd 31150000 		.4byte	.LASF244
 5169 12d1 01       		.byte	0x1
 5170 12d2 6B04     		.2byte	0x46b
 5171 12d4 B8000000 		.4byte	0xb8
 5172 12d8 02       		.uleb128 0x2
 5173 12d9 91       		.byte	0x91
 5174 12da 5F       		.sleb128 -33
 5175 12db 2C       		.uleb128 0x2c
 5176 12dc 34000000 		.4byte	.LVL272
 5177 12e0 DF290000 		.4byte	0x29df
 5178 12e4 F9120000 		.4byte	0x12f9
 5179 12e8 2A       		.uleb128 0x2a
 5180 12e9 01       		.uleb128 0x1
 5181 12ea 50       		.byte	0x50
 5182 12eb 02       		.uleb128 0x2
 5183 12ec 75       		.byte	0x75
 5184 12ed 00       		.sleb128 0
 5185 12ee 2A       		.uleb128 0x2a
 5186 12ef 01       		.uleb128 0x1
 5187 12f0 51       		.byte	0x51
ARM GAS  /var/folders/3j/4xdnk5197cv_b7cw3n33qk7r0000gn/T//ccSq9Yz5.s 			page 92


 5188 12f1 01       		.uleb128 0x1
 5189 12f2 31       		.byte	0x31
 5190 12f3 2A       		.uleb128 0x2a
 5191 12f4 01       		.uleb128 0x1
 5192 12f5 52       		.byte	0x52
 5193 12f6 01       		.uleb128 0x1
 5194 12f7 31       		.byte	0x31
 5195 12f8 00       		.byte	0
 5196 12f9 2C       		.uleb128 0x2c
 5197 12fa 70000000 		.4byte	.LVL275
 5198 12fe DF290000 		.4byte	0x29df
 5199 1302 18130000 		.4byte	0x1318
 5200 1306 2A       		.uleb128 0x2a
 5201 1307 01       		.uleb128 0x1
 5202 1308 50       		.byte	0x50
 5203 1309 02       		.uleb128 0x2
 5204 130a 75       		.byte	0x75
 5205 130b 00       		.sleb128 0
 5206 130c 2A       		.uleb128 0x2a
 5207 130d 01       		.uleb128 0x1
 5208 130e 51       		.byte	0x51
 5209 130f 01       		.uleb128 0x1
 5210 1310 31       		.byte	0x31
 5211 1311 2A       		.uleb128 0x2a
 5212 1312 01       		.uleb128 0x1
 5213 1313 52       		.byte	0x52
 5214 1314 02       		.uleb128 0x2
 5215 1315 78       		.byte	0x78
 5216 1316 00       		.sleb128 0
 5217 1317 00       		.byte	0
 5218 1318 2C       		.uleb128 0x2c
 5219 1319 8C000000 		.4byte	.LVL280
 5220 131d 62150000 		.4byte	0x1562
 5221 1321 32130000 		.4byte	0x1332
 5222 1325 2A       		.uleb128 0x2a
 5223 1326 01       		.uleb128 0x1
 5224 1327 50       		.byte	0x50
 5225 1328 02       		.uleb128 0x2
 5226 1329 75       		.byte	0x75
 5227 132a 00       		.sleb128 0
 5228 132b 2A       		.uleb128 0x2a
 5229 132c 01       		.uleb128 0x1
 5230 132d 51       		.byte	0x51
 5231 132e 02       		.uleb128 0x2
 5232 132f 08       		.byte	0x8
 5233 1330 40       		.byte	0x40
 5234 1331 00       		.byte	0
 5235 1332 29       		.uleb128 0x29
 5236 1333 C0000000 		.4byte	.LVL282
 5237 1337 6F130000 		.4byte	0x136f
 5238 133b 2A       		.uleb128 0x2a
 5239 133c 01       		.uleb128 0x1
 5240 133d 50       		.byte	0x50
 5241 133e 02       		.uleb128 0x2
 5242 133f 75       		.byte	0x75
 5243 1340 00       		.sleb128 0
 5244 1341 2A       		.uleb128 0x2a
ARM GAS  /var/folders/3j/4xdnk5197cv_b7cw3n33qk7r0000gn/T//ccSq9Yz5.s 			page 93


 5245 1342 01       		.uleb128 0x1
 5246 1343 51       		.byte	0x51
 5247 1344 01       		.uleb128 0x1
 5248 1345 31       		.byte	0x31
 5249 1346 2A       		.uleb128 0x2a
 5250 1347 01       		.uleb128 0x1
 5251 1348 52       		.byte	0x52
 5252 1349 02       		.uleb128 0x2
 5253 134a 77       		.byte	0x77
 5254 134b 00       		.sleb128 0
 5255 134c 2A       		.uleb128 0x2a
 5256 134d 01       		.uleb128 0x1
 5257 134e 53       		.byte	0x53
 5258 134f 02       		.uleb128 0x2
 5259 1350 77       		.byte	0x77
 5260 1351 00       		.sleb128 0
 5261 1352 2A       		.uleb128 0x2a
 5262 1353 02       		.uleb128 0x2
 5263 1354 7D       		.byte	0x7d
 5264 1355 00       		.sleb128 0
 5265 1356 02       		.uleb128 0x2
 5266 1357 76       		.byte	0x76
 5267 1358 00       		.sleb128 0
 5268 1359 2A       		.uleb128 0x2a
 5269 135a 02       		.uleb128 0x2
 5270 135b 7D       		.byte	0x7d
 5271 135c 04       		.sleb128 4
 5272 135d 02       		.uleb128 0x2
 5273 135e 91       		.byte	0x91
 5274 135f 57       		.sleb128 -41
 5275 1360 2A       		.uleb128 0x2a
 5276 1361 02       		.uleb128 0x2
 5277 1362 7D       		.byte	0x7d
 5278 1363 08       		.sleb128 8
 5279 1364 01       		.uleb128 0x1
 5280 1365 31       		.byte	0x31
 5281 1366 2A       		.uleb128 0x2a
 5282 1367 02       		.uleb128 0x2
 5283 1368 7D       		.byte	0x7d
 5284 1369 0C       		.sleb128 12
 5285 136a 02       		.uleb128 0x2
 5286 136b 77       		.byte	0x77
 5287 136c 00       		.sleb128 0
 5288 136d 00       		.byte	0
 5289 136e 00       		.byte	0
 5290 136f 24       		.uleb128 0x24
 5291 1370 BC110000 		.4byte	.LASF245
 5292 1374 01       		.byte	0x1
 5293 1375 4004     		.2byte	0x440
 5294 1377 38010000 		.4byte	0x138
 5295 137b 00000000 		.4byte	.LFB20
 5296 137f 70010000 		.4byte	.LFE20-.LFB20
 5297 1383 01       		.uleb128 0x1
 5298 1384 9C       		.byte	0x9c
 5299 1385 62150000 		.4byte	0x1562
 5300 1389 25       		.uleb128 0x25
 5301 138a 44657600 		.ascii	"Dev\000"
ARM GAS  /var/folders/3j/4xdnk5197cv_b7cw3n33qk7r0000gn/T//ccSq9Yz5.s 			page 94


 5302 138e 01       		.byte	0x1
 5303 138f 4004     		.2byte	0x440
 5304 1391 9C0E0000 		.4byte	0xe9c
 5305 1395 C9030000 		.4byte	.LLST98
 5306 1399 26       		.uleb128 0x26
 5307 139a 76020000 		.4byte	.LASF246
 5308 139e 01       		.byte	0x1
 5309 139f 4004     		.2byte	0x440
 5310 13a1 B8000000 		.4byte	0xb8
 5311 13a5 E7030000 		.4byte	.LLST99
 5312 13a9 26       		.uleb128 0x26
 5313 13aa B0110000 		.4byte	.LASF234
 5314 13ae 01       		.byte	0x1
 5315 13af 4104     		.2byte	0x441
 5316 13b1 B8000000 		.4byte	0xb8
 5317 13b5 08040000 		.4byte	.LLST100
 5318 13b9 26       		.uleb128 0x26
 5319 13ba 4E0B0000 		.4byte	.LASF235
 5320 13be 01       		.byte	0x1
 5321 13bf 4104     		.2byte	0x441
 5322 13c1 B8000000 		.4byte	0xb8
 5323 13c5 29040000 		.4byte	.LLST101
 5324 13c9 2D       		.uleb128 0x2d
 5325 13ca 1F0A0000 		.4byte	.LASF231
 5326 13ce 01       		.byte	0x1
 5327 13cf 4204     		.2byte	0x442
 5328 13d1 20060000 		.4byte	0x620
 5329 13d5 02       		.uleb128 0x2
 5330 13d6 91       		.byte	0x91
 5331 13d7 00       		.sleb128 0
 5332 13d8 2D       		.uleb128 0x2d
 5333 13d9 B4040000 		.4byte	.LASF232
 5334 13dd 01       		.byte	0x1
 5335 13de 4204     		.2byte	0x442
 5336 13e0 20060000 		.4byte	0x620
 5337 13e4 02       		.uleb128 0x2
 5338 13e5 91       		.byte	0x91
 5339 13e6 04       		.sleb128 4
 5340 13e7 2D       		.uleb128 0x2d
 5341 13e8 16100000 		.4byte	.LASF247
 5342 13ec 01       		.byte	0x1
 5343 13ed 4304     		.2byte	0x443
 5344 13ef C3000000 		.4byte	0xc3
 5345 13f3 02       		.uleb128 0x2
 5346 13f4 91       		.byte	0x91
 5347 13f5 08       		.sleb128 8
 5348 13f6 2D       		.uleb128 0x2d
 5349 13f7 A2020000 		.4byte	.LASF248
 5350 13fb 01       		.byte	0x1
 5351 13fc 4304     		.2byte	0x443
 5352 13fe C3000000 		.4byte	0xc3
 5353 1402 02       		.uleb128 0x2
 5354 1403 91       		.byte	0x91
 5355 1404 0C       		.sleb128 12
 5356 1405 27       		.uleb128 0x27
 5357 1406 6F020000 		.4byte	.LASF233
 5358 140a 01       		.byte	0x1
ARM GAS  /var/folders/3j/4xdnk5197cv_b7cw3n33qk7r0000gn/T//ccSq9Yz5.s 			page 95


 5359 140b 4504     		.2byte	0x445
 5360 140d 38010000 		.4byte	0x138
 5361 1411 4A040000 		.4byte	.LLST102
 5362 1415 2B       		.uleb128 0x2b
 5363 1416 540E0000 		.4byte	.LASF249
 5364 141a 01       		.byte	0x1
 5365 141b 4604     		.2byte	0x446
 5366 141d B8000000 		.4byte	0xb8
 5367 1421 02       		.uleb128 0x2
 5368 1422 91       		.byte	0x91
 5369 1423 57       		.sleb128 -41
 5370 1424 2C       		.uleb128 0x2c
 5371 1425 34000000 		.4byte	.LVL239
 5372 1429 DF290000 		.4byte	0x29df
 5373 142d 43140000 		.4byte	0x1443
 5374 1431 2A       		.uleb128 0x2a
 5375 1432 01       		.uleb128 0x1
 5376 1433 50       		.byte	0x50
 5377 1434 02       		.uleb128 0x2
 5378 1435 75       		.byte	0x75
 5379 1436 00       		.sleb128 0
 5380 1437 2A       		.uleb128 0x2a
 5381 1438 01       		.uleb128 0x1
 5382 1439 51       		.byte	0x51
 5383 143a 02       		.uleb128 0x2
 5384 143b 09       		.byte	0x9
 5385 143c FF       		.byte	0xff
 5386 143d 2A       		.uleb128 0x2a
 5387 143e 01       		.uleb128 0x1
 5388 143f 52       		.byte	0x52
 5389 1440 01       		.uleb128 0x1
 5390 1441 31       		.byte	0x31
 5391 1442 00       		.byte	0
 5392 1443 2C       		.uleb128 0x2c
 5393 1444 48000000 		.4byte	.LVL241
 5394 1448 DF290000 		.4byte	0x29df
 5395 144c 63140000 		.4byte	0x1463
 5396 1450 2A       		.uleb128 0x2a
 5397 1451 01       		.uleb128 0x1
 5398 1452 50       		.byte	0x50
 5399 1453 02       		.uleb128 0x2
 5400 1454 75       		.byte	0x75
 5401 1455 00       		.sleb128 0
 5402 1456 2A       		.uleb128 0x2a
 5403 1457 01       		.uleb128 0x1
 5404 1458 51       		.byte	0x51
 5405 1459 02       		.uleb128 0x2
 5406 145a 74       		.byte	0x74
 5407 145b 00       		.sleb128 0
 5408 145c 2A       		.uleb128 0x2a
 5409 145d 01       		.uleb128 0x1
 5410 145e 52       		.byte	0x52
 5411 145f 02       		.uleb128 0x2
 5412 1460 74       		.byte	0x74
 5413 1461 00       		.sleb128 0
 5414 1462 00       		.byte	0
 5415 1463 2C       		.uleb128 0x2c
ARM GAS  /var/folders/3j/4xdnk5197cv_b7cw3n33qk7r0000gn/T//ccSq9Yz5.s 			page 96


 5416 1464 5C000000 		.4byte	.LVL242
 5417 1468 DF290000 		.4byte	0x29df
 5418 146c 82140000 		.4byte	0x1482
 5419 1470 2A       		.uleb128 0x2a
 5420 1471 01       		.uleb128 0x1
 5421 1472 50       		.byte	0x50
 5422 1473 02       		.uleb128 0x2
 5423 1474 75       		.byte	0x75
 5424 1475 00       		.sleb128 0
 5425 1476 2A       		.uleb128 0x2a
 5426 1477 01       		.uleb128 0x1
 5427 1478 51       		.byte	0x51
 5428 1479 02       		.uleb128 0x2
 5429 147a 09       		.byte	0x9
 5430 147b FF       		.byte	0xff
 5431 147c 2A       		.uleb128 0x2a
 5432 147d 01       		.uleb128 0x1
 5433 147e 52       		.byte	0x52
 5434 147f 01       		.uleb128 0x1
 5435 1480 30       		.byte	0x30
 5436 1481 00       		.byte	0
 5437 1482 2C       		.uleb128 0x2c
 5438 1483 90000000 		.4byte	.LVL246
 5439 1487 DF290000 		.4byte	0x29df
 5440 148b A1140000 		.4byte	0x14a1
 5441 148f 2A       		.uleb128 0x2a
 5442 1490 01       		.uleb128 0x1
 5443 1491 50       		.byte	0x50
 5444 1492 02       		.uleb128 0x2
 5445 1493 75       		.byte	0x75
 5446 1494 00       		.sleb128 0
 5447 1495 2A       		.uleb128 0x2a
 5448 1496 01       		.uleb128 0x1
 5449 1497 51       		.byte	0x51
 5450 1498 02       		.uleb128 0x2
 5451 1499 09       		.byte	0x9
 5452 149a FF       		.byte	0xff
 5453 149b 2A       		.uleb128 0x2a
 5454 149c 01       		.uleb128 0x1
 5455 149d 52       		.byte	0x52
 5456 149e 01       		.uleb128 0x1
 5457 149f 31       		.byte	0x31
 5458 14a0 00       		.byte	0
 5459 14a1 2C       		.uleb128 0x2c
 5460 14a2 A4000000 		.4byte	.LVL248
 5461 14a6 DF290000 		.4byte	0x29df
 5462 14aa BF140000 		.4byte	0x14bf
 5463 14ae 2A       		.uleb128 0x2a
 5464 14af 01       		.uleb128 0x1
 5465 14b0 50       		.byte	0x50
 5466 14b1 02       		.uleb128 0x2
 5467 14b2 75       		.byte	0x75
 5468 14b3 00       		.sleb128 0
 5469 14b4 2A       		.uleb128 0x2a
 5470 14b5 01       		.uleb128 0x1
 5471 14b6 51       		.byte	0x51
 5472 14b7 01       		.uleb128 0x1
ARM GAS  /var/folders/3j/4xdnk5197cv_b7cw3n33qk7r0000gn/T//ccSq9Yz5.s 			page 97


 5473 14b8 30       		.byte	0x30
 5474 14b9 2A       		.uleb128 0x2a
 5475 14ba 01       		.uleb128 0x1
 5476 14bb 52       		.byte	0x52
 5477 14bc 01       		.uleb128 0x1
 5478 14bd 31       		.byte	0x31
 5479 14be 00       		.byte	0
 5480 14bf 2C       		.uleb128 0x2c
 5481 14c0 BC000000 		.4byte	.LVL251
 5482 14c4 DF290000 		.4byte	0x29df
 5483 14c8 DE140000 		.4byte	0x14de
 5484 14cc 2A       		.uleb128 0x2a
 5485 14cd 01       		.uleb128 0x1
 5486 14ce 50       		.byte	0x50
 5487 14cf 02       		.uleb128 0x2
 5488 14d0 75       		.byte	0x75
 5489 14d1 00       		.sleb128 0
 5490 14d2 2A       		.uleb128 0x2a
 5491 14d3 01       		.uleb128 0x1
 5492 14d4 51       		.byte	0x51
 5493 14d5 02       		.uleb128 0x2
 5494 14d6 09       		.byte	0x9
 5495 14d7 FF       		.byte	0xff
 5496 14d8 2A       		.uleb128 0x2a
 5497 14d9 01       		.uleb128 0x1
 5498 14da 52       		.byte	0x52
 5499 14db 01       		.uleb128 0x1
 5500 14dc 30       		.byte	0x30
 5501 14dd 00       		.byte	0
 5502 14de 2C       		.uleb128 0x2c
 5503 14df 04010000 		.4byte	.LVL255
 5504 14e3 EA290000 		.4byte	0x29ea
 5505 14e7 04150000 		.4byte	0x1504
 5506 14eb 2A       		.uleb128 0x2a
 5507 14ec 01       		.uleb128 0x1
 5508 14ed 50       		.byte	0x50
 5509 14ee 02       		.uleb128 0x2
 5510 14ef 75       		.byte	0x75
 5511 14f0 00       		.sleb128 0
 5512 14f1 2A       		.uleb128 0x2a
 5513 14f2 01       		.uleb128 0x1
 5514 14f3 51       		.byte	0x51
 5515 14f4 02       		.uleb128 0x2
 5516 14f5 09       		.byte	0x9
 5517 14f6 EE       		.byte	0xee
 5518 14f7 2A       		.uleb128 0x2a
 5519 14f8 01       		.uleb128 0x1
 5520 14f9 52       		.byte	0x52
 5521 14fa 02       		.uleb128 0x2
 5522 14fb 09       		.byte	0x9
 5523 14fc 80       		.byte	0x80
 5524 14fd 2A       		.uleb128 0x2a
 5525 14fe 01       		.uleb128 0x1
 5526 14ff 53       		.byte	0x53
 5527 1500 02       		.uleb128 0x2
 5528 1501 79       		.byte	0x79
 5529 1502 00       		.sleb128 0
ARM GAS  /var/folders/3j/4xdnk5197cv_b7cw3n33qk7r0000gn/T//ccSq9Yz5.s 			page 98


 5530 1503 00       		.byte	0
 5531 1504 2C       		.uleb128 0x2c
 5532 1505 20010000 		.4byte	.LVL258
 5533 1509 F5290000 		.4byte	0x29f5
 5534 150d 25150000 		.4byte	0x1525
 5535 1511 2A       		.uleb128 0x2a
 5536 1512 01       		.uleb128 0x1
 5537 1513 50       		.byte	0x50
 5538 1514 02       		.uleb128 0x2
 5539 1515 75       		.byte	0x75
 5540 1516 00       		.sleb128 0
 5541 1517 2A       		.uleb128 0x2a
 5542 1518 01       		.uleb128 0x1
 5543 1519 51       		.byte	0x51
 5544 151a 02       		.uleb128 0x2
 5545 151b 09       		.byte	0x9
 5546 151c CB       		.byte	0xcb
 5547 151d 2A       		.uleb128 0x2a
 5548 151e 01       		.uleb128 0x1
 5549 151f 52       		.byte	0x52
 5550 1520 03       		.uleb128 0x3
 5551 1521 91       		.byte	0x91
 5552 1522 78       		.sleb128 -8
 5553 1523 06       		.byte	0x6
 5554 1524 00       		.byte	0
 5555 1525 2C       		.uleb128 0x2c
 5556 1526 40010000 		.4byte	.LVL261
 5557 152a F5290000 		.4byte	0x29f5
 5558 152e 45150000 		.4byte	0x1545
 5559 1532 2A       		.uleb128 0x2a
 5560 1533 01       		.uleb128 0x1
 5561 1534 50       		.byte	0x50
 5562 1535 02       		.uleb128 0x2
 5563 1536 75       		.byte	0x75
 5564 1537 00       		.sleb128 0
 5565 1538 2A       		.uleb128 0x2a
 5566 1539 01       		.uleb128 0x1
 5567 153a 51       		.byte	0x51
 5568 153b 02       		.uleb128 0x2
 5569 153c 09       		.byte	0x9
 5570 153d EE       		.byte	0xee
 5571 153e 2A       		.uleb128 0x2a
 5572 153f 01       		.uleb128 0x1
 5573 1540 52       		.byte	0x52
 5574 1541 02       		.uleb128 0x2
 5575 1542 91       		.byte	0x91
 5576 1543 4F       		.sleb128 -49
 5577 1544 00       		.byte	0
 5578 1545 29       		.uleb128 0x29
 5579 1546 5C010000 		.4byte	.LVL264
 5580 154a DF290000 		.4byte	0x29df
 5581 154e 2A       		.uleb128 0x2a
 5582 154f 01       		.uleb128 0x1
 5583 1550 50       		.byte	0x50
 5584 1551 02       		.uleb128 0x2
 5585 1552 75       		.byte	0x75
 5586 1553 00       		.sleb128 0
ARM GAS  /var/folders/3j/4xdnk5197cv_b7cw3n33qk7r0000gn/T//ccSq9Yz5.s 			page 99


 5587 1554 2A       		.uleb128 0x2a
 5588 1555 01       		.uleb128 0x1
 5589 1556 51       		.byte	0x51
 5590 1557 02       		.uleb128 0x2
 5591 1558 09       		.byte	0x9
 5592 1559 CB       		.byte	0xcb
 5593 155a 2A       		.uleb128 0x2a
 5594 155b 01       		.uleb128 0x1
 5595 155c 52       		.byte	0x52
 5596 155d 02       		.uleb128 0x2
 5597 155e 7A       		.byte	0x7a
 5598 155f 00       		.sleb128 0
 5599 1560 00       		.byte	0
 5600 1561 00       		.byte	0
 5601 1562 2E       		.uleb128 0x2e
 5602 1563 EF0F0000 		.4byte	.LASF295
 5603 1567 01       		.byte	0x1
 5604 1568 2904     		.2byte	0x429
 5605 156a 38010000 		.4byte	0x138
 5606 156e 01       		.byte	0x1
 5607 156f 98150000 		.4byte	0x1598
 5608 1573 2F       		.uleb128 0x2f
 5609 1574 44657600 		.ascii	"Dev\000"
 5610 1578 01       		.byte	0x1
 5611 1579 2904     		.2byte	0x429
 5612 157b 9C0E0000 		.4byte	0xe9c
 5613 157f 30       		.uleb128 0x30
 5614 1580 6F050000 		.4byte	.LASF250
 5615 1584 01       		.byte	0x1
 5616 1585 2A04     		.2byte	0x42a
 5617 1587 B8000000 		.4byte	0xb8
 5618 158b 31       		.uleb128 0x31
 5619 158c 6F020000 		.4byte	.LASF233
 5620 1590 01       		.byte	0x1
 5621 1591 2C04     		.2byte	0x42c
 5622 1593 38010000 		.4byte	0x138
 5623 1597 00       		.byte	0
 5624 1598 24       		.uleb128 0x24
 5625 1599 5A160000 		.4byte	.LASF251
 5626 159d 01       		.byte	0x1
 5627 159e F203     		.2byte	0x3f2
 5628 15a0 38010000 		.4byte	0x138
 5629 15a4 00000000 		.4byte	.LFB18
 5630 15a8 B0000000 		.4byte	.LFE18-.LFB18
 5631 15ac 01       		.uleb128 0x1
 5632 15ad 9C       		.byte	0x9c
 5633 15ae CB160000 		.4byte	0x16cb
 5634 15b2 25       		.uleb128 0x25
 5635 15b3 44657600 		.ascii	"Dev\000"
 5636 15b7 01       		.byte	0x1
 5637 15b8 F203     		.2byte	0x3f2
 5638 15ba 9C0E0000 		.4byte	0xe9c
 5639 15be D1040000 		.4byte	.LLST87
 5640 15c2 26       		.uleb128 0x26
 5641 15c3 04090000 		.4byte	.LASF252
 5642 15c7 01       		.byte	0x1
 5643 15c8 F303     		.2byte	0x3f3
ARM GAS  /var/folders/3j/4xdnk5197cv_b7cw3n33qk7r0000gn/T//ccSq9Yz5.s 			page 100


 5644 15ca CB160000 		.4byte	0x16cb
 5645 15ce 05050000 		.4byte	.LLST88
 5646 15d2 26       		.uleb128 0x26
 5647 15d3 6D090000 		.4byte	.LASF253
 5648 15d7 01       		.byte	0x1
 5649 15d8 F303     		.2byte	0x3f3
 5650 15da 20060000 		.4byte	0x620
 5651 15de 39050000 		.4byte	.LLST89
 5652 15e2 27       		.uleb128 0x27
 5653 15e3 6F020000 		.4byte	.LASF233
 5654 15e7 01       		.byte	0x1
 5655 15e8 F503     		.2byte	0x3f5
 5656 15ea 38010000 		.4byte	0x138
 5657 15ee 6D050000 		.4byte	.LLST90
 5658 15f2 27       		.uleb128 0x27
 5659 15f3 72140000 		.4byte	.LASF254
 5660 15f7 01       		.byte	0x1
 5661 15f8 F603     		.2byte	0x3f6
 5662 15fa B8000000 		.4byte	0xb8
 5663 15fe B9050000 		.4byte	.LLST91
 5664 1602 2B       		.uleb128 0x2b
 5665 1603 94130000 		.4byte	.LASF255
 5666 1607 01       		.byte	0x1
 5667 1608 F703     		.2byte	0x3f7
 5668 160a 00020000 		.4byte	0x200
 5669 160e 02       		.uleb128 0x2
 5670 160f 91       		.byte	0x91
 5671 1610 68       		.sleb128 -24
 5672 1611 28       		.uleb128 0x28
 5673 1612 4F170000 		.4byte	.LASF256
 5674 1616 01       		.byte	0x1
 5675 1617 F803     		.2byte	0x3f8
 5676 1619 E9000000 		.4byte	0xe9
 5677 161d 2C       		.byte	0x2c
 5678 161e 28       		.uleb128 0x28
 5679 161f 980E0000 		.4byte	.LASF257
 5680 1623 01       		.byte	0x1
 5681 1624 F903     		.2byte	0x3f9
 5682 1626 E9000000 		.4byte	0xe9
 5683 162a 06       		.byte	0x6
 5684 162b 2B       		.uleb128 0x2b
 5685 162c E0080000 		.4byte	.LASF258
 5686 1630 01       		.byte	0x1
 5687 1631 FA03     		.2byte	0x3fa
 5688 1633 E9000000 		.4byte	0xe9
 5689 1637 02       		.uleb128 0x2
 5690 1638 91       		.byte	0x91
 5691 1639 64       		.sleb128 -28
 5692 163a 2B       		.uleb128 0x2b
 5693 163b A70E0000 		.4byte	.LASF259
 5694 163f 01       		.byte	0x1
 5695 1640 FB03     		.2byte	0x3fb
 5696 1642 B8000000 		.4byte	0xb8
 5697 1646 02       		.uleb128 0x2
 5698 1647 91       		.byte	0x91
 5699 1648 63       		.sleb128 -29
 5700 1649 32       		.uleb128 0x32
ARM GAS  /var/folders/3j/4xdnk5197cv_b7cw3n33qk7r0000gn/T//ccSq9Yz5.s 			page 101


 5701 164a 85200000 		.4byte	0x2085
 5702 164e 28000000 		.4byte	.LBB48
 5703 1652 10000000 		.4byte	.LBE48-.LBB48
 5704 1656 01       		.byte	0x1
 5705 1657 0904     		.2byte	0x409
 5706 1659 A2160000 		.4byte	0x16a2
 5707 165d 33       		.uleb128 0x33
 5708 165e A2200000 		.4byte	0x20a2
 5709 1662 E8050000 		.4byte	.LLST92
 5710 1666 33       		.uleb128 0x33
 5711 1667 96200000 		.4byte	0x2096
 5712 166b 15060000 		.4byte	.LLST93
 5713 166f 34       		.uleb128 0x34
 5714 1670 28000000 		.4byte	.LBB49
 5715 1674 10000000 		.4byte	.LBE49-.LBB49
 5716 1678 35       		.uleb128 0x35
 5717 1679 12290000 		.4byte	0x2912
 5718 167d 01       		.uleb128 0x1
 5719 167e 50       		.byte	0x50
 5720 167f 29       		.uleb128 0x29
 5721 1680 38000000 		.4byte	.LVL212
 5722 1684 002A0000 		.4byte	0x2a00
 5723 1688 2A       		.uleb128 0x2a
 5724 1689 01       		.uleb128 0x1
 5725 168a 50       		.byte	0x50
 5726 168b 02       		.uleb128 0x2
 5727 168c 74       		.byte	0x74
 5728 168d 00       		.sleb128 0
 5729 168e 2A       		.uleb128 0x2a
 5730 168f 01       		.uleb128 0x1
 5731 1690 51       		.byte	0x51
 5732 1691 02       		.uleb128 0x2
 5733 1692 09       		.byte	0x9
 5734 1693 B0       		.byte	0xb0
 5735 1694 2A       		.uleb128 0x2a
 5736 1695 01       		.uleb128 0x1
 5737 1696 52       		.byte	0x52
 5738 1697 02       		.uleb128 0x2
 5739 1698 91       		.byte	0x91
 5740 1699 60       		.sleb128 -32
 5741 169a 2A       		.uleb128 0x2a
 5742 169b 01       		.uleb128 0x1
 5743 169c 53       		.byte	0x53
 5744 169d 01       		.uleb128 0x1
 5745 169e 36       		.byte	0x36
 5746 169f 00       		.byte	0
 5747 16a0 00       		.byte	0
 5748 16a1 00       		.byte	0
 5749 16a2 29       		.uleb128 0x29
 5750 16a3 80000000 		.4byte	.LVL219
 5751 16a7 F1200000 		.4byte	0x20f1
 5752 16ab 2A       		.uleb128 0x2a
 5753 16ac 01       		.uleb128 0x1
 5754 16ad 50       		.byte	0x50
 5755 16ae 02       		.uleb128 0x2
 5756 16af 91       		.byte	0x91
 5757 16b0 60       		.sleb128 -32
ARM GAS  /var/folders/3j/4xdnk5197cv_b7cw3n33qk7r0000gn/T//ccSq9Yz5.s 			page 102


 5758 16b1 2A       		.uleb128 0x2a
 5759 16b2 01       		.uleb128 0x1
 5760 16b3 51       		.byte	0x51
 5761 16b4 01       		.uleb128 0x1
 5762 16b5 36       		.byte	0x36
 5763 16b6 2A       		.uleb128 0x2a
 5764 16b7 01       		.uleb128 0x1
 5765 16b8 52       		.byte	0x52
 5766 16b9 02       		.uleb128 0x2
 5767 16ba 08       		.byte	0x8
 5768 16bb 2C       		.byte	0x2c
 5769 16bc 2A       		.uleb128 0x2a
 5770 16bd 01       		.uleb128 0x1
 5771 16be 53       		.byte	0x53
 5772 16bf 02       		.uleb128 0x2
 5773 16c0 73       		.byte	0x73
 5774 16c1 00       		.sleb128 0
 5775 16c2 2A       		.uleb128 0x2a
 5776 16c3 02       		.uleb128 0x2
 5777 16c4 7D       		.byte	0x7d
 5778 16c5 00       		.sleb128 0
 5779 16c6 02       		.uleb128 0x2
 5780 16c7 91       		.byte	0x91
 5781 16c8 5B       		.sleb128 -37
 5782 16c9 00       		.byte	0
 5783 16ca 00       		.byte	0
 5784 16cb 0F       		.uleb128 0xf
 5785 16cc 04       		.byte	0x4
 5786 16cd E9000000 		.4byte	0xe9
 5787 16d1 24       		.uleb128 0x24
 5788 16d2 0A060000 		.4byte	.LASF260
 5789 16d6 01       		.byte	0x1
 5790 16d7 AF03     		.2byte	0x3af
 5791 16d9 38010000 		.4byte	0x138
 5792 16dd 00000000 		.4byte	.LFB17
 5793 16e1 20010000 		.4byte	.LFE17-.LFB17
 5794 16e5 01       		.uleb128 0x1
 5795 16e6 9C       		.byte	0x9c
 5796 16e7 83180000 		.4byte	0x1883
 5797 16eb 25       		.uleb128 0x25
 5798 16ec 44657600 		.ascii	"Dev\000"
 5799 16f0 01       		.byte	0x1
 5800 16f1 AF03     		.2byte	0x3af
 5801 16f3 9C0E0000 		.4byte	0xe9c
 5802 16f7 33060000 		.4byte	.LLST80
 5803 16fb 26       		.uleb128 0x26
 5804 16fc 83090000 		.4byte	.LASF261
 5805 1700 01       		.byte	0x1
 5806 1701 B003     		.2byte	0x3b0
 5807 1703 E9000000 		.4byte	0xe9
 5808 1707 51060000 		.4byte	.LLST81
 5809 170b 26       		.uleb128 0x26
 5810 170c A70E0000 		.4byte	.LASF259
 5811 1710 01       		.byte	0x1
 5812 1711 B003     		.2byte	0x3b0
 5813 1713 B8000000 		.4byte	0xb8
 5814 1717 6F060000 		.4byte	.LLST82
ARM GAS  /var/folders/3j/4xdnk5197cv_b7cw3n33qk7r0000gn/T//ccSq9Yz5.s 			page 103


 5815 171b 27       		.uleb128 0x27
 5816 171c 6F020000 		.4byte	.LASF233
 5817 1720 01       		.byte	0x1
 5818 1721 B203     		.2byte	0x3b2
 5819 1723 38010000 		.4byte	0x138
 5820 1727 90060000 		.4byte	.LLST83
 5821 172b 27       		.uleb128 0x27
 5822 172c 16020000 		.4byte	.LASF262
 5823 1730 01       		.byte	0x1
 5824 1731 B303     		.2byte	0x3b3
 5825 1733 E9000000 		.4byte	0xe9
 5826 1737 E6060000 		.4byte	.LLST84
 5827 173b 36       		.uleb128 0x36
 5828 173c 30070000 		.4byte	.LASF263
 5829 1740 01       		.byte	0x1
 5830 1741 B403     		.2byte	0x3b4
 5831 1743 B8000000 		.4byte	0xb8
 5832 1747 B47F     		.sleb128 -76
 5833 1749 28       		.uleb128 0x28
 5834 174a 600E0000 		.4byte	.LASF264
 5835 174e 01       		.byte	0x1
 5836 174f B503     		.2byte	0x3b5
 5837 1751 E9000000 		.4byte	0xe9
 5838 1755 06       		.byte	0x6
 5839 1756 28       		.uleb128 0x28
 5840 1757 9B120000 		.4byte	.LASF265
 5841 175b 01       		.byte	0x1
 5842 175c B603     		.2byte	0x3b6
 5843 175e E9000000 		.4byte	0xe9
 5844 1762 2C       		.byte	0x2c
 5845 1763 2B       		.uleb128 0x2b
 5846 1764 A1140000 		.4byte	.LASF266
 5847 1768 01       		.byte	0x1
 5848 1769 B703     		.2byte	0x3b7
 5849 176b E9000000 		.4byte	0xe9
 5850 176f 02       		.uleb128 0x2
 5851 1770 91       		.byte	0x91
 5852 1771 6C       		.sleb128 -20
 5853 1772 27       		.uleb128 0x27
 5854 1773 C8020000 		.4byte	.LASF267
 5855 1777 01       		.byte	0x1
 5856 1778 B803     		.2byte	0x3b8
 5857 177a E9000000 		.4byte	0xe9
 5858 177e 28070000 		.4byte	.LLST85
 5859 1782 37       		.uleb128 0x37
 5860 1783 3A220000 		.4byte	0x223a
 5861 1787 44000000 		.4byte	.LBB40
 5862 178b 50000000 		.4byte	.Ldebug_ranges0+0x50
 5863 178f 01       		.byte	0x1
 5864 1790 D803     		.2byte	0x3d8
 5865 1792 B0170000 		.4byte	0x17b0
 5866 1796 33       		.uleb128 0x33
 5867 1797 4B220000 		.4byte	0x224b
 5868 179b 48070000 		.4byte	.LLST86
 5869 179f 38       		.uleb128 0x38
 5870 17a0 50000000 		.4byte	.Ldebug_ranges0+0x50
 5871 17a4 39       		.uleb128 0x39
ARM GAS  /var/folders/3j/4xdnk5197cv_b7cw3n33qk7r0000gn/T//ccSq9Yz5.s 			page 104


 5872 17a5 3C280000 		.4byte	0x283c
 5873 17a9 39       		.uleb128 0x39
 5874 17aa 45280000 		.4byte	0x2845
 5875 17ae 00       		.byte	0
 5876 17af 00       		.byte	0
 5877 17b0 2C       		.uleb128 0x2c
 5878 17b1 20000000 		.4byte	.LVL187
 5879 17b5 DF290000 		.4byte	0x29df
 5880 17b9 CF170000 		.4byte	0x17cf
 5881 17bd 2A       		.uleb128 0x2a
 5882 17be 01       		.uleb128 0x1
 5883 17bf 50       		.byte	0x50
 5884 17c0 02       		.uleb128 0x2
 5885 17c1 74       		.byte	0x74
 5886 17c2 00       		.sleb128 0
 5887 17c3 2A       		.uleb128 0x2a
 5888 17c4 01       		.uleb128 0x1
 5889 17c5 51       		.byte	0x51
 5890 17c6 02       		.uleb128 0x2
 5891 17c7 09       		.byte	0x9
 5892 17c8 FF       		.byte	0xff
 5893 17c9 2A       		.uleb128 0x2a
 5894 17ca 01       		.uleb128 0x1
 5895 17cb 52       		.byte	0x52
 5896 17cc 01       		.uleb128 0x1
 5897 17cd 31       		.byte	0x31
 5898 17ce 00       		.byte	0
 5899 17cf 2C       		.uleb128 0x2c
 5900 17d0 88000000 		.4byte	.LVL193
 5901 17d4 3B1E0000 		.4byte	0x1e3b
 5902 17d8 12180000 		.4byte	0x1812
 5903 17dc 2A       		.uleb128 0x2a
 5904 17dd 01       		.uleb128 0x1
 5905 17de 50       		.byte	0x50
 5906 17df 02       		.uleb128 0x2
 5907 17e0 74       		.byte	0x74
 5908 17e1 00       		.sleb128 0
 5909 17e2 2A       		.uleb128 0x2a
 5910 17e3 01       		.uleb128 0x1
 5911 17e4 51       		.byte	0x51
 5912 17e5 02       		.uleb128 0x2
 5913 17e6 75       		.byte	0x75
 5914 17e7 00       		.sleb128 0
 5915 17e8 2A       		.uleb128 0x2a
 5916 17e9 01       		.uleb128 0x1
 5917 17ea 52       		.byte	0x52
 5918 17eb 03       		.uleb128 0x3
 5919 17ec 74       		.byte	0x74
 5920 17ed AA02     		.sleb128 298
 5921 17ef 2A       		.uleb128 0x2a
 5922 17f0 01       		.uleb128 0x1
 5923 17f1 53       		.byte	0x53
 5924 17f2 03       		.uleb128 0x3
 5925 17f3 74       		.byte	0x74
 5926 17f4 A402     		.sleb128 292
 5927 17f6 2A       		.uleb128 0x2a
 5928 17f7 02       		.uleb128 0x2
ARM GAS  /var/folders/3j/4xdnk5197cv_b7cw3n33qk7r0000gn/T//ccSq9Yz5.s 			page 105


 5929 17f8 7D       		.byte	0x7d
 5930 17f9 00       		.sleb128 0
 5931 17fa 01       		.uleb128 0x1
 5932 17fb 36       		.byte	0x36
 5933 17fc 2A       		.uleb128 0x2a
 5934 17fd 02       		.uleb128 0x2
 5935 17fe 7D       		.byte	0x7d
 5936 17ff 04       		.sleb128 4
 5937 1800 02       		.uleb128 0x2
 5938 1801 08       		.byte	0x8
 5939 1802 B4       		.byte	0xb4
 5940 1803 2A       		.uleb128 0x2a
 5941 1804 02       		.uleb128 0x2
 5942 1805 7D       		.byte	0x7d
 5943 1806 0C       		.sleb128 12
 5944 1807 02       		.uleb128 0x2
 5945 1808 76       		.byte	0x76
 5946 1809 00       		.sleb128 0
 5947 180a 2A       		.uleb128 0x2a
 5948 180b 02       		.uleb128 0x2
 5949 180c 7D       		.byte	0x7d
 5950 180d 10       		.sleb128 16
 5951 180e 02       		.uleb128 0x2
 5952 180f 91       		.byte	0x91
 5953 1810 64       		.sleb128 -28
 5954 1811 00       		.byte	0
 5955 1812 2C       		.uleb128 0x2c
 5956 1813 D4000000 		.4byte	.LVL200
 5957 1817 DF290000 		.4byte	0x29df
 5958 181b 2C180000 		.4byte	0x182c
 5959 181f 2A       		.uleb128 0x2a
 5960 1820 01       		.uleb128 0x1
 5961 1821 50       		.byte	0x50
 5962 1822 02       		.uleb128 0x2
 5963 1823 74       		.byte	0x74
 5964 1824 00       		.sleb128 0
 5965 1825 2A       		.uleb128 0x2a
 5966 1826 01       		.uleb128 0x1
 5967 1827 51       		.byte	0x51
 5968 1828 02       		.uleb128 0x2
 5969 1829 08       		.byte	0x8
 5970 182a 4F       		.byte	0x4f
 5971 182b 00       		.byte	0
 5972 182c 2C       		.uleb128 0x2c
 5973 182d EC000000 		.4byte	.LVL202
 5974 1831 DF290000 		.4byte	0x29df
 5975 1835 4C180000 		.4byte	0x184c
 5976 1839 2A       		.uleb128 0x2a
 5977 183a 01       		.uleb128 0x1
 5978 183b 50       		.byte	0x50
 5979 183c 02       		.uleb128 0x2
 5980 183d 74       		.byte	0x74
 5981 183e 00       		.sleb128 0
 5982 183f 2A       		.uleb128 0x2a
 5983 1840 01       		.uleb128 0x1
 5984 1841 51       		.byte	0x51
 5985 1842 02       		.uleb128 0x2
ARM GAS  /var/folders/3j/4xdnk5197cv_b7cw3n33qk7r0000gn/T//ccSq9Yz5.s 			page 106


 5986 1843 08       		.byte	0x8
 5987 1844 4E       		.byte	0x4e
 5988 1845 2A       		.uleb128 0x2a
 5989 1846 01       		.uleb128 0x1
 5990 1847 52       		.byte	0x52
 5991 1848 02       		.uleb128 0x2
 5992 1849 08       		.byte	0x8
 5993 184a 2C       		.byte	0x2c
 5994 184b 00       		.byte	0
 5995 184c 2C       		.uleb128 0x2c
 5996 184d 00010000 		.4byte	.LVL204
 5997 1851 DF290000 		.4byte	0x29df
 5998 1855 66180000 		.4byte	0x1866
 5999 1859 2A       		.uleb128 0x2a
 6000 185a 01       		.uleb128 0x1
 6001 185b 50       		.byte	0x50
 6002 185c 02       		.uleb128 0x2
 6003 185d 74       		.byte	0x74
 6004 185e 00       		.sleb128 0
 6005 185f 2A       		.uleb128 0x2a
 6006 1860 01       		.uleb128 0x1
 6007 1861 51       		.byte	0x51
 6008 1862 02       		.uleb128 0x2
 6009 1863 09       		.byte	0x9
 6010 1864 FF       		.byte	0xff
 6011 1865 00       		.byte	0
 6012 1866 29       		.uleb128 0x29
 6013 1867 18010000 		.4byte	.LVL206
 6014 186b DF290000 		.4byte	0x29df
 6015 186f 2A       		.uleb128 0x2a
 6016 1870 01       		.uleb128 0x1
 6017 1871 50       		.byte	0x50
 6018 1872 02       		.uleb128 0x2
 6019 1873 74       		.byte	0x74
 6020 1874 00       		.sleb128 0
 6021 1875 2A       		.uleb128 0x2a
 6022 1876 01       		.uleb128 0x1
 6023 1877 51       		.byte	0x51
 6024 1878 02       		.uleb128 0x2
 6025 1879 09       		.byte	0x9
 6026 187a B6       		.byte	0xb6
 6027 187b 2A       		.uleb128 0x2a
 6028 187c 01       		.uleb128 0x1
 6029 187d 52       		.byte	0x52
 6030 187e 02       		.uleb128 0x2
 6031 187f 09       		.byte	0x9
 6032 1880 B4       		.byte	0xb4
 6033 1881 00       		.byte	0
 6034 1882 00       		.byte	0
 6035 1883 24       		.uleb128 0x24
 6036 1884 300E0000 		.4byte	.LASF268
 6037 1888 01       		.byte	0x1
 6038 1889 A402     		.2byte	0x2a4
 6039 188b 38010000 		.4byte	0x138
 6040 188f 00000000 		.4byte	.LFB16
 6041 1893 D0030000 		.4byte	.LFE16-.LFB16
 6042 1897 01       		.uleb128 0x1
ARM GAS  /var/folders/3j/4xdnk5197cv_b7cw3n33qk7r0000gn/T//ccSq9Yz5.s 			page 107


 6043 1898 9C       		.byte	0x9c
 6044 1899 1E1D0000 		.4byte	0x1d1e
 6045 189d 25       		.uleb128 0x25
 6046 189e 44657600 		.ascii	"Dev\000"
 6047 18a2 01       		.byte	0x1
 6048 18a3 A402     		.2byte	0x2a4
 6049 18a5 9C0E0000 		.4byte	0xe9c
 6050 18a9 79070000 		.4byte	.LLST121
 6051 18ad 26       		.uleb128 0x26
 6052 18ae A20A0000 		.4byte	.LASF269
 6053 18b2 01       		.byte	0x1
 6054 18b3 A502     		.2byte	0x2a5
 6055 18b5 CB160000 		.4byte	0x16cb
 6056 18b9 97070000 		.4byte	.LLST122
 6057 18bd 26       		.uleb128 0x26
 6058 18be A70E0000 		.4byte	.LASF259
 6059 18c2 01       		.byte	0x1
 6060 18c3 A602     		.2byte	0x2a6
 6061 18c5 20060000 		.4byte	0x620
 6062 18c9 B7070000 		.4byte	.LLST123
 6063 18cd 27       		.uleb128 0x27
 6064 18ce 6F020000 		.4byte	.LASF233
 6065 18d2 01       		.byte	0x1
 6066 18d3 A802     		.2byte	0x2a8
 6067 18d5 38010000 		.4byte	0x138
 6068 18d9 D7070000 		.4byte	.LLST124
 6069 18dd 2B       		.uleb128 0x2b
 6070 18de BB060000 		.4byte	.LASF270
 6071 18e2 01       		.byte	0x1
 6072 18e3 A902     		.2byte	0x2a9
 6073 18e5 00020000 		.4byte	0x200
 6074 18e9 02       		.uleb128 0x2
 6075 18ea 91       		.byte	0x91
 6076 18eb 50       		.sleb128 -48
 6077 18ec 36       		.uleb128 0x36
 6078 18ed 30070000 		.4byte	.LASF263
 6079 18f1 01       		.byte	0x1
 6080 18f2 AA02     		.2byte	0x2aa
 6081 18f4 B8000000 		.4byte	0xb8
 6082 18f8 B47F     		.sleb128 -76
 6083 18fa 28       		.uleb128 0x28
 6084 18fb FB030000 		.4byte	.LASF271
 6085 18ff 01       		.byte	0x1
 6086 1900 AB02     		.2byte	0x2ab
 6087 1902 E9000000 		.4byte	0xe9
 6088 1906 03       		.byte	0x3
 6089 1907 28       		.uleb128 0x28
 6090 1908 9B120000 		.4byte	.LASF265
 6091 190c 01       		.byte	0x1
 6092 190d AC02     		.2byte	0x2ac
 6093 190f E9000000 		.4byte	0xe9
 6094 1913 2C       		.byte	0x2c
 6095 1914 27       		.uleb128 0x27
 6096 1915 16020000 		.4byte	.LASF262
 6097 1919 01       		.byte	0x1
 6098 191a AD02     		.2byte	0x2ad
 6099 191c E9000000 		.4byte	0xe9
ARM GAS  /var/folders/3j/4xdnk5197cv_b7cw3n33qk7r0000gn/T//ccSq9Yz5.s 			page 108


 6100 1920 A8080000 		.4byte	.LLST125
 6101 1924 2B       		.uleb128 0x2b
 6102 1925 A1140000 		.4byte	.LASF266
 6103 1929 01       		.byte	0x1
 6104 192a AE02     		.2byte	0x2ae
 6105 192c E9000000 		.4byte	0xe9
 6106 1930 02       		.uleb128 0x2
 6107 1931 91       		.byte	0x91
 6108 1932 48       		.sleb128 -56
 6109 1933 2B       		.uleb128 0x2b
 6110 1934 77130000 		.4byte	.LASF272
 6111 1938 01       		.byte	0x1
 6112 1939 AF02     		.2byte	0x2af
 6113 193b DE000000 		.4byte	0xde
 6114 193f 02       		.uleb128 0x2
 6115 1940 91       		.byte	0x91
 6116 1941 4C       		.sleb128 -52
 6117 1942 27       		.uleb128 0x27
 6118 1943 D8050000 		.4byte	.LASF102
 6119 1947 01       		.byte	0x1
 6120 1948 B002     		.2byte	0x2b0
 6121 194a D3000000 		.4byte	0xd3
 6122 194e 0A090000 		.4byte	.LLST126
 6123 1952 2B       		.uleb128 0x2b
 6124 1953 60140000 		.4byte	.LASF273
 6125 1957 01       		.byte	0x1
 6126 1958 B102     		.2byte	0x2b1
 6127 195a D3000000 		.4byte	0xd3
 6128 195e 02       		.uleb128 0x2
 6129 195f 91       		.byte	0x91
 6130 1960 46       		.sleb128 -58
 6131 1961 27       		.uleb128 0x27
 6132 1962 5F030000 		.4byte	.LASF274
 6133 1966 01       		.byte	0x1
 6134 1967 B202     		.2byte	0x2b2
 6135 1969 E9000000 		.4byte	0xe9
 6136 196d 2B090000 		.4byte	.LLST127
 6137 1971 27       		.uleb128 0x27
 6138 1972 C8020000 		.4byte	.LASF267
 6139 1976 01       		.byte	0x1
 6140 1977 B302     		.2byte	0x2b3
 6141 1979 E9000000 		.4byte	0xe9
 6142 197d 6F090000 		.4byte	.LLST128
 6143 1981 28       		.uleb128 0x28
 6144 1982 600E0000 		.4byte	.LASF264
 6145 1986 01       		.byte	0x1
 6146 1987 B402     		.2byte	0x2b4
 6147 1989 E9000000 		.4byte	0xe9
 6148 198d 06       		.byte	0x6
 6149 198e 27       		.uleb128 0x27
 6150 198f 3E130000 		.4byte	.LASF275
 6151 1993 01       		.byte	0x1
 6152 1994 B502     		.2byte	0x2b5
 6153 1996 E9000000 		.4byte	0xe9
 6154 199a A7090000 		.4byte	.LLST129
 6155 199e 27       		.uleb128 0x27
 6156 199f 2D140000 		.4byte	.LASF276
ARM GAS  /var/folders/3j/4xdnk5197cv_b7cw3n33qk7r0000gn/T//ccSq9Yz5.s 			page 109


 6157 19a3 01       		.byte	0x1
 6158 19a4 B602     		.2byte	0x2b6
 6159 19a6 E9000000 		.4byte	0xe9
 6160 19aa 2B0A0000 		.4byte	.LLST130
 6161 19ae 27       		.uleb128 0x27
 6162 19af 46090000 		.4byte	.LASF277
 6163 19b3 01       		.byte	0x1
 6164 19b4 B702     		.2byte	0x2b7
 6165 19b6 B8000000 		.4byte	0xb8
 6166 19ba BC0A0000 		.4byte	.LLST131
 6167 19be 2B       		.uleb128 0x2b
 6168 19bf B0110000 		.4byte	.LASF234
 6169 19c3 01       		.byte	0x1
 6170 19c4 B802     		.2byte	0x2b8
 6171 19c6 B8000000 		.4byte	0xb8
 6172 19ca 02       		.uleb128 0x2
 6173 19cb 91       		.byte	0x91
 6174 19cc 44       		.sleb128 -60
 6175 19cd 2B       		.uleb128 0x2b
 6176 19ce 4E0B0000 		.4byte	.LASF235
 6177 19d2 01       		.byte	0x1
 6178 19d3 B902     		.2byte	0x2b9
 6179 19d5 B8000000 		.4byte	0xb8
 6180 19d9 02       		.uleb128 0x2
 6181 19da 91       		.byte	0x91
 6182 19db 45       		.sleb128 -59
 6183 19dc 27       		.uleb128 0x27
 6184 19dd 780A0000 		.4byte	.LASF278
 6185 19e1 01       		.byte	0x1
 6186 19e2 BA02     		.2byte	0x2ba
 6187 19e4 E9000000 		.4byte	0xe9
 6188 19e8 F40A0000 		.4byte	.LLST132
 6189 19ec 27       		.uleb128 0x27
 6190 19ed 86140000 		.4byte	.LASF279
 6191 19f1 01       		.byte	0x1
 6192 19f2 BB02     		.2byte	0x2bb
 6193 19f4 B8000000 		.4byte	0xb8
 6194 19f8 700B0000 		.4byte	.LLST133
 6195 19fc 37       		.uleb128 0x37
 6196 19fd 3A220000 		.4byte	0x223a
 6197 1a01 64010000 		.4byte	.LBB56
 6198 1a05 90000000 		.4byte	.Ldebug_ranges0+0x90
 6199 1a09 01       		.byte	0x1
 6200 1a0a 1D03     		.2byte	0x31d
 6201 1a0c 261A0000 		.4byte	0x1a26
 6202 1a10 3A       		.uleb128 0x3a
 6203 1a11 4B220000 		.4byte	0x224b
 6204 1a15 38       		.uleb128 0x38
 6205 1a16 90000000 		.4byte	.Ldebug_ranges0+0x90
 6206 1a1a 39       		.uleb128 0x39
 6207 1a1b 3C280000 		.4byte	0x283c
 6208 1a1f 39       		.uleb128 0x39
 6209 1a20 45280000 		.4byte	0x2845
 6210 1a24 00       		.byte	0
 6211 1a25 00       		.byte	0
 6212 1a26 37       		.uleb128 0x37
 6213 1a27 3A220000 		.4byte	0x223a
ARM GAS  /var/folders/3j/4xdnk5197cv_b7cw3n33qk7r0000gn/T//ccSq9Yz5.s 			page 110


 6214 1a2b 5C020000 		.4byte	.LBB60
 6215 1a2f A8000000 		.4byte	.Ldebug_ranges0+0xa8
 6216 1a33 01       		.byte	0x1
 6217 1a34 6203     		.2byte	0x362
 6218 1a36 501A0000 		.4byte	0x1a50
 6219 1a3a 3A       		.uleb128 0x3a
 6220 1a3b 4B220000 		.4byte	0x224b
 6221 1a3f 38       		.uleb128 0x38
 6222 1a40 A8000000 		.4byte	.Ldebug_ranges0+0xa8
 6223 1a44 39       		.uleb128 0x39
 6224 1a45 3C280000 		.4byte	0x283c
 6225 1a49 39       		.uleb128 0x39
 6226 1a4a 45280000 		.4byte	0x2845
 6227 1a4e 00       		.byte	0
 6228 1a4f 00       		.byte	0
 6229 1a50 37       		.uleb128 0x37
 6230 1a51 D4210000 		.4byte	0x21d4
 6231 1a55 7C020000 		.4byte	.LBB64
 6232 1a59 C0000000 		.4byte	.Ldebug_ranges0+0xc0
 6233 1a5d 01       		.byte	0x1
 6234 1a5e 6E03     		.2byte	0x36e
 6235 1a60 961A0000 		.4byte	0x1a96
 6236 1a64 33       		.uleb128 0x33
 6237 1a65 FD210000 		.4byte	0x21fd
 6238 1a69 C20B0000 		.4byte	.LLST134
 6239 1a6d 33       		.uleb128 0x33
 6240 1a6e F1210000 		.4byte	0x21f1
 6241 1a72 E00B0000 		.4byte	.LLST135
 6242 1a76 3A       		.uleb128 0x3a
 6243 1a77 E5210000 		.4byte	0x21e5
 6244 1a7b 38       		.uleb128 0x38
 6245 1a7c C0000000 		.4byte	.Ldebug_ranges0+0xc0
 6246 1a80 39       		.uleb128 0x39
 6247 1a81 7B280000 		.4byte	0x287b
 6248 1a85 39       		.uleb128 0x39
 6249 1a86 84280000 		.4byte	0x2884
 6250 1a8a 39       		.uleb128 0x39
 6251 1a8b 8A280000 		.4byte	0x288a
 6252 1a8f 39       		.uleb128 0x39
 6253 1a90 95280000 		.4byte	0x2895
 6254 1a94 00       		.byte	0
 6255 1a95 00       		.byte	0
 6256 1a96 32       		.uleb128 0x32
 6257 1a97 BB200000 		.4byte	0x20bb
 6258 1a9b A8020000 		.4byte	.LBB68
 6259 1a9f 14000000 		.4byte	.LBE68-.LBB68
 6260 1aa3 01       		.byte	0x1
 6261 1aa4 7603     		.2byte	0x376
 6262 1aa6 E51A0000 		.4byte	0x1ae5
 6263 1aaa 3A       		.uleb128 0x3a
 6264 1aab D8200000 		.4byte	0x20d8
 6265 1aaf 3A       		.uleb128 0x3a
 6266 1ab0 CC200000 		.4byte	0x20cc
 6267 1ab4 34       		.uleb128 0x34
 6268 1ab5 A8020000 		.4byte	.LBB69
 6269 1ab9 14000000 		.4byte	.LBE69-.LBB69
 6270 1abd 39       		.uleb128 0x39
ARM GAS  /var/folders/3j/4xdnk5197cv_b7cw3n33qk7r0000gn/T//ccSq9Yz5.s 			page 111


 6271 1abe C4280000 		.4byte	0x28c4
 6272 1ac2 29       		.uleb128 0x29
 6273 1ac3 BC020000 		.4byte	.LVL352
 6274 1ac7 0B2A0000 		.4byte	0x2a0b
 6275 1acb 2A       		.uleb128 0x2a
 6276 1acc 01       		.uleb128 0x1
 6277 1acd 50       		.byte	0x50
 6278 1ace 02       		.uleb128 0x2
 6279 1acf 75       		.byte	0x75
 6280 1ad0 00       		.sleb128 0
 6281 1ad1 2A       		.uleb128 0x2a
 6282 1ad2 01       		.uleb128 0x1
 6283 1ad3 51       		.byte	0x51
 6284 1ad4 02       		.uleb128 0x2
 6285 1ad5 09       		.byte	0x9
 6286 1ad6 B0       		.byte	0xb0
 6287 1ad7 2A       		.uleb128 0x2a
 6288 1ad8 01       		.uleb128 0x1
 6289 1ad9 52       		.byte	0x52
 6290 1ada 02       		.uleb128 0x2
 6291 1adb 78       		.byte	0x78
 6292 1adc 00       		.sleb128 0
 6293 1add 2A       		.uleb128 0x2a
 6294 1ade 01       		.uleb128 0x1
 6295 1adf 53       		.byte	0x53
 6296 1ae0 01       		.uleb128 0x1
 6297 1ae1 36       		.byte	0x36
 6298 1ae2 00       		.byte	0
 6299 1ae3 00       		.byte	0
 6300 1ae4 00       		.byte	0
 6301 1ae5 32       		.uleb128 0x32
 6302 1ae6 BB200000 		.4byte	0x20bb
 6303 1aea 04030000 		.4byte	.LBB70
 6304 1aee 18000000 		.4byte	.LBE70-.LBB70
 6305 1af2 01       		.byte	0x1
 6306 1af3 8D03     		.2byte	0x38d
 6307 1af5 3C1B0000 		.4byte	0x1b3c
 6308 1af9 33       		.uleb128 0x33
 6309 1afa D8200000 		.4byte	0x20d8
 6310 1afe 000C0000 		.4byte	.LLST136
 6311 1b02 33       		.uleb128 0x33
 6312 1b03 CC200000 		.4byte	0x20cc
 6313 1b07 2D0C0000 		.4byte	.LLST137
 6314 1b0b 34       		.uleb128 0x34
 6315 1b0c 04030000 		.4byte	.LBB71
 6316 1b10 18000000 		.4byte	.LBE71-.LBB71
 6317 1b14 39       		.uleb128 0x39
 6318 1b15 C4280000 		.4byte	0x28c4
 6319 1b19 29       		.uleb128 0x29
 6320 1b1a 18030000 		.4byte	.LVL360
 6321 1b1e 0B2A0000 		.4byte	0x2a0b
 6322 1b22 2A       		.uleb128 0x2a
 6323 1b23 01       		.uleb128 0x1
 6324 1b24 50       		.byte	0x50
 6325 1b25 02       		.uleb128 0x2
 6326 1b26 75       		.byte	0x75
 6327 1b27 00       		.sleb128 0
ARM GAS  /var/folders/3j/4xdnk5197cv_b7cw3n33qk7r0000gn/T//ccSq9Yz5.s 			page 112


 6328 1b28 2A       		.uleb128 0x2a
 6329 1b29 01       		.uleb128 0x1
 6330 1b2a 51       		.byte	0x51
 6331 1b2b 02       		.uleb128 0x2
 6332 1b2c 09       		.byte	0x9
 6333 1b2d B0       		.byte	0xb0
 6334 1b2e 2A       		.uleb128 0x2a
 6335 1b2f 01       		.uleb128 0x1
 6336 1b30 52       		.byte	0x52
 6337 1b31 02       		.uleb128 0x2
 6338 1b32 91       		.byte	0x91
 6339 1b33 48       		.sleb128 -56
 6340 1b34 2A       		.uleb128 0x2a
 6341 1b35 01       		.uleb128 0x1
 6342 1b36 53       		.byte	0x53
 6343 1b37 01       		.uleb128 0x1
 6344 1b38 36       		.byte	0x36
 6345 1b39 00       		.byte	0
 6346 1b3a 00       		.byte	0
 6347 1b3b 00       		.byte	0
 6348 1b3c 2C       		.uleb128 0x2c
 6349 1b3d 48000000 		.4byte	.LVL315
 6350 1b41 DF290000 		.4byte	0x29df
 6351 1b45 5B1B0000 		.4byte	0x1b5b
 6352 1b49 2A       		.uleb128 0x2a
 6353 1b4a 01       		.uleb128 0x1
 6354 1b4b 50       		.byte	0x50
 6355 1b4c 02       		.uleb128 0x2
 6356 1b4d 75       		.byte	0x75
 6357 1b4e 00       		.sleb128 0
 6358 1b4f 2A       		.uleb128 0x2a
 6359 1b50 01       		.uleb128 0x1
 6360 1b51 51       		.byte	0x51
 6361 1b52 02       		.uleb128 0x2
 6362 1b53 09       		.byte	0x9
 6363 1b54 FF       		.byte	0xff
 6364 1b55 2A       		.uleb128 0x2a
 6365 1b56 01       		.uleb128 0x1
 6366 1b57 52       		.byte	0x52
 6367 1b58 01       		.uleb128 0x1
 6368 1b59 31       		.byte	0x31
 6369 1b5a 00       		.byte	0
 6370 1b5b 2C       		.uleb128 0x2c
 6371 1b5c 6C000000 		.4byte	.LVL319
 6372 1b60 DF290000 		.4byte	0x29df
 6373 1b64 7B1B0000 		.4byte	0x1b7b
 6374 1b68 2A       		.uleb128 0x2a
 6375 1b69 01       		.uleb128 0x1
 6376 1b6a 50       		.byte	0x50
 6377 1b6b 02       		.uleb128 0x2
 6378 1b6c 75       		.byte	0x75
 6379 1b6d 00       		.sleb128 0
 6380 1b6e 2A       		.uleb128 0x2a
 6381 1b6f 01       		.uleb128 0x1
 6382 1b70 51       		.byte	0x51
 6383 1b71 02       		.uleb128 0x2
 6384 1b72 08       		.byte	0x8
ARM GAS  /var/folders/3j/4xdnk5197cv_b7cw3n33qk7r0000gn/T//ccSq9Yz5.s 			page 113


 6385 1b73 4F       		.byte	0x4f
 6386 1b74 2A       		.uleb128 0x2a
 6387 1b75 01       		.uleb128 0x1
 6388 1b76 52       		.byte	0x52
 6389 1b77 02       		.uleb128 0x2
 6390 1b78 76       		.byte	0x76
 6391 1b79 00       		.sleb128 0
 6392 1b7a 00       		.byte	0
 6393 1b7b 2C       		.uleb128 0x2c
 6394 1b7c 84000000 		.4byte	.LVL321
 6395 1b80 DF290000 		.4byte	0x29df
 6396 1b84 9B1B0000 		.4byte	0x1b9b
 6397 1b88 2A       		.uleb128 0x2a
 6398 1b89 01       		.uleb128 0x1
 6399 1b8a 50       		.byte	0x50
 6400 1b8b 02       		.uleb128 0x2
 6401 1b8c 75       		.byte	0x75
 6402 1b8d 00       		.sleb128 0
 6403 1b8e 2A       		.uleb128 0x2a
 6404 1b8f 01       		.uleb128 0x1
 6405 1b90 51       		.byte	0x51
 6406 1b91 02       		.uleb128 0x2
 6407 1b92 08       		.byte	0x8
 6408 1b93 4E       		.byte	0x4e
 6409 1b94 2A       		.uleb128 0x2a
 6410 1b95 01       		.uleb128 0x1
 6411 1b96 52       		.byte	0x52
 6412 1b97 02       		.uleb128 0x2
 6413 1b98 08       		.byte	0x8
 6414 1b99 2C       		.byte	0x2c
 6415 1b9a 00       		.byte	0
 6416 1b9b 2C       		.uleb128 0x2c
 6417 1b9c 9C000000 		.4byte	.LVL323
 6418 1ba0 DF290000 		.4byte	0x29df
 6419 1ba4 BB1B0000 		.4byte	0x1bbb
 6420 1ba8 2A       		.uleb128 0x2a
 6421 1ba9 01       		.uleb128 0x1
 6422 1baa 50       		.byte	0x50
 6423 1bab 02       		.uleb128 0x2
 6424 1bac 75       		.byte	0x75
 6425 1bad 00       		.sleb128 0
 6426 1bae 2A       		.uleb128 0x2a
 6427 1baf 01       		.uleb128 0x1
 6428 1bb0 51       		.byte	0x51
 6429 1bb1 02       		.uleb128 0x2
 6430 1bb2 09       		.byte	0x9
 6431 1bb3 FF       		.byte	0xff
 6432 1bb4 2A       		.uleb128 0x2a
 6433 1bb5 01       		.uleb128 0x1
 6434 1bb6 52       		.byte	0x52
 6435 1bb7 02       		.uleb128 0x2
 6436 1bb8 76       		.byte	0x76
 6437 1bb9 00       		.sleb128 0
 6438 1bba 00       		.byte	0
 6439 1bbb 2C       		.uleb128 0x2c
 6440 1bbc B4000000 		.4byte	.LVL325
 6441 1bc0 DF290000 		.4byte	0x29df
ARM GAS  /var/folders/3j/4xdnk5197cv_b7cw3n33qk7r0000gn/T//ccSq9Yz5.s 			page 114


 6442 1bc4 DB1B0000 		.4byte	0x1bdb
 6443 1bc8 2A       		.uleb128 0x2a
 6444 1bc9 01       		.uleb128 0x1
 6445 1bca 50       		.byte	0x50
 6446 1bcb 02       		.uleb128 0x2
 6447 1bcc 75       		.byte	0x75
 6448 1bcd 00       		.sleb128 0
 6449 1bce 2A       		.uleb128 0x2a
 6450 1bcf 01       		.uleb128 0x1
 6451 1bd0 51       		.byte	0x51
 6452 1bd1 02       		.uleb128 0x2
 6453 1bd2 09       		.byte	0x9
 6454 1bd3 B6       		.byte	0xb6
 6455 1bd4 2A       		.uleb128 0x2a
 6456 1bd5 01       		.uleb128 0x1
 6457 1bd6 52       		.byte	0x52
 6458 1bd7 02       		.uleb128 0x2
 6459 1bd8 09       		.byte	0x9
 6460 1bd9 B4       		.byte	0xb4
 6461 1bda 00       		.byte	0
 6462 1bdb 2C       		.uleb128 0x2c
 6463 1bdc CC000000 		.4byte	.LVL327
 6464 1be0 DF290000 		.4byte	0x29df
 6465 1be4 FB1B0000 		.4byte	0x1bfb
 6466 1be8 2A       		.uleb128 0x2a
 6467 1be9 01       		.uleb128 0x1
 6468 1bea 50       		.byte	0x50
 6469 1beb 02       		.uleb128 0x2
 6470 1bec 75       		.byte	0x75
 6471 1bed 00       		.sleb128 0
 6472 1bee 2A       		.uleb128 0x2a
 6473 1bef 01       		.uleb128 0x1
 6474 1bf0 51       		.byte	0x51
 6475 1bf1 02       		.uleb128 0x2
 6476 1bf2 09       		.byte	0x9
 6477 1bf3 80       		.byte	0x80
 6478 1bf4 2A       		.uleb128 0x2a
 6479 1bf5 01       		.uleb128 0x1
 6480 1bf6 52       		.byte	0x52
 6481 1bf7 02       		.uleb128 0x2
 6482 1bf8 76       		.byte	0x76
 6483 1bf9 00       		.sleb128 0
 6484 1bfa 00       		.byte	0
 6485 1bfb 2C       		.uleb128 0x2c
 6486 1bfc E8000000 		.4byte	.LVL329
 6487 1c00 33100000 		.4byte	0x1033
 6488 1c04 231C0000 		.4byte	0x1c23
 6489 1c08 2A       		.uleb128 0x2a
 6490 1c09 01       		.uleb128 0x1
 6491 1c0a 50       		.byte	0x50
 6492 1c0b 02       		.uleb128 0x2
 6493 1c0c 75       		.byte	0x75
 6494 1c0d 00       		.sleb128 0
 6495 1c0e 2A       		.uleb128 0x2a
 6496 1c0f 01       		.uleb128 0x1
 6497 1c10 51       		.byte	0x51
 6498 1c11 03       		.uleb128 0x3
ARM GAS  /var/folders/3j/4xdnk5197cv_b7cw3n33qk7r0000gn/T//ccSq9Yz5.s 			page 115


 6499 1c12 91       		.byte	0x91
 6500 1c13 BC7F     		.sleb128 -68
 6501 1c15 2A       		.uleb128 0x2a
 6502 1c16 01       		.uleb128 0x1
 6503 1c17 52       		.byte	0x52
 6504 1c18 03       		.uleb128 0x3
 6505 1c19 91       		.byte	0x91
 6506 1c1a BD7F     		.sleb128 -67
 6507 1c1c 2A       		.uleb128 0x2a
 6508 1c1d 01       		.uleb128 0x1
 6509 1c1e 53       		.byte	0x53
 6510 1c1f 02       		.uleb128 0x2
 6511 1c20 76       		.byte	0x76
 6512 1c21 00       		.sleb128 0
 6513 1c22 00       		.byte	0
 6514 1c23 2C       		.uleb128 0x2c
 6515 1c24 34010000 		.4byte	.LVL331
 6516 1c28 3B1E0000 		.4byte	0x1e3b
 6517 1c2c 6A1C0000 		.4byte	0x1c6a
 6518 1c30 2A       		.uleb128 0x2a
 6519 1c31 01       		.uleb128 0x1
 6520 1c32 50       		.byte	0x50
 6521 1c33 02       		.uleb128 0x2
 6522 1c34 75       		.byte	0x75
 6523 1c35 00       		.sleb128 0
 6524 1c36 2A       		.uleb128 0x2a
 6525 1c37 01       		.uleb128 0x1
 6526 1c38 51       		.byte	0x51
 6527 1c39 02       		.uleb128 0x2
 6528 1c3a 76       		.byte	0x76
 6529 1c3b 00       		.sleb128 0
 6530 1c3c 2A       		.uleb128 0x2a
 6531 1c3d 01       		.uleb128 0x1
 6532 1c3e 52       		.byte	0x52
 6533 1c3f 02       		.uleb128 0x2
 6534 1c40 7A       		.byte	0x7a
 6535 1c41 00       		.sleb128 0
 6536 1c42 2A       		.uleb128 0x2a
 6537 1c43 01       		.uleb128 0x1
 6538 1c44 53       		.byte	0x53
 6539 1c45 02       		.uleb128 0x2
 6540 1c46 78       		.byte	0x78
 6541 1c47 00       		.sleb128 0
 6542 1c48 2A       		.uleb128 0x2a
 6543 1c49 02       		.uleb128 0x2
 6544 1c4a 7D       		.byte	0x7d
 6545 1c4b 00       		.sleb128 0
 6546 1c4c 01       		.uleb128 0x1
 6547 1c4d 36       		.byte	0x36
 6548 1c4e 2A       		.uleb128 0x2a
 6549 1c4f 02       		.uleb128 0x2
 6550 1c50 7D       		.byte	0x7d
 6551 1c51 04       		.sleb128 4
 6552 1c52 02       		.uleb128 0x2
 6553 1c53 08       		.byte	0x8
 6554 1c54 B4       		.byte	0xb4
 6555 1c55 2A       		.uleb128 0x2a
ARM GAS  /var/folders/3j/4xdnk5197cv_b7cw3n33qk7r0000gn/T//ccSq9Yz5.s 			page 116


 6556 1c56 02       		.uleb128 0x2
 6557 1c57 7D       		.byte	0x7d
 6558 1c58 08       		.sleb128 8
 6559 1c59 02       		.uleb128 0x2
 6560 1c5a 76       		.byte	0x76
 6561 1c5b 00       		.sleb128 0
 6562 1c5c 2A       		.uleb128 0x2a
 6563 1c5d 02       		.uleb128 0x2
 6564 1c5e 7D       		.byte	0x7d
 6565 1c5f 0C       		.sleb128 12
 6566 1c60 01       		.uleb128 0x1
 6567 1c61 33       		.byte	0x33
 6568 1c62 2A       		.uleb128 0x2a
 6569 1c63 02       		.uleb128 0x2
 6570 1c64 7D       		.byte	0x7d
 6571 1c65 10       		.sleb128 16
 6572 1c66 02       		.uleb128 0x2
 6573 1c67 7B       		.byte	0x7b
 6574 1c68 00       		.sleb128 0
 6575 1c69 00       		.byte	0
 6576 1c6a 2C       		.uleb128 0x2c
 6577 1c6b 4C010000 		.4byte	.LVL334
 6578 1c6f 1E1D0000 		.4byte	0x1d1e
 6579 1c73 851C0000 		.4byte	0x1c85
 6580 1c77 2A       		.uleb128 0x2a
 6581 1c78 01       		.uleb128 0x1
 6582 1c79 50       		.byte	0x50
 6583 1c7a 02       		.uleb128 0x2
 6584 1c7b 75       		.byte	0x75
 6585 1c7c 00       		.sleb128 0
 6586 1c7d 2A       		.uleb128 0x2a
 6587 1c7e 01       		.uleb128 0x1
 6588 1c7f 51       		.byte	0x51
 6589 1c80 03       		.uleb128 0x3
 6590 1c81 91       		.byte	0x91
 6591 1c82 BE7F     		.sleb128 -66
 6592 1c84 00       		.byte	0
 6593 1c85 2C       		.uleb128 0x2c
 6594 1c86 D4010000 		.4byte	.LVL341
 6595 1c8a 3B1E0000 		.4byte	0x1e3b
 6596 1c8e C51C0000 		.4byte	0x1cc5
 6597 1c92 2A       		.uleb128 0x2a
 6598 1c93 01       		.uleb128 0x1
 6599 1c94 50       		.byte	0x50
 6600 1c95 02       		.uleb128 0x2
 6601 1c96 75       		.byte	0x75
 6602 1c97 00       		.sleb128 0
 6603 1c98 2A       		.uleb128 0x2a
 6604 1c99 01       		.uleb128 0x1
 6605 1c9a 51       		.byte	0x51
 6606 1c9b 01       		.uleb128 0x1
 6607 1c9c 31       		.byte	0x31
 6608 1c9d 2A       		.uleb128 0x2a
 6609 1c9e 01       		.uleb128 0x1
 6610 1c9f 52       		.byte	0x52
 6611 1ca0 02       		.uleb128 0x2
 6612 1ca1 7A       		.byte	0x7a
ARM GAS  /var/folders/3j/4xdnk5197cv_b7cw3n33qk7r0000gn/T//ccSq9Yz5.s 			page 117


 6613 1ca2 00       		.sleb128 0
 6614 1ca3 2A       		.uleb128 0x2a
 6615 1ca4 01       		.uleb128 0x1
 6616 1ca5 53       		.byte	0x53
 6617 1ca6 02       		.uleb128 0x2
 6618 1ca7 78       		.byte	0x78
 6619 1ca8 00       		.sleb128 0
 6620 1ca9 2A       		.uleb128 0x2a
 6621 1caa 02       		.uleb128 0x2
 6622 1cab 7D       		.byte	0x7d
 6623 1cac 00       		.sleb128 0
 6624 1cad 01       		.uleb128 0x1
 6625 1cae 36       		.byte	0x36
 6626 1caf 2A       		.uleb128 0x2a
 6627 1cb0 02       		.uleb128 0x2
 6628 1cb1 7D       		.byte	0x7d
 6629 1cb2 04       		.sleb128 4
 6630 1cb3 02       		.uleb128 0x2
 6631 1cb4 08       		.byte	0x8
 6632 1cb5 B4       		.byte	0xb4
 6633 1cb6 2A       		.uleb128 0x2a
 6634 1cb7 02       		.uleb128 0x2
 6635 1cb8 7D       		.byte	0x7d
 6636 1cb9 0C       		.sleb128 12
 6637 1cba 02       		.uleb128 0x2
 6638 1cbb 79       		.byte	0x79
 6639 1cbc 00       		.sleb128 0
 6640 1cbd 2A       		.uleb128 0x2a
 6641 1cbe 02       		.uleb128 0x2
 6642 1cbf 7D       		.byte	0x7d
 6643 1cc0 10       		.sleb128 16
 6644 1cc1 02       		.uleb128 0x2
 6645 1cc2 7B       		.byte	0x7b
 6646 1cc3 00       		.sleb128 0
 6647 1cc4 00       		.byte	0
 6648 1cc5 2C       		.uleb128 0x2c
 6649 1cc6 4C020000 		.4byte	.LVL347
 6650 1cca 70220000 		.4byte	0x2270
 6651 1cce EB1C0000 		.4byte	0x1ceb
 6652 1cd2 2A       		.uleb128 0x2a
 6653 1cd3 01       		.uleb128 0x1
 6654 1cd4 50       		.byte	0x50
 6655 1cd5 02       		.uleb128 0x2
 6656 1cd6 7A       		.byte	0x7a
 6657 1cd7 00       		.sleb128 0
 6658 1cd8 2A       		.uleb128 0x2a
 6659 1cd9 01       		.uleb128 0x1
 6660 1cda 51       		.byte	0x51
 6661 1cdb 02       		.uleb128 0x2
 6662 1cdc 71       		.byte	0x71
 6663 1cdd 00       		.sleb128 0
 6664 1cde 2A       		.uleb128 0x2a
 6665 1cdf 01       		.uleb128 0x1
 6666 1ce0 52       		.byte	0x52
 6667 1ce1 02       		.uleb128 0x2
 6668 1ce2 74       		.byte	0x74
 6669 1ce3 00       		.sleb128 0
ARM GAS  /var/folders/3j/4xdnk5197cv_b7cw3n33qk7r0000gn/T//ccSq9Yz5.s 			page 118


 6670 1ce4 2A       		.uleb128 0x2a
 6671 1ce5 01       		.uleb128 0x1
 6672 1ce6 53       		.byte	0x53
 6673 1ce7 02       		.uleb128 0x2
 6674 1ce8 73       		.byte	0x73
 6675 1ce9 00       		.sleb128 0
 6676 1cea 00       		.byte	0
 6677 1ceb 2C       		.uleb128 0x2c
 6678 1cec D4020000 		.4byte	.LVL354
 6679 1cf0 1E1D0000 		.4byte	0x1d1e
 6680 1cf4 061D0000 		.4byte	0x1d06
 6681 1cf8 2A       		.uleb128 0x2a
 6682 1cf9 01       		.uleb128 0x1
 6683 1cfa 50       		.byte	0x50
 6684 1cfb 02       		.uleb128 0x2
 6685 1cfc 75       		.byte	0x75
 6686 1cfd 00       		.sleb128 0
 6687 1cfe 2A       		.uleb128 0x2a
 6688 1cff 01       		.uleb128 0x1
 6689 1d00 51       		.byte	0x51
 6690 1d01 03       		.uleb128 0x3
 6691 1d02 91       		.byte	0x91
 6692 1d03 BE7F     		.sleb128 -66
 6693 1d05 00       		.byte	0
 6694 1d06 29       		.uleb128 0x29
 6695 1d07 A4030000 		.4byte	.LVL370
 6696 1d0b 1E1D0000 		.4byte	0x1d1e
 6697 1d0f 2A       		.uleb128 0x2a
 6698 1d10 01       		.uleb128 0x1
 6699 1d11 50       		.byte	0x50
 6700 1d12 02       		.uleb128 0x2
 6701 1d13 75       		.byte	0x75
 6702 1d14 00       		.sleb128 0
 6703 1d15 2A       		.uleb128 0x2a
 6704 1d16 01       		.uleb128 0x1
 6705 1d17 51       		.byte	0x51
 6706 1d18 03       		.uleb128 0x3
 6707 1d19 91       		.byte	0x91
 6708 1d1a BE7F     		.sleb128 -66
 6709 1d1c 00       		.byte	0
 6710 1d1d 00       		.byte	0
 6711 1d1e 24       		.uleb128 0x24
 6712 1d1f 3C100000 		.4byte	.LASF280
 6713 1d23 01       		.byte	0x1
 6714 1d24 7502     		.2byte	0x275
 6715 1d26 38010000 		.4byte	0x138
 6716 1d2a 00000000 		.4byte	.LFB15
 6717 1d2e AC000000 		.4byte	.LFE15-.LFB15
 6718 1d32 01       		.uleb128 0x1
 6719 1d33 9C       		.byte	0x9c
 6720 1d34 351E0000 		.4byte	0x1e35
 6721 1d38 25       		.uleb128 0x25
 6722 1d39 44657600 		.ascii	"Dev\000"
 6723 1d3d 01       		.byte	0x1
 6724 1d3e 7502     		.2byte	0x275
 6725 1d40 9C0E0000 		.4byte	0xe9c
 6726 1d44 400C0000 		.4byte	.LLST76
ARM GAS  /var/folders/3j/4xdnk5197cv_b7cw3n33qk7r0000gn/T//ccSq9Yz5.s 			page 119


 6727 1d48 26       		.uleb128 0x26
 6728 1d49 190E0000 		.4byte	.LASF281
 6729 1d4d 01       		.byte	0x1
 6730 1d4e 7602     		.2byte	0x276
 6731 1d50 351E0000 		.4byte	0x1e35
 6732 1d54 5E0C0000 		.4byte	.LLST77
 6733 1d58 27       		.uleb128 0x27
 6734 1d59 B4100000 		.4byte	.LASF282
 6735 1d5d 01       		.byte	0x1
 6736 1d5e 7802     		.2byte	0x278
 6737 1d60 38010000 		.4byte	0x138
 6738 1d64 7C0C0000 		.4byte	.LLST78
 6739 1d68 2B       		.uleb128 0x2b
 6740 1d69 11160000 		.4byte	.LASF283
 6741 1d6d 01       		.byte	0x1
 6742 1d6e 7902     		.2byte	0x279
 6743 1d70 F4020000 		.4byte	0x2f4
 6744 1d74 02       		.uleb128 0x2
 6745 1d75 91       		.byte	0x91
 6746 1d76 54       		.sleb128 -44
 6747 1d77 27       		.uleb128 0x27
 6748 1d78 840F0000 		.4byte	.LASF97
 6749 1d7c 01       		.byte	0x1
 6750 1d7d 7B02     		.2byte	0x27b
 6751 1d7f B8000000 		.4byte	0xb8
 6752 1d83 E80C0000 		.4byte	.LLST79
 6753 1d87 2C       		.uleb128 0x2c
 6754 1d88 20000000 		.4byte	.LVL169
 6755 1d8c DF290000 		.4byte	0x29df
 6756 1d90 A61D0000 		.4byte	0x1da6
 6757 1d94 2A       		.uleb128 0x2a
 6758 1d95 01       		.uleb128 0x1
 6759 1d96 50       		.byte	0x50
 6760 1d97 02       		.uleb128 0x2
 6761 1d98 74       		.byte	0x74
 6762 1d99 00       		.sleb128 0
 6763 1d9a 2A       		.uleb128 0x2a
 6764 1d9b 01       		.uleb128 0x1
 6765 1d9c 51       		.byte	0x51
 6766 1d9d 01       		.uleb128 0x1
 6767 1d9e 31       		.byte	0x31
 6768 1d9f 2A       		.uleb128 0x2a
 6769 1da0 01       		.uleb128 0x1
 6770 1da1 52       		.byte	0x52
 6771 1da2 02       		.uleb128 0x2
 6772 1da3 09       		.byte	0x9
 6773 1da4 C0       		.byte	0xc0
 6774 1da5 00       		.byte	0
 6775 1da6 2C       		.uleb128 0x2c
 6776 1da7 3C000000 		.4byte	.LVL173
 6777 1dab 162A0000 		.4byte	0x2a16
 6778 1daf C01D0000 		.4byte	0x1dc0
 6779 1db3 2A       		.uleb128 0x2a
 6780 1db4 01       		.uleb128 0x1
 6781 1db5 50       		.byte	0x50
 6782 1db6 02       		.uleb128 0x2
 6783 1db7 74       		.byte	0x74
ARM GAS  /var/folders/3j/4xdnk5197cv_b7cw3n33qk7r0000gn/T//ccSq9Yz5.s 			page 120


 6784 1db8 00       		.sleb128 0
 6785 1db9 2A       		.uleb128 0x2a
 6786 1dba 01       		.uleb128 0x1
 6787 1dbb 51       		.byte	0x51
 6788 1dbc 02       		.uleb128 0x2
 6789 1dbd 91       		.byte	0x91
 6790 1dbe 4C       		.sleb128 -52
 6791 1dbf 00       		.byte	0
 6792 1dc0 2C       		.uleb128 0x2c
 6793 1dc1 54000000 		.4byte	.LVL175
 6794 1dc5 DF290000 		.4byte	0x29df
 6795 1dc9 DF1D0000 		.4byte	0x1ddf
 6796 1dcd 2A       		.uleb128 0x2a
 6797 1dce 01       		.uleb128 0x1
 6798 1dcf 50       		.byte	0x50
 6799 1dd0 02       		.uleb128 0x2
 6800 1dd1 74       		.byte	0x74
 6801 1dd2 00       		.sleb128 0
 6802 1dd3 2A       		.uleb128 0x2a
 6803 1dd4 01       		.uleb128 0x1
 6804 1dd5 51       		.byte	0x51
 6805 1dd6 02       		.uleb128 0x2
 6806 1dd7 09       		.byte	0x9
 6807 1dd8 FF       		.byte	0xff
 6808 1dd9 2A       		.uleb128 0x2a
 6809 1dda 01       		.uleb128 0x1
 6810 1ddb 52       		.byte	0x52
 6811 1ddc 01       		.uleb128 0x1
 6812 1ddd 31       		.byte	0x31
 6813 1dde 00       		.byte	0
 6814 1ddf 2C       		.uleb128 0x2c
 6815 1de0 6C000000 		.4byte	.LVL177
 6816 1de4 222A0000 		.4byte	0x2a22
 6817 1de8 FF1D0000 		.4byte	0x1dff
 6818 1dec 2A       		.uleb128 0x2a
 6819 1ded 01       		.uleb128 0x1
 6820 1dee 50       		.byte	0x50
 6821 1def 02       		.uleb128 0x2
 6822 1df0 74       		.byte	0x74
 6823 1df1 00       		.sleb128 0
 6824 1df2 2A       		.uleb128 0x2a
 6825 1df3 01       		.uleb128 0x1
 6826 1df4 51       		.byte	0x51
 6827 1df5 02       		.uleb128 0x2
 6828 1df6 09       		.byte	0x9
 6829 1df7 B6       		.byte	0xb6
 6830 1df8 2A       		.uleb128 0x2a
 6831 1df9 01       		.uleb128 0x1
 6832 1dfa 52       		.byte	0x52
 6833 1dfb 02       		.uleb128 0x2
 6834 1dfc 76       		.byte	0x76
 6835 1dfd 00       		.sleb128 0
 6836 1dfe 00       		.byte	0
 6837 1dff 2C       		.uleb128 0x2c
 6838 1e00 84000000 		.4byte	.LVL179
 6839 1e04 DF290000 		.4byte	0x29df
 6840 1e08 191E0000 		.4byte	0x1e19
ARM GAS  /var/folders/3j/4xdnk5197cv_b7cw3n33qk7r0000gn/T//ccSq9Yz5.s 			page 121


 6841 1e0c 2A       		.uleb128 0x2a
 6842 1e0d 01       		.uleb128 0x1
 6843 1e0e 50       		.byte	0x50
 6844 1e0f 02       		.uleb128 0x2
 6845 1e10 74       		.byte	0x74
 6846 1e11 00       		.sleb128 0
 6847 1e12 2A       		.uleb128 0x2a
 6848 1e13 01       		.uleb128 0x1
 6849 1e14 51       		.byte	0x51
 6850 1e15 02       		.uleb128 0x2
 6851 1e16 09       		.byte	0x9
 6852 1e17 FF       		.byte	0xff
 6853 1e18 00       		.byte	0
 6854 1e19 29       		.uleb128 0x29
 6855 1e1a 9C000000 		.4byte	.LVL181
 6856 1e1e DF290000 		.4byte	0x29df
 6857 1e22 2A       		.uleb128 0x2a
 6858 1e23 01       		.uleb128 0x1
 6859 1e24 50       		.byte	0x50
 6860 1e25 02       		.uleb128 0x2
 6861 1e26 74       		.byte	0x74
 6862 1e27 00       		.sleb128 0
 6863 1e28 2A       		.uleb128 0x2a
 6864 1e29 01       		.uleb128 0x1
 6865 1e2a 51       		.byte	0x51
 6866 1e2b 01       		.uleb128 0x1
 6867 1e2c 31       		.byte	0x31
 6868 1e2d 2A       		.uleb128 0x2a
 6869 1e2e 01       		.uleb128 0x1
 6870 1e2f 52       		.byte	0x52
 6871 1e30 02       		.uleb128 0x2
 6872 1e31 75       		.byte	0x75
 6873 1e32 00       		.sleb128 0
 6874 1e33 00       		.byte	0
 6875 1e34 00       		.byte	0
 6876 1e35 0F       		.uleb128 0xf
 6877 1e36 04       		.byte	0x4
 6878 1e37 D3000000 		.4byte	0xd3
 6879 1e3b 24       		.uleb128 0x24
 6880 1e3c 21100000 		.4byte	.LASF284
 6881 1e40 01       		.byte	0x1
 6882 1e41 2C02     		.2byte	0x22c
 6883 1e43 38010000 		.4byte	0x138
 6884 1e47 00000000 		.4byte	.LFB14
 6885 1e4b 3C010000 		.4byte	.LFE14-.LFB14
 6886 1e4f 01       		.uleb128 0x1
 6887 1e50 9C       		.byte	0x9c
 6888 1e51 85200000 		.4byte	0x2085
 6889 1e55 25       		.uleb128 0x25
 6890 1e56 44657600 		.ascii	"Dev\000"
 6891 1e5a 01       		.byte	0x1
 6892 1e5b 2C02     		.2byte	0x22c
 6893 1e5d 9C0E0000 		.4byte	0xe9c
 6894 1e61 070D0000 		.4byte	.LLST61
 6895 1e65 26       		.uleb128 0x26
 6896 1e66 940A0000 		.4byte	.LASF285
 6897 1e6a 01       		.byte	0x1
ARM GAS  /var/folders/3j/4xdnk5197cv_b7cw3n33qk7r0000gn/T//ccSq9Yz5.s 			page 122


 6898 1e6b 2D02     		.2byte	0x22d
 6899 1e6d B8000000 		.4byte	0xb8
 6900 1e71 270D0000 		.4byte	.LLST62
 6901 1e75 26       		.uleb128 0x26
 6902 1e76 9E160000 		.4byte	.LASF286
 6903 1e7a 01       		.byte	0x1
 6904 1e7b 2E02     		.2byte	0x22e
 6905 1e7d 20060000 		.4byte	0x620
 6906 1e81 480D0000 		.4byte	.LLST63
 6907 1e85 26       		.uleb128 0x26
 6908 1e86 AA040000 		.4byte	.LASF287
 6909 1e8a 01       		.byte	0x1
 6910 1e8b 2F02     		.2byte	0x22f
 6911 1e8d 20060000 		.4byte	0x620
 6912 1e91 740D0000 		.4byte	.LLST64
 6913 1e95 2D       		.uleb128 0x2d
 6914 1e96 510D0000 		.4byte	.LASF288
 6915 1e9a 01       		.byte	0x1
 6916 1e9b 3002     		.2byte	0x230
 6917 1e9d E9000000 		.4byte	0xe9
 6918 1ea1 02       		.uleb128 0x2
 6919 1ea2 91       		.byte	0x91
 6920 1ea3 00       		.sleb128 0
 6921 1ea4 2D       		.uleb128 0x2d
 6922 1ea5 F80D0000 		.4byte	.LASF289
 6923 1ea9 01       		.byte	0x1
 6924 1eaa 3102     		.2byte	0x231
 6925 1eac E9000000 		.4byte	0xe9
 6926 1eb0 02       		.uleb128 0x2
 6927 1eb1 91       		.byte	0x91
 6928 1eb2 04       		.sleb128 4
 6929 1eb3 2D       		.uleb128 0x2d
 6930 1eb4 02080000 		.4byte	.LASF290
 6931 1eb8 01       		.byte	0x1
 6932 1eb9 3202     		.2byte	0x232
 6933 1ebb E9000000 		.4byte	0xe9
 6934 1ebf 02       		.uleb128 0x2
 6935 1ec0 91       		.byte	0x91
 6936 1ec1 08       		.sleb128 8
 6937 1ec2 2D       		.uleb128 0x2d
 6938 1ec3 A8120000 		.4byte	.LASF291
 6939 1ec7 01       		.byte	0x1
 6940 1ec8 3302     		.2byte	0x233
 6941 1eca E9000000 		.4byte	0xe9
 6942 1ece 02       		.uleb128 0x2
 6943 1ecf 91       		.byte	0x91
 6944 1ed0 0C       		.sleb128 12
 6945 1ed1 2D       		.uleb128 0x2d
 6946 1ed2 F9140000 		.4byte	.LASF292
 6947 1ed6 01       		.byte	0x1
 6948 1ed7 3402     		.2byte	0x234
 6949 1ed9 CB160000 		.4byte	0x16cb
 6950 1edd 02       		.uleb128 0x2
 6951 1ede 91       		.byte	0x91
 6952 1edf 10       		.sleb128 16
 6953 1ee0 27       		.uleb128 0x27
 6954 1ee1 B4100000 		.4byte	.LASF282
ARM GAS  /var/folders/3j/4xdnk5197cv_b7cw3n33qk7r0000gn/T//ccSq9Yz5.s 			page 123


 6955 1ee5 01       		.byte	0x1
 6956 1ee6 3602     		.2byte	0x236
 6957 1ee8 38010000 		.4byte	0x138
 6958 1eec B90D0000 		.4byte	.LLST65
 6959 1ef0 27       		.uleb128 0x27
 6960 1ef1 C8020000 		.4byte	.LASF267
 6961 1ef5 01       		.byte	0x1
 6962 1ef6 3702     		.2byte	0x237
 6963 1ef8 E9000000 		.4byte	0xe9
 6964 1efc F10D0000 		.4byte	.LLST66
 6965 1f00 3B       		.uleb128 0x3b
 6966 1f01 6900     		.ascii	"i\000"
 6967 1f03 01       		.byte	0x1
 6968 1f04 3802     		.2byte	0x238
 6969 1f06 E9000000 		.4byte	0xe9
 6970 1f0a 2A0E0000 		.4byte	.LLST67
 6971 1f0e 2B       		.uleb128 0x2b
 6972 1f0f 77130000 		.4byte	.LASF272
 6973 1f13 01       		.byte	0x1
 6974 1f14 3902     		.2byte	0x239
 6975 1f16 DE000000 		.4byte	0xde
 6976 1f1a 02       		.uleb128 0x2
 6977 1f1b 91       		.byte	0x91
 6978 1f1c 4C       		.sleb128 -52
 6979 1f1d 27       		.uleb128 0x27
 6980 1f1e E0120000 		.4byte	.LASF293
 6981 1f22 01       		.byte	0x1
 6982 1f23 3A02     		.2byte	0x23a
 6983 1f25 E9000000 		.4byte	0xe9
 6984 1f29 610E0000 		.4byte	.LLST68
 6985 1f2d 2B       		.uleb128 0x2b
 6986 1f2e 68130000 		.4byte	.LASF294
 6987 1f32 01       		.byte	0x1
 6988 1f33 3B02     		.2byte	0x23b
 6989 1f35 00020000 		.4byte	0x200
 6990 1f39 02       		.uleb128 0x2
 6991 1f3a 91       		.byte	0x91
 6992 1f3b 50       		.sleb128 -48
 6993 1f3c 37       		.uleb128 0x37
 6994 1f3d 3A220000 		.4byte	0x223a
 6995 1f41 34000000 		.4byte	.LBB24
 6996 1f45 00000000 		.4byte	.Ldebug_ranges0+0
 6997 1f49 01       		.byte	0x1
 6998 1f4a 5202     		.2byte	0x252
 6999 1f4c 661F0000 		.4byte	0x1f66
 7000 1f50 3A       		.uleb128 0x3a
 7001 1f51 4B220000 		.4byte	0x224b
 7002 1f55 38       		.uleb128 0x38
 7003 1f56 00000000 		.4byte	.Ldebug_ranges0+0
 7004 1f5a 39       		.uleb128 0x39
 7005 1f5b 3C280000 		.4byte	0x283c
 7006 1f5f 39       		.uleb128 0x39
 7007 1f60 45280000 		.4byte	0x2845
 7008 1f64 00       		.byte	0
 7009 1f65 00       		.byte	0
 7010 1f66 37       		.uleb128 0x37
 7011 1f67 D4210000 		.4byte	0x21d4
ARM GAS  /var/folders/3j/4xdnk5197cv_b7cw3n33qk7r0000gn/T//ccSq9Yz5.s 			page 124


 7012 1f6b 40000000 		.4byte	.LBB27
 7013 1f6f 18000000 		.4byte	.Ldebug_ranges0+0x18
 7014 1f73 01       		.byte	0x1
 7015 1f74 5A02     		.2byte	0x25a
 7016 1f76 B01F0000 		.4byte	0x1fb0
 7017 1f7a 33       		.uleb128 0x33
 7018 1f7b FD210000 		.4byte	0x21fd
 7019 1f7f AC0E0000 		.4byte	.LLST69
 7020 1f83 33       		.uleb128 0x33
 7021 1f84 F1210000 		.4byte	0x21f1
 7022 1f88 D60E0000 		.4byte	.LLST70
 7023 1f8c 33       		.uleb128 0x33
 7024 1f8d E5210000 		.4byte	0x21e5
 7025 1f91 0A0F0000 		.4byte	.LLST71
 7026 1f95 38       		.uleb128 0x38
 7027 1f96 18000000 		.4byte	.Ldebug_ranges0+0x18
 7028 1f9a 39       		.uleb128 0x39
 7029 1f9b 7B280000 		.4byte	0x287b
 7030 1f9f 39       		.uleb128 0x39
 7031 1fa0 84280000 		.4byte	0x2884
 7032 1fa4 39       		.uleb128 0x39
 7033 1fa5 8A280000 		.4byte	0x288a
 7034 1fa9 39       		.uleb128 0x39
 7035 1faa 95280000 		.4byte	0x2895
 7036 1fae 00       		.byte	0
 7037 1faf 00       		.byte	0
 7038 1fb0 37       		.uleb128 0x37
 7039 1fb1 BB200000 		.4byte	0x20bb
 7040 1fb5 BC000000 		.4byte	.LBB34
 7041 1fb9 38000000 		.4byte	.Ldebug_ranges0+0x38
 7042 1fbd 01       		.byte	0x1
 7043 1fbe 6002     		.2byte	0x260
 7044 1fc0 07200000 		.4byte	0x2007
 7045 1fc4 33       		.uleb128 0x33
 7046 1fc5 D8200000 		.4byte	0x20d8
 7047 1fc9 280F0000 		.4byte	.LLST72
 7048 1fcd 33       		.uleb128 0x33
 7049 1fce CC200000 		.4byte	0x20cc
 7050 1fd2 3B0F0000 		.4byte	.LLST73
 7051 1fd6 38       		.uleb128 0x38
 7052 1fd7 38000000 		.4byte	.Ldebug_ranges0+0x38
 7053 1fdb 35       		.uleb128 0x35
 7054 1fdc C4280000 		.4byte	0x28c4
 7055 1fe0 01       		.uleb128 0x1
 7056 1fe1 50       		.byte	0x50
 7057 1fe2 29       		.uleb128 0x29
 7058 1fe3 D4000000 		.4byte	.LVL157
 7059 1fe7 0B2A0000 		.4byte	0x2a0b
 7060 1feb 2A       		.uleb128 0x2a
 7061 1fec 01       		.uleb128 0x1
 7062 1fed 50       		.byte	0x50
 7063 1fee 04       		.uleb128 0x4
 7064 1fef 91       		.byte	0x91
 7065 1ff0 BC7F     		.sleb128 -68
 7066 1ff2 06       		.byte	0x6
 7067 1ff3 2A       		.uleb128 0x2a
 7068 1ff4 01       		.uleb128 0x1
ARM GAS  /var/folders/3j/4xdnk5197cv_b7cw3n33qk7r0000gn/T//ccSq9Yz5.s 			page 125


 7069 1ff5 51       		.byte	0x51
 7070 1ff6 02       		.uleb128 0x2
 7071 1ff7 09       		.byte	0x9
 7072 1ff8 B0       		.byte	0xb0
 7073 1ff9 2A       		.uleb128 0x2a
 7074 1ffa 01       		.uleb128 0x1
 7075 1ffb 52       		.byte	0x52
 7076 1ffc 02       		.uleb128 0x2
 7077 1ffd 77       		.byte	0x77
 7078 1ffe 00       		.sleb128 0
 7079 1fff 2A       		.uleb128 0x2a
 7080 2000 01       		.uleb128 0x1
 7081 2001 53       		.byte	0x53
 7082 2002 01       		.uleb128 0x1
 7083 2003 36       		.byte	0x36
 7084 2004 00       		.byte	0
 7085 2005 00       		.byte	0
 7086 2006 00       		.byte	0
 7087 2007 32       		.uleb128 0x32
 7088 2008 85200000 		.4byte	0x2085
 7089 200c DC000000 		.4byte	.LBB38
 7090 2010 14000000 		.4byte	.LBE38-.LBB38
 7091 2014 01       		.byte	0x1
 7092 2015 6402     		.2byte	0x264
 7093 2017 62200000 		.4byte	0x2062
 7094 201b 33       		.uleb128 0x33
 7095 201c A2200000 		.4byte	0x20a2
 7096 2020 500F0000 		.4byte	.LLST74
 7097 2024 33       		.uleb128 0x33
 7098 2025 96200000 		.4byte	0x2096
 7099 2029 7D0F0000 		.4byte	.LLST75
 7100 202d 34       		.uleb128 0x34
 7101 202e DC000000 		.4byte	.LBB39
 7102 2032 14000000 		.4byte	.LBE39-.LBB39
 7103 2036 35       		.uleb128 0x35
 7104 2037 12290000 		.4byte	0x2912
 7105 203b 01       		.uleb128 0x1
 7106 203c 50       		.byte	0x50
 7107 203d 29       		.uleb128 0x29
 7108 203e F0000000 		.4byte	.LVL161
 7109 2042 002A0000 		.4byte	0x2a00
 7110 2046 2A       		.uleb128 0x2a
 7111 2047 01       		.uleb128 0x1
 7112 2048 50       		.byte	0x50
 7113 2049 04       		.uleb128 0x4
 7114 204a 91       		.byte	0x91
 7115 204b BC7F     		.sleb128 -68
 7116 204d 06       		.byte	0x6
 7117 204e 2A       		.uleb128 0x2a
 7118 204f 01       		.uleb128 0x1
 7119 2050 51       		.byte	0x51
 7120 2051 02       		.uleb128 0x2
 7121 2052 09       		.byte	0x9
 7122 2053 B0       		.byte	0xb0
 7123 2054 2A       		.uleb128 0x2a
 7124 2055 01       		.uleb128 0x1
 7125 2056 52       		.byte	0x52
ARM GAS  /var/folders/3j/4xdnk5197cv_b7cw3n33qk7r0000gn/T//ccSq9Yz5.s 			page 126


 7126 2057 02       		.uleb128 0x2
 7127 2058 91       		.byte	0x91
 7128 2059 48       		.sleb128 -56
 7129 205a 2A       		.uleb128 0x2a
 7130 205b 01       		.uleb128 0x1
 7131 205c 53       		.byte	0x53
 7132 205d 01       		.uleb128 0x1
 7133 205e 36       		.byte	0x36
 7134 205f 00       		.byte	0
 7135 2060 00       		.byte	0
 7136 2061 00       		.byte	0
 7137 2062 29       		.uleb128 0x29
 7138 2063 88000000 		.4byte	.LVL149
 7139 2067 70220000 		.4byte	0x2270
 7140 206b 2A       		.uleb128 0x2a
 7141 206c 01       		.uleb128 0x1
 7142 206d 50       		.byte	0x50
 7143 206e 02       		.uleb128 0x2
 7144 206f 79       		.byte	0x79
 7145 2070 00       		.sleb128 0
 7146 2071 2A       		.uleb128 0x2a
 7147 2072 01       		.uleb128 0x1
 7148 2073 51       		.byte	0x51
 7149 2074 02       		.uleb128 0x2
 7150 2075 71       		.byte	0x71
 7151 2076 00       		.sleb128 0
 7152 2077 2A       		.uleb128 0x2a
 7153 2078 01       		.uleb128 0x1
 7154 2079 52       		.byte	0x52
 7155 207a 02       		.uleb128 0x2
 7156 207b 76       		.byte	0x76
 7157 207c 00       		.sleb128 0
 7158 207d 2A       		.uleb128 0x2a
 7159 207e 01       		.uleb128 0x1
 7160 207f 53       		.byte	0x53
 7161 2080 02       		.uleb128 0x2
 7162 2081 73       		.byte	0x73
 7163 2082 00       		.sleb128 0
 7164 2083 00       		.byte	0
 7165 2084 00       		.byte	0
 7166 2085 2E       		.uleb128 0x2e
 7167 2086 DD0C0000 		.4byte	.LASF296
 7168 208a 01       		.byte	0x1
 7169 208b 2302     		.2byte	0x223
 7170 208d 38010000 		.4byte	0x138
 7171 2091 01       		.byte	0x1
 7172 2092 BB200000 		.4byte	0x20bb
 7173 2096 2F       		.uleb128 0x2f
 7174 2097 44657600 		.ascii	"Dev\000"
 7175 209b 01       		.byte	0x1
 7176 209c 2302     		.2byte	0x223
 7177 209e 9C0E0000 		.4byte	0xe9c
 7178 20a2 30       		.uleb128 0x30
 7179 20a3 94130000 		.4byte	.LASF255
 7180 20a7 01       		.byte	0x1
 7181 20a8 2302     		.2byte	0x223
 7182 20aa 20060000 		.4byte	0x620
ARM GAS  /var/folders/3j/4xdnk5197cv_b7cw3n33qk7r0000gn/T//ccSq9Yz5.s 			page 127


 7183 20ae 31       		.uleb128 0x31
 7184 20af B4100000 		.4byte	.LASF282
 7185 20b3 01       		.byte	0x1
 7186 20b4 2502     		.2byte	0x225
 7187 20b6 38010000 		.4byte	0x138
 7188 20ba 00       		.byte	0
 7189 20bb 2E       		.uleb128 0x2e
 7190 20bc 00000000 		.4byte	.LASF297
 7191 20c0 01       		.byte	0x1
 7192 20c1 1B02     		.2byte	0x21b
 7193 20c3 38010000 		.4byte	0x138
 7194 20c7 01       		.byte	0x1
 7195 20c8 F1200000 		.4byte	0x20f1
 7196 20cc 2F       		.uleb128 0x2f
 7197 20cd 44657600 		.ascii	"Dev\000"
 7198 20d1 01       		.byte	0x1
 7199 20d2 1B02     		.2byte	0x21b
 7200 20d4 9C0E0000 		.4byte	0xe9c
 7201 20d8 30       		.uleb128 0x30
 7202 20d9 94130000 		.4byte	.LASF255
 7203 20dd 01       		.byte	0x1
 7204 20de 1B02     		.2byte	0x21b
 7205 20e0 20060000 		.4byte	0x620
 7206 20e4 31       		.uleb128 0x31
 7207 20e5 B4100000 		.4byte	.LASF282
 7208 20e9 01       		.byte	0x1
 7209 20ea 1D02     		.2byte	0x21d
 7210 20ec 38010000 		.4byte	0x138
 7211 20f0 00       		.byte	0
 7212 20f1 24       		.uleb128 0x24
 7213 20f2 4B030000 		.4byte	.LASF298
 7214 20f6 01       		.byte	0x1
 7215 20f7 E101     		.2byte	0x1e1
 7216 20f9 38010000 		.4byte	0x138
 7217 20fd 00000000 		.4byte	.LFB11
 7218 2101 BC000000 		.4byte	.LFE11-.LFB11
 7219 2105 01       		.uleb128 0x1
 7220 2106 9C       		.byte	0x9c
 7221 2107 D4210000 		.4byte	0x21d4
 7222 210b 26       		.uleb128 0x26
 7223 210c AA040000 		.4byte	.LASF287
 7224 2110 01       		.byte	0x1
 7225 2111 E101     		.2byte	0x1e1
 7226 2113 20060000 		.4byte	0x620
 7227 2117 920F0000 		.4byte	.LLST48
 7228 211b 26       		.uleb128 0x26
 7229 211c E5070000 		.4byte	.LASF299
 7230 2120 01       		.byte	0x1
 7231 2121 E201     		.2byte	0x1e2
 7232 2123 E9000000 		.4byte	0xe9
 7233 2127 B30F0000 		.4byte	.LLST49
 7234 212b 26       		.uleb128 0x26
 7235 212c E5090000 		.4byte	.LASF300
 7236 2130 01       		.byte	0x1
 7237 2131 E201     		.2byte	0x1e2
 7238 2133 E9000000 		.4byte	0xe9
 7239 2137 D40F0000 		.4byte	.LLST50
ARM GAS  /var/folders/3j/4xdnk5197cv_b7cw3n33qk7r0000gn/T//ccSq9Yz5.s 			page 128


 7240 213b 2D       		.uleb128 0x2d
 7241 213c 74120000 		.4byte	.LASF301
 7242 2140 01       		.byte	0x1
 7243 2141 E301     		.2byte	0x1e3
 7244 2143 CB160000 		.4byte	0x16cb
 7245 2147 01       		.uleb128 0x1
 7246 2148 53       		.byte	0x53
 7247 2149 2D       		.uleb128 0x2d
 7248 214a 48040000 		.4byte	.LASF302
 7249 214e 01       		.byte	0x1
 7250 214f E301     		.2byte	0x1e3
 7251 2151 20060000 		.4byte	0x620
 7252 2155 02       		.uleb128 0x2
 7253 2156 91       		.byte	0x91
 7254 2157 00       		.sleb128 0
 7255 2158 27       		.uleb128 0x27
 7256 2159 B4100000 		.4byte	.LASF282
 7257 215d 01       		.byte	0x1
 7258 215e E501     		.2byte	0x1e5
 7259 2160 38010000 		.4byte	0x138
 7260 2164 F50F0000 		.4byte	.LLST51
 7261 2168 28       		.uleb128 0x28
 7262 2169 F4060000 		.4byte	.LASF303
 7263 216d 01       		.byte	0x1
 7264 216e E601     		.2byte	0x1e6
 7265 2170 E9000000 		.4byte	0xe9
 7266 2174 08       		.byte	0x8
 7267 2175 27       		.uleb128 0x27
 7268 2176 5B100000 		.4byte	.LASF304
 7269 217a 01       		.byte	0x1
 7270 217b E701     		.2byte	0x1e7
 7271 217d E9000000 		.4byte	0xe9
 7272 2181 14100000 		.4byte	.LLST52
 7273 2185 2B       		.uleb128 0x2b
 7274 2186 5E0B0000 		.4byte	.LASF305
 7275 218a 01       		.byte	0x1
 7276 218b E801     		.2byte	0x1e8
 7277 218d E9000000 		.4byte	0xe9
 7278 2191 01       		.uleb128 0x1
 7279 2192 5A       		.byte	0x5a
 7280 2193 27       		.uleb128 0x27
 7281 2194 EF070000 		.4byte	.LASF306
 7282 2198 01       		.byte	0x1
 7283 2199 E901     		.2byte	0x1e9
 7284 219b E9000000 		.4byte	0xe9
 7285 219f 34100000 		.4byte	.LLST53
 7286 21a3 27       		.uleb128 0x27
 7287 21a4 D9060000 		.4byte	.LASF307
 7288 21a8 01       		.byte	0x1
 7289 21a9 EA01     		.2byte	0x1ea
 7290 21ab E9000000 		.4byte	0xe9
 7291 21af 53100000 		.4byte	.LLST54
 7292 21b3 27       		.uleb128 0x27
 7293 21b4 DC0A0000 		.4byte	.LASF308
 7294 21b8 01       		.byte	0x1
 7295 21b9 EB01     		.2byte	0x1eb
 7296 21bb B8000000 		.4byte	0xb8
ARM GAS  /var/folders/3j/4xdnk5197cv_b7cw3n33qk7r0000gn/T//ccSq9Yz5.s 			page 129


 7297 21bf A1100000 		.4byte	.LLST55
 7298 21c3 27       		.uleb128 0x27
 7299 21c4 0B0C0000 		.4byte	.LASF309
 7300 21c8 01       		.byte	0x1
 7301 21c9 EC01     		.2byte	0x1ec
 7302 21cb B8000000 		.4byte	0xb8
 7303 21cf D0100000 		.4byte	.LLST56
 7304 21d3 00       		.byte	0
 7305 21d4 2E       		.uleb128 0x2e
 7306 21d5 A0060000 		.4byte	.LASF310
 7307 21d9 01       		.byte	0x1
 7308 21da CF01     		.2byte	0x1cf
 7309 21dc 38010000 		.4byte	0x138
 7310 21e0 01       		.byte	0x1
 7311 21e1 3A220000 		.4byte	0x223a
 7312 21e5 30       		.uleb128 0x30
 7313 21e6 AA040000 		.4byte	.LASF287
 7314 21ea 01       		.byte	0x1
 7315 21eb CF01     		.2byte	0x1cf
 7316 21ed 20060000 		.4byte	0x620
 7317 21f1 30       		.uleb128 0x30
 7318 21f2 510D0000 		.4byte	.LASF288
 7319 21f6 01       		.byte	0x1
 7320 21f7 CF01     		.2byte	0x1cf
 7321 21f9 E9000000 		.4byte	0xe9
 7322 21fd 30       		.uleb128 0x30
 7323 21fe B2120000 		.4byte	.LASF311
 7324 2202 01       		.byte	0x1
 7325 2203 D001     		.2byte	0x1d0
 7326 2205 E9000000 		.4byte	0xe9
 7327 2209 31       		.uleb128 0x31
 7328 220a B4100000 		.4byte	.LASF282
 7329 220e 01       		.byte	0x1
 7330 220f D201     		.2byte	0x1d2
 7331 2211 38010000 		.4byte	0x138
 7332 2215 31       		.uleb128 0x31
 7333 2216 F4060000 		.4byte	.LASF303
 7334 221a 01       		.byte	0x1
 7335 221b D301     		.2byte	0x1d3
 7336 221d E9000000 		.4byte	0xe9
 7337 2221 31       		.uleb128 0x31
 7338 2222 0A150000 		.4byte	.LASF312
 7339 2226 01       		.byte	0x1
 7340 2227 D401     		.2byte	0x1d4
 7341 2229 E9000000 		.4byte	0xe9
 7342 222d 31       		.uleb128 0x31
 7343 222e 96090000 		.4byte	.LASF313
 7344 2232 01       		.byte	0x1
 7345 2233 D501     		.2byte	0x1d5
 7346 2235 E9000000 		.4byte	0xe9
 7347 2239 00       		.byte	0
 7348 223a 2E       		.uleb128 0x2e
 7349 223b 15070000 		.4byte	.LASF314
 7350 223f 01       		.byte	0x1
 7351 2240 BF01     		.2byte	0x1bf
 7352 2242 B8000000 		.4byte	0xb8
 7353 2246 01       		.byte	0x1
ARM GAS  /var/folders/3j/4xdnk5197cv_b7cw3n33qk7r0000gn/T//ccSq9Yz5.s 			page 130


 7354 2247 70220000 		.4byte	0x2270
 7355 224b 30       		.uleb128 0x30
 7356 224c B2120000 		.4byte	.LASF311
 7357 2250 01       		.byte	0x1
 7358 2251 BF01     		.2byte	0x1bf
 7359 2253 E9000000 		.4byte	0xe9
 7360 2257 31       		.uleb128 0x31
 7361 2258 B6030000 		.4byte	.LASF315
 7362 225c 01       		.byte	0x1
 7363 225d C501     		.2byte	0x1c5
 7364 225f E9000000 		.4byte	0xe9
 7365 2263 31       		.uleb128 0x31
 7366 2264 1E0C0000 		.4byte	.LASF316
 7367 2268 01       		.byte	0x1
 7368 2269 C601     		.2byte	0x1c6
 7369 226b B8000000 		.4byte	0xb8
 7370 226f 00       		.byte	0
 7371 2270 3C       		.uleb128 0x3c
 7372 2271 95080000 		.4byte	.LASF380
 7373 2275 01       		.byte	0x1
 7374 2276 8E01     		.2byte	0x18e
 7375 2278 00000000 		.4byte	.LFB8
 7376 227c 74000000 		.4byte	.LFE8-.LFB8
 7377 2280 01       		.uleb128 0x1
 7378 2281 9C       		.byte	0x9c
 7379 2282 2E230000 		.4byte	0x232e
 7380 2286 26       		.uleb128 0x26
 7381 2287 9E160000 		.4byte	.LASF286
 7382 228b 01       		.byte	0x1
 7383 228c 8E01     		.2byte	0x18e
 7384 228e 20060000 		.4byte	0x620
 7385 2292 EF100000 		.4byte	.LLST34
 7386 2296 2D       		.uleb128 0x2d
 7387 2297 510D0000 		.4byte	.LASF288
 7388 229b 01       		.byte	0x1
 7389 229c 8E01     		.2byte	0x18e
 7390 229e E9000000 		.4byte	0xe9
 7391 22a2 01       		.uleb128 0x1
 7392 22a3 51       		.byte	0x51
 7393 22a4 26       		.uleb128 0x26
 7394 22a5 64100000 		.4byte	.LASF317
 7395 22a9 01       		.byte	0x1
 7396 22aa 8F01     		.2byte	0x18f
 7397 22ac E9000000 		.4byte	0xe9
 7398 22b0 10110000 		.4byte	.LLST35
 7399 22b4 2D       		.uleb128 0x2d
 7400 22b5 6A020000 		.4byte	.LASF318
 7401 22b9 01       		.byte	0x1
 7402 22ba 8F01     		.2byte	0x18f
 7403 22bc 2E230000 		.4byte	0x232e
 7404 22c0 01       		.uleb128 0x1
 7405 22c1 53       		.byte	0x53
 7406 22c2 2B       		.uleb128 0x2b
 7407 22c3 0A070000 		.4byte	.LASF319
 7408 22c7 01       		.byte	0x1
 7409 22c8 9101     		.2byte	0x191
 7410 22ca E9000000 		.4byte	0xe9
ARM GAS  /var/folders/3j/4xdnk5197cv_b7cw3n33qk7r0000gn/T//ccSq9Yz5.s 			page 131


 7411 22ce 01       		.uleb128 0x1
 7412 22cf 55       		.byte	0x55
 7413 22d0 27       		.uleb128 0x27
 7414 22d1 B0060000 		.4byte	.LASF320
 7415 22d5 01       		.byte	0x1
 7416 22d6 9201     		.2byte	0x192
 7417 22d8 E9000000 		.4byte	0xe9
 7418 22dc 31110000 		.4byte	.LLST36
 7419 22e0 28       		.uleb128 0x28
 7420 22e1 F4060000 		.4byte	.LASF303
 7421 22e5 01       		.byte	0x1
 7422 22e6 9301     		.2byte	0x193
 7423 22e8 E9000000 		.4byte	0xe9
 7424 22ec 08       		.byte	0x8
 7425 22ed 27       		.uleb128 0x27
 7426 22ee 0A150000 		.4byte	.LASF312
 7427 22f2 01       		.byte	0x1
 7428 22f3 9401     		.2byte	0x194
 7429 22f5 E9000000 		.4byte	0xe9
 7430 22f9 53110000 		.4byte	.LLST37
 7431 22fd 27       		.uleb128 0x27
 7432 22fe 96090000 		.4byte	.LASF313
 7433 2302 01       		.byte	0x1
 7434 2303 9501     		.2byte	0x195
 7435 2305 E9000000 		.4byte	0xe9
 7436 2309 96110000 		.4byte	.LLST38
 7437 230d 27       		.uleb128 0x27
 7438 230e 91010000 		.4byte	.LASF321
 7439 2312 01       		.byte	0x1
 7440 2313 9601     		.2byte	0x196
 7441 2315 B8000000 		.4byte	0xb8
 7442 2319 CD110000 		.4byte	.LLST39
 7443 231d 27       		.uleb128 0x27
 7444 231e 460B0000 		.4byte	.LASF322
 7445 2322 01       		.byte	0x1
 7446 2323 9701     		.2byte	0x197
 7447 2325 B8000000 		.4byte	0xb8
 7448 2329 F7110000 		.4byte	.LLST40
 7449 232d 00       		.byte	0
 7450 232e 0F       		.uleb128 0xf
 7451 232f 04       		.byte	0x4
 7452 2330 DE000000 		.4byte	0xde
 7453 2334 24       		.uleb128 0x24
 7454 2335 0F090000 		.4byte	.LASF323
 7455 2339 01       		.byte	0x1
 7456 233a 6601     		.2byte	0x166
 7457 233c 38010000 		.4byte	0x138
 7458 2340 00000000 		.4byte	.LFB7
 7459 2344 64000000 		.4byte	.LFE7-.LFB7
 7460 2348 01       		.uleb128 0x1
 7461 2349 9C       		.byte	0x9c
 7462 234a D5230000 		.4byte	0x23d5
 7463 234e 25       		.uleb128 0x25
 7464 234f 44657600 		.ascii	"Dev\000"
 7465 2353 01       		.byte	0x1
 7466 2354 6601     		.2byte	0x166
 7467 2356 9C0E0000 		.4byte	0xe9c
ARM GAS  /var/folders/3j/4xdnk5197cv_b7cw3n33qk7r0000gn/T//ccSq9Yz5.s 			page 132


 7468 235a 17120000 		.4byte	.LLST32
 7469 235e 27       		.uleb128 0x27
 7470 235f 6F020000 		.4byte	.LASF233
 7471 2363 01       		.byte	0x1
 7472 2364 6801     		.2byte	0x168
 7473 2366 38010000 		.4byte	0x138
 7474 236a 35120000 		.4byte	.LLST33
 7475 236e 2B       		.uleb128 0x2b
 7476 236f FE0D0000 		.4byte	.LASF324
 7477 2373 01       		.byte	0x1
 7478 2374 6901     		.2byte	0x169
 7479 2376 DE000000 		.4byte	0xde
 7480 237a 01       		.uleb128 0x1
 7481 237b 55       		.byte	0x55
 7482 237c 2B       		.uleb128 0x2b
 7483 237d D1100000 		.4byte	.LASF325
 7484 2381 01       		.byte	0x1
 7485 2382 6A01     		.2byte	0x16a
 7486 2384 DE000000 		.4byte	0xde
 7487 2388 02       		.uleb128 0x2
 7488 2389 91       		.byte	0x91
 7489 238a 6C       		.sleb128 -20
 7490 238b 2C       		.uleb128 0x2c
 7491 238c 14000000 		.4byte	.LVL86
 7492 2390 2D2A0000 		.4byte	0x2a2d
 7493 2394 A4230000 		.4byte	0x23a4
 7494 2398 2A       		.uleb128 0x2a
 7495 2399 01       		.uleb128 0x1
 7496 239a 50       		.byte	0x50
 7497 239b 02       		.uleb128 0x2
 7498 239c 74       		.byte	0x74
 7499 239d 00       		.sleb128 0
 7500 239e 2A       		.uleb128 0x2a
 7501 239f 01       		.uleb128 0x1
 7502 23a0 51       		.byte	0x51
 7503 23a1 01       		.uleb128 0x1
 7504 23a2 37       		.byte	0x37
 7505 23a3 00       		.byte	0
 7506 23a4 2C       		.uleb128 0x2c
 7507 23a5 30000000 		.4byte	.LVL90
 7508 23a9 382A0000 		.4byte	0x2a38
 7509 23ad BE230000 		.4byte	0x23be
 7510 23b1 2A       		.uleb128 0x2a
 7511 23b2 01       		.uleb128 0x1
 7512 23b3 50       		.byte	0x50
 7513 23b4 02       		.uleb128 0x2
 7514 23b5 74       		.byte	0x74
 7515 23b6 00       		.sleb128 0
 7516 23b7 2A       		.uleb128 0x2a
 7517 23b8 01       		.uleb128 0x1
 7518 23b9 51       		.byte	0x51
 7519 23ba 02       		.uleb128 0x2
 7520 23bb 91       		.byte	0x91
 7521 23bc 64       		.sleb128 -28
 7522 23bd 00       		.byte	0
 7523 23be 29       		.uleb128 0x29
 7524 23bf 54000000 		.4byte	.LVL93
ARM GAS  /var/folders/3j/4xdnk5197cv_b7cw3n33qk7r0000gn/T//ccSq9Yz5.s 			page 133


 7525 23c3 442A0000 		.4byte	0x2a44
 7526 23c7 2A       		.uleb128 0x2a
 7527 23c8 01       		.uleb128 0x1
 7528 23c9 50       		.byte	0x50
 7529 23ca 02       		.uleb128 0x2
 7530 23cb 74       		.byte	0x74
 7531 23cc 00       		.sleb128 0
 7532 23cd 2A       		.uleb128 0x2a
 7533 23ce 01       		.uleb128 0x1
 7534 23cf 51       		.byte	0x51
 7535 23d0 02       		.uleb128 0x2
 7536 23d1 75       		.byte	0x75
 7537 23d2 00       		.sleb128 0
 7538 23d3 00       		.byte	0
 7539 23d4 00       		.byte	0
 7540 23d5 24       		.uleb128 0x24
 7541 23d6 970D0000 		.4byte	.LASF326
 7542 23da 01       		.byte	0x1
 7543 23db 4601     		.2byte	0x146
 7544 23dd 38010000 		.4byte	0x138
 7545 23e1 00000000 		.4byte	.LFB6
 7546 23e5 4C000000 		.4byte	.LFE6-.LFB6
 7547 23e9 01       		.uleb128 0x1
 7548 23ea 9C       		.byte	0x9c
 7549 23eb 69240000 		.4byte	0x2469
 7550 23ef 25       		.uleb128 0x25
 7551 23f0 44657600 		.ascii	"Dev\000"
 7552 23f4 01       		.byte	0x1
 7553 23f5 4601     		.2byte	0x146
 7554 23f7 9C0E0000 		.4byte	0xe9c
 7555 23fb 80120000 		.4byte	.LLST28
 7556 23ff 26       		.uleb128 0x26
 7557 2400 AF140000 		.4byte	.LASF327
 7558 2404 01       		.byte	0x1
 7559 2405 4701     		.2byte	0x147
 7560 2407 2E230000 		.4byte	0x232e
 7561 240b A1120000 		.4byte	.LLST29
 7562 240f 27       		.uleb128 0x27
 7563 2410 6F020000 		.4byte	.LASF233
 7564 2414 01       		.byte	0x1
 7565 2415 4901     		.2byte	0x149
 7566 2417 38010000 		.4byte	0x138
 7567 241b BF120000 		.4byte	.LLST30
 7568 241f 27       		.uleb128 0x27
 7569 2420 290C0000 		.4byte	.LASF328
 7570 2424 01       		.byte	0x1
 7571 2425 4A01     		.2byte	0x14a
 7572 2427 D3000000 		.4byte	0xd3
 7573 242b DE120000 		.4byte	.LLST31
 7574 242f 3D       		.uleb128 0x3d
 7575 2430 96000000 		.4byte	.LASF329
 7576 2434 01       		.byte	0x1
 7577 2435 4B01     		.2byte	0x14b
 7578 2437 C8000000 		.4byte	0xc8
 7579 243b FF07     		.2byte	0x7ff
 7580 243d 3D       		.uleb128 0x3d
 7581 243e EC140000 		.4byte	.LASF330
ARM GAS  /var/folders/3j/4xdnk5197cv_b7cw3n33qk7r0000gn/T//ccSq9Yz5.s 			page 134


 7582 2442 01       		.byte	0x1
 7583 2443 4C01     		.2byte	0x14c
 7584 2445 C8000000 		.4byte	0xc8
 7585 2449 0010     		.2byte	0x1000
 7586 244b 29       		.uleb128 0x29
 7587 244c 18000000 		.4byte	.LVL80
 7588 2450 222A0000 		.4byte	0x2a22
 7589 2454 2A       		.uleb128 0x2a
 7590 2455 01       		.uleb128 0x1
 7591 2456 50       		.byte	0x50
 7592 2457 03       		.uleb128 0x3
 7593 2458 F3       		.byte	0xf3
 7594 2459 01       		.uleb128 0x1
 7595 245a 50       		.byte	0x50
 7596 245b 2A       		.uleb128 0x2a
 7597 245c 01       		.uleb128 0x1
 7598 245d 51       		.byte	0x51
 7599 245e 02       		.uleb128 0x2
 7600 245f 08       		.byte	0x8
 7601 2460 28       		.byte	0x28
 7602 2461 2A       		.uleb128 0x2a
 7603 2462 01       		.uleb128 0x1
 7604 2463 52       		.byte	0x52
 7605 2464 02       		.uleb128 0x2
 7606 2465 91       		.byte	0x91
 7607 2466 6E       		.sleb128 -18
 7608 2467 00       		.byte	0
 7609 2468 00       		.byte	0
 7610 2469 24       		.uleb128 0x24
 7611 246a 6C030000 		.4byte	.LASF331
 7612 246e 01       		.byte	0x1
 7613 246f 2101     		.2byte	0x121
 7614 2471 38010000 		.4byte	0x138
 7615 2475 00000000 		.4byte	.LFB5
 7616 2479 58000000 		.4byte	.LFE5-.LFB5
 7617 247d 01       		.uleb128 0x1
 7618 247e 9C       		.byte	0x9c
 7619 247f 0E250000 		.4byte	0x250e
 7620 2483 25       		.uleb128 0x25
 7621 2484 44657600 		.ascii	"Dev\000"
 7622 2488 01       		.byte	0x1
 7623 2489 2101     		.2byte	0x121
 7624 248b 9C0E0000 		.4byte	0xe9c
 7625 248f 08130000 		.4byte	.LLST26
 7626 2493 26       		.uleb128 0x26
 7627 2494 710B0000 		.4byte	.LASF332
 7628 2498 01       		.byte	0x1
 7629 2499 2201     		.2byte	0x122
 7630 249b DE000000 		.4byte	0xde
 7631 249f 42130000 		.4byte	.LLST27
 7632 24a3 28       		.uleb128 0x28
 7633 24a4 6F020000 		.4byte	.LASF233
 7634 24a8 01       		.byte	0x1
 7635 24a9 2401     		.2byte	0x124
 7636 24ab 38010000 		.4byte	0x138
 7637 24af 00       		.byte	0
 7638 24b0 3E       		.uleb128 0x3e
ARM GAS  /var/folders/3j/4xdnk5197cv_b7cw3n33qk7r0000gn/T//ccSq9Yz5.s 			page 135


 7639 24b1 650D0000 		.4byte	.LASF333
 7640 24b5 01       		.byte	0x1
 7641 24b6 2501     		.2byte	0x125
 7642 24b8 DE000000 		.4byte	0xde
 7643 24bc 18CC0700 		.4byte	0x7cc18
 7644 24c0 36       		.uleb128 0x36
 7645 24c1 910B0000 		.4byte	.LASF334
 7646 24c5 01       		.byte	0x1
 7647 24c6 2601     		.2byte	0x126
 7648 24c8 DE000000 		.4byte	0xde
 7649 24cc 80E060   		.sleb128 -512000
 7650 24cf 3D       		.uleb128 0x3d
 7651 24d0 EC140000 		.4byte	.LASF330
 7652 24d4 01       		.byte	0x1
 7653 24d5 2701     		.2byte	0x127
 7654 24d7 C8000000 		.4byte	0xc8
 7655 24db 0010     		.2byte	0x1000
 7656 24dd 31       		.uleb128 0x31
 7657 24de B80A0000 		.4byte	.LASF335
 7658 24e2 01       		.byte	0x1
 7659 24e3 2801     		.2byte	0x128
 7660 24e5 E9000000 		.4byte	0xe9
 7661 24e9 3F       		.uleb128 0x3f
 7662 24ea 24000000 		.4byte	.LVL75
 7663 24ee 4F2A0000 		.4byte	0x2a4f
 7664 24f2 FD240000 		.4byte	0x24fd
 7665 24f6 2A       		.uleb128 0x2a
 7666 24f7 01       		.uleb128 0x1
 7667 24f8 51       		.byte	0x51
 7668 24f9 02       		.uleb128 0x2
 7669 24fa 08       		.byte	0x8
 7670 24fb 28       		.byte	0x28
 7671 24fc 00       		.byte	0
 7672 24fd 40       		.uleb128 0x40
 7673 24fe 4C000000 		.4byte	.LVL77
 7674 2502 4F2A0000 		.4byte	0x2a4f
 7675 2506 2A       		.uleb128 0x2a
 7676 2507 01       		.uleb128 0x1
 7677 2508 51       		.byte	0x51
 7678 2509 02       		.uleb128 0x2
 7679 250a 08       		.byte	0x8
 7680 250b 28       		.byte	0x28
 7681 250c 00       		.byte	0
 7682 250d 00       		.byte	0
 7683 250e 41       		.uleb128 0x41
 7684 250f F3010000 		.4byte	.LASF336
 7685 2513 01       		.byte	0x1
 7686 2514 BE       		.byte	0xbe
 7687 2515 38010000 		.4byte	0x138
 7688 2519 00000000 		.4byte	.LFB4
 7689 251d 48010000 		.4byte	.LFE4-.LFB4
 7690 2521 01       		.uleb128 0x1
 7691 2522 9C       		.byte	0x9c
 7692 2523 85260000 		.4byte	0x2685
 7693 2527 42       		.uleb128 0x42
 7694 2528 44657600 		.ascii	"Dev\000"
 7695 252c 01       		.byte	0x1
ARM GAS  /var/folders/3j/4xdnk5197cv_b7cw3n33qk7r0000gn/T//ccSq9Yz5.s 			page 136


 7696 252d BE       		.byte	0xbe
 7697 252e 9C0E0000 		.4byte	0xe9c
 7698 2532 7C130000 		.4byte	.LLST16
 7699 2536 43       		.uleb128 0x43
 7700 2537 0C040000 		.4byte	.LASF337
 7701 253b 01       		.byte	0x1
 7702 253c BF       		.byte	0xbf
 7703 253d FB000000 		.4byte	0xfb
 7704 2541 9D130000 		.4byte	.LLST17
 7705 2545 43       		.uleb128 0x43
 7706 2546 01030000 		.4byte	.LASF338
 7707 254a 01       		.byte	0x1
 7708 254b C0       		.byte	0xc0
 7709 254c 2E230000 		.4byte	0x232e
 7710 2550 FC130000 		.4byte	.LLST18
 7711 2554 44       		.uleb128 0x44
 7712 2555 6F020000 		.4byte	.LASF233
 7713 2559 01       		.byte	0x1
 7714 255a C2       		.byte	0xc2
 7715 255b 38010000 		.4byte	0x138
 7716 255f 33140000 		.4byte	.LLST19
 7717 2563 44       		.uleb128 0x44
 7718 2564 EA100000 		.4byte	.LASF339
 7719 2568 01       		.byte	0x1
 7720 2569 C3       		.byte	0xc3
 7721 256a D3000000 		.4byte	0xd3
 7722 256e CF140000 		.4byte	.LLST20
 7723 2572 44       		.uleb128 0x44
 7724 2573 F40C0000 		.4byte	.LASF340
 7725 2577 01       		.byte	0x1
 7726 2578 C4       		.byte	0xc4
 7727 2579 FB000000 		.4byte	0xfb
 7728 257d FA140000 		.4byte	.LLST21
 7729 2581 45       		.uleb128 0x45
 7730 2582 B70C0000 		.4byte	.LASF341
 7731 2586 01       		.byte	0x1
 7732 2587 C5       		.byte	0xc5
 7733 2588 F4020000 		.4byte	0x2f4
 7734 258c 02       		.uleb128 0x2
 7735 258d 91       		.byte	0x91
 7736 258e 44       		.sleb128 -60
 7737 258f 44       		.uleb128 0x44
 7738 2590 5D080000 		.4byte	.LASF342
 7739 2594 01       		.byte	0x1
 7740 2595 C6       		.byte	0xc6
 7741 2596 FB000000 		.4byte	0xfb
 7742 259a 30150000 		.4byte	.LLST22
 7743 259e 44       		.uleb128 0x44
 7744 259f A8010000 		.4byte	.LASF343
 7745 25a3 01       		.byte	0x1
 7746 25a4 C7       		.byte	0xc7
 7747 25a5 E9000000 		.4byte	0xe9
 7748 25a9 54150000 		.4byte	.LLST23
 7749 25ad 44       		.uleb128 0x44
 7750 25ae 0A0D0000 		.4byte	.LASF344
 7751 25b2 01       		.byte	0x1
 7752 25b3 C8       		.byte	0xc8
ARM GAS  /var/folders/3j/4xdnk5197cv_b7cw3n33qk7r0000gn/T//ccSq9Yz5.s 			page 137


 7753 25b4 E9000000 		.4byte	0xe9
 7754 25b8 7E150000 		.4byte	.LLST24
 7755 25bc 45       		.uleb128 0x45
 7756 25bd F6050000 		.4byte	.LASF345
 7757 25c1 01       		.byte	0x1
 7758 25c2 C9       		.byte	0xc9
 7759 25c3 B8000000 		.4byte	0xb8
 7760 25c7 02       		.uleb128 0x2
 7761 25c8 91       		.byte	0x91
 7762 25c9 43       		.sleb128 -61
 7763 25ca 44       		.uleb128 0x44
 7764 25cb 28160000 		.4byte	.LASF346
 7765 25cf 01       		.byte	0x1
 7766 25d0 CA       		.byte	0xca
 7767 25d1 A6000000 		.4byte	0xa6
 7768 25d5 B1150000 		.4byte	.LLST25
 7769 25d9 2C       		.uleb128 0x2c
 7770 25da 2C000000 		.4byte	.LVL47
 7771 25de 442A0000 		.4byte	0x2a44
 7772 25e2 F2250000 		.4byte	0x25f2
 7773 25e6 2A       		.uleb128 0x2a
 7774 25e7 01       		.uleb128 0x1
 7775 25e8 50       		.byte	0x50
 7776 25e9 02       		.uleb128 0x2
 7777 25ea 75       		.byte	0x75
 7778 25eb 00       		.sleb128 0
 7779 25ec 2A       		.uleb128 0x2a
 7780 25ed 01       		.uleb128 0x1
 7781 25ee 51       		.byte	0x51
 7782 25ef 01       		.uleb128 0x1
 7783 25f0 30       		.byte	0x30
 7784 25f1 00       		.byte	0
 7785 25f2 2C       		.uleb128 0x2c
 7786 25f3 44000000 		.4byte	.LVL49
 7787 25f7 5A2A0000 		.4byte	0x2a5a
 7788 25fb 0D260000 		.4byte	0x260d
 7789 25ff 2A       		.uleb128 0x2a
 7790 2600 01       		.uleb128 0x1
 7791 2601 50       		.byte	0x50
 7792 2602 02       		.uleb128 0x2
 7793 2603 75       		.byte	0x75
 7794 2604 00       		.sleb128 0
 7795 2605 2A       		.uleb128 0x2a
 7796 2606 01       		.uleb128 0x1
 7797 2607 52       		.byte	0x52
 7798 2608 03       		.uleb128 0x3
 7799 2609 91       		.byte	0x91
 7800 260a BB7F     		.sleb128 -69
 7801 260c 00       		.byte	0
 7802 260d 2C       		.uleb128 0x2c
 7803 260e 5C000000 		.4byte	.LVL51
 7804 2612 662A0000 		.4byte	0x2a66
 7805 2616 21260000 		.4byte	0x2621
 7806 261a 2A       		.uleb128 0x2a
 7807 261b 01       		.uleb128 0x1
 7808 261c 50       		.byte	0x50
 7809 261d 02       		.uleb128 0x2
ARM GAS  /var/folders/3j/4xdnk5197cv_b7cw3n33qk7r0000gn/T//ccSq9Yz5.s 			page 138


 7810 261e 75       		.byte	0x75
 7811 261f 00       		.sleb128 0
 7812 2620 00       		.byte	0
 7813 2621 2C       		.uleb128 0x2c
 7814 2622 74000000 		.4byte	.LVL53
 7815 2626 722A0000 		.4byte	0x2a72
 7816 262a 3A260000 		.4byte	0x263a
 7817 262e 2A       		.uleb128 0x2a
 7818 262f 01       		.uleb128 0x1
 7819 2630 50       		.byte	0x50
 7820 2631 02       		.uleb128 0x2
 7821 2632 75       		.byte	0x75
 7822 2633 00       		.sleb128 0
 7823 2634 2A       		.uleb128 0x2a
 7824 2635 01       		.uleb128 0x1
 7825 2636 51       		.byte	0x51
 7826 2637 01       		.uleb128 0x1
 7827 2638 33       		.byte	0x33
 7828 2639 00       		.byte	0
 7829 263a 2C       		.uleb128 0x2c
 7830 263b B8000000 		.4byte	.LVL60
 7831 263f 162A0000 		.4byte	0x2a16
 7832 2643 55260000 		.4byte	0x2655
 7833 2647 2A       		.uleb128 0x2a
 7834 2648 01       		.uleb128 0x1
 7835 2649 50       		.byte	0x50
 7836 264a 02       		.uleb128 0x2
 7837 264b 75       		.byte	0x75
 7838 264c 00       		.sleb128 0
 7839 264d 2A       		.uleb128 0x2a
 7840 264e 01       		.uleb128 0x1
 7841 264f 51       		.byte	0x51
 7842 2650 03       		.uleb128 0x3
 7843 2651 91       		.byte	0x91
 7844 2652 BC7F     		.sleb128 -68
 7845 2654 00       		.byte	0
 7846 2655 2C       		.uleb128 0x2c
 7847 2656 14010000 		.4byte	.LVL69
 7848 265a 442A0000 		.4byte	0x2a44
 7849 265e 69260000 		.4byte	0x2669
 7850 2662 2A       		.uleb128 0x2a
 7851 2663 01       		.uleb128 0x1
 7852 2664 50       		.byte	0x50
 7853 2665 02       		.uleb128 0x2
 7854 2666 75       		.byte	0x75
 7855 2667 00       		.sleb128 0
 7856 2668 00       		.byte	0
 7857 2669 29       		.uleb128 0x29
 7858 266a 38010000 		.4byte	.LVL71
 7859 266e 662A0000 		.4byte	0x2a66
 7860 2672 2A       		.uleb128 0x2a
 7861 2673 01       		.uleb128 0x1
 7862 2674 50       		.byte	0x50
 7863 2675 02       		.uleb128 0x2
 7864 2676 75       		.byte	0x75
 7865 2677 00       		.sleb128 0
 7866 2678 2A       		.uleb128 0x2a
ARM GAS  /var/folders/3j/4xdnk5197cv_b7cw3n33qk7r0000gn/T//ccSq9Yz5.s 			page 139


 7867 2679 01       		.uleb128 0x1
 7868 267a 51       		.byte	0x51
 7869 267b 02       		.uleb128 0x2
 7870 267c 74       		.byte	0x74
 7871 267d 00       		.sleb128 0
 7872 267e 2A       		.uleb128 0x2a
 7873 267f 01       		.uleb128 0x1
 7874 2680 52       		.byte	0x52
 7875 2681 01       		.uleb128 0x1
 7876 2682 31       		.byte	0x31
 7877 2683 00       		.byte	0
 7878 2684 00       		.byte	0
 7879 2685 41       		.uleb128 0x41
 7880 2686 74170000 		.4byte	.LASF347
 7881 268a 01       		.byte	0x1
 7882 268b 33       		.byte	0x33
 7883 268c 38010000 		.4byte	0x138
 7884 2690 00000000 		.4byte	.LFB3
 7885 2694 88010000 		.4byte	.LFE3-.LFB3
 7886 2698 01       		.uleb128 0x1
 7887 2699 9C       		.byte	0x9c
 7888 269a 1A280000 		.4byte	0x281a
 7889 269e 42       		.uleb128 0x42
 7890 269f 44657600 		.ascii	"Dev\000"
 7891 26a3 01       		.byte	0x1
 7892 26a4 33       		.byte	0x33
 7893 26a5 9C0E0000 		.4byte	0xe9c
 7894 26a9 11160000 		.4byte	.LLST0
 7895 26ad 43       		.uleb128 0x43
 7896 26ae BE080000 		.4byte	.LASF348
 7897 26b2 01       		.byte	0x1
 7898 26b3 34       		.byte	0x34
 7899 26b4 FB000000 		.4byte	0xfb
 7900 26b8 32160000 		.4byte	.LLST1
 7901 26bc 43       		.uleb128 0x43
 7902 26bd 7D0C0000 		.4byte	.LASF349
 7903 26c1 01       		.byte	0x1
 7904 26c2 35       		.byte	0x35
 7905 26c3 1A280000 		.4byte	0x281a
 7906 26c7 77160000 		.4byte	.LLST2
 7907 26cb 44       		.uleb128 0x44
 7908 26cc 6F020000 		.4byte	.LASF233
 7909 26d0 01       		.byte	0x1
 7910 26d1 37       		.byte	0x37
 7911 26d2 38010000 		.4byte	0x138
 7912 26d6 AE160000 		.4byte	.LLST3
 7913 26da 44       		.uleb128 0x44
 7914 26db EA100000 		.4byte	.LASF339
 7915 26df 01       		.byte	0x1
 7916 26e0 38       		.byte	0x38
 7917 26e1 D3000000 		.4byte	0xd3
 7918 26e5 34170000 		.4byte	.LLST4
 7919 26e9 44       		.uleb128 0x44
 7920 26ea BD0B0000 		.4byte	.LASF350
 7921 26ee 01       		.byte	0x1
 7922 26ef 39       		.byte	0x39
 7923 26f0 D3000000 		.4byte	0xd3
ARM GAS  /var/folders/3j/4xdnk5197cv_b7cw3n33qk7r0000gn/T//ccSq9Yz5.s 			page 140


 7924 26f4 6A170000 		.4byte	.LLST5
 7925 26f8 44       		.uleb128 0x44
 7926 26f9 F40E0000 		.4byte	.LASF351
 7927 26fd 01       		.byte	0x1
 7928 26fe 3A       		.byte	0x3a
 7929 26ff FB000000 		.4byte	0xfb
 7930 2703 A0170000 		.4byte	.LLST6
 7931 2707 44       		.uleb128 0x44
 7932 2708 F40C0000 		.4byte	.LASF340
 7933 270c 01       		.byte	0x1
 7934 270d 3B       		.byte	0x3b
 7935 270e FB000000 		.4byte	0xfb
 7936 2712 CB170000 		.4byte	.LLST7
 7937 2716 44       		.uleb128 0x44
 7938 2717 C70B0000 		.4byte	.LASF352
 7939 271b 01       		.byte	0x1
 7940 271c 3C       		.byte	0x3c
 7941 271d B8000000 		.4byte	0xb8
 7942 2721 19180000 		.4byte	.LLST8
 7943 2725 45       		.uleb128 0x45
 7944 2726 B70C0000 		.4byte	.LASF341
 7945 272a 01       		.byte	0x1
 7946 272b 3D       		.byte	0x3d
 7947 272c F4020000 		.4byte	0x2f4
 7948 2730 03       		.uleb128 0x3
 7949 2731 91       		.byte	0x91
 7950 2732 BC7F     		.sleb128 -68
 7951 2734 44       		.uleb128 0x44
 7952 2735 13030000 		.4byte	.LASF353
 7953 2739 01       		.byte	0x1
 7954 273a 3E       		.byte	0x3e
 7955 273b FB000000 		.4byte	0xfb
 7956 273f 69180000 		.4byte	.LLST9
 7957 2743 44       		.uleb128 0x44
 7958 2744 7C010000 		.4byte	.LASF354
 7959 2748 01       		.byte	0x1
 7960 2749 3F       		.byte	0x3f
 7961 274a FB000000 		.4byte	0xfb
 7962 274e 9D180000 		.4byte	.LLST10
 7963 2752 44       		.uleb128 0x44
 7964 2753 5C120000 		.4byte	.LASF355
 7965 2757 01       		.byte	0x1
 7966 2758 40       		.byte	0x40
 7967 2759 FB000000 		.4byte	0xfb
 7968 275d BB180000 		.4byte	.LLST11
 7969 2761 44       		.uleb128 0x44
 7970 2762 42000000 		.4byte	.LASF356
 7971 2766 01       		.byte	0x1
 7972 2767 41       		.byte	0x41
 7973 2768 E9000000 		.4byte	0xe9
 7974 276c DF180000 		.4byte	.LLST12
 7975 2770 44       		.uleb128 0x44
 7976 2771 AB150000 		.4byte	.LASF357
 7977 2775 01       		.byte	0x1
 7978 2776 42       		.byte	0x42
 7979 2777 E9000000 		.4byte	0xe9
 7980 277b 21190000 		.4byte	.LLST13
ARM GAS  /var/folders/3j/4xdnk5197cv_b7cw3n33qk7r0000gn/T//ccSq9Yz5.s 			page 141


 7981 277f 44       		.uleb128 0x44
 7982 2780 610C0000 		.4byte	.LASF358
 7983 2784 01       		.byte	0x1
 7984 2785 43       		.byte	0x43
 7985 2786 E9000000 		.4byte	0xe9
 7986 278a 5B190000 		.4byte	.LLST14
 7987 278e 44       		.uleb128 0x44
 7988 278f CB0E0000 		.4byte	.LASF36
 7989 2793 01       		.byte	0x1
 7990 2794 44       		.byte	0x44
 7991 2795 FB000000 		.4byte	0xfb
 7992 2799 93190000 		.4byte	.LLST15
 7993 279d 2C       		.uleb128 0x2c
 7994 279e 2C000000 		.4byte	.LVL5
 7995 27a2 7E2A0000 		.4byte	0x2a7e
 7996 27a6 B6270000 		.4byte	0x27b6
 7997 27aa 2A       		.uleb128 0x2a
 7998 27ab 01       		.uleb128 0x1
 7999 27ac 50       		.byte	0x50
 8000 27ad 02       		.uleb128 0x2
 8001 27ae 74       		.byte	0x74
 8002 27af 00       		.sleb128 0
 8003 27b0 2A       		.uleb128 0x2a
 8004 27b1 01       		.uleb128 0x1
 8005 27b2 51       		.byte	0x51
 8006 27b3 01       		.uleb128 0x1
 8007 27b4 30       		.byte	0x30
 8008 27b5 00       		.byte	0
 8009 27b6 2C       		.uleb128 0x2c
 8010 27b7 44000000 		.4byte	.LVL7
 8011 27bb 722A0000 		.4byte	0x2a72
 8012 27bf CF270000 		.4byte	0x27cf
 8013 27c3 2A       		.uleb128 0x2a
 8014 27c4 01       		.uleb128 0x1
 8015 27c5 50       		.byte	0x50
 8016 27c6 02       		.uleb128 0x2
 8017 27c7 74       		.byte	0x74
 8018 27c8 00       		.sleb128 0
 8019 27c9 2A       		.uleb128 0x2a
 8020 27ca 01       		.uleb128 0x1
 8021 27cb 51       		.byte	0x51
 8022 27cc 01       		.uleb128 0x1
 8023 27cd 33       		.byte	0x33
 8024 27ce 00       		.byte	0
 8025 27cf 2C       		.uleb128 0x2c
 8026 27d0 A8000000 		.4byte	.LVL17
 8027 27d4 162A0000 		.4byte	0x2a16
 8028 27d8 EA270000 		.4byte	0x27ea
 8029 27dc 2A       		.uleb128 0x2a
 8030 27dd 01       		.uleb128 0x1
 8031 27de 50       		.byte	0x50
 8032 27df 02       		.uleb128 0x2
 8033 27e0 74       		.byte	0x74
 8034 27e1 00       		.sleb128 0
 8035 27e2 2A       		.uleb128 0x2a
 8036 27e3 01       		.uleb128 0x1
 8037 27e4 51       		.byte	0x51
ARM GAS  /var/folders/3j/4xdnk5197cv_b7cw3n33qk7r0000gn/T//ccSq9Yz5.s 			page 142


 8038 27e5 03       		.uleb128 0x3
 8039 27e6 91       		.byte	0x91
 8040 27e7 B47F     		.sleb128 -76
 8041 27e9 00       		.byte	0
 8042 27ea 2C       		.uleb128 0x2c
 8043 27eb 2C010000 		.4byte	.LVL32
 8044 27ef 7E2A0000 		.4byte	0x2a7e
 8045 27f3 03280000 		.4byte	0x2803
 8046 27f7 2A       		.uleb128 0x2a
 8047 27f8 01       		.uleb128 0x1
 8048 27f9 50       		.byte	0x50
 8049 27fa 02       		.uleb128 0x2
 8050 27fb 74       		.byte	0x74
 8051 27fc 00       		.sleb128 0
 8052 27fd 2A       		.uleb128 0x2a
 8053 27fe 01       		.uleb128 0x1
 8054 27ff 51       		.byte	0x51
 8055 2800 01       		.uleb128 0x1
 8056 2801 31       		.byte	0x31
 8057 2802 00       		.byte	0
 8058 2803 29       		.uleb128 0x29
 8059 2804 40010000 		.4byte	.LVL34
 8060 2808 8A2A0000 		.4byte	0x2a8a
 8061 280c 2A       		.uleb128 0x2a
 8062 280d 01       		.uleb128 0x1
 8063 280e 50       		.byte	0x50
 8064 280f 02       		.uleb128 0x2
 8065 2810 74       		.byte	0x74
 8066 2811 00       		.sleb128 0
 8067 2812 2A       		.uleb128 0x2a
 8068 2813 01       		.uleb128 0x1
 8069 2814 51       		.byte	0x51
 8070 2815 02       		.uleb128 0x2
 8071 2816 7B       		.byte	0x7b
 8072 2817 00       		.sleb128 0
 8073 2818 00       		.byte	0
 8074 2819 00       		.byte	0
 8075 281a 0F       		.uleb128 0xf
 8076 281b 04       		.byte	0x4
 8077 281c FB000000 		.4byte	0xfb
 8078 2820 46       		.uleb128 0x46
 8079 2821 3A220000 		.4byte	0x223a
 8080 2825 00000000 		.4byte	.LFB9
 8081 2829 1C000000 		.4byte	.LFE9-.LFB9
 8082 282d 01       		.uleb128 0x1
 8083 282e 9C       		.byte	0x9c
 8084 282f 4F280000 		.4byte	0x284f
 8085 2833 33       		.uleb128 0x33
 8086 2834 4B220000 		.4byte	0x224b
 8087 2838 B1190000 		.4byte	.LLST41
 8088 283c 47       		.uleb128 0x47
 8089 283d 57220000 		.4byte	0x2257
 8090 2841 D2190000 		.4byte	.LLST42
 8091 2845 47       		.uleb128 0x47
 8092 2846 63220000 		.4byte	0x2263
 8093 284a 041A0000 		.4byte	.LLST43
 8094 284e 00       		.byte	0
ARM GAS  /var/folders/3j/4xdnk5197cv_b7cw3n33qk7r0000gn/T//ccSq9Yz5.s 			page 143


 8095 284f 46       		.uleb128 0x46
 8096 2850 D4210000 		.4byte	0x21d4
 8097 2854 00000000 		.4byte	.LFB10
 8098 2858 34000000 		.4byte	.LFE10-.LFB10
 8099 285c 01       		.uleb128 0x1
 8100 285d 9C       		.byte	0x9c
 8101 285e 9F280000 		.4byte	0x289f
 8102 2862 33       		.uleb128 0x33
 8103 2863 E5210000 		.4byte	0x21e5
 8104 2867 591A0000 		.4byte	.LLST44
 8105 286b 33       		.uleb128 0x33
 8106 286c F1210000 		.4byte	0x21f1
 8107 2870 901A0000 		.4byte	.LLST45
 8108 2874 48       		.uleb128 0x48
 8109 2875 FD210000 		.4byte	0x21fd
 8110 2879 01       		.uleb128 0x1
 8111 287a 52       		.byte	0x52
 8112 287b 47       		.uleb128 0x47
 8113 287c 09220000 		.4byte	0x2209
 8114 2880 BC1A0000 		.4byte	.LLST46
 8115 2884 49       		.uleb128 0x49
 8116 2885 15220000 		.4byte	0x2215
 8117 2889 08       		.byte	0x8
 8118 288a 35       		.uleb128 0x35
 8119 288b 21220000 		.4byte	0x2221
 8120 288f 05       		.uleb128 0x5
 8121 2890 72       		.byte	0x72
 8122 2891 00       		.sleb128 0
 8123 2892 33       		.byte	0x33
 8124 2893 25       		.byte	0x25
 8125 2894 9F       		.byte	0x9f
 8126 2895 47       		.uleb128 0x47
 8127 2896 2D220000 		.4byte	0x222d
 8128 289a F21A0000 		.4byte	.LLST47
 8129 289e 00       		.byte	0
 8130 289f 46       		.uleb128 0x46
 8131 28a0 BB200000 		.4byte	0x20bb
 8132 28a4 00000000 		.4byte	.LFB12
 8133 28a8 10000000 		.4byte	.LFE12-.LFB12
 8134 28ac 01       		.uleb128 0x1
 8135 28ad 9C       		.byte	0x9c
 8136 28ae ED280000 		.4byte	0x28ed
 8137 28b2 33       		.uleb128 0x33
 8138 28b3 CC200000 		.4byte	0x20cc
 8139 28b7 231B0000 		.4byte	.LLST57
 8140 28bb 33       		.uleb128 0x33
 8141 28bc D8200000 		.4byte	0x20d8
 8142 28c0 441B0000 		.4byte	.LLST58
 8143 28c4 39       		.uleb128 0x39
 8144 28c5 E4200000 		.4byte	0x20e4
 8145 28c9 40       		.uleb128 0x40
 8146 28ca 10000000 		.4byte	.LVL138
 8147 28ce 0B2A0000 		.4byte	0x2a0b
 8148 28d2 2A       		.uleb128 0x2a
 8149 28d3 01       		.uleb128 0x1
 8150 28d4 50       		.byte	0x50
 8151 28d5 03       		.uleb128 0x3
ARM GAS  /var/folders/3j/4xdnk5197cv_b7cw3n33qk7r0000gn/T//ccSq9Yz5.s 			page 144


 8152 28d6 F3       		.byte	0xf3
 8153 28d7 01       		.uleb128 0x1
 8154 28d8 50       		.byte	0x50
 8155 28d9 2A       		.uleb128 0x2a
 8156 28da 01       		.uleb128 0x1
 8157 28db 51       		.byte	0x51
 8158 28dc 02       		.uleb128 0x2
 8159 28dd 09       		.byte	0x9
 8160 28de B0       		.byte	0xb0
 8161 28df 2A       		.uleb128 0x2a
 8162 28e0 01       		.uleb128 0x1
 8163 28e1 52       		.byte	0x52
 8164 28e2 03       		.uleb128 0x3
 8165 28e3 F3       		.byte	0xf3
 8166 28e4 01       		.uleb128 0x1
 8167 28e5 51       		.byte	0x51
 8168 28e6 2A       		.uleb128 0x2a
 8169 28e7 01       		.uleb128 0x1
 8170 28e8 53       		.byte	0x53
 8171 28e9 01       		.uleb128 0x1
 8172 28ea 36       		.byte	0x36
 8173 28eb 00       		.byte	0
 8174 28ec 00       		.byte	0
 8175 28ed 46       		.uleb128 0x46
 8176 28ee 85200000 		.4byte	0x2085
 8177 28f2 00000000 		.4byte	.LFB13
 8178 28f6 10000000 		.4byte	.LFE13-.LFB13
 8179 28fa 01       		.uleb128 0x1
 8180 28fb 9C       		.byte	0x9c
 8181 28fc 3B290000 		.4byte	0x293b
 8182 2900 33       		.uleb128 0x33
 8183 2901 96200000 		.4byte	0x2096
 8184 2905 701B0000 		.4byte	.LLST59
 8185 2909 33       		.uleb128 0x33
 8186 290a A2200000 		.4byte	0x20a2
 8187 290e 911B0000 		.4byte	.LLST60
 8188 2912 39       		.uleb128 0x39
 8189 2913 AE200000 		.4byte	0x20ae
 8190 2917 40       		.uleb128 0x40
 8191 2918 10000000 		.4byte	.LVL141
 8192 291c 002A0000 		.4byte	0x2a00
 8193 2920 2A       		.uleb128 0x2a
 8194 2921 01       		.uleb128 0x1
 8195 2922 50       		.byte	0x50
 8196 2923 03       		.uleb128 0x3
 8197 2924 F3       		.byte	0xf3
 8198 2925 01       		.uleb128 0x1
 8199 2926 50       		.byte	0x50
 8200 2927 2A       		.uleb128 0x2a
 8201 2928 01       		.uleb128 0x1
 8202 2929 51       		.byte	0x51
 8203 292a 02       		.uleb128 0x2
 8204 292b 09       		.byte	0x9
 8205 292c B0       		.byte	0xb0
 8206 292d 2A       		.uleb128 0x2a
 8207 292e 01       		.uleb128 0x1
 8208 292f 52       		.byte	0x52
ARM GAS  /var/folders/3j/4xdnk5197cv_b7cw3n33qk7r0000gn/T//ccSq9Yz5.s 			page 145


 8209 2930 03       		.uleb128 0x3
 8210 2931 F3       		.byte	0xf3
 8211 2932 01       		.uleb128 0x1
 8212 2933 51       		.byte	0x51
 8213 2934 2A       		.uleb128 0x2a
 8214 2935 01       		.uleb128 0x1
 8215 2936 53       		.byte	0x53
 8216 2937 01       		.uleb128 0x1
 8217 2938 36       		.byte	0x36
 8218 2939 00       		.byte	0
 8219 293a 00       		.byte	0
 8220 293b 46       		.uleb128 0x46
 8221 293c 62150000 		.4byte	0x1562
 8222 2940 00000000 		.4byte	.LFB19
 8223 2944 58000000 		.4byte	.LFE19-.LFB19
 8224 2948 01       		.uleb128 0x1
 8225 2949 9C       		.byte	0x9c
 8226 294a DF290000 		.4byte	0x29df
 8227 294e 33       		.uleb128 0x33
 8228 294f 73150000 		.4byte	0x1573
 8229 2953 BD1B0000 		.4byte	.LLST94
 8230 2957 33       		.uleb128 0x33
 8231 2958 7F150000 		.4byte	0x157f
 8232 295c F41B0000 		.4byte	.LLST95
 8233 2960 47       		.uleb128 0x47
 8234 2961 8B150000 		.4byte	0x158b
 8235 2965 151C0000 		.4byte	.LLST96
 8236 2969 4A       		.uleb128 0x4a
 8237 296a 62150000 		.4byte	0x1562
 8238 296e 78000000 		.4byte	.Ldebug_ranges0+0x78
 8239 2972 A1290000 		.4byte	0x29a1
 8240 2976 3A       		.uleb128 0x3a
 8241 2977 7F150000 		.4byte	0x157f
 8242 297b 33       		.uleb128 0x33
 8243 297c 73150000 		.4byte	0x1573
 8244 2980 601C0000 		.4byte	.LLST97
 8245 2984 38       		.uleb128 0x38
 8246 2985 78000000 		.4byte	.Ldebug_ranges0+0x78
 8247 2989 39       		.uleb128 0x39
 8248 298a 60290000 		.4byte	0x2960
 8249 298e 40       		.uleb128 0x40
 8250 298f 58000000 		.4byte	.LVL235
 8251 2993 DF290000 		.4byte	0x29df
 8252 2997 2A       		.uleb128 0x2a
 8253 2998 01       		.uleb128 0x1
 8254 2999 50       		.byte	0x50
 8255 299a 03       		.uleb128 0x3
 8256 299b F3       		.byte	0xf3
 8257 299c 01       		.uleb128 0x1
 8258 299d 50       		.byte	0x50
 8259 299e 00       		.byte	0
 8260 299f 00       		.byte	0
 8261 29a0 00       		.byte	0
 8262 29a1 2C       		.uleb128 0x2c
 8263 29a2 14000000 		.4byte	.LVL225
 8264 29a6 DF290000 		.4byte	0x29df
 8265 29aa BA290000 		.4byte	0x29ba
ARM GAS  /var/folders/3j/4xdnk5197cv_b7cw3n33qk7r0000gn/T//ccSq9Yz5.s 			page 146


 8266 29ae 2A       		.uleb128 0x2a
 8267 29af 01       		.uleb128 0x1
 8268 29b0 50       		.byte	0x50
 8269 29b1 02       		.uleb128 0x2
 8270 29b2 74       		.byte	0x74
 8271 29b3 00       		.sleb128 0
 8272 29b4 2A       		.uleb128 0x2a
 8273 29b5 01       		.uleb128 0x1
 8274 29b6 51       		.byte	0x51
 8275 29b7 01       		.uleb128 0x1
 8276 29b8 30       		.byte	0x30
 8277 29b9 00       		.byte	0
 8278 29ba 2C       		.uleb128 0x2c
 8279 29bb 2C000000 		.4byte	.LVL229
 8280 29bf 962A0000 		.4byte	0x2a96
 8281 29c3 CE290000 		.4byte	0x29ce
 8282 29c7 2A       		.uleb128 0x2a
 8283 29c8 01       		.uleb128 0x1
 8284 29c9 50       		.byte	0x50
 8285 29ca 02       		.uleb128 0x2
 8286 29cb 74       		.byte	0x74
 8287 29cc 00       		.sleb128 0
 8288 29cd 00       		.byte	0
 8289 29ce 29       		.uleb128 0x29
 8290 29cf 40000000 		.4byte	.LVL231
 8291 29d3 A12A0000 		.4byte	0x2aa1
 8292 29d7 2A       		.uleb128 0x2a
 8293 29d8 01       		.uleb128 0x1
 8294 29d9 50       		.byte	0x50
 8295 29da 02       		.uleb128 0x2
 8296 29db 74       		.byte	0x74
 8297 29dc 00       		.sleb128 0
 8298 29dd 00       		.byte	0
 8299 29de 00       		.byte	0
 8300 29df 4B       		.uleb128 0x4b
 8301 29e0 11000000 		.4byte	.LASF359
 8302 29e4 11000000 		.4byte	.LASF359
 8303 29e8 0B       		.byte	0xb
 8304 29e9 94       		.byte	0x94
 8305 29ea 4B       		.uleb128 0x4b
 8306 29eb 85100000 		.4byte	.LASF360
 8307 29ef 85100000 		.4byte	.LASF360
 8308 29f3 0B       		.byte	0xb
 8309 29f4 D4       		.byte	0xd4
 8310 29f5 4B       		.uleb128 0x4b
 8311 29f6 1E0D0000 		.4byte	.LASF361
 8312 29fa 1E0D0000 		.4byte	.LASF361
 8313 29fe 0B       		.byte	0xb
 8314 29ff B2       		.byte	0xb2
 8315 2a00 4B       		.uleb128 0x4b
 8316 2a01 4F050000 		.4byte	.LASF362
 8317 2a05 4F050000 		.4byte	.LASF362
 8318 2a09 0B       		.byte	0xb
 8319 2a0a 8A       		.byte	0x8a
 8320 2a0b 4B       		.uleb128 0x4b
 8321 2a0c 72100000 		.4byte	.LASF363
 8322 2a10 72100000 		.4byte	.LASF363
ARM GAS  /var/folders/3j/4xdnk5197cv_b7cw3n33qk7r0000gn/T//ccSq9Yz5.s 			page 147


 8323 2a14 0B       		.byte	0xb
 8324 2a15 7F       		.byte	0x7f
 8325 2a16 4C       		.uleb128 0x4c
 8326 2a17 0B120000 		.4byte	.LASF364
 8327 2a1b 0B120000 		.4byte	.LASF364
 8328 2a1f 0D       		.byte	0xd
 8329 2a20 0906     		.2byte	0x609
 8330 2a22 4B       		.uleb128 0x4b
 8331 2a23 420D0000 		.4byte	.LASF365
 8332 2a27 420D0000 		.4byte	.LASF365
 8333 2a2b 0B       		.byte	0xb
 8334 2a2c BC       		.byte	0xbc
 8335 2a2d 4B       		.uleb128 0x4b
 8336 2a2e 580F0000 		.4byte	.LASF366
 8337 2a32 580F0000 		.4byte	.LASF366
 8338 2a36 0E       		.byte	0xe
 8339 2a37 35       		.byte	0x35
 8340 2a38 4C       		.uleb128 0x4c
 8341 2a39 BA070000 		.4byte	.LASF367
 8342 2a3d BA070000 		.4byte	.LASF367
 8343 2a41 0D       		.byte	0xd
 8344 2a42 0A01     		.2byte	0x10a
 8345 2a44 4B       		.uleb128 0x4b
 8346 2a45 F6100000 		.4byte	.LASF368
 8347 2a49 F6100000 		.4byte	.LASF368
 8348 2a4d 0D       		.byte	0xd
 8349 2a4e F8       		.byte	0xf8
 8350 2a4f 4B       		.uleb128 0x4b
 8351 2a50 750F0000 		.4byte	.LASF369
 8352 2a54 750F0000 		.4byte	.LASF369
 8353 2a58 0B       		.byte	0xb
 8354 2a59 9E       		.byte	0x9e
 8355 2a5a 4C       		.uleb128 0x4c
 8356 2a5b 2D030000 		.4byte	.LASF370
 8357 2a5f 2D030000 		.4byte	.LASF370
 8358 2a63 0D       		.byte	0xd
 8359 2a64 0A03     		.2byte	0x30a
 8360 2a66 4C       		.uleb128 0x4c
 8361 2a67 33120000 		.4byte	.LASF371
 8362 2a6b 33120000 		.4byte	.LASF371
 8363 2a6f 0D       		.byte	0xd
 8364 2a70 F602     		.2byte	0x2f6
 8365 2a72 4C       		.uleb128 0x4c
 8366 2a73 BC050000 		.4byte	.LASF372
 8367 2a77 BC050000 		.4byte	.LASF372
 8368 2a7b 0D       		.byte	0xd
 8369 2a7c 4004     		.2byte	0x440
 8370 2a7e 4C       		.uleb128 0x4c
 8371 2a7f 24050000 		.4byte	.LASF373
 8372 2a83 24050000 		.4byte	.LASF373
 8373 2a87 0D       		.byte	0xd
 8374 2a88 9503     		.2byte	0x395
 8375 2a8a 4C       		.uleb128 0x4c
 8376 2a8b D5160000 		.4byte	.LASF374
 8377 2a8f D5160000 		.4byte	.LASF374
 8378 2a93 0D       		.byte	0xd
 8379 2a94 B503     		.2byte	0x3b5
ARM GAS  /var/folders/3j/4xdnk5197cv_b7cw3n33qk7r0000gn/T//ccSq9Yz5.s 			page 148


 8380 2a96 4B       		.uleb128 0x4b
 8381 2a97 76160000 		.4byte	.LASF375
 8382 2a9b 76160000 		.4byte	.LASF375
 8383 2a9f 0E       		.byte	0xe
 8384 2aa0 2B       		.byte	0x2b
 8385 2aa1 4C       		.uleb128 0x4c
 8386 2aa2 CA090000 		.4byte	.LASF376
 8387 2aa6 CA090000 		.4byte	.LASF376
 8388 2aaa 0D       		.byte	0xd
 8389 2aab E406     		.2byte	0x6e4
 8390 2aad 00       		.byte	0
 8391              		.section	.debug_abbrev,"",%progbits
 8392              	.Ldebug_abbrev0:
 8393 0000 01       		.uleb128 0x1
 8394 0001 11       		.uleb128 0x11
 8395 0002 01       		.byte	0x1
 8396 0003 25       		.uleb128 0x25
 8397 0004 0E       		.uleb128 0xe
 8398 0005 13       		.uleb128 0x13
 8399 0006 0B       		.uleb128 0xb
 8400 0007 03       		.uleb128 0x3
 8401 0008 0E       		.uleb128 0xe
 8402 0009 1B       		.uleb128 0x1b
 8403 000a 0E       		.uleb128 0xe
 8404 000b 55       		.uleb128 0x55
 8405 000c 17       		.uleb128 0x17
 8406 000d 11       		.uleb128 0x11
 8407 000e 01       		.uleb128 0x1
 8408 000f 10       		.uleb128 0x10
 8409 0010 17       		.uleb128 0x17
 8410 0011 00       		.byte	0
 8411 0012 00       		.byte	0
 8412 0013 02       		.uleb128 0x2
 8413 0014 24       		.uleb128 0x24
 8414 0015 00       		.byte	0
 8415 0016 0B       		.uleb128 0xb
 8416 0017 0B       		.uleb128 0xb
 8417 0018 3E       		.uleb128 0x3e
 8418 0019 0B       		.uleb128 0xb
 8419 001a 03       		.uleb128 0x3
 8420 001b 0E       		.uleb128 0xe
 8421 001c 00       		.byte	0
 8422 001d 00       		.byte	0
 8423 001e 03       		.uleb128 0x3
 8424 001f 16       		.uleb128 0x16
 8425 0020 00       		.byte	0
 8426 0021 03       		.uleb128 0x3
 8427 0022 0E       		.uleb128 0xe
 8428 0023 3A       		.uleb128 0x3a
 8429 0024 0B       		.uleb128 0xb
 8430 0025 3B       		.uleb128 0x3b
 8431 0026 0B       		.uleb128 0xb
 8432 0027 49       		.uleb128 0x49
 8433 0028 13       		.uleb128 0x13
 8434 0029 00       		.byte	0
 8435 002a 00       		.byte	0
 8436 002b 04       		.uleb128 0x4
ARM GAS  /var/folders/3j/4xdnk5197cv_b7cw3n33qk7r0000gn/T//ccSq9Yz5.s 			page 149


 8437 002c 24       		.uleb128 0x24
 8438 002d 00       		.byte	0
 8439 002e 0B       		.uleb128 0xb
 8440 002f 0B       		.uleb128 0xb
 8441 0030 3E       		.uleb128 0x3e
 8442 0031 0B       		.uleb128 0xb
 8443 0032 03       		.uleb128 0x3
 8444 0033 08       		.uleb128 0x8
 8445 0034 00       		.byte	0
 8446 0035 00       		.byte	0
 8447 0036 05       		.uleb128 0x5
 8448 0037 26       		.uleb128 0x26
 8449 0038 00       		.byte	0
 8450 0039 49       		.uleb128 0x49
 8451 003a 13       		.uleb128 0x13
 8452 003b 00       		.byte	0
 8453 003c 00       		.byte	0
 8454 003d 06       		.uleb128 0x6
 8455 003e 01       		.uleb128 0x1
 8456 003f 01       		.byte	0x1
 8457 0040 49       		.uleb128 0x49
 8458 0041 13       		.uleb128 0x13
 8459 0042 01       		.uleb128 0x1
 8460 0043 13       		.uleb128 0x13
 8461 0044 00       		.byte	0
 8462 0045 00       		.byte	0
 8463 0046 07       		.uleb128 0x7
 8464 0047 21       		.uleb128 0x21
 8465 0048 00       		.byte	0
 8466 0049 49       		.uleb128 0x49
 8467 004a 13       		.uleb128 0x13
 8468 004b 2F       		.uleb128 0x2f
 8469 004c 0B       		.uleb128 0xb
 8470 004d 00       		.byte	0
 8471 004e 00       		.byte	0
 8472 004f 08       		.uleb128 0x8
 8473 0050 13       		.uleb128 0x13
 8474 0051 01       		.byte	0x1
 8475 0052 0B       		.uleb128 0xb
 8476 0053 0B       		.uleb128 0xb
 8477 0054 3A       		.uleb128 0x3a
 8478 0055 0B       		.uleb128 0xb
 8479 0056 3B       		.uleb128 0x3b
 8480 0057 0B       		.uleb128 0xb
 8481 0058 01       		.uleb128 0x1
 8482 0059 13       		.uleb128 0x13
 8483 005a 00       		.byte	0
 8484 005b 00       		.byte	0
 8485 005c 09       		.uleb128 0x9
 8486 005d 0D       		.uleb128 0xd
 8487 005e 00       		.byte	0
 8488 005f 03       		.uleb128 0x3
 8489 0060 0E       		.uleb128 0xe
 8490 0061 3A       		.uleb128 0x3a
 8491 0062 0B       		.uleb128 0xb
 8492 0063 3B       		.uleb128 0x3b
 8493 0064 0B       		.uleb128 0xb
ARM GAS  /var/folders/3j/4xdnk5197cv_b7cw3n33qk7r0000gn/T//ccSq9Yz5.s 			page 150


 8494 0065 49       		.uleb128 0x49
 8495 0066 13       		.uleb128 0x13
 8496 0067 38       		.uleb128 0x38
 8497 0068 0B       		.uleb128 0xb
 8498 0069 00       		.byte	0
 8499 006a 00       		.byte	0
 8500 006b 0A       		.uleb128 0xa
 8501 006c 0D       		.uleb128 0xd
 8502 006d 00       		.byte	0
 8503 006e 03       		.uleb128 0x3
 8504 006f 0E       		.uleb128 0xe
 8505 0070 3A       		.uleb128 0x3a
 8506 0071 0B       		.uleb128 0xb
 8507 0072 3B       		.uleb128 0x3b
 8508 0073 05       		.uleb128 0x5
 8509 0074 49       		.uleb128 0x49
 8510 0075 13       		.uleb128 0x13
 8511 0076 38       		.uleb128 0x38
 8512 0077 0B       		.uleb128 0xb
 8513 0078 00       		.byte	0
 8514 0079 00       		.byte	0
 8515 007a 0B       		.uleb128 0xb
 8516 007b 16       		.uleb128 0x16
 8517 007c 00       		.byte	0
 8518 007d 03       		.uleb128 0x3
 8519 007e 0E       		.uleb128 0xe
 8520 007f 3A       		.uleb128 0x3a
 8521 0080 0B       		.uleb128 0xb
 8522 0081 3B       		.uleb128 0x3b
 8523 0082 05       		.uleb128 0x5
 8524 0083 49       		.uleb128 0x49
 8525 0084 13       		.uleb128 0x13
 8526 0085 00       		.byte	0
 8527 0086 00       		.byte	0
 8528 0087 0C       		.uleb128 0xc
 8529 0088 13       		.uleb128 0x13
 8530 0089 01       		.byte	0x1
 8531 008a 0B       		.uleb128 0xb
 8532 008b 0B       		.uleb128 0xb
 8533 008c 3A       		.uleb128 0x3a
 8534 008d 0B       		.uleb128 0xb
 8535 008e 3B       		.uleb128 0x3b
 8536 008f 05       		.uleb128 0x5
 8537 0090 01       		.uleb128 0x1
 8538 0091 13       		.uleb128 0x13
 8539 0092 00       		.byte	0
 8540 0093 00       		.byte	0
 8541 0094 0D       		.uleb128 0xd
 8542 0095 13       		.uleb128 0x13
 8543 0096 01       		.byte	0x1
 8544 0097 0B       		.uleb128 0xb
 8545 0098 05       		.uleb128 0x5
 8546 0099 3A       		.uleb128 0x3a
 8547 009a 0B       		.uleb128 0xb
 8548 009b 3B       		.uleb128 0x3b
 8549 009c 05       		.uleb128 0x5
 8550 009d 01       		.uleb128 0x1
ARM GAS  /var/folders/3j/4xdnk5197cv_b7cw3n33qk7r0000gn/T//ccSq9Yz5.s 			page 151


 8551 009e 13       		.uleb128 0x13
 8552 009f 00       		.byte	0
 8553 00a0 00       		.byte	0
 8554 00a1 0E       		.uleb128 0xe
 8555 00a2 0D       		.uleb128 0xd
 8556 00a3 00       		.byte	0
 8557 00a4 03       		.uleb128 0x3
 8558 00a5 0E       		.uleb128 0xe
 8559 00a6 3A       		.uleb128 0x3a
 8560 00a7 0B       		.uleb128 0xb
 8561 00a8 3B       		.uleb128 0x3b
 8562 00a9 05       		.uleb128 0x5
 8563 00aa 49       		.uleb128 0x49
 8564 00ab 13       		.uleb128 0x13
 8565 00ac 38       		.uleb128 0x38
 8566 00ad 05       		.uleb128 0x5
 8567 00ae 00       		.byte	0
 8568 00af 00       		.byte	0
 8569 00b0 0F       		.uleb128 0xf
 8570 00b1 0F       		.uleb128 0xf
 8571 00b2 00       		.byte	0
 8572 00b3 0B       		.uleb128 0xb
 8573 00b4 0B       		.uleb128 0xb
 8574 00b5 49       		.uleb128 0x49
 8575 00b6 13       		.uleb128 0x13
 8576 00b7 00       		.byte	0
 8577 00b8 00       		.byte	0
 8578 00b9 10       		.uleb128 0x10
 8579 00ba 0F       		.uleb128 0xf
 8580 00bb 00       		.byte	0
 8581 00bc 0B       		.uleb128 0xb
 8582 00bd 0B       		.uleb128 0xb
 8583 00be 00       		.byte	0
 8584 00bf 00       		.byte	0
 8585 00c0 11       		.uleb128 0x11
 8586 00c1 13       		.uleb128 0x13
 8587 00c2 00       		.byte	0
 8588 00c3 03       		.uleb128 0x3
 8589 00c4 0E       		.uleb128 0xe
 8590 00c5 3C       		.uleb128 0x3c
 8591 00c6 19       		.uleb128 0x19
 8592 00c7 00       		.byte	0
 8593 00c8 00       		.byte	0
 8594 00c9 12       		.uleb128 0x12
 8595 00ca 17       		.uleb128 0x17
 8596 00cb 01       		.byte	0x1
 8597 00cc 0B       		.uleb128 0xb
 8598 00cd 0B       		.uleb128 0xb
 8599 00ce 3A       		.uleb128 0x3a
 8600 00cf 0B       		.uleb128 0xb
 8601 00d0 3B       		.uleb128 0x3b
 8602 00d1 0B       		.uleb128 0xb
 8603 00d2 01       		.uleb128 0x1
 8604 00d3 13       		.uleb128 0x13
 8605 00d4 00       		.byte	0
 8606 00d5 00       		.byte	0
 8607 00d6 13       		.uleb128 0x13
ARM GAS  /var/folders/3j/4xdnk5197cv_b7cw3n33qk7r0000gn/T//ccSq9Yz5.s 			page 152


 8608 00d7 0D       		.uleb128 0xd
 8609 00d8 00       		.byte	0
 8610 00d9 03       		.uleb128 0x3
 8611 00da 0E       		.uleb128 0xe
 8612 00db 3A       		.uleb128 0x3a
 8613 00dc 0B       		.uleb128 0xb
 8614 00dd 3B       		.uleb128 0x3b
 8615 00de 0B       		.uleb128 0xb
 8616 00df 49       		.uleb128 0x49
 8617 00e0 13       		.uleb128 0x13
 8618 00e1 00       		.byte	0
 8619 00e2 00       		.byte	0
 8620 00e3 14       		.uleb128 0x14
 8621 00e4 13       		.uleb128 0x13
 8622 00e5 01       		.byte	0x1
 8623 00e6 03       		.uleb128 0x3
 8624 00e7 0E       		.uleb128 0xe
 8625 00e8 0B       		.uleb128 0xb
 8626 00e9 0B       		.uleb128 0xb
 8627 00ea 3A       		.uleb128 0x3a
 8628 00eb 0B       		.uleb128 0xb
 8629 00ec 3B       		.uleb128 0x3b
 8630 00ed 0B       		.uleb128 0xb
 8631 00ee 01       		.uleb128 0x1
 8632 00ef 13       		.uleb128 0x13
 8633 00f0 00       		.byte	0
 8634 00f1 00       		.byte	0
 8635 00f2 15       		.uleb128 0x15
 8636 00f3 0D       		.uleb128 0xd
 8637 00f4 00       		.byte	0
 8638 00f5 03       		.uleb128 0x3
 8639 00f6 08       		.uleb128 0x8
 8640 00f7 3A       		.uleb128 0x3a
 8641 00f8 0B       		.uleb128 0xb
 8642 00f9 3B       		.uleb128 0x3b
 8643 00fa 0B       		.uleb128 0xb
 8644 00fb 49       		.uleb128 0x49
 8645 00fc 13       		.uleb128 0x13
 8646 00fd 38       		.uleb128 0x38
 8647 00fe 0B       		.uleb128 0xb
 8648 00ff 00       		.byte	0
 8649 0100 00       		.byte	0
 8650 0101 16       		.uleb128 0x16
 8651 0102 13       		.uleb128 0x13
 8652 0103 01       		.byte	0x1
 8653 0104 03       		.uleb128 0x3
 8654 0105 0E       		.uleb128 0xe
 8655 0106 0B       		.uleb128 0xb
 8656 0107 05       		.uleb128 0x5
 8657 0108 3A       		.uleb128 0x3a
 8658 0109 0B       		.uleb128 0xb
 8659 010a 3B       		.uleb128 0x3b
 8660 010b 0B       		.uleb128 0xb
 8661 010c 01       		.uleb128 0x1
 8662 010d 13       		.uleb128 0x13
 8663 010e 00       		.byte	0
 8664 010f 00       		.byte	0
ARM GAS  /var/folders/3j/4xdnk5197cv_b7cw3n33qk7r0000gn/T//ccSq9Yz5.s 			page 153


 8665 0110 17       		.uleb128 0x17
 8666 0111 0D       		.uleb128 0xd
 8667 0112 00       		.byte	0
 8668 0113 03       		.uleb128 0x3
 8669 0114 0E       		.uleb128 0xe
 8670 0115 3A       		.uleb128 0x3a
 8671 0116 0B       		.uleb128 0xb
 8672 0117 3B       		.uleb128 0x3b
 8673 0118 0B       		.uleb128 0xb
 8674 0119 49       		.uleb128 0x49
 8675 011a 13       		.uleb128 0x13
 8676 011b 38       		.uleb128 0x38
 8677 011c 05       		.uleb128 0x5
 8678 011d 00       		.byte	0
 8679 011e 00       		.byte	0
 8680 011f 18       		.uleb128 0x18
 8681 0120 15       		.uleb128 0x15
 8682 0121 00       		.byte	0
 8683 0122 27       		.uleb128 0x27
 8684 0123 19       		.uleb128 0x19
 8685 0124 00       		.byte	0
 8686 0125 00       		.byte	0
 8687 0126 19       		.uleb128 0x19
 8688 0127 15       		.uleb128 0x15
 8689 0128 01       		.byte	0x1
 8690 0129 27       		.uleb128 0x27
 8691 012a 19       		.uleb128 0x19
 8692 012b 49       		.uleb128 0x49
 8693 012c 13       		.uleb128 0x13
 8694 012d 01       		.uleb128 0x1
 8695 012e 13       		.uleb128 0x13
 8696 012f 00       		.byte	0
 8697 0130 00       		.byte	0
 8698 0131 1A       		.uleb128 0x1a
 8699 0132 05       		.uleb128 0x5
 8700 0133 00       		.byte	0
 8701 0134 49       		.uleb128 0x49
 8702 0135 13       		.uleb128 0x13
 8703 0136 00       		.byte	0
 8704 0137 00       		.byte	0
 8705 0138 1B       		.uleb128 0x1b
 8706 0139 13       		.uleb128 0x13
 8707 013a 01       		.byte	0x1
 8708 013b 03       		.uleb128 0x3
 8709 013c 0E       		.uleb128 0xe
 8710 013d 0B       		.uleb128 0xb
 8711 013e 05       		.uleb128 0x5
 8712 013f 3A       		.uleb128 0x3a
 8713 0140 0B       		.uleb128 0xb
 8714 0141 3B       		.uleb128 0x3b
 8715 0142 05       		.uleb128 0x5
 8716 0143 01       		.uleb128 0x1
 8717 0144 13       		.uleb128 0x13
 8718 0145 00       		.byte	0
 8719 0146 00       		.byte	0
 8720 0147 1C       		.uleb128 0x1c
 8721 0148 13       		.uleb128 0x13
ARM GAS  /var/folders/3j/4xdnk5197cv_b7cw3n33qk7r0000gn/T//ccSq9Yz5.s 			page 154


 8722 0149 01       		.byte	0x1
 8723 014a 03       		.uleb128 0x3
 8724 014b 0E       		.uleb128 0xe
 8725 014c 0B       		.uleb128 0xb
 8726 014d 0B       		.uleb128 0xb
 8727 014e 3A       		.uleb128 0x3a
 8728 014f 0B       		.uleb128 0xb
 8729 0150 3B       		.uleb128 0x3b
 8730 0151 05       		.uleb128 0x5
 8731 0152 01       		.uleb128 0x1
 8732 0153 13       		.uleb128 0x13
 8733 0154 00       		.byte	0
 8734 0155 00       		.byte	0
 8735 0156 1D       		.uleb128 0x1d
 8736 0157 17       		.uleb128 0x17
 8737 0158 01       		.byte	0x1
 8738 0159 0B       		.uleb128 0xb
 8739 015a 0B       		.uleb128 0xb
 8740 015b 3A       		.uleb128 0x3a
 8741 015c 0B       		.uleb128 0xb
 8742 015d 3B       		.uleb128 0x3b
 8743 015e 05       		.uleb128 0x5
 8744 015f 01       		.uleb128 0x1
 8745 0160 13       		.uleb128 0x13
 8746 0161 00       		.byte	0
 8747 0162 00       		.byte	0
 8748 0163 1E       		.uleb128 0x1e
 8749 0164 0D       		.uleb128 0xd
 8750 0165 00       		.byte	0
 8751 0166 03       		.uleb128 0x3
 8752 0167 0E       		.uleb128 0xe
 8753 0168 3A       		.uleb128 0x3a
 8754 0169 0B       		.uleb128 0xb
 8755 016a 3B       		.uleb128 0x3b
 8756 016b 05       		.uleb128 0x5
 8757 016c 49       		.uleb128 0x49
 8758 016d 13       		.uleb128 0x13
 8759 016e 00       		.byte	0
 8760 016f 00       		.byte	0
 8761 0170 1F       		.uleb128 0x1f
 8762 0171 15       		.uleb128 0x15
 8763 0172 01       		.byte	0x1
 8764 0173 27       		.uleb128 0x27
 8765 0174 19       		.uleb128 0x19
 8766 0175 01       		.uleb128 0x1
 8767 0176 13       		.uleb128 0x13
 8768 0177 00       		.byte	0
 8769 0178 00       		.byte	0
 8770 0179 20       		.uleb128 0x20
 8771 017a 34       		.uleb128 0x34
 8772 017b 00       		.byte	0
 8773 017c 03       		.uleb128 0x3
 8774 017d 0E       		.uleb128 0xe
 8775 017e 3A       		.uleb128 0x3a
 8776 017f 0B       		.uleb128 0xb
 8777 0180 3B       		.uleb128 0x3b
 8778 0181 05       		.uleb128 0x5
ARM GAS  /var/folders/3j/4xdnk5197cv_b7cw3n33qk7r0000gn/T//ccSq9Yz5.s 			page 155


 8779 0182 49       		.uleb128 0x49
 8780 0183 13       		.uleb128 0x13
 8781 0184 3F       		.uleb128 0x3f
 8782 0185 19       		.uleb128 0x19
 8783 0186 3C       		.uleb128 0x3c
 8784 0187 19       		.uleb128 0x19
 8785 0188 00       		.byte	0
 8786 0189 00       		.byte	0
 8787 018a 21       		.uleb128 0x21
 8788 018b 13       		.uleb128 0x13
 8789 018c 01       		.byte	0x1
 8790 018d 0B       		.uleb128 0xb
 8791 018e 05       		.uleb128 0x5
 8792 018f 3A       		.uleb128 0x3a
 8793 0190 0B       		.uleb128 0xb
 8794 0191 3B       		.uleb128 0x3b
 8795 0192 0B       		.uleb128 0xb
 8796 0193 01       		.uleb128 0x1
 8797 0194 13       		.uleb128 0x13
 8798 0195 00       		.byte	0
 8799 0196 00       		.byte	0
 8800 0197 22       		.uleb128 0x22
 8801 0198 34       		.uleb128 0x34
 8802 0199 00       		.byte	0
 8803 019a 03       		.uleb128 0x3
 8804 019b 0E       		.uleb128 0xe
 8805 019c 3A       		.uleb128 0x3a
 8806 019d 0B       		.uleb128 0xb
 8807 019e 3B       		.uleb128 0x3b
 8808 019f 0B       		.uleb128 0xb
 8809 01a0 49       		.uleb128 0x49
 8810 01a1 13       		.uleb128 0x13
 8811 01a2 3F       		.uleb128 0x3f
 8812 01a3 19       		.uleb128 0x19
 8813 01a4 3C       		.uleb128 0x3c
 8814 01a5 19       		.uleb128 0x19
 8815 01a6 00       		.byte	0
 8816 01a7 00       		.byte	0
 8817 01a8 23       		.uleb128 0x23
 8818 01a9 34       		.uleb128 0x34
 8819 01aa 00       		.byte	0
 8820 01ab 03       		.uleb128 0x3
 8821 01ac 0E       		.uleb128 0xe
 8822 01ad 3A       		.uleb128 0x3a
 8823 01ae 0B       		.uleb128 0xb
 8824 01af 3B       		.uleb128 0x3b
 8825 01b0 0B       		.uleb128 0xb
 8826 01b1 49       		.uleb128 0x49
 8827 01b2 13       		.uleb128 0x13
 8828 01b3 3F       		.uleb128 0x3f
 8829 01b4 19       		.uleb128 0x19
 8830 01b5 02       		.uleb128 0x2
 8831 01b6 18       		.uleb128 0x18
 8832 01b7 00       		.byte	0
 8833 01b8 00       		.byte	0
 8834 01b9 24       		.uleb128 0x24
 8835 01ba 2E       		.uleb128 0x2e
ARM GAS  /var/folders/3j/4xdnk5197cv_b7cw3n33qk7r0000gn/T//ccSq9Yz5.s 			page 156


 8836 01bb 01       		.byte	0x1
 8837 01bc 3F       		.uleb128 0x3f
 8838 01bd 19       		.uleb128 0x19
 8839 01be 03       		.uleb128 0x3
 8840 01bf 0E       		.uleb128 0xe
 8841 01c0 3A       		.uleb128 0x3a
 8842 01c1 0B       		.uleb128 0xb
 8843 01c2 3B       		.uleb128 0x3b
 8844 01c3 05       		.uleb128 0x5
 8845 01c4 27       		.uleb128 0x27
 8846 01c5 19       		.uleb128 0x19
 8847 01c6 49       		.uleb128 0x49
 8848 01c7 13       		.uleb128 0x13
 8849 01c8 11       		.uleb128 0x11
 8850 01c9 01       		.uleb128 0x1
 8851 01ca 12       		.uleb128 0x12
 8852 01cb 06       		.uleb128 0x6
 8853 01cc 40       		.uleb128 0x40
 8854 01cd 18       		.uleb128 0x18
 8855 01ce 9742     		.uleb128 0x2117
 8856 01d0 19       		.uleb128 0x19
 8857 01d1 01       		.uleb128 0x1
 8858 01d2 13       		.uleb128 0x13
 8859 01d3 00       		.byte	0
 8860 01d4 00       		.byte	0
 8861 01d5 25       		.uleb128 0x25
 8862 01d6 05       		.uleb128 0x5
 8863 01d7 00       		.byte	0
 8864 01d8 03       		.uleb128 0x3
 8865 01d9 08       		.uleb128 0x8
 8866 01da 3A       		.uleb128 0x3a
 8867 01db 0B       		.uleb128 0xb
 8868 01dc 3B       		.uleb128 0x3b
 8869 01dd 05       		.uleb128 0x5
 8870 01de 49       		.uleb128 0x49
 8871 01df 13       		.uleb128 0x13
 8872 01e0 02       		.uleb128 0x2
 8873 01e1 17       		.uleb128 0x17
 8874 01e2 00       		.byte	0
 8875 01e3 00       		.byte	0
 8876 01e4 26       		.uleb128 0x26
 8877 01e5 05       		.uleb128 0x5
 8878 01e6 00       		.byte	0
 8879 01e7 03       		.uleb128 0x3
 8880 01e8 0E       		.uleb128 0xe
 8881 01e9 3A       		.uleb128 0x3a
 8882 01ea 0B       		.uleb128 0xb
 8883 01eb 3B       		.uleb128 0x3b
 8884 01ec 05       		.uleb128 0x5
 8885 01ed 49       		.uleb128 0x49
 8886 01ee 13       		.uleb128 0x13
 8887 01ef 02       		.uleb128 0x2
 8888 01f0 17       		.uleb128 0x17
 8889 01f1 00       		.byte	0
 8890 01f2 00       		.byte	0
 8891 01f3 27       		.uleb128 0x27
 8892 01f4 34       		.uleb128 0x34
ARM GAS  /var/folders/3j/4xdnk5197cv_b7cw3n33qk7r0000gn/T//ccSq9Yz5.s 			page 157


 8893 01f5 00       		.byte	0
 8894 01f6 03       		.uleb128 0x3
 8895 01f7 0E       		.uleb128 0xe
 8896 01f8 3A       		.uleb128 0x3a
 8897 01f9 0B       		.uleb128 0xb
 8898 01fa 3B       		.uleb128 0x3b
 8899 01fb 05       		.uleb128 0x5
 8900 01fc 49       		.uleb128 0x49
 8901 01fd 13       		.uleb128 0x13
 8902 01fe 02       		.uleb128 0x2
 8903 01ff 17       		.uleb128 0x17
 8904 0200 00       		.byte	0
 8905 0201 00       		.byte	0
 8906 0202 28       		.uleb128 0x28
 8907 0203 34       		.uleb128 0x34
 8908 0204 00       		.byte	0
 8909 0205 03       		.uleb128 0x3
 8910 0206 0E       		.uleb128 0xe
 8911 0207 3A       		.uleb128 0x3a
 8912 0208 0B       		.uleb128 0xb
 8913 0209 3B       		.uleb128 0x3b
 8914 020a 05       		.uleb128 0x5
 8915 020b 49       		.uleb128 0x49
 8916 020c 13       		.uleb128 0x13
 8917 020d 1C       		.uleb128 0x1c
 8918 020e 0B       		.uleb128 0xb
 8919 020f 00       		.byte	0
 8920 0210 00       		.byte	0
 8921 0211 29       		.uleb128 0x29
 8922 0212 898201   		.uleb128 0x4109
 8923 0215 01       		.byte	0x1
 8924 0216 11       		.uleb128 0x11
 8925 0217 01       		.uleb128 0x1
 8926 0218 31       		.uleb128 0x31
 8927 0219 13       		.uleb128 0x13
 8928 021a 00       		.byte	0
 8929 021b 00       		.byte	0
 8930 021c 2A       		.uleb128 0x2a
 8931 021d 8A8201   		.uleb128 0x410a
 8932 0220 00       		.byte	0
 8933 0221 02       		.uleb128 0x2
 8934 0222 18       		.uleb128 0x18
 8935 0223 9142     		.uleb128 0x2111
 8936 0225 18       		.uleb128 0x18
 8937 0226 00       		.byte	0
 8938 0227 00       		.byte	0
 8939 0228 2B       		.uleb128 0x2b
 8940 0229 34       		.uleb128 0x34
 8941 022a 00       		.byte	0
 8942 022b 03       		.uleb128 0x3
 8943 022c 0E       		.uleb128 0xe
 8944 022d 3A       		.uleb128 0x3a
 8945 022e 0B       		.uleb128 0xb
 8946 022f 3B       		.uleb128 0x3b
 8947 0230 05       		.uleb128 0x5
 8948 0231 49       		.uleb128 0x49
 8949 0232 13       		.uleb128 0x13
ARM GAS  /var/folders/3j/4xdnk5197cv_b7cw3n33qk7r0000gn/T//ccSq9Yz5.s 			page 158


 8950 0233 02       		.uleb128 0x2
 8951 0234 18       		.uleb128 0x18
 8952 0235 00       		.byte	0
 8953 0236 00       		.byte	0
 8954 0237 2C       		.uleb128 0x2c
 8955 0238 898201   		.uleb128 0x4109
 8956 023b 01       		.byte	0x1
 8957 023c 11       		.uleb128 0x11
 8958 023d 01       		.uleb128 0x1
 8959 023e 31       		.uleb128 0x31
 8960 023f 13       		.uleb128 0x13
 8961 0240 01       		.uleb128 0x1
 8962 0241 13       		.uleb128 0x13
 8963 0242 00       		.byte	0
 8964 0243 00       		.byte	0
 8965 0244 2D       		.uleb128 0x2d
 8966 0245 05       		.uleb128 0x5
 8967 0246 00       		.byte	0
 8968 0247 03       		.uleb128 0x3
 8969 0248 0E       		.uleb128 0xe
 8970 0249 3A       		.uleb128 0x3a
 8971 024a 0B       		.uleb128 0xb
 8972 024b 3B       		.uleb128 0x3b
 8973 024c 05       		.uleb128 0x5
 8974 024d 49       		.uleb128 0x49
 8975 024e 13       		.uleb128 0x13
 8976 024f 02       		.uleb128 0x2
 8977 0250 18       		.uleb128 0x18
 8978 0251 00       		.byte	0
 8979 0252 00       		.byte	0
 8980 0253 2E       		.uleb128 0x2e
 8981 0254 2E       		.uleb128 0x2e
 8982 0255 01       		.byte	0x1
 8983 0256 3F       		.uleb128 0x3f
 8984 0257 19       		.uleb128 0x19
 8985 0258 03       		.uleb128 0x3
 8986 0259 0E       		.uleb128 0xe
 8987 025a 3A       		.uleb128 0x3a
 8988 025b 0B       		.uleb128 0xb
 8989 025c 3B       		.uleb128 0x3b
 8990 025d 05       		.uleb128 0x5
 8991 025e 27       		.uleb128 0x27
 8992 025f 19       		.uleb128 0x19
 8993 0260 49       		.uleb128 0x49
 8994 0261 13       		.uleb128 0x13
 8995 0262 20       		.uleb128 0x20
 8996 0263 0B       		.uleb128 0xb
 8997 0264 01       		.uleb128 0x1
 8998 0265 13       		.uleb128 0x13
 8999 0266 00       		.byte	0
 9000 0267 00       		.byte	0
 9001 0268 2F       		.uleb128 0x2f
 9002 0269 05       		.uleb128 0x5
 9003 026a 00       		.byte	0
 9004 026b 03       		.uleb128 0x3
 9005 026c 08       		.uleb128 0x8
 9006 026d 3A       		.uleb128 0x3a
ARM GAS  /var/folders/3j/4xdnk5197cv_b7cw3n33qk7r0000gn/T//ccSq9Yz5.s 			page 159


 9007 026e 0B       		.uleb128 0xb
 9008 026f 3B       		.uleb128 0x3b
 9009 0270 05       		.uleb128 0x5
 9010 0271 49       		.uleb128 0x49
 9011 0272 13       		.uleb128 0x13
 9012 0273 00       		.byte	0
 9013 0274 00       		.byte	0
 9014 0275 30       		.uleb128 0x30
 9015 0276 05       		.uleb128 0x5
 9016 0277 00       		.byte	0
 9017 0278 03       		.uleb128 0x3
 9018 0279 0E       		.uleb128 0xe
 9019 027a 3A       		.uleb128 0x3a
 9020 027b 0B       		.uleb128 0xb
 9021 027c 3B       		.uleb128 0x3b
 9022 027d 05       		.uleb128 0x5
 9023 027e 49       		.uleb128 0x49
 9024 027f 13       		.uleb128 0x13
 9025 0280 00       		.byte	0
 9026 0281 00       		.byte	0
 9027 0282 31       		.uleb128 0x31
 9028 0283 34       		.uleb128 0x34
 9029 0284 00       		.byte	0
 9030 0285 03       		.uleb128 0x3
 9031 0286 0E       		.uleb128 0xe
 9032 0287 3A       		.uleb128 0x3a
 9033 0288 0B       		.uleb128 0xb
 9034 0289 3B       		.uleb128 0x3b
 9035 028a 05       		.uleb128 0x5
 9036 028b 49       		.uleb128 0x49
 9037 028c 13       		.uleb128 0x13
 9038 028d 00       		.byte	0
 9039 028e 00       		.byte	0
 9040 028f 32       		.uleb128 0x32
 9041 0290 1D       		.uleb128 0x1d
 9042 0291 01       		.byte	0x1
 9043 0292 31       		.uleb128 0x31
 9044 0293 13       		.uleb128 0x13
 9045 0294 11       		.uleb128 0x11
 9046 0295 01       		.uleb128 0x1
 9047 0296 12       		.uleb128 0x12
 9048 0297 06       		.uleb128 0x6
 9049 0298 58       		.uleb128 0x58
 9050 0299 0B       		.uleb128 0xb
 9051 029a 59       		.uleb128 0x59
 9052 029b 05       		.uleb128 0x5
 9053 029c 01       		.uleb128 0x1
 9054 029d 13       		.uleb128 0x13
 9055 029e 00       		.byte	0
 9056 029f 00       		.byte	0
 9057 02a0 33       		.uleb128 0x33
 9058 02a1 05       		.uleb128 0x5
 9059 02a2 00       		.byte	0
 9060 02a3 31       		.uleb128 0x31
 9061 02a4 13       		.uleb128 0x13
 9062 02a5 02       		.uleb128 0x2
 9063 02a6 17       		.uleb128 0x17
ARM GAS  /var/folders/3j/4xdnk5197cv_b7cw3n33qk7r0000gn/T//ccSq9Yz5.s 			page 160


 9064 02a7 00       		.byte	0
 9065 02a8 00       		.byte	0
 9066 02a9 34       		.uleb128 0x34
 9067 02aa 0B       		.uleb128 0xb
 9068 02ab 01       		.byte	0x1
 9069 02ac 11       		.uleb128 0x11
 9070 02ad 01       		.uleb128 0x1
 9071 02ae 12       		.uleb128 0x12
 9072 02af 06       		.uleb128 0x6
 9073 02b0 00       		.byte	0
 9074 02b1 00       		.byte	0
 9075 02b2 35       		.uleb128 0x35
 9076 02b3 34       		.uleb128 0x34
 9077 02b4 00       		.byte	0
 9078 02b5 31       		.uleb128 0x31
 9079 02b6 13       		.uleb128 0x13
 9080 02b7 02       		.uleb128 0x2
 9081 02b8 18       		.uleb128 0x18
 9082 02b9 00       		.byte	0
 9083 02ba 00       		.byte	0
 9084 02bb 36       		.uleb128 0x36
 9085 02bc 34       		.uleb128 0x34
 9086 02bd 00       		.byte	0
 9087 02be 03       		.uleb128 0x3
 9088 02bf 0E       		.uleb128 0xe
 9089 02c0 3A       		.uleb128 0x3a
 9090 02c1 0B       		.uleb128 0xb
 9091 02c2 3B       		.uleb128 0x3b
 9092 02c3 05       		.uleb128 0x5
 9093 02c4 49       		.uleb128 0x49
 9094 02c5 13       		.uleb128 0x13
 9095 02c6 1C       		.uleb128 0x1c
 9096 02c7 0D       		.uleb128 0xd
 9097 02c8 00       		.byte	0
 9098 02c9 00       		.byte	0
 9099 02ca 37       		.uleb128 0x37
 9100 02cb 1D       		.uleb128 0x1d
 9101 02cc 01       		.byte	0x1
 9102 02cd 31       		.uleb128 0x31
 9103 02ce 13       		.uleb128 0x13
 9104 02cf 52       		.uleb128 0x52
 9105 02d0 01       		.uleb128 0x1
 9106 02d1 55       		.uleb128 0x55
 9107 02d2 17       		.uleb128 0x17
 9108 02d3 58       		.uleb128 0x58
 9109 02d4 0B       		.uleb128 0xb
 9110 02d5 59       		.uleb128 0x59
 9111 02d6 05       		.uleb128 0x5
 9112 02d7 01       		.uleb128 0x1
 9113 02d8 13       		.uleb128 0x13
 9114 02d9 00       		.byte	0
 9115 02da 00       		.byte	0
 9116 02db 38       		.uleb128 0x38
 9117 02dc 0B       		.uleb128 0xb
 9118 02dd 01       		.byte	0x1
 9119 02de 55       		.uleb128 0x55
 9120 02df 17       		.uleb128 0x17
ARM GAS  /var/folders/3j/4xdnk5197cv_b7cw3n33qk7r0000gn/T//ccSq9Yz5.s 			page 161


 9121 02e0 00       		.byte	0
 9122 02e1 00       		.byte	0
 9123 02e2 39       		.uleb128 0x39
 9124 02e3 34       		.uleb128 0x34
 9125 02e4 00       		.byte	0
 9126 02e5 31       		.uleb128 0x31
 9127 02e6 13       		.uleb128 0x13
 9128 02e7 00       		.byte	0
 9129 02e8 00       		.byte	0
 9130 02e9 3A       		.uleb128 0x3a
 9131 02ea 05       		.uleb128 0x5
 9132 02eb 00       		.byte	0
 9133 02ec 31       		.uleb128 0x31
 9134 02ed 13       		.uleb128 0x13
 9135 02ee 00       		.byte	0
 9136 02ef 00       		.byte	0
 9137 02f0 3B       		.uleb128 0x3b
 9138 02f1 34       		.uleb128 0x34
 9139 02f2 00       		.byte	0
 9140 02f3 03       		.uleb128 0x3
 9141 02f4 08       		.uleb128 0x8
 9142 02f5 3A       		.uleb128 0x3a
 9143 02f6 0B       		.uleb128 0xb
 9144 02f7 3B       		.uleb128 0x3b
 9145 02f8 05       		.uleb128 0x5
 9146 02f9 49       		.uleb128 0x49
 9147 02fa 13       		.uleb128 0x13
 9148 02fb 02       		.uleb128 0x2
 9149 02fc 17       		.uleb128 0x17
 9150 02fd 00       		.byte	0
 9151 02fe 00       		.byte	0
 9152 02ff 3C       		.uleb128 0x3c
 9153 0300 2E       		.uleb128 0x2e
 9154 0301 01       		.byte	0x1
 9155 0302 3F       		.uleb128 0x3f
 9156 0303 19       		.uleb128 0x19
 9157 0304 03       		.uleb128 0x3
 9158 0305 0E       		.uleb128 0xe
 9159 0306 3A       		.uleb128 0x3a
 9160 0307 0B       		.uleb128 0xb
 9161 0308 3B       		.uleb128 0x3b
 9162 0309 05       		.uleb128 0x5
 9163 030a 27       		.uleb128 0x27
 9164 030b 19       		.uleb128 0x19
 9165 030c 11       		.uleb128 0x11
 9166 030d 01       		.uleb128 0x1
 9167 030e 12       		.uleb128 0x12
 9168 030f 06       		.uleb128 0x6
 9169 0310 40       		.uleb128 0x40
 9170 0311 18       		.uleb128 0x18
 9171 0312 9742     		.uleb128 0x2117
 9172 0314 19       		.uleb128 0x19
 9173 0315 01       		.uleb128 0x1
 9174 0316 13       		.uleb128 0x13
 9175 0317 00       		.byte	0
 9176 0318 00       		.byte	0
 9177 0319 3D       		.uleb128 0x3d
ARM GAS  /var/folders/3j/4xdnk5197cv_b7cw3n33qk7r0000gn/T//ccSq9Yz5.s 			page 162


 9178 031a 34       		.uleb128 0x34
 9179 031b 00       		.byte	0
 9180 031c 03       		.uleb128 0x3
 9181 031d 0E       		.uleb128 0xe
 9182 031e 3A       		.uleb128 0x3a
 9183 031f 0B       		.uleb128 0xb
 9184 0320 3B       		.uleb128 0x3b
 9185 0321 05       		.uleb128 0x5
 9186 0322 49       		.uleb128 0x49
 9187 0323 13       		.uleb128 0x13
 9188 0324 1C       		.uleb128 0x1c
 9189 0325 05       		.uleb128 0x5
 9190 0326 00       		.byte	0
 9191 0327 00       		.byte	0
 9192 0328 3E       		.uleb128 0x3e
 9193 0329 34       		.uleb128 0x34
 9194 032a 00       		.byte	0
 9195 032b 03       		.uleb128 0x3
 9196 032c 0E       		.uleb128 0xe
 9197 032d 3A       		.uleb128 0x3a
 9198 032e 0B       		.uleb128 0xb
 9199 032f 3B       		.uleb128 0x3b
 9200 0330 05       		.uleb128 0x5
 9201 0331 49       		.uleb128 0x49
 9202 0332 13       		.uleb128 0x13
 9203 0333 1C       		.uleb128 0x1c
 9204 0334 06       		.uleb128 0x6
 9205 0335 00       		.byte	0
 9206 0336 00       		.byte	0
 9207 0337 3F       		.uleb128 0x3f
 9208 0338 898201   		.uleb128 0x4109
 9209 033b 01       		.byte	0x1
 9210 033c 11       		.uleb128 0x11
 9211 033d 01       		.uleb128 0x1
 9212 033e 9542     		.uleb128 0x2115
 9213 0340 19       		.uleb128 0x19
 9214 0341 31       		.uleb128 0x31
 9215 0342 13       		.uleb128 0x13
 9216 0343 01       		.uleb128 0x1
 9217 0344 13       		.uleb128 0x13
 9218 0345 00       		.byte	0
 9219 0346 00       		.byte	0
 9220 0347 40       		.uleb128 0x40
 9221 0348 898201   		.uleb128 0x4109
 9222 034b 01       		.byte	0x1
 9223 034c 11       		.uleb128 0x11
 9224 034d 01       		.uleb128 0x1
 9225 034e 9542     		.uleb128 0x2115
 9226 0350 19       		.uleb128 0x19
 9227 0351 31       		.uleb128 0x31
 9228 0352 13       		.uleb128 0x13
 9229 0353 00       		.byte	0
 9230 0354 00       		.byte	0
 9231 0355 41       		.uleb128 0x41
 9232 0356 2E       		.uleb128 0x2e
 9233 0357 01       		.byte	0x1
 9234 0358 3F       		.uleb128 0x3f
ARM GAS  /var/folders/3j/4xdnk5197cv_b7cw3n33qk7r0000gn/T//ccSq9Yz5.s 			page 163


 9235 0359 19       		.uleb128 0x19
 9236 035a 03       		.uleb128 0x3
 9237 035b 0E       		.uleb128 0xe
 9238 035c 3A       		.uleb128 0x3a
 9239 035d 0B       		.uleb128 0xb
 9240 035e 3B       		.uleb128 0x3b
 9241 035f 0B       		.uleb128 0xb
 9242 0360 27       		.uleb128 0x27
 9243 0361 19       		.uleb128 0x19
 9244 0362 49       		.uleb128 0x49
 9245 0363 13       		.uleb128 0x13
 9246 0364 11       		.uleb128 0x11
 9247 0365 01       		.uleb128 0x1
 9248 0366 12       		.uleb128 0x12
 9249 0367 06       		.uleb128 0x6
 9250 0368 40       		.uleb128 0x40
 9251 0369 18       		.uleb128 0x18
 9252 036a 9642     		.uleb128 0x2116
 9253 036c 19       		.uleb128 0x19
 9254 036d 01       		.uleb128 0x1
 9255 036e 13       		.uleb128 0x13
 9256 036f 00       		.byte	0
 9257 0370 00       		.byte	0
 9258 0371 42       		.uleb128 0x42
 9259 0372 05       		.uleb128 0x5
 9260 0373 00       		.byte	0
 9261 0374 03       		.uleb128 0x3
 9262 0375 08       		.uleb128 0x8
 9263 0376 3A       		.uleb128 0x3a
 9264 0377 0B       		.uleb128 0xb
 9265 0378 3B       		.uleb128 0x3b
 9266 0379 0B       		.uleb128 0xb
 9267 037a 49       		.uleb128 0x49
 9268 037b 13       		.uleb128 0x13
 9269 037c 02       		.uleb128 0x2
 9270 037d 17       		.uleb128 0x17
 9271 037e 00       		.byte	0
 9272 037f 00       		.byte	0
 9273 0380 43       		.uleb128 0x43
 9274 0381 05       		.uleb128 0x5
 9275 0382 00       		.byte	0
 9276 0383 03       		.uleb128 0x3
 9277 0384 0E       		.uleb128 0xe
 9278 0385 3A       		.uleb128 0x3a
 9279 0386 0B       		.uleb128 0xb
 9280 0387 3B       		.uleb128 0x3b
 9281 0388 0B       		.uleb128 0xb
 9282 0389 49       		.uleb128 0x49
 9283 038a 13       		.uleb128 0x13
 9284 038b 02       		.uleb128 0x2
 9285 038c 17       		.uleb128 0x17
 9286 038d 00       		.byte	0
 9287 038e 00       		.byte	0
 9288 038f 44       		.uleb128 0x44
 9289 0390 34       		.uleb128 0x34
 9290 0391 00       		.byte	0
 9291 0392 03       		.uleb128 0x3
ARM GAS  /var/folders/3j/4xdnk5197cv_b7cw3n33qk7r0000gn/T//ccSq9Yz5.s 			page 164


 9292 0393 0E       		.uleb128 0xe
 9293 0394 3A       		.uleb128 0x3a
 9294 0395 0B       		.uleb128 0xb
 9295 0396 3B       		.uleb128 0x3b
 9296 0397 0B       		.uleb128 0xb
 9297 0398 49       		.uleb128 0x49
 9298 0399 13       		.uleb128 0x13
 9299 039a 02       		.uleb128 0x2
 9300 039b 17       		.uleb128 0x17
 9301 039c 00       		.byte	0
 9302 039d 00       		.byte	0
 9303 039e 45       		.uleb128 0x45
 9304 039f 34       		.uleb128 0x34
 9305 03a0 00       		.byte	0
 9306 03a1 03       		.uleb128 0x3
 9307 03a2 0E       		.uleb128 0xe
 9308 03a3 3A       		.uleb128 0x3a
 9309 03a4 0B       		.uleb128 0xb
 9310 03a5 3B       		.uleb128 0x3b
 9311 03a6 0B       		.uleb128 0xb
 9312 03a7 49       		.uleb128 0x49
 9313 03a8 13       		.uleb128 0x13
 9314 03a9 02       		.uleb128 0x2
 9315 03aa 18       		.uleb128 0x18
 9316 03ab 00       		.byte	0
 9317 03ac 00       		.byte	0
 9318 03ad 46       		.uleb128 0x46
 9319 03ae 2E       		.uleb128 0x2e
 9320 03af 01       		.byte	0x1
 9321 03b0 31       		.uleb128 0x31
 9322 03b1 13       		.uleb128 0x13
 9323 03b2 11       		.uleb128 0x11
 9324 03b3 01       		.uleb128 0x1
 9325 03b4 12       		.uleb128 0x12
 9326 03b5 06       		.uleb128 0x6
 9327 03b6 40       		.uleb128 0x40
 9328 03b7 18       		.uleb128 0x18
 9329 03b8 9742     		.uleb128 0x2117
 9330 03ba 19       		.uleb128 0x19
 9331 03bb 01       		.uleb128 0x1
 9332 03bc 13       		.uleb128 0x13
 9333 03bd 00       		.byte	0
 9334 03be 00       		.byte	0
 9335 03bf 47       		.uleb128 0x47
 9336 03c0 34       		.uleb128 0x34
 9337 03c1 00       		.byte	0
 9338 03c2 31       		.uleb128 0x31
 9339 03c3 13       		.uleb128 0x13
 9340 03c4 02       		.uleb128 0x2
 9341 03c5 17       		.uleb128 0x17
 9342 03c6 00       		.byte	0
 9343 03c7 00       		.byte	0
 9344 03c8 48       		.uleb128 0x48
 9345 03c9 05       		.uleb128 0x5
 9346 03ca 00       		.byte	0
 9347 03cb 31       		.uleb128 0x31
 9348 03cc 13       		.uleb128 0x13
ARM GAS  /var/folders/3j/4xdnk5197cv_b7cw3n33qk7r0000gn/T//ccSq9Yz5.s 			page 165


 9349 03cd 02       		.uleb128 0x2
 9350 03ce 18       		.uleb128 0x18
 9351 03cf 00       		.byte	0
 9352 03d0 00       		.byte	0
 9353 03d1 49       		.uleb128 0x49
 9354 03d2 34       		.uleb128 0x34
 9355 03d3 00       		.byte	0
 9356 03d4 31       		.uleb128 0x31
 9357 03d5 13       		.uleb128 0x13
 9358 03d6 1C       		.uleb128 0x1c
 9359 03d7 0B       		.uleb128 0xb
 9360 03d8 00       		.byte	0
 9361 03d9 00       		.byte	0
 9362 03da 4A       		.uleb128 0x4a
 9363 03db 0B       		.uleb128 0xb
 9364 03dc 01       		.byte	0x1
 9365 03dd 31       		.uleb128 0x31
 9366 03de 13       		.uleb128 0x13
 9367 03df 55       		.uleb128 0x55
 9368 03e0 17       		.uleb128 0x17
 9369 03e1 01       		.uleb128 0x1
 9370 03e2 13       		.uleb128 0x13
 9371 03e3 00       		.byte	0
 9372 03e4 00       		.byte	0
 9373 03e5 4B       		.uleb128 0x4b
 9374 03e6 2E       		.uleb128 0x2e
 9375 03e7 00       		.byte	0
 9376 03e8 3F       		.uleb128 0x3f
 9377 03e9 19       		.uleb128 0x19
 9378 03ea 3C       		.uleb128 0x3c
 9379 03eb 19       		.uleb128 0x19
 9380 03ec 6E       		.uleb128 0x6e
 9381 03ed 0E       		.uleb128 0xe
 9382 03ee 03       		.uleb128 0x3
 9383 03ef 0E       		.uleb128 0xe
 9384 03f0 3A       		.uleb128 0x3a
 9385 03f1 0B       		.uleb128 0xb
 9386 03f2 3B       		.uleb128 0x3b
 9387 03f3 0B       		.uleb128 0xb
 9388 03f4 00       		.byte	0
 9389 03f5 00       		.byte	0
 9390 03f6 4C       		.uleb128 0x4c
 9391 03f7 2E       		.uleb128 0x2e
 9392 03f8 00       		.byte	0
 9393 03f9 3F       		.uleb128 0x3f
 9394 03fa 19       		.uleb128 0x19
 9395 03fb 3C       		.uleb128 0x3c
 9396 03fc 19       		.uleb128 0x19
 9397 03fd 6E       		.uleb128 0x6e
 9398 03fe 0E       		.uleb128 0xe
 9399 03ff 03       		.uleb128 0x3
 9400 0400 0E       		.uleb128 0xe
 9401 0401 3A       		.uleb128 0x3a
 9402 0402 0B       		.uleb128 0xb
 9403 0403 3B       		.uleb128 0x3b
 9404 0404 05       		.uleb128 0x5
 9405 0405 00       		.byte	0
ARM GAS  /var/folders/3j/4xdnk5197cv_b7cw3n33qk7r0000gn/T//ccSq9Yz5.s 			page 166


 9406 0406 00       		.byte	0
 9407 0407 00       		.byte	0
 9408              		.section	.debug_loc,"",%progbits
 9409              	.Ldebug_loc0:
 9410              	.LLST142:
 9411 0000 00000000 		.4byte	.LVL376
 9412 0004 27000000 		.4byte	.LVL379-1
 9413 0008 0100     		.2byte	0x1
 9414 000a 50       		.byte	0x50
 9415 000b 27000000 		.4byte	.LVL379-1
 9416 000f 30000000 		.4byte	.LFE25
 9417 0013 0400     		.2byte	0x4
 9418 0015 F3       		.byte	0xf3
 9419 0016 01       		.uleb128 0x1
 9420 0017 50       		.byte	0x50
 9421 0018 9F       		.byte	0x9f
 9422 0019 00000000 		.4byte	0
 9423 001d 00000000 		.4byte	0
 9424              	.LLST143:
 9425 0021 00000000 		.4byte	.LVL376
 9426 0025 20000000 		.4byte	.LVL377
 9427 0029 0100     		.2byte	0x1
 9428 002b 51       		.byte	0x51
 9429 002c 20000000 		.4byte	.LVL377
 9430 0030 27000000 		.4byte	.LVL379-1
 9431 0034 0200     		.2byte	0x2
 9432 0036 7D       		.byte	0x7d
 9433 0037 00       		.sleb128 0
 9434 0038 27000000 		.4byte	.LVL379-1
 9435 003c 30000000 		.4byte	.LFE25
 9436 0040 0400     		.2byte	0x4
 9437 0042 F3       		.byte	0xf3
 9438 0043 01       		.uleb128 0x1
 9439 0044 51       		.byte	0x51
 9440 0045 9F       		.byte	0x9f
 9441 0046 00000000 		.4byte	0
 9442 004a 00000000 		.4byte	0
 9443              	.LLST144:
 9444 004e 00000000 		.4byte	.LVL376
 9445 0052 24000000 		.4byte	.LVL378
 9446 0056 0100     		.2byte	0x1
 9447 0058 52       		.byte	0x52
 9448 0059 24000000 		.4byte	.LVL378
 9449 005d 27000000 		.4byte	.LVL379-1
 9450 0061 0200     		.2byte	0x2
 9451 0063 91       		.byte	0x91
 9452 0064 64       		.sleb128 -28
 9453 0065 27000000 		.4byte	.LVL379-1
 9454 0069 30000000 		.4byte	.LFE25
 9455 006d 0400     		.2byte	0x4
 9456 006f F3       		.byte	0xf3
 9457 0070 01       		.uleb128 0x1
 9458 0071 52       		.byte	0x52
 9459 0072 9F       		.byte	0x9f
 9460 0073 00000000 		.4byte	0
 9461 0077 00000000 		.4byte	0
 9462              	.LLST145:
ARM GAS  /var/folders/3j/4xdnk5197cv_b7cw3n33qk7r0000gn/T//ccSq9Yz5.s 			page 167


 9463 007b 00000000 		.4byte	.LVL376
 9464 007f 28000000 		.4byte	.LVL379
 9465 0083 0200     		.2byte	0x2
 9466 0085 30       		.byte	0x30
 9467 0086 9F       		.byte	0x9f
 9468 0087 28000000 		.4byte	.LVL379
 9469 008b 30000000 		.4byte	.LFE25
 9470 008f 0100     		.2byte	0x1
 9471 0091 50       		.byte	0x50
 9472 0092 00000000 		.4byte	0
 9473 0096 00000000 		.4byte	0
 9474              	.LLST138:
 9475 009a 00000000 		.4byte	.LVL372
 9476 009e 2F000000 		.4byte	.LVL375-1
 9477 00a2 0100     		.2byte	0x1
 9478 00a4 50       		.byte	0x50
 9479 00a5 2F000000 		.4byte	.LVL375-1
 9480 00a9 38000000 		.4byte	.LFE24
 9481 00ad 0400     		.2byte	0x4
 9482 00af F3       		.byte	0xf3
 9483 00b0 01       		.uleb128 0x1
 9484 00b1 50       		.byte	0x50
 9485 00b2 9F       		.byte	0x9f
 9486 00b3 00000000 		.4byte	0
 9487 00b7 00000000 		.4byte	0
 9488              	.LLST139:
 9489 00bb 00000000 		.4byte	.LVL372
 9490 00bf 2C000000 		.4byte	.LVL374
 9491 00c3 0100     		.2byte	0x1
 9492 00c5 51       		.byte	0x51
 9493 00c6 2C000000 		.4byte	.LVL374
 9494 00ca 38000000 		.4byte	.LFE24
 9495 00ce 0400     		.2byte	0x4
 9496 00d0 F3       		.byte	0xf3
 9497 00d1 01       		.uleb128 0x1
 9498 00d2 51       		.byte	0x51
 9499 00d3 9F       		.byte	0x9f
 9500 00d4 00000000 		.4byte	0
 9501 00d8 00000000 		.4byte	0
 9502              	.LLST140:
 9503 00dc 00000000 		.4byte	.LVL372
 9504 00e0 20000000 		.4byte	.LVL373
 9505 00e4 0100     		.2byte	0x1
 9506 00e6 52       		.byte	0x52
 9507 00e7 20000000 		.4byte	.LVL373
 9508 00eb 38000000 		.4byte	.LFE24
 9509 00ef 0400     		.2byte	0x4
 9510 00f1 F3       		.byte	0xf3
 9511 00f2 01       		.uleb128 0x1
 9512 00f3 52       		.byte	0x52
 9513 00f4 9F       		.byte	0x9f
 9514 00f5 00000000 		.4byte	0
 9515 00f9 00000000 		.4byte	0
 9516              	.LLST141:
 9517 00fd 00000000 		.4byte	.LVL372
 9518 0101 30000000 		.4byte	.LVL375
 9519 0105 0200     		.2byte	0x2
ARM GAS  /var/folders/3j/4xdnk5197cv_b7cw3n33qk7r0000gn/T//ccSq9Yz5.s 			page 168


 9520 0107 30       		.byte	0x30
 9521 0108 9F       		.byte	0x9f
 9522 0109 30000000 		.4byte	.LVL375
 9523 010d 38000000 		.4byte	.LFE24
 9524 0111 0100     		.2byte	0x1
 9525 0113 50       		.byte	0x50
 9526 0114 00000000 		.4byte	0
 9527 0118 00000000 		.4byte	0
 9528              	.LLST115:
 9529 011c 00000000 		.4byte	.LVL299
 9530 0120 1F000000 		.4byte	.LVL303-1
 9531 0124 0100     		.2byte	0x1
 9532 0126 50       		.byte	0x50
 9533 0127 1F000000 		.4byte	.LVL303-1
 9534 012b 60000000 		.4byte	.LFE23
 9535 012f 0100     		.2byte	0x1
 9536 0131 54       		.byte	0x54
 9537 0132 00000000 		.4byte	0
 9538 0136 00000000 		.4byte	0
 9539              	.LLST116:
 9540 013a 00000000 		.4byte	.LVL299
 9541 013e 1F000000 		.4byte	.LVL303-1
 9542 0142 0100     		.2byte	0x1
 9543 0144 51       		.byte	0x51
 9544 0145 1F000000 		.4byte	.LVL303-1
 9545 0149 60000000 		.4byte	.LFE23
 9546 014d 0400     		.2byte	0x4
 9547 014f F3       		.byte	0xf3
 9548 0150 01       		.uleb128 0x1
 9549 0151 51       		.byte	0x51
 9550 0152 9F       		.byte	0x9f
 9551 0153 00000000 		.4byte	0
 9552 0157 00000000 		.4byte	0
 9553              	.LLST117:
 9554 015b 00000000 		.4byte	.LVL299
 9555 015f 14000000 		.4byte	.LVL301
 9556 0163 0100     		.2byte	0x1
 9557 0165 52       		.byte	0x52
 9558 0166 14000000 		.4byte	.LVL301
 9559 016a 60000000 		.4byte	.LFE23
 9560 016e 0100     		.2byte	0x1
 9561 0170 57       		.byte	0x57
 9562 0171 00000000 		.4byte	0
 9563 0175 00000000 		.4byte	0
 9564              	.LLST118:
 9565 0179 00000000 		.4byte	.LVL299
 9566 017d 10000000 		.4byte	.LVL300
 9567 0181 0100     		.2byte	0x1
 9568 0183 53       		.byte	0x53
 9569 0184 10000000 		.4byte	.LVL300
 9570 0188 60000000 		.4byte	.LFE23
 9571 018c 0400     		.2byte	0x4
 9572 018e F3       		.byte	0xf3
 9573 018f 01       		.uleb128 0x1
 9574 0190 53       		.byte	0x53
 9575 0191 9F       		.byte	0x9f
 9576 0192 00000000 		.4byte	0
ARM GAS  /var/folders/3j/4xdnk5197cv_b7cw3n33qk7r0000gn/T//ccSq9Yz5.s 			page 169


 9577 0196 00000000 		.4byte	0
 9578              	.LLST119:
 9579 019a 00000000 		.4byte	.LVL299
 9580 019e 20000000 		.4byte	.LVL303
 9581 01a2 0200     		.2byte	0x2
 9582 01a4 30       		.byte	0x30
 9583 01a5 9F       		.byte	0x9f
 9584 01a6 20000000 		.4byte	.LVL303
 9585 01aa 24000000 		.4byte	.LVL304
 9586 01ae 0100     		.2byte	0x1
 9587 01b0 50       		.byte	0x50
 9588 01b1 3C000000 		.4byte	.LVL305
 9589 01b5 40000000 		.4byte	.LVL306
 9590 01b9 0100     		.2byte	0x1
 9591 01bb 50       		.byte	0x50
 9592 01bc 54000000 		.4byte	.LVL307
 9593 01c0 58000000 		.4byte	.LVL308
 9594 01c4 0100     		.2byte	0x1
 9595 01c6 50       		.byte	0x50
 9596 01c7 5C000000 		.4byte	.LVL309
 9597 01cb 60000000 		.4byte	.LFE23
 9598 01cf 0100     		.2byte	0x1
 9599 01d1 50       		.byte	0x50
 9600 01d2 00000000 		.4byte	0
 9601 01d6 00000000 		.4byte	0
 9602              	.LLST120:
 9603 01da 00000000 		.4byte	.LVL299
 9604 01de 1C000000 		.4byte	.LVL302
 9605 01e2 0200     		.2byte	0x2
 9606 01e4 30       		.byte	0x30
 9607 01e5 9F       		.byte	0x9f
 9608 01e6 1C000000 		.4byte	.LVL302
 9609 01ea 60000000 		.4byte	.LFE23
 9610 01ee 0100     		.2byte	0x1
 9611 01f0 56       		.byte	0x56
 9612 01f1 00000000 		.4byte	0
 9613 01f5 00000000 		.4byte	0
 9614              	.LLST109:
 9615 01f9 00000000 		.4byte	.LVL283
 9616 01fd 2B000000 		.4byte	.LVL288-1
 9617 0201 0100     		.2byte	0x1
 9618 0203 50       		.byte	0x50
 9619 0204 2B000000 		.4byte	.LVL288-1
 9620 0208 B8000000 		.4byte	.LFE22
 9621 020c 0100     		.2byte	0x1
 9622 020e 55       		.byte	0x55
 9623 020f 00000000 		.4byte	0
 9624 0213 00000000 		.4byte	0
 9625              	.LLST110:
 9626 0217 00000000 		.4byte	.LVL283
 9627 021b 18000000 		.4byte	.LVL284
 9628 021f 0100     		.2byte	0x1
 9629 0221 51       		.byte	0x51
 9630 0222 18000000 		.4byte	.LVL284
 9631 0226 B8000000 		.4byte	.LFE22
 9632 022a 0100     		.2byte	0x1
 9633 022c 56       		.byte	0x56
ARM GAS  /var/folders/3j/4xdnk5197cv_b7cw3n33qk7r0000gn/T//ccSq9Yz5.s 			page 170


 9634 022d 00000000 		.4byte	0
 9635 0231 00000000 		.4byte	0
 9636              	.LLST111:
 9637 0235 00000000 		.4byte	.LVL283
 9638 0239 1C000000 		.4byte	.LVL285
 9639 023d 0100     		.2byte	0x1
 9640 023f 52       		.byte	0x52
 9641 0240 1C000000 		.4byte	.LVL285
 9642 0244 B8000000 		.4byte	.LFE22
 9643 0248 0400     		.2byte	0x4
 9644 024a F3       		.byte	0xf3
 9645 024b 01       		.uleb128 0x1
 9646 024c 52       		.byte	0x52
 9647 024d 9F       		.byte	0x9f
 9648 024e 00000000 		.4byte	0
 9649 0252 00000000 		.4byte	0
 9650              	.LLST112:
 9651 0256 00000000 		.4byte	.LVL283
 9652 025a 2B000000 		.4byte	.LVL288-1
 9653 025e 0100     		.2byte	0x1
 9654 0260 53       		.byte	0x53
 9655 0261 2B000000 		.4byte	.LVL288-1
 9656 0265 B8000000 		.4byte	.LFE22
 9657 0269 0400     		.2byte	0x4
 9658 026b F3       		.byte	0xf3
 9659 026c 01       		.uleb128 0x1
 9660 026d 53       		.byte	0x53
 9661 026e 9F       		.byte	0x9f
 9662 026f 00000000 		.4byte	0
 9663 0273 00000000 		.4byte	0
 9664              	.LLST113:
 9665 0277 00000000 		.4byte	.LVL283
 9666 027b 34000000 		.4byte	.LVL289
 9667 027f 0200     		.2byte	0x2
 9668 0281 30       		.byte	0x30
 9669 0282 9F       		.byte	0x9f
 9670 0283 34000000 		.4byte	.LVL289
 9671 0287 64000000 		.4byte	.LVL290
 9672 028b 0100     		.2byte	0x1
 9673 028d 50       		.byte	0x50
 9674 028e 68000000 		.4byte	.LVL291
 9675 0292 6C000000 		.4byte	.LVL292
 9676 0296 0100     		.2byte	0x1
 9677 0298 50       		.byte	0x50
 9678 0299 70000000 		.4byte	.LVL293
 9679 029d 80000000 		.4byte	.LVL295
 9680 02a1 0100     		.2byte	0x1
 9681 02a3 50       		.byte	0x50
 9682 02a4 84000000 		.4byte	.LVL296
 9683 02a8 B0000000 		.4byte	.LVL297
 9684 02ac 0100     		.2byte	0x1
 9685 02ae 50       		.byte	0x50
 9686 02af B4000000 		.4byte	.LVL298
 9687 02b3 B8000000 		.4byte	.LFE22
 9688 02b7 0100     		.2byte	0x1
 9689 02b9 50       		.byte	0x50
 9690 02ba 00000000 		.4byte	0
ARM GAS  /var/folders/3j/4xdnk5197cv_b7cw3n33qk7r0000gn/T//ccSq9Yz5.s 			page 171


 9691 02be 00000000 		.4byte	0
 9692              	.LLST114:
 9693 02c2 00000000 		.4byte	.LVL283
 9694 02c6 20000000 		.4byte	.LVL286
 9695 02ca 0200     		.2byte	0x2
 9696 02cc 30       		.byte	0x30
 9697 02cd 9F       		.byte	0x9f
 9698 02ce 20000000 		.4byte	.LVL286
 9699 02d2 B8000000 		.4byte	.LFE22
 9700 02d6 0100     		.2byte	0x1
 9701 02d8 58       		.byte	0x58
 9702 02d9 00000000 		.4byte	0
 9703 02dd 00000000 		.4byte	0
 9704              	.LLST103:
 9705 02e1 00000000 		.4byte	.LVL267
 9706 02e5 33000000 		.4byte	.LVL272-1
 9707 02e9 0100     		.2byte	0x1
 9708 02eb 50       		.byte	0x50
 9709 02ec 33000000 		.4byte	.LVL272-1
 9710 02f0 C4000000 		.4byte	.LFE21
 9711 02f4 0100     		.2byte	0x1
 9712 02f6 55       		.byte	0x55
 9713 02f7 00000000 		.4byte	0
 9714 02fb 00000000 		.4byte	0
 9715              	.LLST104:
 9716 02ff 00000000 		.4byte	.LVL267
 9717 0303 20000000 		.4byte	.LVL269
 9718 0307 0100     		.2byte	0x1
 9719 0309 51       		.byte	0x51
 9720 030a 20000000 		.4byte	.LVL269
 9721 030e C4000000 		.4byte	.LFE21
 9722 0312 0100     		.2byte	0x1
 9723 0314 56       		.byte	0x56
 9724 0315 00000000 		.4byte	0
 9725 0319 00000000 		.4byte	0
 9726              	.LLST105:
 9727 031d 00000000 		.4byte	.LVL267
 9728 0321 0C000000 		.4byte	.LVL268
 9729 0325 0100     		.2byte	0x1
 9730 0327 52       		.byte	0x52
 9731 0328 0C000000 		.4byte	.LVL268
 9732 032c C4000000 		.4byte	.LFE21
 9733 0330 0400     		.2byte	0x4
 9734 0332 F3       		.byte	0xf3
 9735 0333 01       		.uleb128 0x1
 9736 0334 52       		.byte	0x52
 9737 0335 9F       		.byte	0x9f
 9738 0336 00000000 		.4byte	0
 9739 033a 00000000 		.4byte	0
 9740              	.LLST106:
 9741 033e 00000000 		.4byte	.LVL267
 9742 0342 33000000 		.4byte	.LVL272-1
 9743 0346 0100     		.2byte	0x1
 9744 0348 53       		.byte	0x53
 9745 0349 33000000 		.4byte	.LVL272-1
 9746 034d C4000000 		.4byte	.LFE21
 9747 0351 0400     		.2byte	0x4
ARM GAS  /var/folders/3j/4xdnk5197cv_b7cw3n33qk7r0000gn/T//ccSq9Yz5.s 			page 172


 9748 0353 F3       		.byte	0xf3
 9749 0354 01       		.uleb128 0x1
 9750 0355 53       		.byte	0x53
 9751 0356 9F       		.byte	0x9f
 9752 0357 00000000 		.4byte	0
 9753 035b 00000000 		.4byte	0
 9754              	.LLST107:
 9755 035f 00000000 		.4byte	.LVL267
 9756 0363 3C000000 		.4byte	.LVL273
 9757 0367 0200     		.2byte	0x2
 9758 0369 30       		.byte	0x30
 9759 036a 9F       		.byte	0x9f
 9760 036b 3C000000 		.4byte	.LVL273
 9761 036f 6C000000 		.4byte	.LVL274
 9762 0373 0100     		.2byte	0x1
 9763 0375 50       		.byte	0x50
 9764 0376 70000000 		.4byte	.LVL275
 9765 037a 74000000 		.4byte	.LVL276
 9766 037e 0100     		.2byte	0x1
 9767 0380 50       		.byte	0x50
 9768 0381 78000000 		.4byte	.LVL277
 9769 0385 88000000 		.4byte	.LVL279
 9770 0389 0100     		.2byte	0x1
 9771 038b 50       		.byte	0x50
 9772 038c 8C000000 		.4byte	.LVL280
 9773 0390 BC000000 		.4byte	.LVL281
 9774 0394 0100     		.2byte	0x1
 9775 0396 50       		.byte	0x50
 9776 0397 C0000000 		.4byte	.LVL282
 9777 039b C4000000 		.4byte	.LFE21
 9778 039f 0100     		.2byte	0x1
 9779 03a1 50       		.byte	0x50
 9780 03a2 00000000 		.4byte	0
 9781 03a6 00000000 		.4byte	0
 9782              	.LLST108:
 9783 03aa 00000000 		.4byte	.LVL267
 9784 03ae 24000000 		.4byte	.LVL270
 9785 03b2 0200     		.2byte	0x2
 9786 03b4 30       		.byte	0x30
 9787 03b5 9F       		.byte	0x9f
 9788 03b6 24000000 		.4byte	.LVL270
 9789 03ba C4000000 		.4byte	.LFE21
 9790 03be 0100     		.2byte	0x1
 9791 03c0 58       		.byte	0x58
 9792 03c1 00000000 		.4byte	0
 9793 03c5 00000000 		.4byte	0
 9794              	.LLST98:
 9795 03c9 00000000 		.4byte	.LVL236
 9796 03cd 33000000 		.4byte	.LVL239-1
 9797 03d1 0100     		.2byte	0x1
 9798 03d3 50       		.byte	0x50
 9799 03d4 33000000 		.4byte	.LVL239-1
 9800 03d8 70010000 		.4byte	.LFE20
 9801 03dc 0100     		.2byte	0x1
 9802 03de 55       		.byte	0x55
 9803 03df 00000000 		.4byte	0
 9804 03e3 00000000 		.4byte	0
ARM GAS  /var/folders/3j/4xdnk5197cv_b7cw3n33qk7r0000gn/T//ccSq9Yz5.s 			page 173


 9805              	.LLST99:
 9806 03e7 00000000 		.4byte	.LVL236
 9807 03eb 18000000 		.4byte	.LVL237
 9808 03ef 0100     		.2byte	0x1
 9809 03f1 51       		.byte	0x51
 9810 03f2 18000000 		.4byte	.LVL237
 9811 03f6 70010000 		.4byte	.LFE20
 9812 03fa 0400     		.2byte	0x4
 9813 03fc F3       		.byte	0xf3
 9814 03fd 01       		.uleb128 0x1
 9815 03fe 51       		.byte	0x51
 9816 03ff 9F       		.byte	0x9f
 9817 0400 00000000 		.4byte	0
 9818 0404 00000000 		.4byte	0
 9819              	.LLST100:
 9820 0408 00000000 		.4byte	.LVL236
 9821 040c 1C000000 		.4byte	.LVL238
 9822 0410 0100     		.2byte	0x1
 9823 0412 52       		.byte	0x52
 9824 0413 1C000000 		.4byte	.LVL238
 9825 0417 70010000 		.4byte	.LFE20
 9826 041b 0400     		.2byte	0x4
 9827 041d F3       		.byte	0xf3
 9828 041e 01       		.uleb128 0x1
 9829 041f 52       		.byte	0x52
 9830 0420 9F       		.byte	0x9f
 9831 0421 00000000 		.4byte	0
 9832 0425 00000000 		.4byte	0
 9833              	.LLST101:
 9834 0429 00000000 		.4byte	.LVL236
 9835 042d 33000000 		.4byte	.LVL239-1
 9836 0431 0100     		.2byte	0x1
 9837 0433 53       		.byte	0x53
 9838 0434 33000000 		.4byte	.LVL239-1
 9839 0438 70010000 		.4byte	.LFE20
 9840 043c 0400     		.2byte	0x4
 9841 043e F3       		.byte	0xf3
 9842 043f 01       		.uleb128 0x1
 9843 0440 53       		.byte	0x53
 9844 0441 9F       		.byte	0x9f
 9845 0442 00000000 		.4byte	0
 9846 0446 00000000 		.4byte	0
 9847              	.LLST102:
 9848 044a 00000000 		.4byte	.LVL236
 9849 044e 40000000 		.4byte	.LVL240
 9850 0452 0200     		.2byte	0x2
 9851 0454 30       		.byte	0x30
 9852 0455 9F       		.byte	0x9f
 9853 0456 40000000 		.4byte	.LVL240
 9854 045a 60000000 		.4byte	.LVL243
 9855 045e 0100     		.2byte	0x1
 9856 0460 56       		.byte	0x56
 9857 0461 60000000 		.4byte	.LVL243
 9858 0465 64000000 		.4byte	.LVL244
 9859 0469 0100     		.2byte	0x1
 9860 046b 54       		.byte	0x54
 9861 046c 6C000000 		.4byte	.LVL245
ARM GAS  /var/folders/3j/4xdnk5197cv_b7cw3n33qk7r0000gn/T//ccSq9Yz5.s 			page 174


 9862 0470 98000000 		.4byte	.LVL247
 9863 0474 0100     		.2byte	0x1
 9864 0476 54       		.byte	0x54
 9865 0477 A8000000 		.4byte	.LVL249
 9866 047b B0000000 		.4byte	.LVL250
 9867 047f 0100     		.2byte	0x1
 9868 0481 54       		.byte	0x54
 9869 0482 C0000000 		.4byte	.LVL252
 9870 0486 C8000000 		.4byte	.LVL253
 9871 048a 0600     		.2byte	0x6
 9872 048c 70       		.byte	0x70
 9873 048d 00       		.sleb128 0
 9874 048e 74       		.byte	0x74
 9875 048f 00       		.sleb128 0
 9876 0490 21       		.byte	0x21
 9877 0491 9F       		.byte	0x9f
 9878 0492 E0000000 		.4byte	.LVL254
 9879 0496 08010000 		.4byte	.LVL256
 9880 049a 0100     		.2byte	0x1
 9881 049c 54       		.byte	0x54
 9882 049d 0C010000 		.4byte	.LVL257
 9883 04a1 28010000 		.4byte	.LVL259
 9884 04a5 0100     		.2byte	0x1
 9885 04a7 54       		.byte	0x54
 9886 04a8 2C010000 		.4byte	.LVL260
 9887 04ac 44010000 		.4byte	.LVL262
 9888 04b0 0100     		.2byte	0x1
 9889 04b2 54       		.byte	0x54
 9890 04b3 48010000 		.4byte	.LVL263
 9891 04b7 64010000 		.4byte	.LVL265
 9892 04bb 0100     		.2byte	0x1
 9893 04bd 54       		.byte	0x54
 9894 04be 68010000 		.4byte	.LVL266
 9895 04c2 70010000 		.4byte	.LFE20
 9896 04c6 0100     		.2byte	0x1
 9897 04c8 54       		.byte	0x54
 9898 04c9 00000000 		.4byte	0
 9899 04cd 00000000 		.4byte	0
 9900              	.LLST87:
 9901 04d1 00000000 		.4byte	.LVL207
 9902 04d5 37000000 		.4byte	.LVL212-1
 9903 04d9 0100     		.2byte	0x1
 9904 04db 50       		.byte	0x50
 9905 04dc 37000000 		.4byte	.LVL212-1
 9906 04e0 48000000 		.4byte	.LVL214
 9907 04e4 0100     		.2byte	0x1
 9908 04e6 54       		.byte	0x54
 9909 04e7 48000000 		.4byte	.LVL214
 9910 04eb 50000000 		.4byte	.LVL215
 9911 04ef 0100     		.2byte	0x1
 9912 04f1 50       		.byte	0x50
 9913 04f2 50000000 		.4byte	.LVL215
 9914 04f6 B0000000 		.4byte	.LFE18
 9915 04fa 0100     		.2byte	0x1
 9916 04fc 54       		.byte	0x54
 9917 04fd 00000000 		.4byte	0
 9918 0501 00000000 		.4byte	0
ARM GAS  /var/folders/3j/4xdnk5197cv_b7cw3n33qk7r0000gn/T//ccSq9Yz5.s 			page 175


 9919              	.LLST88:
 9920 0505 00000000 		.4byte	.LVL207
 9921 0509 34000000 		.4byte	.LVL211
 9922 050d 0100     		.2byte	0x1
 9923 050f 51       		.byte	0x51
 9924 0510 34000000 		.4byte	.LVL211
 9925 0514 48000000 		.4byte	.LVL214
 9926 0518 0100     		.2byte	0x1
 9927 051a 55       		.byte	0x55
 9928 051b 48000000 		.4byte	.LVL214
 9929 051f 64000000 		.4byte	.LVL218
 9930 0523 0100     		.2byte	0x1
 9931 0525 51       		.byte	0x51
 9932 0526 64000000 		.4byte	.LVL218
 9933 052a B0000000 		.4byte	.LFE18
 9934 052e 0100     		.2byte	0x1
 9935 0530 55       		.byte	0x55
 9936 0531 00000000 		.4byte	0
 9937 0535 00000000 		.4byte	0
 9938              	.LLST89:
 9939 0539 00000000 		.4byte	.LVL207
 9940 053d 2C000000 		.4byte	.LVL210
 9941 0541 0100     		.2byte	0x1
 9942 0543 52       		.byte	0x52
 9943 0544 2C000000 		.4byte	.LVL210
 9944 0548 48000000 		.4byte	.LVL214
 9945 054c 0100     		.2byte	0x1
 9946 054e 56       		.byte	0x56
 9947 054f 48000000 		.4byte	.LVL214
 9948 0553 64000000 		.4byte	.LVL218
 9949 0557 0100     		.2byte	0x1
 9950 0559 52       		.byte	0x52
 9951 055a 64000000 		.4byte	.LVL218
 9952 055e B0000000 		.4byte	.LFE18
 9953 0562 0100     		.2byte	0x1
 9954 0564 56       		.byte	0x56
 9955 0565 00000000 		.4byte	0
 9956 0569 00000000 		.4byte	0
 9957              	.LLST90:
 9958 056d 00000000 		.4byte	.LVL207
 9959 0571 38000000 		.4byte	.LVL212
 9960 0575 0200     		.2byte	0x2
 9961 0577 30       		.byte	0x30
 9962 0578 9F       		.byte	0x9f
 9963 0579 40000000 		.4byte	.LVL213
 9964 057d 48000000 		.4byte	.LVL214
 9965 0581 0100     		.2byte	0x1
 9966 0583 50       		.byte	0x50
 9967 0584 48000000 		.4byte	.LVL214
 9968 0588 5C000000 		.4byte	.LVL217
 9969 058c 0200     		.2byte	0x2
 9970 058e 30       		.byte	0x30
 9971 058f 9F       		.byte	0x9f
 9972 0590 5C000000 		.4byte	.LVL217
 9973 0594 64000000 		.4byte	.LVL218
 9974 0598 0100     		.2byte	0x1
 9975 059a 50       		.byte	0x50
ARM GAS  /var/folders/3j/4xdnk5197cv_b7cw3n33qk7r0000gn/T//ccSq9Yz5.s 			page 176


 9976 059b 80000000 		.4byte	.LVL219
 9977 059f 84000000 		.4byte	.LVL220
 9978 05a3 0100     		.2byte	0x1
 9979 05a5 50       		.byte	0x50
 9980 05a6 A8000000 		.4byte	.LVL221
 9981 05aa B0000000 		.4byte	.LFE18
 9982 05ae 0100     		.2byte	0x1
 9983 05b0 50       		.byte	0x50
 9984 05b1 00000000 		.4byte	0
 9985 05b5 00000000 		.4byte	0
 9986              	.LLST91:
 9987 05b9 1C000000 		.4byte	.LVL208
 9988 05bd 37000000 		.4byte	.LVL212-1
 9989 05c1 0300     		.2byte	0x3
 9990 05c3 70       		.byte	0x70
 9991 05c4 9502     		.sleb128 277
 9992 05c6 48000000 		.4byte	.LVL214
 9993 05ca 50000000 		.4byte	.LVL215
 9994 05ce 0300     		.2byte	0x3
 9995 05d0 70       		.byte	0x70
 9996 05d1 9502     		.sleb128 277
 9997 05d3 50000000 		.4byte	.LVL215
 9998 05d7 54000000 		.4byte	.LVL216
 9999 05db 0300     		.2byte	0x3
 10000 05dd 74       		.byte	0x74
 10001 05de 9502     		.sleb128 277
 10002 05e0 00000000 		.4byte	0
 10003 05e4 00000000 		.4byte	0
 10004              	.LLST92:
 10005 05e8 20000000 		.4byte	.LVL209
 10006 05ec 2C000000 		.4byte	.LVL210
 10007 05f0 0300     		.2byte	0x3
 10008 05f2 91       		.byte	0x91
 10009 05f3 60       		.sleb128 -32
 10010 05f4 9F       		.byte	0x9f
 10011 05f5 2C000000 		.4byte	.LVL210
 10012 05f9 37000000 		.4byte	.LVL212-1
 10013 05fd 0100     		.2byte	0x1
 10014 05ff 52       		.byte	0x52
 10015 0600 37000000 		.4byte	.LVL212-1
 10016 0604 38000000 		.4byte	.LVL212
 10017 0608 0300     		.2byte	0x3
 10018 060a 91       		.byte	0x91
 10019 060b 60       		.sleb128 -32
 10020 060c 9F       		.byte	0x9f
 10021 060d 00000000 		.4byte	0
 10022 0611 00000000 		.4byte	0
 10023              	.LLST93:
 10024 0615 20000000 		.4byte	.LVL209
 10025 0619 37000000 		.4byte	.LVL212-1
 10026 061d 0100     		.2byte	0x1
 10027 061f 50       		.byte	0x50
 10028 0620 37000000 		.4byte	.LVL212-1
 10029 0624 38000000 		.4byte	.LVL212
 10030 0628 0100     		.2byte	0x1
 10031 062a 54       		.byte	0x54
 10032 062b 00000000 		.4byte	0
ARM GAS  /var/folders/3j/4xdnk5197cv_b7cw3n33qk7r0000gn/T//ccSq9Yz5.s 			page 177


 10033 062f 00000000 		.4byte	0
 10034              	.LLST80:
 10035 0633 00000000 		.4byte	.LVL184
 10036 0637 1F000000 		.4byte	.LVL187-1
 10037 063b 0100     		.2byte	0x1
 10038 063d 50       		.byte	0x50
 10039 063e 1F000000 		.4byte	.LVL187-1
 10040 0642 20010000 		.4byte	.LFE17
 10041 0646 0100     		.2byte	0x1
 10042 0648 54       		.byte	0x54
 10043 0649 00000000 		.4byte	0
 10044 064d 00000000 		.4byte	0
 10045              	.LLST81:
 10046 0651 00000000 		.4byte	.LVL184
 10047 0655 14000000 		.4byte	.LVL185
 10048 0659 0100     		.2byte	0x1
 10049 065b 51       		.byte	0x51
 10050 065c 14000000 		.4byte	.LVL185
 10051 0660 20010000 		.4byte	.LFE17
 10052 0664 0100     		.2byte	0x1
 10053 0666 56       		.byte	0x56
 10054 0667 00000000 		.4byte	0
 10055 066b 00000000 		.4byte	0
 10056              	.LLST82:
 10057 066f 00000000 		.4byte	.LVL184
 10058 0673 18000000 		.4byte	.LVL186
 10059 0677 0100     		.2byte	0x1
 10060 0679 52       		.byte	0x52
 10061 067a 18000000 		.4byte	.LVL186
 10062 067e 20010000 		.4byte	.LFE17
 10063 0682 0400     		.2byte	0x4
 10064 0684 F3       		.byte	0xf3
 10065 0685 01       		.uleb128 0x1
 10066 0686 52       		.byte	0x52
 10067 0687 9F       		.byte	0x9f
 10068 0688 00000000 		.4byte	0
 10069 068c 00000000 		.4byte	0
 10070              	.LLST83:
 10071 0690 00000000 		.4byte	.LVL184
 10072 0694 20000000 		.4byte	.LVL187
 10073 0698 0200     		.2byte	0x2
 10074 069a 30       		.byte	0x30
 10075 069b 9F       		.byte	0x9f
 10076 069c 20000000 		.4byte	.LVL187
 10077 06a0 28000000 		.4byte	.LVL188
 10078 06a4 0100     		.2byte	0x1
 10079 06a6 50       		.byte	0x50
 10080 06a7 88000000 		.4byte	.LVL193
 10081 06ab 8C000000 		.4byte	.LVL194
 10082 06af 0100     		.2byte	0x1
 10083 06b1 50       		.byte	0x50
 10084 06b2 C8000000 		.4byte	.LVL198
 10085 06b6 D0000000 		.4byte	.LVL199
 10086 06ba 0100     		.2byte	0x1
 10087 06bc 50       		.byte	0x50
 10088 06bd D4000000 		.4byte	.LVL200
 10089 06c1 E8000000 		.4byte	.LVL201
ARM GAS  /var/folders/3j/4xdnk5197cv_b7cw3n33qk7r0000gn/T//ccSq9Yz5.s 			page 178


 10090 06c5 0100     		.2byte	0x1
 10091 06c7 50       		.byte	0x50
 10092 06c8 EC000000 		.4byte	.LVL202
 10093 06cc FC000000 		.4byte	.LVL203
 10094 06d0 0100     		.2byte	0x1
 10095 06d2 50       		.byte	0x50
 10096 06d3 00010000 		.4byte	.LVL204
 10097 06d7 14010000 		.4byte	.LVL205
 10098 06db 0100     		.2byte	0x1
 10099 06dd 50       		.byte	0x50
 10100 06de 00000000 		.4byte	0
 10101 06e2 00000000 		.4byte	0
 10102              	.LLST84:
 10103 06e6 00000000 		.4byte	.LVL184
 10104 06ea 58000000 		.4byte	.LVL191
 10105 06ee 0200     		.2byte	0x2
 10106 06f0 30       		.byte	0x30
 10107 06f1 9F       		.byte	0x9f
 10108 06f2 58000000 		.4byte	.LVL191
 10109 06f6 70000000 		.4byte	.LVL192
 10110 06fa 0100     		.2byte	0x1
 10111 06fc 53       		.byte	0x53
 10112 06fd 70000000 		.4byte	.LVL192
 10113 0701 87000000 		.4byte	.LVL193-1
 10114 0705 0200     		.2byte	0x2
 10115 0707 91       		.byte	0x91
 10116 0708 50       		.sleb128 -48
 10117 0709 A4000000 		.4byte	.LVL195
 10118 070d C8000000 		.4byte	.LVL198
 10119 0711 0100     		.2byte	0x1
 10120 0713 53       		.byte	0x53
 10121 0714 C8000000 		.4byte	.LVL198
 10122 0718 20010000 		.4byte	.LFE17
 10123 071c 0200     		.2byte	0x2
 10124 071e 30       		.byte	0x30
 10125 071f 9F       		.byte	0x9f
 10126 0720 00000000 		.4byte	0
 10127 0724 00000000 		.4byte	0
 10128              	.LLST85:
 10129 0728 28000000 		.4byte	.LVL188
 10130 072c 3C000000 		.4byte	.LVL189
 10131 0730 0200     		.2byte	0x2
 10132 0732 35       		.byte	0x35
 10133 0733 9F       		.byte	0x9f
 10134 0734 3C000000 		.4byte	.LVL189
 10135 0738 C8000000 		.4byte	.LVL198
 10136 073c 0200     		.2byte	0x2
 10137 073e 36       		.byte	0x36
 10138 073f 9F       		.byte	0x9f
 10139 0740 00000000 		.4byte	0
 10140 0744 00000000 		.4byte	0
 10141              	.LLST86:
 10142 0748 44000000 		.4byte	.LVL190
 10143 074c 58000000 		.4byte	.LVL191
 10144 0750 0300     		.2byte	0x3
 10145 0752 08       		.byte	0x8
 10146 0753 B4       		.byte	0xb4
ARM GAS  /var/folders/3j/4xdnk5197cv_b7cw3n33qk7r0000gn/T//ccSq9Yz5.s 			page 179


 10147 0754 9F       		.byte	0x9f
 10148 0755 A4000000 		.4byte	.LVL195
 10149 0759 B0000000 		.4byte	.LVL196
 10150 075d 0400     		.2byte	0x4
 10151 075f 73       		.byte	0x73
 10152 0760 B401     		.sleb128 180
 10153 0762 9F       		.byte	0x9f
 10154 0763 C0000000 		.4byte	.LVL197
 10155 0767 C8000000 		.4byte	.LVL198
 10156 076b 0400     		.2byte	0x4
 10157 076d 73       		.byte	0x73
 10158 076e B401     		.sleb128 180
 10159 0770 9F       		.byte	0x9f
 10160 0771 00000000 		.4byte	0
 10161 0775 00000000 		.4byte	0
 10162              	.LLST121:
 10163 0779 00000000 		.4byte	.LVL310
 10164 077d 47000000 		.4byte	.LVL315-1
 10165 0781 0100     		.2byte	0x1
 10166 0783 50       		.byte	0x50
 10167 0784 47000000 		.4byte	.LVL315-1
 10168 0788 D0030000 		.4byte	.LFE16
 10169 078c 0100     		.2byte	0x1
 10170 078e 55       		.byte	0x55
 10171 078f 00000000 		.4byte	0
 10172 0793 00000000 		.4byte	0
 10173              	.LLST122:
 10174 0797 00000000 		.4byte	.LVL310
 10175 079b 30000000 		.4byte	.LVL312
 10176 079f 0100     		.2byte	0x1
 10177 07a1 51       		.byte	0x51
 10178 07a2 30000000 		.4byte	.LVL312
 10179 07a6 D0030000 		.4byte	.LFE16
 10180 07aa 0300     		.2byte	0x3
 10181 07ac 91       		.byte	0x91
 10182 07ad A87F     		.sleb128 -88
 10183 07af 00000000 		.4byte	0
 10184 07b3 00000000 		.4byte	0
 10185              	.LLST123:
 10186 07b7 00000000 		.4byte	.LVL310
 10187 07bb 28000000 		.4byte	.LVL311
 10188 07bf 0100     		.2byte	0x1
 10189 07c1 52       		.byte	0x52
 10190 07c2 28000000 		.4byte	.LVL311
 10191 07c6 D0030000 		.4byte	.LFE16
 10192 07ca 0300     		.2byte	0x3
 10193 07cc 91       		.byte	0x91
 10194 07cd AC7F     		.sleb128 -84
 10195 07cf 00000000 		.4byte	0
 10196 07d3 00000000 		.4byte	0
 10197              	.LLST124:
 10198 07d7 00000000 		.4byte	.LVL310
 10199 07db 48000000 		.4byte	.LVL315
 10200 07df 0200     		.2byte	0x2
 10201 07e1 30       		.byte	0x30
 10202 07e2 9F       		.byte	0x9f
 10203 07e3 48000000 		.4byte	.LVL315
ARM GAS  /var/folders/3j/4xdnk5197cv_b7cw3n33qk7r0000gn/T//ccSq9Yz5.s 			page 180


 10204 07e7 50000000 		.4byte	.LVL316
 10205 07eb 0100     		.2byte	0x1
 10206 07ed 50       		.byte	0x50
 10207 07ee 5C000000 		.4byte	.LVL317
 10208 07f2 68000000 		.4byte	.LVL318
 10209 07f6 0100     		.2byte	0x1
 10210 07f8 50       		.byte	0x50
 10211 07f9 6C000000 		.4byte	.LVL319
 10212 07fd 80000000 		.4byte	.LVL320
 10213 0801 0100     		.2byte	0x1
 10214 0803 50       		.byte	0x50
 10215 0804 84000000 		.4byte	.LVL321
 10216 0808 98000000 		.4byte	.LVL322
 10217 080c 0100     		.2byte	0x1
 10218 080e 50       		.byte	0x50
 10219 080f 9C000000 		.4byte	.LVL323
 10220 0813 B0000000 		.4byte	.LVL324
 10221 0817 0100     		.2byte	0x1
 10222 0819 50       		.byte	0x50
 10223 081a B4000000 		.4byte	.LVL325
 10224 081e C8000000 		.4byte	.LVL326
 10225 0822 0100     		.2byte	0x1
 10226 0824 50       		.byte	0x50
 10227 0825 CC000000 		.4byte	.LVL327
 10228 0829 E4000000 		.4byte	.LVL328
 10229 082d 0100     		.2byte	0x1
 10230 082f 50       		.byte	0x50
 10231 0830 E8000000 		.4byte	.LVL329
 10232 0834 F4000000 		.4byte	.LVL330
 10233 0838 0100     		.2byte	0x1
 10234 083a 50       		.byte	0x50
 10235 083b 34010000 		.4byte	.LVL331
 10236 083f 44010000 		.4byte	.LVL332
 10237 0843 0100     		.2byte	0x1
 10238 0845 50       		.byte	0x50
 10239 0846 4C010000 		.4byte	.LVL334
 10240 084a D0010000 		.4byte	.LVL340
 10241 084e 0100     		.2byte	0x1
 10242 0850 50       		.byte	0x50
 10243 0851 D4010000 		.4byte	.LVL341
 10244 0855 D8010000 		.4byte	.LVL342
 10245 0859 0100     		.2byte	0x1
 10246 085b 50       		.byte	0x50
 10247 085c EC010000 		.4byte	.LVL344
 10248 0860 F8010000 		.4byte	.LVL345
 10249 0864 0100     		.2byte	0x1
 10250 0866 50       		.byte	0x50
 10251 0867 38020000 		.4byte	.LVL346
 10252 086b A8020000 		.4byte	.LVL351
 10253 086f 0200     		.2byte	0x2
 10254 0871 30       		.byte	0x30
 10255 0872 9F       		.byte	0x9f
 10256 0873 D4020000 		.4byte	.LVL354
 10257 0877 D8020000 		.4byte	.LVL355
 10258 087b 0100     		.2byte	0x1
 10259 087d 50       		.byte	0x50
 10260 087e 34030000 		.4byte	.LVL362
ARM GAS  /var/folders/3j/4xdnk5197cv_b7cw3n33qk7r0000gn/T//ccSq9Yz5.s 			page 181


 10261 0882 3C030000 		.4byte	.LVL363
 10262 0886 0100     		.2byte	0x1
 10263 0888 53       		.byte	0x53
 10264 0889 84030000 		.4byte	.LVL365
 10265 088d 94030000 		.4byte	.LVL368
 10266 0891 0200     		.2byte	0x2
 10267 0893 30       		.byte	0x30
 10268 0894 9F       		.byte	0x9f
 10269 0895 A4030000 		.4byte	.LVL370
 10270 0899 A8030000 		.4byte	.LVL371
 10271 089d 0100     		.2byte	0x1
 10272 089f 50       		.byte	0x50
 10273 08a0 00000000 		.4byte	0
 10274 08a4 00000000 		.4byte	0
 10275              	.LLST125:
 10276 08a8 00000000 		.4byte	.LVL310
 10277 08ac 50000000 		.4byte	.LVL316
 10278 08b0 0200     		.2byte	0x2
 10279 08b2 30       		.byte	0x30
 10280 08b3 9F       		.byte	0x9f
 10281 08b4 5C000000 		.4byte	.LVL317
 10282 08b8 48010000 		.4byte	.LVL333
 10283 08bc 0200     		.2byte	0x2
 10284 08be 30       		.byte	0x30
 10285 08bf 9F       		.byte	0x9f
 10286 08c0 48010000 		.4byte	.LVL333
 10287 08c4 9C010000 		.4byte	.LVL338
 10288 08c8 0100     		.2byte	0x1
 10289 08ca 54       		.byte	0x54
 10290 08cb 9C010000 		.4byte	.LVL338
 10291 08cf AC010000 		.4byte	.LVL339
 10292 08d3 0100     		.2byte	0x1
 10293 08d5 53       		.byte	0x53
 10294 08d6 EC010000 		.4byte	.LVL344
 10295 08da 50020000 		.4byte	.LVL348
 10296 08de 0100     		.2byte	0x1
 10297 08e0 54       		.byte	0x54
 10298 08e1 54020000 		.4byte	.LVL349
 10299 08e5 3C030000 		.4byte	.LVL363
 10300 08e9 0100     		.2byte	0x1
 10301 08eb 54       		.byte	0x54
 10302 08ec 6C030000 		.4byte	.LVL364
 10303 08f0 94030000 		.4byte	.LVL368
 10304 08f4 0100     		.2byte	0x1
 10305 08f6 54       		.byte	0x54
 10306 08f7 A0030000 		.4byte	.LVL369
 10307 08fb D0030000 		.4byte	.LFE16
 10308 08ff 0100     		.2byte	0x1
 10309 0901 54       		.byte	0x54
 10310 0902 00000000 		.4byte	0
 10311 0906 00000000 		.4byte	0
 10312              	.LLST126:
 10313 090a 3C000000 		.4byte	.LVL313
 10314 090e 44000000 		.4byte	.LVL314
 10315 0912 0400     		.2byte	0x4
 10316 0914 0A       		.byte	0xa
 10317 0915 000A     		.2byte	0xa00
ARM GAS  /var/folders/3j/4xdnk5197cv_b7cw3n33qk7r0000gn/T//ccSq9Yz5.s 			page 182


 10318 0917 9F       		.byte	0x9f
 10319 0918 44000000 		.4byte	.LVL314
 10320 091c D0030000 		.4byte	.LFE16
 10321 0920 0100     		.2byte	0x1
 10322 0922 57       		.byte	0x57
 10323 0923 00000000 		.4byte	0
 10324 0927 00000000 		.4byte	0
 10325              	.LLST127:
 10326 092b 3C000000 		.4byte	.LVL313
 10327 092f 50000000 		.4byte	.LVL316
 10328 0933 0200     		.2byte	0x2
 10329 0935 30       		.byte	0x30
 10330 0936 9F       		.byte	0x9f
 10331 0937 5C000000 		.4byte	.LVL317
 10332 093b AC010000 		.4byte	.LVL339
 10333 093f 0200     		.2byte	0x2
 10334 0941 30       		.byte	0x30
 10335 0942 9F       		.byte	0x9f
 10336 0943 AC010000 		.4byte	.LVL339
 10337 0947 DC010000 		.4byte	.LVL343
 10338 094b 0200     		.2byte	0x2
 10339 094d 31       		.byte	0x31
 10340 094e 9F       		.byte	0x9f
 10341 094f EC010000 		.4byte	.LVL344
 10342 0953 F8010000 		.4byte	.LVL345
 10343 0957 0200     		.2byte	0x2
 10344 0959 30       		.byte	0x30
 10345 095a 9F       		.byte	0x9f
 10346 095b 94030000 		.4byte	.LVL368
 10347 095f D0030000 		.4byte	.LFE16
 10348 0963 0200     		.2byte	0x2
 10349 0965 31       		.byte	0x31
 10350 0966 9F       		.byte	0x9f
 10351 0967 00000000 		.4byte	0
 10352 096b 00000000 		.4byte	0
 10353              	.LLST128:
 10354 096f 3C000000 		.4byte	.LVL313
 10355 0973 44000000 		.4byte	.LVL314
 10356 0977 0200     		.2byte	0x2
 10357 0979 30       		.byte	0x30
 10358 097a 9F       		.byte	0x9f
 10359 097b 44000000 		.4byte	.LVL314
 10360 097f 60010000 		.4byte	.LVL335
 10361 0983 0200     		.2byte	0x2
 10362 0985 36       		.byte	0x36
 10363 0986 9F       		.byte	0x9f
 10364 0987 60010000 		.4byte	.LVL335
 10365 098b 84010000 		.4byte	.LVL336
 10366 098f 0200     		.2byte	0x2
 10367 0991 35       		.byte	0x35
 10368 0992 9F       		.byte	0x9f
 10369 0993 84010000 		.4byte	.LVL336
 10370 0997 D0030000 		.4byte	.LFE16
 10371 099b 0200     		.2byte	0x2
 10372 099d 36       		.byte	0x36
 10373 099e 9F       		.byte	0x9f
 10374 099f 00000000 		.4byte	0
ARM GAS  /var/folders/3j/4xdnk5197cv_b7cw3n33qk7r0000gn/T//ccSq9Yz5.s 			page 183


 10375 09a3 00000000 		.4byte	0
 10376              	.LLST129:
 10377 09a7 3C000000 		.4byte	.LVL313
 10378 09ab 50000000 		.4byte	.LVL316
 10379 09af 0200     		.2byte	0x2
 10380 09b1 30       		.byte	0x30
 10381 09b2 9F       		.byte	0x9f
 10382 09b3 5C000000 		.4byte	.LVL317
 10383 09b7 DC010000 		.4byte	.LVL343
 10384 09bb 0200     		.2byte	0x2
 10385 09bd 30       		.byte	0x30
 10386 09be 9F       		.byte	0x9f
 10387 09bf EC010000 		.4byte	.LVL344
 10388 09c3 38020000 		.4byte	.LVL346
 10389 09c7 0200     		.2byte	0x2
 10390 09c9 30       		.byte	0x30
 10391 09ca 9F       		.byte	0x9f
 10392 09cb EC020000 		.4byte	.LVL356
 10393 09cf 08030000 		.4byte	.LVL358
 10394 09d3 0100     		.2byte	0x1
 10395 09d5 53       		.byte	0x53
 10396 09d6 08030000 		.4byte	.LVL358
 10397 09da 17030000 		.4byte	.LVL360-1
 10398 09de 2C00     		.2byte	0x2c
 10399 09e0 77       		.byte	0x77
 10400 09e1 00       		.sleb128 0
 10401 09e2 91       		.byte	0x91
 10402 09e3 BE7F     		.sleb128 -66
 10403 09e5 94       		.byte	0x94
 10404 09e6 02       		.byte	0x2
 10405 09e7 0A       		.byte	0xa
 10406 09e8 FFFF     		.2byte	0xffff
 10407 09ea 1A       		.byte	0x1a
 10408 09eb 1C       		.byte	0x1c
 10409 09ec 91       		.byte	0x91
 10410 09ed BE7F     		.sleb128 -66
 10411 09ef 94       		.byte	0x94
 10412 09f0 02       		.byte	0x2
 10413 09f1 0A       		.byte	0xa
 10414 09f2 FFFF     		.2byte	0xffff
 10415 09f4 1A       		.byte	0x1a
 10416 09f5 77       		.byte	0x77
 10417 09f6 00       		.sleb128 0
 10418 09f7 1C       		.byte	0x1c
 10419 09f8 91       		.byte	0x91
 10420 09f9 BE7F     		.sleb128 -66
 10421 09fb 94       		.byte	0x94
 10422 09fc 02       		.byte	0x2
 10423 09fd 0A       		.byte	0xa
 10424 09fe FFFF     		.2byte	0xffff
 10425 0a00 1A       		.byte	0x1a
 10426 0a01 77       		.byte	0x77
 10427 0a02 00       		.sleb128 0
 10428 0a03 1C       		.byte	0x1c
 10429 0a04 30       		.byte	0x30
 10430 0a05 2D       		.byte	0x2d
 10431 0a06 28       		.byte	0x28
ARM GAS  /var/folders/3j/4xdnk5197cv_b7cw3n33qk7r0000gn/T//ccSq9Yz5.s 			page 184


 10432 0a07 0100     		.2byte	0x1
 10433 0a09 16       		.byte	0x16
 10434 0a0a 13       		.byte	0x13
 10435 0a0b 9F       		.byte	0x9f
 10436 0a0c 6C030000 		.4byte	.LVL364
 10437 0a10 88030000 		.4byte	.LVL366
 10438 0a14 0100     		.2byte	0x1
 10439 0a16 53       		.byte	0x53
 10440 0a17 94030000 		.4byte	.LVL368
 10441 0a1b D0030000 		.4byte	.LFE16
 10442 0a1f 0200     		.2byte	0x2
 10443 0a21 30       		.byte	0x30
 10444 0a22 9F       		.byte	0x9f
 10445 0a23 00000000 		.4byte	0
 10446 0a27 00000000 		.4byte	0
 10447              	.LLST130:
 10448 0a2b 3C000000 		.4byte	.LVL313
 10449 0a2f 50000000 		.4byte	.LVL316
 10450 0a33 0200     		.2byte	0x2
 10451 0a35 30       		.byte	0x30
 10452 0a36 9F       		.byte	0x9f
 10453 0a37 5C000000 		.4byte	.LVL317
 10454 0a3b DC010000 		.4byte	.LVL343
 10455 0a3f 0200     		.2byte	0x2
 10456 0a41 30       		.byte	0x30
 10457 0a42 9F       		.byte	0x9f
 10458 0a43 EC010000 		.4byte	.LVL344
 10459 0a47 38020000 		.4byte	.LVL346
 10460 0a4b 0200     		.2byte	0x2
 10461 0a4d 30       		.byte	0x30
 10462 0a4e 9F       		.byte	0x9f
 10463 0a4f EC020000 		.4byte	.LVL356
 10464 0a53 08030000 		.4byte	.LVL358
 10465 0a57 0100     		.2byte	0x1
 10466 0a59 53       		.byte	0x53
 10467 0a5a 08030000 		.4byte	.LVL358
 10468 0a5e 17030000 		.4byte	.LVL360-1
 10469 0a62 2C00     		.2byte	0x2c
 10470 0a64 77       		.byte	0x77
 10471 0a65 00       		.sleb128 0
 10472 0a66 91       		.byte	0x91
 10473 0a67 BE7F     		.sleb128 -66
 10474 0a69 94       		.byte	0x94
 10475 0a6a 02       		.byte	0x2
 10476 0a6b 0A       		.byte	0xa
 10477 0a6c FFFF     		.2byte	0xffff
 10478 0a6e 1A       		.byte	0x1a
 10479 0a6f 1C       		.byte	0x1c
 10480 0a70 91       		.byte	0x91
 10481 0a71 BE7F     		.sleb128 -66
 10482 0a73 94       		.byte	0x94
 10483 0a74 02       		.byte	0x2
 10484 0a75 0A       		.byte	0xa
 10485 0a76 FFFF     		.2byte	0xffff
 10486 0a78 1A       		.byte	0x1a
 10487 0a79 77       		.byte	0x77
 10488 0a7a 00       		.sleb128 0
ARM GAS  /var/folders/3j/4xdnk5197cv_b7cw3n33qk7r0000gn/T//ccSq9Yz5.s 			page 185


 10489 0a7b 1C       		.byte	0x1c
 10490 0a7c 91       		.byte	0x91
 10491 0a7d BE7F     		.sleb128 -66
 10492 0a7f 94       		.byte	0x94
 10493 0a80 02       		.byte	0x2
 10494 0a81 0A       		.byte	0xa
 10495 0a82 FFFF     		.2byte	0xffff
 10496 0a84 1A       		.byte	0x1a
 10497 0a85 77       		.byte	0x77
 10498 0a86 00       		.sleb128 0
 10499 0a87 1C       		.byte	0x1c
 10500 0a88 30       		.byte	0x30
 10501 0a89 2D       		.byte	0x2d
 10502 0a8a 28       		.byte	0x28
 10503 0a8b 0100     		.2byte	0x1
 10504 0a8d 16       		.byte	0x16
 10505 0a8e 13       		.byte	0x13
 10506 0a8f 9F       		.byte	0x9f
 10507 0a90 6C030000 		.4byte	.LVL364
 10508 0a94 84030000 		.4byte	.LVL365
 10509 0a98 0100     		.2byte	0x1
 10510 0a9a 53       		.byte	0x53
 10511 0a9b 84030000 		.4byte	.LVL365
 10512 0a9f 88030000 		.4byte	.LVL366
 10513 0aa3 0300     		.2byte	0x3
 10514 0aa5 91       		.byte	0x91
 10515 0aa6 A47F     		.sleb128 -92
 10516 0aa8 94030000 		.4byte	.LVL368
 10517 0aac D0030000 		.4byte	.LFE16
 10518 0ab0 0200     		.2byte	0x2
 10519 0ab2 30       		.byte	0x30
 10520 0ab3 9F       		.byte	0x9f
 10521 0ab4 00000000 		.4byte	0
 10522 0ab8 00000000 		.4byte	0
 10523              	.LLST131:
 10524 0abc 3C000000 		.4byte	.LVL313
 10525 0ac0 50000000 		.4byte	.LVL316
 10526 0ac4 0200     		.2byte	0x2
 10527 0ac6 30       		.byte	0x30
 10528 0ac7 9F       		.byte	0x9f
 10529 0ac8 5C000000 		.4byte	.LVL317
 10530 0acc 34030000 		.4byte	.LVL362
 10531 0ad0 0200     		.2byte	0x2
 10532 0ad2 30       		.byte	0x30
 10533 0ad3 9F       		.byte	0x9f
 10534 0ad4 34030000 		.4byte	.LVL362
 10535 0ad8 3C030000 		.4byte	.LVL363
 10536 0adc 0200     		.2byte	0x2
 10537 0ade 31       		.byte	0x31
 10538 0adf 9F       		.byte	0x9f
 10539 0ae0 6C030000 		.4byte	.LVL364
 10540 0ae4 D0030000 		.4byte	.LFE16
 10541 0ae8 0200     		.2byte	0x2
 10542 0aea 30       		.byte	0x30
 10543 0aeb 9F       		.byte	0x9f
 10544 0aec 00000000 		.4byte	0
 10545 0af0 00000000 		.4byte	0
ARM GAS  /var/folders/3j/4xdnk5197cv_b7cw3n33qk7r0000gn/T//ccSq9Yz5.s 			page 186


 10546              	.LLST132:
 10547 0af4 44000000 		.4byte	.LVL314
 10548 0af8 50000000 		.4byte	.LVL316
 10549 0afc 0200     		.2byte	0x2
 10550 0afe 30       		.byte	0x30
 10551 0aff 9F       		.byte	0x9f
 10552 0b00 5C000000 		.4byte	.LVL317
 10553 0b04 DC010000 		.4byte	.LVL343
 10554 0b08 0200     		.2byte	0x2
 10555 0b0a 30       		.byte	0x30
 10556 0b0b 9F       		.byte	0x9f
 10557 0b0c EC010000 		.4byte	.LVL344
 10558 0b10 38020000 		.4byte	.LVL346
 10559 0b14 0200     		.2byte	0x2
 10560 0b16 30       		.byte	0x30
 10561 0b17 9F       		.byte	0x9f
 10562 0b18 54020000 		.4byte	.LVL349
 10563 0b1c 34030000 		.4byte	.LVL362
 10564 0b20 0100     		.2byte	0x1
 10565 0b22 59       		.byte	0x59
 10566 0b23 34030000 		.4byte	.LVL362
 10567 0b27 3C030000 		.4byte	.LVL363
 10568 0b2b 0100     		.2byte	0x1
 10569 0b2d 5B       		.byte	0x5b
 10570 0b2e 6C030000 		.4byte	.LVL364
 10571 0b32 84030000 		.4byte	.LVL365
 10572 0b36 0100     		.2byte	0x1
 10573 0b38 59       		.byte	0x59
 10574 0b39 84030000 		.4byte	.LVL365
 10575 0b3d 88030000 		.4byte	.LVL366
 10576 0b41 0100     		.2byte	0x1
 10577 0b43 5B       		.byte	0x5b
 10578 0b44 88030000 		.4byte	.LVL366
 10579 0b48 90030000 		.4byte	.LVL367
 10580 0b4c 0100     		.2byte	0x1
 10581 0b4e 59       		.byte	0x59
 10582 0b4f 90030000 		.4byte	.LVL367
 10583 0b53 94030000 		.4byte	.LVL368
 10584 0b57 0300     		.2byte	0x3
 10585 0b59 7B       		.byte	0x7b
 10586 0b5a 01       		.sleb128 1
 10587 0b5b 9F       		.byte	0x9f
 10588 0b5c 94030000 		.4byte	.LVL368
 10589 0b60 D0030000 		.4byte	.LFE16
 10590 0b64 0200     		.2byte	0x2
 10591 0b66 30       		.byte	0x30
 10592 0b67 9F       		.byte	0x9f
 10593 0b68 00000000 		.4byte	0
 10594 0b6c 00000000 		.4byte	0
 10595              	.LLST133:
 10596 0b70 44000000 		.4byte	.LVL314
 10597 0b74 50000000 		.4byte	.LVL316
 10598 0b78 0200     		.2byte	0x2
 10599 0b7a 30       		.byte	0x30
 10600 0b7b 9F       		.byte	0x9f
 10601 0b7c 5C000000 		.4byte	.LVL317
 10602 0b80 DC010000 		.4byte	.LVL343
ARM GAS  /var/folders/3j/4xdnk5197cv_b7cw3n33qk7r0000gn/T//ccSq9Yz5.s 			page 187


 10603 0b84 0200     		.2byte	0x2
 10604 0b86 30       		.byte	0x30
 10605 0b87 9F       		.byte	0x9f
 10606 0b88 EC010000 		.4byte	.LVL344
 10607 0b8c 38020000 		.4byte	.LVL346
 10608 0b90 0200     		.2byte	0x2
 10609 0b92 30       		.byte	0x30
 10610 0b93 9F       		.byte	0x9f
 10611 0b94 38020000 		.4byte	.LVL346
 10612 0b98 3C030000 		.4byte	.LVL363
 10613 0b9c 0300     		.2byte	0x3
 10614 0b9e 91       		.byte	0x91
 10615 0b9f B47F     		.sleb128 -76
 10616 0ba1 6C030000 		.4byte	.LVL364
 10617 0ba5 94030000 		.4byte	.LVL368
 10618 0ba9 0300     		.2byte	0x3
 10619 0bab 91       		.byte	0x91
 10620 0bac B47F     		.sleb128 -76
 10621 0bae 94030000 		.4byte	.LVL368
 10622 0bb2 D0030000 		.4byte	.LFE16
 10623 0bb6 0200     		.2byte	0x2
 10624 0bb8 30       		.byte	0x30
 10625 0bb9 9F       		.byte	0x9f
 10626 0bba 00000000 		.4byte	0
 10627 0bbe 00000000 		.4byte	0
 10628              	.LLST134:
 10629 0bc2 54020000 		.4byte	.LVL349
 10630 0bc6 A8020000 		.4byte	.LVL351
 10631 0bca 0100     		.2byte	0x1
 10632 0bcc 54       		.byte	0x54
 10633 0bcd 88030000 		.4byte	.LVL366
 10634 0bd1 94030000 		.4byte	.LVL368
 10635 0bd5 0100     		.2byte	0x1
 10636 0bd7 54       		.byte	0x54
 10637 0bd8 00000000 		.4byte	0
 10638 0bdc 00000000 		.4byte	0
 10639              	.LLST135:
 10640 0be0 54020000 		.4byte	.LVL349
 10641 0be4 A8020000 		.4byte	.LVL351
 10642 0be8 0200     		.2byte	0x2
 10643 0bea 36       		.byte	0x36
 10644 0beb 9F       		.byte	0x9f
 10645 0bec 88030000 		.4byte	.LVL366
 10646 0bf0 94030000 		.4byte	.LVL368
 10647 0bf4 0200     		.2byte	0x2
 10648 0bf6 36       		.byte	0x36
 10649 0bf7 9F       		.byte	0x9f
 10650 0bf8 00000000 		.4byte	0
 10651 0bfc 00000000 		.4byte	0
 10652              	.LLST136:
 10653 0c00 04030000 		.4byte	.LVL357
 10654 0c04 0C030000 		.4byte	.LVL359
 10655 0c08 0300     		.2byte	0x3
 10656 0c0a 91       		.byte	0x91
 10657 0c0b 48       		.sleb128 -56
 10658 0c0c 9F       		.byte	0x9f
 10659 0c0d 0C030000 		.4byte	.LVL359
ARM GAS  /var/folders/3j/4xdnk5197cv_b7cw3n33qk7r0000gn/T//ccSq9Yz5.s 			page 188


 10660 0c11 17030000 		.4byte	.LVL360-1
 10661 0c15 0100     		.2byte	0x1
 10662 0c17 52       		.byte	0x52
 10663 0c18 17030000 		.4byte	.LVL360-1
 10664 0c1c 1C030000 		.4byte	.LVL361
 10665 0c20 0300     		.2byte	0x3
 10666 0c22 91       		.byte	0x91
 10667 0c23 48       		.sleb128 -56
 10668 0c24 9F       		.byte	0x9f
 10669 0c25 00000000 		.4byte	0
 10670 0c29 00000000 		.4byte	0
 10671              	.LLST137:
 10672 0c2d 04030000 		.4byte	.LVL357
 10673 0c31 1C030000 		.4byte	.LVL361
 10674 0c35 0100     		.2byte	0x1
 10675 0c37 55       		.byte	0x55
 10676 0c38 00000000 		.4byte	0
 10677 0c3c 00000000 		.4byte	0
 10678              	.LLST76:
 10679 0c40 00000000 		.4byte	.LVL166
 10680 0c44 1F000000 		.4byte	.LVL169-1
 10681 0c48 0100     		.2byte	0x1
 10682 0c4a 50       		.byte	0x50
 10683 0c4b 1F000000 		.4byte	.LVL169-1
 10684 0c4f AC000000 		.4byte	.LFE15
 10685 0c53 0100     		.2byte	0x1
 10686 0c55 54       		.byte	0x54
 10687 0c56 00000000 		.4byte	0
 10688 0c5a 00000000 		.4byte	0
 10689              	.LLST77:
 10690 0c5e 00000000 		.4byte	.LVL166
 10691 0c62 14000000 		.4byte	.LVL167
 10692 0c66 0100     		.2byte	0x1
 10693 0c68 51       		.byte	0x51
 10694 0c69 14000000 		.4byte	.LVL167
 10695 0c6d AC000000 		.4byte	.LFE15
 10696 0c71 0100     		.2byte	0x1
 10697 0c73 56       		.byte	0x56
 10698 0c74 00000000 		.4byte	0
 10699 0c78 00000000 		.4byte	0
 10700              	.LLST78:
 10701 0c7c 00000000 		.4byte	.LVL166
 10702 0c80 20000000 		.4byte	.LVL169
 10703 0c84 0200     		.2byte	0x2
 10704 0c86 30       		.byte	0x30
 10705 0c87 9F       		.byte	0x9f
 10706 0c88 20000000 		.4byte	.LVL169
 10707 0c8c 24000000 		.4byte	.LVL170
 10708 0c90 0100     		.2byte	0x1
 10709 0c92 50       		.byte	0x50
 10710 0c93 28000000 		.4byte	.LVL171
 10711 0c97 30000000 		.4byte	.LVL172
 10712 0c9b 0100     		.2byte	0x1
 10713 0c9d 50       		.byte	0x50
 10714 0c9e 3C000000 		.4byte	.LVL173
 10715 0ca2 40000000 		.4byte	.LVL174
 10716 0ca6 0100     		.2byte	0x1
ARM GAS  /var/folders/3j/4xdnk5197cv_b7cw3n33qk7r0000gn/T//ccSq9Yz5.s 			page 189


 10717 0ca8 50       		.byte	0x50
 10718 0ca9 54000000 		.4byte	.LVL175
 10719 0cad 58000000 		.4byte	.LVL176
 10720 0cb1 0100     		.2byte	0x1
 10721 0cb3 50       		.byte	0x50
 10722 0cb4 6C000000 		.4byte	.LVL177
 10723 0cb8 70000000 		.4byte	.LVL178
 10724 0cbc 0100     		.2byte	0x1
 10725 0cbe 50       		.byte	0x50
 10726 0cbf 84000000 		.4byte	.LVL179
 10727 0cc3 88000000 		.4byte	.LVL180
 10728 0cc7 0100     		.2byte	0x1
 10729 0cc9 50       		.byte	0x50
 10730 0cca 9C000000 		.4byte	.LVL181
 10731 0cce A0000000 		.4byte	.LVL182
 10732 0cd2 0100     		.2byte	0x1
 10733 0cd4 50       		.byte	0x50
 10734 0cd5 A4000000 		.4byte	.LVL183
 10735 0cd9 AC000000 		.4byte	.LFE15
 10736 0cdd 0100     		.2byte	0x1
 10737 0cdf 50       		.byte	0x50
 10738 0ce0 00000000 		.4byte	0
 10739 0ce4 00000000 		.4byte	0
 10740              	.LLST79:
 10741 0ce8 00000000 		.4byte	.LVL166
 10742 0cec 1C000000 		.4byte	.LVL168
 10743 0cf0 0200     		.2byte	0x2
 10744 0cf2 30       		.byte	0x30
 10745 0cf3 9F       		.byte	0x9f
 10746 0cf4 1C000000 		.4byte	.LVL168
 10747 0cf8 AC000000 		.4byte	.LFE15
 10748 0cfc 0100     		.2byte	0x1
 10749 0cfe 55       		.byte	0x55
 10750 0cff 00000000 		.4byte	0
 10751 0d03 00000000 		.4byte	0
 10752              	.LLST61:
 10753 0d07 00000000 		.4byte	.LVL142
 10754 0d0b 3C000000 		.4byte	.LVL145
 10755 0d0f 0100     		.2byte	0x1
 10756 0d11 50       		.byte	0x50
 10757 0d12 3C000000 		.4byte	.LVL145
 10758 0d16 3C010000 		.4byte	.LFE14
 10759 0d1a 0300     		.2byte	0x3
 10760 0d1c 91       		.byte	0x91
 10761 0d1d BC7F     		.sleb128 -68
 10762 0d1f 00000000 		.4byte	0
 10763 0d23 00000000 		.4byte	0
 10764              	.LLST62:
 10765 0d27 00000000 		.4byte	.LVL142
 10766 0d2b 3C000000 		.4byte	.LVL145
 10767 0d2f 0100     		.2byte	0x1
 10768 0d31 51       		.byte	0x51
 10769 0d32 3C000000 		.4byte	.LVL145
 10770 0d36 3C010000 		.4byte	.LFE14
 10771 0d3a 0400     		.2byte	0x4
 10772 0d3c F3       		.byte	0xf3
 10773 0d3d 01       		.uleb128 0x1
ARM GAS  /var/folders/3j/4xdnk5197cv_b7cw3n33qk7r0000gn/T//ccSq9Yz5.s 			page 190


 10774 0d3e 51       		.byte	0x51
 10775 0d3f 9F       		.byte	0x9f
 10776 0d40 00000000 		.4byte	0
 10777 0d44 00000000 		.4byte	0
 10778              	.LLST63:
 10779 0d48 00000000 		.4byte	.LVL142
 10780 0d4c 3C000000 		.4byte	.LVL145
 10781 0d50 0100     		.2byte	0x1
 10782 0d52 52       		.byte	0x52
 10783 0d53 3C000000 		.4byte	.LVL145
 10784 0d57 B0000000 		.4byte	.LVL154
 10785 0d5b 0100     		.2byte	0x1
 10786 0d5d 59       		.byte	0x59
 10787 0d5e B0000000 		.4byte	.LVL154
 10788 0d62 3C010000 		.4byte	.LFE14
 10789 0d66 0400     		.2byte	0x4
 10790 0d68 F3       		.byte	0xf3
 10791 0d69 01       		.uleb128 0x1
 10792 0d6a 52       		.byte	0x52
 10793 0d6b 9F       		.byte	0x9f
 10794 0d6c 00000000 		.4byte	0
 10795 0d70 00000000 		.4byte	0
 10796              	.LLST64:
 10797 0d74 00000000 		.4byte	.LVL142
 10798 0d78 3C000000 		.4byte	.LVL145
 10799 0d7c 0100     		.2byte	0x1
 10800 0d7e 53       		.byte	0x53
 10801 0d7f 3C000000 		.4byte	.LVL145
 10802 0d83 B0000000 		.4byte	.LVL154
 10803 0d87 0100     		.2byte	0x1
 10804 0d89 57       		.byte	0x57
 10805 0d8a B0000000 		.4byte	.LVL154
 10806 0d8e B8000000 		.4byte	.LVL155
 10807 0d92 0400     		.2byte	0x4
 10808 0d94 F3       		.byte	0xf3
 10809 0d95 01       		.uleb128 0x1
 10810 0d96 53       		.byte	0x53
 10811 0d97 9F       		.byte	0x9f
 10812 0d98 B8000000 		.4byte	.LVL155
 10813 0d9c 14010000 		.4byte	.LVL162
 10814 0da0 0100     		.2byte	0x1
 10815 0da2 57       		.byte	0x57
 10816 0da3 14010000 		.4byte	.LVL162
 10817 0da7 3C010000 		.4byte	.LFE14
 10818 0dab 0400     		.2byte	0x4
 10819 0dad F3       		.byte	0xf3
 10820 0dae 01       		.uleb128 0x1
 10821 0daf 53       		.byte	0x53
 10822 0db0 9F       		.byte	0x9f
 10823 0db1 00000000 		.4byte	0
 10824 0db5 00000000 		.4byte	0
 10825              	.LLST65:
 10826 0db9 18000000 		.4byte	.LVL143
 10827 0dbd A4000000 		.4byte	.LVL152
 10828 0dc1 0200     		.2byte	0x2
 10829 0dc3 30       		.byte	0x30
 10830 0dc4 9F       		.byte	0x9f
ARM GAS  /var/folders/3j/4xdnk5197cv_b7cw3n33qk7r0000gn/T//ccSq9Yz5.s 			page 191


 10831 0dc5 A4000000 		.4byte	.LVL152
 10832 0dc9 B0000000 		.4byte	.LVL154
 10833 0dcd 0300     		.2byte	0x3
 10834 0dcf 09       		.byte	0x9
 10835 0dd0 CE       		.byte	0xce
 10836 0dd1 9F       		.byte	0x9f
 10837 0dd2 B8000000 		.4byte	.LVL155
 10838 0dd6 D4000000 		.4byte	.LVL157
 10839 0dda 0200     		.2byte	0x2
 10840 0ddc 30       		.byte	0x30
 10841 0ddd 9F       		.byte	0x9f
 10842 0dde D4000000 		.4byte	.LVL157
 10843 0de2 D8000000 		.4byte	.LVL158
 10844 0de6 0100     		.2byte	0x1
 10845 0de8 50       		.byte	0x50
 10846 0de9 00000000 		.4byte	0
 10847 0ded 00000000 		.4byte	0
 10848              	.LLST66:
 10849 0df1 20000000 		.4byte	.LVL144
 10850 0df5 3C000000 		.4byte	.LVL145
 10851 0df9 0200     		.2byte	0x2
 10852 0dfb 30       		.byte	0x30
 10853 0dfc 9F       		.byte	0x9f
 10854 0dfd 3C000000 		.4byte	.LVL145
 10855 0e01 64000000 		.4byte	.LVL147
 10856 0e05 0300     		.2byte	0x3
 10857 0e07 74       		.byte	0x74
 10858 0e08 7F       		.sleb128 -1
 10859 0e09 9F       		.byte	0x9f
 10860 0e0a 64000000 		.4byte	.LVL147
 10861 0e0e 9C000000 		.4byte	.LVL151
 10862 0e12 0100     		.2byte	0x1
 10863 0e14 54       		.byte	0x54
 10864 0e15 9C000000 		.4byte	.LVL151
 10865 0e19 B0000000 		.4byte	.LVL154
 10866 0e1d 0300     		.2byte	0x3
 10867 0e1f 74       		.byte	0x74
 10868 0e20 7F       		.sleb128 -1
 10869 0e21 9F       		.byte	0x9f
 10870 0e22 00000000 		.4byte	0
 10871 0e26 00000000 		.4byte	0
 10872              	.LLST67:
 10873 0e2a F0000000 		.4byte	.LVL161
 10874 0e2e 14010000 		.4byte	.LVL162
 10875 0e32 0200     		.2byte	0x2
 10876 0e34 30       		.byte	0x30
 10877 0e35 9F       		.byte	0x9f
 10878 0e36 14010000 		.4byte	.LVL162
 10879 0e3a 20010000 		.4byte	.LVL163
 10880 0e3e 0700     		.2byte	0x7
 10881 0e40 77       		.byte	0x77
 10882 0e41 00       		.sleb128 0
 10883 0e42 F3       		.byte	0xf3
 10884 0e43 01       		.uleb128 0x1
 10885 0e44 53       		.byte	0x53
 10886 0e45 1C       		.byte	0x1c
 10887 0e46 9F       		.byte	0x9f
ARM GAS  /var/folders/3j/4xdnk5197cv_b7cw3n33qk7r0000gn/T//ccSq9Yz5.s 			page 192


 10888 0e47 20010000 		.4byte	.LVL163
 10889 0e4b 2C010000 		.4byte	.LVL164
 10890 0e4f 0800     		.2byte	0x8
 10891 0e51 F3       		.byte	0xf3
 10892 0e52 01       		.uleb128 0x1
 10893 0e53 53       		.byte	0x53
 10894 0e54 20       		.byte	0x20
 10895 0e55 77       		.byte	0x77
 10896 0e56 00       		.sleb128 0
 10897 0e57 22       		.byte	0x22
 10898 0e58 9F       		.byte	0x9f
 10899 0e59 00000000 		.4byte	0
 10900 0e5d 00000000 		.4byte	0
 10901              	.LLST68:
 10902 0e61 20000000 		.4byte	.LVL144
 10903 0e65 3C000000 		.4byte	.LVL145
 10904 0e69 0100     		.2byte	0x1
 10905 0e6b 56       		.byte	0x56
 10906 0e6c 3C000000 		.4byte	.LVL145
 10907 0e70 64000000 		.4byte	.LVL147
 10908 0e74 0100     		.2byte	0x1
 10909 0e76 53       		.byte	0x53
 10910 0e77 64000000 		.4byte	.LVL147
 10911 0e7b 8C000000 		.4byte	.LVL150
 10912 0e7f 0100     		.2byte	0x1
 10913 0e81 56       		.byte	0x56
 10914 0e82 8C000000 		.4byte	.LVL150
 10915 0e86 AC000000 		.4byte	.LVL153
 10916 0e8a 0100     		.2byte	0x1
 10917 0e8c 53       		.byte	0x53
 10918 0e8d AC000000 		.4byte	.LVL153
 10919 0e91 B0000000 		.4byte	.LVL154
 10920 0e95 0200     		.2byte	0x2
 10921 0e97 91       		.byte	0x91
 10922 0e98 44       		.sleb128 -60
 10923 0e99 B8000000 		.4byte	.LVL155
 10924 0e9d 38010000 		.4byte	.LVL165
 10925 0ea1 0100     		.2byte	0x1
 10926 0ea3 56       		.byte	0x56
 10927 0ea4 00000000 		.4byte	0
 10928 0ea8 00000000 		.4byte	0
 10929              	.LLST69:
 10930 0eac 3C000000 		.4byte	.LVL145
 10931 0eb0 74000000 		.4byte	.LVL148
 10932 0eb4 0100     		.2byte	0x1
 10933 0eb6 53       		.byte	0x53
 10934 0eb7 8C000000 		.4byte	.LVL150
 10935 0ebb AC000000 		.4byte	.LVL153
 10936 0ebf 0100     		.2byte	0x1
 10937 0ec1 53       		.byte	0x53
 10938 0ec2 AC000000 		.4byte	.LVL153
 10939 0ec6 B0000000 		.4byte	.LVL154
 10940 0eca 0200     		.2byte	0x2
 10941 0ecc 91       		.byte	0x91
 10942 0ecd 44       		.sleb128 -60
 10943 0ece 00000000 		.4byte	0
 10944 0ed2 00000000 		.4byte	0
ARM GAS  /var/folders/3j/4xdnk5197cv_b7cw3n33qk7r0000gn/T//ccSq9Yz5.s 			page 193


 10945              	.LLST70:
 10946 0ed6 3C000000 		.4byte	.LVL145
 10947 0eda 44000000 		.4byte	.LVL146
 10948 0ede 0100     		.2byte	0x1
 10949 0ee0 51       		.byte	0x51
 10950 0ee1 44000000 		.4byte	.LVL146
 10951 0ee5 74000000 		.4byte	.LVL148
 10952 0ee9 0100     		.2byte	0x1
 10953 0eeb 55       		.byte	0x55
 10954 0eec 8C000000 		.4byte	.LVL150
 10955 0ef0 A4000000 		.4byte	.LVL152
 10956 0ef4 0100     		.2byte	0x1
 10957 0ef6 51       		.byte	0x51
 10958 0ef7 A4000000 		.4byte	.LVL152
 10959 0efb B0000000 		.4byte	.LVL154
 10960 0eff 0100     		.2byte	0x1
 10961 0f01 55       		.byte	0x55
 10962 0f02 00000000 		.4byte	0
 10963 0f06 00000000 		.4byte	0
 10964              	.LLST71:
 10965 0f0a 3C000000 		.4byte	.LVL145
 10966 0f0e 74000000 		.4byte	.LVL148
 10967 0f12 0100     		.2byte	0x1
 10968 0f14 57       		.byte	0x57
 10969 0f15 8C000000 		.4byte	.LVL150
 10970 0f19 B0000000 		.4byte	.LVL154
 10971 0f1d 0100     		.2byte	0x1
 10972 0f1f 57       		.byte	0x57
 10973 0f20 00000000 		.4byte	0
 10974 0f24 00000000 		.4byte	0
 10975              	.LLST72:
 10976 0f28 C4000000 		.4byte	.LVL156
 10977 0f2c D4000000 		.4byte	.LVL157
 10978 0f30 0100     		.2byte	0x1
 10979 0f32 57       		.byte	0x57
 10980 0f33 00000000 		.4byte	0
 10981 0f37 00000000 		.4byte	0
 10982              	.LLST73:
 10983 0f3b C4000000 		.4byte	.LVL156
 10984 0f3f D4000000 		.4byte	.LVL157
 10985 0f43 0300     		.2byte	0x3
 10986 0f45 91       		.byte	0x91
 10987 0f46 BC7F     		.sleb128 -68
 10988 0f48 00000000 		.4byte	0
 10989 0f4c 00000000 		.4byte	0
 10990              	.LLST74:
 10991 0f50 DC000000 		.4byte	.LVL159
 10992 0f54 E8000000 		.4byte	.LVL160
 10993 0f58 0300     		.2byte	0x3
 10994 0f5a 91       		.byte	0x91
 10995 0f5b 48       		.sleb128 -56
 10996 0f5c 9F       		.byte	0x9f
 10997 0f5d E8000000 		.4byte	.LVL160
 10998 0f61 EF000000 		.4byte	.LVL161-1
 10999 0f65 0100     		.2byte	0x1
 11000 0f67 52       		.byte	0x52
 11001 0f68 EF000000 		.4byte	.LVL161-1
ARM GAS  /var/folders/3j/4xdnk5197cv_b7cw3n33qk7r0000gn/T//ccSq9Yz5.s 			page 194


 11002 0f6c F0000000 		.4byte	.LVL161
 11003 0f70 0300     		.2byte	0x3
 11004 0f72 91       		.byte	0x91
 11005 0f73 48       		.sleb128 -56
 11006 0f74 9F       		.byte	0x9f
 11007 0f75 00000000 		.4byte	0
 11008 0f79 00000000 		.4byte	0
 11009              	.LLST75:
 11010 0f7d DC000000 		.4byte	.LVL159
 11011 0f81 F0000000 		.4byte	.LVL161
 11012 0f85 0300     		.2byte	0x3
 11013 0f87 91       		.byte	0x91
 11014 0f88 BC7F     		.sleb128 -68
 11015 0f8a 00000000 		.4byte	0
 11016 0f8e 00000000 		.4byte	0
 11017              	.LLST48:
 11018 0f92 00000000 		.4byte	.LVL122
 11019 0f96 94000000 		.4byte	.LVL133
 11020 0f9a 0100     		.2byte	0x1
 11021 0f9c 50       		.byte	0x50
 11022 0f9d 94000000 		.4byte	.LVL133
 11023 0fa1 BC000000 		.4byte	.LFE11
 11024 0fa5 0400     		.2byte	0x4
 11025 0fa7 F3       		.byte	0xf3
 11026 0fa8 01       		.uleb128 0x1
 11027 0fa9 50       		.byte	0x50
 11028 0faa 9F       		.byte	0x9f
 11029 0fab 00000000 		.4byte	0
 11030 0faf 00000000 		.4byte	0
 11031              	.LLST49:
 11032 0fb3 00000000 		.4byte	.LVL122
 11033 0fb7 38000000 		.4byte	.LVL126
 11034 0fbb 0100     		.2byte	0x1
 11035 0fbd 51       		.byte	0x51
 11036 0fbe 38000000 		.4byte	.LVL126
 11037 0fc2 BC000000 		.4byte	.LFE11
 11038 0fc6 0400     		.2byte	0x4
 11039 0fc8 F3       		.byte	0xf3
 11040 0fc9 01       		.uleb128 0x1
 11041 0fca 51       		.byte	0x51
 11042 0fcb 9F       		.byte	0x9f
 11043 0fcc 00000000 		.4byte	0
 11044 0fd0 00000000 		.4byte	0
 11045              	.LLST50:
 11046 0fd4 00000000 		.4byte	.LVL122
 11047 0fd8 98000000 		.4byte	.LVL134
 11048 0fdc 0100     		.2byte	0x1
 11049 0fde 52       		.byte	0x52
 11050 0fdf 98000000 		.4byte	.LVL134
 11051 0fe3 BC000000 		.4byte	.LFE11
 11052 0fe7 0400     		.2byte	0x4
 11053 0fe9 F3       		.byte	0xf3
 11054 0fea 01       		.uleb128 0x1
 11055 0feb 52       		.byte	0x52
 11056 0fec 9F       		.byte	0x9f
 11057 0fed 00000000 		.4byte	0
 11058 0ff1 00000000 		.4byte	0
ARM GAS  /var/folders/3j/4xdnk5197cv_b7cw3n33qk7r0000gn/T//ccSq9Yz5.s 			page 195


 11059              	.LLST51:
 11060 0ff5 00000000 		.4byte	.LVL122
 11061 0ff9 34000000 		.4byte	.LVL125
 11062 0ffd 0200     		.2byte	0x2
 11063 0fff 30       		.byte	0x30
 11064 1000 9F       		.byte	0x9f
 11065 1001 34000000 		.4byte	.LVL125
 11066 1005 BC000000 		.4byte	.LFE11
 11067 1009 0100     		.2byte	0x1
 11068 100b 5B       		.byte	0x5b
 11069 100c 00000000 		.4byte	0
 11070 1010 00000000 		.4byte	0
 11071              	.LLST52:
 11072 1014 0C000000 		.4byte	.LVL123
 11073 1018 2C000000 		.4byte	.LVL124
 11074 101c 0100     		.2byte	0x1
 11075 101e 58       		.byte	0x58
 11076 101f 2C000000 		.4byte	.LVL124
 11077 1023 BC000000 		.4byte	.LFE11
 11078 1027 0300     		.2byte	0x3
 11079 1029 78       		.byte	0x78
 11080 102a 01       		.sleb128 1
 11081 102b 9F       		.byte	0x9f
 11082 102c 00000000 		.4byte	0
 11083 1030 00000000 		.4byte	0
 11084              	.LLST53:
 11085 1034 00000000 		.4byte	.LVL122
 11086 1038 38000000 		.4byte	.LVL126
 11087 103c 0200     		.2byte	0x2
 11088 103e 30       		.byte	0x30
 11089 103f 9F       		.byte	0x9f
 11090 1040 38000000 		.4byte	.LVL126
 11091 1044 BC000000 		.4byte	.LFE11
 11092 1048 0100     		.2byte	0x1
 11093 104a 55       		.byte	0x55
 11094 104b 00000000 		.4byte	0
 11095 104f 00000000 		.4byte	0
 11096              	.LLST54:
 11097 1053 00000000 		.4byte	.LVL122
 11098 1057 38000000 		.4byte	.LVL126
 11099 105b 0200     		.2byte	0x2
 11100 105d 30       		.byte	0x30
 11101 105e 9F       		.byte	0x9f
 11102 105f 40000000 		.4byte	.LVL127
 11103 1063 74000000 		.4byte	.LVL129
 11104 1067 0100     		.2byte	0x1
 11105 1069 51       		.byte	0x51
 11106 106a 74000000 		.4byte	.LVL129
 11107 106e 7C000000 		.4byte	.LVL130
 11108 1072 0300     		.2byte	0x3
 11109 1074 71       		.byte	0x71
 11110 1075 7F       		.sleb128 -1
 11111 1076 9F       		.byte	0x9f
 11112 1077 7C000000 		.4byte	.LVL130
 11113 107b 8C000000 		.4byte	.LVL132
 11114 107f 0100     		.2byte	0x1
 11115 1081 51       		.byte	0x51
ARM GAS  /var/folders/3j/4xdnk5197cv_b7cw3n33qk7r0000gn/T//ccSq9Yz5.s 			page 196


 11116 1082 8C000000 		.4byte	.LVL132
 11117 1086 98000000 		.4byte	.LVL134
 11118 108a 0200     		.2byte	0x2
 11119 108c 30       		.byte	0x30
 11120 108d 9F       		.byte	0x9f
 11121 108e 98000000 		.4byte	.LVL134
 11122 1092 BC000000 		.4byte	.LFE11
 11123 1096 0100     		.2byte	0x1
 11124 1098 51       		.byte	0x51
 11125 1099 00000000 		.4byte	0
 11126 109d 00000000 		.4byte	0
 11127              	.LLST55:
 11128 10a1 40000000 		.4byte	.LVL127
 11129 10a5 8C000000 		.4byte	.LVL132
 11130 10a9 0100     		.2byte	0x1
 11131 10ab 5C       		.byte	0x5c
 11132 10ac 8C000000 		.4byte	.LVL132
 11133 10b0 94000000 		.4byte	.LVL133
 11134 10b4 0700     		.2byte	0x7
 11135 10b6 72       		.byte	0x72
 11136 10b7 00       		.sleb128 0
 11137 10b8 33       		.byte	0x33
 11138 10b9 25       		.byte	0x25
 11139 10ba 70       		.byte	0x70
 11140 10bb 00       		.sleb128 0
 11141 10bc 22       		.byte	0x22
 11142 10bd 94000000 		.4byte	.LVL133
 11143 10c1 98000000 		.4byte	.LVL134
 11144 10c5 0100     		.2byte	0x1
 11145 10c7 50       		.byte	0x50
 11146 10c8 00000000 		.4byte	0
 11147 10cc 00000000 		.4byte	0
 11148              	.LLST56:
 11149 10d0 00000000 		.4byte	.LVL122
 11150 10d4 38000000 		.4byte	.LVL126
 11151 10d8 0200     		.2byte	0x2
 11152 10da 30       		.byte	0x30
 11153 10db 9F       		.byte	0x9f
 11154 10dc 38000000 		.4byte	.LVL126
 11155 10e0 BC000000 		.4byte	.LFE11
 11156 10e4 0100     		.2byte	0x1
 11157 10e6 54       		.byte	0x54
 11158 10e7 00000000 		.4byte	0
 11159 10eb 00000000 		.4byte	0
 11160              	.LLST34:
 11161 10ef 00000000 		.4byte	.LVL96
 11162 10f3 28000000 		.4byte	.LVL100
 11163 10f7 0100     		.2byte	0x1
 11164 10f9 50       		.byte	0x50
 11165 10fa 28000000 		.4byte	.LVL100
 11166 10fe 74000000 		.4byte	.LFE8
 11167 1102 0400     		.2byte	0x4
 11168 1104 F3       		.byte	0xf3
 11169 1105 01       		.uleb128 0x1
 11170 1106 50       		.byte	0x50
 11171 1107 9F       		.byte	0x9f
 11172 1108 00000000 		.4byte	0
ARM GAS  /var/folders/3j/4xdnk5197cv_b7cw3n33qk7r0000gn/T//ccSq9Yz5.s 			page 197


 11173 110c 00000000 		.4byte	0
 11174              	.LLST35:
 11175 1110 00000000 		.4byte	.LVL96
 11176 1114 24000000 		.4byte	.LVL99
 11177 1118 0100     		.2byte	0x1
 11178 111a 52       		.byte	0x52
 11179 111b 24000000 		.4byte	.LVL99
 11180 111f 74000000 		.4byte	.LFE8
 11181 1123 0400     		.2byte	0x4
 11182 1125 F3       		.byte	0xf3
 11183 1126 01       		.uleb128 0x1
 11184 1127 52       		.byte	0x52
 11185 1128 9F       		.byte	0x9f
 11186 1129 00000000 		.4byte	0
 11187 112d 00000000 		.4byte	0
 11188              	.LLST36:
 11189 1131 14000000 		.4byte	.LVL98
 11190 1135 24000000 		.4byte	.LVL99
 11191 1139 0500     		.2byte	0x5
 11192 113b 72       		.byte	0x72
 11193 113c 00       		.sleb128 0
 11194 113d 37       		.byte	0x37
 11195 113e 1A       		.byte	0x1a
 11196 113f 9F       		.byte	0x9f
 11197 1140 24000000 		.4byte	.LVL99
 11198 1144 74000000 		.4byte	.LFE8
 11199 1148 0100     		.2byte	0x1
 11200 114a 52       		.byte	0x52
 11201 114b 00000000 		.4byte	0
 11202 114f 00000000 		.4byte	0
 11203              	.LLST37:
 11204 1153 14000000 		.4byte	.LVL98
 11205 1157 28000000 		.4byte	.LVL100
 11206 115b 0100     		.2byte	0x1
 11207 115d 55       		.byte	0x55
 11208 115e 28000000 		.4byte	.LVL100
 11209 1162 58000000 		.4byte	.LVL106
 11210 1166 0100     		.2byte	0x1
 11211 1168 54       		.byte	0x54
 11212 1169 58000000 		.4byte	.LVL106
 11213 116d 5C000000 		.4byte	.LVL107
 11214 1171 0300     		.2byte	0x3
 11215 1173 74       		.byte	0x74
 11216 1174 01       		.sleb128 1
 11217 1175 9F       		.byte	0x9f
 11218 1176 5C000000 		.4byte	.LVL107
 11219 117a 70000000 		.4byte	.LVL110
 11220 117e 0100     		.2byte	0x1
 11221 1180 54       		.byte	0x54
 11222 1181 70000000 		.4byte	.LVL110
 11223 1185 74000000 		.4byte	.LFE8
 11224 1189 0300     		.2byte	0x3
 11225 118b 74       		.byte	0x74
 11226 118c 01       		.sleb128 1
 11227 118d 9F       		.byte	0x9f
 11228 118e 00000000 		.4byte	0
 11229 1192 00000000 		.4byte	0
ARM GAS  /var/folders/3j/4xdnk5197cv_b7cw3n33qk7r0000gn/T//ccSq9Yz5.s 			page 198


 11230              	.LLST38:
 11231 1196 28000000 		.4byte	.LVL100
 11232 119a 40000000 		.4byte	.LVL103
 11233 119e 0200     		.2byte	0x2
 11234 11a0 30       		.byte	0x30
 11235 11a1 9F       		.byte	0x9f
 11236 11a2 40000000 		.4byte	.LVL103
 11237 11a6 4C000000 		.4byte	.LVL104
 11238 11aa 0100     		.2byte	0x1
 11239 11ac 5E       		.byte	0x5e
 11240 11ad 4C000000 		.4byte	.LVL104
 11241 11b1 54000000 		.4byte	.LVL105
 11242 11b5 0300     		.2byte	0x3
 11243 11b7 7E       		.byte	0x7e
 11244 11b8 7F       		.sleb128 -1
 11245 11b9 9F       		.byte	0x9f
 11246 11ba 54000000 		.4byte	.LVL105
 11247 11be 6C000000 		.4byte	.LVL109
 11248 11c2 0100     		.2byte	0x1
 11249 11c4 5E       		.byte	0x5e
 11250 11c5 00000000 		.4byte	0
 11251 11c9 00000000 		.4byte	0
 11252              	.LLST39:
 11253 11cd 38000000 		.4byte	.LVL101
 11254 11d1 3C000000 		.4byte	.LVL102
 11255 11d5 0100     		.2byte	0x1
 11256 11d7 5C       		.byte	0x5c
 11257 11d8 3C000000 		.4byte	.LVL102
 11258 11dc 40000000 		.4byte	.LVL103
 11259 11e0 0200     		.2byte	0x2
 11260 11e2 70       		.byte	0x70
 11261 11e3 00       		.sleb128 0
 11262 11e4 40000000 		.4byte	.LVL103
 11263 11e8 74000000 		.4byte	.LFE8
 11264 11ec 0100     		.2byte	0x1
 11265 11ee 5C       		.byte	0x5c
 11266 11ef 00000000 		.4byte	0
 11267 11f3 00000000 		.4byte	0
 11268              	.LLST40:
 11269 11f7 00000000 		.4byte	.LVL96
 11270 11fb 68000000 		.4byte	.LVL108
 11271 11ff 0200     		.2byte	0x2
 11272 1201 30       		.byte	0x30
 11273 1202 9F       		.byte	0x9f
 11274 1203 68000000 		.4byte	.LVL108
 11275 1207 74000000 		.4byte	.LFE8
 11276 120b 0200     		.2byte	0x2
 11277 120d 31       		.byte	0x31
 11278 120e 9F       		.byte	0x9f
 11279 120f 00000000 		.4byte	0
 11280 1213 00000000 		.4byte	0
 11281              	.LLST32:
 11282 1217 00000000 		.4byte	.LVL85
 11283 121b 13000000 		.4byte	.LVL86-1
 11284 121f 0100     		.2byte	0x1
 11285 1221 50       		.byte	0x50
 11286 1222 13000000 		.4byte	.LVL86-1
ARM GAS  /var/folders/3j/4xdnk5197cv_b7cw3n33qk7r0000gn/T//ccSq9Yz5.s 			page 199


 11287 1226 64000000 		.4byte	.LFE7
 11288 122a 0100     		.2byte	0x1
 11289 122c 54       		.byte	0x54
 11290 122d 00000000 		.4byte	0
 11291 1231 00000000 		.4byte	0
 11292              	.LLST33:
 11293 1235 00000000 		.4byte	.LVL85
 11294 1239 14000000 		.4byte	.LVL86
 11295 123d 0200     		.2byte	0x2
 11296 123f 30       		.byte	0x30
 11297 1240 9F       		.byte	0x9f
 11298 1241 14000000 		.4byte	.LVL86
 11299 1245 18000000 		.4byte	.LVL87
 11300 1249 0100     		.2byte	0x1
 11301 124b 50       		.byte	0x50
 11302 124c 1C000000 		.4byte	.LVL88
 11303 1250 24000000 		.4byte	.LVL89
 11304 1254 0100     		.2byte	0x1
 11305 1256 50       		.byte	0x50
 11306 1257 30000000 		.4byte	.LVL90
 11307 125b 34000000 		.4byte	.LVL91
 11308 125f 0100     		.2byte	0x1
 11309 1261 50       		.byte	0x50
 11310 1262 54000000 		.4byte	.LVL93
 11311 1266 58000000 		.4byte	.LVL94
 11312 126a 0100     		.2byte	0x1
 11313 126c 50       		.byte	0x50
 11314 126d 5C000000 		.4byte	.LVL95
 11315 1271 64000000 		.4byte	.LFE7
 11316 1275 0100     		.2byte	0x1
 11317 1277 50       		.byte	0x50
 11318 1278 00000000 		.4byte	0
 11319 127c 00000000 		.4byte	0
 11320              	.LLST28:
 11321 1280 00000000 		.4byte	.LVL78
 11322 1284 17000000 		.4byte	.LVL80-1
 11323 1288 0100     		.2byte	0x1
 11324 128a 50       		.byte	0x50
 11325 128b 17000000 		.4byte	.LVL80-1
 11326 128f 4C000000 		.4byte	.LFE6
 11327 1293 0400     		.2byte	0x4
 11328 1295 F3       		.byte	0xf3
 11329 1296 01       		.uleb128 0x1
 11330 1297 50       		.byte	0x50
 11331 1298 9F       		.byte	0x9f
 11332 1299 00000000 		.4byte	0
 11333 129d 00000000 		.4byte	0
 11334              	.LLST29:
 11335 12a1 00000000 		.4byte	.LVL78
 11336 12a5 14000000 		.4byte	.LVL79
 11337 12a9 0100     		.2byte	0x1
 11338 12ab 51       		.byte	0x51
 11339 12ac 14000000 		.4byte	.LVL79
 11340 12b0 4C000000 		.4byte	.LFE6
 11341 12b4 0100     		.2byte	0x1
 11342 12b6 54       		.byte	0x54
 11343 12b7 00000000 		.4byte	0
ARM GAS  /var/folders/3j/4xdnk5197cv_b7cw3n33qk7r0000gn/T//ccSq9Yz5.s 			page 200


 11344 12bb 00000000 		.4byte	0
 11345              	.LLST30:
 11346 12bf 00000000 		.4byte	.LVL78
 11347 12c3 18000000 		.4byte	.LVL80
 11348 12c7 0200     		.2byte	0x2
 11349 12c9 30       		.byte	0x30
 11350 12ca 9F       		.byte	0x9f
 11351 12cb 18000000 		.4byte	.LVL80
 11352 12cf 1C000000 		.4byte	.LVL81
 11353 12d3 0100     		.2byte	0x1
 11354 12d5 50       		.byte	0x50
 11355 12d6 00000000 		.4byte	0
 11356 12da 00000000 		.4byte	0
 11357              	.LLST31:
 11358 12de 2C000000 		.4byte	.LVL82
 11359 12e2 34000000 		.4byte	.LVL83
 11360 12e6 0100     		.2byte	0x1
 11361 12e8 53       		.byte	0x53
 11362 12e9 34000000 		.4byte	.LVL83
 11363 12ed 44000000 		.4byte	.LVL84
 11364 12f1 0D00     		.2byte	0xd
 11365 12f3 91       		.byte	0x91
 11366 12f4 6E       		.sleb128 -18
 11367 12f5 94       		.byte	0x94
 11368 12f6 02       		.byte	0x2
 11369 12f7 0A       		.byte	0xa
 11370 12f8 FFFF     		.2byte	0xffff
 11371 12fa 1A       		.byte	0x1a
 11372 12fb 44       		.byte	0x44
 11373 12fc 24       		.byte	0x24
 11374 12fd 44       		.byte	0x44
 11375 12fe 25       		.byte	0x25
 11376 12ff 9F       		.byte	0x9f
 11377 1300 00000000 		.4byte	0
 11378 1304 00000000 		.4byte	0
 11379              	.LLST26:
 11380 1308 00000000 		.4byte	.LVL73
 11381 130c 23000000 		.4byte	.LVL75-1
 11382 1310 0100     		.2byte	0x1
 11383 1312 50       		.byte	0x50
 11384 1313 23000000 		.4byte	.LVL75-1
 11385 1317 24000000 		.4byte	.LVL75
 11386 131b 0400     		.2byte	0x4
 11387 131d F3       		.byte	0xf3
 11388 131e 01       		.uleb128 0x1
 11389 131f 50       		.byte	0x50
 11390 1320 9F       		.byte	0x9f
 11391 1321 24000000 		.4byte	.LVL75
 11392 1325 4B000000 		.4byte	.LVL77-1
 11393 1329 0100     		.2byte	0x1
 11394 132b 50       		.byte	0x50
 11395 132c 4B000000 		.4byte	.LVL77-1
 11396 1330 58000000 		.4byte	.LFE5
 11397 1334 0400     		.2byte	0x4
 11398 1336 F3       		.byte	0xf3
 11399 1337 01       		.uleb128 0x1
 11400 1338 50       		.byte	0x50
ARM GAS  /var/folders/3j/4xdnk5197cv_b7cw3n33qk7r0000gn/T//ccSq9Yz5.s 			page 201


 11401 1339 9F       		.byte	0x9f
 11402 133a 00000000 		.4byte	0
 11403 133e 00000000 		.4byte	0
 11404              	.LLST27:
 11405 1342 00000000 		.4byte	.LVL73
 11406 1346 20000000 		.4byte	.LVL74
 11407 134a 0100     		.2byte	0x1
 11408 134c 51       		.byte	0x51
 11409 134d 20000000 		.4byte	.LVL74
 11410 1351 24000000 		.4byte	.LVL75
 11411 1355 0400     		.2byte	0x4
 11412 1357 F3       		.byte	0xf3
 11413 1358 01       		.uleb128 0x1
 11414 1359 51       		.byte	0x51
 11415 135a 9F       		.byte	0x9f
 11416 135b 24000000 		.4byte	.LVL75
 11417 135f 34000000 		.4byte	.LVL76
 11418 1363 0100     		.2byte	0x1
 11419 1365 51       		.byte	0x51
 11420 1366 34000000 		.4byte	.LVL76
 11421 136a 58000000 		.4byte	.LFE5
 11422 136e 0400     		.2byte	0x4
 11423 1370 F3       		.byte	0xf3
 11424 1371 01       		.uleb128 0x1
 11425 1372 51       		.byte	0x51
 11426 1373 9F       		.byte	0x9f
 11427 1374 00000000 		.4byte	0
 11428 1378 00000000 		.4byte	0
 11429              	.LLST16:
 11430 137c 00000000 		.4byte	.LVL42
 11431 1380 10000000 		.4byte	.LVL43
 11432 1384 0100     		.2byte	0x1
 11433 1386 50       		.byte	0x50
 11434 1387 10000000 		.4byte	.LVL43
 11435 138b 48010000 		.4byte	.LFE4
 11436 138f 0400     		.2byte	0x4
 11437 1391 F3       		.byte	0xf3
 11438 1392 01       		.uleb128 0x1
 11439 1393 50       		.byte	0x50
 11440 1394 9F       		.byte	0x9f
 11441 1395 00000000 		.4byte	0
 11442 1399 00000000 		.4byte	0
 11443              	.LLST17:
 11444 139d 00000000 		.4byte	.LVL42
 11445 13a1 14000000 		.4byte	.LVL44
 11446 13a5 0100     		.2byte	0x1
 11447 13a7 51       		.byte	0x51
 11448 13a8 14000000 		.4byte	.LVL44
 11449 13ac 1C000000 		.4byte	.LVL45
 11450 13b0 0400     		.2byte	0x4
 11451 13b2 F3       		.byte	0xf3
 11452 13b3 01       		.uleb128 0x1
 11453 13b4 51       		.byte	0x51
 11454 13b5 9F       		.byte	0x9f
 11455 13b6 1C000000 		.4byte	.LVL45
 11456 13ba 20000000 		.4byte	.LVL46
 11457 13be 0100     		.2byte	0x1
ARM GAS  /var/folders/3j/4xdnk5197cv_b7cw3n33qk7r0000gn/T//ccSq9Yz5.s 			page 202


 11458 13c0 51       		.byte	0x51
 11459 13c1 20000000 		.4byte	.LVL46
 11460 13c5 E8000000 		.4byte	.LVL67
 11461 13c9 0100     		.2byte	0x1
 11462 13cb 57       		.byte	0x57
 11463 13cc E8000000 		.4byte	.LVL67
 11464 13d0 EC000000 		.4byte	.LVL68
 11465 13d4 0500     		.2byte	0x5
 11466 13d6 77       		.byte	0x77
 11467 13d7 80807E   		.sleb128 -32768
 11468 13da 9F       		.byte	0x9f
 11469 13db EC000000 		.4byte	.LVL68
 11470 13df 40010000 		.4byte	.LVL72
 11471 13e3 0400     		.2byte	0x4
 11472 13e5 F3       		.byte	0xf3
 11473 13e6 01       		.uleb128 0x1
 11474 13e7 51       		.byte	0x51
 11475 13e8 9F       		.byte	0x9f
 11476 13e9 40010000 		.4byte	.LVL72
 11477 13ed 48010000 		.4byte	.LFE4
 11478 13f1 0100     		.2byte	0x1
 11479 13f3 57       		.byte	0x57
 11480 13f4 00000000 		.4byte	0
 11481 13f8 00000000 		.4byte	0
 11482              	.LLST18:
 11483 13fc 00000000 		.4byte	.LVL42
 11484 1400 14000000 		.4byte	.LVL44
 11485 1404 0100     		.2byte	0x1
 11486 1406 52       		.byte	0x52
 11487 1407 14000000 		.4byte	.LVL44
 11488 140b 1C000000 		.4byte	.LVL45
 11489 140f 0400     		.2byte	0x4
 11490 1411 F3       		.byte	0xf3
 11491 1412 01       		.uleb128 0x1
 11492 1413 52       		.byte	0x52
 11493 1414 9F       		.byte	0x9f
 11494 1415 1C000000 		.4byte	.LVL45
 11495 1419 2B000000 		.4byte	.LVL47-1
 11496 141d 0100     		.2byte	0x1
 11497 141f 52       		.byte	0x52
 11498 1420 2B000000 		.4byte	.LVL47-1
 11499 1424 48010000 		.4byte	.LFE4
 11500 1428 0100     		.2byte	0x1
 11501 142a 58       		.byte	0x58
 11502 142b 00000000 		.4byte	0
 11503 142f 00000000 		.4byte	0
 11504              	.LLST19:
 11505 1433 00000000 		.4byte	.LVL42
 11506 1437 14000000 		.4byte	.LVL44
 11507 143b 0200     		.2byte	0x2
 11508 143d 30       		.byte	0x30
 11509 143e 9F       		.byte	0x9f
 11510 143f 1C000000 		.4byte	.LVL45
 11511 1443 2C000000 		.4byte	.LVL47
 11512 1447 0200     		.2byte	0x2
 11513 1449 30       		.byte	0x30
 11514 144a 9F       		.byte	0x9f
ARM GAS  /var/folders/3j/4xdnk5197cv_b7cw3n33qk7r0000gn/T//ccSq9Yz5.s 			page 203


 11515 144b 2C000000 		.4byte	.LVL47
 11516 144f 30000000 		.4byte	.LVL48
 11517 1453 0100     		.2byte	0x1
 11518 1455 50       		.byte	0x50
 11519 1456 44000000 		.4byte	.LVL49
 11520 145a 48000000 		.4byte	.LVL50
 11521 145e 0100     		.2byte	0x1
 11522 1460 50       		.byte	0x50
 11523 1461 5C000000 		.4byte	.LVL51
 11524 1465 60000000 		.4byte	.LVL52
 11525 1469 0100     		.2byte	0x1
 11526 146b 50       		.byte	0x50
 11527 146c 74000000 		.4byte	.LVL53
 11528 1470 78000000 		.4byte	.LVL54
 11529 1474 0100     		.2byte	0x1
 11530 1476 50       		.byte	0x50
 11531 1477 A4000000 		.4byte	.LVL57
 11532 147b B8000000 		.4byte	.LVL60
 11533 147f 0200     		.2byte	0x2
 11534 1481 30       		.byte	0x30
 11535 1482 9F       		.byte	0x9f
 11536 1483 B8000000 		.4byte	.LVL60
 11537 1487 BC000000 		.4byte	.LVL61
 11538 148b 0100     		.2byte	0x1
 11539 148d 50       		.byte	0x50
 11540 148e C0000000 		.4byte	.LVL62
 11541 1492 C8000000 		.4byte	.LVL63
 11542 1496 0100     		.2byte	0x1
 11543 1498 50       		.byte	0x50
 11544 1499 D0000000 		.4byte	.LVL64
 11545 149d 14010000 		.4byte	.LVL69
 11546 14a1 0200     		.2byte	0x2
 11547 14a3 30       		.byte	0x30
 11548 14a4 9F       		.byte	0x9f
 11549 14a5 14010000 		.4byte	.LVL69
 11550 14a9 18010000 		.4byte	.LVL70
 11551 14ad 0100     		.2byte	0x1
 11552 14af 50       		.byte	0x50
 11553 14b0 38010000 		.4byte	.LVL71
 11554 14b4 40010000 		.4byte	.LVL72
 11555 14b8 0100     		.2byte	0x1
 11556 14ba 50       		.byte	0x50
 11557 14bb 40010000 		.4byte	.LVL72
 11558 14bf 48010000 		.4byte	.LFE4
 11559 14c3 0200     		.2byte	0x2
 11560 14c5 30       		.byte	0x30
 11561 14c6 9F       		.byte	0x9f
 11562 14c7 00000000 		.4byte	0
 11563 14cb 00000000 		.4byte	0
 11564              	.LLST20:
 11565 14cf 00000000 		.4byte	.LVL42
 11566 14d3 14000000 		.4byte	.LVL44
 11567 14d7 0200     		.2byte	0x2
 11568 14d9 30       		.byte	0x30
 11569 14da 9F       		.byte	0x9f
 11570 14db 1C000000 		.4byte	.LVL45
 11571 14df 8C000000 		.4byte	.LVL55
ARM GAS  /var/folders/3j/4xdnk5197cv_b7cw3n33qk7r0000gn/T//ccSq9Yz5.s 			page 204


 11572 14e3 0200     		.2byte	0x2
 11573 14e5 30       		.byte	0x30
 11574 14e6 9F       		.byte	0x9f
 11575 14e7 8C000000 		.4byte	.LVL55
 11576 14eb 48010000 		.4byte	.LFE4
 11577 14ef 0100     		.2byte	0x1
 11578 14f1 59       		.byte	0x59
 11579 14f2 00000000 		.4byte	0
 11580 14f6 00000000 		.4byte	0
 11581              	.LLST21:
 11582 14fa 00000000 		.4byte	.LVL42
 11583 14fe 14000000 		.4byte	.LVL44
 11584 1502 0200     		.2byte	0x2
 11585 1504 30       		.byte	0x30
 11586 1505 9F       		.byte	0x9f
 11587 1506 1C000000 		.4byte	.LVL45
 11588 150a 8C000000 		.4byte	.LVL55
 11589 150e 0200     		.2byte	0x2
 11590 1510 30       		.byte	0x30
 11591 1511 9F       		.byte	0x9f
 11592 1512 8C000000 		.4byte	.LVL55
 11593 1516 9C000000 		.4byte	.LVL56
 11594 151a 0100     		.2byte	0x1
 11595 151c 56       		.byte	0x56
 11596 151d A4000000 		.4byte	.LVL57
 11597 1521 48010000 		.4byte	.LFE4
 11598 1525 0100     		.2byte	0x1
 11599 1527 56       		.byte	0x56
 11600 1528 00000000 		.4byte	0
 11601 152c 00000000 		.4byte	0
 11602              	.LLST22:
 11603 1530 D8000000 		.4byte	.LVL65
 11604 1534 40010000 		.4byte	.LVL72
 11605 1538 1200     		.2byte	0x12
 11606 153a 79       		.byte	0x79
 11607 153b 00       		.sleb128 0
 11608 153c 0A       		.byte	0xa
 11609 153d FFFF     		.2byte	0xffff
 11610 153f 1A       		.byte	0x1a
 11611 1540 40       		.byte	0x40
 11612 1541 24       		.byte	0x24
 11613 1542 F7       		.byte	0xf7
 11614 1543 25       		.uleb128 0x25
 11615 1544 76       		.byte	0x76
 11616 1545 00       		.sleb128 0
 11617 1546 F7       		.byte	0xf7
 11618 1547 25       		.uleb128 0x25
 11619 1548 1B       		.byte	0x1b
 11620 1549 F7       		.byte	0xf7
 11621 154a 00       		.uleb128 0
 11622 154b 9F       		.byte	0x9f
 11623 154c 00000000 		.4byte	0
 11624 1550 00000000 		.4byte	0
 11625              	.LLST23:
 11626 1554 D8000000 		.4byte	.LVL65
 11627 1558 40010000 		.4byte	.LVL72
 11628 155c 1800     		.2byte	0x18
ARM GAS  /var/folders/3j/4xdnk5197cv_b7cw3n33qk7r0000gn/T//ccSq9Yz5.s 			page 205


 11629 155e 79       		.byte	0x79
 11630 155f 00       		.sleb128 0
 11631 1560 0A       		.byte	0xa
 11632 1561 FFFF     		.2byte	0xffff
 11633 1563 1A       		.byte	0x1a
 11634 1564 40       		.byte	0x40
 11635 1565 24       		.byte	0x24
 11636 1566 F7       		.byte	0xf7
 11637 1567 25       		.uleb128 0x25
 11638 1568 76       		.byte	0x76
 11639 1569 00       		.sleb128 0
 11640 156a F7       		.byte	0xf7
 11641 156b 25       		.uleb128 0x25
 11642 156c 1B       		.byte	0x1b
 11643 156d F7       		.byte	0xf7
 11644 156e 00       		.uleb128 0
 11645 156f 23       		.byte	0x23
 11646 1570 808002   		.uleb128 0x8000
 11647 1573 40       		.byte	0x40
 11648 1574 25       		.byte	0x25
 11649 1575 9F       		.byte	0x9f
 11650 1576 00000000 		.4byte	0
 11651 157a 00000000 		.4byte	0
 11652              	.LLST24:
 11653 157e D8000000 		.4byte	.LVL65
 11654 1582 E8000000 		.4byte	.LVL67
 11655 1586 0700     		.2byte	0x7
 11656 1588 77       		.byte	0x77
 11657 1589 808002   		.sleb128 32768
 11658 158c 40       		.byte	0x40
 11659 158d 25       		.byte	0x25
 11660 158e 9F       		.byte	0x9f
 11661 158f E8000000 		.4byte	.LVL67
 11662 1593 EC000000 		.4byte	.LVL68
 11663 1597 0500     		.2byte	0x5
 11664 1599 77       		.byte	0x77
 11665 159a 00       		.sleb128 0
 11666 159b 40       		.byte	0x40
 11667 159c 25       		.byte	0x25
 11668 159d 9F       		.byte	0x9f
 11669 159e EC000000 		.4byte	.LVL68
 11670 15a2 40010000 		.4byte	.LVL72
 11671 15a6 0100     		.2byte	0x1
 11672 15a8 57       		.byte	0x57
 11673 15a9 00000000 		.4byte	0
 11674 15ad 00000000 		.4byte	0
 11675              	.LLST25:
 11676 15b1 00000000 		.4byte	.LVL42
 11677 15b5 14000000 		.4byte	.LVL44
 11678 15b9 0200     		.2byte	0x2
 11679 15bb 30       		.byte	0x30
 11680 15bc 9F       		.byte	0x9f
 11681 15bd 1C000000 		.4byte	.LVL45
 11682 15c1 8C000000 		.4byte	.LVL55
 11683 15c5 0200     		.2byte	0x2
 11684 15c7 30       		.byte	0x30
 11685 15c8 9F       		.byte	0x9f
ARM GAS  /var/folders/3j/4xdnk5197cv_b7cw3n33qk7r0000gn/T//ccSq9Yz5.s 			page 206


 11686 15c9 8C000000 		.4byte	.LVL55
 11687 15cd A8000000 		.4byte	.LVL58
 11688 15d1 0600     		.2byte	0x6
 11689 15d3 08       		.byte	0x8
 11690 15d4 33       		.byte	0x33
 11691 15d5 74       		.byte	0x74
 11692 15d6 00       		.sleb128 0
 11693 15d7 1C       		.byte	0x1c
 11694 15d8 9F       		.byte	0x9f
 11695 15d9 A8000000 		.4byte	.LVL58
 11696 15dd B8000000 		.4byte	.LVL60
 11697 15e1 0600     		.2byte	0x6
 11698 15e3 08       		.byte	0x8
 11699 15e4 32       		.byte	0x32
 11700 15e5 74       		.byte	0x74
 11701 15e6 00       		.sleb128 0
 11702 15e7 1C       		.byte	0x1c
 11703 15e8 9F       		.byte	0x9f
 11704 15e9 B8000000 		.4byte	.LVL60
 11705 15ed D0000000 		.4byte	.LVL64
 11706 15f1 0600     		.2byte	0x6
 11707 15f3 08       		.byte	0x8
 11708 15f4 33       		.byte	0x33
 11709 15f5 74       		.byte	0x74
 11710 15f6 00       		.sleb128 0
 11711 15f7 1C       		.byte	0x1c
 11712 15f8 9F       		.byte	0x9f
 11713 15f9 D0000000 		.4byte	.LVL64
 11714 15fd 48010000 		.4byte	.LFE4
 11715 1601 0600     		.2byte	0x6
 11716 1603 08       		.byte	0x8
 11717 1604 32       		.byte	0x32
 11718 1605 74       		.byte	0x74
 11719 1606 00       		.sleb128 0
 11720 1607 1C       		.byte	0x1c
 11721 1608 9F       		.byte	0x9f
 11722 1609 00000000 		.4byte	0
 11723 160d 00000000 		.4byte	0
 11724              	.LLST0:
 11725 1611 00000000 		.4byte	.LVL0
 11726 1615 10000000 		.4byte	.LVL1
 11727 1619 0100     		.2byte	0x1
 11728 161b 50       		.byte	0x50
 11729 161c 10000000 		.4byte	.LVL1
 11730 1620 88010000 		.4byte	.LFE3
 11731 1624 0400     		.2byte	0x4
 11732 1626 F3       		.byte	0xf3
 11733 1627 01       		.uleb128 0x1
 11734 1628 50       		.byte	0x50
 11735 1629 9F       		.byte	0x9f
 11736 162a 00000000 		.4byte	0
 11737 162e 00000000 		.4byte	0
 11738              	.LLST1:
 11739 1632 00000000 		.4byte	.LVL0
 11740 1636 14000000 		.4byte	.LVL2
 11741 163a 0100     		.2byte	0x1
 11742 163c 51       		.byte	0x51
ARM GAS  /var/folders/3j/4xdnk5197cv_b7cw3n33qk7r0000gn/T//ccSq9Yz5.s 			page 207


 11743 163d 14000000 		.4byte	.LVL2
 11744 1641 1C000000 		.4byte	.LVL3
 11745 1645 0400     		.2byte	0x4
 11746 1647 F3       		.byte	0xf3
 11747 1648 01       		.uleb128 0x1
 11748 1649 51       		.byte	0x51
 11749 164a 9F       		.byte	0x9f
 11750 164b 1C000000 		.4byte	.LVL3
 11751 164f 20000000 		.4byte	.LVL4
 11752 1653 0100     		.2byte	0x1
 11753 1655 51       		.byte	0x51
 11754 1656 20000000 		.4byte	.LVL4
 11755 165a 0C010000 		.4byte	.LVL29
 11756 165e 0100     		.2byte	0x1
 11757 1660 59       		.byte	0x59
 11758 1661 0C010000 		.4byte	.LVL29
 11759 1665 88010000 		.4byte	.LFE3
 11760 1669 0400     		.2byte	0x4
 11761 166b F3       		.byte	0xf3
 11762 166c 01       		.uleb128 0x1
 11763 166d 51       		.byte	0x51
 11764 166e 9F       		.byte	0x9f
 11765 166f 00000000 		.4byte	0
 11766 1673 00000000 		.4byte	0
 11767              	.LLST2:
 11768 1677 00000000 		.4byte	.LVL0
 11769 167b 14000000 		.4byte	.LVL2
 11770 167f 0100     		.2byte	0x1
 11771 1681 52       		.byte	0x52
 11772 1682 14000000 		.4byte	.LVL2
 11773 1686 1C000000 		.4byte	.LVL3
 11774 168a 0400     		.2byte	0x4
 11775 168c F3       		.byte	0xf3
 11776 168d 01       		.uleb128 0x1
 11777 168e 52       		.byte	0x52
 11778 168f 9F       		.byte	0x9f
 11779 1690 1C000000 		.4byte	.LVL3
 11780 1694 2B000000 		.4byte	.LVL5-1
 11781 1698 0100     		.2byte	0x1
 11782 169a 52       		.byte	0x52
 11783 169b 2B000000 		.4byte	.LVL5-1
 11784 169f 88010000 		.4byte	.LFE3
 11785 16a3 0100     		.2byte	0x1
 11786 16a5 5A       		.byte	0x5a
 11787 16a6 00000000 		.4byte	0
 11788 16aa 00000000 		.4byte	0
 11789              	.LLST3:
 11790 16ae 00000000 		.4byte	.LVL0
 11791 16b2 14000000 		.4byte	.LVL2
 11792 16b6 0200     		.2byte	0x2
 11793 16b8 30       		.byte	0x30
 11794 16b9 9F       		.byte	0x9f
 11795 16ba 1C000000 		.4byte	.LVL3
 11796 16be 2C000000 		.4byte	.LVL5
 11797 16c2 0200     		.2byte	0x2
 11798 16c4 30       		.byte	0x30
 11799 16c5 9F       		.byte	0x9f
ARM GAS  /var/folders/3j/4xdnk5197cv_b7cw3n33qk7r0000gn/T//ccSq9Yz5.s 			page 208


 11800 16c6 2C000000 		.4byte	.LVL5
 11801 16ca 30000000 		.4byte	.LVL6
 11802 16ce 0100     		.2byte	0x1
 11803 16d0 50       		.byte	0x50
 11804 16d1 44000000 		.4byte	.LVL7
 11805 16d5 48000000 		.4byte	.LVL8
 11806 16d9 0100     		.2byte	0x1
 11807 16db 50       		.byte	0x50
 11808 16dc 94000000 		.4byte	.LVL14
 11809 16e0 A8000000 		.4byte	.LVL17
 11810 16e4 0200     		.2byte	0x2
 11811 16e6 30       		.byte	0x30
 11812 16e7 9F       		.byte	0x9f
 11813 16e8 A8000000 		.4byte	.LVL17
 11814 16ec AC000000 		.4byte	.LVL18
 11815 16f0 0100     		.2byte	0x1
 11816 16f2 50       		.byte	0x50
 11817 16f3 B4000000 		.4byte	.LVL19
 11818 16f7 BC000000 		.4byte	.LVL20
 11819 16fb 0100     		.2byte	0x1
 11820 16fd 50       		.byte	0x50
 11821 16fe C4000000 		.4byte	.LVL21
 11822 1702 2C010000 		.4byte	.LVL32
 11823 1706 0200     		.2byte	0x2
 11824 1708 30       		.byte	0x30
 11825 1709 9F       		.byte	0x9f
 11826 170a 2C010000 		.4byte	.LVL32
 11827 170e 30010000 		.4byte	.LVL33
 11828 1712 0100     		.2byte	0x1
 11829 1714 50       		.byte	0x50
 11830 1715 40010000 		.4byte	.LVL34
 11831 1719 48010000 		.4byte	.LVL35
 11832 171d 0100     		.2byte	0x1
 11833 171f 50       		.byte	0x50
 11834 1720 48010000 		.4byte	.LVL35
 11835 1724 88010000 		.4byte	.LFE3
 11836 1728 0200     		.2byte	0x2
 11837 172a 30       		.byte	0x30
 11838 172b 9F       		.byte	0x9f
 11839 172c 00000000 		.4byte	0
 11840 1730 00000000 		.4byte	0
 11841              	.LLST4:
 11842 1734 00000000 		.4byte	.LVL0
 11843 1738 14000000 		.4byte	.LVL2
 11844 173c 0200     		.2byte	0x2
 11845 173e 30       		.byte	0x30
 11846 173f 9F       		.byte	0x9f
 11847 1740 1C000000 		.4byte	.LVL3
 11848 1744 64000000 		.4byte	.LVL9
 11849 1748 0200     		.2byte	0x2
 11850 174a 30       		.byte	0x30
 11851 174b 9F       		.byte	0x9f
 11852 174c 64000000 		.4byte	.LVL9
 11853 1750 7C000000 		.4byte	.LVL10
 11854 1754 0100     		.2byte	0x1
 11855 1756 56       		.byte	0x56
 11856 1757 8C000000 		.4byte	.LVL13
ARM GAS  /var/folders/3j/4xdnk5197cv_b7cw3n33qk7r0000gn/T//ccSq9Yz5.s 			page 209


 11857 175b E4000000 		.4byte	.LVL24
 11858 175f 0100     		.2byte	0x1
 11859 1761 56       		.byte	0x56
 11860 1762 00000000 		.4byte	0
 11861 1766 00000000 		.4byte	0
 11862              	.LLST5:
 11863 176a 00000000 		.4byte	.LVL0
 11864 176e 14000000 		.4byte	.LVL2
 11865 1772 0200     		.2byte	0x2
 11866 1774 30       		.byte	0x30
 11867 1775 9F       		.byte	0x9f
 11868 1776 1C000000 		.4byte	.LVL3
 11869 177a 64000000 		.4byte	.LVL9
 11870 177e 0200     		.2byte	0x2
 11871 1780 30       		.byte	0x30
 11872 1781 9F       		.byte	0x9f
 11873 1782 64000000 		.4byte	.LVL9
 11874 1786 84000000 		.4byte	.LVL11
 11875 178a 0100     		.2byte	0x1
 11876 178c 57       		.byte	0x57
 11877 178d 94000000 		.4byte	.LVL14
 11878 1791 EC000000 		.4byte	.LVL26
 11879 1795 0100     		.2byte	0x1
 11880 1797 57       		.byte	0x57
 11881 1798 00000000 		.4byte	0
 11882 179c 00000000 		.4byte	0
 11883              	.LLST6:
 11884 17a0 00000000 		.4byte	.LVL0
 11885 17a4 14000000 		.4byte	.LVL2
 11886 17a8 0200     		.2byte	0x2
 11887 17aa 30       		.byte	0x30
 11888 17ab 9F       		.byte	0x9f
 11889 17ac 1C000000 		.4byte	.LVL3
 11890 17b0 64000000 		.4byte	.LVL9
 11891 17b4 0200     		.2byte	0x2
 11892 17b6 30       		.byte	0x30
 11893 17b7 9F       		.byte	0x9f
 11894 17b8 64000000 		.4byte	.LVL9
 11895 17bc 88010000 		.4byte	.LFE3
 11896 17c0 0100     		.2byte	0x1
 11897 17c2 58       		.byte	0x58
 11898 17c3 00000000 		.4byte	0
 11899 17c7 00000000 		.4byte	0
 11900              	.LLST7:
 11901 17cb 00000000 		.4byte	.LVL0
 11902 17cf 14000000 		.4byte	.LVL2
 11903 17d3 0200     		.2byte	0x2
 11904 17d5 30       		.byte	0x30
 11905 17d6 9F       		.byte	0x9f
 11906 17d7 1C000000 		.4byte	.LVL3
 11907 17db 64000000 		.4byte	.LVL9
 11908 17df 0200     		.2byte	0x2
 11909 17e1 30       		.byte	0x30
 11910 17e2 9F       		.byte	0x9f
 11911 17e3 64000000 		.4byte	.LVL9
 11912 17e7 88000000 		.4byte	.LVL12
 11913 17eb 0100     		.2byte	0x1
ARM GAS  /var/folders/3j/4xdnk5197cv_b7cw3n33qk7r0000gn/T//ccSq9Yz5.s 			page 210


 11914 17ed 55       		.byte	0x55
 11915 17ee 88000000 		.4byte	.LVL12
 11916 17f2 94000000 		.4byte	.LVL14
 11917 17f6 0300     		.2byte	0x3
 11918 17f8 75       		.byte	0x75
 11919 17f9 7F       		.sleb128 -1
 11920 17fa 9F       		.byte	0x9f
 11921 17fb 94000000 		.4byte	.LVL14
 11922 17ff 1C010000 		.4byte	.LVL31
 11923 1803 0100     		.2byte	0x1
 11924 1805 55       		.byte	0x55
 11925 1806 48010000 		.4byte	.LVL35
 11926 180a 6C010000 		.4byte	.LVL38
 11927 180e 0100     		.2byte	0x1
 11928 1810 55       		.byte	0x55
 11929 1811 00000000 		.4byte	0
 11930 1815 00000000 		.4byte	0
 11931              	.LLST8:
 11932 1819 00000000 		.4byte	.LVL0
 11933 181d 14000000 		.4byte	.LVL2
 11934 1821 0200     		.2byte	0x2
 11935 1823 30       		.byte	0x30
 11936 1824 9F       		.byte	0x9f
 11937 1825 1C000000 		.4byte	.LVL3
 11938 1829 64000000 		.4byte	.LVL9
 11939 182d 0200     		.2byte	0x2
 11940 182f 30       		.byte	0x30
 11941 1830 9F       		.byte	0x9f
 11942 1831 64000000 		.4byte	.LVL9
 11943 1835 98000000 		.4byte	.LVL15
 11944 1839 0600     		.2byte	0x6
 11945 183b 08       		.byte	0x8
 11946 183c 33       		.byte	0x33
 11947 183d 7B       		.byte	0x7b
 11948 183e 00       		.sleb128 0
 11949 183f 1C       		.byte	0x1c
 11950 1840 9F       		.byte	0x9f
 11951 1841 9C000000 		.4byte	.LVL16
 11952 1845 A8000000 		.4byte	.LVL17
 11953 1849 0600     		.2byte	0x6
 11954 184b 08       		.byte	0x8
 11955 184c 32       		.byte	0x32
 11956 184d 7B       		.byte	0x7b
 11957 184e 00       		.sleb128 0
 11958 184f 1C       		.byte	0x1c
 11959 1850 9F       		.byte	0x9f
 11960 1851 A8000000 		.4byte	.LVL17
 11961 1855 C4000000 		.4byte	.LVL21
 11962 1859 0600     		.2byte	0x6
 11963 185b 08       		.byte	0x8
 11964 185c 33       		.byte	0x33
 11965 185d 7B       		.byte	0x7b
 11966 185e 00       		.sleb128 0
 11967 185f 1C       		.byte	0x1c
 11968 1860 9F       		.byte	0x9f
 11969 1861 00000000 		.4byte	0
 11970 1865 00000000 		.4byte	0
ARM GAS  /var/folders/3j/4xdnk5197cv_b7cw3n33qk7r0000gn/T//ccSq9Yz5.s 			page 211


 11971              	.LLST9:
 11972 1869 D0000000 		.4byte	.LVL22
 11973 186d 1C010000 		.4byte	.LVL31
 11974 1871 0C00     		.2byte	0xc
 11975 1873 78       		.byte	0x78
 11976 1874 00       		.sleb128 0
 11977 1875 F7       		.byte	0xf7
 11978 1876 25       		.uleb128 0x25
 11979 1877 75       		.byte	0x75
 11980 1878 00       		.sleb128 0
 11981 1879 F7       		.byte	0xf7
 11982 187a 25       		.uleb128 0x25
 11983 187b 1B       		.byte	0x1b
 11984 187c F7       		.byte	0xf7
 11985 187d 00       		.uleb128 0
 11986 187e 9F       		.byte	0x9f
 11987 187f 48010000 		.4byte	.LVL35
 11988 1883 6C010000 		.4byte	.LVL38
 11989 1887 0C00     		.2byte	0xc
 11990 1889 78       		.byte	0x78
 11991 188a 00       		.sleb128 0
 11992 188b F7       		.byte	0xf7
 11993 188c 25       		.uleb128 0x25
 11994 188d 75       		.byte	0x75
 11995 188e 00       		.sleb128 0
 11996 188f F7       		.byte	0xf7
 11997 1890 25       		.uleb128 0x25
 11998 1891 1B       		.byte	0x1b
 11999 1892 F7       		.byte	0xf7
 12000 1893 00       		.uleb128 0
 12001 1894 9F       		.byte	0x9f
 12002 1895 00000000 		.4byte	0
 12003 1899 00000000 		.4byte	0
 12004              	.LLST10:
 12005 189d E4000000 		.4byte	.LVL24
 12006 18a1 E8000000 		.4byte	.LVL25
 12007 18a5 0100     		.2byte	0x1
 12008 18a7 50       		.byte	0x50
 12009 18a8 E8000000 		.4byte	.LVL25
 12010 18ac 88010000 		.4byte	.LFE3
 12011 18b0 0100     		.2byte	0x1
 12012 18b2 56       		.byte	0x56
 12013 18b3 00000000 		.4byte	0
 12014 18b7 00000000 		.4byte	0
 12015              	.LLST11:
 12016 18bb E4000000 		.4byte	.LVL24
 12017 18bf EC000000 		.4byte	.LVL26
 12018 18c3 1200     		.2byte	0x12
 12019 18c5 77       		.byte	0x77
 12020 18c6 00       		.sleb128 0
 12021 18c7 0A       		.byte	0xa
 12022 18c8 FFFF     		.2byte	0xffff
 12023 18ca 1A       		.byte	0x1a
 12024 18cb 40       		.byte	0x40
 12025 18cc 24       		.byte	0x24
 12026 18cd F7       		.byte	0xf7
 12027 18ce 25       		.uleb128 0x25
ARM GAS  /var/folders/3j/4xdnk5197cv_b7cw3n33qk7r0000gn/T//ccSq9Yz5.s 			page 212


 12028 18cf 75       		.byte	0x75
 12029 18d0 00       		.sleb128 0
 12030 18d1 F7       		.byte	0xf7
 12031 18d2 25       		.uleb128 0x25
 12032 18d3 1B       		.byte	0x1b
 12033 18d4 F7       		.byte	0xf7
 12034 18d5 00       		.uleb128 0
 12035 18d6 9F       		.byte	0x9f
 12036 18d7 00000000 		.4byte	0
 12037 18db 00000000 		.4byte	0
 12038              	.LLST12:
 12039 18df 6C010000 		.4byte	.LVL38
 12040 18e3 70010000 		.4byte	.LVL39
 12041 18e7 1300     		.2byte	0x13
 12042 18e9 40       		.byte	0x40
 12043 18ea 3C       		.byte	0x3c
 12044 18eb 24       		.byte	0x24
 12045 18ec 76       		.byte	0x76
 12046 18ed 00       		.sleb128 0
 12047 18ee F7       		.byte	0xf7
 12048 18ef 25       		.uleb128 0x25
 12049 18f0 77       		.byte	0x77
 12050 18f1 00       		.sleb128 0
 12051 18f2 F7       		.byte	0xf7
 12052 18f3 25       		.uleb128 0x25
 12053 18f4 1B       		.byte	0x1b
 12054 18f5 F7       		.byte	0xf7
 12055 18f6 00       		.uleb128 0
 12056 18f7 1C       		.byte	0x1c
 12057 18f8 70       		.byte	0x70
 12058 18f9 00       		.sleb128 0
 12059 18fa 1E       		.byte	0x1e
 12060 18fb 9F       		.byte	0x9f
 12061 18fc 70010000 		.4byte	.LVL39
 12062 1900 88010000 		.4byte	.LFE3
 12063 1904 1300     		.2byte	0x13
 12064 1906 40       		.byte	0x40
 12065 1907 3C       		.byte	0x3c
 12066 1908 24       		.byte	0x24
 12067 1909 76       		.byte	0x76
 12068 190a 00       		.sleb128 0
 12069 190b F7       		.byte	0xf7
 12070 190c 25       		.uleb128 0x25
 12071 190d 77       		.byte	0x77
 12072 190e 00       		.sleb128 0
 12073 190f F7       		.byte	0xf7
 12074 1910 25       		.uleb128 0x25
 12075 1911 1B       		.byte	0x1b
 12076 1912 F7       		.byte	0xf7
 12077 1913 00       		.uleb128 0
 12078 1914 1C       		.byte	0x1c
 12079 1915 75       		.byte	0x75
 12080 1916 00       		.sleb128 0
 12081 1917 1E       		.byte	0x1e
 12082 1918 9F       		.byte	0x9f
 12083 1919 00000000 		.4byte	0
 12084 191d 00000000 		.4byte	0
ARM GAS  /var/folders/3j/4xdnk5197cv_b7cw3n33qk7r0000gn/T//ccSq9Yz5.s 			page 213


 12085              	.LLST13:
 12086 1921 00010000 		.4byte	.LVL28
 12087 1925 10010000 		.4byte	.LVL30
 12088 1929 0500     		.2byte	0x5
 12089 192b 70       		.byte	0x70
 12090 192c 00       		.sleb128 0
 12091 192d 40       		.byte	0x40
 12092 192e 25       		.byte	0x25
 12093 192f 9F       		.byte	0x9f
 12094 1930 10010000 		.4byte	.LVL30
 12095 1934 1C010000 		.4byte	.LVL31
 12096 1938 0100     		.2byte	0x1
 12097 193a 53       		.byte	0x53
 12098 193b 48010000 		.4byte	.LVL35
 12099 193f 57010000 		.4byte	.LVL36-1
 12100 1943 0100     		.2byte	0x1
 12101 1945 53       		.byte	0x53
 12102 1946 57010000 		.4byte	.LVL36-1
 12103 194a 88010000 		.4byte	.LFE3
 12104 194e 0300     		.2byte	0x3
 12105 1950 91       		.byte	0x91
 12106 1951 AC7F     		.sleb128 -84
 12107 1953 00000000 		.4byte	0
 12108 1957 00000000 		.4byte	0
 12109              	.LLST14:
 12110 195b 00010000 		.4byte	.LVL28
 12111 195f 0C010000 		.4byte	.LVL29
 12112 1963 0700     		.2byte	0x7
 12113 1965 79       		.byte	0x79
 12114 1966 808002   		.sleb128 32768
 12115 1969 40       		.byte	0x40
 12116 196a 25       		.byte	0x25
 12117 196b 9F       		.byte	0x9f
 12118 196c 0C010000 		.4byte	.LVL29
 12119 1970 1C010000 		.4byte	.LVL31
 12120 1974 0A00     		.2byte	0xa
 12121 1976 F3       		.byte	0xf3
 12122 1977 01       		.uleb128 0x1
 12123 1978 51       		.byte	0x51
 12124 1979 23       		.byte	0x23
 12125 197a 808002   		.uleb128 0x8000
 12126 197d 40       		.byte	0x40
 12127 197e 25       		.byte	0x25
 12128 197f 9F       		.byte	0x9f
 12129 1980 48010000 		.4byte	.LVL35
 12130 1984 88010000 		.4byte	.LFE3
 12131 1988 0100     		.2byte	0x1
 12132 198a 57       		.byte	0x57
 12133 198b 00000000 		.4byte	0
 12134 198f 00000000 		.4byte	0
 12135              	.LLST15:
 12136 1993 1C010000 		.4byte	.LVL31
 12137 1997 48010000 		.4byte	.LVL35
 12138 199b 0100     		.2byte	0x1
 12139 199d 5B       		.byte	0x5b
 12140 199e 84010000 		.4byte	.LVL41
 12141 19a2 88010000 		.4byte	.LFE3
ARM GAS  /var/folders/3j/4xdnk5197cv_b7cw3n33qk7r0000gn/T//ccSq9Yz5.s 			page 214


 12142 19a6 0100     		.2byte	0x1
 12143 19a8 5B       		.byte	0x5b
 12144 19a9 00000000 		.4byte	0
 12145 19ad 00000000 		.4byte	0
 12146              	.LLST41:
 12147 19b1 00000000 		.4byte	.LVL111
 12148 19b5 08000000 		.4byte	.LVL112
 12149 19b9 0100     		.2byte	0x1
 12150 19bb 50       		.byte	0x50
 12151 19bc 08000000 		.4byte	.LVL112
 12152 19c0 1C000000 		.4byte	.LFE9
 12153 19c4 0400     		.2byte	0x4
 12154 19c6 F3       		.byte	0xf3
 12155 19c7 01       		.uleb128 0x1
 12156 19c8 50       		.byte	0x50
 12157 19c9 9F       		.byte	0x9f
 12158 19ca 00000000 		.4byte	0
 12159 19ce 00000000 		.4byte	0
 12160              	.LLST42:
 12161 19d2 00000000 		.4byte	.LVL111
 12162 19d6 08000000 		.4byte	.LVL112
 12163 19da 0500     		.2byte	0x5
 12164 19dc 70       		.byte	0x70
 12165 19dd 00       		.sleb128 0
 12166 19de 36       		.byte	0x36
 12167 19df 25       		.byte	0x25
 12168 19e0 9F       		.byte	0x9f
 12169 19e1 08000000 		.4byte	.LVL112
 12170 19e5 0C000000 		.4byte	.LVL113
 12171 19e9 0100     		.2byte	0x1
 12172 19eb 50       		.byte	0x50
 12173 19ec 0C000000 		.4byte	.LVL113
 12174 19f0 1C000000 		.4byte	.LFE9
 12175 19f4 0600     		.2byte	0x6
 12176 19f6 F3       		.byte	0xf3
 12177 19f7 01       		.uleb128 0x1
 12178 19f8 50       		.byte	0x50
 12179 19f9 36       		.byte	0x36
 12180 19fa 25       		.byte	0x25
 12181 19fb 9F       		.byte	0x9f
 12182 19fc 00000000 		.4byte	0
 12183 1a00 00000000 		.4byte	0
 12184              	.LLST43:
 12185 1a04 00000000 		.4byte	.LVL111
 12186 1a08 08000000 		.4byte	.LVL112
 12187 1a0c 1000     		.2byte	0x10
 12188 1a0e 70       		.byte	0x70
 12189 1a0f 00       		.sleb128 0
 12190 1a10 36       		.byte	0x36
 12191 1a11 25       		.byte	0x25
 12192 1a12 32       		.byte	0x32
 12193 1a13 24       		.byte	0x24
 12194 1a14 03       		.byte	0x3
 12195 1a15 00000000 		.4byte	refArrayQuadrants
 12196 1a19 22       		.byte	0x22
 12197 1a1a 06       		.byte	0x6
 12198 1a1b 30       		.byte	0x30
ARM GAS  /var/folders/3j/4xdnk5197cv_b7cw3n33qk7r0000gn/T//ccSq9Yz5.s 			page 215


 12199 1a1c 2E       		.byte	0x2e
 12200 1a1d 9F       		.byte	0x9f
 12201 1a1e 08000000 		.4byte	.LVL112
 12202 1a22 0C000000 		.4byte	.LVL113
 12203 1a26 0E00     		.2byte	0xe
 12204 1a28 70       		.byte	0x70
 12205 1a29 00       		.sleb128 0
 12206 1a2a 32       		.byte	0x32
 12207 1a2b 24       		.byte	0x24
 12208 1a2c 03       		.byte	0x3
 12209 1a2d 00000000 		.4byte	refArrayQuadrants
 12210 1a31 22       		.byte	0x22
 12211 1a32 06       		.byte	0x6
 12212 1a33 30       		.byte	0x30
 12213 1a34 2E       		.byte	0x2e
 12214 1a35 9F       		.byte	0x9f
 12215 1a36 0C000000 		.4byte	.LVL113
 12216 1a3a 1C000000 		.4byte	.LFE9
 12217 1a3e 1100     		.2byte	0x11
 12218 1a40 F3       		.byte	0xf3
 12219 1a41 01       		.uleb128 0x1
 12220 1a42 50       		.byte	0x50
 12221 1a43 36       		.byte	0x36
 12222 1a44 25       		.byte	0x25
 12223 1a45 32       		.byte	0x32
 12224 1a46 24       		.byte	0x24
 12225 1a47 03       		.byte	0x3
 12226 1a48 00000000 		.4byte	refArrayQuadrants
 12227 1a4c 22       		.byte	0x22
 12228 1a4d 06       		.byte	0x6
 12229 1a4e 30       		.byte	0x30
 12230 1a4f 2E       		.byte	0x2e
 12231 1a50 9F       		.byte	0x9f
 12232 1a51 00000000 		.4byte	0
 12233 1a55 00000000 		.4byte	0
 12234              	.LLST44:
 12235 1a59 00000000 		.4byte	.LVL114
 12236 1a5d 24000000 		.4byte	.LVL118
 12237 1a61 0100     		.2byte	0x1
 12238 1a63 50       		.byte	0x50
 12239 1a64 24000000 		.4byte	.LVL118
 12240 1a68 2C000000 		.4byte	.LVL120
 12241 1a6c 0100     		.2byte	0x1
 12242 1a6e 51       		.byte	0x51
 12243 1a6f 2C000000 		.4byte	.LVL120
 12244 1a73 30000000 		.4byte	.LVL121
 12245 1a77 0100     		.2byte	0x1
 12246 1a79 50       		.byte	0x50
 12247 1a7a 30000000 		.4byte	.LVL121
 12248 1a7e 34000000 		.4byte	.LFE10
 12249 1a82 0400     		.2byte	0x4
 12250 1a84 F3       		.byte	0xf3
 12251 1a85 01       		.uleb128 0x1
 12252 1a86 50       		.byte	0x50
 12253 1a87 9F       		.byte	0x9f
 12254 1a88 00000000 		.4byte	0
 12255 1a8c 00000000 		.4byte	0
ARM GAS  /var/folders/3j/4xdnk5197cv_b7cw3n33qk7r0000gn/T//ccSq9Yz5.s 			page 216


 12256              	.LLST45:
 12257 1a90 00000000 		.4byte	.LVL114
 12258 1a94 14000000 		.4byte	.LVL116
 12259 1a98 0100     		.2byte	0x1
 12260 1a9a 51       		.byte	0x51
 12261 1a9b 14000000 		.4byte	.LVL116
 12262 1a9f 2C000000 		.4byte	.LVL120
 12263 1aa3 0400     		.2byte	0x4
 12264 1aa5 F3       		.byte	0xf3
 12265 1aa6 01       		.uleb128 0x1
 12266 1aa7 51       		.byte	0x51
 12267 1aa8 9F       		.byte	0x9f
 12268 1aa9 2C000000 		.4byte	.LVL120
 12269 1aad 34000000 		.4byte	.LFE10
 12270 1ab1 0100     		.2byte	0x1
 12271 1ab3 51       		.byte	0x51
 12272 1ab4 00000000 		.4byte	0
 12273 1ab8 00000000 		.4byte	0
 12274              	.LLST46:
 12275 1abc 00000000 		.4byte	.LVL114
 12276 1ac0 28000000 		.4byte	.LVL119
 12277 1ac4 0200     		.2byte	0x2
 12278 1ac6 30       		.byte	0x30
 12279 1ac7 9F       		.byte	0x9f
 12280 1ac8 28000000 		.4byte	.LVL119
 12281 1acc 2C000000 		.4byte	.LVL120
 12282 1ad0 0100     		.2byte	0x1
 12283 1ad2 50       		.byte	0x50
 12284 1ad3 2C000000 		.4byte	.LVL120
 12285 1ad7 30000000 		.4byte	.LVL121
 12286 1adb 0200     		.2byte	0x2
 12287 1add 30       		.byte	0x30
 12288 1ade 9F       		.byte	0x9f
 12289 1adf 30000000 		.4byte	.LVL121
 12290 1ae3 34000000 		.4byte	.LFE10
 12291 1ae7 0100     		.2byte	0x1
 12292 1ae9 50       		.byte	0x50
 12293 1aea 00000000 		.4byte	0
 12294 1aee 00000000 		.4byte	0
 12295              	.LLST47:
 12296 1af2 04000000 		.4byte	.LVL115
 12297 1af6 1C000000 		.4byte	.LVL117
 12298 1afa 0500     		.2byte	0x5
 12299 1afc 72       		.byte	0x72
 12300 1afd 00       		.sleb128 0
 12301 1afe 37       		.byte	0x37
 12302 1aff 1A       		.byte	0x1a
 12303 1b00 9F       		.byte	0x9f
 12304 1b01 1C000000 		.4byte	.LVL117
 12305 1b05 2C000000 		.4byte	.LVL120
 12306 1b09 0100     		.2byte	0x1
 12307 1b0b 5C       		.byte	0x5c
 12308 1b0c 2C000000 		.4byte	.LVL120
 12309 1b10 34000000 		.4byte	.LFE10
 12310 1b14 0500     		.2byte	0x5
 12311 1b16 72       		.byte	0x72
 12312 1b17 00       		.sleb128 0
ARM GAS  /var/folders/3j/4xdnk5197cv_b7cw3n33qk7r0000gn/T//ccSq9Yz5.s 			page 217


 12313 1b18 37       		.byte	0x37
 12314 1b19 1A       		.byte	0x1a
 12315 1b1a 9F       		.byte	0x9f
 12316 1b1b 00000000 		.4byte	0
 12317 1b1f 00000000 		.4byte	0
 12318              	.LLST57:
 12319 1b23 00000000 		.4byte	.LVL136
 12320 1b27 0F000000 		.4byte	.LVL138-1
 12321 1b2b 0100     		.2byte	0x1
 12322 1b2d 50       		.byte	0x50
 12323 1b2e 0F000000 		.4byte	.LVL138-1
 12324 1b32 10000000 		.4byte	.LFE12
 12325 1b36 0400     		.2byte	0x4
 12326 1b38 F3       		.byte	0xf3
 12327 1b39 01       		.uleb128 0x1
 12328 1b3a 50       		.byte	0x50
 12329 1b3b 9F       		.byte	0x9f
 12330 1b3c 00000000 		.4byte	0
 12331 1b40 00000000 		.4byte	0
 12332              	.LLST58:
 12333 1b44 00000000 		.4byte	.LVL136
 12334 1b48 0C000000 		.4byte	.LVL137
 12335 1b4c 0100     		.2byte	0x1
 12336 1b4e 51       		.byte	0x51
 12337 1b4f 0C000000 		.4byte	.LVL137
 12338 1b53 0F000000 		.4byte	.LVL138-1
 12339 1b57 0100     		.2byte	0x1
 12340 1b59 52       		.byte	0x52
 12341 1b5a 0F000000 		.4byte	.LVL138-1
 12342 1b5e 10000000 		.4byte	.LFE12
 12343 1b62 0400     		.2byte	0x4
 12344 1b64 F3       		.byte	0xf3
 12345 1b65 01       		.uleb128 0x1
 12346 1b66 51       		.byte	0x51
 12347 1b67 9F       		.byte	0x9f
 12348 1b68 00000000 		.4byte	0
 12349 1b6c 00000000 		.4byte	0
 12350              	.LLST59:
 12351 1b70 00000000 		.4byte	.LVL139
 12352 1b74 0F000000 		.4byte	.LVL141-1
 12353 1b78 0100     		.2byte	0x1
 12354 1b7a 50       		.byte	0x50
 12355 1b7b 0F000000 		.4byte	.LVL141-1
 12356 1b7f 10000000 		.4byte	.LFE13
 12357 1b83 0400     		.2byte	0x4
 12358 1b85 F3       		.byte	0xf3
 12359 1b86 01       		.uleb128 0x1
 12360 1b87 50       		.byte	0x50
 12361 1b88 9F       		.byte	0x9f
 12362 1b89 00000000 		.4byte	0
 12363 1b8d 00000000 		.4byte	0
 12364              	.LLST60:
 12365 1b91 00000000 		.4byte	.LVL139
 12366 1b95 0C000000 		.4byte	.LVL140
 12367 1b99 0100     		.2byte	0x1
 12368 1b9b 51       		.byte	0x51
 12369 1b9c 0C000000 		.4byte	.LVL140
ARM GAS  /var/folders/3j/4xdnk5197cv_b7cw3n33qk7r0000gn/T//ccSq9Yz5.s 			page 218


 12370 1ba0 0F000000 		.4byte	.LVL141-1
 12371 1ba4 0100     		.2byte	0x1
 12372 1ba6 52       		.byte	0x52
 12373 1ba7 0F000000 		.4byte	.LVL141-1
 12374 1bab 10000000 		.4byte	.LFE13
 12375 1baf 0400     		.2byte	0x4
 12376 1bb1 F3       		.byte	0xf3
 12377 1bb2 01       		.uleb128 0x1
 12378 1bb3 51       		.byte	0x51
 12379 1bb4 9F       		.byte	0x9f
 12380 1bb5 00000000 		.4byte	0
 12381 1bb9 00000000 		.4byte	0
 12382              	.LLST94:
 12383 1bbd 00000000 		.4byte	.LVL222
 12384 1bc1 13000000 		.4byte	.LVL225-1
 12385 1bc5 0100     		.2byte	0x1
 12386 1bc7 50       		.byte	0x50
 12387 1bc8 13000000 		.4byte	.LVL225-1
 12388 1bcc 50000000 		.4byte	.LVL234
 12389 1bd0 0100     		.2byte	0x1
 12390 1bd2 54       		.byte	0x54
 12391 1bd3 50000000 		.4byte	.LVL234
 12392 1bd7 57000000 		.4byte	.LVL235-1
 12393 1bdb 0100     		.2byte	0x1
 12394 1bdd 50       		.byte	0x50
 12395 1bde 57000000 		.4byte	.LVL235-1
 12396 1be2 58000000 		.4byte	.LFE19
 12397 1be6 0400     		.2byte	0x4
 12398 1be8 F3       		.byte	0xf3
 12399 1be9 01       		.uleb128 0x1
 12400 1bea 50       		.byte	0x50
 12401 1beb 9F       		.byte	0x9f
 12402 1bec 00000000 		.4byte	0
 12403 1bf0 00000000 		.4byte	0
 12404              	.LLST95:
 12405 1bf4 00000000 		.4byte	.LVL222
 12406 1bf8 0C000000 		.4byte	.LVL223
 12407 1bfc 0100     		.2byte	0x1
 12408 1bfe 51       		.byte	0x51
 12409 1bff 0C000000 		.4byte	.LVL223
 12410 1c03 58000000 		.4byte	.LFE19
 12411 1c07 0400     		.2byte	0x4
 12412 1c09 F3       		.byte	0xf3
 12413 1c0a 01       		.uleb128 0x1
 12414 1c0b 51       		.byte	0x51
 12415 1c0c 9F       		.byte	0x9f
 12416 1c0d 00000000 		.4byte	0
 12417 1c11 00000000 		.4byte	0
 12418              	.LLST96:
 12419 1c15 10000000 		.4byte	.LVL224
 12420 1c19 14000000 		.4byte	.LVL225
 12421 1c1d 0200     		.2byte	0x2
 12422 1c1f 30       		.byte	0x30
 12423 1c20 9F       		.byte	0x9f
 12424 1c21 14000000 		.4byte	.LVL225
 12425 1c25 1C000000 		.4byte	.LVL226
 12426 1c29 0100     		.2byte	0x1
ARM GAS  /var/folders/3j/4xdnk5197cv_b7cw3n33qk7r0000gn/T//ccSq9Yz5.s 			page 219


 12427 1c2b 50       		.byte	0x50
 12428 1c2c 1C000000 		.4byte	.LVL226
 12429 1c30 24000000 		.4byte	.LVL227
 12430 1c34 0100     		.2byte	0x1
 12431 1c36 52       		.byte	0x52
 12432 1c37 24000000 		.4byte	.LVL227
 12433 1c3b 28000000 		.4byte	.LVL228
 12434 1c3f 0100     		.2byte	0x1
 12435 1c41 50       		.byte	0x50
 12436 1c42 2C000000 		.4byte	.LVL229
 12437 1c46 3C000000 		.4byte	.LVL230
 12438 1c4a 0100     		.2byte	0x1
 12439 1c4c 50       		.byte	0x50
 12440 1c4d 40000000 		.4byte	.LVL231
 12441 1c51 4C000000 		.4byte	.LVL233
 12442 1c55 0100     		.2byte	0x1
 12443 1c57 50       		.byte	0x50
 12444 1c58 00000000 		.4byte	0
 12445 1c5c 00000000 		.4byte	0
 12446              	.LLST97:
 12447 1c60 48000000 		.4byte	.LVL232
 12448 1c64 50000000 		.4byte	.LVL234
 12449 1c68 0100     		.2byte	0x1
 12450 1c6a 54       		.byte	0x54
 12451 1c6b 50000000 		.4byte	.LVL234
 12452 1c6f 57000000 		.4byte	.LVL235-1
 12453 1c73 0100     		.2byte	0x1
 12454 1c75 50       		.byte	0x50
 12455 1c76 57000000 		.4byte	.LVL235-1
 12456 1c7a 58000000 		.4byte	.LFE19
 12457 1c7e 0400     		.2byte	0x4
 12458 1c80 F3       		.byte	0xf3
 12459 1c81 01       		.uleb128 0x1
 12460 1c82 50       		.byte	0x50
 12461 1c83 9F       		.byte	0x9f
 12462 1c84 00000000 		.4byte	0
 12463 1c88 00000000 		.4byte	0
 12464              		.section	.debug_aranges,"",%progbits
 12465 0000 CC000000 		.4byte	0xcc
 12466 0004 0200     		.2byte	0x2
 12467 0006 00000000 		.4byte	.Ldebug_info0
 12468 000a 04       		.byte	0x4
 12469 000b 00       		.byte	0
 12470 000c 0000     		.2byte	0
 12471 000e 0000     		.2byte	0
 12472 0010 00000000 		.4byte	.LFB3
 12473 0014 88010000 		.4byte	.LFE3-.LFB3
 12474 0018 00000000 		.4byte	.LFB4
 12475 001c 48010000 		.4byte	.LFE4-.LFB4
 12476 0020 00000000 		.4byte	.LFB5
 12477 0024 58000000 		.4byte	.LFE5-.LFB5
 12478 0028 00000000 		.4byte	.LFB6
 12479 002c 4C000000 		.4byte	.LFE6-.LFB6
 12480 0030 00000000 		.4byte	.LFB7
 12481 0034 64000000 		.4byte	.LFE7-.LFB7
 12482 0038 00000000 		.4byte	.LFB8
 12483 003c 74000000 		.4byte	.LFE8-.LFB8
ARM GAS  /var/folders/3j/4xdnk5197cv_b7cw3n33qk7r0000gn/T//ccSq9Yz5.s 			page 220


 12484 0040 00000000 		.4byte	.LFB9
 12485 0044 1C000000 		.4byte	.LFE9-.LFB9
 12486 0048 00000000 		.4byte	.LFB10
 12487 004c 34000000 		.4byte	.LFE10-.LFB10
 12488 0050 00000000 		.4byte	.LFB11
 12489 0054 BC000000 		.4byte	.LFE11-.LFB11
 12490 0058 00000000 		.4byte	.LFB12
 12491 005c 10000000 		.4byte	.LFE12-.LFB12
 12492 0060 00000000 		.4byte	.LFB13
 12493 0064 10000000 		.4byte	.LFE13-.LFB13
 12494 0068 00000000 		.4byte	.LFB14
 12495 006c 3C010000 		.4byte	.LFE14-.LFB14
 12496 0070 00000000 		.4byte	.LFB15
 12497 0074 AC000000 		.4byte	.LFE15-.LFB15
 12498 0078 00000000 		.4byte	.LFB17
 12499 007c 20010000 		.4byte	.LFE17-.LFB17
 12500 0080 00000000 		.4byte	.LFB18
 12501 0084 B0000000 		.4byte	.LFE18-.LFB18
 12502 0088 00000000 		.4byte	.LFB19
 12503 008c 58000000 		.4byte	.LFE19-.LFB19
 12504 0090 00000000 		.4byte	.LFB20
 12505 0094 70010000 		.4byte	.LFE20-.LFB20
 12506 0098 00000000 		.4byte	.LFB21
 12507 009c C4000000 		.4byte	.LFE21-.LFB21
 12508 00a0 00000000 		.4byte	.LFB22
 12509 00a4 B8000000 		.4byte	.LFE22-.LFB22
 12510 00a8 00000000 		.4byte	.LFB23
 12511 00ac 60000000 		.4byte	.LFE23-.LFB23
 12512 00b0 00000000 		.4byte	.LFB16
 12513 00b4 D0030000 		.4byte	.LFE16-.LFB16
 12514 00b8 00000000 		.4byte	.LFB24
 12515 00bc 38000000 		.4byte	.LFE24-.LFB24
 12516 00c0 00000000 		.4byte	.LFB25
 12517 00c4 30000000 		.4byte	.LFE25-.LFB25
 12518 00c8 00000000 		.4byte	0
 12519 00cc 00000000 		.4byte	0
 12520              		.section	.debug_ranges,"",%progbits
 12521              	.Ldebug_ranges0:
 12522 0000 34000000 		.4byte	.LBB24
 12523 0004 40000000 		.4byte	.LBE24
 12524 0008 9C000000 		.4byte	.LBB33
 12525 000c A0000000 		.4byte	.LBE33
 12526 0010 00000000 		.4byte	0
 12527 0014 00000000 		.4byte	0
 12528 0018 40000000 		.4byte	.LBB27
 12529 001c 44000000 		.4byte	.LBE27
 12530 0020 54000000 		.4byte	.LBB31
 12531 0024 60000000 		.4byte	.LBE31
 12532 0028 64000000 		.4byte	.LBB32
 12533 002c 6C000000 		.4byte	.LBE32
 12534 0030 00000000 		.4byte	0
 12535 0034 00000000 		.4byte	0
 12536 0038 BC000000 		.4byte	.LBB34
 12537 003c C0000000 		.4byte	.LBE34
 12538 0040 C4000000 		.4byte	.LBB37
 12539 0044 D4000000 		.4byte	.LBE37
 12540 0048 00000000 		.4byte	0
ARM GAS  /var/folders/3j/4xdnk5197cv_b7cw3n33qk7r0000gn/T//ccSq9Yz5.s 			page 221


 12541 004c 00000000 		.4byte	0
 12542 0050 44000000 		.4byte	.LBB40
 12543 0054 50000000 		.4byte	.LBE40
 12544 0058 54000000 		.4byte	.LBB45
 12545 005c 58000000 		.4byte	.LBE45
 12546 0060 B4000000 		.4byte	.LBB46
 12547 0064 BC000000 		.4byte	.LBE46
 12548 0068 C0000000 		.4byte	.LBB47
 12549 006c C8000000 		.4byte	.LBE47
 12550 0070 00000000 		.4byte	0
 12551 0074 00000000 		.4byte	0
 12552 0078 48000000 		.4byte	.LBB52
 12553 007c 4C000000 		.4byte	.LBE52
 12554 0080 50000000 		.4byte	.LBB55
 12555 0084 58000000 		.4byte	.LBE55
 12556 0088 00000000 		.4byte	0
 12557 008c 00000000 		.4byte	0
 12558 0090 64010000 		.4byte	.LBB56
 12559 0094 70010000 		.4byte	.LBE56
 12560 0098 8C010000 		.4byte	.LBB59
 12561 009c 98010000 		.4byte	.LBE59
 12562 00a0 00000000 		.4byte	0
 12563 00a4 00000000 		.4byte	0
 12564 00a8 5C020000 		.4byte	.LBB60
 12565 00ac 60020000 		.4byte	.LBE60
 12566 00b0 64020000 		.4byte	.LBB63
 12567 00b4 74020000 		.4byte	.LBE63
 12568 00b8 00000000 		.4byte	0
 12569 00bc 00000000 		.4byte	0
 12570 00c0 7C020000 		.4byte	.LBB64
 12571 00c4 84020000 		.4byte	.LBE64
 12572 00c8 94020000 		.4byte	.LBB67
 12573 00cc A8020000 		.4byte	.LBE67
 12574 00d0 00000000 		.4byte	0
 12575 00d4 00000000 		.4byte	0
 12576 00d8 00000000 		.4byte	.LFB3
 12577 00dc 88010000 		.4byte	.LFE3
 12578 00e0 00000000 		.4byte	.LFB4
 12579 00e4 48010000 		.4byte	.LFE4
 12580 00e8 00000000 		.4byte	.LFB5
 12581 00ec 58000000 		.4byte	.LFE5
 12582 00f0 00000000 		.4byte	.LFB6
 12583 00f4 4C000000 		.4byte	.LFE6
 12584 00f8 00000000 		.4byte	.LFB7
 12585 00fc 64000000 		.4byte	.LFE7
 12586 0100 00000000 		.4byte	.LFB8
 12587 0104 74000000 		.4byte	.LFE8
 12588 0108 00000000 		.4byte	.LFB9
 12589 010c 1C000000 		.4byte	.LFE9
 12590 0110 00000000 		.4byte	.LFB10
 12591 0114 34000000 		.4byte	.LFE10
 12592 0118 00000000 		.4byte	.LFB11
 12593 011c BC000000 		.4byte	.LFE11
 12594 0120 00000000 		.4byte	.LFB12
 12595 0124 10000000 		.4byte	.LFE12
 12596 0128 00000000 		.4byte	.LFB13
 12597 012c 10000000 		.4byte	.LFE13
ARM GAS  /var/folders/3j/4xdnk5197cv_b7cw3n33qk7r0000gn/T//ccSq9Yz5.s 			page 222


 12598 0130 00000000 		.4byte	.LFB14
 12599 0134 3C010000 		.4byte	.LFE14
 12600 0138 00000000 		.4byte	.LFB15
 12601 013c AC000000 		.4byte	.LFE15
 12602 0140 00000000 		.4byte	.LFB17
 12603 0144 20010000 		.4byte	.LFE17
 12604 0148 00000000 		.4byte	.LFB18
 12605 014c B0000000 		.4byte	.LFE18
 12606 0150 00000000 		.4byte	.LFB19
 12607 0154 58000000 		.4byte	.LFE19
 12608 0158 00000000 		.4byte	.LFB20
 12609 015c 70010000 		.4byte	.LFE20
 12610 0160 00000000 		.4byte	.LFB21
 12611 0164 C4000000 		.4byte	.LFE21
 12612 0168 00000000 		.4byte	.LFB22
 12613 016c B8000000 		.4byte	.LFE22
 12614 0170 00000000 		.4byte	.LFB23
 12615 0174 60000000 		.4byte	.LFE23
 12616 0178 00000000 		.4byte	.LFB16
 12617 017c D0030000 		.4byte	.LFE16
 12618 0180 00000000 		.4byte	.LFB24
 12619 0184 38000000 		.4byte	.LFE24
 12620 0188 00000000 		.4byte	.LFB25
 12621 018c 30000000 		.4byte	.LFE25
 12622 0190 00000000 		.4byte	0
 12623 0194 00000000 		.4byte	0
 12624              		.section	.debug_line,"",%progbits
 12625              	.Ldebug_line0:
 12626 0000 3B080000 		.section	.debug_str,"MS",%progbits,1
 12626      02007402 
 12626      00000201 
 12626      FB0E0D00 
 12626      01010101 
 12627              	.LASF297:
 12628 0000 7365745F 		.ascii	"set_ref_spad_map\000"
 12628      7265665F 
 12628      73706164 
 12628      5F6D6170 
 12628      00
 12629              	.LASF359:
 12630 0011 564C3533 		.ascii	"VL53L0X_WrByte\000"
 12630      4C30585F 
 12630      57724279 
 12630      746500
 12631              	.LASF240:
 12632 0020 564C3533 		.ascii	"VL53L0X_perform_phase_calibration\000"
 12632      4C30585F 
 12632      70657266 
 12632      6F726D5F 
 12632      70686173 
 12633              	.LASF356:
 12634 0042 7369676E 		.ascii	"signalXTalkTotalPerSpad\000"
 12634      616C5854 
 12634      616C6B54 
 12634      6F74616C 
 12634      50657253 
 12635              	.LASF83:
ARM GAS  /var/folders/3j/4xdnk5197cv_b7cw3n33qk7r0000gn/T//ccSq9Yz5.s 			page 223


 12636 005a 52656665 		.ascii	"ReferenceSpadType\000"
 12636      72656E63 
 12636      65537061 
 12636      64547970 
 12636      6500
 12637              	.LASF51:
 12638 006c 5369676E 		.ascii	"SignalRateRtnMegaCps\000"
 12638      616C5261 
 12638      74655274 
 12638      6E4D6567 
 12638      61437073 
 12639              	.LASF125:
 12640 0081 5F6D6178 		.ascii	"_maxwds\000"
 12640      77647300 
 12641              	.LASF86:
 12642 0089 50617274 		.ascii	"PartUIDLower\000"
 12642      5549444C 
 12642      6F776572 
 12642      00
 12643              	.LASF329:
 12644 0096 634D6178 		.ascii	"cMaxOffset\000"
 12644      4F666673 
 12644      657400
 12645              	.LASF377:
 12646 00a1 474E5520 		.ascii	"GNU C11 7.3.1 20180622 (release) [ARM/embedded-7-br"
 12646      43313120 
 12646      372E332E 
 12646      31203230 
 12646      31383036 
 12647 00d4 616E6368 		.ascii	"anch revision 261907] -mcpu=arm1176jz-s -mno-thumb-"
 12647      20726576 
 12647      6973696F 
 12647      6E203236 
 12647      31393037 
 12648 0107 696E7465 		.ascii	"interwork -ggdb -O2 -fomit-frame-pointer -ffunction"
 12648      72776F72 
 12648      6B202D67 
 12648      67646220 
 12648      2D4F3220 
 12649 013a 2D736563 		.ascii	"-sections -fdata-sections\000"
 12649      74696F6E 
 12649      73202D66 
 12649      64617461 
 12649      2D736563 
 12650              	.LASF228:
 12651 0154 564C3533 		.ascii	"VL53L0X_DEV\000"
 12651      4C30585F 
 12651      44455600 
 12652              	.LASF139:
 12653 0160 5F6F6E5F 		.ascii	"_on_exit_args\000"
 12653      65786974 
 12653      5F617267 
 12653      7300
 12654              	.LASF31:
 12655 016e 48697374 		.ascii	"HistogramMode\000"
 12655      6F677261 
 12655      6D4D6F64 
ARM GAS  /var/folders/3j/4xdnk5197cv_b7cw3n33qk7r0000gn/T//ccSq9Yz5.s 			page 224


 12655      6500
 12656              	.LASF354:
 12657 017c 7854616C 		.ascii	"xTalkStoredMeanRange\000"
 12657      6B53746F 
 12657      7265644D 
 12657      65616E52 
 12657      616E6765 
 12658              	.LASF321:
 12659 0191 64617461 		.ascii	"dataByte\000"
 12659      42797465 
 12659      00
 12660              	.LASF206:
 12661 019a 5F776374 		.ascii	"_wctomb_state\000"
 12661      6F6D625F 
 12661      73746174 
 12661      6500
 12662              	.LASF343:
 12663 01a8 53746F72 		.ascii	"StoredMeanRangeAsInt\000"
 12663      65644D65 
 12663      616E5261 
 12663      6E676541 
 12663      73496E74 
 12664              	.LASF34:
 12665 01bd 5854616C 		.ascii	"XTalkCompensationEnable\000"
 12665      6B436F6D 
 12665      70656E73 
 12665      6174696F 
 12665      6E456E61 
 12666              	.LASF74:
 12667 01d5 50726552 		.ascii	"PreRangeVcselPulsePeriod\000"
 12667      616E6765 
 12667      56637365 
 12667      6C50756C 
 12667      73655065 
 12668              	.LASF203:
 12669 01ee 5F723438 		.ascii	"_r48\000"
 12669      00
 12670              	.LASF336:
 12671 01f3 564C3533 		.ascii	"VL53L0X_perform_offset_calibration\000"
 12671      4C30585F 
 12671      70657266 
 12671      6F726D5F 
 12671      6F666673 
 12672              	.LASF262:
 12673 0216 63757272 		.ascii	"currentSpadIndex\000"
 12673      656E7453 
 12673      70616449 
 12673      6E646578 
 12673      00
 12674              	.LASF130:
 12675 0227 5F5F746D 		.ascii	"__tm_sec\000"
 12675      5F736563 
 12675      00
 12676              	.LASF208:
 12677 0230 5F736967 		.ascii	"_signal_buf\000"
 12677      6E616C5F 
 12677      62756600 
ARM GAS  /var/folders/3j/4xdnk5197cv_b7cw3n33qk7r0000gn/T//ccSq9Yz5.s 			page 225


 12678              	.LASF0:
 12679 023c 756E7369 		.ascii	"unsigned int\000"
 12679      676E6564 
 12679      20696E74 
 12679      00
 12680              	.LASF35:
 12681 0249 5854616C 		.ascii	"XTalkCompensationRangeMilliMeter\000"
 12681      6B436F6D 
 12681      70656E73 
 12681      6174696F 
 12681      6E52616E 
 12682              	.LASF318:
 12683 026a 6E657874 		.ascii	"next\000"
 12683      00
 12684              	.LASF233:
 12685 026f 53746174 		.ascii	"Status\000"
 12685      757300
 12686              	.LASF246:
 12687 0276 72656164 		.ascii	"read_not_write\000"
 12687      5F6E6F74 
 12687      5F777269 
 12687      746500
 12688              	.LASF29:
 12689 0285 564C3533 		.ascii	"VL53L0X_PowerModes\000"
 12689      4C30585F 
 12689      506F7765 
 12689      724D6F64 
 12689      657300
 12690              	.LASF81:
 12691 0298 50726F64 		.ascii	"ProductId\000"
 12691      75637449 
 12691      6400
 12692              	.LASF248:
 12693 02a2 70686173 		.ascii	"phase_enable\000"
 12693      655F656E 
 12693      61626C65 
 12693      00
 12694              	.LASF38:
 12695 02af 4C696D69 		.ascii	"LimitChecksEnable\000"
 12695      74436865 
 12695      636B7345 
 12695      6E61626C 
 12695      6500
 12696              	.LASF151:
 12697 02c1 5F666C61 		.ascii	"_flags\000"
 12697      677300
 12698              	.LASF267:
 12699 02c8 696E6465 		.ascii	"index\000"
 12699      7800
 12700              	.LASF63:
 12701 02ce 4572726F 		.ascii	"ErrorStatus\000"
 12701      72537461 
 12701      74757300 
 12702              	.LASF52:
 12703 02da 416D6269 		.ascii	"AmbientRateRtnMegaCps\000"
 12703      656E7452 
 12703      61746552 
ARM GAS  /var/folders/3j/4xdnk5197cv_b7cw3n33qk7r0000gn/T//ccSq9Yz5.s 			page 226


 12703      746E4D65 
 12703      67614370 
 12704              	.LASF9:
 12705 02f0 5F5F696E 		.ascii	"__int32_t\000"
 12705      7433325F 
 12705      7400
 12706              	.LASF168:
 12707 02fa 5F657272 		.ascii	"_errno\000"
 12707      6E6F00
 12708              	.LASF338:
 12709 0301 704F6666 		.ascii	"pOffsetMicroMeter\000"
 12709      7365744D 
 12709      6963726F 
 12709      4D657465 
 12709      7200
 12710              	.LASF353:
 12711 0313 7854616C 		.ascii	"xTalkStoredMeanSignalRate\000"
 12711      6B53746F 
 12711      7265644D 
 12711      65616E53 
 12711      69676E61 
 12712              	.LASF370:
 12713 032d 564C3533 		.ascii	"VL53L0X_GetSequenceStepEnable\000"
 12713      4C30585F 
 12713      47657453 
 12713      65717565 
 12713      6E636553 
 12714              	.LASF298:
 12715 034b 636F756E 		.ascii	"count_enabled_spads\000"
 12715      745F656E 
 12715      61626C65 
 12715      645F7370 
 12715      61647300 
 12716              	.LASF274:
 12717 035f 6E656564 		.ascii	"needAptSpads\000"
 12717      41707453 
 12717      70616473 
 12717      00
 12718              	.LASF331:
 12719 036c 564C3533 		.ascii	"VL53L0X_set_offset_calibration_data_micro_meter\000"
 12719      4C30585F 
 12719      7365745F 
 12719      6F666673 
 12719      65745F63 
 12720              	.LASF220:
 12721 039c 5F5F6C6F 		.ascii	"__locale_t\000"
 12721      63616C65 
 12721      5F7400
 12722              	.LASF165:
 12723 03a7 5F6D6273 		.ascii	"_mbstate\000"
 12723      74617465 
 12723      00
 12724              	.LASF155:
 12725 03b0 5F726561 		.ascii	"_read\000"
 12725      6400
 12726              	.LASF315:
 12727 03b6 71756164 		.ascii	"quadrant\000"
ARM GAS  /var/folders/3j/4xdnk5197cv_b7cw3n33qk7r0000gn/T//ccSq9Yz5.s 			page 227


 12727      72616E74 
 12727      00
 12728              	.LASF210:
 12729 03bf 5F6D6272 		.ascii	"_mbrlen_state\000"
 12729      6C656E5F 
 12729      73746174 
 12729      6500
 12730              	.LASF227:
 12731 03cd 564C3533 		.ascii	"VL53L0X_Dev_t\000"
 12731      4C30585F 
 12731      4465765F 
 12731      7400
 12732              	.LASF41:
 12733 03db 57726170 		.ascii	"WrapAroundCheckEnable\000"
 12733      41726F75 
 12733      6E644368 
 12733      65636B45 
 12733      6E61626C 
 12734              	.LASF100:
 12735 03f1 506F7765 		.ascii	"PowerMode\000"
 12735      724D6F64 
 12735      6500
 12736              	.LASF271:
 12737 03fb 6D696E69 		.ascii	"minimumSpadCount\000"
 12737      6D756D53 
 12737      70616443 
 12737      6F756E74 
 12737      00
 12738              	.LASF337:
 12739 040c 43616C44 		.ascii	"CalDistanceMilliMeter\000"
 12739      69737461 
 12739      6E63654D 
 12739      696C6C69 
 12739      4D657465 
 12740              	.LASF39:
 12741 0422 4C696D69 		.ascii	"LimitChecksStatus\000"
 12741      74436865 
 12741      636B7353 
 12741      74617475 
 12741      7300
 12742              	.LASF50:
 12743 0434 52616E67 		.ascii	"RangeDMaxMilliMeter\000"
 12743      65444D61 
 12743      784D696C 
 12743      6C694D65 
 12743      74657200 
 12744              	.LASF302:
 12745 0448 70497341 		.ascii	"pIsAperture\000"
 12745      70657274 
 12745      75726500 
 12746              	.LASF115:
 12747 0454 5F66706F 		.ascii	"_fpos_t\000"
 12747      735F7400 
 12748              	.LASF221:
 12749 045c 5F696D70 		.ascii	"_impure_ptr\000"
 12749      7572655F 
 12749      70747200 
ARM GAS  /var/folders/3j/4xdnk5197cv_b7cw3n33qk7r0000gn/T//ccSq9Yz5.s 			page 228


 12750              	.LASF146:
 12751 0468 5F666E73 		.ascii	"_fns\000"
 12751      00
 12752              	.LASF80:
 12753 046d 52657669 		.ascii	"Revision\000"
 12753      73696F6E 
 12753      00
 12754              	.LASF154:
 12755 0476 5F636F6F 		.ascii	"_cookie\000"
 12755      6B696500 
 12756              	.LASF242:
 12757 047e 56687653 		.ascii	"VhvSettingsint\000"
 12757      65747469 
 12757      6E677369 
 12757      6E7400
 12758              	.LASF90:
 12759 048d 50617274 		.ascii	"Part2PartOffsetNVMMicroMeter\000"
 12759      32506172 
 12759      744F6666 
 12759      7365744E 
 12759      564D4D69 
 12760              	.LASF287:
 12761 04aa 73706164 		.ascii	"spadArray\000"
 12761      41727261 
 12761      7900
 12762              	.LASF232:
 12763 04b4 70506861 		.ascii	"pPhaseCal\000"
 12763      73654361 
 12763      6C00
 12764              	.LASF128:
 12765 04be 5F426967 		.ascii	"_Bigint\000"
 12765      696E7400 
 12766              	.LASF136:
 12767 04c6 5F5F746D 		.ascii	"__tm_wday\000"
 12767      5F776461 
 12767      7900
 12768              	.LASF178:
 12769 04d0 5F726573 		.ascii	"_result\000"
 12769      756C7400 
 12770              	.LASF22:
 12771 04d8 46697850 		.ascii	"FixPoint1616_t\000"
 12771      6F696E74 
 12771      31363136 
 12771      5F7400
 12772              	.LASF88:
 12773 04e7 564C3533 		.ascii	"VL53L0X_DeviceSpecificParameters_t\000"
 12773      4C30585F 
 12773      44657669 
 12773      63655370 
 12773      65636966 
 12774              	.LASF20:
 12775 050a 75696E74 		.ascii	"uint32_t\000"
 12775      33325F74 
 12775      00
 12776              	.LASF15:
 12777 0513 696E7438 		.ascii	"int8_t\000"
 12777      5F7400
ARM GAS  /var/folders/3j/4xdnk5197cv_b7cw3n33qk7r0000gn/T//ccSq9Yz5.s 			page 229


 12778              	.LASF132:
 12779 051a 5F5F746D 		.ascii	"__tm_hour\000"
 12779      5F686F75 
 12779      7200
 12780              	.LASF373:
 12781 0524 564C3533 		.ascii	"VL53L0X_SetXTalkCompensationEnable\000"
 12781      4C30585F 
 12781      53657458 
 12781      54616C6B 
 12781      436F6D70 
 12782              	.LASF119:
 12783 0547 5F5F636F 		.ascii	"__count\000"
 12783      756E7400 
 12784              	.LASF362:
 12785 054f 564C3533 		.ascii	"VL53L0X_ReadMulti\000"
 12785      4C30585F 
 12785      52656164 
 12785      4D756C74 
 12785      6900
 12786              	.LASF59:
 12787 0561 48697374 		.ascii	"HistogramType\000"
 12787      6F677261 
 12787      6D547970 
 12787      6500
 12788              	.LASF250:
 12789 056f 7668765F 		.ascii	"vhv_init_byte\000"
 12789      696E6974 
 12789      5F627974 
 12789      6500
 12790              	.LASF131:
 12791 057d 5F5F746D 		.ascii	"__tm_min\000"
 12791      5F6D696E 
 12791      00
 12792              	.LASF42:
 12793 0586 564C3533 		.ascii	"VL53L0X_DeviceParameters_t\000"
 12793      4C30585F 
 12793      44657669 
 12793      63655061 
 12793      72616D65 
 12794              	.LASF216:
 12795 05a1 5F6E6578 		.ascii	"_nextf\000"
 12795      746600
 12796              	.LASF23:
 12797 05a8 564C3533 		.ascii	"VL53L0X_DeviceError\000"
 12797      4C30585F 
 12797      44657669 
 12797      63654572 
 12797      726F7200 
 12798              	.LASF372:
 12799 05bc 564C3533 		.ascii	"VL53L0X_SetLimitCheckEnable\000"
 12799      4C30585F 
 12799      5365744C 
 12799      696D6974 
 12799      43686563 
 12800              	.LASF102:
 12801 05d8 74617267 		.ascii	"targetRefRate\000"
 12801      65745265 
ARM GAS  /var/folders/3j/4xdnk5197cv_b7cw3n33qk7r0000gn/T//ccSq9Yz5.s 			page 230


 12801      66526174 
 12801      6500
 12802              	.LASF17:
 12803 05e6 696E7431 		.ascii	"int16_t\000"
 12803      365F7400 
 12804              	.LASF193:
 12805 05ee 5F72616E 		.ascii	"_rand48\000"
 12805      64343800 
 12806              	.LASF345:
 12807 05f6 53657175 		.ascii	"SequenceStepEnabled\000"
 12807      656E6365 
 12807      53746570 
 12807      456E6162 
 12807      6C656400 
 12808              	.LASF260:
 12809 060a 564C3533 		.ascii	"VL53L0X_set_reference_spads\000"
 12809      4C30585F 
 12809      7365745F 
 12809      72656665 
 12809      72656E63 
 12810              	.LASF179:
 12811 0626 5F726573 		.ascii	"_result_k\000"
 12811      756C745F 
 12811      6B00
 12812              	.LASF91:
 12813 0630 50617274 		.ascii	"Part2PartOffsetAdjustmentNVMMicroMeter\000"
 12813      32506172 
 12813      744F6666 
 12813      73657441 
 12813      646A7573 
 12814              	.LASF14:
 12815 0657 6C6F6E67 		.ascii	"long long unsigned int\000"
 12815      206C6F6E 
 12815      6720756E 
 12815      7369676E 
 12815      65642069 
 12816              	.LASF44:
 12817 066e 416D6254 		.ascii	"AmbTuningWindowFactor_K\000"
 12817      756E696E 
 12817      6757696E 
 12817      646F7746 
 12817      6163746F 
 12818              	.LASF199:
 12819 0686 5F617363 		.ascii	"_asctime_buf\000"
 12819      74696D65 
 12819      5F627566 
 12819      00
 12820              	.LASF150:
 12821 0693 5F5F7346 		.ascii	"__sFILE\000"
 12821      494C4500 
 12822              	.LASF127:
 12823 069b 5F776473 		.ascii	"_wds\000"
 12823      00
 12824              	.LASF310:
 12825 06a0 656E6162 		.ascii	"enable_spad_bit\000"
 12825      6C655F73 
 12825      7061645F 
ARM GAS  /var/folders/3j/4xdnk5197cv_b7cw3n33qk7r0000gn/T//ccSq9Yz5.s 			page 231


 12825      62697400 
 12826              	.LASF320:
 12827 06b0 66696E65 		.ascii	"fineOffset\000"
 12827      4F666673 
 12827      657400
 12828              	.LASF270:
 12829 06bb 6C617374 		.ascii	"lastSpadArray\000"
 12829      53706164 
 12829      41727261 
 12829      7900
 12830              	.LASF68:
 12831 06c9 4F736346 		.ascii	"OscFrequencyMHz\000"
 12831      72657175 
 12831      656E6379 
 12831      4D487A00 
 12832              	.LASF307:
 12833 06d9 62697449 		.ascii	"bitIndex\000"
 12833      6E646578 
 12833      00
 12834              	.LASF7:
 12835 06e2 5F5F7569 		.ascii	"__uint16_t\000"
 12835      6E743136 
 12835      5F7400
 12836              	.LASF189:
 12837 06ed 5F5F4649 		.ascii	"__FILE\000"
 12837      4C4500
 12838              	.LASF303:
 12839 06f4 63537061 		.ascii	"cSpadsPerByte\000"
 12839      64735065 
 12839      72427974 
 12839      6500
 12840              	.LASF162:
 12841 0702 5F6F6666 		.ascii	"_offset\000"
 12841      73657400 
 12842              	.LASF319:
 12843 070a 73746172 		.ascii	"startIndex\000"
 12843      74496E64 
 12843      657800
 12844              	.LASF314:
 12845 0715 69735F61 		.ascii	"is_aperture\000"
 12845      70657274 
 12845      75726500 
 12846              	.LASF65:
 12847 0721 52656653 		.ascii	"RefSpadEnables\000"
 12847      70616445 
 12847      6E61626C 
 12847      657300
 12848              	.LASF263:
 12849 0730 73746172 		.ascii	"startSelect\000"
 12849      7453656C 
 12849      65637400 
 12850              	.LASF107:
 12851 073c 55736549 		.ascii	"UseInternalTuningSettings\000"
 12851      6E746572 
 12851      6E616C54 
 12851      756E696E 
 12851      67536574 
ARM GAS  /var/folders/3j/4xdnk5197cv_b7cw3n33qk7r0000gn/T//ccSq9Yz5.s 			page 232


 12852              	.LASF173:
 12853 0756 5F656D65 		.ascii	"_emergency\000"
 12853      7267656E 
 12853      637900
 12854              	.LASF236:
 12855 0761 564C3533 		.ascii	"VL53L0X_get_ref_calibration\000"
 12855      4C30585F 
 12855      6765745F 
 12855      7265665F 
 12855      63616C69 
 12856              	.LASF241:
 12857 077d 72657374 		.ascii	"restore_config\000"
 12857      6F72655F 
 12857      636F6E66 
 12857      696700
 12858              	.LASF108:
 12859 078c 4C696E65 		.ascii	"LinearityCorrectiveGain\000"
 12859      61726974 
 12859      79436F72 
 12859      72656374 
 12859      69766547 
 12860              	.LASF53:
 12861 07a4 45666665 		.ascii	"EffectiveSpadRtnCount\000"
 12861      63746976 
 12861      65537061 
 12861      6452746E 
 12861      436F756E 
 12862              	.LASF367:
 12863 07ba 564C3533 		.ascii	"VL53L0X_GetOffsetCalibrationDataMicroMeter\000"
 12863      4C30585F 
 12863      4765744F 
 12863      66667365 
 12863      7443616C 
 12864              	.LASF299:
 12865 07e5 62797465 		.ascii	"byteCount\000"
 12865      436F756E 
 12865      7400
 12866              	.LASF306:
 12867 07ef 62797465 		.ascii	"byteIndex\000"
 12867      496E6465 
 12867      7800
 12868              	.LASF96:
 12869 07f9 53706164 		.ascii	"SpadData\000"
 12869      44617461 
 12869      00
 12870              	.LASF290:
 12871 0802 6F666673 		.ascii	"offset\000"
 12871      657400
 12872              	.LASF33:
 12873 0809 496E7465 		.ascii	"InterMeasurementPeriodMilliSeconds\000"
 12873      724D6561 
 12873      73757265 
 12873      6D656E74 
 12873      50657269 
 12874              	.LASF82:
 12875 082c 52656665 		.ascii	"ReferenceSpadCount\000"
 12875      72656E63 
ARM GAS  /var/folders/3j/4xdnk5197cv_b7cw3n33qk7r0000gn/T//ccSq9Yz5.s 			page 233


 12875      65537061 
 12875      64436F75 
 12875      6E7400
 12876              	.LASF229:
 12877 083f 7375626F 		.ascii	"suboptarg\000"
 12877      70746172 
 12877      6700
 12878              	.LASF137:
 12879 0849 5F5F746D 		.ascii	"__tm_yday\000"
 12879      5F796461 
 12879      7900
 12880              	.LASF172:
 12881 0853 5F696E63 		.ascii	"_inc\000"
 12881      00
 12882              	.LASF145:
 12883 0858 5F696E64 		.ascii	"_ind\000"
 12883      00
 12884              	.LASF342:
 12885 085d 53746F72 		.ascii	"StoredMeanRange\000"
 12885      65644D65 
 12885      616E5261 
 12885      6E676500 
 12886              	.LASF79:
 12887 086d 4D6F6475 		.ascii	"ModuleId\000"
 12887      6C654964 
 12887      00
 12888              	.LASF58:
 12889 0876 48697374 		.ascii	"HistogramData\000"
 12889      6F677261 
 12889      6D446174 
 12889      6100
 12890              	.LASF40:
 12891 0884 4C696D69 		.ascii	"LimitChecksValue\000"
 12891      74436865 
 12891      636B7356 
 12891      616C7565 
 12891      00
 12892              	.LASF380:
 12893 0895 6765745F 		.ascii	"get_next_good_spad\000"
 12893      6E657874 
 12893      5F676F6F 
 12893      645F7370 
 12893      616400
 12894              	.LASF226:
 12895 08a8 636F6D6D 		.ascii	"comms_speed_khz\000"
 12895      735F7370 
 12895      6565645F 
 12895      6B687A00 
 12896              	.LASF124:
 12897 08b8 5F6E6578 		.ascii	"_next\000"
 12897      7400
 12898              	.LASF348:
 12899 08be 5854616C 		.ascii	"XTalkCalDistance\000"
 12899      6B43616C 
 12899      44697374 
 12899      616E6365 
 12899      00
ARM GAS  /var/folders/3j/4xdnk5197cv_b7cw3n33qk7r0000gn/T//ccSq9Yz5.s 			page 234


 12900              	.LASF212:
 12901 08cf 5F6D6273 		.ascii	"_mbsrtowcs_state\000"
 12901      72746F77 
 12901      63735F73 
 12901      74617465 
 12901      00
 12902              	.LASF258:
 12903 08e0 73706164 		.ascii	"spadsEnabled\000"
 12903      73456E61 
 12903      626C6564 
 12903      00
 12904              	.LASF37:
 12905 08ed 52616E67 		.ascii	"RangeOffsetMicroMeters\000"
 12905      654F6666 
 12905      7365744D 
 12905      6963726F 
 12905      4D657465 
 12906              	.LASF252:
 12907 0904 70537061 		.ascii	"pSpadCount\000"
 12907      64436F75 
 12907      6E7400
 12908              	.LASF323:
 12909 090f 564C3533 		.ascii	"VL53L0X_apply_offset_adjustment\000"
 12909      4C30585F 
 12909      6170706C 
 12909      795F6F66 
 12909      66736574 
 12910              	.LASF109:
 12911 092f 446D6178 		.ascii	"DmaxCalRangeMilliMeter\000"
 12911      43616C52 
 12911      616E6765 
 12911      4D696C6C 
 12911      694D6574 
 12912              	.LASF277:
 12913 0946 636F6D70 		.ascii	"complete\000"
 12913      6C657465 
 12913      00
 12914              	.LASF120:
 12915 094f 5F5F7661 		.ascii	"__value\000"
 12915      6C756500 
 12916              	.LASF76:
 12917 0957 5369676D 		.ascii	"SigmaEstEffPulseWidth\000"
 12917      61457374 
 12917      45666650 
 12917      756C7365 
 12917      57696474 
 12918              	.LASF253:
 12919 096d 70497341 		.ascii	"pIsApertureSpads\000"
 12919      70657274 
 12919      75726553 
 12919      70616473 
 12919      00
 12920              	.LASF180:
 12921 097e 5F703573 		.ascii	"_p5s\000"
 12921      00
 12922              	.LASF261:
 12923 0983 636F756E 		.ascii	"count\000"
ARM GAS  /var/folders/3j/4xdnk5197cv_b7cw3n33qk7r0000gn/T//ccSq9Yz5.s 			page 235


 12923      7400
 12924              	.LASF101:
 12925 0989 53746F70 		.ascii	"StopVariable\000"
 12925      56617269 
 12925      61626C65 
 12925      00
 12926              	.LASF313:
 12927 0996 66696E65 		.ascii	"fineIndex\000"
 12927      496E6465 
 12927      7800
 12928              	.LASF89:
 12929 09a0 444D6178 		.ascii	"DMaxData\000"
 12929      44617461 
 12929      00
 12930              	.LASF48:
 12931 09a9 4D656173 		.ascii	"MeasurementTimeUsec\000"
 12931      7572656D 
 12931      656E7454 
 12931      696D6555 
 12931      73656300 
 12932              	.LASF204:
 12933 09bd 5F6D626C 		.ascii	"_mblen_state\000"
 12933      656E5F73 
 12933      74617465 
 12933      00
 12934              	.LASF376:
 12935 09ca 564C3533 		.ascii	"VL53L0X_ClearInterruptMask\000"
 12935      4C30585F 
 12935      436C6561 
 12935      72496E74 
 12935      65727275 
 12936              	.LASF300:
 12937 09e5 6D617853 		.ascii	"maxSpads\000"
 12937      70616473 
 12937      00
 12938              	.LASF25:
 12939 09ee 63686172 		.ascii	"char\000"
 12939      00
 12940              	.LASF133:
 12941 09f3 5F5F746D 		.ascii	"__tm_mday\000"
 12941      5F6D6461 
 12941      7900
 12942              	.LASF186:
 12943 09fd 5F736967 		.ascii	"_sig_func\000"
 12943      5F66756E 
 12943      6300
 12944              	.LASF211:
 12945 0a07 5F6D6272 		.ascii	"_mbrtowc_state\000"
 12945      746F7763 
 12945      5F737461 
 12945      746500
 12946              	.LASF185:
 12947 0a16 5F617465 		.ascii	"_atexit0\000"
 12947      78697430 
 12947      00
 12948              	.LASF231:
 12949 0a1f 70566876 		.ascii	"pVhvSettings\000"
ARM GAS  /var/folders/3j/4xdnk5197cv_b7cw3n33qk7r0000gn/T//ccSq9Yz5.s 			page 236


 12949      53657474 
 12949      696E6773 
 12949      00
 12950              	.LASF78:
 12951 0a2c 52656164 		.ascii	"ReadDataFromDeviceDone\000"
 12951      44617461 
 12951      46726F6D 
 12951      44657669 
 12951      6365446F 
 12952              	.LASF32:
 12953 0a43 4D656173 		.ascii	"MeasurementTimingBudgetMicroSeconds\000"
 12953      7572656D 
 12953      656E7454 
 12953      696D696E 
 12953      67427564 
 12954              	.LASF93:
 12955 0a67 4C617374 		.ascii	"LastRangeMeasure\000"
 12955      52616E67 
 12955      654D6561 
 12955      73757265 
 12955      00
 12956              	.LASF278:
 12957 0a78 72656653 		.ascii	"refSpadCount_int\000"
 12957      70616443 
 12957      6F756E74 
 12957      5F696E74 
 12957      00
 12958              	.LASF61:
 12959 0a89 42756666 		.ascii	"BufferSize\000"
 12959      65725369 
 12959      7A6500
 12960              	.LASF285:
 12961 0a94 61706572 		.ascii	"apertureSpads\000"
 12961      74757265 
 12961      53706164 
 12961      7300
 12962              	.LASF269:
 12963 0aa2 72656653 		.ascii	"refSpadCount\000"
 12963      70616443 
 12963      6F756E74 
 12963      00
 12964              	.LASF122:
 12965 0aaf 5F666C6F 		.ascii	"_flock_t\000"
 12965      636B5F74 
 12965      00
 12966              	.LASF335:
 12967 0ab8 656E636F 		.ascii	"encodedOffsetVal\000"
 12967      6465644F 
 12967      66667365 
 12967      7456616C 
 12967      00
 12968              	.LASF67:
 12969 0ac9 564C3533 		.ascii	"VL53L0X_SpadData_t\000"
 12969      4C30585F 
 12969      53706164 
 12969      44617461 
 12969      5F7400
ARM GAS  /var/folders/3j/4xdnk5197cv_b7cw3n33qk7r0000gn/T//ccSq9Yz5.s 			page 237


 12970              	.LASF308:
 12971 0adc 74656D70 		.ascii	"tempByte\000"
 12971      42797465 
 12971      00
 12972              	.LASF117:
 12973 0ae5 5F5F7763 		.ascii	"__wch\000"
 12973      6800
 12974              	.LASF192:
 12975 0aeb 5F696F62 		.ascii	"_iobs\000"
 12975      7300
 12976              	.LASF16:
 12977 0af1 75696E74 		.ascii	"uint8_t\000"
 12977      385F7400 
 12978              	.LASF378:
 12979 0af9 2E2E2F2F 		.ascii	"..//VL53L0X_Api/core/src/vl53l0x_api_calibration.c\000"
 12979      564C3533 
 12979      4C30585F 
 12979      4170692F 
 12979      636F7265 
 12980              	.LASF24:
 12981 0b2c 564C3533 		.ascii	"VL53L0X_GpioFunctionality\000"
 12981      4C30585F 
 12981      4770696F 
 12981      46756E63 
 12981      74696F6E 
 12982              	.LASF322:
 12983 0b46 73756363 		.ascii	"success\000"
 12983      65737300 
 12984              	.LASF235:
 12985 0b4e 50686173 		.ascii	"PhaseCal\000"
 12985      6543616C 
 12985      00
 12986              	.LASF158:
 12987 0b57 5F636C6F 		.ascii	"_close\000"
 12987      736500
 12988              	.LASF305:
 12989 0b5e 6C617374 		.ascii	"lastBit\000"
 12989      42697400 
 12990              	.LASF176:
 12991 0b66 5F5F7364 		.ascii	"__sdidinit\000"
 12991      6964696E 
 12991      697400
 12992              	.LASF332:
 12993 0b71 4F666673 		.ascii	"OffsetCalibrationDataMicroMeter\000"
 12993      65744361 
 12993      6C696272 
 12993      6174696F 
 12993      6E446174 
 12994              	.LASF334:
 12995 0b91 634D696E 		.ascii	"cMinOffsetMicroMeter\000"
 12995      4F666673 
 12995      65744D69 
 12995      63726F4D 
 12995      65746572 
 12996              	.LASF28:
 12997 0ba6 564C3533 		.ascii	"VL53L0X_HistogramModes\000"
 12997      4C30585F 
ARM GAS  /var/folders/3j/4xdnk5197cv_b7cw3n33qk7r0000gn/T//ccSq9Yz5.s 			page 238


 12997      48697374 
 12997      6F677261 
 12997      6D4D6F64 
 12998              	.LASF350:
 12999 0bbd 73756D5F 		.ascii	"sum_spads\000"
 12999      73706164 
 12999      7300
 13000              	.LASF352:
 13001 0bc7 7874616C 		.ascii	"xtalk_meas\000"
 13001      6B5F6D65 
 13001      617300
 13002              	.LASF169:
 13003 0bd2 5F737464 		.ascii	"_stdin\000"
 13003      696E00
 13004              	.LASF201:
 13005 0bd9 5F67616D 		.ascii	"_gamma_signgam\000"
 13005      6D615F73 
 13005      69676E67 
 13005      616D00
 13006              	.LASF56:
 13007 0be8 52616E67 		.ascii	"RangeStatus\000"
 13007      65537461 
 13007      74757300 
 13008              	.LASF60:
 13009 0bf4 46697273 		.ascii	"FirstBin\000"
 13009      7442696E 
 13009      00
 13010              	.LASF13:
 13011 0bfd 6C6F6E67 		.ascii	"long long int\000"
 13011      206C6F6E 
 13011      6720696E 
 13011      7400
 13012              	.LASF309:
 13013 0c0b 73706164 		.ascii	"spadTypeIdentified\000"
 13013      54797065 
 13013      4964656E 
 13013      74696669 
 13013      656400
 13014              	.LASF316:
 13015 0c1e 69734170 		.ascii	"isAperture\000"
 13015      65727475 
 13015      726500
 13016              	.LASF328:
 13017 0c29 52616E67 		.ascii	"RangeOffsetRegister\000"
 13017      654F6666 
 13017      73657452 
 13017      65676973 
 13017      74657200 
 13018              	.LASF27:
 13019 0c3d 564C3533 		.ascii	"VL53L0X_DeviceModes\000"
 13019      4C30585F 
 13019      44657669 
 13019      63654D6F 
 13019      64657300 
 13020              	.LASF148:
 13021 0c51 5F626173 		.ascii	"_base\000"
 13021      6500
ARM GAS  /var/folders/3j/4xdnk5197cv_b7cw3n33qk7r0000gn/T//ccSq9Yz5.s 			page 239


 13022              	.LASF181:
 13023 0c57 5F667265 		.ascii	"_freelist\000"
 13023      656C6973 
 13023      7400
 13024              	.LASF358:
 13025 0c61 7854616C 		.ascii	"xTalkCalDistanceAsInt\000"
 13025      6B43616C 
 13025      44697374 
 13025      616E6365 
 13025      4173496E 
 13026              	.LASF195:
 13027 0c77 5F6D756C 		.ascii	"_mult\000"
 13027      7400
 13028              	.LASF349:
 13029 0c7d 70585461 		.ascii	"pXTalkCompensationRateMegaCps\000"
 13029      6C6B436F 
 13029      6D70656E 
 13029      73617469 
 13029      6F6E5261 
 13030              	.LASF123:
 13031 0c9b 5F5F554C 		.ascii	"__ULong\000"
 13031      6F6E6700 
 13032              	.LASF84:
 13033 0ca3 52656653 		.ascii	"RefSpadsInitialised\000"
 13033      70616473 
 13033      496E6974 
 13033      69616C69 
 13033      73656400 
 13034              	.LASF341:
 13035 0cb7 52616E67 		.ascii	"RangingMeasurementData\000"
 13035      696E674D 
 13035      65617375 
 13035      72656D65 
 13035      6E744461 
 13036              	.LASF213:
 13037 0cce 5F776372 		.ascii	"_wcrtomb_state\000"
 13037      746F6D62 
 13037      5F737461 
 13037      746500
 13038              	.LASF296:
 13039 0cdd 6765745F 		.ascii	"get_ref_spad_map\000"
 13039      7265665F 
 13039      73706164 
 13039      5F6D6170 
 13039      00
 13040              	.LASF152:
 13041 0cee 5F66696C 		.ascii	"_file\000"
 13041      6500
 13042              	.LASF340:
 13043 0cf4 746F7461 		.ascii	"total_count\000"
 13043      6C5F636F 
 13043      756E7400 
 13044              	.LASF5:
 13045 0d00 5F5F696E 		.ascii	"__int16_t\000"
 13045      7431365F 
 13045      7400
 13046              	.LASF344:
ARM GAS  /var/folders/3j/4xdnk5197cv_b7cw3n33qk7r0000gn/T//ccSq9Yz5.s 			page 240


 13047 0d0a 43616C44 		.ascii	"CalDistanceAsInt_mm\000"
 13047      69737461 
 13047      6E636541 
 13047      73496E74 
 13047      5F6D6D00 
 13048              	.LASF361:
 13049 0d1e 564C3533 		.ascii	"VL53L0X_RdByte\000"
 13049      4C30585F 
 13049      52644279 
 13049      746500
 13050              	.LASF177:
 13051 0d2d 5F5F636C 		.ascii	"__cleanup\000"
 13051      65616E75 
 13051      7000
 13052              	.LASF121:
 13053 0d37 5F6D6273 		.ascii	"_mbstate_t\000"
 13053      74617465 
 13053      5F7400
 13054              	.LASF365:
 13055 0d42 564C3533 		.ascii	"VL53L0X_RdWord\000"
 13055      4C30585F 
 13055      5264576F 
 13055      726400
 13056              	.LASF288:
 13057 0d51 73697A65 		.ascii	"size\000"
 13057      00
 13058              	.LASF45:
 13059 0d56 52657453 		.ascii	"RetSignalAt0mm\000"
 13059      69676E61 
 13059      6C417430 
 13059      6D6D00
 13060              	.LASF333:
 13061 0d65 634D6178 		.ascii	"cMaxOffsetMicroMeter\000"
 13061      4F666673 
 13061      65744D69 
 13061      63726F4D 
 13061      65746572 
 13062              	.LASF138:
 13063 0d7a 5F5F746D 		.ascii	"__tm_isdst\000"
 13063      5F697364 
 13063      737400
 13064              	.LASF230:
 13065 0d85 72656641 		.ascii	"refArrayQuadrants\000"
 13065      72726179 
 13065      51756164 
 13065      72616E74 
 13065      7300
 13066              	.LASF326:
 13067 0d97 564C3533 		.ascii	"VL53L0X_get_offset_calibration_data_micro_meter\000"
 13067      4C30585F 
 13067      6765745F 
 13067      6F666673 
 13067      65745F63 
 13068              	.LASF243:
 13069 0dc7 564C3533 		.ascii	"VL53L0X_perform_vhv_calibration\000"
 13069      4C30585F 
 13069      70657266 
ARM GAS  /var/folders/3j/4xdnk5197cv_b7cw3n33qk7r0000gn/T//ccSq9Yz5.s 			page 241


 13069      6F726D5F 
 13069      7668765F 
 13070              	.LASF214:
 13071 0de7 5F776373 		.ascii	"_wcsrtombs_state\000"
 13071      72746F6D 
 13071      62735F73 
 13071      74617465 
 13071      00
 13072              	.LASF289:
 13073 0df8 73746172 		.ascii	"start\000"
 13073      7400
 13074              	.LASF324:
 13075 0dfe 436F7272 		.ascii	"CorrectedOffsetMicroMeters\000"
 13075      65637465 
 13075      644F6666 
 13075      7365744D 
 13075      6963726F 
 13076              	.LASF281:
 13077 0e19 72656653 		.ascii	"refSignalRate\000"
 13077      69676E61 
 13077      6C526174 
 13077      6500
 13078              	.LASF215:
 13079 0e27 5F685F65 		.ascii	"_h_errno\000"
 13079      72726E6F 
 13079      00
 13080              	.LASF268:
 13081 0e30 564C3533 		.ascii	"VL53L0X_perform_ref_spad_management\000"
 13081      4C30585F 
 13081      70657266 
 13081      6F726D5F 
 13081      7265665F 
 13082              	.LASF249:
 13083 0e54 50686173 		.ascii	"PhaseCalint\000"
 13083      6543616C 
 13083      696E7400 
 13084              	.LASF264:
 13085 0e60 73706164 		.ascii	"spadArraySize\000"
 13085      41727261 
 13085      7953697A 
 13085      6500
 13086              	.LASF43:
 13087 0e6e 564C3533 		.ascii	"VL53L0X_State\000"
 13087      4C30585F 
 13087      53746174 
 13087      6500
 13088              	.LASF46:
 13089 0e7c 564C3533 		.ascii	"VL53L0X_DMaxData_t\000"
 13089      4C30585F 
 13089      444D6178 
 13089      44617461 
 13089      5F7400
 13090              	.LASF2:
 13091 0e8f 5F5F696E 		.ascii	"__int8_t\000"
 13091      74385F74 
 13091      00
 13092              	.LASF257:
ARM GAS  /var/folders/3j/4xdnk5197cv_b7cw3n33qk7r0000gn/T//ccSq9Yz5.s 			page 242


 13093 0e98 63537061 		.ascii	"cSpadArraySize\000"
 13093      64417272 
 13093      61795369 
 13093      7A6500
 13094              	.LASF259:
 13095 0ea7 69734170 		.ascii	"isApertureSpads\000"
 13095      65727475 
 13095      72655370 
 13095      61647300 
 13096              	.LASF134:
 13097 0eb7 5F5F746D 		.ascii	"__tm_mon\000"
 13097      5F6D6F6E 
 13097      00
 13098              	.LASF30:
 13099 0ec0 44657669 		.ascii	"DeviceMode\000"
 13099      63654D6F 
 13099      646500
 13100              	.LASF36:
 13101 0ecb 5854616C 		.ascii	"XTalkCompensationRateMegaCps\000"
 13101      6B436F6D 
 13101      70656E73 
 13101      6174696F 
 13101      6E526174 
 13102              	.LASF21:
 13103 0ee8 6C6F6E67 		.ascii	"long double\000"
 13103      20646F75 
 13103      626C6500 
 13104              	.LASF351:
 13105 0ef4 73756D5F 		.ascii	"sum_signalRate\000"
 13105      7369676E 
 13105      616C5261 
 13105      746500
 13106              	.LASF113:
 13107 0f03 5F4C4F43 		.ascii	"_LOCK_T\000"
 13107      4B5F5400 
 13108              	.LASF18:
 13109 0f0b 75696E74 		.ascii	"uint16_t\000"
 13109      31365F74 
 13109      00
 13110              	.LASF57:
 13111 0f14 564C3533 		.ascii	"VL53L0X_RangingMeasurementData_t\000"
 13111      4C30585F 
 13111      52616E67 
 13111      696E674D 
 13111      65617375 
 13112              	.LASF156:
 13113 0f35 5F777269 		.ascii	"_write\000"
 13113      746500
 13114              	.LASF237:
 13115 0f3c 564C3533 		.ascii	"VL53L0X_set_ref_calibration\000"
 13115      4C30585F 
 13115      7365745F 
 13115      7265665F 
 13115      63616C69 
 13116              	.LASF366:
 13117 0f58 564C3533 		.ascii	"VL53L0X_get_info_from_device\000"
 13117      4C30585F 
ARM GAS  /var/folders/3j/4xdnk5197cv_b7cw3n33qk7r0000gn/T//ccSq9Yz5.s 			page 243


 13117      6765745F 
 13117      696E666F 
 13117      5F66726F 
 13118              	.LASF369:
 13119 0f75 564C3533 		.ascii	"VL53L0X_WrWord\000"
 13119      4C30585F 
 13119      5772576F 
 13119      726400
 13120              	.LASF97:
 13121 0f84 53657175 		.ascii	"SequenceConfig\000"
 13121      656E6365 
 13121      436F6E66 
 13121      696700
 13122              	.LASF144:
 13123 0f93 5F617465 		.ascii	"_atexit\000"
 13123      78697400 
 13124              	.LASF167:
 13125 0f9b 5F726565 		.ascii	"_reent\000"
 13125      6E7400
 13126              	.LASF379:
 13127 0fa2 2F557365 		.ascii	"/Users/kevinmalmsten/development_raspberry_pi/Chibi"
 13127      72732F6B 
 13127      6576696E 
 13127      6D616C6D 
 13127      7374656E 
 13128 0fd5 4F532D42 		.ascii	"OS-Backup/__Backup_System\000"
 13128      61636B75 
 13128      702F5F5F 
 13128      4261636B 
 13128      75705F53 
 13129              	.LASF295:
 13130 0fef 564C3533 		.ascii	"VL53L0X_perform_single_ref_calibration\000"
 13130      4C30585F 
 13130      70657266 
 13130      6F726D5F 
 13130      73696E67 
 13131              	.LASF247:
 13132 1016 7668765F 		.ascii	"vhv_enable\000"
 13132      656E6162 
 13132      6C6500
 13133              	.LASF284:
 13134 1021 656E6162 		.ascii	"enable_ref_spads\000"
 13134      6C655F72 
 13134      65665F73 
 13134      70616473 
 13134      00
 13135              	.LASF6:
 13136 1032 73686F72 		.ascii	"short int\000"
 13136      7420696E 
 13136      7400
 13137              	.LASF280:
 13138 103c 70657266 		.ascii	"perform_ref_signal_measurement\000"
 13138      6F726D5F 
 13138      7265665F 
 13138      7369676E 
 13138      616C5F6D 
 13139              	.LASF304:
ARM GAS  /var/folders/3j/4xdnk5197cv_b7cw3n33qk7r0000gn/T//ccSq9Yz5.s 			page 244


 13140 105b 6C617374 		.ascii	"lastByte\000"
 13140      42797465 
 13140      00
 13141              	.LASF317:
 13142 1064 63757272 		.ascii	"curr\000"
 13142      00
 13143              	.LASF10:
 13144 1069 6C6F6E67 		.ascii	"long int\000"
 13144      20696E74 
 13144      00
 13145              	.LASF363:
 13146 1072 564C3533 		.ascii	"VL53L0X_WriteMulti\000"
 13146      4C30585F 
 13146      57726974 
 13146      654D756C 
 13146      746900
 13147              	.LASF360:
 13148 1085 564C3533 		.ascii	"VL53L0X_UpdateByte\000"
 13148      4C30585F 
 13148      55706461 
 13148      74654279 
 13148      746500
 13149              	.LASF85:
 13150 1098 50617274 		.ascii	"PartUIDUpper\000"
 13150      55494455 
 13150      70706572 
 13150      00
 13151              	.LASF104:
 13152 10a5 5369676E 		.ascii	"SignalEstimate\000"
 13152      616C4573 
 13152      74696D61 
 13152      746500
 13153              	.LASF282:
 13154 10b4 73746174 		.ascii	"status\000"
 13154      757300
 13155              	.LASF224:
 13156 10bb 49326344 		.ascii	"I2cDevAddr\000"
 13156      65764164 
 13156      647200
 13157              	.LASF188:
 13158 10c6 5F5F7366 		.ascii	"__sf\000"
 13158      00
 13159              	.LASF126:
 13160 10cb 5F736967 		.ascii	"_sign\000"
 13160      6E00
 13161              	.LASF325:
 13162 10d1 43757272 		.ascii	"CurrentOffsetMicroMeters\000"
 13162      656E744F 
 13162      66667365 
 13162      744D6963 
 13162      726F4D65 
 13163              	.LASF339:
 13164 10ea 73756D5F 		.ascii	"sum_ranging\000"
 13164      72616E67 
 13164      696E6700 
 13165              	.LASF368:
 13166 10f6 564C3533 		.ascii	"VL53L0X_SetOffsetCalibrationDataMicroMeter\000"
ARM GAS  /var/folders/3j/4xdnk5197cv_b7cw3n33qk7r0000gn/T//ccSq9Yz5.s 			page 245


 13166      4C30585F 
 13166      5365744F 
 13166      66667365 
 13166      7443616C 
 13167              	.LASF163:
 13168 1121 5F646174 		.ascii	"_data\000"
 13168      6100
 13169              	.LASF105:
 13170 1127 4C617374 		.ascii	"LastSignalRefMcps\000"
 13170      5369676E 
 13170      616C5265 
 13170      664D6370 
 13170      7300
 13171              	.LASF118:
 13172 1139 5F5F7763 		.ascii	"__wchb\000"
 13172      686200
 13173              	.LASF222:
 13174 1140 5F676C6F 		.ascii	"_global_impure_ptr\000"
 13174      62616C5F 
 13174      696D7075 
 13174      72655F70 
 13174      747200
 13175              	.LASF71:
 13176 1153 46696E61 		.ascii	"FinalRangeTimeoutMicroSecs\000"
 13176      6C52616E 
 13176      67655469 
 13176      6D656F75 
 13176      744D6963 
 13177              	.LASF135:
 13178 116e 5F5F746D 		.ascii	"__tm_year\000"
 13178      5F796561 
 13178      7200
 13179              	.LASF54:
 13180 1178 5A6F6E65 		.ascii	"ZoneId\000"
 13180      496400
 13181              	.LASF200:
 13182 117f 5F6C6F63 		.ascii	"_localtime_buf\000"
 13182      616C7469 
 13182      6D655F62 
 13182      756600
 13183              	.LASF239:
 13184 118e 6765745F 		.ascii	"get_data_enable\000"
 13184      64617461 
 13184      5F656E61 
 13184      626C6500 
 13185              	.LASF218:
 13186 119e 5F756E75 		.ascii	"_unused\000"
 13186      73656400 
 13187              	.LASF3:
 13188 11a6 5F5F7569 		.ascii	"__uint8_t\000"
 13188      6E74385F 
 13188      7400
 13189              	.LASF234:
 13190 11b0 56687653 		.ascii	"VhvSettings\000"
 13190      65747469 
 13190      6E677300 
 13191              	.LASF245:
ARM GAS  /var/folders/3j/4xdnk5197cv_b7cw3n33qk7r0000gn/T//ccSq9Yz5.s 			page 246


 13192 11bc 564C3533 		.ascii	"VL53L0X_ref_calibration_io\000"
 13192      4C30585F 
 13192      7265665F 
 13192      63616C69 
 13192      62726174 
 13193              	.LASF184:
 13194 11d7 5F6E6577 		.ascii	"_new\000"
 13194      00
 13195              	.LASF182:
 13196 11dc 5F637674 		.ascii	"_cvtlen\000"
 13196      6C656E00 
 13197              	.LASF66:
 13198 11e4 52656647 		.ascii	"RefGoodSpadMap\000"
 13198      6F6F6453 
 13198      7061644D 
 13198      617000
 13199              	.LASF207:
 13200 11f3 5F6C3634 		.ascii	"_l64a_buf\000"
 13200      615F6275 
 13200      6600
 13201              	.LASF26:
 13202 11fd 564C3533 		.ascii	"VL53L0X_Error\000"
 13202      4C30585F 
 13202      4572726F 
 13202      7200
 13203              	.LASF364:
 13204 120b 564C3533 		.ascii	"VL53L0X_PerformSingleRangingMeasurement\000"
 13204      4C30585F 
 13204      50657266 
 13204      6F726D53 
 13204      696E676C 
 13205              	.LASF371:
 13206 1233 564C3533 		.ascii	"VL53L0X_SetSequenceStepEnable\000"
 13206      4C30585F 
 13206      53657453 
 13206      65717565 
 13206      6E636553 
 13207              	.LASF225:
 13208 1251 636F6D6D 		.ascii	"comms_type\000"
 13208      735F7479 
 13208      706500
 13209              	.LASF355:
 13210 125c 7854616C 		.ascii	"xTalkStoredMeanRtnSpads\000"
 13210      6B53746F 
 13210      7265644D 
 13210      65616E52 
 13210      746E5370 
 13211              	.LASF301:
 13212 1274 70546F74 		.ascii	"pTotalSpadsEnabled\000"
 13212      616C5370 
 13212      61647345 
 13212      6E61626C 
 13212      656400
 13213              	.LASF161:
 13214 1287 5F626C6B 		.ascii	"_blksize\000"
 13214      73697A65 
 13214      00
ARM GAS  /var/folders/3j/4xdnk5197cv_b7cw3n33qk7r0000gn/T//ccSq9Yz5.s 			page 247


 13215              	.LASF129:
 13216 1290 5F5F746D 		.ascii	"__tm\000"
 13216      00
 13217              	.LASF164:
 13218 1295 5F6C6F63 		.ascii	"_lock\000"
 13218      6B00
 13219              	.LASF265:
 13220 129b 6D617853 		.ascii	"maxSpadCount\000"
 13220      70616443 
 13220      6F756E74 
 13220      00
 13221              	.LASF291:
 13222 12a8 73706164 		.ascii	"spadCount\000"
 13222      436F756E 
 13222      7400
 13223              	.LASF311:
 13224 12b2 73706164 		.ascii	"spadIndex\000"
 13224      496E6465 
 13224      7800
 13225              	.LASF92:
 13226 12bc 43757272 		.ascii	"CurrentParameters\000"
 13226      656E7450 
 13226      6172616D 
 13226      65746572 
 13226      7300
 13227              	.LASF12:
 13228 12ce 6C6F6E67 		.ascii	"long unsigned int\000"
 13228      20756E73 
 13228      69676E65 
 13228      6420696E 
 13228      7400
 13229              	.LASF293:
 13230 12e0 63757272 		.ascii	"currentSpad\000"
 13230      656E7453 
 13230      70616400 
 13231              	.LASF95:
 13232 12ec 44657669 		.ascii	"DeviceSpecificParameters\000"
 13232      63655370 
 13232      65636966 
 13232      69635061 
 13232      72616D65 
 13233              	.LASF191:
 13234 1305 5F6E696F 		.ascii	"_niobs\000"
 13234      627300
 13235              	.LASF116:
 13236 130c 77696E74 		.ascii	"wint_t\000"
 13236      5F7400
 13237              	.LASF106:
 13238 1313 7054756E 		.ascii	"pTuningSettingsPointer\000"
 13238      696E6753 
 13238      65747469 
 13238      6E677350 
 13238      6F696E74 
 13239              	.LASF19:
 13240 132a 696E7433 		.ascii	"int32_t\000"
 13240      325F7400 
 13241              	.LASF141:
ARM GAS  /var/folders/3j/4xdnk5197cv_b7cw3n33qk7r0000gn/T//ccSq9Yz5.s 			page 248


 13242 1332 5F64736F 		.ascii	"_dso_handle\000"
 13242      5F68616E 
 13242      646C6500 
 13243              	.LASF275:
 13244 133e 7369676E 		.ascii	"signalRateDiff\000"
 13244      616C5261 
 13244      74654469 
 13244      666600
 13245              	.LASF219:
 13246 134d 5F5F6C6F 		.ascii	"__lock\000"
 13246      636B00
 13247              	.LASF77:
 13248 1354 5369676D 		.ascii	"SigmaEstEffAmbWidth\000"
 13248      61457374 
 13248      45666641 
 13248      6D625769 
 13248      64746800 
 13249              	.LASF294:
 13250 1368 63686563 		.ascii	"checkSpadArray\000"
 13250      6B537061 
 13250      64417272 
 13250      617900
 13251              	.LASF272:
 13252 1377 6E657874 		.ascii	"nextGoodSpad\000"
 13252      476F6F64 
 13252      53706164 
 13252      00
 13253              	.LASF170:
 13254 1384 5F737464 		.ascii	"_stdout\000"
 13254      6F757400 
 13255              	.LASF183:
 13256 138c 5F637674 		.ascii	"_cvtbuf\000"
 13256      62756600 
 13257              	.LASF255:
 13258 1394 72656653 		.ascii	"refSpadArray\000"
 13258      70616441 
 13258      72726179 
 13258      00
 13259              	.LASF4:
 13260 13a1 756E7369 		.ascii	"unsigned char\000"
 13260      676E6564 
 13260      20636861 
 13260      7200
 13261              	.LASF62:
 13262 13af 4E756D62 		.ascii	"NumberOfBins\000"
 13262      65724F66 
 13262      42696E73 
 13262      00
 13263              	.LASF73:
 13264 13bc 50726552 		.ascii	"PreRangeTimeoutMicroSecs\000"
 13264      616E6765 
 13264      54696D65 
 13264      6F75744D 
 13264      6963726F 
 13265              	.LASF11:
 13266 13d5 5F5F7569 		.ascii	"__uint32_t\000"
 13266      6E743332 
ARM GAS  /var/folders/3j/4xdnk5197cv_b7cw3n33qk7r0000gn/T//ccSq9Yz5.s 			page 249


 13266      5F7400
 13267              	.LASF110:
 13268 13e0 446D6178 		.ascii	"DmaxCalSignalRateRtnMegaCps\000"
 13268      43616C53 
 13268      69676E61 
 13268      6C526174 
 13268      6552746E 
 13269              	.LASF72:
 13270 13fc 46696E61 		.ascii	"FinalRangeVcselPulsePeriod\000"
 13270      6C52616E 
 13270      67655663 
 13270      73656C50 
 13270      756C7365 
 13271              	.LASF209:
 13272 1417 5F676574 		.ascii	"_getdate_err\000"
 13272      64617465 
 13272      5F657272 
 13272      00
 13273              	.LASF153:
 13274 1424 5F6C6266 		.ascii	"_lbfsize\000"
 13274      73697A65 
 13274      00
 13275              	.LASF276:
 13276 142d 6C617374 		.ascii	"lastSignalRateDiff\000"
 13276      5369676E 
 13276      616C5261 
 13276      74654469 
 13276      666600
 13277              	.LASF111:
 13278 1440 564C3533 		.ascii	"VL53L0X_DevData_t\000"
 13278      4C30585F 
 13278      44657644 
 13278      6174615F 
 13278      7400
 13279              	.LASF142:
 13280 1452 5F666E74 		.ascii	"_fntypes\000"
 13280      79706573 
 13280      00
 13281              	.LASF196:
 13282 145b 5F616464 		.ascii	"_add\000"
 13282      00
 13283              	.LASF273:
 13284 1460 7065616B 		.ascii	"peakSignalRateRef\000"
 13284      5369676E 
 13284      616C5261 
 13284      74655265 
 13284      6600
 13285              	.LASF254:
 13286 1472 72656653 		.ascii	"refSpadsInitialised\000"
 13286      70616473 
 13286      496E6974 
 13286      69616C69 
 13286      73656400 
 13287              	.LASF279:
 13288 1486 69734170 		.ascii	"isApertureSpads_int\000"
 13288      65727475 
 13288      72655370 
ARM GAS  /var/folders/3j/4xdnk5197cv_b7cw3n33qk7r0000gn/T//ccSq9Yz5.s 			page 250


 13288      6164735F 
 13288      696E7400 
 13289              	.LASF147:
 13290 149a 5F5F7362 		.ascii	"__sbuf\000"
 13290      756600
 13291              	.LASF266:
 13292 14a1 6C617374 		.ascii	"lastSpadIndex\000"
 13292      53706164 
 13292      496E6465 
 13292      7800
 13293              	.LASF327:
 13294 14af 704F6666 		.ascii	"pOffsetCalibrationDataMicroMeter\000"
 13294      73657443 
 13294      616C6962 
 13294      72617469 
 13294      6F6E4461 
 13295              	.LASF70:
 13296 14d0 50696E30 		.ascii	"Pin0GpioFunctionality\000"
 13296      4770696F 
 13296      46756E63 
 13296      74696F6E 
 13296      616C6974 
 13297              	.LASF190:
 13298 14e6 5F676C75 		.ascii	"_glue\000"
 13298      6500
 13299              	.LASF330:
 13300 14ec 634F6666 		.ascii	"cOffsetRange\000"
 13300      73657452 
 13300      616E6765 
 13300      00
 13301              	.LASF292:
 13302 14f9 6C617374 		.ascii	"lastSpad\000"
 13302      53706164 
 13302      00
 13303              	.LASF187:
 13304 1502 5F5F7367 		.ascii	"__sglue\000"
 13304      6C756500 
 13305              	.LASF312:
 13306 150a 636F6172 		.ascii	"coarseIndex\000"
 13306      7365496E 
 13306      64657800 
 13307              	.LASF198:
 13308 1516 5F737472 		.ascii	"_strtok_last\000"
 13308      746F6B5F 
 13308      6C617374 
 13308      00
 13309              	.LASF205:
 13310 1523 5F6D6274 		.ascii	"_mbtowc_state\000"
 13310      6F77635F 
 13310      73746174 
 13310      6500
 13311              	.LASF244:
 13312 1531 50686173 		.ascii	"PhaseCalInt\000"
 13312      6543616C 
 13312      496E7400 
 13313              	.LASF175:
 13314 153d 5F6C6F63 		.ascii	"_locale\000"
ARM GAS  /var/folders/3j/4xdnk5197cv_b7cw3n33qk7r0000gn/T//ccSq9Yz5.s 			page 251


 13314      616C6500 
 13315              	.LASF112:
 13316 1545 564C3533 		.ascii	"VL53L0X_VcselPeriod\000"
 13316      4C30585F 
 13316      56637365 
 13316      6C506572 
 13316      696F6400 
 13317              	.LASF140:
 13318 1559 5F666E61 		.ascii	"_fnargs\000"
 13318      72677300 
 13319              	.LASF1:
 13320 1561 7369676E 		.ascii	"signed char\000"
 13320      65642063 
 13320      68617200 
 13321              	.LASF94:
 13322 156d 4C617374 		.ascii	"LastHistogramMeasure\000"
 13322      48697374 
 13322      6F677261 
 13322      6D4D6561 
 13322      73757265 
 13323              	.LASF8:
 13324 1582 73686F72 		.ascii	"short unsigned int\000"
 13324      7420756E 
 13324      7369676E 
 13324      65642069 
 13324      6E7400
 13325              	.LASF98:
 13326 1595 52616E67 		.ascii	"RangeFractionalEnable\000"
 13326      65467261 
 13326      6374696F 
 13326      6E616C45 
 13326      6E61626C 
 13327              	.LASF357:
 13328 15ab 7854616C 		.ascii	"xTalkStoredMeanRtnSpadsAsInt\000"
 13328      6B53746F 
 13328      7265644D 
 13328      65616E52 
 13328      746E5370 
 13329              	.LASF49:
 13330 15c8 52616E67 		.ascii	"RangeMilliMeter\000"
 13330      654D696C 
 13330      6C694D65 
 13330      74657200 
 13331              	.LASF103:
 13332 15d8 5369676D 		.ascii	"SigmaEstimate\000"
 13332      61457374 
 13332      696D6174 
 13332      6500
 13333              	.LASF75:
 13334 15e6 5369676D 		.ascii	"SigmaEstRefArray\000"
 13334      61457374 
 13334      52656641 
 13334      72726179 
 13334      00
 13335              	.LASF149:
 13336 15f7 5F73697A 		.ascii	"_size\000"
 13336      6500
ARM GAS  /var/folders/3j/4xdnk5197cv_b7cw3n33qk7r0000gn/T//ccSq9Yz5.s 			page 252


 13337              	.LASF55:
 13338 15fd 52616E67 		.ascii	"RangeFractionalPart\000"
 13338      65467261 
 13338      6374696F 
 13338      6E616C50 
 13338      61727400 
 13339              	.LASF283:
 13340 1611 72616E67 		.ascii	"rangingMeasurementData\000"
 13340      696E674D 
 13340      65617375 
 13340      72656D65 
 13340      6E744461 
 13341              	.LASF346:
 13342 1628 6D656173 		.ascii	"meas\000"
 13342      00
 13343              	.LASF114:
 13344 162d 5F6F6666 		.ascii	"_off_t\000"
 13344      5F7400
 13345              	.LASF69:
 13346 1634 4C617374 		.ascii	"LastEncodedTimeout\000"
 13346      456E636F 
 13346      64656454 
 13346      696D656F 
 13346      757400
 13347              	.LASF160:
 13348 1647 5F6E6275 		.ascii	"_nbuf\000"
 13348      6600
 13349              	.LASF197:
 13350 164d 5F756E75 		.ascii	"_unused_rand\000"
 13350      7365645F 
 13350      72616E64 
 13350      00
 13351              	.LASF251:
 13352 165a 564C3533 		.ascii	"VL53L0X_get_reference_spads\000"
 13352      4C30585F 
 13352      6765745F 
 13352      72656665 
 13352      72656E63 
 13353              	.LASF375:
 13354 1676 564C3533 		.ascii	"VL53L0X_measurement_poll_for_completion\000"
 13354      4C30585F 
 13354      6D656173 
 13354      7572656D 
 13354      656E745F 
 13355              	.LASF286:
 13356 169e 676F6F64 		.ascii	"goodSpadArray\000"
 13356      53706164 
 13356      41727261 
 13356      7900
 13357              	.LASF174:
 13358 16ac 5F756E73 		.ascii	"_unspecified_locale_info\000"
 13358      70656369 
 13358      66696564 
 13358      5F6C6F63 
 13358      616C655F 
 13359              	.LASF166:
 13360 16c5 5F666C61 		.ascii	"_flags2\000"
ARM GAS  /var/folders/3j/4xdnk5197cv_b7cw3n33qk7r0000gn/T//ccSq9Yz5.s 			page 253


 13360      67733200 
 13361              	.LASF143:
 13362 16cd 5F69735F 		.ascii	"_is_cxa\000"
 13362      63786100 
 13363              	.LASF374:
 13364 16d5 564C3533 		.ascii	"VL53L0X_SetXTalkCompensationRateMegaCps\000"
 13364      4C30585F 
 13364      53657458 
 13364      54616C6B 
 13364      436F6D70 
 13365              	.LASF99:
 13366 16fd 50616C53 		.ascii	"PalState\000"
 13366      74617465 
 13366      00
 13367              	.LASF47:
 13368 1706 54696D65 		.ascii	"TimeStamp\000"
 13368      5374616D 
 13368      7000
 13369              	.LASF194:
 13370 1710 5F736565 		.ascii	"_seed\000"
 13370      6400
 13371              	.LASF202:
 13372 1716 5F72616E 		.ascii	"_rand_next\000"
 13372      645F6E65 
 13372      787400
 13373              	.LASF64:
 13374 1721 564C3533 		.ascii	"VL53L0X_HistogramMeasurementData_t\000"
 13374      4C30585F 
 13374      48697374 
 13374      6F677261 
 13374      6D4D6561 
 13375              	.LASF223:
 13376 1744 44617461 		.ascii	"Data\000"
 13376      00
 13377              	.LASF157:
 13378 1749 5F736565 		.ascii	"_seek\000"
 13378      6B00
 13379              	.LASF256:
 13380 174f 634D6178 		.ascii	"cMaxSpadCount\000"
 13380      53706164 
 13380      436F756E 
 13380      7400
 13381              	.LASF171:
 13382 175d 5F737464 		.ascii	"_stderr\000"
 13382      65727200 
 13383              	.LASF217:
 13384 1765 5F6E6D61 		.ascii	"_nmalloc\000"
 13384      6C6C6F63 
 13384      00
 13385              	.LASF159:
 13386 176e 5F756275 		.ascii	"_ubuf\000"
 13386      6600
 13387              	.LASF347:
 13388 1774 564C3533 		.ascii	"VL53L0X_perform_xtalk_calibration\000"
 13388      4C30585F 
 13388      70657266 
 13388      6F726D5F 
ARM GAS  /var/folders/3j/4xdnk5197cv_b7cw3n33qk7r0000gn/T//ccSq9Yz5.s 			page 254


 13388      7874616C 
 13389              	.LASF87:
 13390 1796 5369676E 		.ascii	"SignalRateMeasFixed400mm\000"
 13390      616C5261 
 13390      74654D65 
 13390      61734669 
 13390      78656434 
 13391              	.LASF238:
 13392 17af 564C3533 		.ascii	"VL53L0X_perform_ref_calibration\000"
 13392      4C30585F 
 13392      70657266 
 13392      6F726D5F 
 13392      7265665F 
 13393              		.ident	"GCC: (GNU Tools for Arm Embedded Processors 7-2018-q2-update) 7.3.1 20180622 (release) [AR
ARM GAS  /var/folders/3j/4xdnk5197cv_b7cw3n33qk7r0000gn/T//ccSq9Yz5.s 			page 255


DEFINED SYMBOLS
                            *ABS*:0000000000000000 vl53l0x_api_calibration.c
/var/folders/3j/4xdnk5197cv_b7cw3n33qk7r0000gn/T//ccSq9Yz5.s:17     .text.VL53L0X_perform_xtalk_calibration:0000000000000000 $a
/var/folders/3j/4xdnk5197cv_b7cw3n33qk7r0000gn/T//ccSq9Yz5.s:23     .text.VL53L0X_perform_xtalk_calibration:0000000000000000 VL53L0X_perform_xtalk_calibration
/var/folders/3j/4xdnk5197cv_b7cw3n33qk7r0000gn/T//ccSq9Yz5.s:260    .text.VL53L0X_perform_offset_calibration:0000000000000000 $a
/var/folders/3j/4xdnk5197cv_b7cw3n33qk7r0000gn/T//ccSq9Yz5.s:266    .text.VL53L0X_perform_offset_calibration:0000000000000000 VL53L0X_perform_offset_calibration
/var/folders/3j/4xdnk5197cv_b7cw3n33qk7r0000gn/T//ccSq9Yz5.s:454    .text.VL53L0X_set_offset_calibration_data_micro_meter:0000000000000000 $a
/var/folders/3j/4xdnk5197cv_b7cw3n33qk7r0000gn/T//ccSq9Yz5.s:460    .text.VL53L0X_set_offset_calibration_data_micro_meter:0000000000000000 VL53L0X_set_offset_calibration_data_micro_meter
/var/folders/3j/4xdnk5197cv_b7cw3n33qk7r0000gn/T//ccSq9Yz5.s:501    .text.VL53L0X_set_offset_calibration_data_micro_meter:000000000000004c $d
/var/folders/3j/4xdnk5197cv_b7cw3n33qk7r0000gn/T//ccSq9Yz5.s:508    .text.VL53L0X_get_offset_calibration_data_micro_meter:0000000000000000 $a
/var/folders/3j/4xdnk5197cv_b7cw3n33qk7r0000gn/T//ccSq9Yz5.s:514    .text.VL53L0X_get_offset_calibration_data_micro_meter:0000000000000000 VL53L0X_get_offset_calibration_data_micro_meter
/var/folders/3j/4xdnk5197cv_b7cw3n33qk7r0000gn/T//ccSq9Yz5.s:566    .text.VL53L0X_apply_offset_adjustment:0000000000000000 $a
/var/folders/3j/4xdnk5197cv_b7cw3n33qk7r0000gn/T//ccSq9Yz5.s:572    .text.VL53L0X_apply_offset_adjustment:0000000000000000 VL53L0X_apply_offset_adjustment
/var/folders/3j/4xdnk5197cv_b7cw3n33qk7r0000gn/T//ccSq9Yz5.s:647    .text.get_next_good_spad:0000000000000000 $a
/var/folders/3j/4xdnk5197cv_b7cw3n33qk7r0000gn/T//ccSq9Yz5.s:653    .text.get_next_good_spad:0000000000000000 get_next_good_spad
/var/folders/3j/4xdnk5197cv_b7cw3n33qk7r0000gn/T//ccSq9Yz5.s:733    .text.is_aperture:0000000000000000 $a
/var/folders/3j/4xdnk5197cv_b7cw3n33qk7r0000gn/T//ccSq9Yz5.s:739    .text.is_aperture:0000000000000000 is_aperture
/var/folders/3j/4xdnk5197cv_b7cw3n33qk7r0000gn/T//ccSq9Yz5.s:762    .text.is_aperture:0000000000000018 $d
/var/folders/3j/4xdnk5197cv_b7cw3n33qk7r0000gn/T//ccSq9Yz5.s:767    .text.enable_spad_bit:0000000000000000 $a
/var/folders/3j/4xdnk5197cv_b7cw3n33qk7r0000gn/T//ccSq9Yz5.s:773    .text.enable_spad_bit:0000000000000000 enable_spad_bit
/var/folders/3j/4xdnk5197cv_b7cw3n33qk7r0000gn/T//ccSq9Yz5.s:817    .text.count_enabled_spads:0000000000000000 $a
/var/folders/3j/4xdnk5197cv_b7cw3n33qk7r0000gn/T//ccSq9Yz5.s:823    .text.count_enabled_spads:0000000000000000 count_enabled_spads
/var/folders/3j/4xdnk5197cv_b7cw3n33qk7r0000gn/T//ccSq9Yz5.s:943    .text.set_ref_spad_map:0000000000000000 $a
/var/folders/3j/4xdnk5197cv_b7cw3n33qk7r0000gn/T//ccSq9Yz5.s:949    .text.set_ref_spad_map:0000000000000000 set_ref_spad_map
/var/folders/3j/4xdnk5197cv_b7cw3n33qk7r0000gn/T//ccSq9Yz5.s:968    .text.get_ref_spad_map:0000000000000000 $a
/var/folders/3j/4xdnk5197cv_b7cw3n33qk7r0000gn/T//ccSq9Yz5.s:974    .text.get_ref_spad_map:0000000000000000 get_ref_spad_map
/var/folders/3j/4xdnk5197cv_b7cw3n33qk7r0000gn/T//ccSq9Yz5.s:993    .text.enable_ref_spads:0000000000000000 $a
/var/folders/3j/4xdnk5197cv_b7cw3n33qk7r0000gn/T//ccSq9Yz5.s:999    .text.enable_ref_spads:0000000000000000 enable_ref_spads
/var/folders/3j/4xdnk5197cv_b7cw3n33qk7r0000gn/T//ccSq9Yz5.s:1202   .text.enable_ref_spads:0000000000000138 $d
/var/folders/3j/4xdnk5197cv_b7cw3n33qk7r0000gn/T//ccSq9Yz5.s:1207   .text.perform_ref_signal_measurement:0000000000000000 $a
/var/folders/3j/4xdnk5197cv_b7cw3n33qk7r0000gn/T//ccSq9Yz5.s:1213   .text.perform_ref_signal_measurement:0000000000000000 perform_ref_signal_measurement
/var/folders/3j/4xdnk5197cv_b7cw3n33qk7r0000gn/T//ccSq9Yz5.s:1319   .text.VL53L0X_set_reference_spads:0000000000000000 $a
/var/folders/3j/4xdnk5197cv_b7cw3n33qk7r0000gn/T//ccSq9Yz5.s:1325   .text.VL53L0X_set_reference_spads:0000000000000000 VL53L0X_set_reference_spads
/var/folders/3j/4xdnk5197cv_b7cw3n33qk7r0000gn/T//ccSq9Yz5.s:1490   .text.VL53L0X_set_reference_spads:000000000000011c $d
/var/folders/3j/4xdnk5197cv_b7cw3n33qk7r0000gn/T//ccSq9Yz5.s:1495   .text.VL53L0X_get_reference_spads:0000000000000000 $a
/var/folders/3j/4xdnk5197cv_b7cw3n33qk7r0000gn/T//ccSq9Yz5.s:1501   .text.VL53L0X_get_reference_spads:0000000000000000 VL53L0X_get_reference_spads
/var/folders/3j/4xdnk5197cv_b7cw3n33qk7r0000gn/T//ccSq9Yz5.s:1620   .text.VL53L0X_perform_single_ref_calibration:0000000000000000 $a
/var/folders/3j/4xdnk5197cv_b7cw3n33qk7r0000gn/T//ccSq9Yz5.s:1626   .text.VL53L0X_perform_single_ref_calibration:0000000000000000 VL53L0X_perform_single_ref_calibration
/var/folders/3j/4xdnk5197cv_b7cw3n33qk7r0000gn/T//ccSq9Yz5.s:1702   .text.VL53L0X_ref_calibration_io:0000000000000000 $a
/var/folders/3j/4xdnk5197cv_b7cw3n33qk7r0000gn/T//ccSq9Yz5.s:1708   .text.VL53L0X_ref_calibration_io:0000000000000000 VL53L0X_ref_calibration_io
/var/folders/3j/4xdnk5197cv_b7cw3n33qk7r0000gn/T//ccSq9Yz5.s:1910   .text.VL53L0X_perform_vhv_calibration:0000000000000000 $a
/var/folders/3j/4xdnk5197cv_b7cw3n33qk7r0000gn/T//ccSq9Yz5.s:1916   .text.VL53L0X_perform_vhv_calibration:0000000000000000 VL53L0X_perform_vhv_calibration
/var/folders/3j/4xdnk5197cv_b7cw3n33qk7r0000gn/T//ccSq9Yz5.s:2031   .text.VL53L0X_perform_phase_calibration:0000000000000000 $a
/var/folders/3j/4xdnk5197cv_b7cw3n33qk7r0000gn/T//ccSq9Yz5.s:2037   .text.VL53L0X_perform_phase_calibration:0000000000000000 VL53L0X_perform_phase_calibration
/var/folders/3j/4xdnk5197cv_b7cw3n33qk7r0000gn/T//ccSq9Yz5.s:2146   .text.VL53L0X_perform_ref_calibration:0000000000000000 $a
/var/folders/3j/4xdnk5197cv_b7cw3n33qk7r0000gn/T//ccSq9Yz5.s:2152   .text.VL53L0X_perform_ref_calibration:0000000000000000 VL53L0X_perform_ref_calibration
/var/folders/3j/4xdnk5197cv_b7cw3n33qk7r0000gn/T//ccSq9Yz5.s:2216   .text.VL53L0X_perform_ref_spad_management:0000000000000000 $a
/var/folders/3j/4xdnk5197cv_b7cw3n33qk7r0000gn/T//ccSq9Yz5.s:2222   .text.VL53L0X_perform_ref_spad_management:0000000000000000 VL53L0X_perform_ref_spad_management
/var/folders/3j/4xdnk5197cv_b7cw3n33qk7r0000gn/T//ccSq9Yz5.s:2728   .text.VL53L0X_perform_ref_spad_management:00000000000003cc $d
/var/folders/3j/4xdnk5197cv_b7cw3n33qk7r0000gn/T//ccSq9Yz5.s:2733   .text.VL53L0X_set_ref_calibration:0000000000000000 $a
/var/folders/3j/4xdnk5197cv_b7cw3n33qk7r0000gn/T//ccSq9Yz5.s:2739   .text.VL53L0X_set_ref_calibration:0000000000000000 VL53L0X_set_ref_calibration
/var/folders/3j/4xdnk5197cv_b7cw3n33qk7r0000gn/T//ccSq9Yz5.s:2777   .text.VL53L0X_get_ref_calibration:0000000000000000 $a
/var/folders/3j/4xdnk5197cv_b7cw3n33qk7r0000gn/T//ccSq9Yz5.s:2783   .text.VL53L0X_get_ref_calibration:0000000000000000 VL53L0X_get_ref_calibration
/var/folders/3j/4xdnk5197cv_b7cw3n33qk7r0000gn/T//ccSq9Yz5.s:2823   .data.refArrayQuadrants:0000000000000000 refArrayQuadrants
/var/folders/3j/4xdnk5197cv_b7cw3n33qk7r0000gn/T//ccSq9Yz5.s:2819   .data.refArrayQuadrants:0000000000000000 $d

UNDEFINED SYMBOLS
ARM GAS  /var/folders/3j/4xdnk5197cv_b7cw3n33qk7r0000gn/T//ccSq9Yz5.s 			page 256


__aeabi_uidiv
VL53L0X_SetXTalkCompensationEnable
VL53L0X_SetLimitCheckEnable
VL53L0X_PerformSingleRangingMeasurement
VL53L0X_SetXTalkCompensationRateMegaCps
VL53L0X_SetOffsetCalibrationDataMicroMeter
VL53L0X_GetSequenceStepEnable
VL53L0X_SetSequenceStepEnable
VL53L0X_WrWord
VL53L0X_RdWord
VL53L0X_get_info_from_device
VL53L0X_GetOffsetCalibrationDataMicroMeter
VL53L0X_WriteMulti
VL53L0X_ReadMulti
VL53L0X_WrByte
VL53L0X_measurement_poll_for_completion
VL53L0X_ClearInterruptMask
VL53L0X_UpdateByte
VL53L0X_RdByte
