
build/ch.elf:     file format elf32-littlearm
build/ch.elf
architecture: arm, flags 0x00000112:
EXEC_P, HAS_SYMS, D_PAGED
start address 0x00008000

Program Header:
    LOAD off    0x00000000 vaddr 0x00000000 paddr 0x00000000 align 2**16
         filesz 0x0000c8bc memsz 0x0000cc18 flags rwx
private flags = 5000200: [Version5 EABI] [soft-float ABI]

Sections:
Idx Name          Size      VMA       LMA       File off  Algn
  0 .text         00004301  00008000  00008000  00008000  2**4
                  CONTENTS, ALLOC, LOAD, READONLY, CODE
  1 .data         000005b4  0000c308  0000c308  0000c308  2**3
                  CONTENTS, ALLOC, LOAD, DATA
  2 .bss          0000035c  0000c8bc  0000c8bc  0000c8bc  2**2
                  ALLOC
  3 .ARM.attributes 00000033  00000000  00000000  0000c8bc  2**0
                  CONTENTS, READONLY
  4 .comment      0000007f  00000000  00000000  0000c8ef  2**0
                  CONTENTS, READONLY
  5 .debug_info   0001615f  00000000  00000000  0000c96e  2**0
                  CONTENTS, READONLY, DEBUGGING
  6 .debug_abbrev 00003b9c  00000000  00000000  00022acd  2**0
                  CONTENTS, READONLY, DEBUGGING
  7 .debug_loc    00004928  00000000  00000000  00026669  2**0
                  CONTENTS, READONLY, DEBUGGING
  8 .debug_aranges 00000808  00000000  00000000  0002af91  2**0
                  CONTENTS, READONLY, DEBUGGING
  9 .debug_ranges 00000c68  00000000  00000000  0002b799  2**0
                  CONTENTS, READONLY, DEBUGGING
 10 .debug_line   000053c4  00000000  00000000  0002c401  2**0
                  CONTENTS, READONLY, DEBUGGING
 11 .debug_str    00001c8d  00000000  00000000  000317c5  2**0
                  CONTENTS, READONLY, DEBUGGING
 12 .debug_frame  000017e8  00000000  00000000  00033454  2**2
                  CONTENTS, READONLY, DEBUGGING
SYMBOL TABLE:
00008000 l    d  .text	00000000 .text
0000c308 l    d  .data	00000000 .data
0000c8bc l    d  .bss	00000000 .bss
00000000 l    d  .ARM.attributes	00000000 .ARM.attributes
00000000 l    d  .comment	00000000 .comment
00000000 l    d  .debug_info	00000000 .debug_info
00000000 l    d  .debug_abbrev	00000000 .debug_abbrev
00000000 l    d  .debug_loc	00000000 .debug_loc
00000000 l    d  .debug_aranges	00000000 .debug_aranges
00000000 l    d  .debug_ranges	00000000 .debug_ranges
00000000 l    d  .debug_line	00000000 .debug_line
00000000 l    d  .debug_str	00000000 .debug_str
00000000 l    d  .debug_frame	00000000 .debug_frame
00000000 l    df *ABS*	00000000 build/obj/vectors.o
00008000 l       .text	00000000 _start
00008020 l       .text	00000000 _reset
00008024 l       .text	00000000 _undefined
00008028 l       .text	00000000 _swi
0000802c l       .text	00000000 _prefetch
00008030 l       .text	00000000 _abort
00008038 l       .text	00000000 _irq
0000803c l       .text	00000000 _fiq
00000000 l    df *ABS*	00000000 build/obj/crt0.o
00000010 l       *ABS*	00000000 MODE_USR
00000011 l       *ABS*	00000000 MODE_FIQ
00000012 l       *ABS*	00000000 MODE_IRQ
00000013 l       *ABS*	00000000 MODE_SVC
00000017 l       *ABS*	00000000 MODE_ABT
0000001b l       *ABS*	00000000 MODE_UND
0000001f l       *ABS*	00000000 MODE_SYS
00000080 l       *ABS*	00000000 I_BIT
00000040 l       *ABS*	00000000 F_BIT
000080ac l       .text	00000000 bssloop
000080c0 l       .text	00000000 .loop
000080c4 l       .text	00000000 hwinit0
00000000 l    df *ABS*	00000000 build/obj/chcoreasm.o
00000010 l       *ABS*	00000000 MODE_USR
00000011 l       *ABS*	00000000 MODE_FIQ
00000012 l       *ABS*	00000000 MODE_IRQ
00000013 l       *ABS*	00000000 MODE_SVC
00000017 l       *ABS*	00000000 MODE_ABT
0000001b l       *ABS*	00000000 MODE_UND
0000001f l       *ABS*	00000000 MODE_SYS
00000080 l       *ABS*	00000000 I_BIT
00000040 l       *ABS*	00000000 F_BIT
00000000 l    df *ABS*	00000000 _udivsi3.o
000081c0 l       .text	00000000 .udivsi3_skip_div0_test
00000000 l    df *ABS*	00000000 _dvmd_tls.o
00000000 l    df *ABS*	00000000 _arm_addsubdf3.o
00000000 l    df *ABS*	00000000 _arm_muldivdf3.o
00000000 l    df *ABS*	00000000 _arm_fixdfsi.o
00000000 l    df *ABS*	00000000 _arm_truncdfsf2.o
00000000 l    df *ABS*	00000000 _arm_cmpsf2.o
00000000 l    df *ABS*	00000000 _arm_fixsfsi.o
00000000 l    df *ABS*	00000000 chsys.c
0000c8bc l     O .bss	00000044 mainthread.4724
00000000 l    df *ABS*	00000000 chvt.c
00000000 l    df *ABS*	00000000 chschd.c
00009050 l     F .text	000000b0 wakeup
00000000 l    df *ABS*	00000000 chthreads.c
00000000 l    df *ABS*	00000000 chdynamic.c
00000000 l    df *ABS*	00000000 chmtx.c
00000000 l    df *ABS*	00000000 chevents.c
00000000 l    df *ABS*	00000000 chqueues.c
00009ad0 l     F .text	0000003c qwait
00000000 l    df *ABS*	00000000 chmemcore.c
0000c900 l     O .bss	00000004 endmem
0000c904 l     O .bss	00000004 nextmem
00000000 l    df *ABS*	00000000 chheap.c
0000c908 l     O .bss	0000001c default_heap
00000000 l    df *ABS*	00000000 hal.c
00000000 l    df *ABS*	00000000 i2c.c
00000000 l    df *ABS*	00000000 serial.c
0000a1c0 l     F .text	00000008 readt
0000a1d0 l     F .text	0000000c read
0000a1e0 l     F .text	00000008 writet
0000a1f0 l     F .text	0000000c write
0000a200 l     F .text	00000008 gett
0000a210 l     F .text	0000000c get
0000a220 l     F .text	00000008 putt
0000a230 l     F .text	0000000c put
0000bf30 l     O .text	00000020 vmt
00000000 l    df *ABS*	00000000 spi.c
00000000 l    df *ABS*	00000000 tm.c
0000a390 l     F .text	00000014 tm_start
0000a3b0 l     F .text	0000004c tm_stop
0000c924 l     O .bss	00000004 measurement_offset
00000000 l    df *ABS*	00000000 hal_lld.c
00000000 l    df *ABS*	00000000 pal_lld.c
0000a540 l     F .text	00000040 set_gpio_in.isra.0
0000a580 l     F .text	00000044 set_gpio_pud.isra.1
00000000 l    df *ABS*	00000000 serial_lld.c
0000a760 l     F .text	00000018 output_notify
0000bf50 l     O .text	00000004 default_config
00000000 l    df *ABS*	00000000 i2c_lld.c
00000000 l    df *ABS*	00000000 spi_lld.c
00000000 l    df *ABS*	00000000 bcm2835.c
00000000 l    df *ABS*	00000000 board.c
00000000 l    df *ABS*	00000000 shell.c
0000acd0 l     F .text	00000034 cmd_systime
0000ad10 l     F .text	000000e8 cmd_info
0000ae00 l     F .text	00000078 _strtok.constprop.2
0000afe0 l     F .text	000002bc shell_thread
0000c308 l     O .data	00000018 local_commands
00000000 l    df *ABS*	00000000 chprintf.c
00000000 l    df *ABS*	00000000 main.c
0000ba90 l     F .text	00000064 Thread1
0000bb00 l     F .text	0000001c cmd_reboot
0000c928 l     O .bss	00000118 waThread1
0000c190 l     O .text	00000010 commands
0000c1c0 l     O .text	00000008 shell_config
00000000 l    df *ABS*	00000000 strcasecmp.c
00000000 l    df *ABS*	00000000 strchr.c
00000000 l    df *ABS*	00000000 strspn.c
00000000 l    df *ABS*	00000000 locale.c
00000000 l    df *ABS*	00000000 mbtowc_r.c
00000000 l    df *ABS*	00000000 wctomb_r.c
00000000 l    df *ABS*	00000000 chregistry.c
00000000 l    df *ABS*	00000000 ctype_.c
00000000 l    df *ABS*	00000000 impure.c
0000c328 l     O .data	00000428 impure_data
0000bf60 g     O .text	00000000 pal_default_config
00008ee0 g     F .text	00000090 chSysTimerHandlerI
000096a0 g     F .text	00000008 chThdExit
00009a90 g     F .text	00000040 chEvtBroadcastFlagsI
000091d0 g     F .text	00000074 chSchGoSleepTimeoutS
0000a190 g     F .text	00000004 i2cInit
000097e0 g     F .text	0000019c chMtxLockS
000086b4 g     F .text	00000060 .hidden __floatdidf
0000a0a0 g     F .text	000000b8 chHeapFree
0000aa90 g     F .text	00000184 spi_lld_serve_interrupt
0000a740 g     F .text	0000001c _pal_lld_writeport
000081b0 g       .text	00000000 get_cpsr
0000be40 g     F .text	00000028 __locale_ctype_ptr
0000c301 g       .text	00000000 __exidx_end
00008de0 g     F .text	0000005c .hidden __fixsfsi
00009180 g     F .text	00000044 chSchGoSleepS
00008180  w      .text	00000000 UndHandler
0000cc18 g       *ABS*	00000000 __heap_base__
0000cbac g     O .bss	00000040 I2C0
0000c304 g       .data	00000000 _etext
000094d0 g     F .text	00000090 chThdCreateI
0000cb08 g     O .bss	00000018 IOPORT1
0000049c g       *ABS*	00000000 __stacks_total_size__
00009250 g     F .text	000000ac chSchWakeupS
0000a2d0 g     F .text	0000004c sdIncomingDataI
00009de0 g     F .text	00000080 chOQGetI
00009100 g     F .text	00000024 _scheduler_init
00009560 g     F .text	000000a8 chThdCreateStatic
00008dbc g     F .text	00000018 .hidden __aeabi_fcmpgt
00008630 g     F .text	00000028 .hidden __floatsidf
00009130 g     F .text	00000048 chSchReadyI
00008f70 g     F .text	00000024 _vt_init
000081c0 g     F .text	000000f4 .hidden __udivsi3
00009fa0 g     F .text	00000028 _heap_init
0000a160 g     F .text	0000002c halInit
00008cc8 g     F .text	0000006c .hidden __lesf2
0000c8bc g       .bss	00000000 _bss_start
00009350 g     F .text	00000078 chSchDoRescheduleBehind
06007b44 g       *ABS*	00000000 __heap_end__
00009760 g     F .text	00000060 chThdCreateFromHeap
0000860c g     F .text	00000024 .hidden __aeabi_ui2d
0000cb20 g     O .bss	00000018 IOPORT0
0000a500 g     F .text	00000034 watchdog_start
000082f0 g     F .text	00000000 .hidden __aeabi_drsub
00000004 g       *ABS*	00000000 __abt_stack_size__
00008040 g       .text	00000000 ResetHandler
00009c60 g     F .text	000000a8 chIQReadTimeout
0000a4b0 g     F .text	00000050 hal_lld_init
00008658 g     F .text	00000048 .hidden __extendsfdf2
000089b0 g     F .text	0000020c .hidden __aeabi_ddiv
000082fc g     F .text	00000310 .hidden __adddf3
00008cd0 g     F .text	00000064 .hidden __nesf2
0000ac20 g     F .text	0000000c spi_lld_init
0000c301 g       .text	00000000 __exidx_start
00008720 g     F .text	00000290 .hidden __aeabi_dmul
0000ac30 g     F .text	0000004c bcm2835_gpio_fnsel
00009630 g     F .text	00000064 chThdExitS
0000cc14 g     O .bss	00000004 shell_terminated
0000860c g     F .text	00000024 .hidden __floatunsidf
0000cbec g     O .bss	00000028 SPI0
0000ae80 g     F .text	00000010 shellInit
00008c20 g     F .text	000000a0 .hidden __aeabi_d2f
00008fa0 g     F .text	00000064 chVTSetI
0000cc18 g       .bss	00000000 _bss_end
0000a670 g     F .text	000000c8 _pal_lld_setgroupmode
00008da4 g     F .text	00000018 .hidden __aeabi_fcmpge
00008bc0 g     F .text	0000005c .hidden __fixdfsi
0000a830 g     F .text	00000018 sd_lld_init
00008cc0 g     F .text	00000074 .hidden __gtsf2
000082fc g     F .text	00000310 .hidden __aeabi_dadd
00009980 g     F .text	00000014 chMtxLock
00008d8c g     F .text	00000018 .hidden __aeabi_fcmple
000086a0 g     F .text	00000074 .hidden __aeabi_ul2d
00009440 g     F .text	00000020 chSchDoReschedule
00008e60 g     F .text	00000078 chSysInit
00009610 g     F .text	0000001c chThdSleep
00009b10 g     F .text	00000038 chIQInit
0000a320 g     F .text	00000034 sdRequestDataI
0000a370 g     F .text	0000001c spiObjectInit
0000a5d0 g     F .text	00000098 _pal_lld_init
0000a240 g     F .text	00000004 sdInit
000082f8 g     F .text	00000314 .hidden __aeabi_dsub
00009f10 g     F .text	00000034 _core_init
000086a0 g     F .text	00000074 .hidden __floatundidf
0000a2b0 g     F .text	00000020 sdStart
00000080 g       *ABS*	00000000 __irq_stack_size__
000080f0 g       .text	00000000 _port_switch_arm
00000400 g       *ABS*	00000000 __sys_stack_size__
05ffffe0 g       *ABS*	00000000 __ram_size__
00008de0 g     F .text	0000005c .hidden __aeabi_f2iz
00008cd0 g     F .text	00000064 .hidden __eqsf2
0000bbd0 g     F .text	00000070 strcasecmp
000081a0 g       .text	00000000 arm_enable_irq
0000cadc g     O .bss	00000010 vtlist
00009f50 g     F .text	00000044 chCoreAlloc
0000ae90 g     F .text	00000024 shellCreate
00008630 g     F .text	00000028 .hidden __aeabi_i2d
00009fd0 g     F .text	000000c4 chHeapAlloc
0000a920 g     F .text	0000014c i2c_lld_serve_interrupt
000082e0  w    F .text	00000004 .hidden __aeabi_ldiv0
000089b0 g     F .text	0000020c .hidden __divdf3
00008720 g     F .text	00000290 .hidden __muldf3
0000c304 g       *ABS*	00000000 _textdata
00008000 g       .text	00000000 _text
00008180  w      .text	00000000 PrefetchHandler
00008cd0 g     F .text	00000064 .hidden __cmpsf2
0000bb20 g     F .text	000000a4 main
0000caec g     O .bss	0000001c rlist
00008cc8 g     F .text	0000006c .hidden __ltsf2
0000a360 g     F .text	00000004 spiInit
000081c0 g     F .text	00000000 .hidden __aeabi_uidiv
00008c20 g     F .text	000000a0 .hidden __truncdfsf2
0000bec0 g     F .text	00000028 __ascii_wctomb
000086b4 g     F .text	00000060 .hidden __aeabi_l2d
000097c0 g     F .text	00000014 chMtxInit
00008e40 g     F .text	00000020 _idle_thread
00009e60 g     F .text	000000ac chOQWriteTimeout
00008d44 g     F .text	00000018 .hidden __aeabi_cfcmple
0000bf10 g     O .text	00000016 ch_debug
0000b2a0 g     F .text	000007e8 chprintf
00009a40 g     F .text	00000050 chEvtSignalI
00008000 g       .text	00000000 __ram_start__
00008160 g       .text	00000000 _port_thread_start
0000ac80 g     F .text	0000003c bcm2835_delay
000093d0 g     F .text	00000070 chSchDoRescheduleAhead
0000aa70 g     F .text	0000001c i2c_lld_init
00008cc0 g     F .text	00000074 .hidden __gesf2
0000c320 g     O .data	00000004 _impure_ptr
00008d5c g     F .text	00000018 .hidden __aeabi_fcmpeq
0000a1a0 g     F .text	00000018 i2cObjectInit
0000aec0 g     F .text	00000120 shellGetLine
00009700 g     F .text	00000054 chThdRelease
00008d34 g     F .text	00000028 .hidden __aeabi_cfrcmple
0000ca40 g     O .bss	0000009c _idle_thread_wa
00009d10 g     F .text	00000034 chOQInit
0000be70 g     F .text	00000044 __ascii_mbtowc
00009be0 g     F .text	00000074 chIQGetTimeout
0000c308 g       .data	00000000 _data
00008100 g       .text	00000000 _port_irq_common
00008180  w      .text	00000000 AbortHandler
00009b50 g     F .text	00000088 chIQPutI
0000a400 g     F .text	00000064 tmInit
00008d74 g     F .text	00000018 .hidden __aeabi_fcmplt
000099a0 g     F .text	000000a0 chMtxUnlock
000082b4 g     F .text	00000020 .hidden __aeabi_uidivmod
0000c8bc g       .data	00000000 _edata
06007fe0 g       *ABS*	00000000 __ram_end__
0000cc18 g       .bss	00000000 _end
00009010 g     F .text	0000003c chVTResetI
00008180 g       .text	00000000 _unhandled_exception
0000a250 g     F .text	00000060 sdObjectInit
06007b44 g       *ABS*	00000000 __main_thread_stack_base__
0000a780 g     F .text	000000a8 sd_lld_serve_interrupt
0000a470 g     F .text	00000040 IrqHandler
00008bc0 g     F .text	0000005c .hidden __aeabi_d2iz
00008d44 g     F .text	00000018 .hidden __aeabi_cfcmpeq
00008180  w      .text	00000000 SwiHandler
0000c200 g     O .text	00000101 _ctype_
000082e0  w    F .text	00000004 .hidden __aeabi_idiv0
000096b0 g     F .text	00000050 chThdWait
00009300 g     F .text	00000044 chSchIsPreemptionRequired
0000cb38 g     O .bss	00000074 SD1
00000010 g       *ABS*	00000000 __fiq_stack_size__
0000bdd0 g     F .text	00000070 strspn
00009460 g     F .text	0000006c _thread_init
00000004 g       *ABS*	00000000 __svc_stack_size__
00000004 g       *ABS*	00000000 __und_stack_size__
0000bc40 g     F .text	00000184 strchr
00009d50 g     F .text	0000008c chOQPutTimeout
00008658 g     F .text	00000048 .hidden __aeabi_f2d
0000acc0 g     F .text	00000004 boardInit
0000a850 g     F .text	000000c4 sd_lld_start
000080c0  w      .text	00000000 _main_exit_handler
000082f8 g     F .text	00000314 .hidden __subdf3
00008184 g       .text	00000000 __early_init
0000c750 g     O .data	0000016c __global_locale
00008180  w      .text	00000000 FiqHandler



Disassembly of section .text:

00008000 <__ram_start__>:
    8000:	e59ff018 	ldr	pc, [pc, #24]	; 8020 <_reset>
    8004:	e59ff018 	ldr	pc, [pc, #24]	; 8024 <_undefined>
    8008:	e59ff018 	ldr	pc, [pc, #24]	; 8028 <_swi>
    800c:	e59ff018 	ldr	pc, [pc, #24]	; 802c <_prefetch>
    8010:	e59ff018 	ldr	pc, [pc, #24]	; 8030 <_abort>
    8014:	e320f000 	nop	{0}
    8018:	e59ff018 	ldr	pc, [pc, #24]	; 8038 <_irq>
    801c:	e59ff018 	ldr	pc, [pc, #24]	; 803c <_fiq>

00008020 <_reset>:
    8020:	00008040 	andeq	r8, r0, r0, asr #32

00008024 <_undefined>:
    8024:	00008180 	andeq	r8, r0, r0, lsl #3

00008028 <_swi>:
    8028:	00008180 	andeq	r8, r0, r0, lsl #3

0000802c <_prefetch>:
    802c:	00008180 	andeq	r8, r0, r0, lsl #3

00008030 <_abort>:
    8030:	00008180 	andeq	r8, r0, r0, lsl #3
    8034:	00000000 	andeq	r0, r0, r0

00008038 <_irq>:
    8038:	0000a470 	andeq	sl, r0, r0, ror r4

0000803c <_fiq>:
    803c:	00008180 	andeq	r8, r0, r0, lsl #3

00008040 <ResetHandler>:
    8040:	e59f0080 	ldr	r0, [pc, #128]	; 80c8 <hwinit0+0x4>
    8044:	e321f0db 	msr	CPSR_c, #219	; 0xdb
    8048:	e1a0d000 	mov	sp, r0
    804c:	e59f1078 	ldr	r1, [pc, #120]	; 80cc <hwinit0+0x8>
    8050:	e0400001 	sub	r0, r0, r1
    8054:	e321f0d7 	msr	CPSR_c, #215	; 0xd7
    8058:	e1a0d000 	mov	sp, r0
    805c:	e59f106c 	ldr	r1, [pc, #108]	; 80d0 <hwinit0+0xc>
    8060:	e0400001 	sub	r0, r0, r1
    8064:	e321f0d1 	msr	CPSR_c, #209	; 0xd1
    8068:	e1a0d000 	mov	sp, r0
    806c:	e59f1060 	ldr	r1, [pc, #96]	; 80d4 <hwinit0+0x10>
    8070:	e0400001 	sub	r0, r0, r1
    8074:	e321f0d2 	msr	CPSR_c, #210	; 0xd2
    8078:	e1a0d000 	mov	sp, r0
    807c:	e59f1054 	ldr	r1, [pc, #84]	; 80d8 <hwinit0+0x14>
    8080:	e0400001 	sub	r0, r0, r1
    8084:	e321f0d3 	msr	CPSR_c, #211	; 0xd3
    8088:	e1a0d000 	mov	sp, r0
    808c:	e59f1048 	ldr	r1, [pc, #72]	; 80dc <hwinit0+0x18>
    8090:	e0400001 	sub	r0, r0, r1
    8094:	e321f0df 	msr	CPSR_c, #223	; 0xdf
    8098:	e1a0d000 	mov	sp, r0
    809c:	eb000038 	bl	8184 <__early_init>
    80a0:	e3a00000 	mov	r0, #0
    80a4:	e59f1034 	ldr	r1, [pc, #52]	; 80e0 <hwinit0+0x1c>
    80a8:	e59f2034 	ldr	r2, [pc, #52]	; 80e4 <hwinit0+0x20>

000080ac <bssloop>:
    80ac:	e1510002 	cmp	r1, r2
    80b0:	34810004 	strcc	r0, [r1], #4
    80b4:	3afffffc 	bcc	80ac <bssloop>
    80b8:	eb000e98 	bl	bb20 <main>
    80bc:	eaffffff 	b	80c0 <_main_exit_handler>

000080c0 <_main_exit_handler>:
    80c0:	eafffffe 	b	80c0 <_main_exit_handler>

000080c4 <hwinit0>:
    80c4:	e12fff1e 	bx	lr
    80c8:	06007fe0 	streq	r7, [r0], -r0, ror #31
    80cc:	00000004 	andeq	r0, r0, r4
    80d0:	00000004 	andeq	r0, r0, r4
    80d4:	00000010 	andeq	r0, r0, r0, lsl r0
    80d8:	00000080 	andeq	r0, r0, r0, lsl #1
    80dc:	00000004 	andeq	r0, r0, r4
    80e0:	0000c8bc 			; <UNDEFINED> instruction: 0x0000c8bc
    80e4:	0000cc18 	andeq	ip, r0, r8, lsl ip
	...

000080f0 <_port_switch_arm>:
    80f0:	e92d4ff0 	push	{r4, r5, r6, r7, r8, r9, sl, fp, lr}
    80f4:	e581d00c 	str	sp, [r1, #12]
    80f8:	e590d00c 	ldr	sp, [r0, #12]
    80fc:	e8bd8ff0 	pop	{r4, r5, r6, r7, r8, r9, sl, fp, pc}

00008100 <_port_irq_common>:
    8100:	eb00047e 	bl	9300 <chSchIsPreemptionRequired>
    8104:	e3500000 	cmp	r0, #0
    8108:	08bd500f 	popeq	{r0, r1, r2, r3, ip, lr}
    810c:	025ef004 	subseq	pc, lr, #4
    8110:	e8bd500f 	pop	{r0, r1, r2, r3, ip, lr}
    8114:	e321f09f 	msr	CPSR_c, #159	; 0x9f
    8118:	e92d500f 	push	{r0, r1, r2, r3, ip, lr}
    811c:	e321f092 	msr	CPSR_c, #146	; 0x92
    8120:	e14f0000 	mrs	r0, SPSR
    8124:	e1a0100e 	mov	r1, lr
    8128:	e321f09f 	msr	CPSR_c, #159	; 0x9f
    812c:	e92d0003 	push	{r0, r1}
    8130:	eb0004c2 	bl	9440 <chSchDoReschedule>
    8134:	e8bd0003 	pop	{r0, r1}
    8138:	e321f092 	msr	CPSR_c, #146	; 0x92
    813c:	e16ff000 	msr	SPSR_fsxc, r0
    8140:	e1a0e001 	mov	lr, r1
    8144:	e321f09f 	msr	CPSR_c, #159	; 0x9f
    8148:	e8bd500f 	pop	{r0, r1, r2, r3, ip, lr}
    814c:	e321f092 	msr	CPSR_c, #146	; 0x92
    8150:	e25ef004 	subs	pc, lr, #4
    8154:	e320f000 	nop	{0}
    8158:	e320f000 	nop	{0}
    815c:	e320f000 	nop	{0}

00008160 <_port_thread_start>:
    8160:	e321f01f 	msr	CPSR_c, #31
    8164:	e1a00005 	mov	r0, r5
    8168:	e1a0e00f 	mov	lr, pc
    816c:	e12fff14 	bx	r4
    8170:	eb00054a 	bl	96a0 <chThdExit>
	...

00008180 <_unhandled_exception>:
    8180:	eafffffe 	b	8180 <_unhandled_exception>

00008184 <__early_init>:
    8184:	e3a00902 	mov	r0, #32768	; 0x8000
    8188:	e3a01000 	mov	r1, #0
    818c:	e8b003fc 	ldm	r0!, {r2, r3, r4, r5, r6, r7, r8, r9}
    8190:	e8a103fc 	stmia	r1!, {r2, r3, r4, r5, r6, r7, r8, r9}
    8194:	e8b003fc 	ldm	r0!, {r2, r3, r4, r5, r6, r7, r8, r9}
    8198:	e8a103fc 	stmia	r1!, {r2, r3, r4, r5, r6, r7, r8, r9}
    819c:	e12fff1e 	bx	lr

000081a0 <arm_enable_irq>:
    81a0:	e10f0000 	mrs	r0, CPSR
    81a4:	e3c00080 	bic	r0, r0, #128	; 0x80
    81a8:	e121f000 	msr	CPSR_c, r0
    81ac:	e12fff1e 	bx	lr

000081b0 <get_cpsr>:
    81b0:	e10f0000 	mrs	r0, CPSR
    81b4:	e12fff1e 	bx	lr
	...

000081c0 <__udivsi3>:
    81c0:	e2512001 	subs	r2, r1, #1
    81c4:	012fff1e 	bxeq	lr
    81c8:	3a000036 	bcc	82a8 <__udivsi3+0xe8>
    81cc:	e1500001 	cmp	r0, r1
    81d0:	9a000022 	bls	8260 <__udivsi3+0xa0>
    81d4:	e1110002 	tst	r1, r2
    81d8:	0a000023 	beq	826c <__udivsi3+0xac>
    81dc:	e311020e 	tst	r1, #-536870912	; 0xe0000000
    81e0:	01a01181 	lsleq	r1, r1, #3
    81e4:	03a03008 	moveq	r3, #8
    81e8:	13a03001 	movne	r3, #1
    81ec:	e3510201 	cmp	r1, #268435456	; 0x10000000
    81f0:	31510000 	cmpcc	r1, r0
    81f4:	31a01201 	lslcc	r1, r1, #4
    81f8:	31a03203 	lslcc	r3, r3, #4
    81fc:	3afffffa 	bcc	81ec <__udivsi3+0x2c>
    8200:	e3510102 	cmp	r1, #-2147483648	; 0x80000000
    8204:	31510000 	cmpcc	r1, r0
    8208:	31a01081 	lslcc	r1, r1, #1
    820c:	31a03083 	lslcc	r3, r3, #1
    8210:	3afffffa 	bcc	8200 <__udivsi3+0x40>
    8214:	e3a02000 	mov	r2, #0
    8218:	e1500001 	cmp	r0, r1
    821c:	20400001 	subcs	r0, r0, r1
    8220:	21822003 	orrcs	r2, r2, r3
    8224:	e15000a1 	cmp	r0, r1, lsr #1
    8228:	204000a1 	subcs	r0, r0, r1, lsr #1
    822c:	218220a3 	orrcs	r2, r2, r3, lsr #1
    8230:	e1500121 	cmp	r0, r1, lsr #2
    8234:	20400121 	subcs	r0, r0, r1, lsr #2
    8238:	21822123 	orrcs	r2, r2, r3, lsr #2
    823c:	e15001a1 	cmp	r0, r1, lsr #3
    8240:	204001a1 	subcs	r0, r0, r1, lsr #3
    8244:	218221a3 	orrcs	r2, r2, r3, lsr #3
    8248:	e3500000 	cmp	r0, #0
    824c:	11b03223 	lsrsne	r3, r3, #4
    8250:	11a01221 	lsrne	r1, r1, #4
    8254:	1affffef 	bne	8218 <__udivsi3+0x58>
    8258:	e1a00002 	mov	r0, r2
    825c:	e12fff1e 	bx	lr
    8260:	03a00001 	moveq	r0, #1
    8264:	13a00000 	movne	r0, #0
    8268:	e12fff1e 	bx	lr
    826c:	e3510801 	cmp	r1, #65536	; 0x10000
    8270:	21a01821 	lsrcs	r1, r1, #16
    8274:	23a02010 	movcs	r2, #16
    8278:	33a02000 	movcc	r2, #0
    827c:	e3510c01 	cmp	r1, #256	; 0x100
    8280:	21a01421 	lsrcs	r1, r1, #8
    8284:	22822008 	addcs	r2, r2, #8
    8288:	e3510010 	cmp	r1, #16
    828c:	21a01221 	lsrcs	r1, r1, #4
    8290:	22822004 	addcs	r2, r2, #4
    8294:	e3510004 	cmp	r1, #4
    8298:	82822003 	addhi	r2, r2, #3
    829c:	908220a1 	addls	r2, r2, r1, lsr #1
    82a0:	e1a00230 	lsr	r0, r0, r2
    82a4:	e12fff1e 	bx	lr
    82a8:	e3500000 	cmp	r0, #0
    82ac:	13e00000 	mvnne	r0, #0
    82b0:	ea00000a 	b	82e0 <__aeabi_idiv0>

000082b4 <__aeabi_uidivmod>:
    82b4:	e3510000 	cmp	r1, #0
    82b8:	0afffffa 	beq	82a8 <__udivsi3+0xe8>
    82bc:	e92d4003 	push	{r0, r1, lr}
    82c0:	ebffffbe 	bl	81c0 <__udivsi3>
    82c4:	e8bd4006 	pop	{r1, r2, lr}
    82c8:	e0030092 	mul	r3, r2, r0
    82cc:	e0411003 	sub	r1, r1, r3
    82d0:	e12fff1e 	bx	lr
	...

000082e0 <__aeabi_idiv0>:
    82e0:	e12fff1e 	bx	lr
	...

000082f0 <__aeabi_drsub>:
    82f0:	e2211102 	eor	r1, r1, #-2147483648	; 0x80000000
    82f4:	ea000000 	b	82fc <__adddf3>

000082f8 <__aeabi_dsub>:
    82f8:	e2233102 	eor	r3, r3, #-2147483648	; 0x80000000

000082fc <__adddf3>:
    82fc:	e92d4030 	push	{r4, r5, lr}
    8300:	e1a04081 	lsl	r4, r1, #1
    8304:	e1a05083 	lsl	r5, r3, #1
    8308:	e1340005 	teq	r4, r5
    830c:	01300002 	teqeq	r0, r2
    8310:	1194c000 	orrsne	ip, r4, r0
    8314:	1195c002 	orrsne	ip, r5, r2
    8318:	11f0cac4 	mvnsne	ip, r4, asr #21
    831c:	11f0cac5 	mvnsne	ip, r5, asr #21
    8320:	0a00008c 	beq	8558 <__adddf3+0x25c>
    8324:	e1a04aa4 	lsr	r4, r4, #21
    8328:	e0745aa5 	rsbs	r5, r4, r5, lsr #21
    832c:	b2655000 	rsblt	r5, r5, #0
    8330:	da000006 	ble	8350 <__adddf3+0x54>
    8334:	e0844005 	add	r4, r4, r5
    8338:	e0202002 	eor	r2, r0, r2
    833c:	e0213003 	eor	r3, r1, r3
    8340:	e0220000 	eor	r0, r2, r0
    8344:	e0231001 	eor	r1, r3, r1
    8348:	e0202002 	eor	r2, r0, r2
    834c:	e0213003 	eor	r3, r1, r3
    8350:	e3550036 	cmp	r5, #54	; 0x36
    8354:	88bd4030 	pophi	{r4, r5, lr}
    8358:	812fff1e 	bxhi	lr
    835c:	e3110102 	tst	r1, #-2147483648	; 0x80000000
    8360:	e1a01601 	lsl	r1, r1, #12
    8364:	e3a0c601 	mov	ip, #1048576	; 0x100000
    8368:	e18c1621 	orr	r1, ip, r1, lsr #12
    836c:	0a000001 	beq	8378 <__adddf3+0x7c>
    8370:	e2700000 	rsbs	r0, r0, #0
    8374:	e2e11000 	rsc	r1, r1, #0
    8378:	e3130102 	tst	r3, #-2147483648	; 0x80000000
    837c:	e1a03603 	lsl	r3, r3, #12
    8380:	e18c3623 	orr	r3, ip, r3, lsr #12
    8384:	0a000001 	beq	8390 <__adddf3+0x94>
    8388:	e2722000 	rsbs	r2, r2, #0
    838c:	e2e33000 	rsc	r3, r3, #0
    8390:	e1340005 	teq	r4, r5
    8394:	0a000069 	beq	8540 <__adddf3+0x244>
    8398:	e2444001 	sub	r4, r4, #1
    839c:	e275e020 	rsbs	lr, r5, #32
    83a0:	ba000005 	blt	83bc <__adddf3+0xc0>
    83a4:	e1a0ce12 	lsl	ip, r2, lr
    83a8:	e0900532 	adds	r0, r0, r2, lsr r5
    83ac:	e2a11000 	adc	r1, r1, #0
    83b0:	e0900e13 	adds	r0, r0, r3, lsl lr
    83b4:	e0b11553 	adcs	r1, r1, r3, asr r5
    83b8:	ea000006 	b	83d8 <__adddf3+0xdc>
    83bc:	e2455020 	sub	r5, r5, #32
    83c0:	e28ee020 	add	lr, lr, #32
    83c4:	e3520001 	cmp	r2, #1
    83c8:	e1a0ce13 	lsl	ip, r3, lr
    83cc:	238cc002 	orrcs	ip, ip, #2
    83d0:	e0900553 	adds	r0, r0, r3, asr r5
    83d4:	e0b11fc3 	adcs	r1, r1, r3, asr #31
    83d8:	e2015102 	and	r5, r1, #-2147483648	; 0x80000000
    83dc:	5a000002 	bpl	83ec <__adddf3+0xf0>
    83e0:	e27cc000 	rsbs	ip, ip, #0
    83e4:	e2f00000 	rscs	r0, r0, #0
    83e8:	e2e11000 	rsc	r1, r1, #0
    83ec:	e3510601 	cmp	r1, #1048576	; 0x100000
    83f0:	3a00000f 	bcc	8434 <__adddf3+0x138>
    83f4:	e3510602 	cmp	r1, #2097152	; 0x200000
    83f8:	3a000006 	bcc	8418 <__adddf3+0x11c>
    83fc:	e1b010a1 	lsrs	r1, r1, #1
    8400:	e1b00060 	rrxs	r0, r0
    8404:	e1a0c06c 	rrx	ip, ip
    8408:	e2844001 	add	r4, r4, #1
    840c:	e1a02a84 	lsl	r2, r4, #21
    8410:	e3720501 	cmn	r2, #4194304	; 0x400000
    8414:	2a00006b 	bcs	85c8 <__adddf3+0x2cc>
    8418:	e35c0102 	cmp	ip, #-2147483648	; 0x80000000
    841c:	01b0c0a0 	lsrseq	ip, r0, #1
    8420:	e2b00000 	adcs	r0, r0, #0
    8424:	e0a11a04 	adc	r1, r1, r4, lsl #20
    8428:	e1811005 	orr	r1, r1, r5
    842c:	e8bd4030 	pop	{r4, r5, lr}
    8430:	e12fff1e 	bx	lr
    8434:	e1b0c08c 	lsls	ip, ip, #1
    8438:	e0b00000 	adcs	r0, r0, r0
    843c:	e0a11001 	adc	r1, r1, r1
    8440:	e3110601 	tst	r1, #1048576	; 0x100000
    8444:	e2444001 	sub	r4, r4, #1
    8448:	1afffff2 	bne	8418 <__adddf3+0x11c>
    844c:	e3310000 	teq	r1, #0
    8450:	13a03014 	movne	r3, #20
    8454:	03a03034 	moveq	r3, #52	; 0x34
    8458:	01a01000 	moveq	r1, r0
    845c:	03a00000 	moveq	r0, #0
    8460:	e1a02001 	mov	r2, r1
    8464:	e3520801 	cmp	r2, #65536	; 0x10000
    8468:	21a02822 	lsrcs	r2, r2, #16
    846c:	22433010 	subcs	r3, r3, #16
    8470:	e3520c01 	cmp	r2, #256	; 0x100
    8474:	21a02422 	lsrcs	r2, r2, #8
    8478:	22433008 	subcs	r3, r3, #8
    847c:	e3520010 	cmp	r2, #16
    8480:	21a02222 	lsrcs	r2, r2, #4
    8484:	22433004 	subcs	r3, r3, #4
    8488:	e3520004 	cmp	r2, #4
    848c:	22433002 	subcs	r3, r3, #2
    8490:	304330a2 	subcc	r3, r3, r2, lsr #1
    8494:	e04331a2 	sub	r3, r3, r2, lsr #3
    8498:	e2532020 	subs	r2, r3, #32
    849c:	aa000007 	bge	84c0 <__adddf3+0x1c4>
    84a0:	e292200c 	adds	r2, r2, #12
    84a4:	da000004 	ble	84bc <__adddf3+0x1c0>
    84a8:	e282c014 	add	ip, r2, #20
    84ac:	e262200c 	rsb	r2, r2, #12
    84b0:	e1a00c11 	lsl	r0, r1, ip
    84b4:	e1a01231 	lsr	r1, r1, r2
    84b8:	ea000004 	b	84d0 <__adddf3+0x1d4>
    84bc:	e2822014 	add	r2, r2, #20
    84c0:	d262c020 	rsble	ip, r2, #32
    84c4:	e1a01211 	lsl	r1, r1, r2
    84c8:	d1811c30 	orrle	r1, r1, r0, lsr ip
    84cc:	d1a00210 	lslle	r0, r0, r2
    84d0:	e0544003 	subs	r4, r4, r3
    84d4:	a0811a04 	addge	r1, r1, r4, lsl #20
    84d8:	a1811005 	orrge	r1, r1, r5
    84dc:	a8bd4030 	popge	{r4, r5, lr}
    84e0:	a12fff1e 	bxge	lr
    84e4:	e1e04004 	mvn	r4, r4
    84e8:	e254401f 	subs	r4, r4, #31
    84ec:	aa00000f 	bge	8530 <__adddf3+0x234>
    84f0:	e294400c 	adds	r4, r4, #12
    84f4:	ca000006 	bgt	8514 <__adddf3+0x218>
    84f8:	e2844014 	add	r4, r4, #20
    84fc:	e2642020 	rsb	r2, r4, #32
    8500:	e1a00430 	lsr	r0, r0, r4
    8504:	e1800211 	orr	r0, r0, r1, lsl r2
    8508:	e1851431 	orr	r1, r5, r1, lsr r4
    850c:	e8bd4030 	pop	{r4, r5, lr}
    8510:	e12fff1e 	bx	lr
    8514:	e264400c 	rsb	r4, r4, #12
    8518:	e2642020 	rsb	r2, r4, #32
    851c:	e1a00230 	lsr	r0, r0, r2
    8520:	e1800411 	orr	r0, r0, r1, lsl r4
    8524:	e1a01005 	mov	r1, r5
    8528:	e8bd4030 	pop	{r4, r5, lr}
    852c:	e12fff1e 	bx	lr
    8530:	e1a00431 	lsr	r0, r1, r4
    8534:	e1a01005 	mov	r1, r5
    8538:	e8bd4030 	pop	{r4, r5, lr}
    853c:	e12fff1e 	bx	lr
    8540:	e3340000 	teq	r4, #0
    8544:	e2233601 	eor	r3, r3, #1048576	; 0x100000
    8548:	02211601 	eoreq	r1, r1, #1048576	; 0x100000
    854c:	02844001 	addeq	r4, r4, #1
    8550:	12455001 	subne	r5, r5, #1
    8554:	eaffff8f 	b	8398 <__adddf3+0x9c>
    8558:	e1f0cac4 	mvns	ip, r4, asr #21
    855c:	11f0cac5 	mvnsne	ip, r5, asr #21
    8560:	0a00001d 	beq	85dc <__adddf3+0x2e0>
    8564:	e1340005 	teq	r4, r5
    8568:	01300002 	teqeq	r0, r2
    856c:	0a000004 	beq	8584 <__adddf3+0x288>
    8570:	e194c000 	orrs	ip, r4, r0
    8574:	01a01003 	moveq	r1, r3
    8578:	01a00002 	moveq	r0, r2
    857c:	e8bd4030 	pop	{r4, r5, lr}
    8580:	e12fff1e 	bx	lr
    8584:	e1310003 	teq	r1, r3
    8588:	13a01000 	movne	r1, #0
    858c:	13a00000 	movne	r0, #0
    8590:	18bd4030 	popne	{r4, r5, lr}
    8594:	112fff1e 	bxne	lr
    8598:	e1b0caa4 	lsrs	ip, r4, #21
    859c:	1a000004 	bne	85b4 <__adddf3+0x2b8>
    85a0:	e1b00080 	lsls	r0, r0, #1
    85a4:	e0b11001 	adcs	r1, r1, r1
    85a8:	23811102 	orrcs	r1, r1, #-2147483648	; 0x80000000
    85ac:	e8bd4030 	pop	{r4, r5, lr}
    85b0:	e12fff1e 	bx	lr
    85b4:	e2944501 	adds	r4, r4, #4194304	; 0x400000
    85b8:	32811601 	addcc	r1, r1, #1048576	; 0x100000
    85bc:	38bd4030 	popcc	{r4, r5, lr}
    85c0:	312fff1e 	bxcc	lr
    85c4:	e2015102 	and	r5, r1, #-2147483648	; 0x80000000
    85c8:	e385147f 	orr	r1, r5, #2130706432	; 0x7f000000
    85cc:	e381160f 	orr	r1, r1, #15728640	; 0xf00000
    85d0:	e3a00000 	mov	r0, #0
    85d4:	e8bd4030 	pop	{r4, r5, lr}
    85d8:	e12fff1e 	bx	lr
    85dc:	e1f0cac4 	mvns	ip, r4, asr #21
    85e0:	11a01003 	movne	r1, r3
    85e4:	11a00002 	movne	r0, r2
    85e8:	01f0cac5 	mvnseq	ip, r5, asr #21
    85ec:	11a03001 	movne	r3, r1
    85f0:	11a02000 	movne	r2, r0
    85f4:	e1904601 	orrs	r4, r0, r1, lsl #12
    85f8:	01925603 	orrseq	r5, r2, r3, lsl #12
    85fc:	01310003 	teqeq	r1, r3
    8600:	13811702 	orrne	r1, r1, #524288	; 0x80000
    8604:	e8bd4030 	pop	{r4, r5, lr}
    8608:	e12fff1e 	bx	lr

0000860c <__aeabi_ui2d>:
    860c:	e3300000 	teq	r0, #0
    8610:	03a01000 	moveq	r1, #0
    8614:	012fff1e 	bxeq	lr
    8618:	e92d4030 	push	{r4, r5, lr}
    861c:	e3a04b01 	mov	r4, #1024	; 0x400
    8620:	e2844032 	add	r4, r4, #50	; 0x32
    8624:	e3a05000 	mov	r5, #0
    8628:	e3a01000 	mov	r1, #0
    862c:	eaffff86 	b	844c <__adddf3+0x150>

00008630 <__aeabi_i2d>:
    8630:	e3300000 	teq	r0, #0
    8634:	03a01000 	moveq	r1, #0
    8638:	012fff1e 	bxeq	lr
    863c:	e92d4030 	push	{r4, r5, lr}
    8640:	e3a04b01 	mov	r4, #1024	; 0x400
    8644:	e2844032 	add	r4, r4, #50	; 0x32
    8648:	e2105102 	ands	r5, r0, #-2147483648	; 0x80000000
    864c:	42600000 	rsbmi	r0, r0, #0
    8650:	e3a01000 	mov	r1, #0
    8654:	eaffff7c 	b	844c <__adddf3+0x150>

00008658 <__aeabi_f2d>:
    8658:	e1b02080 	lsls	r2, r0, #1
    865c:	e1a011c2 	asr	r1, r2, #3
    8660:	e1a01061 	rrx	r1, r1
    8664:	e1a00e02 	lsl	r0, r2, #28
    8668:	121234ff 	andsne	r3, r2, #-16777216	; 0xff000000
    866c:	133304ff 	teqne	r3, #-16777216	; 0xff000000
    8670:	1221130e 	eorne	r1, r1, #939524096	; 0x38000000
    8674:	112fff1e 	bxne	lr
    8678:	e3d224ff 	bics	r2, r2, #-16777216	; 0xff000000
    867c:	012fff1e 	bxeq	lr
    8680:	e33304ff 	teq	r3, #-16777216	; 0xff000000
    8684:	03811702 	orreq	r1, r1, #524288	; 0x80000
    8688:	012fff1e 	bxeq	lr
    868c:	e92d4030 	push	{r4, r5, lr}
    8690:	e3a04d0e 	mov	r4, #896	; 0x380
    8694:	e2015102 	and	r5, r1, #-2147483648	; 0x80000000
    8698:	e3c11102 	bic	r1, r1, #-2147483648	; 0x80000000
    869c:	eaffff6a 	b	844c <__adddf3+0x150>

000086a0 <__aeabi_ul2d>:
    86a0:	e1902001 	orrs	r2, r0, r1
    86a4:	012fff1e 	bxeq	lr
    86a8:	e92d4030 	push	{r4, r5, lr}
    86ac:	e3a05000 	mov	r5, #0
    86b0:	ea000006 	b	86d0 <__aeabi_l2d+0x1c>

000086b4 <__aeabi_l2d>:
    86b4:	e1902001 	orrs	r2, r0, r1
    86b8:	012fff1e 	bxeq	lr
    86bc:	e92d4030 	push	{r4, r5, lr}
    86c0:	e2115102 	ands	r5, r1, #-2147483648	; 0x80000000
    86c4:	5a000001 	bpl	86d0 <__aeabi_l2d+0x1c>
    86c8:	e2700000 	rsbs	r0, r0, #0
    86cc:	e2e11000 	rsc	r1, r1, #0
    86d0:	e3a04b01 	mov	r4, #1024	; 0x400
    86d4:	e2844032 	add	r4, r4, #50	; 0x32
    86d8:	e1b0cb21 	lsrs	ip, r1, #22
    86dc:	0affff42 	beq	83ec <__adddf3+0xf0>
    86e0:	e3a02003 	mov	r2, #3
    86e4:	e1b0c1ac 	lsrs	ip, ip, #3
    86e8:	12822003 	addne	r2, r2, #3
    86ec:	e1b0c1ac 	lsrs	ip, ip, #3
    86f0:	12822003 	addne	r2, r2, #3
    86f4:	e08221ac 	add	r2, r2, ip, lsr #3
    86f8:	e2623020 	rsb	r3, r2, #32
    86fc:	e1a0c310 	lsl	ip, r0, r3
    8700:	e1a00230 	lsr	r0, r0, r2
    8704:	e1800311 	orr	r0, r0, r1, lsl r3
    8708:	e1a01231 	lsr	r1, r1, r2
    870c:	e0844002 	add	r4, r4, r2
    8710:	eaffff35 	b	83ec <__adddf3+0xf0>
	...

00008720 <__aeabi_dmul>:
    8720:	e92d4070 	push	{r4, r5, r6, lr}
    8724:	e3a0c0ff 	mov	ip, #255	; 0xff
    8728:	e38ccc07 	orr	ip, ip, #1792	; 0x700
    872c:	e01c4a21 	ands	r4, ip, r1, lsr #20
    8730:	101c5a23 	andsne	r5, ip, r3, lsr #20
    8734:	1134000c 	teqne	r4, ip
    8738:	1135000c 	teqne	r5, ip
    873c:	0b000075 	bleq	8918 <__aeabi_dmul+0x1f8>
    8740:	e0844005 	add	r4, r4, r5
    8744:	e0216003 	eor	r6, r1, r3
    8748:	e1c11a8c 	bic	r1, r1, ip, lsl #21
    874c:	e1c33a8c 	bic	r3, r3, ip, lsl #21
    8750:	e1905601 	orrs	r5, r0, r1, lsl #12
    8754:	11925603 	orrsne	r5, r2, r3, lsl #12
    8758:	e3811601 	orr	r1, r1, #1048576	; 0x100000
    875c:	e3833601 	orr	r3, r3, #1048576	; 0x100000
    8760:	0a00001d 	beq	87dc <__aeabi_dmul+0xbc>
    8764:	e08ec290 	umull	ip, lr, r0, r2
    8768:	e3a05000 	mov	r5, #0
    876c:	e0a5e291 	umlal	lr, r5, r1, r2
    8770:	e2062102 	and	r2, r6, #-2147483648	; 0x80000000
    8774:	e0a5e390 	umlal	lr, r5, r0, r3
    8778:	e3a06000 	mov	r6, #0
    877c:	e0a65391 	umlal	r5, r6, r1, r3
    8780:	e33c0000 	teq	ip, #0
    8784:	138ee001 	orrne	lr, lr, #1
    8788:	e24440ff 	sub	r4, r4, #255	; 0xff
    878c:	e3560c02 	cmp	r6, #512	; 0x200
    8790:	e2c44c03 	sbc	r4, r4, #768	; 0x300
    8794:	2a000002 	bcs	87a4 <__aeabi_dmul+0x84>
    8798:	e1b0e08e 	lsls	lr, lr, #1
    879c:	e0b55005 	adcs	r5, r5, r5
    87a0:	e0a66006 	adc	r6, r6, r6
    87a4:	e1821586 	orr	r1, r2, r6, lsl #11
    87a8:	e1811aa5 	orr	r1, r1, r5, lsr #21
    87ac:	e1a00585 	lsl	r0, r5, #11
    87b0:	e1800aae 	orr	r0, r0, lr, lsr #21
    87b4:	e1a0e58e 	lsl	lr, lr, #11
    87b8:	e254c0fd 	subs	ip, r4, #253	; 0xfd
    87bc:	835c0c07 	cmphi	ip, #1792	; 0x700
    87c0:	8a000011 	bhi	880c <__aeabi_dmul+0xec>
    87c4:	e35e0102 	cmp	lr, #-2147483648	; 0x80000000
    87c8:	01b0e0a0 	lsrseq	lr, r0, #1
    87cc:	e2b00000 	adcs	r0, r0, #0
    87d0:	e0a11a04 	adc	r1, r1, r4, lsl #20
    87d4:	e8bd4070 	pop	{r4, r5, r6, lr}
    87d8:	e12fff1e 	bx	lr
    87dc:	e2066102 	and	r6, r6, #-2147483648	; 0x80000000
    87e0:	e1861001 	orr	r1, r6, r1
    87e4:	e1800002 	orr	r0, r0, r2
    87e8:	e0211003 	eor	r1, r1, r3
    87ec:	e05440ac 	subs	r4, r4, ip, lsr #1
    87f0:	c074500c 	rsbsgt	r5, r4, ip
    87f4:	c1811a04 	orrgt	r1, r1, r4, lsl #20
    87f8:	c8bd4070 	popgt	{r4, r5, r6, lr}
    87fc:	c12fff1e 	bxgt	lr
    8800:	e3811601 	orr	r1, r1, #1048576	; 0x100000
    8804:	e3a0e000 	mov	lr, #0
    8808:	e2544001 	subs	r4, r4, #1
    880c:	ca00005d 	bgt	8988 <__aeabi_dmul+0x268>
    8810:	e3740036 	cmn	r4, #54	; 0x36
    8814:	d3a00000 	movle	r0, #0
    8818:	d2011102 	andle	r1, r1, #-2147483648	; 0x80000000
    881c:	d8bd4070 	pople	{r4, r5, r6, lr}
    8820:	d12fff1e 	bxle	lr
    8824:	e2644000 	rsb	r4, r4, #0
    8828:	e2544020 	subs	r4, r4, #32
    882c:	aa00001a 	bge	889c <__aeabi_dmul+0x17c>
    8830:	e294400c 	adds	r4, r4, #12
    8834:	ca00000c 	bgt	886c <__aeabi_dmul+0x14c>
    8838:	e2844014 	add	r4, r4, #20
    883c:	e2645020 	rsb	r5, r4, #32
    8840:	e1a03510 	lsl	r3, r0, r5
    8844:	e1a00430 	lsr	r0, r0, r4
    8848:	e1800511 	orr	r0, r0, r1, lsl r5
    884c:	e2012102 	and	r2, r1, #-2147483648	; 0x80000000
    8850:	e3c11102 	bic	r1, r1, #-2147483648	; 0x80000000
    8854:	e0900fa3 	adds	r0, r0, r3, lsr #31
    8858:	e0a21431 	adc	r1, r2, r1, lsr r4
    885c:	e19ee083 	orrs	lr, lr, r3, lsl #1
    8860:	01c00fa3 	biceq	r0, r0, r3, lsr #31
    8864:	e8bd4070 	pop	{r4, r5, r6, lr}
    8868:	e12fff1e 	bx	lr
    886c:	e264400c 	rsb	r4, r4, #12
    8870:	e2645020 	rsb	r5, r4, #32
    8874:	e1a03410 	lsl	r3, r0, r4
    8878:	e1a00530 	lsr	r0, r0, r5
    887c:	e1800411 	orr	r0, r0, r1, lsl r4
    8880:	e2011102 	and	r1, r1, #-2147483648	; 0x80000000
    8884:	e0900fa3 	adds	r0, r0, r3, lsr #31
    8888:	e2a11000 	adc	r1, r1, #0
    888c:	e19ee083 	orrs	lr, lr, r3, lsl #1
    8890:	01c00fa3 	biceq	r0, r0, r3, lsr #31
    8894:	e8bd4070 	pop	{r4, r5, r6, lr}
    8898:	e12fff1e 	bx	lr
    889c:	e2645020 	rsb	r5, r4, #32
    88a0:	e18ee510 	orr	lr, lr, r0, lsl r5
    88a4:	e1a03430 	lsr	r3, r0, r4
    88a8:	e1833511 	orr	r3, r3, r1, lsl r5
    88ac:	e1a00431 	lsr	r0, r1, r4
    88b0:	e2011102 	and	r1, r1, #-2147483648	; 0x80000000
    88b4:	e1c00431 	bic	r0, r0, r1, lsr r4
    88b8:	e0800fa3 	add	r0, r0, r3, lsr #31
    88bc:	e19ee083 	orrs	lr, lr, r3, lsl #1
    88c0:	01c00fa3 	biceq	r0, r0, r3, lsr #31
    88c4:	e8bd4070 	pop	{r4, r5, r6, lr}
    88c8:	e12fff1e 	bx	lr
    88cc:	e3340000 	teq	r4, #0
    88d0:	1a000008 	bne	88f8 <__aeabi_dmul+0x1d8>
    88d4:	e2016102 	and	r6, r1, #-2147483648	; 0x80000000
    88d8:	e1b00080 	lsls	r0, r0, #1
    88dc:	e0a11001 	adc	r1, r1, r1
    88e0:	e3110601 	tst	r1, #1048576	; 0x100000
    88e4:	02444001 	subeq	r4, r4, #1
    88e8:	0afffffa 	beq	88d8 <__aeabi_dmul+0x1b8>
    88ec:	e1811006 	orr	r1, r1, r6
    88f0:	e3350000 	teq	r5, #0
    88f4:	112fff1e 	bxne	lr
    88f8:	e2036102 	and	r6, r3, #-2147483648	; 0x80000000
    88fc:	e1b02082 	lsls	r2, r2, #1
    8900:	e0a33003 	adc	r3, r3, r3
    8904:	e3130601 	tst	r3, #1048576	; 0x100000
    8908:	02455001 	subeq	r5, r5, #1
    890c:	0afffffa 	beq	88fc <__aeabi_dmul+0x1dc>
    8910:	e1833006 	orr	r3, r3, r6
    8914:	e12fff1e 	bx	lr
    8918:	e134000c 	teq	r4, ip
    891c:	e00c5a23 	and	r5, ip, r3, lsr #20
    8920:	1135000c 	teqne	r5, ip
    8924:	0a000007 	beq	8948 <__aeabi_dmul+0x228>
    8928:	e1906081 	orrs	r6, r0, r1, lsl #1
    892c:	11926083 	orrsne	r6, r2, r3, lsl #1
    8930:	1affffe5 	bne	88cc <__aeabi_dmul+0x1ac>
    8934:	e0211003 	eor	r1, r1, r3
    8938:	e2011102 	and	r1, r1, #-2147483648	; 0x80000000
    893c:	e3a00000 	mov	r0, #0
    8940:	e8bd4070 	pop	{r4, r5, r6, lr}
    8944:	e12fff1e 	bx	lr
    8948:	e1906081 	orrs	r6, r0, r1, lsl #1
    894c:	01a00002 	moveq	r0, r2
    8950:	01a01003 	moveq	r1, r3
    8954:	11926083 	orrsne	r6, r2, r3, lsl #1
    8958:	0a000010 	beq	89a0 <__aeabi_dmul+0x280>
    895c:	e134000c 	teq	r4, ip
    8960:	1a000001 	bne	896c <__aeabi_dmul+0x24c>
    8964:	e1906601 	orrs	r6, r0, r1, lsl #12
    8968:	1a00000c 	bne	89a0 <__aeabi_dmul+0x280>
    896c:	e135000c 	teq	r5, ip
    8970:	1a000003 	bne	8984 <__aeabi_dmul+0x264>
    8974:	e1926603 	orrs	r6, r2, r3, lsl #12
    8978:	11a00002 	movne	r0, r2
    897c:	11a01003 	movne	r1, r3
    8980:	1a000006 	bne	89a0 <__aeabi_dmul+0x280>
    8984:	e0211003 	eor	r1, r1, r3
    8988:	e2011102 	and	r1, r1, #-2147483648	; 0x80000000
    898c:	e381147f 	orr	r1, r1, #2130706432	; 0x7f000000
    8990:	e381160f 	orr	r1, r1, #15728640	; 0xf00000
    8994:	e3a00000 	mov	r0, #0
    8998:	e8bd4070 	pop	{r4, r5, r6, lr}
    899c:	e12fff1e 	bx	lr
    89a0:	e381147f 	orr	r1, r1, #2130706432	; 0x7f000000
    89a4:	e381173e 	orr	r1, r1, #16252928	; 0xf80000
    89a8:	e8bd4070 	pop	{r4, r5, r6, lr}
    89ac:	e12fff1e 	bx	lr

000089b0 <__aeabi_ddiv>:
    89b0:	e92d4070 	push	{r4, r5, r6, lr}
    89b4:	e3a0c0ff 	mov	ip, #255	; 0xff
    89b8:	e38ccc07 	orr	ip, ip, #1792	; 0x700
    89bc:	e01c4a21 	ands	r4, ip, r1, lsr #20
    89c0:	101c5a23 	andsne	r5, ip, r3, lsr #20
    89c4:	1134000c 	teqne	r4, ip
    89c8:	1135000c 	teqne	r5, ip
    89cc:	0b00005e 	bleq	8b4c <__aeabi_ddiv+0x19c>
    89d0:	e0444005 	sub	r4, r4, r5
    89d4:	e021e003 	eor	lr, r1, r3
    89d8:	e1925603 	orrs	r5, r2, r3, lsl #12
    89dc:	e1a01601 	lsl	r1, r1, #12
    89e0:	0a00004c 	beq	8b18 <__aeabi_ddiv+0x168>
    89e4:	e1a03603 	lsl	r3, r3, #12
    89e8:	e3a05201 	mov	r5, #268435456	; 0x10000000
    89ec:	e1853223 	orr	r3, r5, r3, lsr #4
    89f0:	e1833c22 	orr	r3, r3, r2, lsr #24
    89f4:	e1a02402 	lsl	r2, r2, #8
    89f8:	e1855221 	orr	r5, r5, r1, lsr #4
    89fc:	e1855c20 	orr	r5, r5, r0, lsr #24
    8a00:	e1a06400 	lsl	r6, r0, #8
    8a04:	e20e1102 	and	r1, lr, #-2147483648	; 0x80000000
    8a08:	e1550003 	cmp	r5, r3
    8a0c:	01560002 	cmpeq	r6, r2
    8a10:	e2a440fd 	adc	r4, r4, #253	; 0xfd
    8a14:	e2844c03 	add	r4, r4, #768	; 0x300
    8a18:	2a000001 	bcs	8a24 <__aeabi_ddiv+0x74>
    8a1c:	e1b030a3 	lsrs	r3, r3, #1
    8a20:	e1a02062 	rrx	r2, r2
    8a24:	e0566002 	subs	r6, r6, r2
    8a28:	e0c55003 	sbc	r5, r5, r3
    8a2c:	e1b030a3 	lsrs	r3, r3, #1
    8a30:	e1a02062 	rrx	r2, r2
    8a34:	e3a00601 	mov	r0, #1048576	; 0x100000
    8a38:	e3a0c702 	mov	ip, #524288	; 0x80000
    8a3c:	e056e002 	subs	lr, r6, r2
    8a40:	e0d5e003 	sbcs	lr, r5, r3
    8a44:	20466002 	subcs	r6, r6, r2
    8a48:	21a0500e 	movcs	r5, lr
    8a4c:	2180000c 	orrcs	r0, r0, ip
    8a50:	e1b030a3 	lsrs	r3, r3, #1
    8a54:	e1a02062 	rrx	r2, r2
    8a58:	e056e002 	subs	lr, r6, r2
    8a5c:	e0d5e003 	sbcs	lr, r5, r3
    8a60:	20466002 	subcs	r6, r6, r2
    8a64:	21a0500e 	movcs	r5, lr
    8a68:	218000ac 	orrcs	r0, r0, ip, lsr #1
    8a6c:	e1b030a3 	lsrs	r3, r3, #1
    8a70:	e1a02062 	rrx	r2, r2
    8a74:	e056e002 	subs	lr, r6, r2
    8a78:	e0d5e003 	sbcs	lr, r5, r3
    8a7c:	20466002 	subcs	r6, r6, r2
    8a80:	21a0500e 	movcs	r5, lr
    8a84:	2180012c 	orrcs	r0, r0, ip, lsr #2
    8a88:	e1b030a3 	lsrs	r3, r3, #1
    8a8c:	e1a02062 	rrx	r2, r2
    8a90:	e056e002 	subs	lr, r6, r2
    8a94:	e0d5e003 	sbcs	lr, r5, r3
    8a98:	20466002 	subcs	r6, r6, r2
    8a9c:	21a0500e 	movcs	r5, lr
    8aa0:	218001ac 	orrcs	r0, r0, ip, lsr #3
    8aa4:	e195e006 	orrs	lr, r5, r6
    8aa8:	0a00000d 	beq	8ae4 <__aeabi_ddiv+0x134>
    8aac:	e1a05205 	lsl	r5, r5, #4
    8ab0:	e1855e26 	orr	r5, r5, r6, lsr #28
    8ab4:	e1a06206 	lsl	r6, r6, #4
    8ab8:	e1a03183 	lsl	r3, r3, #3
    8abc:	e1833ea2 	orr	r3, r3, r2, lsr #29
    8ac0:	e1a02182 	lsl	r2, r2, #3
    8ac4:	e1b0c22c 	lsrs	ip, ip, #4
    8ac8:	1affffdb 	bne	8a3c <__aeabi_ddiv+0x8c>
    8acc:	e3110601 	tst	r1, #1048576	; 0x100000
    8ad0:	1a000006 	bne	8af0 <__aeabi_ddiv+0x140>
    8ad4:	e1811000 	orr	r1, r1, r0
    8ad8:	e3a00000 	mov	r0, #0
    8adc:	e3a0c102 	mov	ip, #-2147483648	; 0x80000000
    8ae0:	eaffffd5 	b	8a3c <__aeabi_ddiv+0x8c>
    8ae4:	e3110601 	tst	r1, #1048576	; 0x100000
    8ae8:	01811000 	orreq	r1, r1, r0
    8aec:	03a00000 	moveq	r0, #0
    8af0:	e254c0fd 	subs	ip, r4, #253	; 0xfd
    8af4:	835c0c07 	cmphi	ip, #1792	; 0x700
    8af8:	8affff43 	bhi	880c <__aeabi_dmul+0xec>
    8afc:	e055c003 	subs	ip, r5, r3
    8b00:	0056c002 	subseq	ip, r6, r2
    8b04:	01b0c0a0 	lsrseq	ip, r0, #1
    8b08:	e2b00000 	adcs	r0, r0, #0
    8b0c:	e0a11a04 	adc	r1, r1, r4, lsl #20
    8b10:	e8bd4070 	pop	{r4, r5, r6, lr}
    8b14:	e12fff1e 	bx	lr
    8b18:	e20ee102 	and	lr, lr, #-2147483648	; 0x80000000
    8b1c:	e18e1621 	orr	r1, lr, r1, lsr #12
    8b20:	e09440ac 	adds	r4, r4, ip, lsr #1
    8b24:	c074500c 	rsbsgt	r5, r4, ip
    8b28:	c1811a04 	orrgt	r1, r1, r4, lsl #20
    8b2c:	c8bd4070 	popgt	{r4, r5, r6, lr}
    8b30:	c12fff1e 	bxgt	lr
    8b34:	e3811601 	orr	r1, r1, #1048576	; 0x100000
    8b38:	e3a0e000 	mov	lr, #0
    8b3c:	e2544001 	subs	r4, r4, #1
    8b40:	eaffff31 	b	880c <__aeabi_dmul+0xec>
    8b44:	e185e006 	orr	lr, r5, r6
    8b48:	eaffff2f 	b	880c <__aeabi_dmul+0xec>
    8b4c:	e00c5a23 	and	r5, ip, r3, lsr #20
    8b50:	e134000c 	teq	r4, ip
    8b54:	0135000c 	teqeq	r5, ip
    8b58:	0affff90 	beq	89a0 <__aeabi_dmul+0x280>
    8b5c:	e134000c 	teq	r4, ip
    8b60:	1a000006 	bne	8b80 <__aeabi_ddiv+0x1d0>
    8b64:	e1904601 	orrs	r4, r0, r1, lsl #12
    8b68:	1affff8c 	bne	89a0 <__aeabi_dmul+0x280>
    8b6c:	e135000c 	teq	r5, ip
    8b70:	1affff83 	bne	8984 <__aeabi_dmul+0x264>
    8b74:	e1a00002 	mov	r0, r2
    8b78:	e1a01003 	mov	r1, r3
    8b7c:	eaffff87 	b	89a0 <__aeabi_dmul+0x280>
    8b80:	e135000c 	teq	r5, ip
    8b84:	1a000004 	bne	8b9c <__aeabi_ddiv+0x1ec>
    8b88:	e1925603 	orrs	r5, r2, r3, lsl #12
    8b8c:	0affff68 	beq	8934 <__aeabi_dmul+0x214>
    8b90:	e1a00002 	mov	r0, r2
    8b94:	e1a01003 	mov	r1, r3
    8b98:	eaffff80 	b	89a0 <__aeabi_dmul+0x280>
    8b9c:	e1906081 	orrs	r6, r0, r1, lsl #1
    8ba0:	11926083 	orrsne	r6, r2, r3, lsl #1
    8ba4:	1affff48 	bne	88cc <__aeabi_dmul+0x1ac>
    8ba8:	e1904081 	orrs	r4, r0, r1, lsl #1
    8bac:	1affff74 	bne	8984 <__aeabi_dmul+0x264>
    8bb0:	e1925083 	orrs	r5, r2, r3, lsl #1
    8bb4:	1affff5e 	bne	8934 <__aeabi_dmul+0x214>
    8bb8:	eaffff78 	b	89a0 <__aeabi_dmul+0x280>
    8bbc:	00000000 	andeq	r0, r0, r0

00008bc0 <__aeabi_d2iz>:
    8bc0:	e1a02081 	lsl	r2, r1, #1
    8bc4:	e2922602 	adds	r2, r2, #2097152	; 0x200000
    8bc8:	2a00000c 	bcs	8c00 <__aeabi_d2iz+0x40>
    8bcc:	5a000009 	bpl	8bf8 <__aeabi_d2iz+0x38>
    8bd0:	e3e03e3e 	mvn	r3, #992	; 0x3e0
    8bd4:	e0532ac2 	subs	r2, r3, r2, asr #21
    8bd8:	9a00000a 	bls	8c08 <__aeabi_d2iz+0x48>
    8bdc:	e1a03581 	lsl	r3, r1, #11
    8be0:	e3833102 	orr	r3, r3, #-2147483648	; 0x80000000
    8be4:	e1833aa0 	orr	r3, r3, r0, lsr #21
    8be8:	e3110102 	tst	r1, #-2147483648	; 0x80000000
    8bec:	e1a00233 	lsr	r0, r3, r2
    8bf0:	12600000 	rsbne	r0, r0, #0
    8bf4:	e12fff1e 	bx	lr
    8bf8:	e3a00000 	mov	r0, #0
    8bfc:	e12fff1e 	bx	lr
    8c00:	e1900601 	orrs	r0, r0, r1, lsl #12
    8c04:	1a000002 	bne	8c14 <__aeabi_d2iz+0x54>
    8c08:	e2110102 	ands	r0, r1, #-2147483648	; 0x80000000
    8c0c:	03e00102 	mvneq	r0, #-2147483648	; 0x80000000
    8c10:	e12fff1e 	bx	lr
    8c14:	e3a00000 	mov	r0, #0
    8c18:	e12fff1e 	bx	lr
    8c1c:	00000000 	andeq	r0, r0, r0

00008c20 <__aeabi_d2f>:
    8c20:	e1a02081 	lsl	r2, r1, #1
    8c24:	e2523207 	subs	r3, r2, #1879048192	; 0x70000000
    8c28:	2253c602 	subscs	ip, r3, #2097152	; 0x200000
    8c2c:	227cc57f 	rsbscs	ip, ip, #532676608	; 0x1fc00000
    8c30:	9a000006 	bls	8c50 <__aeabi_d2f+0x30>
    8c34:	e201c102 	and	ip, r1, #-2147483648	; 0x80000000
    8c38:	e1a02180 	lsl	r2, r0, #3
    8c3c:	e18c0ea0 	orr	r0, ip, r0, lsr #29
    8c40:	e3520102 	cmp	r2, #-2147483648	; 0x80000000
    8c44:	e0a00103 	adc	r0, r0, r3, lsl #2
    8c48:	03c00001 	biceq	r0, r0, #1
    8c4c:	e12fff1e 	bx	lr
    8c50:	e3110101 	tst	r1, #1073741824	; 0x40000000
    8c54:	1a00000f 	bne	8c98 <__aeabi_d2f+0x78>
    8c58:	e293262e 	adds	r2, r3, #48234496	; 0x2e00000
    8c5c:	b2010102 	andlt	r0, r1, #-2147483648	; 0x80000000
    8c60:	b12fff1e 	bxlt	lr
    8c64:	e3811601 	orr	r1, r1, #1048576	; 0x100000
    8c68:	e1a02aa2 	lsr	r2, r2, #21
    8c6c:	e2622018 	rsb	r2, r2, #24
    8c70:	e262c020 	rsb	ip, r2, #32
    8c74:	e1b03c10 	lsls	r3, r0, ip
    8c78:	e1a00230 	lsr	r0, r0, r2
    8c7c:	13800001 	orrne	r0, r0, #1
    8c80:	e1a03581 	lsl	r3, r1, #11
    8c84:	e1a035a3 	lsr	r3, r3, #11
    8c88:	e1800c13 	orr	r0, r0, r3, lsl ip
    8c8c:	e1a03233 	lsr	r3, r3, r2
    8c90:	e1a03083 	lsl	r3, r3, #1
    8c94:	eaffffe6 	b	8c34 <__aeabi_d2f+0x14>
    8c98:	e1f03ac2 	mvns	r3, r2, asr #21
    8c9c:	1a000003 	bne	8cb0 <__aeabi_d2f+0x90>
    8ca0:	e1903601 	orrs	r3, r0, r1, lsl #12
    8ca4:	13a0047f 	movne	r0, #2130706432	; 0x7f000000
    8ca8:	13800503 	orrne	r0, r0, #12582912	; 0xc00000
    8cac:	112fff1e 	bxne	lr
    8cb0:	e2010102 	and	r0, r1, #-2147483648	; 0x80000000
    8cb4:	e380047f 	orr	r0, r0, #2130706432	; 0x7f000000
    8cb8:	e3800502 	orr	r0, r0, #8388608	; 0x800000
    8cbc:	e12fff1e 	bx	lr

00008cc0 <__gesf2>:
    8cc0:	e3e0c000 	mvn	ip, #0
    8cc4:	ea000002 	b	8cd4 <__cmpsf2+0x4>

00008cc8 <__lesf2>:
    8cc8:	e3a0c001 	mov	ip, #1
    8ccc:	ea000000 	b	8cd4 <__cmpsf2+0x4>

00008cd0 <__cmpsf2>:
    8cd0:	e3a0c001 	mov	ip, #1
    8cd4:	e52dc004 	push	{ip}		; (str ip, [sp, #-4]!)
    8cd8:	e1a02080 	lsl	r2, r0, #1
    8cdc:	e1a03081 	lsl	r3, r1, #1
    8ce0:	e1f0cc42 	mvns	ip, r2, asr #24
    8ce4:	11f0cc43 	mvnsne	ip, r3, asr #24
    8ce8:	0a000007 	beq	8d0c <__cmpsf2+0x3c>
    8cec:	e28dd004 	add	sp, sp, #4
    8cf0:	e192c0a3 	orrs	ip, r2, r3, lsr #1
    8cf4:	11300001 	teqne	r0, r1
    8cf8:	50520003 	subspl	r0, r2, r3
    8cfc:	81a00fc1 	asrhi	r0, r1, #31
    8d00:	31e00fc1 	mvncc	r0, r1, asr #31
    8d04:	13800001 	orrne	r0, r0, #1
    8d08:	e12fff1e 	bx	lr
    8d0c:	e1f0cc42 	mvns	ip, r2, asr #24
    8d10:	1a000001 	bne	8d1c <__cmpsf2+0x4c>
    8d14:	e1b0c480 	lsls	ip, r0, #9
    8d18:	1a000003 	bne	8d2c <__cmpsf2+0x5c>
    8d1c:	e1f0cc43 	mvns	ip, r3, asr #24
    8d20:	1afffff1 	bne	8cec <__cmpsf2+0x1c>
    8d24:	e1b0c481 	lsls	ip, r1, #9
    8d28:	0affffef 	beq	8cec <__cmpsf2+0x1c>
    8d2c:	e49d0004 	pop	{r0}		; (ldr r0, [sp], #4)
    8d30:	e12fff1e 	bx	lr

00008d34 <__aeabi_cfrcmple>:
    8d34:	e1a0c000 	mov	ip, r0
    8d38:	e1a00001 	mov	r0, r1
    8d3c:	e1a0100c 	mov	r1, ip
    8d40:	eaffffff 	b	8d44 <__aeabi_cfcmpeq>

00008d44 <__aeabi_cfcmpeq>:
    8d44:	e92d400f 	push	{r0, r1, r2, r3, lr}
    8d48:	ebffffe0 	bl	8cd0 <__cmpsf2>
    8d4c:	e3500000 	cmp	r0, #0
    8d50:	43700000 	cmnmi	r0, #0
    8d54:	e8bd400f 	pop	{r0, r1, r2, r3, lr}
    8d58:	e12fff1e 	bx	lr

00008d5c <__aeabi_fcmpeq>:
    8d5c:	e52de008 	str	lr, [sp, #-8]!
    8d60:	ebfffff7 	bl	8d44 <__aeabi_cfcmpeq>
    8d64:	03a00001 	moveq	r0, #1
    8d68:	13a00000 	movne	r0, #0
    8d6c:	e49de008 	ldr	lr, [sp], #8
    8d70:	e12fff1e 	bx	lr

00008d74 <__aeabi_fcmplt>:
    8d74:	e52de008 	str	lr, [sp, #-8]!
    8d78:	ebfffff1 	bl	8d44 <__aeabi_cfcmpeq>
    8d7c:	33a00001 	movcc	r0, #1
    8d80:	23a00000 	movcs	r0, #0
    8d84:	e49de008 	ldr	lr, [sp], #8
    8d88:	e12fff1e 	bx	lr

00008d8c <__aeabi_fcmple>:
    8d8c:	e52de008 	str	lr, [sp, #-8]!
    8d90:	ebffffeb 	bl	8d44 <__aeabi_cfcmpeq>
    8d94:	93a00001 	movls	r0, #1
    8d98:	83a00000 	movhi	r0, #0
    8d9c:	e49de008 	ldr	lr, [sp], #8
    8da0:	e12fff1e 	bx	lr

00008da4 <__aeabi_fcmpge>:
    8da4:	e52de008 	str	lr, [sp, #-8]!
    8da8:	ebffffe1 	bl	8d34 <__aeabi_cfrcmple>
    8dac:	93a00001 	movls	r0, #1
    8db0:	83a00000 	movhi	r0, #0
    8db4:	e49de008 	ldr	lr, [sp], #8
    8db8:	e12fff1e 	bx	lr

00008dbc <__aeabi_fcmpgt>:
    8dbc:	e52de008 	str	lr, [sp, #-8]!
    8dc0:	ebffffdb 	bl	8d34 <__aeabi_cfrcmple>
    8dc4:	33a00001 	movcc	r0, #1
    8dc8:	23a00000 	movcs	r0, #0
    8dcc:	e49de008 	ldr	lr, [sp], #8
    8dd0:	e12fff1e 	bx	lr
	...

00008de0 <__aeabi_f2iz>:
    8de0:	e1a02080 	lsl	r2, r0, #1
    8de4:	e352047f 	cmp	r2, #2130706432	; 0x7f000000
    8de8:	3a000008 	bcc	8e10 <__aeabi_f2iz+0x30>
    8dec:	e3a0309e 	mov	r3, #158	; 0x9e
    8df0:	e0532c22 	subs	r2, r3, r2, lsr #24
    8df4:	9a000007 	bls	8e18 <__aeabi_f2iz+0x38>
    8df8:	e1a03400 	lsl	r3, r0, #8
    8dfc:	e3833102 	orr	r3, r3, #-2147483648	; 0x80000000
    8e00:	e3100102 	tst	r0, #-2147483648	; 0x80000000
    8e04:	e1a00233 	lsr	r0, r3, r2
    8e08:	12600000 	rsbne	r0, r0, #0
    8e0c:	e12fff1e 	bx	lr
    8e10:	e3a00000 	mov	r0, #0
    8e14:	e12fff1e 	bx	lr
    8e18:	e3720061 	cmn	r2, #97	; 0x61
    8e1c:	1a000001 	bne	8e28 <__aeabi_f2iz+0x48>
    8e20:	e1b02480 	lsls	r2, r0, #9
    8e24:	1a000002 	bne	8e34 <__aeabi_f2iz+0x54>
    8e28:	e2100102 	ands	r0, r0, #-2147483648	; 0x80000000
    8e2c:	03e00102 	mvneq	r0, #-2147483648	; 0x80000000
    8e30:	e12fff1e 	bx	lr
    8e34:	e3a00000 	mov	r0, #0
    8e38:	e12fff1e 	bx	lr
    8e3c:	00000000 	andeq	r0, r0, r0

00008e40 <_idle_thread>:
    8e40:	e59f3010 	ldr	r3, [pc, #16]	; 8e58 <_idle_thread+0x18>
    8e44:	e59f2010 	ldr	r2, [pc, #16]	; 8e5c <_idle_thread+0x1c>
    8e48:	e5933018 	ldr	r3, [r3, #24]
    8e4c:	e5832018 	str	r2, [r3, #24]
    8e50:	ee070f90 	mcr	15, 0, r0, cr7, cr0, {4}
    8e54:	eafffffd 	b	8e50 <_idle_thread+0x10>
    8e58:	0000caec 	andeq	ip, r0, ip, ror #21
    8e5c:	0000bf00 	andeq	fp, r0, r0, lsl #30

00008e60 <chSysInit>:
    8e60:	e52de004 	push	{lr}		; (str lr, [sp, #-4]!)
    8e64:	e24dd00c 	sub	sp, sp, #12
    8e68:	eb0000a4 	bl	9100 <_scheduler_init>
    8e6c:	eb00003f 	bl	8f70 <_vt_init>
    8e70:	eb000426 	bl	9f10 <_core_init>
    8e74:	eb000449 	bl	9fa0 <_heap_init>
    8e78:	e3a01040 	mov	r1, #64	; 0x40
    8e7c:	e59f0040 	ldr	r0, [pc, #64]	; 8ec4 <chSysInit+0x64>
    8e80:	eb000176 	bl	9460 <_thread_init>
    8e84:	e3a02001 	mov	r2, #1
    8e88:	e59f3038 	ldr	r3, [pc, #56]	; 8ec8 <chSysInit+0x68>
    8e8c:	e5c0201c 	strb	r2, [r0, #28]
    8e90:	e5830018 	str	r0, [r3, #24]
    8e94:	e321f01f 	msr	CPSR_c, #31
    8e98:	e3a01000 	mov	r1, #0
    8e9c:	e5933018 	ldr	r3, [r3, #24]
    8ea0:	e59f0024 	ldr	r0, [pc, #36]	; 8ecc <chSysInit+0x6c>
    8ea4:	e5830018 	str	r0, [r3, #24]
    8ea8:	e58d1000 	str	r1, [sp]
    8eac:	e59f301c 	ldr	r3, [pc, #28]	; 8ed0 <chSysInit+0x70>
    8eb0:	e3a0109c 	mov	r1, #156	; 0x9c
    8eb4:	e59f0018 	ldr	r0, [pc, #24]	; 8ed4 <chSysInit+0x74>
    8eb8:	eb0001a8 	bl	9560 <chThdCreateStatic>
    8ebc:	e28dd00c 	add	sp, sp, #12
    8ec0:	e49df004 	pop	{pc}		; (ldr pc, [sp], #4)
    8ec4:	0000c8bc 			; <UNDEFINED> instruction: 0x0000c8bc
    8ec8:	0000caec 	andeq	ip, r0, ip, ror #21
    8ecc:	0000bf10 	andeq	fp, r0, r0, lsl pc
    8ed0:	00008e40 	andeq	r8, r0, r0, asr #28
    8ed4:	0000ca40 	andeq	ip, r0, r0, asr #20
	...

00008ee0 <chSysTimerHandlerI>:
    8ee0:	e92d4070 	push	{r4, r5, r6, lr}
    8ee4:	e59f307c 	ldr	r3, [pc, #124]	; 8f68 <chSysTimerHandlerI+0x88>
    8ee8:	e59f407c 	ldr	r4, [pc, #124]	; 8f6c <chSysTimerHandlerI+0x8c>
    8eec:	e5933018 	ldr	r3, [r3, #24]
    8ef0:	e5d3201f 	ldrb	r2, [r3, #31]
    8ef4:	e3520000 	cmp	r2, #0
    8ef8:	12422001 	subne	r2, r2, #1
    8efc:	15c3201f 	strbne	r2, [r3, #31]
    8f00:	e5932020 	ldr	r2, [r3, #32]
    8f04:	e2822001 	add	r2, r2, #1
    8f08:	e5832020 	str	r2, [r3, #32]
    8f0c:	e594200c 	ldr	r2, [r4, #12]
    8f10:	e5943000 	ldr	r3, [r4]
    8f14:	e2822001 	add	r2, r2, #1
    8f18:	e1530004 	cmp	r3, r4
    8f1c:	e584200c 	str	r2, [r4, #12]
    8f20:	08bd8070 	popeq	{r4, r5, r6, pc}
    8f24:	e5935008 	ldr	r5, [r3, #8]
    8f28:	e2455001 	sub	r5, r5, #1
    8f2c:	e3550000 	cmp	r5, #0
    8f30:	e5835008 	str	r5, [r3, #8]
    8f34:	18bd8070 	popne	{r4, r5, r6, pc}
    8f38:	e5932000 	ldr	r2, [r3]
    8f3c:	e593100c 	ldr	r1, [r3, #12]
    8f40:	e5930010 	ldr	r0, [r3, #16]
    8f44:	e583500c 	str	r5, [r3, #12]
    8f48:	e5842000 	str	r2, [r4]
    8f4c:	e5824004 	str	r4, [r2, #4]
    8f50:	e12fff31 	blx	r1
    8f54:	e5943000 	ldr	r3, [r4]
    8f58:	e5932008 	ldr	r2, [r3, #8]
    8f5c:	e3520000 	cmp	r2, #0
    8f60:	0afffff4 	beq	8f38 <chSysTimerHandlerI+0x58>
    8f64:	e8bd8070 	pop	{r4, r5, r6, pc}
    8f68:	0000caec 	andeq	ip, r0, ip, ror #21
    8f6c:	0000cadc 	ldrdeq	ip, [r0], -ip	; <UNPREDICTABLE>

00008f70 <_vt_init>:
    8f70:	e3e01000 	mvn	r1, #0
    8f74:	e3a02000 	mov	r2, #0
    8f78:	e59f3010 	ldr	r3, [pc, #16]	; 8f90 <_vt_init+0x20>
    8f7c:	e5831008 	str	r1, [r3, #8]
    8f80:	e5833004 	str	r3, [r3, #4]
    8f84:	e5833000 	str	r3, [r3]
    8f88:	e583200c 	str	r2, [r3, #12]
    8f8c:	e12fff1e 	bx	lr
    8f90:	0000cadc 	ldrdeq	ip, [r0], -ip	; <UNPREDICTABLE>
	...

00008fa0 <chVTSetI>:
    8fa0:	e59fc058 	ldr	ip, [pc, #88]	; 9000 <chVTSetI+0x60>
    8fa4:	e5803010 	str	r3, [r0, #16]
    8fa8:	e59c3000 	ldr	r3, [ip]
    8fac:	e580200c 	str	r2, [r0, #12]
    8fb0:	e5932008 	ldr	r2, [r3, #8]
    8fb4:	e1510002 	cmp	r1, r2
    8fb8:	9a000004 	bls	8fd0 <chVTSetI+0x30>
    8fbc:	e5933000 	ldr	r3, [r3]
    8fc0:	e0411002 	sub	r1, r1, r2
    8fc4:	e5932008 	ldr	r2, [r3, #8]
    8fc8:	e1520001 	cmp	r2, r1
    8fcc:	3afffffa 	bcc	8fbc <chVTSetI+0x1c>
    8fd0:	e5932004 	ldr	r2, [r3, #4]
    8fd4:	e5803000 	str	r3, [r0]
    8fd8:	e5802004 	str	r2, [r0, #4]
    8fdc:	e5830004 	str	r0, [r3, #4]
    8fe0:	e5902004 	ldr	r2, [r0, #4]
    8fe4:	e153000c 	cmp	r3, ip
    8fe8:	e5820000 	str	r0, [r2]
    8fec:	e5801008 	str	r1, [r0, #8]
    8ff0:	15932008 	ldrne	r2, [r3, #8]
    8ff4:	10421001 	subne	r1, r2, r1
    8ff8:	15831008 	strne	r1, [r3, #8]
    8ffc:	e12fff1e 	bx	lr
    9000:	0000cadc 	ldrdeq	ip, [r0], -ip	; <UNPREDICTABLE>
	...

00009010 <chVTResetI>:
    9010:	e5903000 	ldr	r3, [r0]
    9014:	e59f202c 	ldr	r2, [pc, #44]	; 9048 <chVTResetI+0x38>
    9018:	e1530002 	cmp	r3, r2
    901c:	15932008 	ldrne	r2, [r3, #8]
    9020:	15901008 	ldrne	r1, [r0, #8]
    9024:	10822001 	addne	r2, r2, r1
    9028:	e3a01000 	mov	r1, #0
    902c:	15832008 	strne	r2, [r3, #8]
    9030:	e5902004 	ldr	r2, [r0, #4]
    9034:	e5823000 	str	r3, [r2]
    9038:	e5903000 	ldr	r3, [r0]
    903c:	e5832004 	str	r2, [r3, #4]
    9040:	e580100c 	str	r1, [r0, #12]
    9044:	e12fff1e 	bx	lr
    9048:	0000cadc 	ldrdeq	ip, [r0], -ip	; <UNPREDICTABLE>
    904c:	00000000 	andeq	r0, r0, r0

00009050 <wakeup>:
    9050:	e5d0301c 	ldrb	r3, [r0, #28]
    9054:	e353000d 	cmp	r3, #13
    9058:	979ff103 	ldrls	pc, [pc, r3, lsl #2]
    905c:	ea000015 	b	90b8 <wakeup+0x68>
    9060:	000090f8 	strdeq	r9, [r0], -r8
    9064:	000090b8 	strheq	r9, [r0], -r8
    9068:	000090b8 	strheq	r9, [r0], -r8
    906c:	00009098 	muleq	r0, r8, r0
    9070:	000090b8 	strheq	r9, [r0], -r8
    9074:	000090a8 	andeq	r9, r0, r8, lsr #1
    9078:	000090b8 	strheq	r9, [r0], -r8
    907c:	000090b8 	strheq	r9, [r0], -r8
    9080:	000090b8 	strheq	r9, [r0], -r8
    9084:	000090b8 	strheq	r9, [r0], -r8
    9088:	000090b8 	strheq	r9, [r0], -r8
    908c:	000090b8 	strheq	r9, [r0], -r8
    9090:	000090b8 	strheq	r9, [r0], -r8
    9094:	000090a8 	andeq	r9, r0, r8, lsr #1
    9098:	e5902024 	ldr	r2, [r0, #36]	; 0x24
    909c:	e5923008 	ldr	r3, [r2, #8]
    90a0:	e2833001 	add	r3, r3, #1
    90a4:	e5823008 	str	r3, [r2, #8]
    90a8:	e1c020d0 	ldrd	r2, [r0]
    90ac:	e5832000 	str	r2, [r3]
    90b0:	e5902000 	ldr	r2, [r0]
    90b4:	e5823004 	str	r3, [r2, #4]
    90b8:	e3e0c000 	mvn	ip, #0
    90bc:	e3a02000 	mov	r2, #0
    90c0:	e5901008 	ldr	r1, [r0, #8]
    90c4:	e59f3030 	ldr	r3, [pc, #48]	; 90fc <wakeup+0xac>
    90c8:	e580c024 	str	ip, [r0, #36]	; 0x24
    90cc:	e5c0201c 	strb	r2, [r0, #28]
    90d0:	e5933000 	ldr	r3, [r3]
    90d4:	e5932008 	ldr	r2, [r3, #8]
    90d8:	e1520001 	cmp	r2, r1
    90dc:	2afffffb 	bcs	90d0 <wakeup+0x80>
    90e0:	e5932004 	ldr	r2, [r3, #4]
    90e4:	e5803000 	str	r3, [r0]
    90e8:	e5802004 	str	r2, [r0, #4]
    90ec:	e5830004 	str	r0, [r3, #4]
    90f0:	e5903004 	ldr	r3, [r0, #4]
    90f4:	e5830000 	str	r0, [r3]
    90f8:	e12fff1e 	bx	lr
    90fc:	0000caec 	andeq	ip, r0, ip, ror #21

00009100 <_scheduler_init>:
    9100:	e3a02000 	mov	r2, #0
    9104:	e59f3014 	ldr	r3, [pc, #20]	; 9120 <_scheduler_init+0x20>
    9108:	e5832008 	str	r2, [r3, #8]
    910c:	e5833004 	str	r3, [r3, #4]
    9110:	e5833000 	str	r3, [r3]
    9114:	e5833014 	str	r3, [r3, #20]
    9118:	e5833010 	str	r3, [r3, #16]
    911c:	e12fff1e 	bx	lr
    9120:	0000caec 	andeq	ip, r0, ip, ror #21
	...

00009130 <chSchReadyI>:
    9130:	e1a01000 	mov	r1, r0
    9134:	e3a02000 	mov	r2, #0
    9138:	e59f3034 	ldr	r3, [pc, #52]	; 9174 <chSchReadyI+0x44>
    913c:	e5900008 	ldr	r0, [r0, #8]
    9140:	e5c1201c 	strb	r2, [r1, #28]
    9144:	e5933000 	ldr	r3, [r3]
    9148:	e5932008 	ldr	r2, [r3, #8]
    914c:	e1520000 	cmp	r2, r0
    9150:	2afffffb 	bcs	9144 <chSchReadyI+0x14>
    9154:	e5932004 	ldr	r2, [r3, #4]
    9158:	e5813000 	str	r3, [r1]
    915c:	e5812004 	str	r2, [r1, #4]
    9160:	e5831004 	str	r1, [r3, #4]
    9164:	e5913004 	ldr	r3, [r1, #4]
    9168:	e1a00001 	mov	r0, r1
    916c:	e5831000 	str	r1, [r3]
    9170:	e12fff1e 	bx	lr
    9174:	0000caec 	andeq	ip, r0, ip, ror #21
	...

00009180 <chSchGoSleepS>:
    9180:	e3a0c014 	mov	ip, #20
    9184:	e52de004 	push	{lr}		; (str lr, [sp, #-4]!)
    9188:	e3a0e001 	mov	lr, #1
    918c:	e59f302c 	ldr	r3, [pc, #44]	; 91c0 <chSchGoSleepS+0x40>
    9190:	e5931018 	ldr	r1, [r3, #24]
    9194:	e5932000 	ldr	r2, [r3]
    9198:	e5c1001c 	strb	r0, [r1, #28]
    919c:	e5c1c01f 	strb	ip, [r1, #31]
    91a0:	e592c000 	ldr	ip, [r2]
    91a4:	e1a00002 	mov	r0, r2
    91a8:	e58c3004 	str	r3, [ip, #4]
    91ac:	e5c2e01c 	strb	lr, [r2, #28]
    91b0:	e583c000 	str	ip, [r3]
    91b4:	e49de004 	pop	{lr}		; (ldr lr, [sp], #4)
    91b8:	e5832018 	str	r2, [r3, #24]
    91bc:	eafffbcb 	b	80f0 <_port_switch_arm>
    91c0:	0000caec 	andeq	ip, r0, ip, ror #21
	...

000091d0 <chSchGoSleepTimeoutS>:
    91d0:	e92d4030 	push	{r4, r5, lr}
    91d4:	e3710001 	cmn	r1, #1
    91d8:	e24dd01c 	sub	sp, sp, #28
    91dc:	0a000010 	beq	9224 <chSchGoSleepTimeoutS+0x54>
    91e0:	e1a05000 	mov	r5, r0
    91e4:	e59f4050 	ldr	r4, [pc, #80]	; 923c <chSchGoSleepTimeoutS+0x6c>
    91e8:	e28d0004 	add	r0, sp, #4
    91ec:	e5943018 	ldr	r3, [r4, #24]
    91f0:	e59f2048 	ldr	r2, [pc, #72]	; 9240 <chSchGoSleepTimeoutS+0x70>
    91f4:	ebffff69 	bl	8fa0 <chVTSetI>
    91f8:	e1a00005 	mov	r0, r5
    91fc:	ebffffdf 	bl	9180 <chSchGoSleepS>
    9200:	e59d3010 	ldr	r3, [sp, #16]
    9204:	e3530000 	cmp	r3, #0
    9208:	0a000001 	beq	9214 <chSchGoSleepTimeoutS+0x44>
    920c:	e28d0004 	add	r0, sp, #4
    9210:	ebffff7e 	bl	9010 <chVTResetI>
    9214:	e5943018 	ldr	r3, [r4, #24]
    9218:	e5930024 	ldr	r0, [r3, #36]	; 0x24
    921c:	e28dd01c 	add	sp, sp, #28
    9220:	e8bd8030 	pop	{r4, r5, pc}
    9224:	ebffffd5 	bl	9180 <chSchGoSleepS>
    9228:	e59f400c 	ldr	r4, [pc, #12]	; 923c <chSchGoSleepTimeoutS+0x6c>
    922c:	e5943018 	ldr	r3, [r4, #24]
    9230:	e5930024 	ldr	r0, [r3, #36]	; 0x24
    9234:	e28dd01c 	add	sp, sp, #28
    9238:	e8bd8030 	pop	{r4, r5, pc}
    923c:	0000caec 	andeq	ip, r0, ip, ror #21
    9240:	00009050 	andeq	r9, r0, r0, asr r0
	...

00009250 <chSchWakeupS>:
    9250:	e1a0c000 	mov	ip, r0
    9254:	e59f309c 	ldr	r3, [pc, #156]	; 92f8 <chSchWakeupS+0xa8>
    9258:	e92d4010 	push	{r4, lr}
    925c:	e5904008 	ldr	r4, [r0, #8]
    9260:	e5930018 	ldr	r0, [r3, #24]
    9264:	e58c1024 	str	r1, [ip, #36]	; 0x24
    9268:	e590e008 	ldr	lr, [r0, #8]
    926c:	e154000e 	cmp	r4, lr
    9270:	8a00000c 	bhi	92a8 <chSchWakeupS+0x58>
    9274:	e3a02000 	mov	r2, #0
    9278:	e5cc201c 	strb	r2, [ip, #28]
    927c:	e5933000 	ldr	r3, [r3]
    9280:	e5932008 	ldr	r2, [r3, #8]
    9284:	e1540002 	cmp	r4, r2
    9288:	9afffffb 	bls	927c <chSchWakeupS+0x2c>
    928c:	e5932004 	ldr	r2, [r3, #4]
    9290:	e58c3000 	str	r3, [ip]
    9294:	e58c2004 	str	r2, [ip, #4]
    9298:	e583c004 	str	ip, [r3, #4]
    929c:	e59c3004 	ldr	r3, [ip, #4]
    92a0:	e583c000 	str	ip, [r3]
    92a4:	e8bd8010 	pop	{r4, pc}
    92a8:	e3a01000 	mov	r1, #0
    92ac:	e1a02003 	mov	r2, r3
    92b0:	e5c0101c 	strb	r1, [r0, #28]
    92b4:	e5922000 	ldr	r2, [r2]
    92b8:	e5921008 	ldr	r1, [r2, #8]
    92bc:	e15e0001 	cmp	lr, r1
    92c0:	9afffffb 	bls	92b4 <chSchWakeupS+0x64>
    92c4:	e3a0e001 	mov	lr, #1
    92c8:	e5921004 	ldr	r1, [r2, #4]
    92cc:	e5802000 	str	r2, [r0]
    92d0:	e5801004 	str	r1, [r0, #4]
    92d4:	e5820004 	str	r0, [r2, #4]
    92d8:	e5902004 	ldr	r2, [r0, #4]
    92dc:	e1a01000 	mov	r1, r0
    92e0:	e5820000 	str	r0, [r2]
    92e4:	e5cce01c 	strb	lr, [ip, #28]
    92e8:	e1a0000c 	mov	r0, ip
    92ec:	e8bd4010 	pop	{r4, lr}
    92f0:	e583c018 	str	ip, [r3, #24]
    92f4:	eafffb7d 	b	80f0 <_port_switch_arm>
    92f8:	0000caec 	andeq	ip, r0, ip, ror #21
    92fc:	00000000 	andeq	r0, r0, r0

00009300 <chSchIsPreemptionRequired>:
    9300:	e59f2038 	ldr	r2, [pc, #56]	; 9340 <chSchIsPreemptionRequired+0x40>
    9304:	e5923018 	ldr	r3, [r2, #24]
    9308:	e5921000 	ldr	r1, [r2]
    930c:	e5d3201f 	ldrb	r2, [r3, #31]
    9310:	e5910008 	ldr	r0, [r1, #8]
    9314:	e3520000 	cmp	r2, #0
    9318:	e5933008 	ldr	r3, [r3, #8]
    931c:	1a000003 	bne	9330 <chSchIsPreemptionRequired+0x30>
    9320:	e1500003 	cmp	r0, r3
    9324:	33a00000 	movcc	r0, #0
    9328:	23a00001 	movcs	r0, #1
    932c:	e12fff1e 	bx	lr
    9330:	e1500003 	cmp	r0, r3
    9334:	93a00000 	movls	r0, #0
    9338:	83a00001 	movhi	r0, #1
    933c:	e12fff1e 	bx	lr
    9340:	0000caec 	andeq	ip, r0, ip, ror #21
	...

00009350 <chSchDoRescheduleBehind>:
    9350:	e92d4030 	push	{r4, r5, lr}
    9354:	e3a05001 	mov	r5, #1
    9358:	e3a04014 	mov	r4, #20
    935c:	e3a0e000 	mov	lr, #0
    9360:	e59f205c 	ldr	r2, [pc, #92]	; 93c4 <chSchDoRescheduleBehind+0x74>
    9364:	e5920000 	ldr	r0, [r2]
    9368:	e5921018 	ldr	r1, [r2, #24]
    936c:	e590c000 	ldr	ip, [r0]
    9370:	e1a03000 	mov	r3, r0
    9374:	e58c2004 	str	r2, [ip, #4]
    9378:	e5c0501c 	strb	r5, [r0, #28]
    937c:	e582c000 	str	ip, [r2]
    9380:	e5820018 	str	r0, [r2, #24]
    9384:	e591c008 	ldr	ip, [r1, #8]
    9388:	e5c1401f 	strb	r4, [r1, #31]
    938c:	e5c1e01c 	strb	lr, [r1, #28]
    9390:	ea000000 	b	9398 <chSchDoRescheduleBehind+0x48>
    9394:	e5933000 	ldr	r3, [r3]
    9398:	e5932008 	ldr	r2, [r3, #8]
    939c:	e152000c 	cmp	r2, ip
    93a0:	2afffffb 	bcs	9394 <chSchDoRescheduleBehind+0x44>
    93a4:	e8bd4030 	pop	{r4, r5, lr}
    93a8:	e5932004 	ldr	r2, [r3, #4]
    93ac:	e5813000 	str	r3, [r1]
    93b0:	e5812004 	str	r2, [r1, #4]
    93b4:	e5831004 	str	r1, [r3, #4]
    93b8:	e5913004 	ldr	r3, [r1, #4]
    93bc:	e5831000 	str	r1, [r3]
    93c0:	eafffb4a 	b	80f0 <_port_switch_arm>
    93c4:	0000caec 	andeq	ip, r0, ip, ror #21
	...

000093d0 <chSchDoRescheduleAhead>:
    93d0:	e92d4010 	push	{r4, lr}
    93d4:	e3a04001 	mov	r4, #1
    93d8:	e3a0e000 	mov	lr, #0
    93dc:	e59f2058 	ldr	r2, [pc, #88]	; 943c <chSchDoRescheduleAhead+0x6c>
    93e0:	e5920000 	ldr	r0, [r2]
    93e4:	e5921018 	ldr	r1, [r2, #24]
    93e8:	e590c000 	ldr	ip, [r0]
    93ec:	e1a03000 	mov	r3, r0
    93f0:	e58c2004 	str	r2, [ip, #4]
    93f4:	e5c0401c 	strb	r4, [r0, #28]
    93f8:	e582c000 	str	ip, [r2]
    93fc:	e5c1e01c 	strb	lr, [r1, #28]
    9400:	e591c008 	ldr	ip, [r1, #8]
    9404:	e5820018 	str	r0, [r2, #24]
    9408:	ea000000 	b	9410 <chSchDoRescheduleAhead+0x40>
    940c:	e5933000 	ldr	r3, [r3]
    9410:	e5932008 	ldr	r2, [r3, #8]
    9414:	e152000c 	cmp	r2, ip
    9418:	8afffffb 	bhi	940c <chSchDoRescheduleAhead+0x3c>
    941c:	e8bd4010 	pop	{r4, lr}
    9420:	e5932004 	ldr	r2, [r3, #4]
    9424:	e5813000 	str	r3, [r1]
    9428:	e5812004 	str	r2, [r1, #4]
    942c:	e5831004 	str	r1, [r3, #4]
    9430:	e5913004 	ldr	r3, [r1, #4]
    9434:	e5831000 	str	r1, [r3]
    9438:	eafffb2c 	b	80f0 <_port_switch_arm>
    943c:	0000caec 	andeq	ip, r0, ip, ror #21

00009440 <chSchDoReschedule>:
    9440:	e59f3014 	ldr	r3, [pc, #20]	; 945c <chSchDoReschedule+0x1c>
    9444:	e5933018 	ldr	r3, [r3, #24]
    9448:	e5d3301f 	ldrb	r3, [r3, #31]
    944c:	e3530000 	cmp	r3, #0
    9450:	0a000000 	beq	9458 <chSchDoReschedule+0x18>
    9454:	eaffffdd 	b	93d0 <chSchDoRescheduleAhead>
    9458:	eaffffbc 	b	9350 <chSchDoRescheduleBehind>
    945c:	0000caec 	andeq	ip, r0, ip, ror #21

00009460 <_thread_init>:
    9460:	e92d4070 	push	{r4, r5, r6, lr}
    9464:	e3a02000 	mov	r2, #0
    9468:	e3a06002 	mov	r6, #2
    946c:	e3a05014 	mov	r5, #20
    9470:	e3a04001 	mov	r4, #1
    9474:	e59fc04c 	ldr	ip, [pc, #76]	; 94c8 <_thread_init+0x68>
    9478:	e5801008 	str	r1, [r0, #8]
    947c:	e59ce014 	ldr	lr, [ip, #20]
    9480:	e5801040 	str	r1, [r0, #64]	; 0x40
    9484:	e580c010 	str	ip, [r0, #16]
    9488:	e580e014 	str	lr, [r0, #20]
    948c:	e280102c 	add	r1, r0, #44	; 0x2c
    9490:	e58c0014 	str	r0, [ip, #20]
    9494:	e280c028 	add	ip, r0, #40	; 0x28
    9498:	e1c061bc 	strh	r6, [r0, #28]
    949c:	e5c0501f 	strb	r5, [r0, #31]
    94a0:	e5c0401e 	strb	r4, [r0, #30]
    94a4:	e580203c 	str	r2, [r0, #60]	; 0x3c
    94a8:	e5802038 	str	r2, [r0, #56]	; 0x38
    94ac:	e5802020 	str	r2, [r0, #32]
    94b0:	e5802018 	str	r2, [r0, #24]
    94b4:	e58e0010 	str	r0, [lr, #16]
    94b8:	e580c028 	str	ip, [r0, #40]	; 0x28
    94bc:	e5801030 	str	r1, [r0, #48]	; 0x30
    94c0:	e580102c 	str	r1, [r0, #44]	; 0x2c
    94c4:	e8bd8070 	pop	{r4, r5, r6, pc}
    94c8:	0000caec 	andeq	ip, r0, ip, ror #21
    94cc:	00000000 	andeq	r0, r0, r0

000094d0 <chThdCreateI>:
    94d0:	e92d40f0 	push	{r4, r5, r6, r7, lr}
    94d4:	e3a0e000 	mov	lr, #0
    94d8:	e3a07002 	mov	r7, #2
    94dc:	e3a06014 	mov	r6, #20
    94e0:	e3a05001 	mov	r5, #1
    94e4:	e2411024 	sub	r1, r1, #36	; 0x24
    94e8:	e0804001 	add	r4, r0, r1
    94ec:	e580400c 	str	r4, [r0, #12]
    94f0:	e7803001 	str	r3, [r0, r1]
    94f4:	e59d1014 	ldr	r1, [sp, #20]
    94f8:	e59f3058 	ldr	r3, [pc, #88]	; 9558 <chThdCreateI+0x88>
    94fc:	e5841004 	str	r1, [r4, #4]
    9500:	e59f1054 	ldr	r1, [pc, #84]	; 955c <chThdCreateI+0x8c>
    9504:	e5841020 	str	r1, [r4, #32]
    9508:	e5931014 	ldr	r1, [r3, #20]
    950c:	e5802008 	str	r2, [r0, #8]
    9510:	e5802040 	str	r2, [r0, #64]	; 0x40
    9514:	e2804028 	add	r4, r0, #40	; 0x28
    9518:	e280202c 	add	r2, r0, #44	; 0x2c
    951c:	e5803010 	str	r3, [r0, #16]
    9520:	e5801014 	str	r1, [r0, #20]
    9524:	e1c071bc 	strh	r7, [r0, #28]
    9528:	e5c0601f 	strb	r6, [r0, #31]
    952c:	e5c0501e 	strb	r5, [r0, #30]
    9530:	e580e03c 	str	lr, [r0, #60]	; 0x3c
    9534:	e5830014 	str	r0, [r3, #20]
    9538:	e580e038 	str	lr, [r0, #56]	; 0x38
    953c:	e580e020 	str	lr, [r0, #32]
    9540:	e580e018 	str	lr, [r0, #24]
    9544:	e5810010 	str	r0, [r1, #16]
    9548:	e5804028 	str	r4, [r0, #40]	; 0x28
    954c:	e5802030 	str	r2, [r0, #48]	; 0x30
    9550:	e580202c 	str	r2, [r0, #44]	; 0x2c
    9554:	e8bd80f0 	pop	{r4, r5, r6, r7, pc}
    9558:	0000caec 	andeq	ip, r0, ip, ror #21
    955c:	00008160 	andeq	r8, r0, r0, ror #2

00009560 <chThdCreateStatic>:
    9560:	e92d41f0 	push	{r4, r5, r6, r7, r8, lr}
    9564:	e59d8018 	ldr	r8, [sp, #24]
    9568:	e1a04000 	mov	r4, r0
    956c:	e321f09f 	msr	CPSR_c, #159	; 0x9f
    9570:	e3a05002 	mov	r5, #2
    9574:	e3a0c000 	mov	ip, #0
    9578:	e3a07014 	mov	r7, #20
    957c:	e3a06001 	mov	r6, #1
    9580:	e2411024 	sub	r1, r1, #36	; 0x24
    9584:	e080e001 	add	lr, r0, r1
    9588:	e580e00c 	str	lr, [r0, #12]
    958c:	e7803001 	str	r3, [r0, r1]
    9590:	e59f3068 	ldr	r3, [pc, #104]	; 9600 <chThdCreateStatic+0xa0>
    9594:	e59f1068 	ldr	r1, [pc, #104]	; 9604 <chThdCreateStatic+0xa4>
    9598:	e58e8004 	str	r8, [lr, #4]
    959c:	e58e1020 	str	r1, [lr, #32]
    95a0:	e593e014 	ldr	lr, [r3, #20]
    95a4:	e5802008 	str	r2, [r0, #8]
    95a8:	e5802040 	str	r2, [r0, #64]	; 0x40
    95ac:	e1c051bc 	strh	r5, [r0, #28]
    95b0:	e280202c 	add	r2, r0, #44	; 0x2c
    95b4:	e2805028 	add	r5, r0, #40	; 0x28
    95b8:	e5803010 	str	r3, [r0, #16]
    95bc:	e580e014 	str	lr, [r0, #20]
    95c0:	e5c0701f 	strb	r7, [r0, #31]
    95c4:	e5c0601e 	strb	r6, [r0, #30]
    95c8:	e580c03c 	str	ip, [r0, #60]	; 0x3c
    95cc:	e5830014 	str	r0, [r3, #20]
    95d0:	e580c038 	str	ip, [r0, #56]	; 0x38
    95d4:	e580c020 	str	ip, [r0, #32]
    95d8:	e580c018 	str	ip, [r0, #24]
    95dc:	e1a0100c 	mov	r1, ip
    95e0:	e58e0010 	str	r0, [lr, #16]
    95e4:	e5805028 	str	r5, [r0, #40]	; 0x28
    95e8:	e5802030 	str	r2, [r0, #48]	; 0x30
    95ec:	e580202c 	str	r2, [r0, #44]	; 0x2c
    95f0:	ebffff16 	bl	9250 <chSchWakeupS>
    95f4:	e321f01f 	msr	CPSR_c, #31
    95f8:	e1a00004 	mov	r0, r4
    95fc:	e8bd81f0 	pop	{r4, r5, r6, r7, r8, pc}
    9600:	0000caec 	andeq	ip, r0, ip, ror #21
    9604:	00008160 	andeq	r8, r0, r0, ror #2
	...

00009610 <chThdSleep>:
    9610:	e92d4010 	push	{r4, lr}
    9614:	e1a01000 	mov	r1, r0
    9618:	e321f09f 	msr	CPSR_c, #159	; 0x9f
    961c:	e3a00006 	mov	r0, #6
    9620:	ebfffeea 	bl	91d0 <chSchGoSleepTimeoutS>
    9624:	e321f01f 	msr	CPSR_c, #31
    9628:	e8bd8010 	pop	{r4, pc}
    962c:	00000000 	andeq	r0, r0, r0

00009630 <chThdExitS>:
    9630:	e59f3058 	ldr	r3, [pc, #88]	; 9690 <chThdExitS+0x60>
    9634:	e92d4070 	push	{r4, r5, r6, lr}
    9638:	e5934018 	ldr	r4, [r3, #24]
    963c:	e1a05004 	mov	r5, r4
    9640:	e5b53028 	ldr	r3, [r5, #40]!	; 0x28
    9644:	e5840024 	str	r0, [r4, #36]	; 0x24
    9648:	e1550003 	cmp	r5, r3
    964c:	0a000006 	beq	966c <chThdExitS+0x3c>
    9650:	e5932000 	ldr	r2, [r3]
    9654:	e1a00003 	mov	r0, r3
    9658:	e5842028 	str	r2, [r4, #40]	; 0x28
    965c:	ebfffeb3 	bl	9130 <chSchReadyI>
    9660:	e5943028 	ldr	r3, [r4, #40]	; 0x28
    9664:	e1530005 	cmp	r3, r5
    9668:	1afffff8 	bne	9650 <chThdExitS+0x20>
    966c:	e5d4301d 	ldrb	r3, [r4, #29]
    9670:	e3130003 	tst	r3, #3
    9674:	01c421d0 	ldrdeq	r2, [r4, #16]
    9678:	05832010 	streq	r2, [r3, #16]
    967c:	05942010 	ldreq	r2, [r4, #16]
    9680:	05823014 	streq	r3, [r2, #20]
    9684:	e3a0000e 	mov	r0, #14
    9688:	e8bd4070 	pop	{r4, r5, r6, lr}
    968c:	eafffebb 	b	9180 <chSchGoSleepS>
    9690:	0000caec 	andeq	ip, r0, ip, ror #21
	...

000096a0 <chThdExit>:
    96a0:	e321f09f 	msr	CPSR_c, #159	; 0x9f
    96a4:	eaffffe1 	b	9630 <chThdExitS>
	...

000096b0 <chThdWait>:
    96b0:	e92d4070 	push	{r4, r5, r6, lr}
    96b4:	e1a04000 	mov	r4, r0
    96b8:	e321f09f 	msr	CPSR_c, #159	; 0x9f
    96bc:	e5d0301c 	ldrb	r3, [r0, #28]
    96c0:	e353000e 	cmp	r3, #14
    96c4:	0a000006 	beq	96e4 <chThdWait+0x34>
    96c8:	e59f302c 	ldr	r3, [pc, #44]	; 96fc <chThdWait+0x4c>
    96cc:	e5902028 	ldr	r2, [r0, #40]	; 0x28
    96d0:	e5933018 	ldr	r3, [r3, #24]
    96d4:	e3a00007 	mov	r0, #7
    96d8:	e5832000 	str	r2, [r3]
    96dc:	e5843028 	str	r3, [r4, #40]	; 0x28
    96e0:	ebfffea6 	bl	9180 <chSchGoSleepS>
    96e4:	e5945024 	ldr	r5, [r4, #36]	; 0x24
    96e8:	e321f01f 	msr	CPSR_c, #31
    96ec:	e1a00004 	mov	r0, r4
    96f0:	eb000002 	bl	9700 <chThdRelease>
    96f4:	e1a00005 	mov	r0, r5
    96f8:	e8bd8070 	pop	{r4, r5, r6, pc}
    96fc:	0000caec 	andeq	ip, r0, ip, ror #21

00009700 <chThdRelease>:
    9700:	e321f09f 	msr	CPSR_c, #159	; 0x9f
    9704:	e5d0301e 	ldrb	r3, [r0, #30]
    9708:	e2433001 	sub	r3, r3, #1
    970c:	e6ef3073 	uxtb	r3, r3
    9710:	e5c0301e 	strb	r3, [r0, #30]
    9714:	e321f01f 	msr	CPSR_c, #31
    9718:	e3530000 	cmp	r3, #0
    971c:	112fff1e 	bxne	lr
    9720:	e5d0301c 	ldrb	r3, [r0, #28]
    9724:	e353000e 	cmp	r3, #14
    9728:	112fff1e 	bxne	lr
    972c:	e5d0301d 	ldrb	r3, [r0, #29]
    9730:	e2033003 	and	r3, r3, #3
    9734:	e3530001 	cmp	r3, #1
    9738:	112fff1e 	bxne	lr
    973c:	e5903014 	ldr	r3, [r0, #20]
    9740:	e5901010 	ldr	r1, [r0, #16]
    9744:	e5831010 	str	r1, [r3, #16]
    9748:	e5902010 	ldr	r2, [r0, #16]
    974c:	e5823014 	str	r3, [r2, #20]
    9750:	ea000252 	b	a0a0 <chHeapFree>
	...

00009760 <chThdCreateFromHeap>:
    9760:	e92d40f0 	push	{r4, r5, r6, r7, lr}
    9764:	e24dd00c 	sub	sp, sp, #12
    9768:	e1a06002 	mov	r6, r2
    976c:	e1a07003 	mov	r7, r3
    9770:	e1a05001 	mov	r5, r1
    9774:	eb000215 	bl	9fd0 <chHeapAlloc>
    9778:	e2504000 	subs	r4, r0, #0
    977c:	0a00000c 	beq	97b4 <chThdCreateFromHeap+0x54>
    9780:	e321f09f 	msr	CPSR_c, #159	; 0x9f
    9784:	e59d3020 	ldr	r3, [sp, #32]
    9788:	e1a02006 	mov	r2, r6
    978c:	e58d3000 	str	r3, [sp]
    9790:	e1a01005 	mov	r1, r5
    9794:	e1a03007 	mov	r3, r7
    9798:	ebffff4c 	bl	94d0 <chThdCreateI>
    979c:	e3a03001 	mov	r3, #1
    97a0:	e3a01000 	mov	r1, #0
    97a4:	e5c0301d 	strb	r3, [r0, #29]
    97a8:	e1a04000 	mov	r4, r0
    97ac:	ebfffea7 	bl	9250 <chSchWakeupS>
    97b0:	e321f01f 	msr	CPSR_c, #31
    97b4:	e1a00004 	mov	r0, r4
    97b8:	e28dd00c 	add	sp, sp, #12
    97bc:	e8bd80f0 	pop	{r4, r5, r6, r7, pc}

000097c0 <chMtxInit>:
    97c0:	e3a03000 	mov	r3, #0
    97c4:	e5800004 	str	r0, [r0, #4]
    97c8:	e5800000 	str	r0, [r0]
    97cc:	e5803008 	str	r3, [r0, #8]
    97d0:	e12fff1e 	bx	lr
	...

000097e0 <chMtxLockS>:
    97e0:	e5903008 	ldr	r3, [r0, #8]
    97e4:	e59f218c 	ldr	r2, [pc, #396]	; 9978 <chMtxLockS+0x198>
    97e8:	e3530000 	cmp	r3, #0
    97ec:	e92d4070 	push	{r4, r5, r6, lr}
    97f0:	e5924018 	ldr	r4, [r2, #24]
    97f4:	0a00003d 	beq	98f0 <chMtxLockS+0x110>
    97f8:	e5941008 	ldr	r1, [r4, #8]
    97fc:	e5932008 	ldr	r2, [r3, #8]
    9800:	e1a05000 	mov	r5, r0
    9804:	e1510002 	cmp	r1, r2
    9808:	9a000007 	bls	982c <chMtxLockS+0x4c>
    980c:	e5d3201c 	ldrb	r2, [r3, #28]
    9810:	e5831008 	str	r1, [r3, #8]
    9814:	e3520004 	cmp	r2, #4
    9818:	0a000039 	beq	9904 <chMtxLockS+0x124>
    981c:	e3520005 	cmp	r2, #5
    9820:	0a000014 	beq	9878 <chMtxLockS+0x98>
    9824:	e3520000 	cmp	r2, #0
    9828:	0a000027 	beq	98cc <chMtxLockS+0xec>
    982c:	e1a00005 	mov	r0, r5
    9830:	e1a03005 	mov	r3, r5
    9834:	ea000003 	b	9848 <chMtxLockS+0x68>
    9838:	e5931008 	ldr	r1, [r3, #8]
    983c:	e5942008 	ldr	r2, [r4, #8]
    9840:	e1510002 	cmp	r1, r2
    9844:	3a000027 	bcc	98e8 <chMtxLockS+0x108>
    9848:	e5933000 	ldr	r3, [r3]
    984c:	e1550003 	cmp	r5, r3
    9850:	1afffff8 	bne	9838 <chMtxLockS+0x58>
    9854:	e5903004 	ldr	r3, [r0, #4]
    9858:	e8840009 	stm	r4, {r0, r3}
    985c:	e5804004 	str	r4, [r0, #4]
    9860:	e5943004 	ldr	r3, [r4, #4]
    9864:	e3a00004 	mov	r0, #4
    9868:	e5834000 	str	r4, [r3]
    986c:	e5845024 	str	r5, [r4, #36]	; 0x24
    9870:	e8bd4070 	pop	{r4, r5, r6, lr}
    9874:	eafffe41 	b	9180 <chSchGoSleepS>
    9878:	e593e000 	ldr	lr, [r3]
    987c:	e5930004 	ldr	r0, [r3, #4]
    9880:	e593c024 	ldr	ip, [r3, #36]	; 0x24
    9884:	e580e000 	str	lr, [r0]
    9888:	e593e000 	ldr	lr, [r3]
    988c:	e1a0200c 	mov	r2, ip
    9890:	e58e0004 	str	r0, [lr, #4]
    9894:	ea000002 	b	98a4 <chMtxLockS+0xc4>
    9898:	e5920008 	ldr	r0, [r2, #8]
    989c:	e1500001 	cmp	r0, r1
    98a0:	3a000032 	bcc	9970 <chMtxLockS+0x190>
    98a4:	e5922000 	ldr	r2, [r2]
    98a8:	e15c0002 	cmp	ip, r2
    98ac:	1afffff9 	bne	9898 <chMtxLockS+0xb8>
    98b0:	e59c2004 	ldr	r2, [ip, #4]
    98b4:	e583c000 	str	ip, [r3]
    98b8:	e5832004 	str	r2, [r3, #4]
    98bc:	e58c3004 	str	r3, [ip, #4]
    98c0:	e5932004 	ldr	r2, [r3, #4]
    98c4:	e5823000 	str	r3, [r2]
    98c8:	eaffffd7 	b	982c <chMtxLockS+0x4c>
    98cc:	e8930006 	ldm	r3, {r1, r2}
    98d0:	e5821000 	str	r1, [r2]
    98d4:	e1a00003 	mov	r0, r3
    98d8:	e5933000 	ldr	r3, [r3]
    98dc:	e5832004 	str	r2, [r3, #4]
    98e0:	ebfffe12 	bl	9130 <chSchReadyI>
    98e4:	eaffffd0 	b	982c <chMtxLockS+0x4c>
    98e8:	e1a00003 	mov	r0, r3
    98ec:	eaffffd8 	b	9854 <chMtxLockS+0x74>
    98f0:	e594303c 	ldr	r3, [r4, #60]	; 0x3c
    98f4:	e5804008 	str	r4, [r0, #8]
    98f8:	e580300c 	str	r3, [r0, #12]
    98fc:	e584003c 	str	r0, [r4, #60]	; 0x3c
    9900:	e8bd8070 	pop	{r4, r5, r6, pc}
    9904:	e593e000 	ldr	lr, [r3]
    9908:	e5930004 	ldr	r0, [r3, #4]
    990c:	e593c024 	ldr	ip, [r3, #36]	; 0x24
    9910:	e580e000 	str	lr, [r0]
    9914:	e593e000 	ldr	lr, [r3]
    9918:	e1a0200c 	mov	r2, ip
    991c:	e58e0004 	str	r0, [lr, #4]
    9920:	ea000002 	b	9930 <chMtxLockS+0x150>
    9924:	e5920008 	ldr	r0, [r2, #8]
    9928:	e1500001 	cmp	r0, r1
    992c:	3a000003 	bcc	9940 <chMtxLockS+0x160>
    9930:	e5922000 	ldr	r2, [r2]
    9934:	e15c0002 	cmp	ip, r2
    9938:	1afffff9 	bne	9924 <chMtxLockS+0x144>
    993c:	e1a0200c 	mov	r2, ip
    9940:	e5921004 	ldr	r1, [r2, #4]
    9944:	e5832000 	str	r2, [r3]
    9948:	e5831004 	str	r1, [r3, #4]
    994c:	e5823004 	str	r3, [r2, #4]
    9950:	e5932004 	ldr	r2, [r3, #4]
    9954:	e5941008 	ldr	r1, [r4, #8]
    9958:	e5823000 	str	r3, [r2]
    995c:	e59c3008 	ldr	r3, [ip, #8]
    9960:	e5932008 	ldr	r2, [r3, #8]
    9964:	e1520001 	cmp	r2, r1
    9968:	3affffa7 	bcc	980c <chMtxLockS+0x2c>
    996c:	eaffffae 	b	982c <chMtxLockS+0x4c>
    9970:	e1a0c002 	mov	ip, r2
    9974:	eaffffcd 	b	98b0 <chMtxLockS+0xd0>
    9978:	0000caec 	andeq	ip, r0, ip, ror #21
    997c:	00000000 	andeq	r0, r0, r0

00009980 <chMtxLock>:
    9980:	e92d4010 	push	{r4, lr}
    9984:	e321f09f 	msr	CPSR_c, #159	; 0x9f
    9988:	ebffff94 	bl	97e0 <chMtxLockS>
    998c:	e321f01f 	msr	CPSR_c, #31
    9990:	e8bd8010 	pop	{r4, pc}
	...

000099a0 <chMtxUnlock>:
    99a0:	e59f3094 	ldr	r3, [pc, #148]	; 9a3c <chMtxUnlock+0x9c>
    99a4:	e92d4010 	push	{r4, lr}
    99a8:	e5930018 	ldr	r0, [r3, #24]
    99ac:	e321f09f 	msr	CPSR_c, #159	; 0x9f
    99b0:	e590403c 	ldr	r4, [r0, #60]	; 0x3c
    99b4:	e594c000 	ldr	ip, [r4]
    99b8:	e594300c 	ldr	r3, [r4, #12]
    99bc:	e15c0004 	cmp	ip, r4
    99c0:	e580303c 	str	r3, [r0, #60]	; 0x3c
    99c4:	0a000019 	beq	9a30 <chMtxUnlock+0x90>
    99c8:	e3530000 	cmp	r3, #0
    99cc:	e5901040 	ldr	r1, [r0, #64]	; 0x40
    99d0:	0a000008 	beq	99f8 <chMtxUnlock+0x58>
    99d4:	e5932000 	ldr	r2, [r3]
    99d8:	e1520003 	cmp	r2, r3
    99dc:	0a000002 	beq	99ec <chMtxUnlock+0x4c>
    99e0:	e5922008 	ldr	r2, [r2, #8]
    99e4:	e1510002 	cmp	r1, r2
    99e8:	31a01002 	movcc	r1, r2
    99ec:	e593300c 	ldr	r3, [r3, #12]
    99f0:	e3530000 	cmp	r3, #0
    99f4:	1afffff6 	bne	99d4 <chMtxUnlock+0x34>
    99f8:	e59c203c 	ldr	r2, [ip, #60]	; 0x3c
    99fc:	e59c3000 	ldr	r3, [ip]
    9a00:	e5801008 	str	r1, [r0, #8]
    9a04:	e5843000 	str	r3, [r4]
    9a08:	e1a0000c 	mov	r0, ip
    9a0c:	e5834004 	str	r4, [r3, #4]
    9a10:	e3a01000 	mov	r1, #0
    9a14:	e584c008 	str	ip, [r4, #8]
    9a18:	e584200c 	str	r2, [r4, #12]
    9a1c:	e58c403c 	str	r4, [ip, #60]	; 0x3c
    9a20:	ebfffe0a 	bl	9250 <chSchWakeupS>
    9a24:	e321f01f 	msr	CPSR_c, #31
    9a28:	e1a00004 	mov	r0, r4
    9a2c:	e8bd8010 	pop	{r4, pc}
    9a30:	e3a03000 	mov	r3, #0
    9a34:	e5843008 	str	r3, [r4, #8]
    9a38:	eafffff9 	b	9a24 <chMtxUnlock+0x84>
    9a3c:	0000caec 	andeq	ip, r0, ip, ror #21

00009a40 <chEvtSignalI>:
    9a40:	e5903038 	ldr	r3, [r0, #56]	; 0x38
    9a44:	e5d0201c 	ldrb	r2, [r0, #28]
    9a48:	e1811003 	orr	r1, r1, r3
    9a4c:	e3520008 	cmp	r2, #8
    9a50:	e5801038 	str	r1, [r0, #56]	; 0x38
    9a54:	0a000009 	beq	9a80 <chEvtSignalI+0x40>
    9a58:	e3520009 	cmp	r2, #9
    9a5c:	112fff1e 	bxne	lr
    9a60:	e5903024 	ldr	r3, [r0, #36]	; 0x24
    9a64:	e1d33001 	bics	r3, r3, r1
    9a68:	112fff1e 	bxne	lr
    9a6c:	e92d4010 	push	{r4, lr}
    9a70:	ebfffdae 	bl	9130 <chSchReadyI>
    9a74:	e3a03000 	mov	r3, #0
    9a78:	e5803024 	str	r3, [r0, #36]	; 0x24
    9a7c:	e8bd8010 	pop	{r4, pc}
    9a80:	e5903024 	ldr	r3, [r0, #36]	; 0x24
    9a84:	e1110003 	tst	r1, r3
    9a88:	012fff1e 	bxeq	lr
    9a8c:	eafffff6 	b	9a6c <chEvtSignalI+0x2c>

00009a90 <chEvtBroadcastFlagsI>:
    9a90:	e92d4070 	push	{r4, r5, r6, lr}
    9a94:	e5904000 	ldr	r4, [r0]
    9a98:	e1500004 	cmp	r0, r4
    9a9c:	08bd8070 	popeq	{r4, r5, r6, pc}
    9aa0:	e1a05000 	mov	r5, r0
    9aa4:	e1a06001 	mov	r6, r1
    9aa8:	e594300c 	ldr	r3, [r4, #12]
    9aac:	e5941008 	ldr	r1, [r4, #8]
    9ab0:	e1833006 	orr	r3, r3, r6
    9ab4:	e584300c 	str	r3, [r4, #12]
    9ab8:	e5940004 	ldr	r0, [r4, #4]
    9abc:	ebffffdf 	bl	9a40 <chEvtSignalI>
    9ac0:	e5944000 	ldr	r4, [r4]
    9ac4:	e1550004 	cmp	r5, r4
    9ac8:	1afffff6 	bne	9aa8 <chEvtBroadcastFlagsI+0x18>
    9acc:	e8bd8070 	pop	{r4, r5, r6, pc}

00009ad0 <qwait>:
    9ad0:	e3510000 	cmp	r1, #0
    9ad4:	e1a02000 	mov	r2, r0
    9ad8:	0a000008 	beq	9b00 <qwait+0x30>
    9adc:	e59f3024 	ldr	r3, [pc, #36]	; 9b08 <qwait+0x38>
    9ae0:	e590c004 	ldr	ip, [r0, #4]
    9ae4:	e5933018 	ldr	r3, [r3, #24]
    9ae8:	e3a0000d 	mov	r0, #13
    9aec:	e5832024 	str	r2, [r3, #36]	; 0x24
    9af0:	e8831004 	stm	r3, {r2, ip}
    9af4:	e5823004 	str	r3, [r2, #4]
    9af8:	e58c3000 	str	r3, [ip]
    9afc:	eafffdb3 	b	91d0 <chSchGoSleepTimeoutS>
    9b00:	e3e00000 	mvn	r0, #0
    9b04:	e12fff1e 	bx	lr
    9b08:	0000caec 	andeq	ip, r0, ip, ror #21
    9b0c:	00000000 	andeq	r0, r0, r0

00009b10 <chIQInit>:
    9b10:	e52de004 	push	{lr}		; (str lr, [sp, #-4]!)
    9b14:	e3a0e000 	mov	lr, #0
    9b18:	e59dc004 	ldr	ip, [sp, #4]
    9b1c:	e0812002 	add	r2, r1, r2
    9b20:	e5802010 	str	r2, [r0, #16]
    9b24:	e5800004 	str	r0, [r0, #4]
    9b28:	e5800000 	str	r0, [r0]
    9b2c:	e5801014 	str	r1, [r0, #20]
    9b30:	e5801018 	str	r1, [r0, #24]
    9b34:	e580100c 	str	r1, [r0, #12]
    9b38:	e580301c 	str	r3, [r0, #28]
    9b3c:	e580e008 	str	lr, [r0, #8]
    9b40:	e580c020 	str	ip, [r0, #32]
    9b44:	e49df004 	pop	{pc}		; (ldr pc, [sp], #4)
	...

00009b50 <chIQPutI>:
    9b50:	e1c021d4 	ldrd	r2, [r0, #20]
    9b54:	e1520003 	cmp	r2, r3
    9b58:	e5903008 	ldr	r3, [r0, #8]
    9b5c:	0a000019 	beq	9bc8 <chIQPutI+0x78>
    9b60:	e2833001 	add	r3, r3, #1
    9b64:	e282c001 	add	ip, r2, #1
    9b68:	e580c014 	str	ip, [r0, #20]
    9b6c:	e5803008 	str	r3, [r0, #8]
    9b70:	e5c21000 	strb	r1, [r2]
    9b74:	e5902014 	ldr	r2, [r0, #20]
    9b78:	e5903010 	ldr	r3, [r0, #16]
    9b7c:	e1520003 	cmp	r2, r3
    9b80:	2590300c 	ldrcs	r3, [r0, #12]
    9b84:	e5902000 	ldr	r2, [r0]
    9b88:	25803014 	strcs	r3, [r0, #20]
    9b8c:	e1520000 	cmp	r2, r0
    9b90:	0a00000a 	beq	9bc0 <chIQPutI+0x70>
    9b94:	e1a03000 	mov	r3, r0
    9b98:	e5921000 	ldr	r1, [r2]
    9b9c:	e92d4010 	push	{r4, lr}
    9ba0:	e1a00002 	mov	r0, r2
    9ba4:	e5831000 	str	r1, [r3]
    9ba8:	e5813004 	str	r3, [r1, #4]
    9bac:	ebfffd5f 	bl	9130 <chSchReadyI>
    9bb0:	e3a03000 	mov	r3, #0
    9bb4:	e5803024 	str	r3, [r0, #36]	; 0x24
    9bb8:	e1a00003 	mov	r0, r3
    9bbc:	e8bd8010 	pop	{r4, pc}
    9bc0:	e3a00000 	mov	r0, #0
    9bc4:	e12fff1e 	bx	lr
    9bc8:	e3530000 	cmp	r3, #0
    9bcc:	0affffe3 	beq	9b60 <chIQPutI+0x10>
    9bd0:	e3e00003 	mvn	r0, #3
    9bd4:	e12fff1e 	bx	lr
	...

00009be0 <chIQGetTimeout>:
    9be0:	e92d4070 	push	{r4, r5, r6, lr}
    9be4:	e1a05001 	mov	r5, r1
    9be8:	e1a04000 	mov	r4, r0
    9bec:	e321f09f 	msr	CPSR_c, #159	; 0x9f
    9bf0:	e590301c 	ldr	r3, [r0, #28]
    9bf4:	e3530000 	cmp	r3, #0
    9bf8:	0a000006 	beq	9c18 <chIQGetTimeout+0x38>
    9bfc:	e12fff33 	blx	r3
    9c00:	ea000004 	b	9c18 <chIQGetTimeout+0x38>
    9c04:	e1a01005 	mov	r1, r5
    9c08:	e1a00004 	mov	r0, r4
    9c0c:	ebffffaf 	bl	9ad0 <qwait>
    9c10:	e3500000 	cmp	r0, #0
    9c14:	ba00000c 	blt	9c4c <chIQGetTimeout+0x6c>
    9c18:	e5943008 	ldr	r3, [r4, #8]
    9c1c:	e3530000 	cmp	r3, #0
    9c20:	0afffff7 	beq	9c04 <chIQGetTimeout+0x24>
    9c24:	e5942018 	ldr	r2, [r4, #24]
    9c28:	e5940010 	ldr	r0, [r4, #16]
    9c2c:	e2821001 	add	r1, r2, #1
    9c30:	e2433001 	sub	r3, r3, #1
    9c34:	e1510000 	cmp	r1, r0
    9c38:	e5843008 	str	r3, [r4, #8]
    9c3c:	2594300c 	ldrcs	r3, [r4, #12]
    9c40:	e5841018 	str	r1, [r4, #24]
    9c44:	e5d20000 	ldrb	r0, [r2]
    9c48:	25843018 	strcs	r3, [r4, #24]
    9c4c:	e321f01f 	msr	CPSR_c, #31
    9c50:	e8bd8070 	pop	{r4, r5, r6, pc}
	...

00009c60 <chIQReadTimeout>:
    9c60:	e92d47f0 	push	{r4, r5, r6, r7, r8, r9, sl, lr}
    9c64:	e1a04000 	mov	r4, r0
    9c68:	e1a08001 	mov	r8, r1
    9c6c:	e1a09002 	mov	r9, r2
    9c70:	e1a05003 	mov	r5, r3
    9c74:	e590701c 	ldr	r7, [r0, #28]
    9c78:	e321f09f 	msr	CPSR_c, #159	; 0x9f
    9c7c:	e3a06000 	mov	r6, #0
    9c80:	e3570000 	cmp	r7, #0
    9c84:	0a000007 	beq	9ca8 <chIQReadTimeout+0x48>
    9c88:	e1a00004 	mov	r0, r4
    9c8c:	e12fff37 	blx	r7
    9c90:	ea000004 	b	9ca8 <chIQReadTimeout+0x48>
    9c94:	e1a01005 	mov	r1, r5
    9c98:	e1a00004 	mov	r0, r4
    9c9c:	ebffff8b 	bl	9ad0 <qwait>
    9ca0:	e3500000 	cmp	r0, #0
    9ca4:	1a000014 	bne	9cfc <chIQReadTimeout+0x9c>
    9ca8:	e5943008 	ldr	r3, [r4, #8]
    9cac:	e3530000 	cmp	r3, #0
    9cb0:	0afffff7 	beq	9c94 <chIQReadTimeout+0x34>
    9cb4:	e5942018 	ldr	r2, [r4, #24]
    9cb8:	e2433001 	sub	r3, r3, #1
    9cbc:	e2821001 	add	r1, r2, #1
    9cc0:	e5841018 	str	r1, [r4, #24]
    9cc4:	e5843008 	str	r3, [r4, #8]
    9cc8:	e5d23000 	ldrb	r3, [r2]
    9ccc:	e4c83001 	strb	r3, [r8], #1
    9cd0:	e5943010 	ldr	r3, [r4, #16]
    9cd4:	e5942018 	ldr	r2, [r4, #24]
    9cd8:	e1520003 	cmp	r2, r3
    9cdc:	2594300c 	ldrcs	r3, [r4, #12]
    9ce0:	25843018 	strcs	r3, [r4, #24]
    9ce4:	e321f01f 	msr	CPSR_c, #31
    9ce8:	e2866001 	add	r6, r6, #1
    9cec:	e1590006 	cmp	r9, r6
    9cf0:	0a000002 	beq	9d00 <chIQReadTimeout+0xa0>
    9cf4:	e321f09f 	msr	CPSR_c, #159	; 0x9f
    9cf8:	eaffffe0 	b	9c80 <chIQReadTimeout+0x20>
    9cfc:	e321f01f 	msr	CPSR_c, #31
    9d00:	e1a00006 	mov	r0, r6
    9d04:	e8bd87f0 	pop	{r4, r5, r6, r7, r8, r9, sl, pc}
	...

00009d10 <chOQInit>:
    9d10:	e52de004 	push	{lr}		; (str lr, [sp, #-4]!)
    9d14:	e59dc004 	ldr	ip, [sp, #4]
    9d18:	e081e002 	add	lr, r1, r2
    9d1c:	e5800004 	str	r0, [r0, #4]
    9d20:	e5800000 	str	r0, [r0]
    9d24:	e5802008 	str	r2, [r0, #8]
    9d28:	e580e010 	str	lr, [r0, #16]
    9d2c:	e5801014 	str	r1, [r0, #20]
    9d30:	e5801018 	str	r1, [r0, #24]
    9d34:	e580100c 	str	r1, [r0, #12]
    9d38:	e580301c 	str	r3, [r0, #28]
    9d3c:	e580c020 	str	ip, [r0, #32]
    9d40:	e49df004 	pop	{pc}		; (ldr pc, [sp], #4)
	...

00009d50 <chOQPutTimeout>:
    9d50:	e92d4070 	push	{r4, r5, r6, lr}
    9d54:	e1a04000 	mov	r4, r0
    9d58:	e1a06001 	mov	r6, r1
    9d5c:	e1a05002 	mov	r5, r2
    9d60:	e321f09f 	msr	CPSR_c, #159	; 0x9f
    9d64:	ea000004 	b	9d7c <chOQPutTimeout+0x2c>
    9d68:	e1a01005 	mov	r1, r5
    9d6c:	e1a00004 	mov	r0, r4
    9d70:	ebffff56 	bl	9ad0 <qwait>
    9d74:	e3500000 	cmp	r0, #0
    9d78:	ba000015 	blt	9dd4 <chOQPutTimeout+0x84>
    9d7c:	e5943008 	ldr	r3, [r4, #8]
    9d80:	e3530000 	cmp	r3, #0
    9d84:	0afffff7 	beq	9d68 <chOQPutTimeout+0x18>
    9d88:	e5942014 	ldr	r2, [r4, #20]
    9d8c:	e2433001 	sub	r3, r3, #1
    9d90:	e2821001 	add	r1, r2, #1
    9d94:	e5841014 	str	r1, [r4, #20]
    9d98:	e5843008 	str	r3, [r4, #8]
    9d9c:	e5c26000 	strb	r6, [r2]
    9da0:	e5943010 	ldr	r3, [r4, #16]
    9da4:	e5942014 	ldr	r2, [r4, #20]
    9da8:	e1520003 	cmp	r2, r3
    9dac:	2594300c 	ldrcs	r3, [r4, #12]
    9db0:	25843014 	strcs	r3, [r4, #20]
    9db4:	e594301c 	ldr	r3, [r4, #28]
    9db8:	e3530000 	cmp	r3, #0
    9dbc:	0a000001 	beq	9dc8 <chOQPutTimeout+0x78>
    9dc0:	e1a00004 	mov	r0, r4
    9dc4:	e12fff33 	blx	r3
    9dc8:	e321f01f 	msr	CPSR_c, #31
    9dcc:	e3a00000 	mov	r0, #0
    9dd0:	e8bd8070 	pop	{r4, r5, r6, pc}
    9dd4:	e321f01f 	msr	CPSR_c, #31
    9dd8:	e8bd8070 	pop	{r4, r5, r6, pc}
    9ddc:	00000000 	andeq	r0, r0, r0

00009de0 <chOQGetI>:
    9de0:	e5902018 	ldr	r2, [r0, #24]
    9de4:	e5901014 	ldr	r1, [r0, #20]
    9de8:	e5903008 	ldr	r3, [r0, #8]
    9dec:	e1510002 	cmp	r1, r2
    9df0:	0a000016 	beq	9e50 <chOQGetI+0x70>
    9df4:	e92d4010 	push	{r4, lr}
    9df8:	e590c010 	ldr	ip, [r0, #16]
    9dfc:	e2833001 	add	r3, r3, #1
    9e00:	e2821001 	add	r1, r2, #1
    9e04:	e151000c 	cmp	r1, ip
    9e08:	e5803008 	str	r3, [r0, #8]
    9e0c:	e5801018 	str	r1, [r0, #24]
    9e10:	e5d24000 	ldrb	r4, [r2]
    9e14:	2590300c 	ldrcs	r3, [r0, #12]
    9e18:	e5902000 	ldr	r2, [r0]
    9e1c:	25803018 	strcs	r3, [r0, #24]
    9e20:	e1520000 	cmp	r2, r0
    9e24:	0a000007 	beq	9e48 <chOQGetI+0x68>
    9e28:	e1a03000 	mov	r3, r0
    9e2c:	e5921000 	ldr	r1, [r2]
    9e30:	e1a00002 	mov	r0, r2
    9e34:	e5831000 	str	r1, [r3]
    9e38:	e5813004 	str	r3, [r1, #4]
    9e3c:	ebfffcbb 	bl	9130 <chSchReadyI>
    9e40:	e3a03000 	mov	r3, #0
    9e44:	e5803024 	str	r3, [r0, #36]	; 0x24
    9e48:	e1a00004 	mov	r0, r4
    9e4c:	e8bd8010 	pop	{r4, pc}
    9e50:	e3530000 	cmp	r3, #0
    9e54:	0affffe6 	beq	9df4 <chOQGetI+0x14>
    9e58:	e3e00002 	mvn	r0, #2
    9e5c:	e12fff1e 	bx	lr

00009e60 <chOQWriteTimeout>:
    9e60:	e92d47f0 	push	{r4, r5, r6, r7, r8, r9, sl, lr}
    9e64:	e1a04000 	mov	r4, r0
    9e68:	e1a05001 	mov	r5, r1
    9e6c:	e1a06002 	mov	r6, r2
    9e70:	e1a09003 	mov	r9, r3
    9e74:	e590801c 	ldr	r8, [r0, #28]
    9e78:	e321f09f 	msr	CPSR_c, #159	; 0x9f
    9e7c:	e3a07000 	mov	r7, #0
    9e80:	e5943008 	ldr	r3, [r4, #8]
    9e84:	e285a001 	add	sl, r5, #1
    9e88:	e3530000 	cmp	r3, #0
    9e8c:	e2432001 	sub	r2, r3, #1
    9e90:	0a000015 	beq	9eec <chOQWriteTimeout+0x8c>
    9e94:	e5943014 	ldr	r3, [r4, #20]
    9e98:	e5842008 	str	r2, [r4, #8]
    9e9c:	e2832001 	add	r2, r3, #1
    9ea0:	e5842014 	str	r2, [r4, #20]
    9ea4:	e5d52000 	ldrb	r2, [r5]
    9ea8:	e5c32000 	strb	r2, [r3]
    9eac:	e5943010 	ldr	r3, [r4, #16]
    9eb0:	e5942014 	ldr	r2, [r4, #20]
    9eb4:	e1520003 	cmp	r2, r3
    9eb8:	2594300c 	ldrcs	r3, [r4, #12]
    9ebc:	25843014 	strcs	r3, [r4, #20]
    9ec0:	e3580000 	cmp	r8, #0
    9ec4:	0a000001 	beq	9ed0 <chOQWriteTimeout+0x70>
    9ec8:	e1a00004 	mov	r0, r4
    9ecc:	e12fff38 	blx	r8
    9ed0:	e321f01f 	msr	CPSR_c, #31
    9ed4:	e2566001 	subs	r6, r6, #1
    9ed8:	e2877001 	add	r7, r7, #1
    9edc:	0a000008 	beq	9f04 <chOQWriteTimeout+0xa4>
    9ee0:	e321f09f 	msr	CPSR_c, #159	; 0x9f
    9ee4:	e1a0500a 	mov	r5, sl
    9ee8:	eaffffe4 	b	9e80 <chOQWriteTimeout+0x20>
    9eec:	e1a01009 	mov	r1, r9
    9ef0:	e1a00004 	mov	r0, r4
    9ef4:	ebfffef5 	bl	9ad0 <qwait>
    9ef8:	e3500000 	cmp	r0, #0
    9efc:	0affffdf 	beq	9e80 <chOQWriteTimeout+0x20>
    9f00:	e321f01f 	msr	CPSR_c, #31
    9f04:	e1a00007 	mov	r0, r7
    9f08:	e8bd87f0 	pop	{r4, r5, r6, r7, r8, r9, sl, pc}
    9f0c:	00000000 	andeq	r0, r0, r0

00009f10 <_core_init>:
    9f10:	e59f201c 	ldr	r2, [pc, #28]	; 9f34 <_core_init+0x24>
    9f14:	e59f301c 	ldr	r3, [pc, #28]	; 9f38 <_core_init+0x28>
    9f18:	e59f001c 	ldr	r0, [pc, #28]	; 9f3c <_core_init+0x2c>
    9f1c:	e59f101c 	ldr	r1, [pc, #28]	; 9f40 <_core_init+0x30>
    9f20:	e3c22003 	bic	r2, r2, #3
    9f24:	e3c33003 	bic	r3, r3, #3
    9f28:	e5802000 	str	r2, [r0]
    9f2c:	e5813000 	str	r3, [r1]
    9f30:	e12fff1e 	bx	lr
    9f34:	0000cc1b 	andeq	ip, r0, fp, lsl ip
    9f38:	06007b44 	streq	r7, [r0], -r4, asr #22
    9f3c:	0000c904 	andeq	ip, r0, r4, lsl #18
    9f40:	0000c900 	andeq	ip, r0, r0, lsl #18
	...

00009f50 <chCoreAlloc>:
    9f50:	e1a03000 	mov	r3, r0
    9f54:	e321f09f 	msr	CPSR_c, #159	; 0x9f
    9f58:	e59f102c 	ldr	r1, [pc, #44]	; 9f8c <chCoreAlloc+0x3c>
    9f5c:	e59f202c 	ldr	r2, [pc, #44]	; 9f90 <chCoreAlloc+0x40>
    9f60:	e5910000 	ldr	r0, [r1]
    9f64:	e5922000 	ldr	r2, [r2]
    9f68:	e2833003 	add	r3, r3, #3
    9f6c:	e3c33003 	bic	r3, r3, #3
    9f70:	e0422000 	sub	r2, r2, r0
    9f74:	e1530002 	cmp	r3, r2
    9f78:	90803003 	addls	r3, r0, r3
    9f7c:	95813000 	strls	r3, [r1]
    9f80:	83a00000 	movhi	r0, #0
    9f84:	e321f01f 	msr	CPSR_c, #31
    9f88:	e12fff1e 	bx	lr
    9f8c:	0000c904 	andeq	ip, r0, r4, lsl #18
    9f90:	0000c900 	andeq	ip, r0, r0, lsl #18
	...

00009fa0 <_heap_init>:
    9fa0:	e3a02000 	mov	r2, #0
    9fa4:	e59f3014 	ldr	r3, [pc, #20]	; 9fc0 <_heap_init+0x20>
    9fa8:	e59f1014 	ldr	r1, [pc, #20]	; 9fc4 <_heap_init+0x24>
    9fac:	e283000c 	add	r0, r3, #12
    9fb0:	e5832004 	str	r2, [r3, #4]
    9fb4:	e5832008 	str	r2, [r3, #8]
    9fb8:	e5831000 	str	r1, [r3]
    9fbc:	eafffdff 	b	97c0 <chMtxInit>
    9fc0:	0000c908 	andeq	ip, r0, r8, lsl #18
    9fc4:	00009f50 	andeq	r9, r0, r0, asr pc
	...

00009fd0 <chHeapAlloc>:
    9fd0:	e3500000 	cmp	r0, #0
    9fd4:	e92d4070 	push	{r4, r5, r6, lr}
    9fd8:	e59f60b0 	ldr	r6, [pc, #176]	; a090 <chHeapAlloc+0xc0>
    9fdc:	11a06000 	movne	r6, r0
    9fe0:	e2811003 	add	r1, r1, #3
    9fe4:	e286000c 	add	r0, r6, #12
    9fe8:	e3c15003 	bic	r5, r1, #3
    9fec:	e2864004 	add	r4, r6, #4
    9ff0:	ebfffe62 	bl	9980 <chMtxLock>
    9ff4:	ea000003 	b	a008 <chHeapAlloc+0x38>
    9ff8:	e5903004 	ldr	r3, [r0, #4]
    9ffc:	e1530005 	cmp	r3, r5
    a000:	2a000010 	bcs	a048 <chHeapAlloc+0x78>
    a004:	e1a04000 	mov	r4, r0
    a008:	e5940000 	ldr	r0, [r4]
    a00c:	e3500000 	cmp	r0, #0
    a010:	1afffff8 	bne	9ff8 <chHeapAlloc+0x28>
    a014:	ebfffe61 	bl	99a0 <chMtxUnlock>
    a018:	e5963000 	ldr	r3, [r6]
    a01c:	e3530000 	cmp	r3, #0
    a020:	0a000018 	beq	a088 <chHeapAlloc+0xb8>
    a024:	e2850008 	add	r0, r5, #8
    a028:	e12fff33 	blx	r3
    a02c:	e3500000 	cmp	r0, #0
    a030:	0a000014 	beq	a088 <chHeapAlloc+0xb8>
    a034:	e5806000 	str	r6, [r0]
    a038:	e5805004 	str	r5, [r0, #4]
    a03c:	e2804008 	add	r4, r0, #8
    a040:	e1a00004 	mov	r0, r4
    a044:	e8bd8070 	pop	{r4, r5, r6, pc}
    a048:	e2852008 	add	r2, r5, #8
    a04c:	e1530002 	cmp	r3, r2
    a050:	e5901000 	ldr	r1, [r0]
    a054:	20433005 	subcs	r3, r3, r5
    a058:	2080c002 	addcs	ip, r0, r2
    a05c:	22433008 	subcs	r3, r3, #8
    a060:	27801002 	strcs	r1, [r0, r2]
    a064:	35841000 	strcc	r1, [r4]
    a068:	258c3004 	strcs	r3, [ip, #4]
    a06c:	2584c000 	strcs	ip, [r4]
    a070:	e1a04000 	mov	r4, r0
    a074:	25805004 	strcs	r5, [r0, #4]
    a078:	e4846008 	str	r6, [r4], #8
    a07c:	ebfffe47 	bl	99a0 <chMtxUnlock>
    a080:	e1a00004 	mov	r0, r4
    a084:	e8bd8070 	pop	{r4, r5, r6, pc}
    a088:	e3a04000 	mov	r4, #0
    a08c:	eaffffeb 	b	a040 <chHeapAlloc+0x70>
    a090:	0000c908 	andeq	ip, r0, r8, lsl #18
	...

0000a0a0 <chHeapFree>:
    a0a0:	e92d4070 	push	{r4, r5, r6, lr}
    a0a4:	e1a06000 	mov	r6, r0
    a0a8:	e5100008 	ldr	r0, [r0, #-8]
    a0ac:	e2464008 	sub	r4, r6, #8
    a0b0:	e2805004 	add	r5, r0, #4
    a0b4:	e280000c 	add	r0, r0, #12
    a0b8:	ebfffe30 	bl	9980 <chMtxLock>
    a0bc:	e1a03005 	mov	r3, r5
    a0c0:	ea000002 	b	a0d0 <chHeapFree+0x30>
    a0c4:	e1540002 	cmp	r4, r2
    a0c8:	3a00000a 	bcc	a0f8 <chHeapFree+0x58>
    a0cc:	e1a03002 	mov	r3, r2
    a0d0:	e0432005 	sub	r2, r3, r5
    a0d4:	e16f2f12 	clz	r2, r2
    a0d8:	e1a022a2 	lsr	r2, r2, #5
    a0dc:	e1530004 	cmp	r3, r4
    a0e0:	33822001 	orrcc	r2, r2, #1
    a0e4:	e3520000 	cmp	r2, #0
    a0e8:	e5932000 	ldr	r2, [r3]
    a0ec:	0afffff6 	beq	a0cc <chHeapFree+0x2c>
    a0f0:	e3520000 	cmp	r2, #0
    a0f4:	1afffff2 	bne	a0c4 <chHeapFree+0x24>
    a0f8:	e5062008 	str	r2, [r6, #-8]
    a0fc:	e5162004 	ldr	r2, [r6, #-4]
    a100:	e5834000 	str	r4, [r3]
    a104:	e5160008 	ldr	r0, [r6, #-8]
    a108:	e0861002 	add	r1, r6, r2
    a10c:	e1510000 	cmp	r1, r0
    a110:	05911004 	ldreq	r1, [r1, #4]
    a114:	07960002 	ldreq	r0, [r6, r2]
    a118:	0282c008 	addeq	ip, r2, #8
    a11c:	0081200c 	addeq	r2, r1, ip
    a120:	09060005 	stmdbeq	r6, {r0, r2}
    a124:	e5931004 	ldr	r1, [r3, #4]
    a128:	e2812008 	add	r2, r1, #8
    a12c:	e0832002 	add	r2, r3, r2
    a130:	e1540002 	cmp	r4, r2
    a134:	0a000001 	beq	a140 <chHeapFree+0xa0>
    a138:	e8bd4070 	pop	{r4, r5, r6, lr}
    a13c:	eafffe17 	b	99a0 <chMtxUnlock>
    a140:	e9160005 	ldmdb	r6, {r0, r2}
    a144:	e2822008 	add	r2, r2, #8
    a148:	e0821001 	add	r1, r2, r1
    a14c:	e1c300f0 	strd	r0, [r3]
    a150:	e8bd4070 	pop	{r4, r5, r6, lr}
    a154:	eafffe11 	b	99a0 <chMtxUnlock>
	...

0000a160 <halInit>:
    a160:	e92d4010 	push	{r4, lr}
    a164:	eb0000d1 	bl	a4b0 <hal_lld_init>
    a168:	eb0000a4 	bl	a400 <tmInit>
    a16c:	e59f0014 	ldr	r0, [pc, #20]	; a188 <halInit+0x28>
    a170:	eb000116 	bl	a5d0 <_pal_lld_init>
    a174:	eb000005 	bl	a190 <i2cInit>
    a178:	eb000030 	bl	a240 <sdInit>
    a17c:	eb000077 	bl	a360 <spiInit>
    a180:	e8bd4010 	pop	{r4, lr}
    a184:	ea0002cd 	b	acc0 <boardInit>
    a188:	0000bf60 	andeq	fp, r0, r0, ror #30
    a18c:	00000000 	andeq	r0, r0, r0

0000a190 <i2cInit>:
    a190:	ea000236 	b	aa70 <i2c_lld_init>
	...

0000a1a0 <i2cObjectInit>:
    a1a0:	e3a02001 	mov	r2, #1
    a1a4:	e3a03000 	mov	r3, #0
    a1a8:	e5c02000 	strb	r2, [r0]
    a1ac:	e5803004 	str	r3, [r0, #4]
    a1b0:	e2800010 	add	r0, r0, #16
    a1b4:	eafffd81 	b	97c0 <chMtxInit>
	...

0000a1c0 <readt>:
    a1c0:	e280000c 	add	r0, r0, #12
    a1c4:	eafffea5 	b	9c60 <chIQReadTimeout>
	...

0000a1d0 <read>:
    a1d0:	e280000c 	add	r0, r0, #12
    a1d4:	e3e03000 	mvn	r3, #0
    a1d8:	eafffea0 	b	9c60 <chIQReadTimeout>
    a1dc:	00000000 	andeq	r0, r0, r0

0000a1e0 <writet>:
    a1e0:	e2800030 	add	r0, r0, #48	; 0x30
    a1e4:	eaffff1d 	b	9e60 <chOQWriteTimeout>
	...

0000a1f0 <write>:
    a1f0:	e2800030 	add	r0, r0, #48	; 0x30
    a1f4:	e3e03000 	mvn	r3, #0
    a1f8:	eaffff18 	b	9e60 <chOQWriteTimeout>
    a1fc:	00000000 	andeq	r0, r0, r0

0000a200 <gett>:
    a200:	e280000c 	add	r0, r0, #12
    a204:	eafffe75 	b	9be0 <chIQGetTimeout>
	...

0000a210 <get>:
    a210:	e280000c 	add	r0, r0, #12
    a214:	e3e01000 	mvn	r1, #0
    a218:	eafffe70 	b	9be0 <chIQGetTimeout>
    a21c:	00000000 	andeq	r0, r0, r0

0000a220 <putt>:
    a220:	e2800030 	add	r0, r0, #48	; 0x30
    a224:	eafffec9 	b	9d50 <chOQPutTimeout>
	...

0000a230 <put>:
    a230:	e2800030 	add	r0, r0, #48	; 0x30
    a234:	e3e02000 	mvn	r2, #0
    a238:	eafffec4 	b	9d50 <chOQPutTimeout>
    a23c:	00000000 	andeq	r0, r0, r0

0000a240 <sdInit>:
    a240:	ea00017a 	b	a830 <sd_lld_init>
	...

0000a250 <sdObjectInit>:
    a250:	e92d4030 	push	{r4, r5, lr}
    a254:	e3a0c001 	mov	ip, #1
    a258:	e1a04000 	mov	r4, r0
    a25c:	e1a05002 	mov	r5, r2
    a260:	e59f3044 	ldr	r3, [pc, #68]	; a2ac <sdObjectInit+0x5c>
    a264:	e24dd00c 	sub	sp, sp, #12
    a268:	e58d0000 	str	r0, [sp]
    a26c:	e4803004 	str	r3, [r0], #4
    a270:	e5840004 	str	r0, [r4, #4]
    a274:	e1a03001 	mov	r3, r1
    a278:	e5c4c008 	strb	ip, [r4, #8]
    a27c:	e2841054 	add	r1, r4, #84	; 0x54
    a280:	e284000c 	add	r0, r4, #12
    a284:	e3a02010 	mov	r2, #16
    a288:	ebfffe20 	bl	9b10 <chIQInit>
    a28c:	e58d4000 	str	r4, [sp]
    a290:	e1a03005 	mov	r3, r5
    a294:	e2841064 	add	r1, r4, #100	; 0x64
    a298:	e2840030 	add	r0, r4, #48	; 0x30
    a29c:	e3a02010 	mov	r2, #16
    a2a0:	ebfffe9a 	bl	9d10 <chOQInit>
    a2a4:	e28dd00c 	add	sp, sp, #12
    a2a8:	e8bd8030 	pop	{r4, r5, pc}
    a2ac:	0000bf30 	andeq	fp, r0, r0, lsr pc

0000a2b0 <sdStart>:
    a2b0:	e92d4010 	push	{r4, lr}
    a2b4:	e1a04000 	mov	r4, r0
    a2b8:	e321f09f 	msr	CPSR_c, #159	; 0x9f
    a2bc:	eb000163 	bl	a850 <sd_lld_start>
    a2c0:	e3a03002 	mov	r3, #2
    a2c4:	e5c43008 	strb	r3, [r4, #8]
    a2c8:	e321f01f 	msr	CPSR_c, #31
    a2cc:	e8bd8010 	pop	{r4, pc}

0000a2d0 <sdIncomingDataI>:
    a2d0:	e5903014 	ldr	r3, [r0, #20]
    a2d4:	e92d4070 	push	{r4, r5, r6, lr}
    a2d8:	e3530000 	cmp	r3, #0
    a2dc:	e1a04000 	mov	r4, r0
    a2e0:	e1a05001 	mov	r5, r1
    a2e4:	0a000008 	beq	a30c <sdIncomingDataI+0x3c>
    a2e8:	e1a01005 	mov	r1, r5
    a2ec:	e284000c 	add	r0, r4, #12
    a2f0:	ebfffe16 	bl	9b50 <chIQPutI>
    a2f4:	e3500000 	cmp	r0, #0
    a2f8:	a8bd8070 	popge	{r4, r5, r6, pc}
    a2fc:	e2840004 	add	r0, r4, #4
    a300:	e3a01080 	mov	r1, #128	; 0x80
    a304:	e8bd4070 	pop	{r4, r5, r6, lr}
    a308:	eafffde0 	b	9a90 <chEvtBroadcastFlagsI>
    a30c:	e3a01004 	mov	r1, #4
    a310:	e0800001 	add	r0, r0, r1
    a314:	ebfffddd 	bl	9a90 <chEvtBroadcastFlagsI>
    a318:	eafffff2 	b	a2e8 <sdIncomingDataI+0x18>
    a31c:	00000000 	andeq	r0, r0, r0

0000a320 <sdRequestDataI>:
    a320:	e92d4070 	push	{r4, r5, r6, lr}
    a324:	e1a04000 	mov	r4, r0
    a328:	e2800030 	add	r0, r0, #48	; 0x30
    a32c:	ebfffeab 	bl	9de0 <chOQGetI>
    a330:	e2505000 	subs	r5, r0, #0
    a334:	ba000001 	blt	a340 <sdRequestDataI+0x20>
    a338:	e1a00005 	mov	r0, r5
    a33c:	e8bd8070 	pop	{r4, r5, r6, pc}
    a340:	e2840004 	add	r0, r4, #4
    a344:	e3a01008 	mov	r1, #8
    a348:	ebfffdd0 	bl	9a90 <chEvtBroadcastFlagsI>
    a34c:	e1a00005 	mov	r0, r5
    a350:	e8bd8070 	pop	{r4, r5, r6, pc}
	...

0000a360 <spiInit>:
    a360:	ea00022e 	b	ac20 <spi_lld_init>
	...

0000a370 <spiObjectInit>:
    a370:	e3a03000 	mov	r3, #0
    a374:	e3a02001 	mov	r2, #1
    a378:	e5803004 	str	r3, [r0, #4]
    a37c:	e5c02000 	strb	r2, [r0]
    a380:	e5803008 	str	r3, [r0, #8]
    a384:	e280000c 	add	r0, r0, #12
    a388:	eafffd0c 	b	97c0 <chMtxInit>
    a38c:	00000000 	andeq	r0, r0, r0

0000a390 <tm_start>:
    a390:	e59f3008 	ldr	r3, [pc, #8]	; a3a0 <tm_start+0x10>
    a394:	e5933004 	ldr	r3, [r3, #4]
    a398:	e5803008 	str	r3, [r0, #8]
    a39c:	e12fff1e 	bx	lr
    a3a0:	20003000 	andcs	r3, r0, r0
	...

0000a3b0 <tm_stop>:
    a3b0:	e59f303c 	ldr	r3, [pc, #60]	; a3f4 <tm_stop+0x44>
    a3b4:	e59f103c 	ldr	r1, [pc, #60]	; a3f8 <tm_stop+0x48>
    a3b8:	e5902008 	ldr	r2, [r0, #8]
    a3bc:	e5933004 	ldr	r3, [r3, #4]
    a3c0:	e5911000 	ldr	r1, [r1]
    a3c4:	e0433002 	sub	r3, r3, r2
    a3c8:	e590200c 	ldr	r2, [r0, #12]
    a3cc:	e0433001 	sub	r3, r3, r1
    a3d0:	e1530002 	cmp	r3, r2
    a3d4:	e5803008 	str	r3, [r0, #8]
    a3d8:	8a000003 	bhi	a3ec <tm_stop+0x3c>
    a3dc:	e5902010 	ldr	r2, [r0, #16]
    a3e0:	e1530002 	cmp	r3, r2
    a3e4:	35803010 	strcc	r3, [r0, #16]
    a3e8:	e12fff1e 	bx	lr
    a3ec:	e580300c 	str	r3, [r0, #12]
    a3f0:	e12fff1e 	bx	lr
    a3f4:	20003000 	andcs	r3, r0, r0
    a3f8:	0000c924 	andeq	ip, r0, r4, lsr #18
    a3fc:	00000000 	andeq	r0, r0, r0

0000a400 <tmInit>:
    a400:	e3a03000 	mov	r3, #0
    a404:	e3e01000 	mvn	r1, #0
    a408:	e92d4010 	push	{r4, lr}
    a40c:	e59f4040 	ldr	r4, [pc, #64]	; a454 <tmInit+0x54>
    a410:	e24dd018 	sub	sp, sp, #24
    a414:	e59f203c 	ldr	r2, [pc, #60]	; a458 <tmInit+0x58>
    a418:	e58d300c 	str	r3, [sp, #12]
    a41c:	e58d3010 	str	r3, [sp, #16]
    a420:	e5843000 	str	r3, [r4]
    a424:	e58d1014 	str	r1, [sp, #20]
    a428:	e5921004 	ldr	r1, [r2, #4]
    a42c:	e59f3028 	ldr	r3, [pc, #40]	; a45c <tmInit+0x5c>
    a430:	e59f2028 	ldr	r2, [pc, #40]	; a460 <tmInit+0x60>
    a434:	e28d0004 	add	r0, sp, #4
    a438:	e1cd20f4 	strd	r2, [sp, #4]
    a43c:	e58d100c 	str	r1, [sp, #12]
    a440:	ebffffda 	bl	a3b0 <tm_stop>
    a444:	e59d300c 	ldr	r3, [sp, #12]
    a448:	e5843000 	str	r3, [r4]
    a44c:	e28dd018 	add	sp, sp, #24
    a450:	e8bd8010 	pop	{r4, pc}
    a454:	0000c924 	andeq	ip, r0, r4, lsr #18
    a458:	20003000 	andcs	r3, r0, r0
    a45c:	0000a3b0 			; <UNDEFINED> instruction: 0x0000a3b0
    a460:	0000a390 	muleq	r0, r0, r3
	...

0000a470 <IrqHandler>:
    a470:	e92d500f 	push	{r0, r1, r2, r3, ip, lr}
    a474:	ebfffa99 	bl	8ee0 <chSysTimerHandlerI>
    a478:	e3a02000 	mov	r2, #0
    a47c:	e59f301c 	ldr	r3, [pc, #28]	; a4a0 <IrqHandler+0x30>
    a480:	e59f001c 	ldr	r0, [pc, #28]	; a4a4 <IrqHandler+0x34>
    a484:	e583240c 	str	r2, [r3, #1036]	; 0x40c
    a488:	eb0000bc 	bl	a780 <sd_lld_serve_interrupt>
    a48c:	e59f0014 	ldr	r0, [pc, #20]	; a4a8 <IrqHandler+0x38>
    a490:	eb000122 	bl	a920 <i2c_lld_serve_interrupt>
    a494:	e59f0010 	ldr	r0, [pc, #16]	; a4ac <IrqHandler+0x3c>
    a498:	eb00017c 	bl	aa90 <spi_lld_serve_interrupt>
    a49c:	eafff717 	b	8100 <_port_irq_common>
    a4a0:	2000b000 	andcs	fp, r0, r0
    a4a4:	0000cb38 	andeq	ip, r0, r8, lsr fp
    a4a8:	0000cbac 	andeq	ip, r0, ip, lsr #23
    a4ac:	0000cbec 	andeq	ip, r0, ip, ror #23

0000a4b0 <hal_lld_init>:
    a4b0:	e52de004 	push	{lr}		; (str lr, [sp, #-4]!)
    a4b4:	e3a0c0f9 	mov	ip, #249	; 0xf9
    a4b8:	e3a0e83e 	mov	lr, #4063232	; 0x3e0000
    a4bc:	e3a00000 	mov	r0, #0
    a4c0:	e59f302c 	ldr	r3, [pc, #44]	; a4f4 <hal_lld_init+0x44>
    a4c4:	e59f202c 	ldr	r2, [pc, #44]	; a4f8 <hal_lld_init+0x48>
    a4c8:	e59f102c 	ldr	r1, [pc, #44]	; a4fc <hal_lld_init+0x4c>
    a4cc:	e583e408 	str	lr, [r3, #1032]	; 0x408
    a4d0:	e5832400 	str	r2, [r3, #1024]	; 0x400
    a4d4:	e5832418 	str	r2, [r3, #1048]	; 0x418
    a4d8:	e583c41c 	str	ip, [r3, #1052]	; 0x41c
    a4dc:	e583040c 	str	r0, [r3, #1036]	; 0x40c
    a4e0:	e5831408 	str	r1, [r3, #1032]	; 0x408
    a4e4:	e5932218 	ldr	r2, [r3, #536]	; 0x218
    a4e8:	e3822001 	orr	r2, r2, #1
    a4ec:	e5832218 	str	r2, [r3, #536]	; 0x218
    a4f0:	e49df004 	pop	{pc}		; (ldr pc, [sp], #4)
    a4f4:	2000b000 	andcs	fp, r0, r0
    a4f8:	000003e7 	andeq	r0, r0, r7, ror #7
    a4fc:	003e00a2 	eorseq	r0, lr, r2, lsr #1

0000a500 <watchdog_start>:
    a500:	e59f2028 	ldr	r2, [pc, #40]	; a530 <watchdog_start+0x30>
    a504:	e3c004ff 	bic	r0, r0, #-16777216	; 0xff000000
    a508:	e592301c 	ldr	r3, [r2, #28]
    a50c:	e3c0060f 	bic	r0, r0, #15728640	; 0xf00000
    a510:	e3c3345a 	bic	r3, r3, #1509949440	; 0x5a000000
    a514:	e3c33030 	bic	r3, r3, #48	; 0x30
    a518:	e383345a 	orr	r3, r3, #1509949440	; 0x5a000000
    a51c:	e380045a 	orr	r0, r0, #1509949440	; 0x5a000000
    a520:	e3833020 	orr	r3, r3, #32
    a524:	e5820024 	str	r0, [r2, #36]	; 0x24
    a528:	e582301c 	str	r3, [r2, #28]
    a52c:	e12fff1e 	bx	lr
    a530:	20100000 	andscs	r0, r0, r0
	...

0000a540 <set_gpio_in.isra.0>:
    a540:	e92d4070 	push	{r4, r5, r6, lr}
    a544:	e1a06000 	mov	r6, r0
    a548:	e1a05001 	mov	r5, r1
    a54c:	e3a04000 	mov	r4, #0
    a550:	ea000003 	b	a564 <set_gpio_in.isra.0+0x24>
    a554:	e2844001 	add	r4, r4, #1
    a558:	e3540020 	cmp	r4, #32
    a55c:	e1a050a5 	lsr	r5, r5, #1
    a560:	08bd8070 	popeq	{r4, r5, r6, pc}
    a564:	e3150001 	tst	r5, #1
    a568:	0afffff9 	beq	a554 <set_gpio_in.isra.0+0x14>
    a56c:	e5960000 	ldr	r0, [r6]
    a570:	e3a01000 	mov	r1, #0
    a574:	e0840000 	add	r0, r4, r0
    a578:	eb0001ac 	bl	ac30 <bcm2835_gpio_fnsel>
    a57c:	eafffff4 	b	a554 <set_gpio_in.isra.0+0x14>

0000a580 <set_gpio_pud.isra.1>:
    a580:	e92d4070 	push	{r4, r5, r6, lr}
    a584:	e1a05000 	mov	r5, r0
    a588:	e1a06001 	mov	r6, r1
    a58c:	e59f402c 	ldr	r4, [pc, #44]	; a5c0 <set_gpio_pud.isra.1+0x40>
    a590:	e3a00096 	mov	r0, #150	; 0x96
    a594:	e5842094 	str	r2, [r4, #148]	; 0x94
    a598:	eb0001b8 	bl	ac80 <bcm2835_delay>
    a59c:	e5953000 	ldr	r3, [r5]
    a5a0:	e3a00096 	mov	r0, #150	; 0x96
    a5a4:	e5836000 	str	r6, [r3]
    a5a8:	eb0001b4 	bl	ac80 <bcm2835_delay>
    a5ac:	e3a03000 	mov	r3, #0
    a5b0:	e5952000 	ldr	r2, [r5]
    a5b4:	e5843094 	str	r3, [r4, #148]	; 0x94
    a5b8:	e5823000 	str	r3, [r2]
    a5bc:	e8bd8070 	pop	{r4, r5, r6, pc}
    a5c0:	20200000 	eorcs	r0, r0, r0
	...

0000a5d0 <_pal_lld_init>:
    a5d0:	e59f3068 	ldr	r3, [pc, #104]	; a640 <_pal_lld_init+0x70>
    a5d4:	e59f1068 	ldr	r1, [pc, #104]	; a644 <_pal_lld_init+0x74>
    a5d8:	e92d4010 	push	{r4, lr}
    a5dc:	e59fc064 	ldr	ip, [pc, #100]	; a648 <_pal_lld_init+0x78>
    a5e0:	e59fe064 	ldr	lr, [pc, #100]	; a64c <_pal_lld_init+0x7c>
    a5e4:	e59f2064 	ldr	r2, [pc, #100]	; a650 <_pal_lld_init+0x80>
    a5e8:	e2830014 	add	r0, r3, #20
    a5ec:	e5831004 	str	r1, [r3, #4]
    a5f0:	e3e01000 	mvn	r1, #0
    a5f4:	e583e008 	str	lr, [r3, #8]
    a5f8:	e583c00c 	str	ip, [r3, #12]
    a5fc:	e5832010 	str	r2, [r3, #16]
    a600:	ebffffce 	bl	a540 <set_gpio_in.isra.0>
    a604:	e59f3048 	ldr	r3, [pc, #72]	; a654 <_pal_lld_init+0x84>
    a608:	e3a02020 	mov	r2, #32
    a60c:	e1a00003 	mov	r0, r3
    a610:	e59f1040 	ldr	r1, [pc, #64]	; a658 <_pal_lld_init+0x88>
    a614:	e59fe040 	ldr	lr, [pc, #64]	; a65c <_pal_lld_init+0x8c>
    a618:	e5a02014 	str	r2, [r0, #20]!
    a61c:	e59fc03c 	ldr	ip, [pc, #60]	; a660 <_pal_lld_init+0x90>
    a620:	e59f203c 	ldr	r2, [pc, #60]	; a664 <_pal_lld_init+0x94>
    a624:	e5831004 	str	r1, [r3, #4]
    a628:	e583e008 	str	lr, [r3, #8]
    a62c:	e3e01000 	mvn	r1, #0
    a630:	e8bd4010 	pop	{r4, lr}
    a634:	e583c00c 	str	ip, [r3, #12]
    a638:	e5832010 	str	r2, [r3, #16]
    a63c:	eaffffbf 	b	a540 <set_gpio_in.isra.0>
    a640:	0000cb20 	andeq	ip, r0, r0, lsr #22
    a644:	2020001c 	eorcs	r0, r0, ip, lsl r0
    a648:	20200034 	eorcs	r0, r0, r4, lsr r0
    a64c:	20200028 	eorcs	r0, r0, r8, lsr #32
    a650:	20200098 	mlacs	r0, r8, r0, r0
    a654:	0000cb08 	andeq	ip, r0, r8, lsl #22
    a658:	20200020 	eorcs	r0, r0, r0, lsr #32
    a65c:	2020002c 	eorcs	r0, r0, ip, lsr #32
    a660:	20200038 	eorcs	r0, r0, r8, lsr r0
    a664:	2020009c 	mlacs	r0, ip, r0, r0
	...

0000a670 <_pal_lld_setgroupmode>:
    a670:	e3520004 	cmp	r2, #4
    a674:	e92d4070 	push	{r4, r5, r6, lr}
    a678:	e1a06000 	mov	r6, r0
    a67c:	e1a05001 	mov	r5, r1
    a680:	0a000025 	beq	a71c <_pal_lld_setgroupmode+0xac>
    a684:	8a000011 	bhi	a6d0 <_pal_lld_setgroupmode+0x60>
    a688:	e3520002 	cmp	r2, #2
    a68c:	0a000008 	beq	a6b4 <_pal_lld_setgroupmode+0x44>
    a690:	e3520003 	cmp	r2, #3
    a694:	18bd8070 	popne	{r4, r5, r6, pc}
    a698:	e2800014 	add	r0, r0, #20
    a69c:	ebffffa7 	bl	a540 <set_gpio_in.isra.0>
    a6a0:	e1a01005 	mov	r1, r5
    a6a4:	e2860010 	add	r0, r6, #16
    a6a8:	e3a02002 	mov	r2, #2
    a6ac:	e8bd4070 	pop	{r4, r5, r6, lr}
    a6b0:	eaffffb2 	b	a580 <set_gpio_pud.isra.1>
    a6b4:	e2800014 	add	r0, r0, #20
    a6b8:	ebffffa0 	bl	a540 <set_gpio_in.isra.0>
    a6bc:	e1a01005 	mov	r1, r5
    a6c0:	e2860010 	add	r0, r6, #16
    a6c4:	e3a02000 	mov	r2, #0
    a6c8:	e8bd4070 	pop	{r4, r5, r6, lr}
    a6cc:	eaffffab 	b	a580 <set_gpio_pud.isra.1>
    a6d0:	e3520006 	cmp	r2, #6
    a6d4:	38bd8070 	popcc	{r4, r5, r6, pc}
    a6d8:	e3520007 	cmp	r2, #7
    a6dc:	9a000001 	bls	a6e8 <_pal_lld_setgroupmode+0x78>
    a6e0:	e35200ff 	cmp	r2, #255	; 0xff
    a6e4:	18bd8070 	popne	{r4, r5, r6, pc}
    a6e8:	e3a04000 	mov	r4, #0
    a6ec:	ea000003 	b	a700 <_pal_lld_setgroupmode+0x90>
    a6f0:	e2844001 	add	r4, r4, #1
    a6f4:	e3540020 	cmp	r4, #32
    a6f8:	e1a050a5 	lsr	r5, r5, #1
    a6fc:	08bd8070 	popeq	{r4, r5, r6, pc}
    a700:	e3150001 	tst	r5, #1
    a704:	0afffff9 	beq	a6f0 <_pal_lld_setgroupmode+0x80>
    a708:	e5960014 	ldr	r0, [r6, #20]
    a70c:	e3a01001 	mov	r1, #1
    a710:	e0840000 	add	r0, r4, r0
    a714:	eb000145 	bl	ac30 <bcm2835_gpio_fnsel>
    a718:	eafffff4 	b	a6f0 <_pal_lld_setgroupmode+0x80>
    a71c:	e2800014 	add	r0, r0, #20
    a720:	ebffff86 	bl	a540 <set_gpio_in.isra.0>
    a724:	e1a01005 	mov	r1, r5
    a728:	e2860010 	add	r0, r6, #16
    a72c:	e3a02001 	mov	r2, #1
    a730:	e8bd4070 	pop	{r4, r5, r6, lr}
    a734:	eaffff91 	b	a580 <set_gpio_pud.isra.1>
	...

0000a740 <_pal_lld_writeport>:
    a740:	e1e02001 	mvn	r2, r1
    a744:	e590c004 	ldr	ip, [r0, #4]
    a748:	e5903008 	ldr	r3, [r0, #8]
    a74c:	e5801000 	str	r1, [r0]
    a750:	e58c1000 	str	r1, [ip]
    a754:	e5832000 	str	r2, [r3]
    a758:	e12fff1e 	bx	lr
    a75c:	00000000 	andeq	r0, r0, r0

0000a760 <output_notify>:
    a760:	e59f200c 	ldr	r2, [pc, #12]	; a774 <output_notify+0x14>
    a764:	e5923044 	ldr	r3, [r2, #68]	; 0x44
    a768:	e3833002 	orr	r3, r3, #2
    a76c:	e5823044 	str	r3, [r2, #68]	; 0x44
    a770:	e12fff1e 	bx	lr
    a774:	20215000 	eorcs	r5, r1, r0
	...

0000a780 <sd_lld_serve_interrupt>:
    a780:	e59f309c 	ldr	r3, [pc, #156]	; a824 <sd_lld_serve_interrupt+0xa4>
    a784:	e92d4070 	push	{r4, r5, r6, lr}
    a788:	e5932048 	ldr	r2, [r3, #72]	; 0x48
    a78c:	e1a05000 	mov	r5, r0
    a790:	e2022007 	and	r2, r2, #7
    a794:	e3520004 	cmp	r2, #4
    a798:	0a000011 	beq	a7e4 <sd_lld_serve_interrupt+0x64>
    a79c:	e59f4080 	ldr	r4, [pc, #128]	; a824 <sd_lld_serve_interrupt+0xa4>
    a7a0:	e5943048 	ldr	r3, [r4, #72]	; 0x48
    a7a4:	e2033007 	and	r3, r3, #7
    a7a8:	e3530002 	cmp	r3, #2
    a7ac:	18bd8070 	popne	{r4, r5, r6, pc}
    a7b0:	e5943054 	ldr	r3, [r4, #84]	; 0x54
    a7b4:	e3130020 	tst	r3, #32
    a7b8:	0afffffc 	beq	a7b0 <sd_lld_serve_interrupt+0x30>
    a7bc:	e1a00005 	mov	r0, r5
    a7c0:	ebfffed6 	bl	a320 <sdRequestDataI>
    a7c4:	e3500000 	cmp	r0, #0
    a7c8:	a59f2054 	ldrge	r2, [pc, #84]	; a824 <sd_lld_serve_interrupt+0xa4>
    a7cc:	ba000010 	blt	a814 <sd_lld_serve_interrupt+0x94>
    a7d0:	e5923054 	ldr	r3, [r2, #84]	; 0x54
    a7d4:	e3130020 	tst	r3, #32
    a7d8:	0afffffc 	beq	a7d0 <sd_lld_serve_interrupt+0x50>
    a7dc:	e5820040 	str	r0, [r2, #64]	; 0x40
    a7e0:	e8bd8070 	pop	{r4, r5, r6, pc}
    a7e4:	e5932054 	ldr	r2, [r3, #84]	; 0x54
    a7e8:	e3120001 	tst	r2, #1
    a7ec:	0afffffc 	beq	a7e4 <sd_lld_serve_interrupt+0x64>
    a7f0:	e59f402c 	ldr	r4, [pc, #44]	; a824 <sd_lld_serve_interrupt+0xa4>
    a7f4:	e5941040 	ldr	r1, [r4, #64]	; 0x40
    a7f8:	e1a00005 	mov	r0, r5
    a7fc:	e6ef1071 	uxtb	r1, r1
    a800:	ebfffeb2 	bl	a2d0 <sdIncomingDataI>
    a804:	e5943054 	ldr	r3, [r4, #84]	; 0x54
    a808:	e3130001 	tst	r3, #1
    a80c:	1afffff8 	bne	a7f4 <sd_lld_serve_interrupt+0x74>
    a810:	eaffffe1 	b	a79c <sd_lld_serve_interrupt+0x1c>
    a814:	e5943044 	ldr	r3, [r4, #68]	; 0x44
    a818:	e3c33002 	bic	r3, r3, #2
    a81c:	e5843044 	str	r3, [r4, #68]	; 0x44
    a820:	e8bd8070 	pop	{r4, r5, r6, pc}
    a824:	20215000 	eorcs	r5, r1, r0
	...

0000a830 <sd_lld_init>:
    a830:	e59f2008 	ldr	r2, [pc, #8]	; a840 <sd_lld_init+0x10>
    a834:	e3a01000 	mov	r1, #0
    a838:	e59f0004 	ldr	r0, [pc, #4]	; a844 <sd_lld_init+0x14>
    a83c:	eafffe83 	b	a250 <sdObjectInit>
    a840:	0000a760 	andeq	sl, r0, r0, ror #14
    a844:	0000cb38 	andeq	ip, r0, r8, lsr fp
	...

0000a850 <sd_lld_start>:
    a850:	e92d47f0 	push	{r4, r5, r6, r7, r8, r9, sl, lr}
    a854:	e3a05000 	mov	r5, #0
    a858:	e59f30a0 	ldr	r3, [pc, #160]	; a900 <sd_lld_start+0xb0>
    a85c:	e1510005 	cmp	r1, r5
    a860:	01a01003 	moveq	r1, r3
    a864:	e3a02005 	mov	r2, #5
    a868:	e3a030c6 	mov	r3, #198	; 0xc6
    a86c:	e3a09003 	mov	r9, #3
    a870:	e3a08202 	mov	r8, #536870912	; 0x20000000
    a874:	e3a00001 	mov	r0, #1
    a878:	e59f4084 	ldr	r4, [pc, #132]	; a904 <sd_lld_start+0xb4>
    a87c:	e59f7084 	ldr	r7, [pc, #132]	; a908 <sd_lld_start+0xb8>
    a880:	e59f6084 	ldr	r6, [pc, #132]	; a90c <sd_lld_start+0xbc>
    a884:	e587821c 	str	r8, [r7, #540]	; 0x21c
    a888:	e5840004 	str	r0, [r4, #4]
    a88c:	e5845044 	str	r5, [r4, #68]	; 0x44
    a890:	e5845060 	str	r5, [r4, #96]	; 0x60
    a894:	e584904c 	str	r9, [r4, #76]	; 0x4c
    a898:	e5845050 	str	r5, [r4, #80]	; 0x50
    a89c:	e5842044 	str	r2, [r4, #68]	; 0x44
    a8a0:	e5843048 	str	r3, [r4, #72]	; 0x48
    a8a4:	e5911000 	ldr	r1, [r1]
    a8a8:	e59f0060 	ldr	r0, [pc, #96]	; a910 <sd_lld_start+0xc0>
    a8ac:	e1a01911 	lsl	r1, r1, r9
    a8b0:	ebfff642 	bl	81c0 <__udivsi3>
    a8b4:	e2400001 	sub	r0, r0, #1
    a8b8:	e5840068 	str	r0, [r4, #104]	; 0x68
    a8bc:	e3a01002 	mov	r1, #2
    a8c0:	e3a0000e 	mov	r0, #14
    a8c4:	eb0000d9 	bl	ac30 <bcm2835_gpio_fnsel>
    a8c8:	e3a01002 	mov	r1, #2
    a8cc:	e3a0000f 	mov	r0, #15
    a8d0:	eb0000d6 	bl	ac30 <bcm2835_gpio_fnsel>
    a8d4:	e3a00096 	mov	r0, #150	; 0x96
    a8d8:	e5865094 	str	r5, [r6, #148]	; 0x94
    a8dc:	eb0000e7 	bl	ac80 <bcm2835_delay>
    a8e0:	e3a03903 	mov	r3, #49152	; 0xc000
    a8e4:	e3a00096 	mov	r0, #150	; 0x96
    a8e8:	e5863098 	str	r3, [r6, #152]	; 0x98
    a8ec:	eb0000e3 	bl	ac80 <bcm2835_delay>
    a8f0:	e5865098 	str	r5, [r6, #152]	; 0x98
    a8f4:	e5849060 	str	r9, [r4, #96]	; 0x60
    a8f8:	e5878210 	str	r8, [r7, #528]	; 0x210
    a8fc:	e8bd87f0 	pop	{r4, r5, r6, r7, r8, r9, sl, pc}
    a900:	0000bf50 	andeq	fp, r0, r0, asr pc
    a904:	20215000 	eorcs	r5, r1, r0
    a908:	2000b000 	andcs	fp, r0, r0
    a90c:	20200000 	eorcs	r0, r0, r0
    a910:	0ee6b280 	cdpeq	2, 14, cr11, cr6, cr0, {4}
	...

0000a920 <i2c_lld_serve_interrupt>:
    a920:	e590200c 	ldr	r2, [r0, #12]
    a924:	e5921004 	ldr	r1, [r2, #4]
    a928:	e3110c03 	tst	r1, #768	; 0x300
    a92c:	0a000008 	beq	a954 <i2c_lld_serve_interrupt+0x34>
    a930:	e5903020 	ldr	r3, [r0, #32]
    a934:	e3530000 	cmp	r3, #0
    a938:	012fff1e 	bxeq	lr
    a93c:	e3a01000 	mov	r1, #0
    a940:	e3e02001 	mvn	r2, #1
    a944:	e5801020 	str	r1, [r0, #32]
    a948:	e1a00003 	mov	r0, r3
    a94c:	e5832024 	str	r2, [r3, #36]	; 0x24
    a950:	eafff9f6 	b	9130 <chSchReadyI>
    a954:	e3110002 	tst	r1, #2
    a958:	e52de004 	push	{lr}		; (str lr, [sp, #-4]!)
    a95c:	0a00001a 	beq	a9cc <i2c_lld_serve_interrupt+0xac>
    a960:	e3110020 	tst	r1, #32
    a964:	0a00000c 	beq	a99c <i2c_lld_serve_interrupt+0x7c>
    a968:	e590303c 	ldr	r3, [r0, #60]	; 0x3c
    a96c:	e5901038 	ldr	r1, [r0, #56]	; 0x38
    a970:	e1510003 	cmp	r1, r3
    a974:	9a000008 	bls	a99c <i2c_lld_serve_interrupt+0x7c>
    a978:	e592c010 	ldr	ip, [r2, #16]
    a97c:	e5901034 	ldr	r1, [r0, #52]	; 0x34
    a980:	e283e001 	add	lr, r3, #1
    a984:	e580e03c 	str	lr, [r0, #60]	; 0x3c
    a988:	e7c1c003 	strb	ip, [r1, r3]
    a98c:	e590303c 	ldr	r3, [r0, #60]	; 0x3c
    a990:	e5901038 	ldr	r1, [r0, #56]	; 0x38
    a994:	e1530001 	cmp	r3, r1
    a998:	3afffff6 	bcc	a978 <i2c_lld_serve_interrupt+0x58>
    a99c:	e3a01000 	mov	r1, #0
    a9a0:	e5903020 	ldr	r3, [r0, #32]
    a9a4:	e59fc0bc 	ldr	ip, [pc, #188]	; aa68 <i2c_lld_serve_interrupt+0x148>
    a9a8:	e1530001 	cmp	r3, r1
    a9ac:	e5821000 	str	r1, [r2]
    a9b0:	e582c004 	str	ip, [r2, #4]
    a9b4:	049df004 	popeq	{pc}		; (ldreq pc, [sp], #4)
    a9b8:	e5801020 	str	r1, [r0, #32]
    a9bc:	e49de004 	pop	{lr}		; (ldr lr, [sp], #4)
    a9c0:	e1a00003 	mov	r0, r3
    a9c4:	e5831024 	str	r1, [r3, #36]	; 0x24
    a9c8:	eafff9d8 	b	9130 <chSchReadyI>
    a9cc:	e3110004 	tst	r1, #4
    a9d0:	0a000012 	beq	aa20 <i2c_lld_serve_interrupt+0x100>
    a9d4:	e5903030 	ldr	r3, [r0, #48]	; 0x30
    a9d8:	e590c02c 	ldr	ip, [r0, #44]	; 0x2c
    a9dc:	e153000c 	cmp	r3, ip
    a9e0:	249df004 	popcs	{pc}		; (ldrcs pc, [sp], #4)
    a9e4:	e3110010 	tst	r1, #16
    a9e8:	049df004 	popeq	{pc}		; (ldreq pc, [sp], #4)
    a9ec:	e590e028 	ldr	lr, [r0, #40]	; 0x28
    a9f0:	e2433001 	sub	r3, r3, #1
    a9f4:	e24cc001 	sub	ip, ip, #1
    a9f8:	e08e3003 	add	r3, lr, r3
    a9fc:	e08ec00c 	add	ip, lr, ip
    aa00:	e26ee002 	rsb	lr, lr, #2
    aa04:	e08e1003 	add	r1, lr, r3
    aa08:	e5801030 	str	r1, [r0, #48]	; 0x30
    aa0c:	e5f31001 	ldrb	r1, [r3, #1]!
    aa10:	e153000c 	cmp	r3, ip
    aa14:	e5821010 	str	r1, [r2, #16]
    aa18:	1afffff9 	bne	aa04 <i2c_lld_serve_interrupt+0xe4>
    aa1c:	e49df004 	pop	{pc}		; (ldr pc, [sp], #4)
    aa20:	e3110008 	tst	r1, #8
    aa24:	049df004 	popeq	{pc}		; (ldreq pc, [sp], #4)
    aa28:	e590303c 	ldr	r3, [r0, #60]	; 0x3c
    aa2c:	e590c038 	ldr	ip, [r0, #56]	; 0x38
    aa30:	e15c0003 	cmp	ip, r3
    aa34:	949df004 	popls	{pc}		; (ldrls pc, [sp], #4)
    aa38:	e3110020 	tst	r1, #32
    aa3c:	049df004 	popeq	{pc}		; (ldreq pc, [sp], #4)
    aa40:	e592c010 	ldr	ip, [r2, #16]
    aa44:	e5901034 	ldr	r1, [r0, #52]	; 0x34
    aa48:	e283e001 	add	lr, r3, #1
    aa4c:	e580e03c 	str	lr, [r0, #60]	; 0x3c
    aa50:	e7c1c003 	strb	ip, [r1, r3]
    aa54:	e590303c 	ldr	r3, [r0, #60]	; 0x3c
    aa58:	e5901038 	ldr	r1, [r0, #56]	; 0x38
    aa5c:	e1530001 	cmp	r3, r1
    aa60:	3afffff6 	bcc	aa40 <i2c_lld_serve_interrupt+0x120>
    aa64:	e49df004 	pop	{pc}		; (ldr pc, [sp], #4)
    aa68:	00000302 	andeq	r0, r0, r2, lsl #6
    aa6c:	00000000 	andeq	r0, r0, r0

0000aa70 <i2c_lld_init>:
    aa70:	e59f300c 	ldr	r3, [pc, #12]	; aa84 <i2c_lld_init+0x14>
    aa74:	e59f200c 	ldr	r2, [pc, #12]	; aa88 <i2c_lld_init+0x18>
    aa78:	e1a00003 	mov	r0, r3
    aa7c:	e583200c 	str	r2, [r3, #12]
    aa80:	eafffdc6 	b	a1a0 <i2cObjectInit>
    aa84:	0000cbac 	andeq	ip, r0, ip, lsr #23
    aa88:	20205000 	eorcs	r5, r0, r0
    aa8c:	00000000 	andeq	r0, r0, r0

0000aa90 <spi_lld_serve_interrupt>:
    aa90:	e59f3174 	ldr	r3, [pc, #372]	; ac0c <spi_lld_serve_interrupt+0x17c>
    aa94:	e5933208 	ldr	r3, [r3, #520]	; 0x208
    aa98:	e3130501 	tst	r3, #4194304	; 0x400000
    aa9c:	012fff1e 	bxeq	lr
    aaa0:	e59f3168 	ldr	r3, [pc, #360]	; ac10 <spi_lld_serve_interrupt+0x180>
    aaa4:	e92d4010 	push	{r4, lr}
    aaa8:	e5932000 	ldr	r2, [r3]
    aaac:	e1a04000 	mov	r4, r0
    aab0:	e3120801 	tst	r2, #65536	; 0x10000
    aab4:	0a000018 	beq	ab1c <spi_lld_serve_interrupt+0x8c>
    aab8:	e5902024 	ldr	r2, [r0, #36]	; 0x24
    aabc:	e3520000 	cmp	r2, #0
    aac0:	0a000025 	beq	ab5c <spi_lld_serve_interrupt+0xcc>
    aac4:	e5900004 	ldr	r0, [r0, #4]
    aac8:	e5941020 	ldr	r1, [r4, #32]
    aacc:	e5d00004 	ldrb	r0, [r0, #4]
    aad0:	e3500000 	cmp	r0, #0
    aad4:	e5930000 	ldr	r0, [r3]
    aad8:	0a000037 	beq	abbc <spi_lld_serve_interrupt+0x12c>
    aadc:	e3100701 	tst	r0, #262144	; 0x40000
    aae0:	0a00000d 	beq	ab1c <spi_lld_serve_interrupt+0x8c>
    aae4:	e1a00001 	mov	r0, r1
    aae8:	ea000001 	b	aaf4 <spi_lld_serve_interrupt+0x64>
    aaec:	e3520000 	cmp	r2, #0
    aaf0:	0a000008 	beq	ab18 <spi_lld_serve_interrupt+0x88>
    aaf4:	e3510000 	cmp	r1, #0
    aaf8:	01a0c001 	moveq	ip, r1
    aafc:	11d0c0b0 	ldrhne	ip, [r0]
    ab00:	12800002 	addne	r0, r0, #2
    ab04:	e583c004 	str	ip, [r3, #4]
    ab08:	e593c000 	ldr	ip, [r3]
    ab0c:	e2422002 	sub	r2, r2, #2
    ab10:	e31c0701 	tst	ip, #262144	; 0x40000
    ab14:	1afffff4 	bne	aaec <spi_lld_serve_interrupt+0x5c>
    ab18:	e5842024 	str	r2, [r4, #36]	; 0x24
    ab1c:	e59f30ec 	ldr	r3, [pc, #236]	; ac10 <spi_lld_serve_interrupt+0x180>
    ab20:	e5932000 	ldr	r2, [r3]
    ab24:	e3120702 	tst	r2, #524288	; 0x80000
    ab28:	08bd8010 	popeq	{r4, pc}
    ab2c:	e5932000 	ldr	r2, [r3]
    ab30:	e3120802 	tst	r2, #131072	; 0x20000
    ab34:	08bd8010 	popeq	{r4, pc}
    ab38:	e594201c 	ldr	r2, [r4, #28]
    ab3c:	e5931004 	ldr	r1, [r3, #4]
    ab40:	e3520000 	cmp	r2, #0
    ab44:	15c21000 	strbne	r1, [r2]
    ab48:	eafffff7 	b	ab2c <spi_lld_serve_interrupt+0x9c>
    ab4c:	e594201c 	ldr	r2, [r4, #28]
    ab50:	e5931004 	ldr	r1, [r3, #4]
    ab54:	e3520000 	cmp	r2, #0
    ab58:	15c21000 	strbne	r1, [r2]
    ab5c:	e5932000 	ldr	r2, [r3]
    ab60:	e3120802 	tst	r2, #131072	; 0x20000
    ab64:	1afffff8 	bne	ab4c <spi_lld_serve_interrupt+0xbc>
    ab68:	e5941004 	ldr	r1, [r4, #4]
    ab6c:	e5932000 	ldr	r2, [r3]
    ab70:	e5911000 	ldr	r1, [r1]
    ab74:	e3c22d1a 	bic	r2, r2, #1664	; 0x680
    ab78:	e3510000 	cmp	r1, #0
    ab7c:	e5832000 	str	r2, [r3]
    ab80:	0a00001e 	beq	ac00 <spi_lld_serve_interrupt+0x170>
    ab84:	e3a03004 	mov	r3, #4
    ab88:	e1a00004 	mov	r0, r4
    ab8c:	e5c43000 	strb	r3, [r4]
    ab90:	e12fff31 	blx	r1
    ab94:	e5d43000 	ldrb	r3, [r4]
    ab98:	e3530004 	cmp	r3, #4
    ab9c:	0a000017 	beq	ac00 <spi_lld_serve_interrupt+0x170>
    aba0:	e5940008 	ldr	r0, [r4, #8]
    aba4:	e3500000 	cmp	r0, #0
    aba8:	0affffdb 	beq	ab1c <spi_lld_serve_interrupt+0x8c>
    abac:	e3a03000 	mov	r3, #0
    abb0:	e5843008 	str	r3, [r4, #8]
    abb4:	ebfff95d 	bl	9130 <chSchReadyI>
    abb8:	eaffffd7 	b	ab1c <spi_lld_serve_interrupt+0x8c>
    abbc:	e3100701 	tst	r0, #262144	; 0x40000
    abc0:	0affffd5 	beq	ab1c <spi_lld_serve_interrupt+0x8c>
    abc4:	e1a00001 	mov	r0, r1
    abc8:	ea000001 	b	abd4 <spi_lld_serve_interrupt+0x144>
    abcc:	e3520000 	cmp	r2, #0
    abd0:	0affffd1 	beq	ab1c <spi_lld_serve_interrupt+0x8c>
    abd4:	e3510000 	cmp	r1, #0
    abd8:	01a0c001 	moveq	ip, r1
    abdc:	15d0c000 	ldrbne	ip, [r0]
    abe0:	e2422001 	sub	r2, r2, #1
    abe4:	e583c004 	str	ip, [r3, #4]
    abe8:	e593c000 	ldr	ip, [r3]
    abec:	12800001 	addne	r0, r0, #1
    abf0:	e31c0701 	tst	ip, #262144	; 0x40000
    abf4:	e5842024 	str	r2, [r4, #36]	; 0x24
    abf8:	1afffff3 	bne	abcc <spi_lld_serve_interrupt+0x13c>
    abfc:	eaffffc6 	b	ab1c <spi_lld_serve_interrupt+0x8c>
    ac00:	e3a03002 	mov	r3, #2
    ac04:	e5c43000 	strb	r3, [r4]
    ac08:	eaffffe4 	b	aba0 <spi_lld_serve_interrupt+0x110>
    ac0c:	2000b000 	andcs	fp, r0, r0
    ac10:	20204000 	eorcs	r4, r0, r0
	...

0000ac20 <spi_lld_init>:
    ac20:	e59f0000 	ldr	r0, [pc]	; ac28 <spi_lld_init+0x8>
    ac24:	eafffdd1 	b	a370 <spiObjectInit>
    ac28:	0000cbec 	andeq	ip, r0, ip, ror #23
    ac2c:	00000000 	andeq	r0, r0, r0

0000ac30 <bcm2835_gpio_fnsel>:
    ac30:	e92d4030 	push	{r4, r5, lr}
    ac34:	e3a0e007 	mov	lr, #7
    ac38:	e59f4038 	ldr	r4, [pc, #56]	; ac78 <bcm2835_gpio_fnsel+0x48>
    ac3c:	e0854490 	umull	r4, r5, r0, r4
    ac40:	e1a0c1a5 	lsr	ip, r5, #3
    ac44:	e1a0210c 	lsl	r2, ip, #2
    ac48:	e2823202 	add	r3, r2, #536870912	; 0x20000000
    ac4c:	e2833602 	add	r3, r3, #2097152	; 0x200000
    ac50:	e082200c 	add	r2, r2, ip
    ac54:	e0400082 	sub	r0, r0, r2, lsl #1
    ac58:	e5932000 	ldr	r2, [r3]
    ac5c:	e0800080 	add	r0, r0, r0, lsl #1
    ac60:	e1c2201e 	bic	r2, r2, lr, lsl r0
    ac64:	e5832000 	str	r2, [r3]
    ac68:	e5932000 	ldr	r2, [r3]
    ac6c:	e1821011 	orr	r1, r2, r1, lsl r0
    ac70:	e5831000 	str	r1, [r3]
    ac74:	e8bd8030 	pop	{r4, r5, pc}
    ac78:	cccccccd 	stclgt	12, cr12, [ip], {205}	; 0xcd
    ac7c:	00000000 	andeq	r0, r0, r0

0000ac80 <bcm2835_delay>:
    ac80:	e3a03000 	mov	r3, #0
    ac84:	e24dd008 	sub	sp, sp, #8
    ac88:	e58d3004 	str	r3, [sp, #4]
    ac8c:	e58d3004 	str	r3, [sp, #4]
    ac90:	e59d3004 	ldr	r3, [sp, #4]
    ac94:	e1500003 	cmp	r0, r3
    ac98:	9a000005 	bls	acb4 <bcm2835_delay+0x34>
    ac9c:	e59d3004 	ldr	r3, [sp, #4]
    aca0:	e2833001 	add	r3, r3, #1
    aca4:	e58d3004 	str	r3, [sp, #4]
    aca8:	e59d3004 	ldr	r3, [sp, #4]
    acac:	e1530000 	cmp	r3, r0
    acb0:	3afffff9 	bcc	ac9c <bcm2835_delay+0x1c>
    acb4:	e28dd008 	add	sp, sp, #8
    acb8:	e12fff1e 	bx	lr
    acbc:	00000000 	andeq	r0, r0, r0

0000acc0 <boardInit>:
    acc0:	e12fff1e 	bx	lr
	...

0000acd0 <cmd_systime>:
    acd0:	e3510000 	cmp	r1, #0
    acd4:	da000002 	ble	ace4 <cmd_systime+0x14>
    acd8:	e59f2014 	ldr	r2, [pc, #20]	; acf4 <cmd_systime+0x24>
    acdc:	e59f1014 	ldr	r1, [pc, #20]	; acf8 <cmd_systime+0x28>
    ace0:	ea00016e 	b	b2a0 <chprintf>
    ace4:	e59f3010 	ldr	r3, [pc, #16]	; acfc <cmd_systime+0x2c>
    ace8:	e59f1010 	ldr	r1, [pc, #16]	; ad00 <cmd_systime+0x30>
    acec:	e593200c 	ldr	r2, [r3, #12]
    acf0:	ea00016a 	b	b2a0 <chprintf>
    acf4:	0000c0a0 	andeq	ip, r0, r0, lsr #1
    acf8:	0000c0a8 	andeq	ip, r0, r8, lsr #1
    acfc:	0000cadc 	ldrdeq	ip, [r0], -ip	; <UNPREDICTABLE>
    ad00:	0000c0b4 	strheq	ip, [r0], -r4
	...

0000ad10 <cmd_info>:
    ad10:	e3510000 	cmp	r1, #0
    ad14:	da000002 	ble	ad24 <cmd_info+0x14>
    ad18:	e59f2090 	ldr	r2, [pc, #144]	; adb0 <cmd_info+0xa0>
    ad1c:	e59f1090 	ldr	r1, [pc, #144]	; adb4 <cmd_info+0xa4>
    ad20:	ea00015e 	b	b2a0 <chprintf>
    ad24:	e92d4010 	push	{r4, lr}
    ad28:	e1a04000 	mov	r4, r0
    ad2c:	e24dd008 	sub	sp, sp, #8
    ad30:	e59f2080 	ldr	r2, [pc, #128]	; adb8 <cmd_info+0xa8>
    ad34:	e59f1080 	ldr	r1, [pc, #128]	; adbc <cmd_info+0xac>
    ad38:	eb000158 	bl	b2a0 <chprintf>
    ad3c:	e1a00004 	mov	r0, r4
    ad40:	e59f2078 	ldr	r2, [pc, #120]	; adc0 <cmd_info+0xb0>
    ad44:	e59f1078 	ldr	r1, [pc, #120]	; adc4 <cmd_info+0xb4>
    ad48:	eb000154 	bl	b2a0 <chprintf>
    ad4c:	e1a00004 	mov	r0, r4
    ad50:	e59f2070 	ldr	r2, [pc, #112]	; adc8 <cmd_info+0xb8>
    ad54:	e59f1070 	ldr	r1, [pc, #112]	; adcc <cmd_info+0xbc>
    ad58:	eb000150 	bl	b2a0 <chprintf>
    ad5c:	e1a00004 	mov	r0, r4
    ad60:	e59f2068 	ldr	r2, [pc, #104]	; add0 <cmd_info+0xc0>
    ad64:	e59f1068 	ldr	r1, [pc, #104]	; add4 <cmd_info+0xc4>
    ad68:	eb00014c 	bl	b2a0 <chprintf>
    ad6c:	e1a00004 	mov	r0, r4
    ad70:	e59f2060 	ldr	r2, [pc, #96]	; add8 <cmd_info+0xc8>
    ad74:	e59f1060 	ldr	r1, [pc, #96]	; addc <cmd_info+0xcc>
    ad78:	eb000148 	bl	b2a0 <chprintf>
    ad7c:	e1a00004 	mov	r0, r4
    ad80:	e59f2058 	ldr	r2, [pc, #88]	; ade0 <cmd_info+0xd0>
    ad84:	e59f1058 	ldr	r1, [pc, #88]	; ade4 <cmd_info+0xd4>
    ad88:	eb000144 	bl	b2a0 <chprintf>
    ad8c:	e59f3054 	ldr	r3, [pc, #84]	; ade8 <cmd_info+0xd8>
    ad90:	e1a00004 	mov	r0, r4
    ad94:	e58d3000 	str	r3, [sp]
    ad98:	e59f204c 	ldr	r2, [pc, #76]	; adec <cmd_info+0xdc>
    ad9c:	e59f304c 	ldr	r3, [pc, #76]	; adf0 <cmd_info+0xe0>
    ada0:	e59f104c 	ldr	r1, [pc, #76]	; adf4 <cmd_info+0xe4>
    ada4:	eb00013d 	bl	b2a0 <chprintf>
    ada8:	e28dd008 	add	sp, sp, #8
    adac:	e8bd8010 	pop	{r4, pc}
    adb0:	0000bf60 	andeq	fp, r0, r0, ror #30
    adb4:	0000c0a8 	andeq	ip, r0, r8, lsr #1
    adb8:	0000bf68 	andeq	fp, r0, r8, ror #30
    adbc:	0000bf78 	andeq	fp, r0, r8, ror pc
    adc0:	0000bf8c 	andeq	fp, r0, ip, lsl #31
    adc4:	0000bfd4 	ldrdeq	fp, [r0], -r4
    adc8:	0000bfe8 	andeq	fp, r0, r8, ror #31
    adcc:	0000bff0 	strdeq	fp, [r0], -r0
    add0:	0000c004 	andeq	ip, r0, r4
    add4:	0000c014 	andeq	ip, r0, r4, lsl r0
    add8:	0000c028 	andeq	ip, r0, r8, lsr #32
    addc:	0000c038 	andeq	ip, r0, r8, lsr r0
    ade0:	0000c04c 	andeq	ip, r0, ip, asr #32
    ade4:	0000c054 	andeq	ip, r0, r4, asr r0
    ade8:	0000c090 	muleq	r0, r0, r0
    adec:	0000c06c 	andeq	ip, r0, ip, rrx
    adf0:	0000c068 	andeq	ip, r0, r8, rrx
    adf4:	0000c078 	andeq	ip, r0, r8, ror r0
	...

0000ae00 <_strtok.constprop.2>:
    ae00:	e92d4070 	push	{r4, r5, r6, lr}
    ae04:	e2504000 	subs	r4, r0, #0
    ae08:	e1a05001 	mov	r5, r1
    ae0c:	15814000 	strne	r4, [r1]
    ae10:	0a000011 	beq	ae5c <_strtok.constprop.2+0x5c>
    ae14:	e59f1058 	ldr	r1, [pc, #88]	; ae74 <_strtok.constprop.2+0x74>
    ae18:	e1a00004 	mov	r0, r4
    ae1c:	eb0003eb 	bl	bdd0 <strspn>
    ae20:	e0844000 	add	r4, r4, r0
    ae24:	e1a00004 	mov	r0, r4
    ae28:	e3a01020 	mov	r1, #32
    ae2c:	eb000383 	bl	bc40 <strchr>
    ae30:	e3500000 	cmp	r0, #0
    ae34:	13a03000 	movne	r3, #0
    ae38:	12802001 	addne	r2, r0, #1
    ae3c:	15852000 	strne	r2, [r5]
    ae40:	05850000 	streq	r0, [r5]
    ae44:	15c03000 	strbne	r3, [r0]
    ae48:	e5d43000 	ldrb	r3, [r4]
    ae4c:	e3530000 	cmp	r3, #0
    ae50:	0a000004 	beq	ae68 <_strtok.constprop.2+0x68>
    ae54:	e1a00004 	mov	r0, r4
    ae58:	e8bd8070 	pop	{r4, r5, r6, pc}
    ae5c:	e5914000 	ldr	r4, [r1]
    ae60:	e3540000 	cmp	r4, #0
    ae64:	1affffea 	bne	ae14 <_strtok.constprop.2+0x14>
    ae68:	e3a04000 	mov	r4, #0
    ae6c:	e1a00004 	mov	r0, r4
    ae70:	e8bd8070 	pop	{r4, r5, r6, pc}
    ae74:	0000bef0 	strdeq	fp, [r0], -r0
	...

0000ae80 <shellInit>:
    ae80:	e59f3004 	ldr	r3, [pc, #4]	; ae8c <shellInit+0xc>
    ae84:	e5833000 	str	r3, [r3]
    ae88:	e12fff1e 	bx	lr
    ae8c:	0000cc14 	andeq	ip, r0, r4, lsl ip

0000ae90 <shellCreate>:
    ae90:	e52de004 	push	{lr}		; (str lr, [sp, #-4]!)
    ae94:	e24dd00c 	sub	sp, sp, #12
    ae98:	e58d0000 	str	r0, [sp]
    ae9c:	e59f300c 	ldr	r3, [pc, #12]	; aeb0 <shellCreate+0x20>
    aea0:	e3a00000 	mov	r0, #0
    aea4:	ebfffa2d 	bl	9760 <chThdCreateFromHeap>
    aea8:	e28dd00c 	add	sp, sp, #12
    aeac:	e49df004 	pop	{pc}		; (ldr pc, [sp], #4)
    aeb0:	0000afe0 	andeq	sl, r0, r0, ror #31
	...

0000aec0 <shellGetLine>:
    aec0:	e92d40f0 	push	{r4, r5, r6, r7, lr}
    aec4:	e1a07001 	mov	r7, r1
    aec8:	e1a04000 	mov	r4, r0
    aecc:	e1a05001 	mov	r5, r1
    aed0:	e2422001 	sub	r2, r2, #1
    aed4:	e5903000 	ldr	r3, [r0]
    aed8:	e24dd00c 	sub	sp, sp, #12
    aedc:	e0816002 	add	r6, r1, r2
    aee0:	e5933004 	ldr	r3, [r3, #4]
    aee4:	e3a02001 	mov	r2, #1
    aee8:	e28d1007 	add	r1, sp, #7
    aeec:	e1a00004 	mov	r0, r4
    aef0:	e12fff33 	blx	r3
    aef4:	e3500000 	cmp	r0, #0
    aef8:	0a000026 	beq	af98 <shellGetLine+0xd8>
    aefc:	e5dd1007 	ldrb	r1, [sp, #7]
    af00:	e3510004 	cmp	r1, #4
    af04:	0a000026 	beq	afa4 <shellGetLine+0xe4>
    af08:	e3510008 	cmp	r1, #8
    af0c:	0a00000e 	beq	af4c <shellGetLine+0x8c>
    af10:	e351000d 	cmp	r1, #13
    af14:	0a000028 	beq	afbc <shellGetLine+0xfc>
    af18:	e351001f 	cmp	r1, #31
    af1c:	e5943000 	ldr	r3, [r4]
    af20:	9affffee 	bls	aee0 <shellGetLine+0x20>
    af24:	e1550006 	cmp	r5, r6
    af28:	2affffec 	bcs	aee0 <shellGetLine+0x20>
    af2c:	e5933008 	ldr	r3, [r3, #8]
    af30:	e1a00004 	mov	r0, r4
    af34:	e12fff33 	blx	r3
    af38:	e5dd3007 	ldrb	r3, [sp, #7]
    af3c:	e2855001 	add	r5, r5, #1
    af40:	e5453001 	strb	r3, [r5, #-1]
    af44:	e5943000 	ldr	r3, [r4]
    af48:	eaffffe4 	b	aee0 <shellGetLine+0x20>
    af4c:	e1550007 	cmp	r5, r7
    af50:	e5943000 	ldr	r3, [r4]
    af54:	0affffe1 	beq	aee0 <shellGetLine+0x20>
    af58:	e5933008 	ldr	r3, [r3, #8]
    af5c:	e1a00004 	mov	r0, r4
    af60:	e12fff33 	blx	r3
    af64:	e5943000 	ldr	r3, [r4]
    af68:	e3a01020 	mov	r1, #32
    af6c:	e5933008 	ldr	r3, [r3, #8]
    af70:	e1a00004 	mov	r0, r4
    af74:	e12fff33 	blx	r3
    af78:	e5943000 	ldr	r3, [r4]
    af7c:	e5dd1007 	ldrb	r1, [sp, #7]
    af80:	e5933008 	ldr	r3, [r3, #8]
    af84:	e1a00004 	mov	r0, r4
    af88:	e12fff33 	blx	r3
    af8c:	e2455001 	sub	r5, r5, #1
    af90:	e5943000 	ldr	r3, [r4]
    af94:	eaffffd1 	b	aee0 <shellGetLine+0x20>
    af98:	e3a00001 	mov	r0, #1
    af9c:	e28dd00c 	add	sp, sp, #12
    afa0:	e8bd80f0 	pop	{r4, r5, r6, r7, pc}
    afa4:	e1a00004 	mov	r0, r4
    afa8:	e59f1028 	ldr	r1, [pc, #40]	; afd8 <shellGetLine+0x118>
    afac:	eb0000bb 	bl	b2a0 <chprintf>
    afb0:	e3a00001 	mov	r0, #1
    afb4:	e28dd00c 	add	sp, sp, #12
    afb8:	e8bd80f0 	pop	{r4, r5, r6, r7, pc}
    afbc:	e1a00004 	mov	r0, r4
    afc0:	e59f1014 	ldr	r1, [pc, #20]	; afdc <shellGetLine+0x11c>
    afc4:	eb0000b5 	bl	b2a0 <chprintf>
    afc8:	e3a00000 	mov	r0, #0
    afcc:	e5c50000 	strb	r0, [r5]
    afd0:	e28dd00c 	add	sp, sp, #12
    afd4:	e8bd80f0 	pop	{r4, r5, r6, r7, pc}
    afd8:	0000c0c0 	andeq	ip, r0, r0, asr #1
    afdc:	0000bf88 	andeq	fp, r0, r8, lsl #31

0000afe0 <shell_thread>:
    afe0:	e92d4ff0 	push	{r4, r5, r6, r7, r8, r9, sl, fp, lr}
    afe4:	e59f3270 	ldr	r3, [pc, #624]	; b25c <shell_thread+0x27c>
    afe8:	e5905000 	ldr	r5, [r0]
    afec:	e5933018 	ldr	r3, [r3, #24]
    aff0:	e59f2268 	ldr	r2, [pc, #616]	; b260 <shell_thread+0x280>
    aff4:	e590a004 	ldr	sl, [r0, #4]
    aff8:	e24dd05c 	sub	sp, sp, #92	; 0x5c
    affc:	e1a00005 	mov	r0, r5
    b000:	e5832018 	str	r2, [r3, #24]
    b004:	e59f1258 	ldr	r1, [pc, #600]	; b264 <shell_thread+0x284>
    b008:	eb0000a4 	bl	b2a0 <chprintf>
    b00c:	e59f7254 	ldr	r7, [pc, #596]	; b268 <shell_thread+0x288>
    b010:	e59f8254 	ldr	r8, [pc, #596]	; b26c <shell_thread+0x28c>
    b014:	e59f9254 	ldr	r9, [pc, #596]	; b270 <shell_thread+0x290>
    b018:	e1a01007 	mov	r1, r7
    b01c:	e1a00005 	mov	r0, r5
    b020:	eb00009e 	bl	b2a0 <chprintf>
    b024:	e3a02040 	mov	r2, #64	; 0x40
    b028:	e28d1018 	add	r1, sp, #24
    b02c:	e1a00005 	mov	r0, r5
    b030:	ebffffa2 	bl	aec0 <shellGetLine>
    b034:	e2504000 	subs	r4, r0, #0
    b038:	1a000034 	bne	b110 <shell_thread+0x130>
    b03c:	e1a0100d 	mov	r1, sp
    b040:	e28d0018 	add	r0, sp, #24
    b044:	ebffff6d 	bl	ae00 <_strtok.constprop.2>
    b048:	e1a0b000 	mov	fp, r0
    b04c:	e28d6004 	add	r6, sp, #4
    b050:	e1a0100d 	mov	r1, sp
    b054:	e3a00000 	mov	r0, #0
    b058:	ebffff68 	bl	ae00 <_strtok.constprop.2>
    b05c:	e3500000 	cmp	r0, #0
    b060:	0a000009 	beq	b08c <shell_thread+0xac>
    b064:	e3540004 	cmp	r4, #4
    b068:	17860104 	strne	r0, [r6, r4, lsl #2]
    b06c:	12844001 	addne	r4, r4, #1
    b070:	1afffff6 	bne	b050 <shell_thread+0x70>
    b074:	e59f11f8 	ldr	r1, [pc, #504]	; b274 <shell_thread+0x294>
    b078:	e1a00005 	mov	r0, r5
    b07c:	eb000087 	bl	b2a0 <chprintf>
    b080:	e3a03000 	mov	r3, #0
    b084:	e58d3014 	str	r3, [sp, #20]
    b088:	eaffffe2 	b	b018 <shell_thread+0x38>
    b08c:	e28d3058 	add	r3, sp, #88	; 0x58
    b090:	e0833104 	add	r3, r3, r4, lsl #2
    b094:	e35b0000 	cmp	fp, #0
    b098:	e5030054 	str	r0, [r3, #-84]	; 0xffffffac
    b09c:	0affffdd 	beq	b018 <shell_thread+0x38>
    b0a0:	e1a01008 	mov	r1, r8
    b0a4:	e1a0000b 	mov	r0, fp
    b0a8:	eb0002c8 	bl	bbd0 <strcasecmp>
    b0ac:	e3500000 	cmp	r0, #0
    b0b0:	1a00000a 	bne	b0e0 <shell_thread+0x100>
    b0b4:	e3540000 	cmp	r4, #0
    b0b8:	1a000018 	bne	b120 <shell_thread+0x140>
    b0bc:	e321f09f 	msr	CPSR_c, #159	; 0x9f
    b0c0:	e3a01000 	mov	r1, #0
    b0c4:	e59f01ac 	ldr	r0, [pc, #428]	; b278 <shell_thread+0x298>
    b0c8:	ebfffa70 	bl	9a90 <chEvtBroadcastFlagsI>
    b0cc:	e3a00000 	mov	r0, #0
    b0d0:	ebfff956 	bl	9630 <chThdExitS>
    b0d4:	e3a00000 	mov	r0, #0
    b0d8:	e28dd05c 	add	sp, sp, #92	; 0x5c
    b0dc:	e8bd8ff0 	pop	{r4, r5, r6, r7, r8, r9, sl, fp, pc}
    b0e0:	e1a01009 	mov	r1, r9
    b0e4:	e1a0000b 	mov	r0, fp
    b0e8:	eb0002b8 	bl	bbd0 <strcasecmp>
    b0ec:	e3500000 	cmp	r0, #0
    b0f0:	1a00000f 	bne	b134 <shell_thread+0x154>
    b0f4:	e3540000 	cmp	r4, #0
    b0f8:	0a000020 	beq	b180 <shell_thread+0x1a0>
    b0fc:	e1a02009 	mov	r2, r9
    b100:	e59f1174 	ldr	r1, [pc, #372]	; b27c <shell_thread+0x29c>
    b104:	e1a00005 	mov	r0, r5
    b108:	eb000064 	bl	b2a0 <chprintf>
    b10c:	eaffffc1 	b	b018 <shell_thread+0x38>
    b110:	e1a00005 	mov	r0, r5
    b114:	e59f1164 	ldr	r1, [pc, #356]	; b280 <shell_thread+0x2a0>
    b118:	eb000060 	bl	b2a0 <chprintf>
    b11c:	eaffffe6 	b	b0bc <shell_thread+0xdc>
    b120:	e1a02008 	mov	r2, r8
    b124:	e59f1150 	ldr	r1, [pc, #336]	; b27c <shell_thread+0x29c>
    b128:	e1a00005 	mov	r0, r5
    b12c:	eb00005b 	bl	b2a0 <chprintf>
    b130:	eaffffb8 	b	b018 <shell_thread+0x38>
    b134:	e59f3148 	ldr	r3, [pc, #328]	; b284 <shell_thread+0x2a4>
    b138:	e5930000 	ldr	r0, [r3]
    b13c:	e3500000 	cmp	r0, #0
    b140:	159f613c 	ldrne	r6, [pc, #316]	; b284 <shell_thread+0x2a4>
    b144:	1a000003 	bne	b158 <shell_thread+0x178>
    b148:	ea00002c 	b	b200 <shell_thread+0x220>
    b14c:	e5b60008 	ldr	r0, [r6, #8]!
    b150:	e3500000 	cmp	r0, #0
    b154:	0a000029 	beq	b200 <shell_thread+0x220>
    b158:	e1a0100b 	mov	r1, fp
    b15c:	eb00029b 	bl	bbd0 <strcasecmp>
    b160:	e3500000 	cmp	r0, #0
    b164:	1afffff8 	bne	b14c <shell_thread+0x16c>
    b168:	e5963004 	ldr	r3, [r6, #4]
    b16c:	e1a01004 	mov	r1, r4
    b170:	e28d2004 	add	r2, sp, #4
    b174:	e1a00005 	mov	r0, r5
    b178:	e12fff33 	blx	r3
    b17c:	eaffffa5 	b	b018 <shell_thread+0x38>
    b180:	e59f1100 	ldr	r1, [pc, #256]	; b288 <shell_thread+0x2a8>
    b184:	e1a00005 	mov	r0, r5
    b188:	eb000044 	bl	b2a0 <chprintf>
    b18c:	e59f30f0 	ldr	r3, [pc, #240]	; b284 <shell_thread+0x2a4>
    b190:	e5932000 	ldr	r2, [r3]
    b194:	e3520000 	cmp	r2, #0
    b198:	0a000007 	beq	b1bc <shell_thread+0x1dc>
    b19c:	e1a04003 	mov	r4, r3
    b1a0:	e59f60e4 	ldr	r6, [pc, #228]	; b28c <shell_thread+0x2ac>
    b1a4:	e1a01006 	mov	r1, r6
    b1a8:	e1a00005 	mov	r0, r5
    b1ac:	eb00003b 	bl	b2a0 <chprintf>
    b1b0:	e5b42008 	ldr	r2, [r4, #8]!
    b1b4:	e3520000 	cmp	r2, #0
    b1b8:	1afffff9 	bne	b1a4 <shell_thread+0x1c4>
    b1bc:	e35a0000 	cmp	sl, #0
    b1c0:	0a00000a 	beq	b1f0 <shell_thread+0x210>
    b1c4:	e59a2000 	ldr	r2, [sl]
    b1c8:	e3520000 	cmp	r2, #0
    b1cc:	0a000007 	beq	b1f0 <shell_thread+0x210>
    b1d0:	e1a0400a 	mov	r4, sl
    b1d4:	e59f60b0 	ldr	r6, [pc, #176]	; b28c <shell_thread+0x2ac>
    b1d8:	e1a01006 	mov	r1, r6
    b1dc:	e1a00005 	mov	r0, r5
    b1e0:	eb00002e 	bl	b2a0 <chprintf>
    b1e4:	e5b42008 	ldr	r2, [r4, #8]!
    b1e8:	e3520000 	cmp	r2, #0
    b1ec:	1afffff9 	bne	b1d8 <shell_thread+0x1f8>
    b1f0:	e59f1098 	ldr	r1, [pc, #152]	; b290 <shell_thread+0x2b0>
    b1f4:	e1a00005 	mov	r0, r5
    b1f8:	eb000028 	bl	b2a0 <chprintf>
    b1fc:	eaffff85 	b	b018 <shell_thread+0x38>
    b200:	e35a0000 	cmp	sl, #0
    b204:	0a00000c 	beq	b23c <shell_thread+0x25c>
    b208:	e59a0000 	ldr	r0, [sl]
    b20c:	e3500000 	cmp	r0, #0
    b210:	0a000009 	beq	b23c <shell_thread+0x25c>
    b214:	e1a0600a 	mov	r6, sl
    b218:	ea000002 	b	b228 <shell_thread+0x248>
    b21c:	e5b60008 	ldr	r0, [r6, #8]!
    b220:	e3500000 	cmp	r0, #0
    b224:	0a000004 	beq	b23c <shell_thread+0x25c>
    b228:	e1a0100b 	mov	r1, fp
    b22c:	eb000267 	bl	bbd0 <strcasecmp>
    b230:	e3500000 	cmp	r0, #0
    b234:	1afffff8 	bne	b21c <shell_thread+0x23c>
    b238:	eaffffca 	b	b168 <shell_thread+0x188>
    b23c:	e1a00005 	mov	r0, r5
    b240:	e1a0200b 	mov	r2, fp
    b244:	e59f1048 	ldr	r1, [pc, #72]	; b294 <shell_thread+0x2b4>
    b248:	eb000014 	bl	b2a0 <chprintf>
    b24c:	e59f1044 	ldr	r1, [pc, #68]	; b298 <shell_thread+0x2b8>
    b250:	e1a00005 	mov	r0, r5
    b254:	eb000011 	bl	b2a0 <chprintf>
    b258:	eaffff6e 	b	b018 <shell_thread+0x38>
    b25c:	0000caec 	andeq	ip, r0, ip, ror #21
    b260:	0000c0d0 	ldrdeq	ip, [r0], -r0
    b264:	0000c0d8 	ldrdeq	ip, [r0], -r8
    b268:	0000c0f0 	strdeq	ip, [r0], -r0
    b26c:	0000c11c 	andeq	ip, r0, ip, lsl r1
    b270:	0000c124 	andeq	ip, r0, r4, lsr #2
    b274:	0000c104 	andeq	ip, r0, r4, lsl #2
    b278:	0000cc14 	andeq	ip, r0, r4, lsl ip
    b27c:	0000c0a8 	andeq	ip, r0, r8, lsr #1
    b280:	0000c0f8 	strdeq	ip, [r0], -r8
    b284:	0000c308 	andeq	ip, r0, r8, lsl #6
    b288:	0000c12c 	andeq	ip, r0, ip, lsr #2
    b28c:	0000c144 	andeq	ip, r0, r4, asr #2
    b290:	0000bf88 	andeq	fp, r0, r8, lsl #31
    b294:	0000c148 	andeq	ip, r0, r8, asr #2
    b298:	0000c14c 	andeq	ip, r0, ip, asr #2
    b29c:	00000000 	andeq	r0, r0, r0

0000b2a0 <chprintf>:
    b2a0:	e92d000e 	push	{r1, r2, r3}
    b2a4:	e92d4ff0 	push	{r4, r5, r6, r7, r8, r9, sl, fp, lr}
    b2a8:	e1a05000 	mov	r5, r0
    b2ac:	e24dd030 	sub	sp, sp, #48	; 0x30
    b2b0:	e28d3058 	add	r3, sp, #88	; 0x58
    b2b4:	e59d9054 	ldr	r9, [sp, #84]	; 0x54
    b2b8:	e59fa7b8 	ldr	sl, [pc, #1976]	; ba78 <chprintf+0x7d8>
    b2bc:	e58d3014 	str	r3, [sp, #20]
    b2c0:	e5d91000 	ldrb	r1, [r9]
    b2c4:	e2892001 	add	r2, r9, #1
    b2c8:	e3510000 	cmp	r1, #0
    b2cc:	0a00000a 	beq	b2fc <chprintf+0x5c>
    b2d0:	e3510025 	cmp	r1, #37	; 0x25
    b2d4:	0a00000c 	beq	b30c <chprintf+0x6c>
    b2d8:	e1a09002 	mov	r9, r2
    b2dc:	e5953000 	ldr	r3, [r5]
    b2e0:	e1a00005 	mov	r0, r5
    b2e4:	e5933008 	ldr	r3, [r3, #8]
    b2e8:	e12fff33 	blx	r3
    b2ec:	e5d91000 	ldrb	r1, [r9]
    b2f0:	e2892001 	add	r2, r9, #1
    b2f4:	e3510000 	cmp	r1, #0
    b2f8:	1afffff4 	bne	b2d0 <chprintf+0x30>
    b2fc:	e28dd030 	add	sp, sp, #48	; 0x30
    b300:	e8bd4ff0 	pop	{r4, r5, r6, r7, r8, r9, sl, fp, lr}
    b304:	e28dd00c 	add	sp, sp, #12
    b308:	e12fff1e 	bx	lr
    b30c:	e3a06000 	mov	r6, #0
    b310:	e5d91001 	ldrb	r1, [r9, #1]
    b314:	e1a04006 	mov	r4, r6
    b318:	e351002d 	cmp	r1, #45	; 0x2d
    b31c:	05d91002 	ldrbeq	r1, [r9, #2]
    b320:	02892002 	addeq	r2, r9, #2
    b324:	03a08001 	moveq	r8, #1
    b328:	13a08000 	movne	r8, #0
    b32c:	e351002e 	cmp	r1, #46	; 0x2e
    b330:	05d21001 	ldrbeq	r1, [r2, #1]
    b334:	02822001 	addeq	r2, r2, #1
    b338:	03a07030 	moveq	r7, #48	; 0x30
    b33c:	13a07020 	movne	r7, #32
    b340:	e59de014 	ldr	lr, [sp, #20]
    b344:	e2822001 	add	r2, r2, #1
    b348:	ea000004 	b	b360 <chprintf+0xc0>
    b34c:	e3a06001 	mov	r6, #1
    b350:	e5de3000 	ldrb	r3, [lr]
    b354:	e28ee004 	add	lr, lr, #4
    b358:	e4d21001 	ldrb	r1, [r2], #1
    b35c:	e0834080 	add	r4, r3, r0, lsl #1
    b360:	e2413030 	sub	r3, r1, #48	; 0x30
    b364:	e6ef3073 	uxtb	r3, r3
    b368:	e3530009 	cmp	r3, #9
    b36c:	e0840104 	add	r0, r4, r4, lsl #2
    b370:	e1a0c002 	mov	ip, r2
    b374:	9afffff7 	bls	b358 <chprintf+0xb8>
    b378:	e351002a 	cmp	r1, #42	; 0x2a
    b37c:	0afffff2 	beq	b34c <chprintf+0xac>
    b380:	e3560000 	cmp	r6, #0
    b384:	158de014 	strne	lr, [sp, #20]
    b388:	e351002e 	cmp	r1, #46	; 0x2e
    b38c:	13a02000 	movne	r2, #0
    b390:	0a00015c 	beq	b908 <chprintf+0x668>
    b394:	e20130df 	and	r3, r1, #223	; 0xdf
    b398:	e353004c 	cmp	r3, #76	; 0x4c
    b39c:	e28c9001 	add	r9, ip, #1
    b3a0:	1a00003c 	bne	b498 <chprintf+0x1f8>
    b3a4:	e5dc3000 	ldrb	r3, [ip]
    b3a8:	e3530000 	cmp	r3, #0
    b3ac:	01a03001 	moveq	r3, r1
    b3b0:	e2431044 	sub	r1, r3, #68	; 0x44
    b3b4:	01a0900c 	moveq	r9, ip
    b3b8:	e3510034 	cmp	r1, #52	; 0x34
    b3bc:	979ff101 	ldrls	pc, [pc, r1, lsl #2]
    b3c0:	ea000148 	b	b8e8 <chprintf+0x648>
    b3c4:	0000b970 	andeq	fp, r0, r0, ror r9
    b3c8:	0000b8e8 	andeq	fp, r0, r8, ror #17
    b3cc:	0000b8e8 	andeq	fp, r0, r8, ror #17
    b3d0:	0000b8e8 	andeq	fp, r0, r8, ror #17
    b3d4:	0000b8e8 	andeq	fp, r0, r8, ror #17
    b3d8:	0000b8e8 	andeq	fp, r0, r8, ror #17
    b3dc:	0000b8e8 	andeq	fp, r0, r8, ror #17
    b3e0:	0000b8e8 	andeq	fp, r0, r8, ror #17
    b3e4:	0000b8e8 	andeq	fp, r0, r8, ror #17
    b3e8:	0000b8e8 	andeq	fp, r0, r8, ror #17
    b3ec:	0000b8e8 	andeq	fp, r0, r8, ror #17
    b3f0:	0000b8d8 	ldrdeq	fp, [r0], -r8
    b3f4:	0000b8e8 	andeq	fp, r0, r8, ror #17
    b3f8:	0000b8e8 	andeq	fp, r0, r8, ror #17
    b3fc:	0000b8e8 	andeq	fp, r0, r8, ror #17
    b400:	0000b8e8 	andeq	fp, r0, r8, ror #17
    b404:	0000b8e8 	andeq	fp, r0, r8, ror #17
    b408:	0000b840 	andeq	fp, r0, r0, asr #16
    b40c:	0000b8e8 	andeq	fp, r0, r8, ror #17
    b410:	0000b8e8 	andeq	fp, r0, r8, ror #17
    b414:	0000b9fc 	strdeq	fp, [r0], -ip
    b418:	0000b8e8 	andeq	fp, r0, r8, ror #17
    b41c:	0000b8e8 	andeq	fp, r0, r8, ror #17
    b420:	0000b8e8 	andeq	fp, r0, r8, ror #17
    b424:	0000b8e8 	andeq	fp, r0, r8, ror #17
    b428:	0000b8e8 	andeq	fp, r0, r8, ror #17
    b42c:	0000b8e8 	andeq	fp, r0, r8, ror #17
    b430:	0000b8e8 	andeq	fp, r0, r8, ror #17
    b434:	0000b8e8 	andeq	fp, r0, r8, ror #17
    b438:	0000b8e8 	andeq	fp, r0, r8, ror #17
    b43c:	0000b8e8 	andeq	fp, r0, r8, ror #17
    b440:	0000b814 	andeq	fp, r0, r4, lsl r8
    b444:	0000b970 	andeq	fp, r0, r0, ror r9
    b448:	0000b8e8 	andeq	fp, r0, r8, ror #17
    b44c:	0000b5f8 	strdeq	fp, [r0], -r8
    b450:	0000b8e8 	andeq	fp, r0, r8, ror #17
    b454:	0000b8e8 	andeq	fp, r0, r8, ror #17
    b458:	0000b8e8 	andeq	fp, r0, r8, ror #17
    b45c:	0000b8e8 	andeq	fp, r0, r8, ror #17
    b460:	0000b8e8 	andeq	fp, r0, r8, ror #17
    b464:	0000b8e8 	andeq	fp, r0, r8, ror #17
    b468:	0000b8e8 	andeq	fp, r0, r8, ror #17
    b46c:	0000b8e8 	andeq	fp, r0, r8, ror #17
    b470:	0000b8d8 	ldrdeq	fp, [r0], -r8
    b474:	0000b8e8 	andeq	fp, r0, r8, ror #17
    b478:	0000b8e8 	andeq	fp, r0, r8, ror #17
    b47c:	0000b8e8 	andeq	fp, r0, r8, ror #17
    b480:	0000b588 	andeq	fp, r0, r8, lsl #11
    b484:	0000b8e8 	andeq	fp, r0, r8, ror #17
    b488:	0000b840 	andeq	fp, r0, r0, asr #16
    b48c:	0000b8e8 	andeq	fp, r0, r8, ror #17
    b490:	0000b8e8 	andeq	fp, r0, r8, ror #17
    b494:	0000b9fc 	strdeq	fp, [r0], -ip
    b498:	e2413041 	sub	r3, r1, #65	; 0x41
    b49c:	e2410044 	sub	r0, r1, #68	; 0x44
    b4a0:	e6ef3073 	uxtb	r3, r3
    b4a4:	e3500034 	cmp	r0, #52	; 0x34
    b4a8:	979ff100 	ldrls	pc, [pc, r0, lsl #2]
    b4ac:	ea00010b 	b	b8e0 <chprintf+0x640>
    b4b0:	0000ba04 	andeq	fp, r0, r4, lsl #20
    b4b4:	0000b8e0 	andeq	fp, r0, r0, ror #17
    b4b8:	0000b8e0 	andeq	fp, r0, r0, ror #17
    b4bc:	0000b8e0 	andeq	fp, r0, r0, ror #17
    b4c0:	0000b8e0 	andeq	fp, r0, r0, ror #17
    b4c4:	0000b8e0 	andeq	fp, r0, r0, ror #17
    b4c8:	0000b8e0 	andeq	fp, r0, r0, ror #17
    b4cc:	0000b8e0 	andeq	fp, r0, r0, ror #17
    b4d0:	0000b8e0 	andeq	fp, r0, r0, ror #17
    b4d4:	0000b8e0 	andeq	fp, r0, r0, ror #17
    b4d8:	0000b8e0 	andeq	fp, r0, r0, ror #17
    b4dc:	0000b8d4 	ldrdeq	fp, [r0], -r4
    b4e0:	0000b8e0 	andeq	fp, r0, r0, ror #17
    b4e4:	0000b8e0 	andeq	fp, r0, r0, ror #17
    b4e8:	0000b8e0 	andeq	fp, r0, r0, ror #17
    b4ec:	0000b8e0 	andeq	fp, r0, r0, ror #17
    b4f0:	0000b8e0 	andeq	fp, r0, r0, ror #17
    b4f4:	0000b83c 	andeq	fp, r0, ip, lsr r8
    b4f8:	0000b8e0 	andeq	fp, r0, r0, ror #17
    b4fc:	0000b8e0 	andeq	fp, r0, r0, ror #17
    b500:	0000b964 	andeq	fp, r0, r4, ror #18
    b504:	0000b8e0 	andeq	fp, r0, r0, ror #17
    b508:	0000b8e0 	andeq	fp, r0, r0, ror #17
    b50c:	0000b8e0 	andeq	fp, r0, r0, ror #17
    b510:	0000b8e0 	andeq	fp, r0, r0, ror #17
    b514:	0000b8e0 	andeq	fp, r0, r0, ror #17
    b518:	0000b8e0 	andeq	fp, r0, r0, ror #17
    b51c:	0000b8e0 	andeq	fp, r0, r0, ror #17
    b520:	0000b8e0 	andeq	fp, r0, r0, ror #17
    b524:	0000b8e0 	andeq	fp, r0, r0, ror #17
    b528:	0000b8e0 	andeq	fp, r0, r0, ror #17
    b52c:	0000b810 	andeq	fp, r0, r0, lsl r8
    b530:	0000ba04 	andeq	fp, r0, r4, lsl #20
    b534:	0000b8e0 	andeq	fp, r0, r0, ror #17
    b538:	0000b5f4 	strdeq	fp, [r0], -r4
    b53c:	0000b8e0 	andeq	fp, r0, r0, ror #17
    b540:	0000b8e0 	andeq	fp, r0, r0, ror #17
    b544:	0000b8e0 	andeq	fp, r0, r0, ror #17
    b548:	0000b8e0 	andeq	fp, r0, r0, ror #17
    b54c:	0000b8e0 	andeq	fp, r0, r0, ror #17
    b550:	0000b8e0 	andeq	fp, r0, r0, ror #17
    b554:	0000b8e0 	andeq	fp, r0, r0, ror #17
    b558:	0000b8e0 	andeq	fp, r0, r0, ror #17
    b55c:	0000b8d4 	ldrdeq	fp, [r0], -r4
    b560:	0000b8e0 	andeq	fp, r0, r0, ror #17
    b564:	0000b8e0 	andeq	fp, r0, r0, ror #17
    b568:	0000b8e0 	andeq	fp, r0, r0, ror #17
    b56c:	0000b584 	andeq	fp, r0, r4, lsl #11
    b570:	0000b8e0 	andeq	fp, r0, r0, ror #17
    b574:	0000b83c 	andeq	fp, r0, ip, lsr r8
    b578:	0000b8e0 	andeq	fp, r0, r0, ror #17
    b57c:	0000b8e0 	andeq	fp, r0, r0, ror #17
    b580:	0000b964 	andeq	fp, r0, r4, ror #18
    b584:	e1a0900c 	mov	r9, ip
    b588:	e59d3014 	ldr	r3, [sp, #20]
    b58c:	e5936000 	ldr	r6, [r3]
    b590:	e2833004 	add	r3, r3, #4
    b594:	e3560000 	cmp	r6, #0
    b598:	e58d3014 	str	r3, [sp, #20]
    b59c:	0a000120 	beq	ba24 <chprintf+0x784>
    b5a0:	e3520000 	cmp	r2, #0
    b5a4:	e5d63000 	ldrb	r3, [r6]
    b5a8:	e1a0b006 	mov	fp, r6
    b5ac:	1a000122 	bne	ba3c <chprintf+0x79c>
    b5b0:	e3530000 	cmp	r3, #0
    b5b4:	03e0b000 	mvneq	fp, #0
    b5b8:	03a07020 	moveq	r7, #32
    b5bc:	0a00006c 	beq	b774 <chprintf+0x4d4>
    b5c0:	e59f24b4 	ldr	r2, [pc, #1204]	; ba7c <chprintf+0x7dc>
    b5c4:	e1a03006 	mov	r3, r6
    b5c8:	ea000001 	b	b5d4 <chprintf+0x334>
    b5cc:	e2522001 	subs	r2, r2, #1
    b5d0:	4a000002 	bmi	b5e0 <chprintf+0x340>
    b5d4:	e5f31001 	ldrb	r1, [r3, #1]!
    b5d8:	e3510000 	cmp	r1, #0
    b5dc:	1afffffa 	bne	b5cc <chprintf+0x32c>
    b5e0:	e043300b 	sub	r3, r3, fp
    b5e4:	e0444003 	sub	r4, r4, r3
    b5e8:	e243b001 	sub	fp, r3, #1
    b5ec:	e3a07020 	mov	r7, #32
    b5f0:	ea00005d 	b	b76c <chprintf+0x4cc>
    b5f4:	e1a0900c 	mov	r9, ip
    b5f8:	e59d3014 	ldr	r3, [sp, #20]
    b5fc:	e2833007 	add	r3, r3, #7
    b600:	e3c33007 	bic	r3, r3, #7
    b604:	e2832008 	add	r2, r3, #8
    b608:	e1c300d0 	ldrd	r0, [r3]
    b60c:	e58d2014 	str	r2, [sp, #20]
    b610:	ebfff582 	bl	8c20 <__aeabi_d2f>
    b614:	e3a01000 	mov	r1, #0
    b618:	e1a0b000 	mov	fp, r0
    b61c:	ebfff5d4 	bl	8d74 <__aeabi_fcmplt>
    b620:	e3500000 	cmp	r0, #0
    b624:	028d6018 	addeq	r6, sp, #24
    b628:	13a0302d 	movne	r3, #45	; 0x2d
    b62c:	01a02006 	moveq	r2, r6
    b630:	128bb102 	addne	fp, fp, #-2147483648	; 0x80000000
    b634:	128d2019 	addne	r2, sp, #25
    b638:	e1a0000b 	mov	r0, fp
    b63c:	15cd3018 	strbne	r3, [sp, #24]
    b640:	e58d200c 	str	r2, [sp, #12]
    b644:	128d6018 	addne	r6, sp, #24
    b648:	ebfff402 	bl	8658 <__aeabi_f2d>
    b64c:	e1cd00f0 	strd	r0, [sp]
    b650:	e1a0000b 	mov	r0, fp
    b654:	ebfff5e1 	bl	8de0 <__aeabi_f2iz>
    b658:	e59d200c 	ldr	r2, [sp, #12]
    b65c:	e1a0b000 	mov	fp, r0
    b660:	e282e00b 	add	lr, r2, #11
    b664:	e1a03000 	mov	r3, r0
    b668:	e1a0c00e 	mov	ip, lr
    b66c:	e0810a93 	umull	r0, r1, r3, sl
    b670:	e1a011a1 	lsr	r1, r1, #3
    b674:	e1a00001 	mov	r0, r1
    b678:	e0811101 	add	r1, r1, r1, lsl #2
    b67c:	e0431081 	sub	r1, r3, r1, lsl #1
    b680:	e2811030 	add	r1, r1, #48	; 0x30
    b684:	e6ef1071 	uxtb	r1, r1
    b688:	e2503000 	subs	r3, r0, #0
    b68c:	e56c1001 	strb	r1, [ip, #-1]!
    b690:	1afffff5 	bne	b66c <chprintf+0x3cc>
    b694:	e04ee00c 	sub	lr, lr, ip
    b698:	e1a0000c 	mov	r0, ip
    b69c:	e1a03002 	mov	r3, r2
    b6a0:	e082c00e 	add	ip, r2, lr
    b6a4:	ea000000 	b	b6ac <chprintf+0x40c>
    b6a8:	e5f01001 	ldrb	r1, [r0, #1]!
    b6ac:	e4c31001 	strb	r1, [r3], #1
    b6b0:	e153000c 	cmp	r3, ip
    b6b4:	1afffffb 	bne	b6a8 <chprintf+0x408>
    b6b8:	e3a0102e 	mov	r1, #46	; 0x2e
    b6bc:	e24ee001 	sub	lr, lr, #1
    b6c0:	e1a0000b 	mov	r0, fp
    b6c4:	e5c31000 	strb	r1, [r3]
    b6c8:	e082b00e 	add	fp, r2, lr
    b6cc:	ebfff3d7 	bl	8630 <__aeabi_i2d>
    b6d0:	e1a02000 	mov	r2, r0
    b6d4:	e1a03001 	mov	r3, r1
    b6d8:	e1cd00d0 	ldrd	r0, [sp]
    b6dc:	ebfff305 	bl	82f8 <__aeabi_dsub>
    b6e0:	e3a02000 	mov	r2, #0
    b6e4:	e59f3394 	ldr	r3, [pc, #916]	; ba80 <chprintf+0x7e0>
    b6e8:	ebfff40c 	bl	8720 <__aeabi_dmul>
    b6ec:	ebfff533 	bl	8bc0 <__aeabi_d2iz>
    b6f0:	e28be00d 	add	lr, fp, #13
    b6f4:	e1a02000 	mov	r2, r0
    b6f8:	e1a0300e 	mov	r3, lr
    b6fc:	e28b1002 	add	r1, fp, #2
    b700:	e58d1000 	str	r1, [sp]
    b704:	e28bc008 	add	ip, fp, #8
    b708:	e0810a92 	umull	r0, r1, r2, sl
    b70c:	e1a011a1 	lsr	r1, r1, #3
    b710:	e1a00001 	mov	r0, r1
    b714:	e0811101 	add	r1, r1, r1, lsl #2
    b718:	e0421081 	sub	r1, r2, r1, lsl #1
    b71c:	e2811030 	add	r1, r1, #48	; 0x30
    b720:	e6ef1071 	uxtb	r1, r1
    b724:	e5631001 	strb	r1, [r3, #-1]!
    b728:	e153000c 	cmp	r3, ip
    b72c:	e1a02000 	mov	r2, r0
    b730:	1afffff4 	bne	b708 <chprintf+0x468>
    b734:	e04ee003 	sub	lr, lr, r3
    b738:	e28e0002 	add	r0, lr, #2
    b73c:	e59d2000 	ldr	r2, [sp]
    b740:	e08bb000 	add	fp, fp, r0
    b744:	ea000000 	b	b74c <chprintf+0x4ac>
    b748:	e5f31001 	ldrb	r1, [r3, #1]!
    b74c:	e4c21001 	strb	r1, [r2], #1
    b750:	e152000b 	cmp	r2, fp
    b754:	1afffffb 	bne	b748 <chprintf+0x4a8>
    b758:	e59d3000 	ldr	r3, [sp]
    b75c:	e083b00e 	add	fp, r3, lr
    b760:	e04bb006 	sub	fp, fp, r6
    b764:	e044400b 	sub	r4, r4, fp
    b768:	e24bb001 	sub	fp, fp, #1
    b76c:	e3540000 	cmp	r4, #0
    b770:	ba000051 	blt	b8bc <chprintf+0x61c>
    b774:	e3580000 	cmp	r8, #0
    b778:	1a00005f 	bne	b8fc <chprintf+0x65c>
    b77c:	e3540000 	cmp	r4, #0
    b780:	e2644000 	rsb	r4, r4, #0
    b784:	0a00005c 	beq	b8fc <chprintf+0x65c>
    b788:	e5d62000 	ldrb	r2, [r6]
    b78c:	e5953000 	ldr	r3, [r5]
    b790:	e352002d 	cmp	r2, #45	; 0x2d
    b794:	03570030 	cmpeq	r7, #48	; 0x30
    b798:	e5933008 	ldr	r3, [r3, #8]
    b79c:	1a000002 	bne	b7ac <chprintf+0x50c>
    b7a0:	ea0000aa 	b	ba50 <chprintf+0x7b0>
    b7a4:	e5953000 	ldr	r3, [r5]
    b7a8:	e5933008 	ldr	r3, [r3, #8]
    b7ac:	e1a01007 	mov	r1, r7
    b7b0:	e1a00005 	mov	r0, r5
    b7b4:	e12fff33 	blx	r3
    b7b8:	e2944001 	adds	r4, r4, #1
    b7bc:	1afffff8 	bne	b7a4 <chprintf+0x504>
    b7c0:	e35b0000 	cmp	fp, #0
    b7c4:	bafffebd 	blt	b2c0 <chprintf+0x20>
    b7c8:	e5953000 	ldr	r3, [r5]
    b7cc:	e24bb001 	sub	fp, fp, #1
    b7d0:	e5933008 	ldr	r3, [r3, #8]
    b7d4:	e4d61001 	ldrb	r1, [r6], #1
    b7d8:	e1a00005 	mov	r0, r5
    b7dc:	e12fff33 	blx	r3
    b7e0:	e37b0001 	cmn	fp, #1
    b7e4:	1afffff7 	bne	b7c8 <chprintf+0x528>
    b7e8:	e3540000 	cmp	r4, #0
    b7ec:	0afffeb3 	beq	b2c0 <chprintf+0x20>
    b7f0:	e5953000 	ldr	r3, [r5]
    b7f4:	e1a01007 	mov	r1, r7
    b7f8:	e5933008 	ldr	r3, [r3, #8]
    b7fc:	e1a00005 	mov	r0, r5
    b800:	e12fff33 	blx	r3
    b804:	e2544001 	subs	r4, r4, #1
    b808:	1afffff8 	bne	b7f0 <chprintf+0x550>
    b80c:	eafffeab 	b	b2c0 <chprintf+0x20>
    b810:	e1a0900c 	mov	r9, ip
    b814:	e59d3014 	ldr	r3, [sp, #20]
    b818:	e28d6030 	add	r6, sp, #48	; 0x30
    b81c:	e5932000 	ldr	r2, [r3]
    b820:	e2833004 	add	r3, r3, #4
    b824:	e2444001 	sub	r4, r4, #1
    b828:	e58d3014 	str	r3, [sp, #20]
    b82c:	e5662018 	strb	r2, [r6, #-24]!	; 0xffffffe8
    b830:	e3a0b000 	mov	fp, #0
    b834:	e3a07020 	mov	r7, #32
    b838:	eaffffcb 	b	b76c <chprintf+0x4cc>
    b83c:	e1a0900c 	mov	r9, ip
    b840:	e3a0600a 	mov	r6, #10
    b844:	e59d3014 	ldr	r3, [sp, #20]
    b848:	e28db023 	add	fp, sp, #35	; 0x23
    b84c:	e4930004 	ldr	r0, [r3], #4
    b850:	e58d3014 	str	r3, [sp, #20]
    b854:	ea000000 	b	b85c <chprintf+0x5bc>
    b858:	e1a0b002 	mov	fp, r2
    b85c:	e1a01006 	mov	r1, r6
    b860:	ebfff293 	bl	82b4 <__aeabi_uidivmod>
    b864:	e2813030 	add	r3, r1, #48	; 0x30
    b868:	e3530039 	cmp	r3, #57	; 0x39
    b86c:	c2813037 	addgt	r3, r1, #55	; 0x37
    b870:	e6ef3073 	uxtb	r3, r3
    b874:	e3500000 	cmp	r0, #0
    b878:	e54b3001 	strb	r3, [fp, #-1]
    b87c:	e24b2001 	sub	r2, fp, #1
    b880:	1afffff4 	bne	b858 <chprintf+0x5b8>
    b884:	e28d0023 	add	r0, sp, #35	; 0x23
    b888:	e28d6018 	add	r6, sp, #24
    b88c:	e0400002 	sub	r0, r0, r2
    b890:	e1a01006 	mov	r1, r6
    b894:	e0822000 	add	r2, r2, r0
    b898:	ea000000 	b	b8a0 <chprintf+0x600>
    b89c:	e4db3001 	ldrb	r3, [fp], #1
    b8a0:	e152000b 	cmp	r2, fp
    b8a4:	e4c13001 	strb	r3, [r1], #1
    b8a8:	1afffffb 	bne	b89c <chprintf+0x5fc>
    b8ac:	e0444000 	sub	r4, r4, r0
    b8b0:	e3540000 	cmp	r4, #0
    b8b4:	e240b001 	sub	fp, r0, #1
    b8b8:	aaffffad 	bge	b774 <chprintf+0x4d4>
    b8bc:	e3580000 	cmp	r8, #0
    b8c0:	1a000023 	bne	b954 <chprintf+0x6b4>
    b8c4:	e35b0000 	cmp	fp, #0
    b8c8:	a1a04008 	movge	r4, r8
    b8cc:	aaffffbd 	bge	b7c8 <chprintf+0x528>
    b8d0:	eafffe7a 	b	b2c0 <chprintf+0x20>
    b8d4:	e1a0900c 	mov	r9, ip
    b8d8:	e3a06008 	mov	r6, #8
    b8dc:	eaffffd8 	b	b844 <chprintf+0x5a4>
    b8e0:	e1a03001 	mov	r3, r1
    b8e4:	e1a0900c 	mov	r9, ip
    b8e8:	e28d6030 	add	r6, sp, #48	; 0x30
    b8ec:	e3a0b000 	mov	fp, #0
    b8f0:	e2444001 	sub	r4, r4, #1
    b8f4:	e5663018 	strb	r3, [r6, #-24]!	; 0xffffffe8
    b8f8:	eaffff9b 	b	b76c <chprintf+0x4cc>
    b8fc:	e35b0000 	cmp	fp, #0
    b900:	aaffffb0 	bge	b7c8 <chprintf+0x528>
    b904:	eaffffb7 	b	b7e8 <chprintf+0x548>
    b908:	e3a06000 	mov	r6, #0
    b90c:	e59de014 	ldr	lr, [sp, #20]
    b910:	e1a02006 	mov	r2, r6
    b914:	ea000003 	b	b928 <chprintf+0x688>
    b918:	e3a06001 	mov	r6, #1
    b91c:	e5de3000 	ldrb	r3, [lr]
    b920:	e28ee004 	add	lr, lr, #4
    b924:	e0832080 	add	r2, r3, r0, lsl #1
    b928:	e4dc1001 	ldrb	r1, [ip], #1
    b92c:	e0820102 	add	r0, r2, r2, lsl #2
    b930:	e2413030 	sub	r3, r1, #48	; 0x30
    b934:	e6ef3073 	uxtb	r3, r3
    b938:	e3530009 	cmp	r3, #9
    b93c:	9afffff8 	bls	b924 <chprintf+0x684>
    b940:	e351002a 	cmp	r1, #42	; 0x2a
    b944:	0afffff3 	beq	b918 <chprintf+0x678>
    b948:	e3560000 	cmp	r6, #0
    b94c:	158de014 	strne	lr, [sp, #20]
    b950:	eafffe8f 	b	b394 <chprintf+0xf4>
    b954:	e35b0000 	cmp	fp, #0
    b958:	a3a04000 	movge	r4, #0
    b95c:	aaffff99 	bge	b7c8 <chprintf+0x528>
    b960:	eafffe56 	b	b2c0 <chprintf+0x20>
    b964:	e1a0900c 	mov	r9, ip
    b968:	e3a06010 	mov	r6, #16
    b96c:	eaffffb4 	b	b844 <chprintf+0x5a4>
    b970:	e59d2014 	ldr	r2, [sp, #20]
    b974:	e2823004 	add	r3, r2, #4
    b978:	e592e000 	ldr	lr, [r2]
    b97c:	e58d3014 	str	r3, [sp, #20]
    b980:	e35e0000 	cmp	lr, #0
    b984:	a28d6018 	addge	r6, sp, #24
    b988:	a1a0c006 	movge	ip, r6
    b98c:	b28dc019 	addlt	ip, sp, #25
    b990:	b3a0302d 	movlt	r3, #45	; 0x2d
    b994:	e28cb00b 	add	fp, ip, #11
    b998:	e1a0200b 	mov	r2, fp
    b99c:	b26ee000 	rsblt	lr, lr, #0
    b9a0:	b5cd3018 	strblt	r3, [sp, #24]
    b9a4:	b28d6018 	addlt	r6, sp, #24
    b9a8:	e0810a9e 	umull	r0, r1, lr, sl
    b9ac:	e1a031a1 	lsr	r3, r1, #3
    b9b0:	e1a01003 	mov	r1, r3
    b9b4:	e0833103 	add	r3, r3, r3, lsl #2
    b9b8:	e04e3083 	sub	r3, lr, r3, lsl #1
    b9bc:	e2833030 	add	r3, r3, #48	; 0x30
    b9c0:	e6ef3073 	uxtb	r3, r3
    b9c4:	e251e000 	subs	lr, r1, #0
    b9c8:	e5623001 	strb	r3, [r2, #-1]!
    b9cc:	1afffff5 	bne	b9a8 <chprintf+0x708>
    b9d0:	e04b1002 	sub	r1, fp, r2
    b9d4:	e08c1001 	add	r1, ip, r1
    b9d8:	ea000000 	b	b9e0 <chprintf+0x740>
    b9dc:	e5f23001 	ldrb	r3, [r2, #1]!
    b9e0:	e4cc3001 	strb	r3, [ip], #1
    b9e4:	e15c0001 	cmp	ip, r1
    b9e8:	1afffffb 	bne	b9dc <chprintf+0x73c>
    b9ec:	e04cc006 	sub	ip, ip, r6
    b9f0:	e044400c 	sub	r4, r4, ip
    b9f4:	e24cb001 	sub	fp, ip, #1
    b9f8:	eaffff5b 	b	b76c <chprintf+0x4cc>
    b9fc:	e3a06010 	mov	r6, #16
    ba00:	eaffff8f 	b	b844 <chprintf+0x5a4>
    ba04:	e59d2014 	ldr	r2, [sp, #20]
    ba08:	e3530019 	cmp	r3, #25
    ba0c:	e1a03002 	mov	r3, r2
    ba10:	e493e004 	ldr	lr, [r3], #4
    ba14:	e1a0900c 	mov	r9, ip
    ba18:	858d3014 	strhi	r3, [sp, #20]
    ba1c:	8affffd7 	bhi	b980 <chprintf+0x6e0>
    ba20:	eaffffd3 	b	b974 <chprintf+0x6d4>
    ba24:	e3520000 	cmp	r2, #0
    ba28:	e59fb054 	ldr	fp, [pc, #84]	; ba84 <chprintf+0x7e4>
    ba2c:	0a00000f 	beq	ba70 <chprintf+0x7d0>
    ba30:	e1a0600b 	mov	r6, fp
    ba34:	e2422001 	sub	r2, r2, #1
    ba38:	eafffee1 	b	b5c4 <chprintf+0x324>
    ba3c:	e3530000 	cmp	r3, #0
    ba40:	03e0b000 	mvneq	fp, #0
    ba44:	03a07020 	moveq	r7, #32
    ba48:	1afffff9 	bne	ba34 <chprintf+0x794>
    ba4c:	eaffff46 	b	b76c <chprintf+0x4cc>
    ba50:	e3a0102d 	mov	r1, #45	; 0x2d
    ba54:	e1a00005 	mov	r0, r5
    ba58:	e12fff33 	blx	r3
    ba5c:	e5953000 	ldr	r3, [r5]
    ba60:	e2866001 	add	r6, r6, #1
    ba64:	e5933008 	ldr	r3, [r3, #8]
    ba68:	e24bb001 	sub	fp, fp, #1
    ba6c:	eaffff4e 	b	b7ac <chprintf+0x50c>
    ba70:	e59f600c 	ldr	r6, [pc, #12]	; ba84 <chprintf+0x7e4>
    ba74:	eafffed1 	b	b5c0 <chprintf+0x320>
    ba78:	cccccccd 	stclgt	12, cr12, [ip], {205}	; 0xcd
    ba7c:	00007ffe 	strdeq	r7, [r0], -lr
    ba80:	40f86a00 	rscsmi	r6, r8, r0, lsl #20
    ba84:	0000c160 	andeq	ip, r0, r0, ror #2
	...

0000ba90 <Thread1>:
    ba90:	e92d4010 	push	{r4, lr}
    ba94:	e59f4048 	ldr	r4, [pc, #72]	; bae4 <Thread1+0x54>
    ba98:	e59f3048 	ldr	r3, [pc, #72]	; bae8 <Thread1+0x58>
    ba9c:	e1a05004 	mov	r5, r4
    baa0:	e5933018 	ldr	r3, [r3, #24]
    baa4:	e59f2040 	ldr	r2, [pc, #64]	; baec <Thread1+0x5c>
    baa8:	e59f6040 	ldr	r6, [pc, #64]	; baf0 <Thread1+0x60>
    baac:	e5832018 	str	r2, [r3, #24]
    bab0:	e5941000 	ldr	r1, [r4]
    bab4:	e1a00005 	mov	r0, r5
    bab8:	e3c11801 	bic	r1, r1, #65536	; 0x10000
    babc:	ebfffb1f 	bl	a740 <_pal_lld_writeport>
    bac0:	e3a00e7d 	mov	r0, #2000	; 0x7d0
    bac4:	ebfff6d1 	bl	9610 <chThdSleep>
    bac8:	e5941000 	ldr	r1, [r4]
    bacc:	e1a00005 	mov	r0, r5
    bad0:	e3811801 	orr	r1, r1, #65536	; 0x10000
    bad4:	ebfffb19 	bl	a740 <_pal_lld_writeport>
    bad8:	e1a00006 	mov	r0, r6
    badc:	ebfff6cb 	bl	9610 <chThdSleep>
    bae0:	eafffff2 	b	bab0 <Thread1+0x20>
    bae4:	0000cb20 	andeq	ip, r0, r0, lsr #22
    bae8:	0000caec 	andeq	ip, r0, ip, ror #21
    baec:	0000c170 	andeq	ip, r0, r0, ror r1
    baf0:	00004e20 	andeq	r4, r0, r0, lsr #28
	...

0000bb00 <cmd_reboot>:
    bb00:	e3510000 	cmp	r1, #0
    bb04:	da000001 	ble	bb10 <cmd_reboot+0x10>
    bb08:	e59f1008 	ldr	r1, [pc, #8]	; bb18 <cmd_reboot+0x18>
    bb0c:	eafffde3 	b	b2a0 <chprintf>
    bb10:	e3a00001 	mov	r0, #1
    bb14:	eafffa79 	b	a500 <watchdog_start>
    bb18:	0000c180 	andeq	ip, r0, r0, lsl #3
    bb1c:	00000000 	andeq	r0, r0, r0

0000bb20 <main>:
    bb20:	e92d4030 	push	{r4, r5, lr}
    bb24:	e3a04000 	mov	r4, #0
    bb28:	e59f5074 	ldr	r5, [pc, #116]	; bba4 <main+0x84>
    bb2c:	e24dd00c 	sub	sp, sp, #12
    bb30:	ebfff98a 	bl	a160 <halInit>
    bb34:	ebfff4c9 	bl	8e60 <chSysInit>
    bb38:	e1a00005 	mov	r0, r5
    bb3c:	e1a01004 	mov	r1, r4
    bb40:	ebfff9da 	bl	a2b0 <sdStart>
    bb44:	e1a00005 	mov	r0, r5
    bb48:	e59f1058 	ldr	r1, [pc, #88]	; bba8 <main+0x88>
    bb4c:	ebfffdd3 	bl	b2a0 <chprintf>
    bb50:	ebfffcca 	bl	ae80 <shellInit>
    bb54:	e3a02041 	mov	r2, #65	; 0x41
    bb58:	e59f104c 	ldr	r1, [pc, #76]	; bbac <main+0x8c>
    bb5c:	e59f004c 	ldr	r0, [pc, #76]	; bbb0 <main+0x90>
    bb60:	ebfffcca 	bl	ae90 <shellCreate>
    bb64:	e3a020ff 	mov	r2, #255	; 0xff
    bb68:	e3a01801 	mov	r1, #65536	; 0x10000
    bb6c:	e59f0040 	ldr	r0, [pc, #64]	; bbb4 <main+0x94>
    bb70:	ebfffabe 	bl	a670 <_pal_lld_setgroupmode>
    bb74:	e3a02040 	mov	r2, #64	; 0x40
    bb78:	e3a01f46 	mov	r1, #280	; 0x118
    bb7c:	e58d4000 	str	r4, [sp]
    bb80:	e59f3030 	ldr	r3, [pc, #48]	; bbb8 <main+0x98>
    bb84:	e59f0030 	ldr	r0, [pc, #48]	; bbbc <main+0x9c>
    bb88:	ebfff674 	bl	9560 <chThdCreateStatic>
    bb8c:	e59f302c 	ldr	r3, [pc, #44]	; bbc0 <main+0xa0>
    bb90:	e5930018 	ldr	r0, [r3, #24]
    bb94:	ebfff6c5 	bl	96b0 <chThdWait>
    bb98:	e1a00004 	mov	r0, r4
    bb9c:	e28dd00c 	add	sp, sp, #12
    bba0:	e8bd8030 	pop	{r4, r5, pc}
    bba4:	0000cb38 	andeq	ip, r0, r8, lsr fp
    bba8:	0000c1a0 	andeq	ip, r0, r0, lsr #3
    bbac:	00001098 	muleq	r0, r8, r0
    bbb0:	0000c1c0 	andeq	ip, r0, r0, asr #3
    bbb4:	0000cb20 	andeq	ip, r0, r0, lsr #22
    bbb8:	0000ba90 	muleq	r0, r0, sl
    bbbc:	0000c928 	andeq	ip, r0, r8, lsr #18
    bbc0:	0000caec 	andeq	ip, r0, ip, ror #21
	...

0000bbd0 <strcasecmp>:
    bbd0:	e92d41f0 	push	{r4, r5, r6, r7, r8, lr}
    bbd4:	e1a07000 	mov	r7, r0
    bbd8:	e1a06001 	mov	r6, r1
    bbdc:	e4d74001 	ldrb	r4, [r7], #1
    bbe0:	eb000096 	bl	be40 <__locale_ctype_ptr>
    bbe4:	e0800004 	add	r0, r0, r4
    bbe8:	e5d03001 	ldrb	r3, [r0, #1]
    bbec:	e2033003 	and	r3, r3, #3
    bbf0:	e3530001 	cmp	r3, #1
    bbf4:	02844020 	addeq	r4, r4, #32
    bbf8:	e4d65001 	ldrb	r5, [r6], #1
    bbfc:	eb00008f 	bl	be40 <__locale_ctype_ptr>
    bc00:	e0800005 	add	r0, r0, r5
    bc04:	e5d03001 	ldrb	r3, [r0, #1]
    bc08:	e2033003 	and	r3, r3, #3
    bc0c:	e3530001 	cmp	r3, #1
    bc10:	0a000005 	beq	bc2c <strcasecmp+0x5c>
    bc14:	e0540005 	subs	r0, r4, r5
    bc18:	1a000001 	bne	bc24 <strcasecmp+0x54>
    bc1c:	e3550000 	cmp	r5, #0
    bc20:	1affffed 	bne	bbdc <strcasecmp+0xc>
    bc24:	e8bd41f0 	pop	{r4, r5, r6, r7, r8, lr}
    bc28:	e12fff1e 	bx	lr
    bc2c:	e2850020 	add	r0, r5, #32
    bc30:	e0540000 	subs	r0, r4, r0
    bc34:	0affffe8 	beq	bbdc <strcasecmp+0xc>
    bc38:	e8bd41f0 	pop	{r4, r5, r6, r7, r8, lr}
    bc3c:	e12fff1e 	bx	lr

0000bc40 <strchr>:
    bc40:	e20110ff 	and	r1, r1, #255	; 0xff
    bc44:	e3510000 	cmp	r1, #0
    bc48:	e2003003 	and	r3, r0, #3
    bc4c:	0a000035 	beq	bd28 <strchr+0xe8>
    bc50:	e3530000 	cmp	r3, #0
    bc54:	0a00000e 	beq	bc94 <strchr+0x54>
    bc58:	e5d03000 	ldrb	r3, [r0]
    bc5c:	e3530000 	cmp	r3, #0
    bc60:	0a000053 	beq	bdb4 <strchr+0x174>
    bc64:	e1510003 	cmp	r1, r3
    bc68:	012fff1e 	bxeq	lr
    bc6c:	e2803001 	add	r3, r0, #1
    bc70:	ea000004 	b	bc88 <strchr+0x48>
    bc74:	e4d32001 	ldrb	r2, [r3], #1
    bc78:	e3520000 	cmp	r2, #0
    bc7c:	0a00004a 	beq	bdac <strchr+0x16c>
    bc80:	e1520001 	cmp	r2, r1
    bc84:	012fff1e 	bxeq	lr
    bc88:	e3130003 	tst	r3, #3
    bc8c:	e1a00003 	mov	r0, r3
    bc90:	1afffff7 	bne	bc74 <strchr+0x34>
    bc94:	e92d4070 	push	{r4, r5, r6, lr}
    bc98:	e590c000 	ldr	ip, [r0]
    bc9c:	e1815401 	orr	r5, r1, r1, lsl #8
    bca0:	e59f4114 	ldr	r4, [pc, #276]	; bdbc <strchr+0x17c>
    bca4:	e1855805 	orr	r5, r5, r5, lsl #16
    bca8:	e025e00c 	eor	lr, r5, ip
    bcac:	e08e3004 	add	r3, lr, r4
    bcb0:	e08c2004 	add	r2, ip, r4
    bcb4:	e1c3300e 	bic	r3, r3, lr
    bcb8:	e1c2200c 	bic	r2, r2, ip
    bcbc:	e59f60fc 	ldr	r6, [pc, #252]	; bdc0 <strchr+0x180>
    bcc0:	e1833002 	orr	r3, r3, r2
    bcc4:	e1130006 	tst	r3, r6
    bcc8:	1a000008 	bne	bcf0 <strchr+0xb0>
    bccc:	e5b0c004 	ldr	ip, [r0, #4]!
    bcd0:	e02ce005 	eor	lr, ip, r5
    bcd4:	e08e2004 	add	r2, lr, r4
    bcd8:	e08c3004 	add	r3, ip, r4
    bcdc:	e1c2200e 	bic	r2, r2, lr
    bce0:	e1c3300c 	bic	r3, r3, ip
    bce4:	e1833002 	orr	r3, r3, r2
    bce8:	e1130006 	tst	r3, r6
    bcec:	0afffff6 	beq	bccc <strchr+0x8c>
    bcf0:	e5d03000 	ldrb	r3, [r0]
    bcf4:	e3530000 	cmp	r3, #0
    bcf8:	0a000007 	beq	bd1c <strchr+0xdc>
    bcfc:	e1510003 	cmp	r1, r3
    bd00:	1a000002 	bne	bd10 <strchr+0xd0>
    bd04:	ea000005 	b	bd20 <strchr+0xe0>
    bd08:	e1530001 	cmp	r3, r1
    bd0c:	0a000003 	beq	bd20 <strchr+0xe0>
    bd10:	e5f03001 	ldrb	r3, [r0, #1]!
    bd14:	e3530000 	cmp	r3, #0
    bd18:	1afffffa 	bne	bd08 <strchr+0xc8>
    bd1c:	e1a00003 	mov	r0, r3
    bd20:	e8bd4070 	pop	{r4, r5, r6, lr}
    bd24:	e12fff1e 	bx	lr
    bd28:	e3530000 	cmp	r3, #0
    bd2c:	0a00000b 	beq	bd60 <strchr+0x120>
    bd30:	e5d03000 	ldrb	r3, [r0]
    bd34:	e3530000 	cmp	r3, #0
    bd38:	012fff1e 	bxeq	lr
    bd3c:	e2803001 	add	r3, r0, #1
    bd40:	ea000003 	b	bd54 <strchr+0x114>
    bd44:	e5d02000 	ldrb	r2, [r0]
    bd48:	e3520000 	cmp	r2, #0
    bd4c:	e2833001 	add	r3, r3, #1
    bd50:	012fff1e 	bxeq	lr
    bd54:	e3130003 	tst	r3, #3
    bd58:	e1a00003 	mov	r0, r3
    bd5c:	1afffff8 	bne	bd44 <strchr+0x104>
    bd60:	e5902000 	ldr	r2, [r0]
    bd64:	e59fc050 	ldr	ip, [pc, #80]	; bdbc <strchr+0x17c>
    bd68:	e59f1050 	ldr	r1, [pc, #80]	; bdc0 <strchr+0x180>
    bd6c:	e082300c 	add	r3, r2, ip
    bd70:	e1c33002 	bic	r3, r3, r2
    bd74:	e1130001 	tst	r3, r1
    bd78:	1a000004 	bne	bd90 <strchr+0x150>
    bd7c:	e5b02004 	ldr	r2, [r0, #4]!
    bd80:	e082300c 	add	r3, r2, ip
    bd84:	e1c33002 	bic	r3, r3, r2
    bd88:	e1130001 	tst	r3, r1
    bd8c:	0afffffa 	beq	bd7c <strchr+0x13c>
    bd90:	e5d03000 	ldrb	r3, [r0]
    bd94:	e3530000 	cmp	r3, #0
    bd98:	012fff1e 	bxeq	lr
    bd9c:	e5f03001 	ldrb	r3, [r0, #1]!
    bda0:	e3530000 	cmp	r3, #0
    bda4:	1afffffc 	bne	bd9c <strchr+0x15c>
    bda8:	e12fff1e 	bx	lr
    bdac:	e1a00002 	mov	r0, r2
    bdb0:	e12fff1e 	bx	lr
    bdb4:	e1a00003 	mov	r0, r3
    bdb8:	e12fff1e 	bx	lr
    bdbc:	fefefeff 	mrc2	14, 7, pc, cr14, cr15, {7}
    bdc0:	80808080 	addhi	r8, r0, r0, lsl #1
	...

0000bdd0 <strspn>:
    bdd0:	e5d0c000 	ldrb	ip, [r0]
    bdd4:	e35c0000 	cmp	ip, #0
    bdd8:	0a000016 	beq	be38 <strspn+0x68>
    bddc:	e92d4010 	push	{r4, lr}
    bde0:	e1a04000 	mov	r4, r0
    bde4:	e5d1e000 	ldrb	lr, [r1]
    bde8:	e35e0000 	cmp	lr, #0
    bdec:	0a000008 	beq	be14 <strspn+0x44>
    bdf0:	e15e000c 	cmp	lr, ip
    bdf4:	0a000009 	beq	be20 <strspn+0x50>
    bdf8:	e1a02001 	mov	r2, r1
    bdfc:	ea000001 	b	be08 <strspn+0x38>
    be00:	e153000c 	cmp	r3, ip
    be04:	0a000005 	beq	be20 <strspn+0x50>
    be08:	e5f23001 	ldrb	r3, [r2, #1]!
    be0c:	e3530000 	cmp	r3, #0
    be10:	1afffffa 	bne	be00 <strspn+0x30>
    be14:	e0400004 	sub	r0, r0, r4
    be18:	e8bd4010 	pop	{r4, lr}
    be1c:	e12fff1e 	bx	lr
    be20:	e5f0c001 	ldrb	ip, [r0, #1]!
    be24:	e35c0000 	cmp	ip, #0
    be28:	1affffee 	bne	bde8 <strspn+0x18>
    be2c:	e0400004 	sub	r0, r0, r4
    be30:	e8bd4010 	pop	{r4, lr}
    be34:	e12fff1e 	bx	lr
    be38:	e1a0000c 	mov	r0, ip
    be3c:	e12fff1e 	bx	lr

0000be40 <__locale_ctype_ptr>:
    be40:	e59f3018 	ldr	r3, [pc, #24]	; be60 <__locale_ctype_ptr+0x20>
    be44:	e5933000 	ldr	r3, [r3]
    be48:	e5933034 	ldr	r3, [r3, #52]	; 0x34
    be4c:	e59f2010 	ldr	r2, [pc, #16]	; be64 <__locale_ctype_ptr+0x24>
    be50:	e3530000 	cmp	r3, #0
    be54:	01a03002 	moveq	r3, r2
    be58:	e59300ec 	ldr	r0, [r3, #236]	; 0xec
    be5c:	e12fff1e 	bx	lr
    be60:	0000c320 	andeq	ip, r0, r0, lsr #6
    be64:	0000c750 	andeq	ip, r0, r0, asr r7
	...

0000be70 <__ascii_mbtowc>:
    be70:	e3510000 	cmp	r1, #0
    be74:	e24dd008 	sub	sp, sp, #8
    be78:	028d1004 	addeq	r1, sp, #4
    be7c:	e3520000 	cmp	r2, #0
    be80:	01a00002 	moveq	r0, r2
    be84:	0a000006 	beq	bea4 <__ascii_mbtowc+0x34>
    be88:	e3530000 	cmp	r3, #0
    be8c:	0a000006 	beq	beac <__ascii_mbtowc+0x3c>
    be90:	e5d23000 	ldrb	r3, [r2]
    be94:	e5813000 	str	r3, [r1]
    be98:	e5d22000 	ldrb	r2, [r2]
    be9c:	e2920000 	adds	r0, r2, #0
    bea0:	13a00001 	movne	r0, #1
    bea4:	e28dd008 	add	sp, sp, #8
    bea8:	e12fff1e 	bx	lr
    beac:	e3e00001 	mvn	r0, #1
    beb0:	eafffffb 	b	bea4 <__ascii_mbtowc+0x34>
	...

0000bec0 <__ascii_wctomb>:
    bec0:	e3510000 	cmp	r1, #0
    bec4:	0a000005 	beq	bee0 <__ascii_wctomb+0x20>
    bec8:	e35200ff 	cmp	r2, #255	; 0xff
    becc:	83a0308a 	movhi	r3, #138	; 0x8a
    bed0:	95c12000 	strbls	r2, [r1]
    bed4:	83e01000 	mvnhi	r1, #0
    bed8:	93a01001 	movls	r1, #1
    bedc:	85803000 	strhi	r3, [r0]
    bee0:	e1a00001 	mov	r0, r1
    bee4:	e12fff1e 	bx	lr
	...
    bef0:	00390020 	eorseq	r0, r9, r0, lsr #32
	...
    bf00:	656c6469 	strbvs	r6, [ip, #-1129]!	; 0xfffffb97
	...

0000bf10 <ch_debug>:
    bf10:	6e69616d 	powvsez	f6, f1, #5.0
    bf14:	11411600 	cmpne	r1, r0, lsl #12
    bf18:	08440404 	stmdaeq	r4, {r2, sl}^
    bf1c:	1814100c 	ldmdane	r4, {r2, r3, ip}
    bf20:	1e1d1c00 	cdpne	12, 1, cr1, cr13, cr0, {0}
    bf24:	0000201f 	andeq	r2, r0, pc, lsl r0
	...

0000bf30 <vmt>:
    bf30:	0000a1f0 	strdeq	sl, [r0], -r0
    bf34:	0000a1d0 	ldrdeq	sl, [r0], -r0
    bf38:	0000a230 	andeq	sl, r0, r0, lsr r2
    bf3c:	0000a210 	andeq	sl, r0, r0, lsl r2
    bf40:	0000a220 	andeq	sl, r0, r0, lsr #4
    bf44:	0000a200 	andeq	sl, r0, r0, lsl #4
    bf48:	0000a1e0 	andeq	sl, r0, r0, ror #3
    bf4c:	0000a1c0 	andeq	sl, r0, r0, asr #3

0000bf50 <default_config>:
    bf50:	0001c200 	andeq	ip, r1, r0, lsl #4
	...

0000bf60 <pal_default_config>:
    bf60:	6f666e69 	svcvs	0x00666e69
    bf64:	00000000 	andeq	r0, r0, r0
    bf68:	2e352e32 	mrccs	14, 1, r2, cr5, cr2, {1}
    bf6c:	736e7531 	cmnvc	lr, #205520896	; 0xc400000
    bf70:	6c626174 	stfvse	f6, [r2], #-464	; 0xfffffe30
    bf74:	00000065 	andeq	r0, r0, r5, rrx
    bf78:	6e72654b 	cdpvs	5, 7, cr6, cr2, cr11, {2}
    bf7c:	203a6c65 	eorscs	r6, sl, r5, ror #24
    bf80:	20202020 	eorcs	r2, r0, r0, lsr #32
    bf84:	73252020 			; <UNDEFINED> instruction: 0x73252020
    bf88:	00000a0d 	andeq	r0, r0, sp, lsl #20
    bf8c:	20434347 	subcs	r4, r3, r7, asr #6
    bf90:	2e332e37 	mrccs	14, 1, r2, cr3, cr7, {1}
    bf94:	30322031 	eorscc	r2, r2, r1, lsr r0
    bf98:	36303831 			; <UNDEFINED> instruction: 0x36303831
    bf9c:	28203232 	stmdacs	r0!, {r1, r4, r5, r9, ip, sp}
    bfa0:	656c6572 	strbvs	r6, [ip, #-1394]!	; 0xfffffa8e
    bfa4:	29657361 	stmdbcs	r5!, {r0, r5, r6, r8, r9, ip, sp, lr}^
    bfa8:	52415b20 	subpl	r5, r1, #32, 22	; 0x8000
    bfac:	6d652f4d 	stclvs	15, cr2, [r5, #-308]!	; 0xfffffecc
    bfb0:	64646562 	strbtvs	r6, [r4], #-1378	; 0xfffffa9e
    bfb4:	372d6465 	strcc	r6, [sp, -r5, ror #8]!
    bfb8:	6172622d 	cmnvs	r2, sp, lsr #4
    bfbc:	2068636e 	rsbcs	r6, r8, lr, ror #6
    bfc0:	69766572 	ldmdbvs	r6!, {r1, r4, r5, r6, r8, sl, sp, lr}^
    bfc4:	6e6f6973 			; <UNDEFINED> instruction: 0x6e6f6973
    bfc8:	31363220 	teqcc	r6, r0, lsr #4
    bfcc:	5d373039 	ldcpl	0, cr3, [r7, #-228]!	; 0xffffff1c
    bfd0:	00000000 	andeq	r0, r0, r0
    bfd4:	706d6f43 	rsbvc	r6, sp, r3, asr #30
    bfd8:	72656c69 	rsbvc	r6, r5, #26880	; 0x6900
    bfdc:	2020203a 	eorcs	r2, r0, sl, lsr r0
    bfe0:	73252020 			; <UNDEFINED> instruction: 0x73252020
    bfe4:	00000a0d 	andeq	r0, r0, sp, lsl #20
    bfe8:	314d5241 	cmpcc	sp, r1, asr #4
    bfec:	00000031 	andeq	r0, r0, r1, lsr r0
    bff0:	68637241 	stmdavs	r3!, {r0, r6, r9, ip, sp, lr}^
    bff4:	63657469 	cmnvs	r5, #1761607680	; 0x69000000
    bff8:	65727574 	ldrbvs	r7, [r2, #-1396]!	; 0xfffffa8c
    bffc:	7325203a 			; <UNDEFINED> instruction: 0x7325203a
    c000:	00000a0d 	andeq	r0, r0, sp, lsl #20
    c004:	314d5241 	cmpcc	sp, r1, asr #4
    c008:	4a363731 	bmi	d99cd4 <__heap_base__+0xd8d0bc>
    c00c:	532d465a 			; <UNDEFINED> instruction: 0x532d465a
    c010:	00000000 	andeq	r0, r0, r0
    c014:	65726f43 	ldrbvs	r6, [r2, #-3907]!	; 0xfffff0bd
    c018:	72615620 	rsbvc	r5, r1, #32, 12	; 0x2000000
    c01c:	746e6169 	strbtvc	r6, [lr], #-361	; 0xfffffe97
    c020:	7325203a 			; <UNDEFINED> instruction: 0x7325203a
    c024:	00000a0d 	andeq	r0, r0, sp, lsl #20
    c028:	65727550 	ldrbvs	r7, [r2, #-1360]!	; 0xfffffab0
    c02c:	4d524120 	ldfmie	f4, [r2, #-128]	; 0xffffff80
    c030:	646f6d20 	strbtvs	r6, [pc], #-3360	; c038 <pal_default_config+0xd8>
    c034:	00000065 	andeq	r0, r0, r5, rrx
    c038:	74726f50 	ldrbtvc	r6, [r2], #-3920	; 0xfffff0b0
    c03c:	666e4920 	strbtvs	r4, [lr], -r0, lsr #18
    c040:	20203a6f 	eorcs	r3, r0, pc, ror #20
    c044:	73252020 			; <UNDEFINED> instruction: 0x73252020
    c048:	00000a0d 	andeq	r0, r0, sp, lsl #20
    c04c:	324d4342 	subcc	r4, sp, #134217729	; 0x8000001
    c050:	00353338 	eorseq	r3, r5, r8, lsr r3
    c054:	74616c50 	strbtvc	r6, [r1], #-3152	; 0xfffff3b0
    c058:	6d726f66 	ldclvs	15, cr6, [r2, #-408]!	; 0xfffffe68
    c05c:	2020203a 	eorcs	r2, r0, sl, lsr r0
    c060:	73252020 			; <UNDEFINED> instruction: 0x73252020
    c064:	00000a0d 	andeq	r0, r0, sp, lsl #20
    c068:	00202d20 	eoreq	r2, r0, r0, lsr #26
    c06c:	206c754a 	rsbcs	r7, ip, sl, asr #10
    c070:	32203132 	eorcc	r3, r0, #-2147483636	; 0x8000000c
    c074:	00303230 	eorseq	r3, r0, r0, lsr r2
    c078:	6c697542 	cfstr64vs	mvdx7, [r9], #-264	; 0xfffffef8
    c07c:	69742064 	ldmdbvs	r4!, {r2, r5, r6, sp}^
    c080:	203a656d 	eorscs	r6, sl, sp, ror #10
    c084:	73252020 			; <UNDEFINED> instruction: 0x73252020
    c088:	73257325 			; <UNDEFINED> instruction: 0x73257325
    c08c:	00000a0d 	andeq	r0, r0, sp, lsl #20
    c090:	303a3331 	eorscc	r3, sl, r1, lsr r3
    c094:	39353a30 	ldmdbcc	r5!, {r4, r5, r9, fp, ip, sp}
	...
    c0a0:	74737973 	ldrbtvc	r7, [r3], #-2419	; 0xfffff68d
    c0a4:	00656d69 	rsbeq	r6, r5, r9, ror #26
    c0a8:	67617355 			; <UNDEFINED> instruction: 0x67617355
    c0ac:	25203a65 	strcs	r3, [r0, #-2661]!	; 0xfffff59b
    c0b0:	000a0d73 	andeq	r0, sl, r3, ror sp
    c0b4:	0d756c25 	ldcleq	12, cr6, [r5, #-148]!	; 0xffffff6c
    c0b8:	0000000a 	andeq	r0, r0, sl
    c0bc:	00000000 	andeq	r0, r0, r0
    c0c0:	0000445e 	andeq	r4, r0, lr, asr r4
	...
    c0d0:	6c656873 	stclvs	8, cr6, [r5], #-460	; 0xfffffe34
    c0d4:	0000006c 	andeq	r0, r0, ip, rrx
    c0d8:	68430a0d 	stmdavs	r3, {r0, r2, r3, r9, fp}^
    c0dc:	4f696269 	svcmi	0x00696269
    c0e0:	54522f53 	ldrbpl	r2, [r2], #-3923	; 0xfffff0ad
    c0e4:	65685320 	strbvs	r5, [r8, #-800]!	; 0xfffffce0
    c0e8:	0a0d6c6c 	beq	3672a0 <__heap_base__+0x35a688>
    c0ec:	00000000 	andeq	r0, r0, r0
    c0f0:	203e6863 	eorscs	r6, lr, r3, ror #16
    c0f4:	00000000 	andeq	r0, r0, r0
    c0f8:	6f6c0a0d 	svcvs	0x006c0a0d
    c0fc:	74756f67 	ldrbtvc	r6, [r5], #-3943	; 0xfffff099
    c100:	00000000 	andeq	r0, r0, r0
    c104:	206f6f74 	rsbcs	r6, pc, r4, ror pc	; <UNPREDICTABLE>
    c108:	796e616d 	stmdbvc	lr!, {r0, r2, r3, r5, r6, r8, sp, lr}^
    c10c:	67726120 	ldrbvs	r6, [r2, -r0, lsr #2]!
    c110:	6e656d75 	mcrvs	13, 3, r6, cr5, cr5, {3}
    c114:	0a0d7374 	beq	368eec <__heap_base__+0x35c2d4>
    c118:	00000000 	andeq	r0, r0, r0
    c11c:	74697865 	strbtvc	r7, [r9], #-2149	; 0xfffff79b
    c120:	00000000 	andeq	r0, r0, r0
    c124:	706c6568 	rsbvc	r6, ip, r8, ror #10
    c128:	00000000 	andeq	r0, r0, r0
    c12c:	6d6d6f43 	stclvs	15, cr6, [sp, #-268]!	; 0xfffffef4
    c130:	73646e61 	cmnvc	r4, #1552	; 0x610
    c134:	6568203a 	strbvs	r2, [r8, #-58]!	; 0xffffffc6
    c138:	6520706c 	strvs	r7, [r0, #-108]!	; 0xffffff94
    c13c:	20746978 	rsbscs	r6, r4, r8, ror r9
    c140:	00000000 	andeq	r0, r0, r0
    c144:	00207325 	eoreq	r7, r0, r5, lsr #6
    c148:	00007325 	andeq	r7, r0, r5, lsr #6
    c14c:	0a0d3f20 	beq	35bdd4 <__heap_base__+0x34f1bc>
	...
    c160:	6c756e28 	ldclvs	14, cr6, [r5], #-160	; 0xffffff60
    c164:	0000296c 	andeq	r2, r0, ip, ror #18
	...
    c170:	6e696c62 	cdpvs	12, 6, cr6, cr9, cr2, {3}
    c174:	0072656b 	rsbseq	r6, r2, fp, ror #10
	...
    c180:	67617355 			; <UNDEFINED> instruction: 0x67617355
    c184:	72203a65 	eorvc	r3, r0, #413696	; 0x65000
    c188:	6f6f6265 	svcvs	0x006f6265
    c18c:	000a0d74 	andeq	r0, sl, r4, ror sp

0000c190 <commands>:
    c190:	0000c1d0 	ldrdeq	ip, [r0], -r0
    c194:	0000bb00 	andeq	fp, r0, r0, lsl #22
	...
    c1a0:	6e69614d 	powvsem	f6, f1, #5.0
    c1a4:	44532820 	ldrbmi	r2, [r3], #-2080	; 0xfffff7e0
    c1a8:	74732031 	ldrbtvc	r2, [r3], #-49	; 0xffffffcf
    c1ac:	65747261 	ldrbvs	r7, [r4, #-609]!	; 0xfffffd9f
    c1b0:	0a0d2964 	beq	356748 <__heap_base__+0x349b30>
	...

0000c1c0 <shell_config>:
    c1c0:	0000cb38 	andeq	ip, r0, r8, lsr fp
    c1c4:	0000c190 	muleq	r0, r0, r1
	...
    c1d0:	6f626572 	svcvs	0x00626572
    c1d4:	0000746f 	andeq	r7, r0, pc, ror #8
	...
    c1e0:	00000043 	andeq	r0, r0, r3, asr #32
    c1e4:	49534f50 	ldmdbmi	r3, {r4, r6, r8, r9, sl, fp, lr}^
    c1e8:	00000058 	andeq	r0, r0, r8, asr r0
    c1ec:	00000000 	andeq	r0, r0, r0
    c1f0:	0000002e 	andeq	r0, r0, lr, lsr #32
	...

0000c200 <_ctype_>:
    c200:	20202000 	eorcs	r2, r0, r0
    c204:	20202020 	eorcs	r2, r0, r0, lsr #32
    c208:	28282020 	stmdacs	r8!, {r5, sp}
    c20c:	20282828 	eorcs	r2, r8, r8, lsr #16
    c210:	20202020 	eorcs	r2, r0, r0, lsr #32
    c214:	20202020 	eorcs	r2, r0, r0, lsr #32
    c218:	20202020 	eorcs	r2, r0, r0, lsr #32
    c21c:	20202020 	eorcs	r2, r0, r0, lsr #32
    c220:	10108820 	andsne	r8, r0, r0, lsr #16
    c224:	10101010 	andsne	r1, r0, r0, lsl r0
    c228:	10101010 	andsne	r1, r0, r0, lsl r0
    c22c:	10101010 	andsne	r1, r0, r0, lsl r0
    c230:	04040410 	streq	r0, [r4], #-1040	; 0xfffffbf0
    c234:	04040404 	streq	r0, [r4], #-1028	; 0xfffffbfc
    c238:	10040404 	andne	r0, r4, r4, lsl #8
    c23c:	10101010 	andsne	r1, r0, r0, lsl r0
    c240:	41411010 	cmpmi	r1, r0, lsl r0
    c244:	41414141 	cmpmi	r1, r1, asr #2
    c248:	01010101 	tsteq	r1, r1, lsl #2
    c24c:	01010101 	tsteq	r1, r1, lsl #2
    c250:	01010101 	tsteq	r1, r1, lsl #2
    c254:	01010101 	tsteq	r1, r1, lsl #2
    c258:	01010101 	tsteq	r1, r1, lsl #2
    c25c:	10101010 	andsne	r1, r0, r0, lsl r0
    c260:	42421010 	submi	r1, r2, #16
    c264:	42424242 	submi	r4, r2, #536870916	; 0x20000004
    c268:	02020202 	andeq	r0, r2, #536870912	; 0x20000000
    c26c:	02020202 	andeq	r0, r2, #536870912	; 0x20000000
    c270:	02020202 	andeq	r0, r2, #536870912	; 0x20000000
    c274:	02020202 	andeq	r0, r2, #536870912	; 0x20000000
    c278:	02020202 	andeq	r0, r2, #536870912	; 0x20000000
    c27c:	10101010 	andsne	r1, r0, r0, lsl r0
    c280:	00000020 	andeq	r0, r0, r0, lsr #32
	...
